
build/ta/avb/023f8f1a-292a-432b-8fc4-de8471358067.elf:     file format elf32-littlearm
build/ta/avb/023f8f1a-292a-432b-8fc4-de8471358067.elf
architecture: armv7, flags 0x00000150:
HAS_SYMS, DYNAMIC, D_PAGED
start address 0x00000400

Program Header:
    LOAD off    0x00001000 vaddr 0x00000000 paddr 0x00000000 align 2**12
         filesz 0x0000831c memsz 0x0000831c flags r-x
    LOAD off    0x0000a000 vaddr 0x00009000 paddr 0x00009000 align 2**12
         filesz 0x00000290 memsz 0x000072e0 flags rw-
 DYNAMIC off    0x0000a000 vaddr 0x00009000 paddr 0x00009000 align 2**2
         filesz 0x00000088 memsz 0x00000088 flags rw-
   STACK off    0x00000000 vaddr 0x00000000 paddr 0x00000000 align 2**4
         filesz 0x00000000 memsz 0x00000000 flags rwx

Dynamic Section:
  HASH                 0x000082f0
  GNU_HASH             0x00008234
  STRTAB               0x000082c0
  SYMTAB               0x00008260
  STRSZ                0x0000002e
  SYMENT               0x00000010
  DEBUG                0x00000000
  REL                  0x000090c8
  RELSZ                0x00000100
  RELENT               0x00000008
  FLAGS_1              0x08000000
  RELCOUNT             0x00000013
private flags = 0x5000400: [Version5 EABI] [hard-float ABI]

Sections:
Idx Name          Size      VMA       LMA       File off  Algn
  0 .ta_head      00000020  00000000  00000000  00001000  2**3
                  CONTENTS, ALLOC, LOAD, READONLY, DATA
  1 .text         00007150  00000020  00000020  00001020  2**3
                  CONTENTS, ALLOC, LOAD, READONLY, CODE
  2 .rodata       000010c4  00007170  00007170  00008170  2**2
                  CONTENTS, ALLOC, LOAD, READONLY, DATA
  3 .gnu.hash     0000002c  00008234  00008234  00009234  2**2
                  CONTENTS, ALLOC, LOAD, READONLY, DATA
  4 .dynsym       00000060  00008260  00008260  00009260  2**2
                  CONTENTS, ALLOC, LOAD, READONLY, DATA
  5 .dynstr       0000002e  000082c0  000082c0  000092c0  2**0
                  CONTENTS, ALLOC, LOAD, READONLY, DATA
  6 .hash         0000002c  000082f0  000082f0  000092f0  2**2
                  CONTENTS, ALLOC, LOAD, READONLY, DATA
  7 .dynamic      00000088  00009000  00009000  0000a000  2**2
                  CONTENTS, ALLOC, LOAD, DATA
  8 .got          00000040  00009088  00009088  0000a088  2**2
                  CONTENTS, ALLOC, LOAD, DATA
  9 .rel.got      00000068  00009160  00009160  0000a160  2**2
                  CONTENTS, ALLOC, LOAD, READONLY, DATA
 10 .data         000000c8  000091c8  000091c8  0000a1c8  2**2
                  CONTENTS, ALLOC, LOAD, DATA
 11 .bss          00007050  00009290  00009290  0000a290  2**2
                  ALLOC
 12 .debug_info   00014782  00000000  00000000  0000a290  2**0
                  CONTENTS, READONLY, DEBUGGING, OCTETS
 13 .debug_abbrev 00003c36  00000000  00000000  0001ea12  2**0
                  CONTENTS, READONLY, DEBUGGING, OCTETS
 14 .debug_loclists 0000c57d  00000000  00000000  00022648  2**0
                  CONTENTS, READONLY, DEBUGGING, OCTETS
 15 .debug_aranges 00000568  00000000  00000000  0002ebc8  2**3
                  CONTENTS, READONLY, DEBUGGING, OCTETS
 16 .debug_rnglists 000006b0  00000000  00000000  0002f130  2**0
                  CONTENTS, READONLY, DEBUGGING, OCTETS
 17 .debug_macro  00017090  00000000  00000000  0002f7e0  2**0
                  CONTENTS, READONLY, DEBUGGING, OCTETS
 18 .debug_line   0000dc3e  00000000  00000000  00046870  2**0
                  CONTENTS, READONLY, DEBUGGING, OCTETS
 19 .debug_str    000182e1  00000000  00000000  000544ae  2**0
                  CONTENTS, READONLY, DEBUGGING, OCTETS
 20 .comment      00000033  00000000  00000000  0006c78f  2**0
                  CONTENTS, READONLY
 21 .ARM.attributes 00000033  00000000  00000000  0006c7c2  2**0
                  CONTENTS, READONLY
 22 .debug_frame  00002014  00000000  00000000  0006c7f8  2**2
                  CONTENTS, READONLY, DEBUGGING, OCTETS
 23 .rel.dyn      00000098  000090c8  000090c8  0000a0c8  2**2
                  CONTENTS, ALLOC, LOAD, READONLY, DATA
 24 .debug_line_str 000000e0  00000000  00000000  0006e80c  2**0
                  CONTENTS, READONLY, DEBUGGING, OCTETS
SYMBOL TABLE:
00000000 l    d  .ta_head	00000000 .ta_head
00000020 l    d  .text	00000000 .text
00007170 l    d  .rodata	00000000 .rodata
00008234 l    d  .gnu.hash	00000000 .gnu.hash
00008260 l    d  .dynsym	00000000 .dynsym
000082c0 l    d  .dynstr	00000000 .dynstr
000082f0 l    d  .hash	00000000 .hash
00009000 l    d  .dynamic	00000000 .dynamic
00009088 l    d  .got	00000000 .got
00009160 l    d  .rel.got	00000000 .rel.got
000091c8 l    d  .data	00000000 .data
00009290 l    d  .bss	00000000 .bss
00000000 l    d  .debug_info	00000000 .debug_info
00000000 l    d  .debug_abbrev	00000000 .debug_abbrev
00000000 l    d  .debug_loclists	00000000 .debug_loclists
00000000 l    d  .debug_aranges	00000000 .debug_aranges
00000000 l    d  .debug_rnglists	00000000 .debug_rnglists
00000000 l    d  .debug_macro	00000000 .debug_macro
00000000 l    d  .debug_line	00000000 .debug_line
00000000 l    d  .debug_str	00000000 .debug_str
00000000 l    d  .comment	00000000 .comment
00000000 l    d  .ARM.attributes	00000000 .ARM.attributes
00000000 l    d  .debug_frame	00000000 .debug_frame
000090c8 l    d  .rel.dyn	00000000 .rel.dyn
00000000 l    d  .debug_line_str	00000000 .debug_line_str
00000000 l    df *ABS*	00000000 user_ta_header.c
00007174 l     O .rodata	00000004 __compound_literal.4
00007178 l     O .rodata	00000004 __compound_literal.3
0000717c l     O .rodata	00000001 __compound_literal.2
0000717d l     O .rodata	00000001 __compound_literal.1
0000717e l     O .rodata	00000001 __compound_literal.0
00000000 l    df *ABS*	00000000 entry.c
00000020 l     F .text	00000048 open_rb_state
00000068 l     F .text	00000044 get_named_object_name.constprop.0
0000752e l     O .rodata	00000009 rb_obj_name
00007537 l     O .rodata	00000013 __func__.1
0000754a l     O .rodata	00000014 __func__.0
0000755e l     O .rodata	0000001b __func__.2
00000000 l    df *ABS*	00000000 ta_entry_a32.o
00000000 l    df *ABS*	00000000 trace.c
00007641 l     O .rodata	00000005 lvl_strs.0
00000000 l    df *ABS*	00000000 snprintk.c
000005e0 l     F .text	00000684 kprintf.constprop.0
0000767e l     O .rodata	00000011 hexdigits
0000768f l     O .rodata	00000011 HEXDIGITS
00000000 l    df *ABS*	00000000 arm32_aeabi_ldivmod_a32.o
00000000 l    df *ABS*	00000000 trace_ext.c
00000000 l    df *ABS*	00000000 tee_api.c
00000d48 l     F .text	00000066 update_out_param
00000e20 l     F .text	0000012c copy_param
000076b1 l     O .rodata	0000000b __func__.0
00009290 l     O .bss	00000004 tee_api_instance_data
00000000 l    df *ABS*	00000000 tee_api_objects.c
00000000 l    df *ABS*	00000000 tee_api_panic.c
000019d8 l     F .text	00000020 check_access
000019fc l     F .text	0000000a check_res.constprop.0
00000000 l    df *ABS*	00000000 tee_system_pta.c
00001ab0 l     F .text	00000050 invoke_system_pta
00007188 l     O .rodata	00000010 uuid.2
00007198 l     O .rodata	0000000a __func__.1
000071a2 l     O .rodata	00000017 __func__.0
00009294 l     O .bss	00000004 sess.3
00000000 l    df *ABS*	00000000 utee_syscalls_a32.o
00000000 l    df *ABS*	00000000 user_ta_entry.c
000020bc l     F .text	0000006a _get_fn_array
00002126 l     F .text	00000032 _fini_iterate_phdr_cb
00002158 l     F .text	0000001c ta_header_get_session
00002174 l     F .text	0000005a to_utee_params
000021ce l     F .text	0000003c from_utee_params
0000220a l     F .text	00000062 _init_iterate_phdr_cb
00002334 l     F .text	0000006c ta_header_remove_session
0000772a l     O .rodata	00000016 __func__.0
00009298 l     O .bss	00000004 _num_mod_init
0000929c l     O .bss	00000001 init_done
00009220 l     O .data	00000008 ta_sessions
00009228 l     O .data	00000008 __phdr_info_head
00000000 l    df *ABS*	00000000 abort.c
00000000 l    df *ABS*	00000000 tee_api_arith_mpi.c
00002550 l     F .text	00000020 api_panic
00002570 l     F .text	00000020 mpi_panic
00002590 l     F .text	00000050 get_mpi
000025e0 l     F .text	00000040 copy_mpi_to_bigint
00002620 l     F .text	000000a4 bigint_binary
000026c4 l     F .text	00000010 mpi_is_odd
000026d4 l     F .text	00000016 rng_read
000026ea l     F .text	0000045e mpi_egcd
000092d0 l     O .bss	00003000 data.17
00002d7c l     F .text	0000010c bigint_binary_mod
000077fe l     O .rodata	00000008 __func__.14
00007806 l     O .rodata	0000000e __func__.10
00007814 l     O .rodata	00000009 __func__.2
0000781d l     O .rodata	00000012 __func__.16
0000782f l     O .rodata	0000000f __func__.15
0000783e l     O .rodata	0000001f __func__.13
0000785d l     O .rodata	00000019 __func__.12
00007876 l     O .rodata	00000012 __func__.6
00007888 l     O .rodata	00000015 __func__.11
0000789d l     O .rodata	0000000e __func__.9
000078ab l     O .rodata	0000000e __func__.8
000078b9 l     O .rodata	0000000e __func__.7
000078c7 l     O .rodata	00000011 __func__.5
000078d8 l     O .rodata	00000018 __func__.4
000078f0 l     O .rodata	0000001d __func__.3
0000790d l     O .rodata	00000019 __func__.1
00007926 l     O .rodata	00000015 __func__.0
00000000 l    df *ABS*	00000000 tcb.c
000079d1 l     O .rodata	00000010 __func__.1
000079e1 l     O .rodata	00000010 __func__.0
0000c2d0 l     O .bss	00000004 _tls_size
0000c2d4 l     O .bss	00000004 _tcb
00000000 l    df *ABS*	00000000 assert.c
00000000 l    df *ABS*	00000000 bignum.c
0000398c l     F .text	00000024 mpi_safe_cond_assign
000039b0 l     F .text	0000003a mpi_get_digit
000039ea l     F .text	00000364 mpi_mul_hlp
00003d4e l     F .text	000000e4 mpi_montmul
00003e32 l     F .text	00000022 mpi_montred
00003e54 l     F .text	00000026 mpi_montg_init.isra.0
00003e7a l     F .text	00000052 mpi_bigendian_to_host.part.0
00003ecc l     F .text	00000064 mpi_fill_random_internal
00004040 l     F .text	00000036 mbedtls_mpi_resize_clear
000052a8 l     F .text	00000050 mpi_check_small_factors
000058a0 l     F .text	00000192 mpi_miller_rabin
000071bc l     O .rodata	000002a0 small_prime
0000745c l     O .rodata	00000024 gcd_pairs
00000000 l    df *ABS*	00000000 platform_util.c
00009230 l     O .data	00000004 memset_func
00000000 l    df *ABS*	00000000 bget_malloc.c
0000638c l     F .text	00000020 raw_malloc_return_hook
00006ab6 l     F .text	00000082 gen_malloc_add_pool
00008127 l     O .rodata	00000005 __func__.8
0000812c l     O .rodata	00000006 __func__.7
00008132 l     O .rodata	00000005 __func__.5
00008137 l     O .rodata	00000006 __func__.6
0000813d l     O .rodata	00000006 __func__.4
00008143 l     O .rodata	00000007 __func__.3
0000814a l     O .rodata	00000014 __func__.2
0000815e l     O .rodata	0000000e __func__.1
0000816c l     O .rodata	00000013 __func__.0
00009234 l     O .data	0000005c malloc_ctx
00000000 l    df *ABS*	00000000 memcpy.c
00000000 l    df *ABS*	00000000 mempool.c
00008208 l     O .rodata	00000013 __func__.2
0000821b l     O .rodata	0000000b __func__.1
00008226 l     O .rodata	0000000e __func__.0
00000000 l    df *ABS*	00000000 memset.c
00000000 l    df *ABS*	00000000 memchr.c
00000000 l    df *ABS*	00000000 strlen.c
00000000 l    df *ABS*	00000000 arm32_aeabi_ldivmod.c
00006f4e l     F .text	0000008a ul_div_qr
00000000 l    df *ABS*	00000000 snprintf.c
00000000 l    df *ABS*	00000000 memmove.c
00000000 l    df *ABS*	00000000 consttime_memcmp.c
00000000 l    df *ABS*	00000000 
00009000 l     O *ABS*	00000000 _DYNAMIC
00009088 l     O *ABS*	00000000 _GLOBAL_OFFSET_TABLE_
00007130 l     F .text	00000010 ___utee_cache_operation_from_thumb
00007140 l     F .text	00000010 ___utee_panic_from_thumb
00007150 l     F .text	00000010 ___utee_log_from_thumb
00007160 l     F .text	00000010 ___utee_check_access_rights_from_thumb
00000d24 g     F .text	00000022 putchar
0000147c g     F .text	00000078 TEE_PopulateTransientObject
000035ee g     F .text	00000004 TEE_BigIntConvertToFMM
000032cc g     F .text	00000008 TEE_BigIntSquareMod
00002e88 g     F .text	00000110 TEE_BigIntShiftRight
00006bde g     F .text	00000002 raw_malloc_add_pool
00001b84 g     F .text	00000088 tee_invoke_supp_plugin
00003fa8 g     F .text	00000098 mbedtls_mpi_grow
00007012 g     F .text	00000072 __l_divmod
000011c2 g     F .text	00000020 TEE_Realloc
00001a9e g     F .text	00000012 __utee_check_inout_annotation
00006a22 g     F .text	00000008 raw_free
00000cc6 g     F .text	0000003a printf
000014f4 g     F .text	00000022 TEE_InitRefAttribute
00001c34 g     F .text	00000014 _utee_log
00000fe0 g     F .text	000000b4 TEE_InvokeTACommand
00001a06 g     F .text	0000002e __utee_check_outbuf_annotation
00003f3c g     F .text	00000028 mbedtls_mpi_init_mempool
00001ed0 g     F .text	00000014 _utee_cryp_random_number_generate
000044c6 g     F .text	0000006a mbedtls_mpi_write_binary
000005b8 g     F .text	0000000e vsnprintk
00004a54 g     F .text	0000002e mbedtls_mpi_sub_int
000070b0 g     F .text	00000034 memmove
00007084 g     F .text	0000001e snprintf
00002d56 g     F .text	00000026 TEE_BigIntCmpS32
00001516 g     F .text	00000022 TEE_InitValueAttribute
00004076 g     F .text	000000b6 mbedtls_mpi_shrink
00002fe4 g     F .text	0000001c TEE_BigIntAdd
00001e30 g     F .text	00000014 _utee_cryp_obj_restrict_usage
00007180 g     O .rodata	00000004 ta_heap_size
0000144c g     F .text	00000030 TEE_ResetTransientObject
00001f58 g     F .text	00000018 _utee_asymm_operate
00004bc4 g     F .text	0000011c mbedtls_mpi_read_string
0000301c g     F .text	00000074 TEE_BigIntNeg
00001ff4 g     F .text	00000014 _utee_storage_free_enum
00000020 g       .text	00000000 __text_start
000017f4 g     F .text	0000002c TEE_StartPersistentObjectEnumerator
000045d4 g     F .text	00000078 mbedtls_mpi_shift_r
00006ce8 g     F .text	00000054 malloc_buffer_overlaps_heap
00001d98 g     F .text	00000014 _utee_hash_init
00003294 g     F .text	0000001c TEE_BigIntSubMod
00005e6c g     F .text	00000210 mbedtls_mpi_gen_prime
000042f0 g     F .text	00000020 mbedtls_mpi_get_bit
0000441a g     F .text	00000042 mbedtls_mpi_read_binary
0000056c g     F .text	00000018 trace_printf
000052fe g     F .text	00000004 mbedtls_mpi_montmul
000020a8 g     F .text	00000014 _utee_cache_operation
00006d3c g     F .text	000000d8 memcpy
000035f2 g     F .text	00000066 TEE_BigIntConvertFromFMM
000019f8 g     F .text	00000004 TEE_Panic
00000c94 g     F .text	00000018 __aeabi_uldivmod
00000d00 g     F .text	00000024 puts
00003658 g     F .text	000000c0 TEE_BigIntComputeFMM
000069b0 g     F .text	0000001c malloc_get_stats
00001150 g     F .text	00000016 TEE_GetREETime
00006be0 g     F .text	00000018 raw_malloc_get_stats
00001798 g     F .text	00000034 TEE_AllocatePersistentObjectEnumerator
000091cc g     O .data	00000054 ta_props
00001a34 g     F .text	00000018 __utee_check_instring_annotation
00006b38 g     F .text	00000014 malloc
00006f04 g     F .text	0000000a __ta_entry_c
000015d0 g     F .text	00000054 TEE_GenerateKey
000070a2 g     F .text	0000000e vsnprintf
000091c8 g     O .data	00000004 trace_level
00002d20 g     F .text	00000036 TEE_BigIntCmp
00007170 g     O .rodata	00000004 ta_num_props
00006818 g     F .text	00000084 bgetr
00001f88 g     F .text	00000018 _utee_storage_obj_open
00006ef8 g     F .text	0000000c mempool_free
00001dac g     F .text	00000014 _utee_hash_update
00002c1c g     F .text	00000058 TEE_BigIntConvertToOctetString
00004394 g     F .text	00000036 mbedtls_mpi_bitlen
00002f98 g     F .text	0000002a TEE_BigIntGetBit
00007184 g     O .rodata	00000003 trace_ext_prefix
00002030 g     F .text	00000014 _utee_storage_next_enum
00006a10 g     F .text	00000012 raw_malloc
000065b0 g     F .text	00000060 bgetz
000010a0 g     F .text	0000000c TEE_GetInstanceData
000010ce g     F .text	0000001e TEE_Wait
00004a82 g     F .text	000000e6 mbedtls_mpi_mul_mpi
000011e8 g     F .text	00000006 TEE_CacheFlush
00000434 g     F .text	00000138 trace_vprintf
000000b0 g     F .text	00000002 TA_DestroyEntryPoint
00003f30 g     F .text	0000000c mbedtls_mpi_init
00001fb8 g     F .text	00000014 _utee_storage_obj_del
00004360 g     F .text	00000034 mbedtls_mpi_lsb
00003954 g     F .text	00000028 _assert_log
00001d70 g     F .text	00000014 _utee_cryp_state_copy
000035ea g     F .text	00000004 TEE_BigIntFMMContextSizeInU32
00001b36 g     F .text	0000004e tee_unmap
0000175e g     F .text	0000003a TEE_RenamePersistentObject
00002b48 g     F .text	00000044 _TEE_MathAPI_Init
00003718 g     F .text	0000017c __utee_tcb_init
00004994 g     F .text	00000048 mbedtls_mpi_add_mpi
00002538 g     F .text	00000018 abort
00005a32 g     F .text	000000e6 mbedtls_mpi_random
00001a78 g     F .text	00000012 __utee_check_out_annotation
0000c2dc g     O .bss	00004000 ta_heap
000032d4 g     F .text	000000c0 TEE_BigIntInvMod
0000226c g     F .text	000000b8 __utee_call_elf_init_fn
000000b6 g     F .text	00000002 TA_CloseSessionEntryPoint
00001ca0 g     F .text	00000014 _utee_close_ta_session
00001624 g     F .text	00000074 TEE_OpenPersistentObject
000049dc g     F .text	0000004a mbedtls_mpi_sub_mpi
000070e4 g     F .text	00000048 consttime_memcmp
00001c20 g     F .text	00000014 _utee_return
00001c48 g     F .text	00000014 __utee_panic
00003894 g     F .text	00000018 __tls_get_addr
000000b8 g     F .text	00000348 TA_InvokeCommandEntryPoint
00002324 g     F .text	00000010 __utee_call_elf_fini_fn
00006bb8 g     F .text	00000010 free_wipe
00006e98 g     F .text	0000003c mempool_alloc
00001c0c g     F .text	00000014 _utee_panic
00006bcc g     F .text	00000012 raw_malloc_init_ctx
00006ed4 g     F .text	00000024 mempool_calloc
00002094 g     F .text	00000014 _utee_cryp_obj_generate_key
0000206c g     F .text	00000014 _utee_storage_obj_trunc
000015a0 g     F .text	00000030 TEE_CopyObjectAttributes
00001cf4 g     F .text	00000014 _utee_unmask_cancellation
00006b4c g     F .text	00000020 calloc
00001166 g     F .text	00000052 TEE_Malloc
00000e16 g     F .text	0000000a TEE_CheckMemoryAccessRights
00006fd8 g     F .text	0000003a __ul_divmod
00001c5c g     F .text	00000018 _utee_get_property
000042b8 g     F .text	00000038 mbedtls_mpi_lset
00001890 g     F .text	00000054 TEE_ReadObjectData
000012b4 g     F .text	00000078 TEE_GetObjectBufferAttribute
000000b2 g     F .text	00000004 TA_OpenSessionEntryPoint
000038ac g     F .text	000000a8 dl_iterate_phdr
000102e0 g       .bss	00000000 __ftrace_buf_end
000092cc g     O .bss	00000004 ta_param_types
00005044 g     F .text	0000002e mbedtls_mpi_div_int
000011f4 g     F .text	0000002a __utee_from_attr
00005dfe g     F .text	00000064 mbedtls_mpi_is_prime_ext
000035ac g     F .text	00000030 TEE_BigIntIsProbablePrime
00004b68 g     F .text	0000005c mbedtls_mpi_mul_int
00001724 g     F .text	00000024 TEE_CloseAndDeletePersistentObject1
00005306 g     F .text	00000466 mbedtls_mpi_exp_mod
000041c0 g     F .text	00000064 mbedtls_mpi_safe_cond_assign
00004734 g     F .text	000000a2 mbedtls_mpi_lt_mpi_ct
00002b8c g     F .text	00000038 TEE_BigIntInit
00001a4c g     F .text	0000002c __utee_check_outstring_annotation
000010ac g     F .text	00000004 TEE_MemMove
00006378 g     F .text	00000014 mbedtls_platform_zeroize
00002bc4 g     F .text	00000058 TEE_BigIntConvertFromOctetString
00001f40 g     F .text	00000018 _utee_authenc_dec_final
0000464c g     F .text	00000062 mbedtls_mpi_cmp_abs
00002044 g     F .text	00000014 _utee_storage_obj_read
00006f22 g     F .text	0000001c memchr
00000dde g     F .text	0000001c TEE_UnmaskCancellation
0000121e g     F .text	0000002a TEE_GetObjectInfo
0000607c g     F .text	000002fc mbedtls_mpi_self_test
00002080 g     F .text	00000014 _utee_storage_obj_seek
0000141c g     F .text	00000030 TEE_FreeTransientObject
00001ce0 g     F .text	00000014 _utee_check_access_rights
000047d6 g     F .text	0000002e mbedtls_mpi_cmp_int
00002008 g     F .text	00000014 _utee_storage_reset_enum
00001a8a g     F .text	00000014 __utee_check_attr_in_annotation
00001f10 g     F .text	00000018 _utee_authenc_update_payload
00003228 g     F .text	00000050 TEE_BigIntMod
000050d6 g     F .text	0000006e mbedtls_mpi_mod_int
000043d6 g     F .text	00000044 mbedtls_mpi_read_binary_le
0000313a g     F .text	000000ee TEE_BigIntDiv
00001e58 g     F .text	00000014 _utee_cryp_obj_alloc
000102e0 g       .bss	00000000 __ftrace_buf_start
0000412c g     F .text	00000066 mbedtls_mpi_copy
0000699c g     F .text	00000014 malloc_reset_stats
00000c64 g     F .text	00000016 __vsprintf
00001d44 g     F .text	00000014 _utee_set_ta_time
00001cb4 g     F .text	00000018 _utee_invoke_ta_command
00001268 g     F .text	00000020 TEE_RestrictObjectUsage1
00006b6c g     F .text	0000001c realloc
00004192 g     F .text	0000002e mbedtls_mpi_swap
00006e14 g     F .text	00000084 mempool_alloc_pool
00003090 g     F .text	000000a4 TEE_BigIntMul
00006bc8 g     F .text	00000004 raw_malloc_get_ctx_size
00004530 g     F .text	000000a4 mbedtls_mpi_shift_l
000046ae g     F .text	00000086 mbedtls_mpi_cmp_mpi
000010b4 g     F .text	00000004 TEE_MemFill
00006bf8 g     F .text	00000010 malloc_add_pool
00000420 g     F .text	00000014 trace_get_level
00004804 g     F .text	000000ae mbedtls_mpi_add_abs
00001288 g     F .text	0000002c TEE_RestrictObjectUsage
000035e2 g     F .text	00000008 TEE_BigIntFMMSizeInU32
00006a72 g     F .text	00000044 raw_realloc
000035dc g     F .text	00000004 TEE_BigIntInitFMM
000013c8 g     F .text	00000014 TEE_CloseObject
00001dd8 g     F .text	00000014 _utee_cipher_init
000023a0 g     F .text	00000198 __utee_entry
00007170 g       .text	00000000 __text_end
00003394 g     F .text	0000007c TEE_BigIntRelativePrime
00005072 g     F .text	00000064 mbedtls_mpi_mod_mpi
00001e1c g     F .text	00000014 _utee_cryp_obj_get_info
0000689c g     F .text	0000009c bpool
00001d58 g     F .text	00000018 _utee_cryp_state_alloc
00000dc2 g     F .text	0000001c TEE_GetCancellationFlag
0000576c g     F .text	00000100 mbedtls_mpi_gcd
00001128 g     F .text	00000028 TEE_SetTAPersistentTime
0000445c g     F .text	0000006a mbedtls_mpi_write_binary_le
00006f12 g     F .text	00000010 memset
000069cc g     F .text	00000044 raw_memalign
000010ec g     F .text	0000003c TEE_GetTAPersistentTime
00000584 g     F .text	00000002 dhex_dump
00001698 g     F .text	0000008c TEE_CreatePersistentObject
00000dfa g     F .text	0000001c TEE_MaskCancellation
00001924 g     F .text	00000038 TEE_TruncateObjectData
00001e44 g     F .text	00000014 _utee_cryp_obj_get_attr
00001248 g     F .text	00000020 TEE_GetObjectInfo1
00001e04 g     F .text	00000018 _utee_cipher_final
00000404 g     F .text	0000001c trace_set_level
0000132c g     F .text	0000009c TEE_GetObjectValueAttribute
00001d84 g     F .text	00000014 _utee_cryp_state_free
00001c88 g     F .text	00000018 _utee_open_ta_session
00002cc4 g     F .text	0000005c TEE_BigIntConvertToS32
00003000 g     F .text	0000001c TEE_BigIntSub
00006f0e g     F .text	00000004 tahead_get_trace_level
0000201c g     F .text	00000014 _utee_storage_start_enum
0000195c g     F .text	0000007c TEE_SeekObjectData
00001b00 g     F .text	00000036 tee_map_zi
00005302 g     F .text	00000004 mbedtls_mpi_montred
00006b88 g     F .text	00000020 memalign
00002c74 g     F .text	00000050 TEE_BigIntConvertFromS32
00004a26 g     F .text	0000002e mbedtls_mpi_add_int
00001f28 g     F .text	00000018 _utee_authenc_enc_final
00006c08 g     F .text	000000e0 malloc_buffer_is_within_alloced
00001e6c g     F .text	00000014 _utee_cryp_obj_close
000035e0 g     F .text	00000002 TEE_BigIntInitFMMContext
00001d08 g     F .text	00000014 _utee_mask_cancellation
00001fcc g     F .text	00000014 _utee_storage_obj_rename
000017e0 g     F .text	00000014 TEE_ResetPersistentObjectEnumerator
000018e4 g     F .text	00000040 TEE_WriteObjectData
00003134 g     F .text	00000006 TEE_BigIntSquare
00002058 g     F .text	00000014 _utee_storage_obj_write
000000ac g     F .text	00000004 TA_CreateEntryPoint
00000400 g     F .text	00000004 __ta_entry
00001efc g     F .text	00000014 _utee_authenc_update_aad
000052f8 g     F .text	00000006 mbedtls_mpi_montg_init
000005c6 g     F .text	0000001a snprintk
00002fc2 g     F .text	00000022 TEE_BigIntGetBitCount
00001ea8 g     F .text	00000014 _utee_cryp_obj_copy
000032b0 g     F .text	0000001c TEE_BigIntMulMod
00005b18 g     F .text	000002e6 mbedtls_mpi_inv_mod
000092ac g     O .bss	00000020 ta_params
00004ce0 g     F .text	00000364 mbedtls_mpi_div_mpi
000043ca g     F .text	0000000c mbedtls_mpi_size
000063ac g     F .text	00000204 bget
000013dc g     F .text	00000040 TEE_AllocateTransientObject
00001d1c g     F .text	00000014 _utee_wait
00004310 g     F .text	00000050 mbedtls_mpi_set_bit
000011b8 g     F .text	0000000a TEE_Free
00005e62 g     F .text	0000000a mbedtls_mpi_is_prime
000011ee g     F .text	00000006 TEE_CacheInvalidate
0000397c g     F .text	00000010 _assert_break
00003278 g     F .text	0000001c TEE_BigIntAddMod
00001d30 g     F .text	00000014 _utee_get_time
00001e94 g     F .text	00000014 _utee_cryp_obj_populate
000010b0 g     F .text	00000004 TEE_MemCompare
00001dec g     F .text	00000018 _utee_cipher_update
00000588 g     F .text	00000030 __vsnprintf
000092a0 g     O .bss	0000000c __elf_phdr_info
000017cc g     F .text	00000014 TEE_FreePersistentObjectEnumerator
00000f4c g     F .text	00000094 TEE_OpenTASession
00000cac g     F .text	00000014 trace_ext_puts
00000cc0 g     F .text	00000006 trace_ext_get_thread_id
00001748 g     F .text	00000016 TEE_CloseAndDeletePersistentObject
00001ebc g     F .text	00000014 _utee_cryp_derive_key
00003f64 g     F .text	00000044 mbedtls_mpi_free
00001e80 g     F .text	00000014 _utee_cryp_obj_reset
000011e2 g     F .text	00000006 TEE_CacheClean
00001c74 g     F .text	00000014 _utee_get_property_name_to_index
00006a2a g     F .text	00000048 raw_calloc
00004224 g     F .text	00000094 mbedtls_mpi_safe_cond_swap
00001ee4 g     F .text	00000018 _utee_authenc_init
00001538 g     F .text	00000068 TEE_CopyObjectAttributes1
00006f3e g     F .text	00000010 strlen
00003410 g     F .text	0000019c TEE_BigIntComputeExtendedGcd
00001fe0 g     F .text	00000014 _utee_storage_alloc_enum
000010b8 g     F .text	00000016 TEE_GetSystemTime
00001f70 g     F .text	00000018 _utee_asymm_verify
00000000 g     O .ta_head	00000020 ta_head
00006610 g     F .text	00000208 brel
000048b2 g     F .text	000000e2 mbedtls_mpi_sub_abs
0000586c g     F .text	00000034 mbedtls_mpi_fill_random
00001094 g     F .text	0000000c TEE_SetInstanceData
00001ccc g     F .text	00000014 _utee_get_cancellation_flag
00000c7c g     F .text	00000018 __aeabi_ldivmod
00005144 g     F .text	00000164 mbedtls_mpi_write_string
00001820 g     F .text	00000070 TEE_GetNextPersistentObject
00000dae g     F .text	00000014 TEE_CloseTASession
00001fa0 g     F .text	00000018 _utee_storage_obj_create
00006ba8 g     F .text	00000010 free
00006938 g     F .text	00000064 bstats
0000c2d8 g     O .bss	00000004 mbedtls_mpi_mempool
00001dc0 g     F .text	00000018 _utee_hash_final



Disassembly of section .text:

00000020 <open_rb_state>:
open_rb_state():
/home/aom1/Work/Linux/target/STM32MP1-DK2/bootloader/optee-os-custom/ta/avb/entry.c:39
      20:	b570      	push	{r4, r5, r6, lr}
      22:	b086      	sub	sp, #24
/home/aom1/Work/Linux/target/STM32MP1-DK2/bootloader/optee-os-custom/ta/avb/entry.c:44
      24:	4e0f      	ldr	r6, [pc, #60]	; (64 <open_rb_state+0x44>)
/home/aom1/Work/Linux/target/STM32MP1-DK2/bootloader/optee-os-custom/ta/avb/entry.c:39
      26:	4605      	mov	r5, r0
/home/aom1/Work/Linux/target/STM32MP1-DK2/bootloader/optee-os-custom/ta/avb/entry.c:44
      28:	9100      	str	r1, [sp, #0]
/home/aom1/Work/Linux/target/STM32MP1-DK2/bootloader/optee-os-custom/ta/avb/entry.c:39
      2a:	460c      	mov	r4, r1
/home/aom1/Work/Linux/target/STM32MP1-DK2/bootloader/optee-os-custom/ta/avb/entry.c:44
      2c:	447e      	add	r6, pc
      2e:	2303      	movs	r3, #3
      30:	480b      	ldr	r0, [pc, #44]	; (60 <open_rb_state+0x40>)
      32:	2209      	movs	r2, #9
      34:	4631      	mov	r1, r6
      36:	f001 faf5 	bl	1624 <TEE_OpenPersistentObject>
/home/aom1/Work/Linux/target/STM32MP1-DK2/bootloader/optee-os-custom/ta/avb/entry.c:46
      3a:	b170      	cbz	r0, 5a <open_rb_state+0x3a>
create_rb_state():
/home/aom1/Work/Linux/target/STM32MP1-DK2/bootloader/optee-os-custom/ta/avb/entry.c:32
      3c:	4808      	ldr	r0, [pc, #32]	; (60 <open_rb_state+0x40>)
      3e:	2304      	movs	r3, #4
      40:	9302      	str	r3, [sp, #8]
      42:	ab05      	add	r3, sp, #20
      44:	9301      	str	r3, [sp, #4]
      46:	2300      	movs	r3, #0
      48:	9300      	str	r3, [sp, #0]
      4a:	2209      	movs	r2, #9
      4c:	9403      	str	r4, [sp, #12]
      4e:	f240 4303 	movw	r3, #1027	; 0x403
      52:	9505      	str	r5, [sp, #20]
      54:	4631      	mov	r1, r6
      56:	f001 fb1f 	bl	1698 <TEE_CreatePersistentObject>
open_rb_state():
/home/aom1/Work/Linux/target/STM32MP1-DK2/bootloader/optee-os-custom/ta/avb/entry.c:50
      5a:	b006      	add	sp, #24
      5c:	bd70      	pop	{r4, r5, r6, pc}
      5e:	bf00      	nop
      60:	80000100 	.word	0x80000100
      64:	000074fe 	.word	0x000074fe

00000068 <get_named_object_name.constprop.0>:
get_named_object_name():
/home/aom1/Work/Linux/target/STM32MP1-DK2/bootloader/optee-os-custom/ta/avb/entry.c:52
      68:	e92d 41f0 	stmdb	sp!, {r4, r5, r6, r7, r8, lr}
/home/aom1/Work/Linux/target/STM32MP1-DK2/bootloader/optee-os-custom/ta/avb/entry.c:58
      6c:	f101 080c 	add.w	r8, r1, #12
      70:	f1b8 0f40 	cmp.w	r8, #64	; 0x40
/home/aom1/Work/Linux/target/STM32MP1-DK2/bootloader/optee-os-custom/ta/avb/entry.c:52
      74:	4607      	mov	r7, r0
      76:	460d      	mov	r5, r1
      78:	4614      	mov	r4, r2
      7a:	461e      	mov	r6, r3
/home/aom1/Work/Linux/target/STM32MP1-DK2/bootloader/optee-os-custom/ta/avb/entry.c:58
      7c:	d810      	bhi.n	a0 <get_named_object_name.constprop.0+0x38>
/home/aom1/Work/Linux/target/STM32MP1-DK2/bootloader/optee-os-custom/ta/avb/entry.c:63
      7e:	490a      	ldr	r1, [pc, #40]	; (a8 <get_named_object_name.constprop.0+0x40>)
      80:	220c      	movs	r2, #12
      82:	4620      	mov	r0, r4
      84:	4479      	add	r1, pc
      86:	f001 f811 	bl	10ac <TEE_MemMove>
/home/aom1/Work/Linux/target/STM32MP1-DK2/bootloader/optee-os-custom/ta/avb/entry.c:66
      8a:	462a      	mov	r2, r5
      8c:	4639      	mov	r1, r7
      8e:	f104 000c 	add.w	r0, r4, #12
      92:	f001 f80b 	bl	10ac <TEE_MemMove>
/home/aom1/Work/Linux/target/STM32MP1-DK2/bootloader/optee-os-custom/ta/avb/entry.c:68
      96:	f8c6 8000 	str.w	r8, [r6]
/home/aom1/Work/Linux/target/STM32MP1-DK2/bootloader/optee-os-custom/ta/avb/entry.c:70
      9a:	2000      	movs	r0, #0
/home/aom1/Work/Linux/target/STM32MP1-DK2/bootloader/optee-os-custom/ta/avb/entry.c:71
      9c:	e8bd 81f0 	ldmia.w	sp!, {r4, r5, r6, r7, r8, pc}
/home/aom1/Work/Linux/target/STM32MP1-DK2/bootloader/optee-os-custom/ta/avb/entry.c:60
      a0:	4800      	ldr	r0, [pc, #0]	; (a4 <get_named_object_name.constprop.0+0x3c>)
      a2:	e7fb      	b.n	9c <get_named_object_name.constprop.0+0x34>
      a4:	ffff0006 	.word	0xffff0006
      a8:	000073f8 	.word	0x000073f8

000000ac <TA_CreateEntryPoint>:
TA_CreateEntryPoint():
/home/aom1/Work/Linux/target/STM32MP1-DK2/bootloader/optee-os-custom/ta/avb/entry.c:360
      ac:	2000      	movs	r0, #0
      ae:	4770      	bx	lr

000000b0 <TA_DestroyEntryPoint>:
TA_DestroyEntryPoint():
/home/aom1/Work/Linux/target/STM32MP1-DK2/bootloader/optee-os-custom/ta/avb/entry.c:364
      b0:	4770      	bx	lr

000000b2 <TA_OpenSessionEntryPoint>:
TA_OpenSessionEntryPoint():
/home/aom1/Work/Linux/target/STM32MP1-DK2/bootloader/optee-os-custom/ta/avb/entry.c:371
      b2:	2000      	movs	r0, #0
      b4:	4770      	bx	lr

000000b6 <TA_CloseSessionEntryPoint>:
TA_CloseSessionEntryPoint():
/home/aom1/Work/Linux/target/STM32MP1-DK2/bootloader/optee-os-custom/ta/avb/entry.c:375
      b6:	4770      	bx	lr

000000b8 <TA_InvokeCommandEntryPoint>:
TA_InvokeCommandEntryPoint():
/home/aom1/Work/Linux/target/STM32MP1-DK2/bootloader/optee-os-custom/ta/avb/entry.c:380
      b8:	e92d 43f0 	stmdb	sp!, {r4, r5, r6, r7, r8, r9, lr}
      bc:	4614      	mov	r4, r2
      be:	b099      	sub	sp, #100	; 0x64
      c0:	461d      	mov	r5, r3
/home/aom1/Work/Linux/target/STM32MP1-DK2/bootloader/optee-os-custom/ta/avb/entry.c:381
      c2:	2905      	cmp	r1, #5
      c4:	f200 816e 	bhi.w	3a4 <TA_InvokeCommandEntryPoint+0x2ec>
      c8:	e8df f011 	tbh	[pc, r1, lsl #1]
      cc:	00440006 	.word	0x00440006
      d0:	00a4008a 	.word	0x00a4008a
      d4:	012a00d2 	.word	0x012a00d2
read_rb_idx():
/home/aom1/Work/Linux/target/STM32MP1-DK2/bootloader/optee-os-custom/ta/avb/entry.c:85
      d8:	2c21      	cmp	r4, #33	; 0x21
      da:	f040 815f 	bne.w	39c <TA_InvokeCommandEntryPoint+0x2e4>
/home/aom1/Work/Linux/target/STM32MP1-DK2/bootloader/optee-os-custom/ta/avb/entry.c:88
      de:	682e      	ldr	r6, [r5, #0]
get_slot_offset():
/home/aom1/Work/Linux/target/STM32MP1-DK2/bootloader/optee-os-custom/ta/avb/entry.c:19
      e0:	2eff      	cmp	r6, #255	; 0xff
      e2:	f200 815b 	bhi.w	39c <TA_InvokeCommandEntryPoint+0x2e4>
read_rb_idx():
/home/aom1/Work/Linux/target/STM32MP1-DK2/bootloader/optee-os-custom/ta/avb/entry.c:92
      e6:	a906      	add	r1, sp, #24
      e8:	2000      	movs	r0, #0
      ea:	f7ff ff99 	bl	20 <open_rb_state>
/home/aom1/Work/Linux/target/STM32MP1-DK2/bootloader/optee-os-custom/ta/avb/entry.c:93
      ee:	4604      	mov	r4, r0
      f0:	2800      	cmp	r0, #0
      f2:	d168      	bne.n	1c6 <TA_InvokeCommandEntryPoint+0x10e>
get_slot_offset():
/home/aom1/Work/Linux/target/STM32MP1-DK2/bootloader/optee-os-custom/ta/avb/entry.c:22
      f4:	00f6      	lsls	r6, r6, #3
read_rb_idx():
/home/aom1/Work/Linux/target/STM32MP1-DK2/bootloader/optee-os-custom/ta/avb/entry.c:96
      f6:	4602      	mov	r2, r0
      f8:	9806      	ldr	r0, [sp, #24]
get_slot_offset():
/home/aom1/Work/Linux/target/STM32MP1-DK2/bootloader/optee-os-custom/ta/avb/entry.c:22
      fa:	3604      	adds	r6, #4
read_rb_idx():
/home/aom1/Work/Linux/target/STM32MP1-DK2/bootloader/optee-os-custom/ta/avb/entry.c:96
      fc:	4631      	mov	r1, r6
      fe:	f001 fc2d 	bl	195c <TEE_SeekObjectData>
/home/aom1/Work/Linux/target/STM32MP1-DK2/bootloader/optee-os-custom/ta/avb/entry.c:97
     102:	4604      	mov	r4, r0
     104:	b980      	cbnz	r0, 128 <TA_InvokeCommandEntryPoint+0x70>
/home/aom1/Work/Linux/target/STM32MP1-DK2/bootloader/optee-os-custom/ta/avb/entry.c:100
     106:	9806      	ldr	r0, [sp, #24]
     108:	af08      	add	r7, sp, #32
     10a:	ab05      	add	r3, sp, #20
     10c:	2208      	movs	r2, #8
     10e:	4639      	mov	r1, r7
     110:	f001 fbbe 	bl	1890 <TEE_ReadObjectData>
/home/aom1/Work/Linux/target/STM32MP1-DK2/bootloader/optee-os-custom/ta/avb/entry.c:101
     114:	4604      	mov	r4, r0
     116:	b938      	cbnz	r0, 128 <TA_InvokeCommandEntryPoint+0x70>
/home/aom1/Work/Linux/target/STM32MP1-DK2/bootloader/optee-os-custom/ta/avb/entry.c:103
     118:	9b05      	ldr	r3, [sp, #20]
/home/aom1/Work/Linux/target/STM32MP1-DK2/bootloader/optee-os-custom/ta/avb/entry.c:111
     11a:	9806      	ldr	r0, [sp, #24]
/home/aom1/Work/Linux/target/STM32MP1-DK2/bootloader/optee-os-custom/ta/avb/entry.c:103
     11c:	2b08      	cmp	r3, #8
     11e:	d105      	bne.n	12c <TA_InvokeCommandEntryPoint+0x74>
/home/aom1/Work/Linux/target/STM32MP1-DK2/bootloader/optee-os-custom/ta/avb/entry.c:121
     120:	9b09      	ldr	r3, [sp, #36]	; 0x24
     122:	60ab      	str	r3, [r5, #8]
/home/aom1/Work/Linux/target/STM32MP1-DK2/bootloader/optee-os-custom/ta/avb/entry.c:122
     124:	9b08      	ldr	r3, [sp, #32]
     126:	60eb      	str	r3, [r5, #12]
write_lock_state():
/home/aom1/Work/Linux/target/STM32MP1-DK2/bootloader/optee-os-custom/ta/avb/entry.c:244
     128:	9806      	ldr	r0, [sp, #24]
     12a:	e04a      	b.n	1c2 <TA_InvokeCommandEntryPoint+0x10a>
read_rb_idx():
/home/aom1/Work/Linux/target/STM32MP1-DK2/bootloader/optee-os-custom/ta/avb/entry.c:104
     12c:	efc0 0010 	vmov.i32	d16, #0	; 0x00000000
     130:	edcd 0b08 	vstr	d16, [sp, #32]
/home/aom1/Work/Linux/target/STM32MP1-DK2/bootloader/optee-os-custom/ta/avb/entry.c:106
     134:	2b00      	cmp	r3, #0
     136:	d0f3      	beq.n	120 <TA_InvokeCommandEntryPoint+0x68>
/home/aom1/Work/Linux/target/STM32MP1-DK2/bootloader/optee-os-custom/ta/avb/entry.c:111
     138:	4622      	mov	r2, r4
     13a:	4631      	mov	r1, r6
     13c:	f001 fc0e 	bl	195c <TEE_SeekObjectData>
/home/aom1/Work/Linux/target/STM32MP1-DK2/bootloader/optee-os-custom/ta/avb/entry.c:113
     140:	b930      	cbnz	r0, 150 <TA_InvokeCommandEntryPoint+0x98>
/home/aom1/Work/Linux/target/STM32MP1-DK2/bootloader/optee-os-custom/ta/avb/entry.c:115
     142:	9806      	ldr	r0, [sp, #24]
     144:	2208      	movs	r2, #8
     146:	4639      	mov	r1, r7
     148:	f001 fbcc 	bl	18e4 <TEE_WriteObjectData>
/home/aom1/Work/Linux/target/STM32MP1-DK2/bootloader/optee-os-custom/ta/avb/entry.c:116
     14c:	2800      	cmp	r0, #0
     14e:	d0e7      	beq.n	120 <TA_InvokeCommandEntryPoint+0x68>
create_rb_state():
/home/aom1/Work/Linux/target/STM32MP1-DK2/bootloader/optee-os-custom/ta/avb/entry.c:32
     150:	4604      	mov	r4, r0
     152:	e7e9      	b.n	128 <TA_InvokeCommandEntryPoint+0x70>
write_rb_idx():
/home/aom1/Work/Linux/target/STM32MP1-DK2/bootloader/optee-os-custom/ta/avb/entry.c:141
     154:	2c11      	cmp	r4, #17
     156:	f040 8121 	bne.w	39c <TA_InvokeCommandEntryPoint+0x2e4>
/home/aom1/Work/Linux/target/STM32MP1-DK2/bootloader/optee-os-custom/ta/avb/entry.c:144
     15a:	682e      	ldr	r6, [r5, #0]
get_slot_offset():
/home/aom1/Work/Linux/target/STM32MP1-DK2/bootloader/optee-os-custom/ta/avb/entry.c:19
     15c:	2eff      	cmp	r6, #255	; 0xff
     15e:	f200 811d 	bhi.w	39c <TA_InvokeCommandEntryPoint+0x2e4>
write_rb_idx():
/home/aom1/Work/Linux/target/STM32MP1-DK2/bootloader/optee-os-custom/ta/avb/entry.c:147
     162:	68ab      	ldr	r3, [r5, #8]
/home/aom1/Work/Linux/target/STM32MP1-DK2/bootloader/optee-os-custom/ta/avb/entry.c:149
     164:	a905      	add	r1, sp, #20
/home/aom1/Work/Linux/target/STM32MP1-DK2/bootloader/optee-os-custom/ta/avb/entry.c:147
     166:	68ea      	ldr	r2, [r5, #12]
/home/aom1/Work/Linux/target/STM32MP1-DK2/bootloader/optee-os-custom/ta/avb/entry.c:149
     168:	2000      	movs	r0, #0
/home/aom1/Work/Linux/target/STM32MP1-DK2/bootloader/optee-os-custom/ta/avb/entry.c:147
     16a:	e9cd 2306 	strd	r2, r3, [sp, #24]
/home/aom1/Work/Linux/target/STM32MP1-DK2/bootloader/optee-os-custom/ta/avb/entry.c:149
     16e:	f7ff ff57 	bl	20 <open_rb_state>
/home/aom1/Work/Linux/target/STM32MP1-DK2/bootloader/optee-os-custom/ta/avb/entry.c:150
     172:	4604      	mov	r4, r0
     174:	bb38      	cbnz	r0, 1c6 <TA_InvokeCommandEntryPoint+0x10e>
get_slot_offset():
/home/aom1/Work/Linux/target/STM32MP1-DK2/bootloader/optee-os-custom/ta/avb/entry.c:22
     176:	00f5      	lsls	r5, r6, #3
write_rb_idx():
/home/aom1/Work/Linux/target/STM32MP1-DK2/bootloader/optee-os-custom/ta/avb/entry.c:153
     178:	4602      	mov	r2, r0
     17a:	9805      	ldr	r0, [sp, #20]
get_slot_offset():
/home/aom1/Work/Linux/target/STM32MP1-DK2/bootloader/optee-os-custom/ta/avb/entry.c:22
     17c:	3504      	adds	r5, #4
write_rb_idx():
/home/aom1/Work/Linux/target/STM32MP1-DK2/bootloader/optee-os-custom/ta/avb/entry.c:153
     17e:	4629      	mov	r1, r5
     180:	f001 fbec 	bl	195c <TEE_SeekObjectData>
/home/aom1/Work/Linux/target/STM32MP1-DK2/bootloader/optee-os-custom/ta/avb/entry.c:154
     184:	4604      	mov	r4, r0
     186:	b9d8      	cbnz	r0, 1c0 <TA_InvokeCommandEntryPoint+0x108>
/home/aom1/Work/Linux/target/STM32MP1-DK2/bootloader/optee-os-custom/ta/avb/entry.c:157
     188:	9805      	ldr	r0, [sp, #20]
     18a:	ab04      	add	r3, sp, #16
     18c:	2208      	movs	r2, #8
     18e:	a908      	add	r1, sp, #32
     190:	f001 fb7e 	bl	1890 <TEE_ReadObjectData>
/home/aom1/Work/Linux/target/STM32MP1-DK2/bootloader/optee-os-custom/ta/avb/entry.c:158
     194:	4604      	mov	r4, r0
     196:	b998      	cbnz	r0, 1c0 <TA_InvokeCommandEntryPoint+0x108>
/home/aom1/Work/Linux/target/STM32MP1-DK2/bootloader/optee-os-custom/ta/avb/entry.c:160
     198:	9b04      	ldr	r3, [sp, #16]
     19a:	2b08      	cmp	r3, #8
     19c:	d017      	beq.n	1ce <TA_InvokeCommandEntryPoint+0x116>
/home/aom1/Work/Linux/target/STM32MP1-DK2/bootloader/optee-os-custom/ta/avb/entry.c:161
     19e:	efc0 0010 	vmov.i32	d16, #0	; 0x00000000
     1a2:	edcd 0b08 	vstr	d16, [sp, #32]
/home/aom1/Work/Linux/target/STM32MP1-DK2/bootloader/optee-os-custom/ta/avb/entry.c:168
     1a6:	9805      	ldr	r0, [sp, #20]
     1a8:	2200      	movs	r2, #0
     1aa:	4629      	mov	r1, r5
     1ac:	f001 fbd6 	bl	195c <TEE_SeekObjectData>
/home/aom1/Work/Linux/target/STM32MP1-DK2/bootloader/optee-os-custom/ta/avb/entry.c:169
     1b0:	4604      	mov	r4, r0
     1b2:	b928      	cbnz	r0, 1c0 <TA_InvokeCommandEntryPoint+0x108>
/home/aom1/Work/Linux/target/STM32MP1-DK2/bootloader/optee-os-custom/ta/avb/entry.c:172
     1b4:	9805      	ldr	r0, [sp, #20]
     1b6:	2208      	movs	r2, #8
     1b8:	a906      	add	r1, sp, #24
     1ba:	f001 fb93 	bl	18e4 <TEE_WriteObjectData>
     1be:	4604      	mov	r4, r0
/home/aom1/Work/Linux/target/STM32MP1-DK2/bootloader/optee-os-custom/ta/avb/entry.c:174
     1c0:	9805      	ldr	r0, [sp, #20]
     1c2:	f001 f901 	bl	13c8 <TEE_CloseObject>
TA_InvokeCommandEntryPoint():
/home/aom1/Work/Linux/target/STM32MP1-DK2/bootloader/optee-os-custom/ta/avb/entry.c:398
     1c6:	4620      	mov	r0, r4
     1c8:	b019      	add	sp, #100	; 0x64
     1ca:	e8bd 83f0 	ldmia.w	sp!, {r4, r5, r6, r7, r8, r9, pc}
write_rb_idx():
/home/aom1/Work/Linux/target/STM32MP1-DK2/bootloader/optee-os-custom/ta/avb/entry.c:163
     1ce:	9a06      	ldr	r2, [sp, #24]
     1d0:	9b08      	ldr	r3, [sp, #32]
     1d2:	429a      	cmp	r2, r3
     1d4:	9b07      	ldr	r3, [sp, #28]
     1d6:	9a09      	ldr	r2, [sp, #36]	; 0x24
     1d8:	4193      	sbcs	r3, r2
     1da:	d2e4      	bcs.n	1a6 <TA_InvokeCommandEntryPoint+0xee>
/home/aom1/Work/Linux/target/STM32MP1-DK2/bootloader/optee-os-custom/ta/avb/entry.c:164
     1dc:	4c79      	ldr	r4, [pc, #484]	; (3c4 <TA_InvokeCommandEntryPoint+0x30c>)
     1de:	e7ef      	b.n	1c0 <TA_InvokeCommandEntryPoint+0x108>
read_lock_state():
/home/aom1/Work/Linux/target/STM32MP1-DK2/bootloader/optee-os-custom/ta/avb/entry.c:189
     1e0:	2c02      	cmp	r4, #2
     1e2:	f040 80db 	bne.w	39c <TA_InvokeCommandEntryPoint+0x2e4>
/home/aom1/Work/Linux/target/STM32MP1-DK2/bootloader/optee-os-custom/ta/avb/entry.c:192
     1e6:	a908      	add	r1, sp, #32
     1e8:	2000      	movs	r0, #0
     1ea:	f7ff ff19 	bl	20 <open_rb_state>
/home/aom1/Work/Linux/target/STM32MP1-DK2/bootloader/optee-os-custom/ta/avb/entry.c:193
     1ee:	4604      	mov	r4, r0
     1f0:	2800      	cmp	r0, #0
     1f2:	d1e8      	bne.n	1c6 <TA_InvokeCommandEntryPoint+0x10e>
/home/aom1/Work/Linux/target/STM32MP1-DK2/bootloader/optee-os-custom/ta/avb/entry.c:196
     1f4:	9808      	ldr	r0, [sp, #32]
     1f6:	ab06      	add	r3, sp, #24
     1f8:	2204      	movs	r2, #4
     1fa:	a905      	add	r1, sp, #20
     1fc:	f001 fb48 	bl	1890 <TEE_ReadObjectData>
/home/aom1/Work/Linux/target/STM32MP1-DK2/bootloader/optee-os-custom/ta/avb/entry.c:197
     200:	4604      	mov	r4, r0
     202:	b928      	cbnz	r0, 210 <TA_InvokeCommandEntryPoint+0x158>
/home/aom1/Work/Linux/target/STM32MP1-DK2/bootloader/optee-os-custom/ta/avb/entry.c:199
     204:	9b06      	ldr	r3, [sp, #24]
     206:	2b04      	cmp	r3, #4
/home/aom1/Work/Linux/target/STM32MP1-DK2/bootloader/optee-os-custom/ta/avb/entry.c:208
     208:	bf0a      	itet	eq
     20a:	9b05      	ldreq	r3, [sp, #20]
/home/aom1/Work/Linux/target/STM32MP1-DK2/bootloader/optee-os-custom/ta/avb/entry.c:204
     20c:	4c6e      	ldrne	r4, [pc, #440]	; (3c8 <TA_InvokeCommandEntryPoint+0x310>)
/home/aom1/Work/Linux/target/STM32MP1-DK2/bootloader/optee-os-custom/ta/avb/entry.c:208
     20e:	602b      	streq	r3, [r5, #0]
/home/aom1/Work/Linux/target/STM32MP1-DK2/bootloader/optee-os-custom/ta/avb/entry.c:210
     210:	9808      	ldr	r0, [sp, #32]
     212:	e7d6      	b.n	1c2 <TA_InvokeCommandEntryPoint+0x10a>
write_lock_state():
/home/aom1/Work/Linux/target/STM32MP1-DK2/bootloader/optee-os-custom/ta/avb/entry.c:227
     214:	2c01      	cmp	r4, #1
     216:	f040 80c1 	bne.w	39c <TA_InvokeCommandEntryPoint+0x2e4>
/home/aom1/Work/Linux/target/STM32MP1-DK2/bootloader/optee-os-custom/ta/avb/entry.c:230
     21a:	682d      	ldr	r5, [r5, #0]
/home/aom1/Work/Linux/target/STM32MP1-DK2/bootloader/optee-os-custom/ta/avb/entry.c:232
     21c:	ae06      	add	r6, sp, #24
     21e:	4631      	mov	r1, r6
     220:	4628      	mov	r0, r5
     222:	f7ff fefd 	bl	20 <open_rb_state>
/home/aom1/Work/Linux/target/STM32MP1-DK2/bootloader/optee-os-custom/ta/avb/entry.c:233
     226:	4604      	mov	r4, r0
     228:	2800      	cmp	r0, #0
     22a:	d1cc      	bne.n	1c6 <TA_InvokeCommandEntryPoint+0x10e>
/home/aom1/Work/Linux/target/STM32MP1-DK2/bootloader/optee-os-custom/ta/avb/entry.c:236
     22c:	9806      	ldr	r0, [sp, #24]
     22e:	ab05      	add	r3, sp, #20
     230:	2204      	movs	r2, #4
     232:	a904      	add	r1, sp, #16
     234:	f001 fb2c 	bl	1890 <TEE_ReadObjectData>
/home/aom1/Work/Linux/target/STM32MP1-DK2/bootloader/optee-os-custom/ta/avb/entry.c:237
     238:	4604      	mov	r4, r0
     23a:	2800      	cmp	r0, #0
     23c:	f47f af74 	bne.w	128 <TA_InvokeCommandEntryPoint+0x70>
/home/aom1/Work/Linux/target/STM32MP1-DK2/bootloader/optee-os-custom/ta/avb/entry.c:239
     240:	9b05      	ldr	r3, [sp, #20]
     242:	2b04      	cmp	r3, #4
     244:	d103      	bne.n	24e <TA_InvokeCommandEntryPoint+0x196>
     246:	9b04      	ldr	r3, [sp, #16]
     248:	429d      	cmp	r5, r3
     24a:	f43f af6d 	beq.w	128 <TA_InvokeCommandEntryPoint+0x70>
create_rb_state():
/home/aom1/Work/Linux/target/STM32MP1-DK2/bootloader/optee-os-custom/ta/avb/entry.c:32
     24e:	4963      	ldr	r1, [pc, #396]	; (3dc <TA_InvokeCommandEntryPoint+0x324>)
     250:	2304      	movs	r3, #4
     252:	9302      	str	r3, [sp, #8]
     254:	ab08      	add	r3, sp, #32
     256:	9301      	str	r3, [sp, #4]
     258:	2300      	movs	r3, #0
     25a:	9300      	str	r3, [sp, #0]
     25c:	2209      	movs	r2, #9
     25e:	4479      	add	r1, pc
     260:	f240 4303 	movw	r3, #1027	; 0x403
     264:	9603      	str	r6, [sp, #12]
     266:	4859      	ldr	r0, [pc, #356]	; (3cc <TA_InvokeCommandEntryPoint+0x314>)
     268:	9508      	str	r5, [sp, #32]
     26a:	f001 fa15 	bl	1698 <TEE_CreatePersistentObject>
     26e:	e76f      	b.n	150 <TA_InvokeCommandEntryPoint+0x98>
read_persist_value():
/home/aom1/Work/Linux/target/STM32MP1-DK2/bootloader/optee-os-custom/ta/avb/entry.c:317
     270:	2c75      	cmp	r4, #117	; 0x75
/home/aom1/Work/Linux/target/STM32MP1-DK2/bootloader/optee-os-custom/ta/avb/entry.c:308
     272:	f04f 0100 	mov.w	r1, #0
/home/aom1/Work/Linux/target/STM32MP1-DK2/bootloader/optee-os-custom/ta/avb/entry.c:310
     276:	e9cd 1104 	strd	r1, r1, [sp, #16]
/home/aom1/Work/Linux/target/STM32MP1-DK2/bootloader/optee-os-custom/ta/avb/entry.c:315
     27a:	9106      	str	r1, [sp, #24]
/home/aom1/Work/Linux/target/STM32MP1-DK2/bootloader/optee-os-custom/ta/avb/entry.c:317
     27c:	f040 808e 	bne.w	39c <TA_InvokeCommandEntryPoint+0x2e4>
/home/aom1/Work/Linux/target/STM32MP1-DK2/bootloader/optee-os-custom/ta/avb/entry.c:322
     280:	68ef      	ldr	r7, [r5, #12]
/home/aom1/Work/Linux/target/STM32MP1-DK2/bootloader/optee-os-custom/ta/avb/entry.c:321
     282:	e9d5 4900 	ldrd	r4, r9, [r5]
/home/aom1/Work/Linux/target/STM32MP1-DK2/bootloader/optee-os-custom/ta/avb/entry.c:323
     286:	4638      	mov	r0, r7
     288:	f000 ff6d 	bl	1166 <TEE_Malloc>
/home/aom1/Work/Linux/target/STM32MP1-DK2/bootloader/optee-os-custom/ta/avb/entry.c:324
     28c:	4606      	mov	r6, r0
     28e:	2800      	cmp	r0, #0
     290:	f000 8086 	beq.w	3a0 <TA_InvokeCommandEntryPoint+0x2e8>
/home/aom1/Work/Linux/target/STM32MP1-DK2/bootloader/optee-os-custom/ta/avb/entry.c:327
     294:	f10d 0820 	add.w	r8, sp, #32
     298:	4620      	mov	r0, r4
     29a:	ab05      	add	r3, sp, #20
     29c:	4642      	mov	r2, r8
     29e:	4649      	mov	r1, r9
     2a0:	f7ff fee2 	bl	68 <get_named_object_name.constprop.0>
/home/aom1/Work/Linux/target/STM32MP1-DK2/bootloader/optee-os-custom/ta/avb/entry.c:329
     2a4:	4604      	mov	r4, r0
     2a6:	b9b0      	cbnz	r0, 2d6 <TA_InvokeCommandEntryPoint+0x21e>
/home/aom1/Work/Linux/target/STM32MP1-DK2/bootloader/optee-os-custom/ta/avb/entry.c:332
     2a8:	9a05      	ldr	r2, [sp, #20]
     2aa:	ab04      	add	r3, sp, #16
     2ac:	9300      	str	r3, [sp, #0]
     2ae:	4641      	mov	r1, r8
     2b0:	4846      	ldr	r0, [pc, #280]	; (3cc <TA_InvokeCommandEntryPoint+0x314>)
     2b2:	2303      	movs	r3, #3
     2b4:	f001 f9b6 	bl	1624 <TEE_OpenPersistentObject>
/home/aom1/Work/Linux/target/STM32MP1-DK2/bootloader/optee-os-custom/ta/avb/entry.c:334
     2b8:	4604      	mov	r4, r0
     2ba:	b180      	cbz	r0, 2de <TA_InvokeCommandEntryPoint+0x226>
/home/aom1/Work/Linux/target/STM32MP1-DK2/bootloader/optee-os-custom/ta/avb/entry.c:335
     2bc:	4b48      	ldr	r3, [pc, #288]	; (3e0 <TA_InvokeCommandEntryPoint+0x328>)
     2be:	f240 114f 	movw	r1, #335	; 0x14f
     2c2:	9001      	str	r0, [sp, #4]
     2c4:	4847      	ldr	r0, [pc, #284]	; (3e4 <TA_InvokeCommandEntryPoint+0x32c>)
     2c6:	447b      	add	r3, pc
     2c8:	4478      	add	r0, pc
     2ca:	9300      	str	r3, [sp, #0]
     2cc:	2301      	movs	r3, #1
     2ce:	461a      	mov	r2, r3
     2d0:	3009      	adds	r0, #9
     2d2:	f000 f94b 	bl	56c <trace_printf>
write_persist_value():
/home/aom1/Work/Linux/target/STM32MP1-DK2/bootloader/optee-os-custom/ta/avb/entry.c:293
     2d6:	4630      	mov	r0, r6
     2d8:	f000 ff6e 	bl	11b8 <TEE_Free>
/home/aom1/Work/Linux/target/STM32MP1-DK2/bootloader/optee-os-custom/ta/avb/entry.c:295
     2dc:	e773      	b.n	1c6 <TA_InvokeCommandEntryPoint+0x10e>
read_persist_value():
/home/aom1/Work/Linux/target/STM32MP1-DK2/bootloader/optee-os-custom/ta/avb/entry.c:339
     2de:	9804      	ldr	r0, [sp, #16]
     2e0:	ab06      	add	r3, sp, #24
     2e2:	463a      	mov	r2, r7
     2e4:	4631      	mov	r1, r6
     2e6:	f001 fad3 	bl	1890 <TEE_ReadObjectData>
/home/aom1/Work/Linux/target/STM32MP1-DK2/bootloader/optee-os-custom/ta/avb/entry.c:340
     2ea:	4604      	mov	r4, r0
     2ec:	b180      	cbz	r0, 310 <TA_InvokeCommandEntryPoint+0x258>
/home/aom1/Work/Linux/target/STM32MP1-DK2/bootloader/optee-os-custom/ta/avb/entry.c:341
     2ee:	4b3e      	ldr	r3, [pc, #248]	; (3e8 <TA_InvokeCommandEntryPoint+0x330>)
     2f0:	f240 1155 	movw	r1, #341	; 0x155
     2f4:	9001      	str	r0, [sp, #4]
     2f6:	483d      	ldr	r0, [pc, #244]	; (3ec <TA_InvokeCommandEntryPoint+0x334>)
     2f8:	447b      	add	r3, pc
     2fa:	4478      	add	r0, pc
     2fc:	9300      	str	r3, [sp, #0]
     2fe:	2301      	movs	r3, #1
     300:	461a      	mov	r2, r3
     302:	3009      	adds	r0, #9
     304:	f000 f932 	bl	56c <trace_printf>
/home/aom1/Work/Linux/target/STM32MP1-DK2/bootloader/optee-os-custom/ta/avb/entry.c:350
     308:	9804      	ldr	r0, [sp, #16]
write_persist_value():
/home/aom1/Work/Linux/target/STM32MP1-DK2/bootloader/optee-os-custom/ta/avb/entry.c:291
     30a:	f001 f85d 	bl	13c8 <TEE_CloseObject>
     30e:	e7e2      	b.n	2d6 <TA_InvokeCommandEntryPoint+0x21e>
read_persist_value():
/home/aom1/Work/Linux/target/STM32MP1-DK2/bootloader/optee-os-custom/ta/avb/entry.c:345
     310:	68a8      	ldr	r0, [r5, #8]
     312:	463a      	mov	r2, r7
     314:	4631      	mov	r1, r6
     316:	f000 fec9 	bl	10ac <TEE_MemMove>
/home/aom1/Work/Linux/target/STM32MP1-DK2/bootloader/optee-os-custom/ta/avb/entry.c:348
     31a:	9b06      	ldr	r3, [sp, #24]
     31c:	60eb      	str	r3, [r5, #12]
     31e:	e7f3      	b.n	308 <TA_InvokeCommandEntryPoint+0x250>
write_persist_value():
/home/aom1/Work/Linux/target/STM32MP1-DK2/bootloader/optee-os-custom/ta/avb/entry.c:258
     320:	2600      	movs	r6, #0
     322:	223c      	movs	r2, #60	; 0x3c
     324:	9608      	str	r6, [sp, #32]
     326:	4631      	mov	r1, r6
     328:	a809      	add	r0, sp, #36	; 0x24
     32a:	f006 fdf2 	bl	6f12 <memset>
/home/aom1/Work/Linux/target/STM32MP1-DK2/bootloader/optee-os-custom/ta/avb/entry.c:259
     32e:	9605      	str	r6, [sp, #20]
/home/aom1/Work/Linux/target/STM32MP1-DK2/bootloader/optee-os-custom/ta/avb/entry.c:267
     330:	2c55      	cmp	r4, #85	; 0x55
/home/aom1/Work/Linux/target/STM32MP1-DK2/bootloader/optee-os-custom/ta/avb/entry.c:261
     332:	9606      	str	r6, [sp, #24]
/home/aom1/Work/Linux/target/STM32MP1-DK2/bootloader/optee-os-custom/ta/avb/entry.c:267
     334:	d132      	bne.n	39c <TA_InvokeCommandEntryPoint+0x2e4>
/home/aom1/Work/Linux/target/STM32MP1-DK2/bootloader/optee-os-custom/ta/avb/entry.c:272
     336:	68ef      	ldr	r7, [r5, #12]
/home/aom1/Work/Linux/target/STM32MP1-DK2/bootloader/optee-os-custom/ta/avb/entry.c:273
     338:	4631      	mov	r1, r6
/home/aom1/Work/Linux/target/STM32MP1-DK2/bootloader/optee-os-custom/ta/avb/entry.c:271
     33a:	e9d5 4800 	ldrd	r4, r8, [r5]
/home/aom1/Work/Linux/target/STM32MP1-DK2/bootloader/optee-os-custom/ta/avb/entry.c:273
     33e:	4638      	mov	r0, r7
     340:	f000 ff11 	bl	1166 <TEE_Malloc>
/home/aom1/Work/Linux/target/STM32MP1-DK2/bootloader/optee-os-custom/ta/avb/entry.c:274
     344:	4606      	mov	r6, r0
     346:	b358      	cbz	r0, 3a0 <TA_InvokeCommandEntryPoint+0x2e8>
/home/aom1/Work/Linux/target/STM32MP1-DK2/bootloader/optee-os-custom/ta/avb/entry.c:277
     348:	68a9      	ldr	r1, [r5, #8]
     34a:	463a      	mov	r2, r7
/home/aom1/Work/Linux/target/STM32MP1-DK2/bootloader/optee-os-custom/ta/avb/entry.c:279
     34c:	ad08      	add	r5, sp, #32
/home/aom1/Work/Linux/target/STM32MP1-DK2/bootloader/optee-os-custom/ta/avb/entry.c:277
     34e:	f000 fead 	bl	10ac <TEE_MemMove>
/home/aom1/Work/Linux/target/STM32MP1-DK2/bootloader/optee-os-custom/ta/avb/entry.c:279
     352:	4620      	mov	r0, r4
     354:	ab06      	add	r3, sp, #24
     356:	462a      	mov	r2, r5
     358:	4641      	mov	r1, r8
     35a:	f7ff fe85 	bl	68 <get_named_object_name.constprop.0>
/home/aom1/Work/Linux/target/STM32MP1-DK2/bootloader/optee-os-custom/ta/avb/entry.c:281
     35e:	4604      	mov	r4, r0
     360:	2800      	cmp	r0, #0
     362:	d1b8      	bne.n	2d6 <TA_InvokeCommandEntryPoint+0x21e>
/home/aom1/Work/Linux/target/STM32MP1-DK2/bootloader/optee-os-custom/ta/avb/entry.c:284
     364:	9a06      	ldr	r2, [sp, #24]
     366:	ab05      	add	r3, sp, #20
     368:	9303      	str	r3, [sp, #12]
     36a:	4629      	mov	r1, r5
     36c:	e88d 00d0 	stmia.w	sp, {r4, r6, r7}
     370:	4816      	ldr	r0, [pc, #88]	; (3cc <TA_InvokeCommandEntryPoint+0x314>)
     372:	f240 4303 	movw	r3, #1027	; 0x403
     376:	f001 f98f 	bl	1698 <TEE_CreatePersistentObject>
/home/aom1/Work/Linux/target/STM32MP1-DK2/bootloader/optee-os-custom/ta/avb/entry.c:288
     37a:	4604      	mov	r4, r0
     37c:	b160      	cbz	r0, 398 <TA_InvokeCommandEntryPoint+0x2e0>
/home/aom1/Work/Linux/target/STM32MP1-DK2/bootloader/optee-os-custom/ta/avb/entry.c:289
     37e:	4b1c      	ldr	r3, [pc, #112]	; (3f0 <TA_InvokeCommandEntryPoint+0x338>)
     380:	f240 1121 	movw	r1, #289	; 0x121
     384:	9001      	str	r0, [sp, #4]
     386:	481b      	ldr	r0, [pc, #108]	; (3f4 <TA_InvokeCommandEntryPoint+0x33c>)
     388:	447b      	add	r3, pc
     38a:	4478      	add	r0, pc
     38c:	9300      	str	r3, [sp, #0]
     38e:	2301      	movs	r3, #1
     390:	461a      	mov	r2, r3
     392:	301c      	adds	r0, #28
     394:	f000 f8ea 	bl	56c <trace_printf>
/home/aom1/Work/Linux/target/STM32MP1-DK2/bootloader/optee-os-custom/ta/avb/entry.c:291
     398:	9805      	ldr	r0, [sp, #20]
     39a:	e7b6      	b.n	30a <TA_InvokeCommandEntryPoint+0x252>
/home/aom1/Work/Linux/target/STM32MP1-DK2/bootloader/optee-os-custom/ta/avb/entry.c:268
     39c:	4c0c      	ldr	r4, [pc, #48]	; (3d0 <TA_InvokeCommandEntryPoint+0x318>)
     39e:	e712      	b.n	1c6 <TA_InvokeCommandEntryPoint+0x10e>
/home/aom1/Work/Linux/target/STM32MP1-DK2/bootloader/optee-os-custom/ta/avb/entry.c:275
     3a0:	4c0c      	ldr	r4, [pc, #48]	; (3d4 <TA_InvokeCommandEntryPoint+0x31c>)
TA_InvokeCommandEntryPoint():
/home/aom1/Work/Linux/target/STM32MP1-DK2/bootloader/optee-os-custom/ta/avb/entry.c:393
     3a2:	e710      	b.n	1c6 <TA_InvokeCommandEntryPoint+0x10e>
/home/aom1/Work/Linux/target/STM32MP1-DK2/bootloader/optee-os-custom/ta/avb/entry.c:395
     3a4:	4b14      	ldr	r3, [pc, #80]	; (3f8 <TA_InvokeCommandEntryPoint+0x340>)
     3a6:	4815      	ldr	r0, [pc, #84]	; (3fc <TA_InvokeCommandEntryPoint+0x344>)
     3a8:	447b      	add	r3, pc
     3aa:	9300      	str	r3, [sp, #0]
     3ac:	2301      	movs	r3, #1
     3ae:	4478      	add	r0, pc
     3b0:	461a      	mov	r2, r3
     3b2:	9101      	str	r1, [sp, #4]
     3b4:	3030      	adds	r0, #48	; 0x30
/home/aom1/Work/Linux/target/STM32MP1-DK2/bootloader/optee-os-custom/ta/avb/entry.c:396
     3b6:	4c08      	ldr	r4, [pc, #32]	; (3d8 <TA_InvokeCommandEntryPoint+0x320>)
/home/aom1/Work/Linux/target/STM32MP1-DK2/bootloader/optee-os-custom/ta/avb/entry.c:395
     3b8:	f240 118b 	movw	r1, #395	; 0x18b
     3bc:	f000 f8d6 	bl	56c <trace_printf>
/home/aom1/Work/Linux/target/STM32MP1-DK2/bootloader/optee-os-custom/ta/avb/entry.c:396
     3c0:	e701      	b.n	1c6 <TA_InvokeCommandEntryPoint+0x10e>
     3c2:	bf00      	nop
     3c4:	ffff000f 	.word	0xffff000f
     3c8:	f0100001 	.word	0xf0100001
     3cc:	80000100 	.word	0x80000100
     3d0:	ffff0006 	.word	0xffff0006
     3d4:	ffff000c 	.word	0xffff000c
     3d8:	ffff000a 	.word	0xffff000a
     3dc:	000072cc 	.word	0x000072cc
     3e0:	000071c3 	.word	0x000071c3
     3e4:	00007262 	.word	0x00007262
     3e8:	000071bb 	.word	0x000071bb
     3ec:	00007230 	.word	0x00007230
     3f0:	00007155 	.word	0x00007155
     3f4:	000071a0 	.word	0x000071a0
     3f8:	00007161 	.word	0x00007161
     3fc:	0000717c 	.word	0x0000717c

00000400 <__ta_entry>:
__ta_entry():
/home/aom1/Work/Linux/target/STM32MP1-DK2/bootloader/optee-os-custom/build/export-ta_arm32/src/ta_entry_a32.S:20
     400:	fa001abf 	blx	6f04 <__ta_entry_c>

00000404 <trace_set_level>:
trace_set_level():
/home/aom1/Work/Linux/target/STM32MP1-DK2/bootloader/optee-os-custom/lib/libutils/ext/trace.c:24
     404:	4b04      	ldr	r3, [pc, #16]	; (418 <trace_set_level+0x14>)
/home/aom1/Work/Linux/target/STM32MP1-DK2/bootloader/optee-os-custom/lib/libutils/ext/trace.c:28
     406:	2805      	cmp	r0, #5
     408:	4a04      	ldr	r2, [pc, #16]	; (41c <trace_set_level+0x18>)
     40a:	bf28      	it	cs
     40c:	2004      	movcs	r0, #4
/home/aom1/Work/Linux/target/STM32MP1-DK2/bootloader/optee-os-custom/lib/libutils/ext/trace.c:24
     40e:	447b      	add	r3, pc
     410:	589b      	ldr	r3, [r3, r2]
     412:	6018      	str	r0, [r3, #0]
/home/aom1/Work/Linux/target/STM32MP1-DK2/bootloader/optee-os-custom/lib/libutils/ext/trace.c:29
     414:	4770      	bx	lr
     416:	bf00      	nop
     418:	00008c76 	.word	0x00008c76
     41c:	00000010 	.word	0x00000010

00000420 <trace_get_level>:
trace_get_level():
/home/aom1/Work/Linux/target/STM32MP1-DK2/bootloader/optee-os-custom/lib/libutils/ext/trace.c:32
     420:	4b02      	ldr	r3, [pc, #8]	; (42c <trace_get_level+0xc>)
/home/aom1/Work/Linux/target/STM32MP1-DK2/bootloader/optee-os-custom/lib/libutils/ext/trace.c:33
     422:	4a03      	ldr	r2, [pc, #12]	; (430 <trace_get_level+0x10>)
/home/aom1/Work/Linux/target/STM32MP1-DK2/bootloader/optee-os-custom/lib/libutils/ext/trace.c:32
     424:	447b      	add	r3, pc
/home/aom1/Work/Linux/target/STM32MP1-DK2/bootloader/optee-os-custom/lib/libutils/ext/trace.c:33
     426:	589b      	ldr	r3, [r3, r2]
/home/aom1/Work/Linux/target/STM32MP1-DK2/bootloader/optee-os-custom/lib/libutils/ext/trace.c:34
     428:	6818      	ldr	r0, [r3, #0]
     42a:	4770      	bx	lr
     42c:	00008c60 	.word	0x00008c60
     430:	00000010 	.word	0x00000010

00000434 <trace_vprintf>:
trace_vprintf():
/home/aom1/Work/Linux/target/STM32MP1-DK2/bootloader/optee-os-custom/lib/libutils/ext/trace.c:113
     434:	e92d 47f0 	stmdb	sp!, {r4, r5, r6, r7, r8, r9, sl, lr}
     438:	4607      	mov	r7, r0
     43a:	4e42      	ldr	r6, [pc, #264]	; (544 <trace_vprintf+0x110>)
     43c:	b0c2      	sub	sp, #264	; 0x108
     43e:	4688      	mov	r8, r1
     440:	4614      	mov	r4, r2
     442:	447e      	add	r6, pc
/home/aom1/Work/Linux/target/STM32MP1-DK2/bootloader/optee-os-custom/lib/libutils/ext/trace.c:118
     444:	469a      	mov	sl, r3
     446:	2b00      	cmp	r3, #0
     448:	d068      	beq.n	51c <trace_vprintf+0xe8>
/home/aom1/Work/Linux/target/STM32MP1-DK2/bootloader/optee-os-custom/lib/libutils/ext/trace.c:118 (discriminator 1)
     44a:	4b3f      	ldr	r3, [pc, #252]	; (548 <trace_vprintf+0x114>)
     44c:	58f3      	ldr	r3, [r6, r3]
     44e:	681b      	ldr	r3, [r3, #0]
     450:	4293      	cmp	r3, r2
     452:	db60      	blt.n	516 <trace_vprintf+0xe2>
trace_level_to_string():
/home/aom1/Work/Linux/target/STM32MP1-DK2/bootloader/optee-os-custom/lib/libutils/ext/trace.c:51
     454:	2a04      	cmp	r2, #4
     456:	bf94      	ite	ls
     458:	4613      	movls	r3, r2
     45a:	2300      	movhi	r3, #0
/home/aom1/Work/Linux/target/STM32MP1-DK2/bootloader/optee-os-custom/lib/libutils/ext/trace.c:54
     45c:	4a3b      	ldr	r2, [pc, #236]	; (54c <trace_vprintf+0x118>)
     45e:	447a      	add	r2, pc
     460:	5cd3      	ldrb	r3, [r2, r3]
trace_vprintf():
/home/aom1/Work/Linux/target/STM32MP1-DK2/bootloader/optee-os-custom/lib/libutils/ext/trace.c:122
     462:	4a3b      	ldr	r2, [pc, #236]	; (550 <trace_vprintf+0x11c>)
     464:	ad02      	add	r5, sp, #8
     466:	f44f 7180 	mov.w	r1, #256	; 0x100
     46a:	4628      	mov	r0, r5
     46c:	447a      	add	r2, pc
     46e:	f000 f8aa 	bl	5c6 <snprintk>
/home/aom1/Work/Linux/target/STM32MP1-DK2/bootloader/optee-os-custom/lib/libutils/ext/trace.c:124
     472:	f1b0 0900 	subs.w	r9, r0, #0
     476:	db4e      	blt.n	516 <trace_vprintf+0xe2>
/home/aom1/Work/Linux/target/STM32MP1-DK2/bootloader/optee-os-custom/lib/libutils/ext/trace.c:129
     478:	4b36      	ldr	r3, [pc, #216]	; (554 <trace_vprintf+0x120>)
     47a:	f5c9 7180 	rsb	r1, r9, #256	; 0x100
     47e:	4a36      	ldr	r2, [pc, #216]	; (558 <trace_vprintf+0x124>)
     480:	58f3      	ldr	r3, [r6, r3]
     482:	447a      	add	r2, pc
     484:	eb05 0009 	add.w	r0, r5, r9
     488:	f000 f89d 	bl	5c6 <snprintk>
/home/aom1/Work/Linux/target/STM32MP1-DK2/bootloader/optee-os-custom/lib/libutils/ext/trace.c:131
     48c:	2800      	cmp	r0, #0
     48e:	db42      	blt.n	516 <trace_vprintf+0xe2>
/home/aom1/Work/Linux/target/STM32MP1-DK2/bootloader/optee-os-custom/lib/libutils/ext/trace.c:133
     490:	eb00 0609 	add.w	r6, r0, r9
/home/aom1/Work/Linux/target/STM32MP1-DK2/bootloader/optee-os-custom/lib/libutils/ext/trace.c:135
     494:	f1ba 0f00 	cmp.w	sl, #0
     498:	d049      	beq.n	52e <trace_vprintf+0xfa>
/home/aom1/Work/Linux/target/STM32MP1-DK2/bootloader/optee-os-custom/lib/libutils/ext/trace.c:135 (discriminator 1)
     49a:	231a      	movs	r3, #26
     49c:	40e3      	lsrs	r3, r4
     49e:	07db      	lsls	r3, r3, #31
     4a0:	d545      	bpl.n	52e <trace_vprintf+0xfa>
/home/aom1/Work/Linux/target/STM32MP1-DK2/bootloader/optee-os-custom/lib/libutils/ext/trace.c:137
     4a2:	19ac      	adds	r4, r5, r6
print_thread_id():
/home/aom1/Work/Linux/target/STM32MP1-DK2/bootloader/optee-os-custom/lib/libutils/ext/trace.c:66
     4a4:	f000 fc0c 	bl	cc0 <trace_ext_get_thread_id>
/home/aom1/Work/Linux/target/STM32MP1-DK2/bootloader/optee-os-custom/lib/libutils/ext/trace.c:68
     4a8:	2800      	cmp	r0, #0
trace_vprintf():
/home/aom1/Work/Linux/target/STM32MP1-DK2/bootloader/optee-os-custom/lib/libutils/ext/trace.c:137
     4aa:	f5c6 7980 	rsb	r9, r6, #256	; 0x100
print_thread_id():
/home/aom1/Work/Linux/target/STM32MP1-DK2/bootloader/optee-os-custom/lib/libutils/ext/trace.c:68
     4ae:	db37      	blt.n	520 <trace_vprintf+0xec>
/home/aom1/Work/Linux/target/STM32MP1-DK2/bootloader/optee-os-custom/lib/libutils/ext/trace.c:69
     4b0:	4a2a      	ldr	r2, [pc, #168]	; (55c <trace_vprintf+0x128>)
     4b2:	2301      	movs	r3, #1
     4b4:	9000      	str	r0, [sp, #0]
     4b6:	447a      	add	r2, pc
/home/aom1/Work/Linux/target/STM32MP1-DK2/bootloader/optee-os-custom/lib/libutils/ext/trace.c:71
     4b8:	4649      	mov	r1, r9
     4ba:	4620      	mov	r0, r4
     4bc:	f000 f883 	bl	5c6 <snprintk>
trace_vprintf():
/home/aom1/Work/Linux/target/STM32MP1-DK2/bootloader/optee-os-custom/lib/libutils/ext/trace.c:144
     4c0:	2800      	cmp	r0, #0
     4c2:	db28      	blt.n	516 <trace_vprintf+0xe2>
/home/aom1/Work/Linux/target/STM32MP1-DK2/bootloader/optee-os-custom/lib/libutils/ext/trace.c:146
     4c4:	1984      	adds	r4, r0, r6
/home/aom1/Work/Linux/target/STM32MP1-DK2/bootloader/optee-os-custom/lib/libutils/ext/trace.c:148
     4c6:	b167      	cbz	r7, 4e2 <trace_vprintf+0xae>
/home/aom1/Work/Linux/target/STM32MP1-DK2/bootloader/optee-os-custom/lib/libutils/ext/trace.c:149
     4c8:	4a25      	ldr	r2, [pc, #148]	; (560 <trace_vprintf+0x12c>)
     4ca:	463b      	mov	r3, r7
     4cc:	1928      	adds	r0, r5, r4
     4ce:	f5c4 7180 	rsb	r1, r4, #256	; 0x100
     4d2:	447a      	add	r2, pc
     4d4:	f8cd 8000 	str.w	r8, [sp]
     4d8:	f000 f875 	bl	5c6 <snprintk>
/home/aom1/Work/Linux/target/STM32MP1-DK2/bootloader/optee-os-custom/lib/libutils/ext/trace.c:151
     4dc:	2800      	cmp	r0, #0
     4de:	db1a      	blt.n	516 <trace_vprintf+0xe2>
/home/aom1/Work/Linux/target/STM32MP1-DK2/bootloader/optee-os-custom/lib/libutils/ext/trace.c:153
     4e0:	4404      	add	r4, r0
/home/aom1/Work/Linux/target/STM32MP1-DK2/bootloader/optee-os-custom/lib/libutils/ext/trace.c:163
     4e2:	1928      	adds	r0, r5, r4
     4e4:	f5c4 7180 	rsb	r1, r4, #256	; 0x100
     4e8:	e9dd 234a 	ldrd	r2, r3, [sp, #296]	; 0x128
     4ec:	f000 f864 	bl	5b8 <vsnprintk>
/home/aom1/Work/Linux/target/STM32MP1-DK2/bootloader/optee-os-custom/lib/libutils/ext/trace.c:164
     4f0:	2800      	cmp	r0, #0
/home/aom1/Work/Linux/target/STM32MP1-DK2/bootloader/optee-os-custom/lib/libutils/ext/trace.c:170
     4f2:	f04f 030a 	mov.w	r3, #10
/home/aom1/Work/Linux/target/STM32MP1-DK2/bootloader/optee-os-custom/lib/libutils/ext/trace.c:165
     4f6:	bfc8      	it	gt
     4f8:	1824      	addgt	r4, r4, r0
/home/aom1/Work/Linux/target/STM32MP1-DK2/bootloader/optee-os-custom/lib/libutils/ext/trace.c:167
     4fa:	2cfe      	cmp	r4, #254	; 0xfe
     4fc:	bf28      	it	cs
     4fe:	24fe      	movcs	r4, #254	; 0xfe
/home/aom1/Work/Linux/target/STM32MP1-DK2/bootloader/optee-os-custom/lib/libutils/ext/trace.c:170
     500:	552b      	strb	r3, [r5, r4]
/home/aom1/Work/Linux/target/STM32MP1-DK2/bootloader/optee-os-custom/lib/libutils/ext/trace.c:171
     502:	b114      	cbz	r4, 50a <trace_vprintf+0xd6>
/home/aom1/Work/Linux/target/STM32MP1-DK2/bootloader/optee-os-custom/lib/libutils/ext/trace.c:171 (discriminator 1)
     504:	5d2b      	ldrb	r3, [r5, r4]
     506:	2b0a      	cmp	r3, #10
     508:	d019      	beq.n	53e <trace_vprintf+0x10a>
/home/aom1/Work/Linux/target/STM32MP1-DK2/bootloader/optee-os-custom/lib/libutils/ext/trace.c:174
     50a:	442c      	add	r4, r5
     50c:	2300      	movs	r3, #0
/home/aom1/Work/Linux/target/STM32MP1-DK2/bootloader/optee-os-custom/lib/libutils/ext/trace.c:176
     50e:	4628      	mov	r0, r5
/home/aom1/Work/Linux/target/STM32MP1-DK2/bootloader/optee-os-custom/lib/libutils/ext/trace.c:174
     510:	70a3      	strb	r3, [r4, #2]
/home/aom1/Work/Linux/target/STM32MP1-DK2/bootloader/optee-os-custom/lib/libutils/ext/trace.c:176
     512:	f000 fbcb 	bl	cac <trace_ext_puts>
/home/aom1/Work/Linux/target/STM32MP1-DK2/bootloader/optee-os-custom/lib/libutils/ext/trace.c:177
     516:	b042      	add	sp, #264	; 0x108
     518:	e8bd 87f0 	ldmia.w	sp!, {r4, r5, r6, r7, r8, r9, sl, pc}
trace_level_to_string():
/home/aom1/Work/Linux/target/STM32MP1-DK2/bootloader/optee-os-custom/lib/libutils/ext/trace.c:49
     51c:	234d      	movs	r3, #77	; 0x4d
     51e:	e7a0      	b.n	462 <trace_vprintf+0x2e>
print_thread_id():
/home/aom1/Work/Linux/target/STM32MP1-DK2/bootloader/optee-os-custom/lib/libutils/ext/trace.c:71
     520:	4b10      	ldr	r3, [pc, #64]	; (564 <trace_vprintf+0x130>)
     522:	4a11      	ldr	r2, [pc, #68]	; (568 <trace_vprintf+0x134>)
     524:	447b      	add	r3, pc
     526:	9300      	str	r3, [sp, #0]
     528:	2301      	movs	r3, #1
     52a:	447a      	add	r2, pc
     52c:	e7c4      	b.n	4b8 <trace_vprintf+0x84>
trace_vprintf():
/home/aom1/Work/Linux/target/STM32MP1-DK2/bootloader/optee-os-custom/lib/libutils/ext/trace.c:157
     52e:	2efe      	cmp	r6, #254	; 0xfe
     530:	d8f1      	bhi.n	516 <trace_vprintf+0xe2>
/home/aom1/Work/Linux/target/STM32MP1-DK2/bootloader/optee-os-custom/lib/libutils/ext/trace.c:159
     532:	2320      	movs	r3, #32
     534:	1c74      	adds	r4, r6, #1
     536:	55ab      	strb	r3, [r5, r6]
/home/aom1/Work/Linux/target/STM32MP1-DK2/bootloader/optee-os-custom/lib/libutils/ext/trace.c:160
     538:	2300      	movs	r3, #0
     53a:	552b      	strb	r3, [r5, r4]
     53c:	e7d1      	b.n	4e2 <trace_vprintf+0xae>
/home/aom1/Work/Linux/target/STM32MP1-DK2/bootloader/optee-os-custom/lib/libutils/ext/trace.c:172
     53e:	3c01      	subs	r4, #1
     540:	e7df      	b.n	502 <trace_vprintf+0xce>
     542:	bf00      	nop
     544:	00008c42 	.word	0x00008c42
     548:	00000010 	.word	0x00000010
     54c:	000071df 	.word	0x000071df
     550:	000071b7 	.word	0x000071b7
     554:	00000014 	.word	0x00000014
     558:	000071a5 	.word	0x000071a5
     55c:	00007175 	.word	0x00007175
     560:	00007164 	.word	0x00007164
     564:	00007945 	.word	0x00007945
     568:	00007107 	.word	0x00007107

0000056c <trace_printf>:
trace_printf():
/home/aom1/Work/Linux/target/STM32MP1-DK2/bootloader/optee-os-custom/lib/libutils/ext/trace.c:104
     56c:	b530      	push	{r4, r5, lr}
     56e:	b085      	sub	sp, #20
     570:	ac08      	add	r4, sp, #32
     572:	f854 5b04 	ldr.w	r5, [r4], #4
/home/aom1/Work/Linux/target/STM32MP1-DK2/bootloader/optee-os-custom/lib/libutils/ext/trace.c:108
     576:	9401      	str	r4, [sp, #4]
     578:	9500      	str	r5, [sp, #0]
/home/aom1/Work/Linux/target/STM32MP1-DK2/bootloader/optee-os-custom/lib/libutils/ext/trace.c:107
     57a:	9403      	str	r4, [sp, #12]
/home/aom1/Work/Linux/target/STM32MP1-DK2/bootloader/optee-os-custom/lib/libutils/ext/trace.c:108
     57c:	f7ff ff5a 	bl	434 <trace_vprintf>
/home/aom1/Work/Linux/target/STM32MP1-DK2/bootloader/optee-os-custom/lib/libutils/ext/trace.c:110
     580:	b005      	add	sp, #20
     582:	bd30      	pop	{r4, r5, pc}

00000584 <dhex_dump>:
dhex_dump():
/home/aom1/Work/Linux/target/STM32MP1-DK2/bootloader/optee-os-custom/lib/libutils/ext/trace.c:287
     584:	4770      	bx	lr
     586:	bf00      	nop

00000588 <__vsnprintf>:
__vsnprintf():
/home/aom1/Work/Linux/target/STM32MP1-DK2/bootloader/optee-os-custom/lib/libutils/ext/snprintk.c:138
     588:	b57f      	push	{r0, r1, r2, r3, r4, r5, r6, lr}
     58a:	4604      	mov	r4, r0
/home/aom1/Work/Linux/target/STM32MP1-DK2/bootloader/optee-os-custom/lib/libutils/ext/snprintk.c:142
     58c:	1866      	adds	r6, r4, r1
/home/aom1/Work/Linux/target/STM32MP1-DK2/bootloader/optee-os-custom/lib/libutils/ext/snprintk.c:138
     58e:	4610      	mov	r0, r2
/home/aom1/Work/Linux/target/STM32MP1-DK2/bootloader/optee-os-custom/lib/libutils/ext/snprintk.c:143
     590:	f89d 2020 	ldrb.w	r2, [sp, #32]
/home/aom1/Work/Linux/target/STM32MP1-DK2/bootloader/optee-os-custom/lib/libutils/ext/snprintk.c:138
     594:	460d      	mov	r5, r1
/home/aom1/Work/Linux/target/STM32MP1-DK2/bootloader/optee-os-custom/lib/libutils/ext/snprintk.c:142
     596:	9603      	str	r6, [sp, #12]
/home/aom1/Work/Linux/target/STM32MP1-DK2/bootloader/optee-os-custom/lib/libutils/ext/snprintk.c:143
     598:	a903      	add	r1, sp, #12
     59a:	9200      	str	r2, [sp, #0]
     59c:	4622      	mov	r2, r4
     59e:	f000 f81f 	bl	5e0 <kprintf.constprop.0>
/home/aom1/Work/Linux/target/STM32MP1-DK2/bootloader/optee-os-custom/lib/libutils/ext/snprintk.c:144
     5a2:	b13c      	cbz	r4, 5b4 <__vsnprintf+0x2c>
/home/aom1/Work/Linux/target/STM32MP1-DK2/bootloader/optee-os-custom/lib/libutils/ext/snprintk.c:144 (discriminator 1)
     5a4:	b135      	cbz	r5, 5b4 <__vsnprintf+0x2c>
/home/aom1/Work/Linux/target/STM32MP1-DK2/bootloader/optee-os-custom/lib/libutils/ext/snprintk.c:146
     5a6:	42a8      	cmp	r0, r5
     5a8:	f04f 0300 	mov.w	r3, #0
/home/aom1/Work/Linux/target/STM32MP1-DK2/bootloader/optee-os-custom/lib/libutils/ext/snprintk.c:147
     5ac:	bf2c      	ite	cs
     5ae:	f806 3c01 	strbcs.w	r3, [r6, #-1]
/home/aom1/Work/Linux/target/STM32MP1-DK2/bootloader/optee-os-custom/lib/libutils/ext/snprintk.c:149
     5b2:	5423      	strbcc	r3, [r4, r0]
/home/aom1/Work/Linux/target/STM32MP1-DK2/bootloader/optee-os-custom/lib/libutils/ext/snprintk.c:152
     5b4:	b004      	add	sp, #16
     5b6:	bd70      	pop	{r4, r5, r6, pc}

000005b8 <vsnprintk>:
vsnprintk():
/home/aom1/Work/Linux/target/STM32MP1-DK2/bootloader/optee-os-custom/lib/libutils/ext/snprintk.c:130
     5b8:	b513      	push	{r0, r1, r4, lr}
/home/aom1/Work/Linux/target/STM32MP1-DK2/bootloader/optee-os-custom/lib/libutils/ext/snprintk.c:131
     5ba:	2401      	movs	r4, #1
     5bc:	9400      	str	r4, [sp, #0]
     5be:	f7ff ffe3 	bl	588 <__vsnprintf>
/home/aom1/Work/Linux/target/STM32MP1-DK2/bootloader/optee-os-custom/lib/libutils/ext/snprintk.c:132
     5c2:	b002      	add	sp, #8
     5c4:	bd10      	pop	{r4, pc}

000005c6 <snprintk>:
snprintk():
/home/aom1/Work/Linux/target/STM32MP1-DK2/bootloader/optee-os-custom/lib/libutils/ext/snprintk.c:113
     5c6:	b40c      	push	{r2, r3}
     5c8:	b507      	push	{r0, r1, r2, lr}
     5ca:	ab04      	add	r3, sp, #16
     5cc:	f853 2b04 	ldr.w	r2, [r3], #4
/home/aom1/Work/Linux/target/STM32MP1-DK2/bootloader/optee-os-custom/lib/libutils/ext/snprintk.c:117
     5d0:	9301      	str	r3, [sp, #4]
/home/aom1/Work/Linux/target/STM32MP1-DK2/bootloader/optee-os-custom/lib/libutils/ext/snprintk.c:118
     5d2:	f7ff fff1 	bl	5b8 <vsnprintk>
/home/aom1/Work/Linux/target/STM32MP1-DK2/bootloader/optee-os-custom/lib/libutils/ext/snprintk.c:122
     5d6:	b003      	add	sp, #12
     5d8:	f85d eb04 	ldr.w	lr, [sp], #4
     5dc:	b002      	add	sp, #8
     5de:	4770      	bx	lr

000005e0 <kprintf.constprop.0>:
kprintf():
/home/aom1/Work/Linux/target/STM32MP1-DK2/bootloader/optee-os-custom/lib/libutils/ext/snprintk.c:242
     5e0:	e92d 4ff0 	stmdb	sp!, {r4, r5, r6, r7, r8, r9, sl, fp, lr}
     5e4:	b09d      	sub	sp, #116	; 0x74
     5e6:	4616      	mov	r6, r2
     5e8:	4607      	mov	r7, r0
     5ea:	f89d 2098 	ldrb.w	r2, [sp, #152]	; 0x98
     5ee:	461d      	mov	r5, r3
/home/aom1/Work/Linux/target/STM32MP1-DK2/bootloader/optee-os-custom/lib/libutils/ext/snprintk.c:264
     5f0:	910c      	str	r1, [sp, #48]	; 0x30
/home/aom1/Work/Linux/target/STM32MP1-DK2/bootloader/optee-os-custom/lib/libutils/ext/snprintk.c:242
     5f2:	9211      	str	r2, [sp, #68]	; 0x44
/home/aom1/Work/Linux/target/STM32MP1-DK2/bootloader/optee-os-custom/lib/libutils/ext/snprintk.c:264
     5f4:	b179      	cbz	r1, 616 <kprintf.constprop.0+0x36>
/home/aom1/Work/Linux/target/STM32MP1-DK2/bootloader/optee-os-custom/lib/libutils/ext/snprintk.c:265
     5f6:	680b      	ldr	r3, [r1, #0]
/home/aom1/Work/Linux/target/STM32MP1-DK2/bootloader/optee-os-custom/lib/libutils/ext/snprintk.c:267
     5f8:	930e      	str	r3, [sp, #56]	; 0x38
/home/aom1/Work/Linux/target/STM32MP1-DK2/bootloader/optee-os-custom/lib/libutils/ext/snprintk.c:275
     5fa:	2300      	movs	r3, #0
     5fc:	930f      	str	r3, [sp, #60]	; 0x3c
/home/aom1/Work/Linux/target/STM32MP1-DK2/bootloader/optee-os-custom/lib/libutils/ext/snprintk.c:273
     5fe:	930b      	str	r3, [sp, #44]	; 0x2c
/home/aom1/Work/Linux/target/STM32MP1-DK2/bootloader/optee-os-custom/lib/libutils/ext/snprintk.c:281
     600:	783b      	ldrb	r3, [r7, #0]
     602:	2b25      	cmp	r3, #37	; 0x25
     604:	d016      	beq.n	634 <kprintf.constprop.0+0x54>
     606:	b943      	cbnz	r3, 61a <kprintf.constprop.0+0x3a>
/home/aom1/Work/Linux/target/STM32MP1-DK2/bootloader/optee-os-custom/lib/libutils/ext/snprintk.c:619
     608:	9b0c      	ldr	r3, [sp, #48]	; 0x30
     60a:	b103      	cbz	r3, 60e <kprintf.constprop.0+0x2e>
/home/aom1/Work/Linux/target/STM32MP1-DK2/bootloader/optee-os-custom/lib/libutils/ext/snprintk.c:620
     60c:	601e      	str	r6, [r3, #0]
/home/aom1/Work/Linux/target/STM32MP1-DK2/bootloader/optee-os-custom/lib/libutils/ext/snprintk.c:622
     60e:	980b      	ldr	r0, [sp, #44]	; 0x2c
     610:	b01d      	add	sp, #116	; 0x74
     612:	e8bd 8ff0 	ldmia.w	sp!, {r4, r5, r6, r7, r8, r9, sl, fp, pc}
/home/aom1/Work/Linux/target/STM32MP1-DK2/bootloader/optee-os-custom/lib/libutils/ext/snprintk.c:267
     616:	9b0c      	ldr	r3, [sp, #48]	; 0x30
     618:	e7ee      	b.n	5f8 <kprintf.constprop.0+0x18>
/home/aom1/Work/Linux/target/STM32MP1-DK2/bootloader/optee-os-custom/lib/libutils/ext/snprintk.c:282
     61a:	9a0b      	ldr	r2, [sp, #44]	; 0x2c
     61c:	3201      	adds	r2, #1
     61e:	920b      	str	r2, [sp, #44]	; 0x2c
/home/aom1/Work/Linux/target/STM32MP1-DK2/bootloader/optee-os-custom/lib/libutils/ext/snprintk.c:283
     620:	b136      	cbz	r6, 630 <kprintf.constprop.0+0x50>
     622:	9a0c      	ldr	r2, [sp, #48]	; 0x30
     624:	b112      	cbz	r2, 62c <kprintf.constprop.0+0x4c>
     626:	9a0e      	ldr	r2, [sp, #56]	; 0x38
     628:	4296      	cmp	r6, r2
     62a:	d201      	bcs.n	630 <kprintf.constprop.0+0x50>
     62c:	f806 3b01 	strb.w	r3, [r6], #1
/home/aom1/Work/Linux/target/STM32MP1-DK2/bootloader/optee-os-custom/lib/libutils/ext/snprintk.c:281
     630:	3701      	adds	r7, #1
     632:	e7e5      	b.n	600 <kprintf.constprop.0+0x20>
/home/aom1/Work/Linux/target/STM32MP1-DK2/bootloader/optee-os-custom/lib/libutils/ext/snprintk.c:294
     634:	f04f 0800 	mov.w	r8, #0
/home/aom1/Work/Linux/target/STM32MP1-DK2/bootloader/optee-os-custom/lib/libutils/ext/snprintk.c:288
     638:	3701      	adds	r7, #1
/home/aom1/Work/Linux/target/STM32MP1-DK2/bootloader/optee-os-custom/lib/libutils/ext/snprintk.c:292
     63a:	f8cd 8034 	str.w	r8, [sp, #52]	; 0x34
/home/aom1/Work/Linux/target/STM32MP1-DK2/bootloader/optee-os-custom/lib/libutils/ext/snprintk.c:288
     63e:	462b      	mov	r3, r5
/home/aom1/Work/Linux/target/STM32MP1-DK2/bootloader/optee-os-custom/lib/libutils/ext/snprintk.c:293
     640:	f04f 39ff 	mov.w	r9, #4294967295	; 0xffffffff
/home/aom1/Work/Linux/target/STM32MP1-DK2/bootloader/optee-os-custom/lib/libutils/ext/snprintk.c:290
     644:	4644      	mov	r4, r8
/home/aom1/Work/Linux/target/STM32MP1-DK2/bootloader/optee-os-custom/lib/libutils/ext/snprintk.c:296
     646:	f817 bb01 	ldrb.w	fp, [r7], #1
/home/aom1/Work/Linux/target/STM32MP1-DK2/bootloader/optee-os-custom/lib/libutils/ext/snprintk.c:297
     64a:	f1bb 0f39 	cmp.w	fp, #57	; 0x39
     64e:	dc54      	bgt.n	6fa <kprintf.constprop.0+0x11a>
     650:	f1bb 0f1f 	cmp.w	fp, #31
     654:	f340 82ad 	ble.w	bb2 <kprintf.constprop.0+0x5d2>
     658:	f1ab 0220 	sub.w	r2, fp, #32
     65c:	2a19      	cmp	r2, #25
     65e:	d850      	bhi.n	702 <kprintf.constprop.0+0x122>
     660:	e8df f002 	tbb	[pc, r2]
     664:	594f4f53 	.word	0x594f4f53
     668:	4f4f4f4f 	.word	0x4f4f4f4f
     66c:	0d5c4f4f 	.word	0x0d5c4f4f
     670:	4f66634f 	.word	0x4f66634f
     674:	8080807d 	.word	0x8080807d
     678:	80808080 	.word	0x80808080
     67c:	8080      	.short	0x8080
     67e:	f04f 082b 	mov.w	r8, #43	; 0x2b
     682:	e7e0      	b.n	646 <kprintf.constprop.0+0x66>
     684:	2a36      	cmp	r2, #54	; 0x36
     686:	d83c      	bhi.n	702 <kprintf.constprop.0+0x122>
     688:	e8df f012 	tbh	[pc, r2, lsl #1]
     68c:	003b009e 	.word	0x003b009e
     690:	003b003b 	.word	0x003b003b
     694:	003b003b 	.word	0x003b003b
     698:	003b003b 	.word	0x003b003b
     69c:	003b003b 	.word	0x003b003b
     6a0:	0160003b 	.word	0x0160003b
     6a4:	003b003b 	.word	0x003b003b
     6a8:	003b003b 	.word	0x003b003b
     6ac:	0204003b 	.word	0x0204003b
     6b0:	003b003b 	.word	0x003b003b
     6b4:	003b023f 	.word	0x003b023f
     6b8:	003b003b 	.word	0x003b003b
     6bc:	003b003b 	.word	0x003b003b
     6c0:	003b003b 	.word	0x003b003b
     6c4:	003b003b 	.word	0x003b003b
     6c8:	0092003b 	.word	0x0092003b
     6cc:	003b00a0 	.word	0x003b00a0
     6d0:	003b003b 	.word	0x003b003b
     6d4:	00a0007c 	.word	0x00a0007c
     6d8:	003b007f 	.word	0x003b007f
     6dc:	003b0082 	.word	0x003b0082
     6e0:	01620143 	.word	0x01620143
     6e4:	0086019d 	.word	0x0086019d
     6e8:	01e6003b 	.word	0x01e6003b
     6ec:	0206008c 	.word	0x0206008c
     6f0:	003b003b 	.word	0x003b003b
     6f4:	003b024e 	.word	0x003b024e
     6f8:	008f      	.short	0x008f
     6fa:	f1ab 0244 	sub.w	r2, fp, #68	; 0x44
     6fe:	2a36      	cmp	r2, #54	; 0x36
     700:	d9c0      	bls.n	684 <kprintf.constprop.0+0xa4>
/home/aom1/Work/Linux/target/STM32MP1-DK2/bootloader/optee-os-custom/lib/libutils/ext/snprintk.c:551
     702:	f88d b048 	strb.w	fp, [sp, #72]	; 0x48
/home/aom1/Work/Linux/target/STM32MP1-DK2/bootloader/optee-os-custom/lib/libutils/ext/snprintk.c:554
     706:	461d      	mov	r5, r3
     708:	e057      	b.n	7ba <kprintf.constprop.0+0x1da>
/home/aom1/Work/Linux/target/STM32MP1-DK2/bootloader/optee-os-custom/lib/libutils/ext/snprintk.c:305
     70a:	f1b8 0f00 	cmp.w	r8, #0
     70e:	bf08      	it	eq
     710:	f04f 0820 	moveq.w	r8, #32
     714:	e797      	b.n	646 <kprintf.constprop.0+0x66>
/home/aom1/Work/Linux/target/STM32MP1-DK2/bootloader/optee-os-custom/lib/libutils/ext/snprintk.c:308
     716:	f044 0401 	orr.w	r4, r4, #1
/home/aom1/Work/Linux/target/STM32MP1-DK2/bootloader/optee-os-custom/lib/libutils/ext/snprintk.c:309
     71a:	e794      	b.n	646 <kprintf.constprop.0+0x66>
/home/aom1/Work/Linux/target/STM32MP1-DK2/bootloader/optee-os-custom/lib/libutils/ext/snprintk.c:317
     71c:	f853 2b04 	ldr.w	r2, [r3], #4
     720:	920d      	str	r2, [sp, #52]	; 0x34
     722:	2a00      	cmp	r2, #0
     724:	da8f      	bge.n	646 <kprintf.constprop.0+0x66>
/home/aom1/Work/Linux/target/STM32MP1-DK2/bootloader/optee-os-custom/lib/libutils/ext/snprintk.c:319
     726:	4252      	negs	r2, r2
     728:	920d      	str	r2, [sp, #52]	; 0x34
/home/aom1/Work/Linux/target/STM32MP1-DK2/bootloader/optee-os-custom/lib/libutils/ext/snprintk.c:322
     72a:	f044 0404 	orr.w	r4, r4, #4
/home/aom1/Work/Linux/target/STM32MP1-DK2/bootloader/optee-os-custom/lib/libutils/ext/snprintk.c:323
     72e:	e78a      	b.n	646 <kprintf.constprop.0+0x66>
/home/aom1/Work/Linux/target/STM32MP1-DK2/bootloader/optee-os-custom/lib/libutils/ext/snprintk.c:328
     730:	f817 bb01 	ldrb.w	fp, [r7], #1
     734:	f1bb 0f2a 	cmp.w	fp, #42	; 0x2a
     738:	d10e      	bne.n	758 <kprintf.constprop.0+0x178>
/home/aom1/Work/Linux/target/STM32MP1-DK2/bootloader/optee-os-custom/lib/libutils/ext/snprintk.c:330
     73a:	f853 2b04 	ldr.w	r2, [r3], #4
     73e:	ea42 79e2 	orr.w	r9, r2, r2, asr #31
/home/aom1/Work/Linux/target/STM32MP1-DK2/bootloader/optee-os-custom/lib/libutils/ext/snprintk.c:331
     742:	e780      	b.n	646 <kprintf.constprop.0+0x66>
/home/aom1/Work/Linux/target/STM32MP1-DK2/bootloader/optee-os-custom/lib/libutils/ext/snprintk.c:336
     744:	f817 bb01 	ldrb.w	fp, [r7], #1
/home/aom1/Work/Linux/target/STM32MP1-DK2/bootloader/optee-os-custom/lib/libutils/ext/snprintk.c:335
     748:	210a      	movs	r1, #10
     74a:	fb01 2909 	mla	r9, r1, r9, r2
/home/aom1/Work/Linux/target/STM32MP1-DK2/bootloader/optee-os-custom/lib/libutils/ext/snprintk.c:334
     74e:	f1ab 0230 	sub.w	r2, fp, #48	; 0x30
     752:	2a09      	cmp	r2, #9
     754:	d9f6      	bls.n	744 <kprintf.constprop.0+0x164>
     756:	e778      	b.n	64a <kprintf.constprop.0+0x6a>
/home/aom1/Work/Linux/target/STM32MP1-DK2/bootloader/optee-os-custom/lib/libutils/ext/snprintk.c:333
     758:	f04f 0900 	mov.w	r9, #0
     75c:	e7f7      	b.n	74e <kprintf.constprop.0+0x16e>
/home/aom1/Work/Linux/target/STM32MP1-DK2/bootloader/optee-os-custom/lib/libutils/ext/snprintk.c:346
     75e:	f444 6480 	orr.w	r4, r4, #1024	; 0x400
/home/aom1/Work/Linux/target/STM32MP1-DK2/bootloader/optee-os-custom/lib/libutils/ext/snprintk.c:347
     762:	e770      	b.n	646 <kprintf.constprop.0+0x66>
/home/aom1/Work/Linux/target/STM32MP1-DK2/bootloader/optee-os-custom/lib/libutils/ext/snprintk.c:297
     764:	2200      	movs	r2, #0
     766:	920d      	str	r2, [sp, #52]	; 0x34
/home/aom1/Work/Linux/target/STM32MP1-DK2/bootloader/optee-os-custom/lib/libutils/ext/snprintk.c:352
     768:	990d      	ldr	r1, [sp, #52]	; 0x34
     76a:	f1ab 0230 	sub.w	r2, fp, #48	; 0x30
/home/aom1/Work/Linux/target/STM32MP1-DK2/bootloader/optee-os-custom/lib/libutils/ext/snprintk.c:353
     76e:	f817 bb01 	ldrb.w	fp, [r7], #1
/home/aom1/Work/Linux/target/STM32MP1-DK2/bootloader/optee-os-custom/lib/libutils/ext/snprintk.c:352
     772:	200a      	movs	r0, #10
     774:	fb00 2201 	mla	r2, r0, r1, r2
     778:	920d      	str	r2, [sp, #52]	; 0x34
/home/aom1/Work/Linux/target/STM32MP1-DK2/bootloader/optee-os-custom/lib/libutils/ext/snprintk.c:354
     77a:	f1ab 0230 	sub.w	r2, fp, #48	; 0x30
     77e:	2a09      	cmp	r2, #9
     780:	d9f2      	bls.n	768 <kprintf.constprop.0+0x188>
     782:	e762      	b.n	64a <kprintf.constprop.0+0x6a>
/home/aom1/Work/Linux/target/STM32MP1-DK2/bootloader/optee-os-custom/lib/libutils/ext/snprintk.c:358
     784:	f044 0440 	orr.w	r4, r4, #64	; 0x40
/home/aom1/Work/Linux/target/STM32MP1-DK2/bootloader/optee-os-custom/lib/libutils/ext/snprintk.c:359
     788:	e75d      	b.n	646 <kprintf.constprop.0+0x66>
/home/aom1/Work/Linux/target/STM32MP1-DK2/bootloader/optee-os-custom/lib/libutils/ext/snprintk.c:361
     78a:	f044 0480 	orr.w	r4, r4, #128	; 0x80
/home/aom1/Work/Linux/target/STM32MP1-DK2/bootloader/optee-os-custom/lib/libutils/ext/snprintk.c:362
     78e:	e75a      	b.n	646 <kprintf.constprop.0+0x66>
/home/aom1/Work/Linux/target/STM32MP1-DK2/bootloader/optee-os-custom/lib/libutils/ext/snprintk.c:364
     790:	783a      	ldrb	r2, [r7, #0]
     792:	2a6c      	cmp	r2, #108	; 0x6c
     794:	d103      	bne.n	79e <kprintf.constprop.0+0x1be>
/home/aom1/Work/Linux/target/STM32MP1-DK2/bootloader/optee-os-custom/lib/libutils/ext/snprintk.c:328
     796:	3701      	adds	r7, #1
/home/aom1/Work/Linux/target/STM32MP1-DK2/bootloader/optee-os-custom/lib/libutils/ext/snprintk.c:372
     798:	f044 0420 	orr.w	r4, r4, #32
/home/aom1/Work/Linux/target/STM32MP1-DK2/bootloader/optee-os-custom/lib/libutils/ext/snprintk.c:373
     79c:	e753      	b.n	646 <kprintf.constprop.0+0x66>
/home/aom1/Work/Linux/target/STM32MP1-DK2/bootloader/optee-os-custom/lib/libutils/ext/snprintk.c:368
     79e:	f044 0410 	orr.w	r4, r4, #16
     7a2:	e750      	b.n	646 <kprintf.constprop.0+0x66>
/home/aom1/Work/Linux/target/STM32MP1-DK2/bootloader/optee-os-custom/lib/libutils/ext/snprintk.c:375
     7a4:	f444 7480 	orr.w	r4, r4, #256	; 0x100
/home/aom1/Work/Linux/target/STM32MP1-DK2/bootloader/optee-os-custom/lib/libutils/ext/snprintk.c:376
     7a8:	e74d      	b.n	646 <kprintf.constprop.0+0x66>
/home/aom1/Work/Linux/target/STM32MP1-DK2/bootloader/optee-os-custom/lib/libutils/ext/snprintk.c:378
     7aa:	f444 7400 	orr.w	r4, r4, #512	; 0x200
/home/aom1/Work/Linux/target/STM32MP1-DK2/bootloader/optee-os-custom/lib/libutils/ext/snprintk.c:379
     7ae:	e74a      	b.n	646 <kprintf.constprop.0+0x66>
/home/aom1/Work/Linux/target/STM32MP1-DK2/bootloader/optee-os-custom/lib/libutils/ext/snprintk.c:381
     7b0:	461d      	mov	r5, r3
     7b2:	f855 3b04 	ldr.w	r3, [r5], #4
     7b6:	f88d 3048 	strb.w	r3, [sp, #72]	; 0x48
/home/aom1/Work/Linux/target/STM32MP1-DK2/bootloader/optee-os-custom/lib/libutils/ext/snprintk.c:291
     7ba:	2000      	movs	r0, #0
/home/aom1/Work/Linux/target/STM32MP1-DK2/bootloader/optee-os-custom/lib/libutils/ext/snprintk.c:552
     7bc:	f04f 0901 	mov.w	r9, #1
/home/aom1/Work/Linux/target/STM32MP1-DK2/bootloader/optee-os-custom/lib/libutils/ext/snprintk.c:553
     7c0:	4680      	mov	r8, r0
/home/aom1/Work/Linux/target/STM32MP1-DK2/bootloader/optee-os-custom/lib/libutils/ext/snprintk.c:550
     7c2:	f10d 0a48 	add.w	sl, sp, #72	; 0x48
/home/aom1/Work/Linux/target/STM32MP1-DK2/bootloader/optee-os-custom/lib/libutils/ext/snprintk.c:554
     7c6:	e03c      	b.n	842 <kprintf.constprop.0+0x262>
/home/aom1/Work/Linux/target/STM32MP1-DK2/bootloader/optee-os-custom/lib/libutils/ext/snprintk.c:386
     7c8:	f044 0410 	orr.w	r4, r4, #16
/home/aom1/Work/Linux/target/STM32MP1-DK2/bootloader/optee-os-custom/lib/libutils/ext/snprintk.c:390
     7cc:	0625      	lsls	r5, r4, #24
     7ce:	f140 8087 	bpl.w	8e0 <kprintf.constprop.0+0x300>
     7d2:	3307      	adds	r3, #7
     7d4:	f023 0307 	bic.w	r3, r3, #7
     7d8:	461d      	mov	r5, r3
     7da:	6859      	ldr	r1, [r3, #4]
     7dc:	f855 0b08 	ldr.w	r0, [r5], #8
/home/aom1/Work/Linux/target/STM32MP1-DK2/bootloader/optee-os-custom/lib/libutils/ext/snprintk.c:391
     7e0:	2900      	cmp	r1, #0
     7e2:	f280 8165 	bge.w	ab0 <kprintf.constprop.0+0x4d0>
/home/aom1/Work/Linux/target/STM32MP1-DK2/bootloader/optee-os-custom/lib/libutils/ext/snprintk.c:392
     7e6:	4240      	negs	r0, r0
/home/aom1/Work/Linux/target/STM32MP1-DK2/bootloader/optee-os-custom/lib/libutils/ext/snprintk.c:395
     7e8:	f04f 0301 	mov.w	r3, #1
/home/aom1/Work/Linux/target/STM32MP1-DK2/bootloader/optee-os-custom/lib/libutils/ext/snprintk.c:392
     7ec:	eb61 0141 	sbc.w	r1, r1, r1, lsl #1
/home/aom1/Work/Linux/target/STM32MP1-DK2/bootloader/optee-os-custom/lib/libutils/ext/snprintk.c:393
     7f0:	f04f 082d 	mov.w	r8, #45	; 0x2d
/home/aom1/Work/Linux/target/STM32MP1-DK2/bootloader/optee-os-custom/lib/libutils/ext/snprintk.c:494
     7f4:	f1b9 3fff 	cmp.w	r9, #4294967295	; 0xffffffff
     7f8:	f040 80c3 	bne.w	982 <kprintf.constprop.0+0x3a2>
/home/aom1/Work/Linux/target/STM32MP1-DK2/bootloader/optee-os-custom/lib/libutils/ext/snprintk.c:509
     7fc:	2b01      	cmp	r3, #1
     7fe:	f000 815a 	beq.w	ab6 <kprintf.constprop.0+0x4d6>
     802:	2b02      	cmp	r3, #2
     804:	f000 8118 	beq.w	a38 <kprintf.constprop.0+0x458>
/home/aom1/Work/Linux/target/STM32MP1-DK2/bootloader/optee-os-custom/lib/libutils/ext/snprintk.c:494
     808:	f10d 0a6d 	add.w	sl, sp, #109	; 0x6d
/home/aom1/Work/Linux/target/STM32MP1-DK2/bootloader/optee-os-custom/lib/libutils/ext/snprintk.c:512
     80c:	f000 0307 	and.w	r3, r0, #7
     810:	4652      	mov	r2, sl
/home/aom1/Work/Linux/target/STM32MP1-DK2/bootloader/optee-os-custom/lib/libutils/ext/snprintk.c:513
     812:	08c0      	lsrs	r0, r0, #3
/home/aom1/Work/Linux/target/STM32MP1-DK2/bootloader/optee-os-custom/lib/libutils/ext/snprintk.c:512
     814:	3330      	adds	r3, #48	; 0x30
/home/aom1/Work/Linux/target/STM32MP1-DK2/bootloader/optee-os-custom/lib/libutils/ext/snprintk.c:513
     816:	ea40 7041 	orr.w	r0, r0, r1, lsl #29
     81a:	08c9      	lsrs	r1, r1, #3
/home/aom1/Work/Linux/target/STM32MP1-DK2/bootloader/optee-os-custom/lib/libutils/ext/snprintk.c:514
     81c:	ea50 0c01 	orrs.w	ip, r0, r1
/home/aom1/Work/Linux/target/STM32MP1-DK2/bootloader/optee-os-custom/lib/libutils/ext/snprintk.c:512
     820:	f80a 3d01 	strb.w	r3, [sl, #-1]!
/home/aom1/Work/Linux/target/STM32MP1-DK2/bootloader/optee-os-custom/lib/libutils/ext/snprintk.c:514
     824:	d1f2      	bne.n	80c <kprintf.constprop.0+0x22c>
/home/aom1/Work/Linux/target/STM32MP1-DK2/bootloader/optee-os-custom/lib/libutils/ext/snprintk.c:516
     826:	07e1      	lsls	r1, r4, #31
     828:	d506      	bpl.n	838 <kprintf.constprop.0+0x258>
     82a:	2b30      	cmp	r3, #48	; 0x30
     82c:	d004      	beq.n	838 <kprintf.constprop.0+0x258>
/home/aom1/Work/Linux/target/STM32MP1-DK2/bootloader/optee-os-custom/lib/libutils/ext/snprintk.c:517
     82e:	2330      	movs	r3, #48	; 0x30
     830:	f80a 3c01 	strb.w	r3, [sl, #-1]
     834:	f1a2 0a02 	sub.w	sl, r2, #2
/home/aom1/Work/Linux/target/STM32MP1-DK2/bootloader/optee-os-custom/lib/libutils/ext/snprintk.c:543
     838:	4648      	mov	r0, r9
     83a:	f10d 096d 	add.w	r9, sp, #109	; 0x6d
     83e:	eba9 090a 	sub.w	r9, r9, sl
/home/aom1/Work/Linux/target/STM32MP1-DK2/bootloader/optee-os-custom/lib/libutils/ext/snprintk.c:571
     842:	4548      	cmp	r0, r9
     844:	4603      	mov	r3, r0
     846:	bfb8      	it	lt
     848:	464b      	movlt	r3, r9
/home/aom1/Work/Linux/target/STM32MP1-DK2/bootloader/optee-os-custom/lib/libutils/ext/snprintk.c:572
     84a:	f1b8 0f00 	cmp.w	r8, #0
     84e:	f000 81b5 	beq.w	bbc <kprintf.constprop.0+0x5dc>
/home/aom1/Work/Linux/target/STM32MP1-DK2/bootloader/optee-os-custom/lib/libutils/ext/snprintk.c:573
     852:	3301      	adds	r3, #1
/home/aom1/Work/Linux/target/STM32MP1-DK2/bootloader/optee-os-custom/lib/libutils/ext/snprintk.c:578
     854:	9a0b      	ldr	r2, [sp, #44]	; 0x2c
     856:	990d      	ldr	r1, [sp, #52]	; 0x34
     858:	428b      	cmp	r3, r1
     85a:	bfac      	ite	ge
     85c:	18d2      	addge	r2, r2, r3
     85e:	1852      	addlt	r2, r2, r1
/home/aom1/Work/Linux/target/STM32MP1-DK2/bootloader/optee-os-custom/lib/libutils/ext/snprintk.c:581
     860:	f240 4104 	movw	r1, #1028	; 0x404
     864:	ea14 0e01 	ands.w	lr, r4, r1
/home/aom1/Work/Linux/target/STM32MP1-DK2/bootloader/optee-os-custom/lib/libutils/ext/snprintk.c:578
     868:	920b      	str	r2, [sp, #44]	; 0x2c
/home/aom1/Work/Linux/target/STM32MP1-DK2/bootloader/optee-os-custom/lib/libutils/ext/snprintk.c:581
     86a:	d106      	bne.n	87a <kprintf.constprop.0+0x29a>
/home/aom1/Work/Linux/target/STM32MP1-DK2/bootloader/optee-os-custom/lib/libutils/ext/snprintk.c:582
     86c:	9a0d      	ldr	r2, [sp, #52]	; 0x34
/home/aom1/Work/Linux/target/STM32MP1-DK2/bootloader/optee-os-custom/lib/libutils/ext/snprintk.c:584
     86e:	f04f 0c20 	mov.w	ip, #32
/home/aom1/Work/Linux/target/STM32MP1-DK2/bootloader/optee-os-custom/lib/libutils/ext/snprintk.c:582
     872:	1ad2      	subs	r2, r2, r3
/home/aom1/Work/Linux/target/STM32MP1-DK2/bootloader/optee-os-custom/lib/libutils/ext/snprintk.c:583
     874:	2a00      	cmp	r2, #0
     876:	f300 81a5 	bgt.w	bc4 <kprintf.constprop.0+0x5e4>
/home/aom1/Work/Linux/target/STM32MP1-DK2/bootloader/optee-os-custom/lib/libutils/ext/snprintk.c:588
     87a:	f1b8 0f00 	cmp.w	r8, #0
     87e:	f000 81ab 	beq.w	bd8 <kprintf.constprop.0+0x5f8>
/home/aom1/Work/Linux/target/STM32MP1-DK2/bootloader/optee-os-custom/lib/libutils/ext/snprintk.c:589
     882:	b136      	cbz	r6, 892 <kprintf.constprop.0+0x2b2>
     884:	9a0c      	ldr	r2, [sp, #48]	; 0x30
     886:	b112      	cbz	r2, 88e <kprintf.constprop.0+0x2ae>
     888:	9a0e      	ldr	r2, [sp, #56]	; 0x38
     88a:	42b2      	cmp	r2, r6
     88c:	d901      	bls.n	892 <kprintf.constprop.0+0x2b2>
     88e:	f806 8b01 	strb.w	r8, [r6], #1
/home/aom1/Work/Linux/target/STM32MP1-DK2/bootloader/optee-os-custom/lib/libutils/ext/snprintk.c:596
     892:	f5be 6f80 	cmp.w	lr, #1024	; 0x400
     896:	d106      	bne.n	8a6 <kprintf.constprop.0+0x2c6>
/home/aom1/Work/Linux/target/STM32MP1-DK2/bootloader/optee-os-custom/lib/libutils/ext/snprintk.c:597
     898:	9a0d      	ldr	r2, [sp, #52]	; 0x34
/home/aom1/Work/Linux/target/STM32MP1-DK2/bootloader/optee-os-custom/lib/libutils/ext/snprintk.c:599
     89a:	f04f 0c30 	mov.w	ip, #48	; 0x30
/home/aom1/Work/Linux/target/STM32MP1-DK2/bootloader/optee-os-custom/lib/libutils/ext/snprintk.c:597
     89e:	1ad2      	subs	r2, r2, r3
/home/aom1/Work/Linux/target/STM32MP1-DK2/bootloader/optee-os-custom/lib/libutils/ext/snprintk.c:598
     8a0:	2a00      	cmp	r2, #0
     8a2:	f300 81b3 	bgt.w	c0c <kprintf.constprop.0+0x62c>
/home/aom1/Work/Linux/target/STM32MP1-DK2/bootloader/optee-os-custom/lib/libutils/ext/snprintk.c:603
     8a6:	eba0 0009 	sub.w	r0, r0, r9
/home/aom1/Work/Linux/target/STM32MP1-DK2/bootloader/optee-os-custom/lib/libutils/ext/snprintk.c:605
     8aa:	2230      	movs	r2, #48	; 0x30
/home/aom1/Work/Linux/target/STM32MP1-DK2/bootloader/optee-os-custom/lib/libutils/ext/snprintk.c:604
     8ac:	2800      	cmp	r0, #0
     8ae:	f300 81b7 	bgt.w	c20 <kprintf.constprop.0+0x640>
     8b2:	44d1      	add	r9, sl
/home/aom1/Work/Linux/target/STM32MP1-DK2/bootloader/optee-os-custom/lib/libutils/ext/snprintk.c:608
     8b4:	45ca      	cmp	sl, r9
     8b6:	f040 81bd 	bne.w	c34 <kprintf.constprop.0+0x654>
/home/aom1/Work/Linux/target/STM32MP1-DK2/bootloader/optee-os-custom/lib/libutils/ext/snprintk.c:611
     8ba:	0762      	lsls	r2, r4, #29
     8bc:	f57f aea0 	bpl.w	600 <kprintf.constprop.0+0x20>
/home/aom1/Work/Linux/target/STM32MP1-DK2/bootloader/optee-os-custom/lib/libutils/ext/snprintk.c:612
     8c0:	9a0d      	ldr	r2, [sp, #52]	; 0x34
     8c2:	1ad3      	subs	r3, r2, r3
/home/aom1/Work/Linux/target/STM32MP1-DK2/bootloader/optee-os-custom/lib/libutils/ext/snprintk.c:614
     8c4:	2220      	movs	r2, #32
/home/aom1/Work/Linux/target/STM32MP1-DK2/bootloader/optee-os-custom/lib/libutils/ext/snprintk.c:613
     8c6:	2b00      	cmp	r3, #0
     8c8:	f77f ae9a 	ble.w	600 <kprintf.constprop.0+0x20>
/home/aom1/Work/Linux/target/STM32MP1-DK2/bootloader/optee-os-custom/lib/libutils/ext/snprintk.c:614
     8cc:	b136      	cbz	r6, 8dc <kprintf.constprop.0+0x2fc>
     8ce:	990c      	ldr	r1, [sp, #48]	; 0x30
     8d0:	b111      	cbz	r1, 8d8 <kprintf.constprop.0+0x2f8>
     8d2:	990e      	ldr	r1, [sp, #56]	; 0x38
     8d4:	42b1      	cmp	r1, r6
     8d6:	d901      	bls.n	8dc <kprintf.constprop.0+0x2fc>
     8d8:	f806 2b01 	strb.w	r2, [r6], #1
     8dc:	3b01      	subs	r3, #1
     8de:	e7f2      	b.n	8c6 <kprintf.constprop.0+0x2e6>
/home/aom1/Work/Linux/target/STM32MP1-DK2/bootloader/optee-os-custom/lib/libutils/ext/snprintk.c:390
     8e0:	05e0      	lsls	r0, r4, #23
     8e2:	d504      	bpl.n	8ee <kprintf.constprop.0+0x30e>
     8e4:	461d      	mov	r5, r3
     8e6:	f855 0b04 	ldr.w	r0, [r5], #4
     8ea:	17c1      	asrs	r1, r0, #31
     8ec:	e778      	b.n	7e0 <kprintf.constprop.0+0x200>
     8ee:	05a1      	lsls	r1, r4, #22
     8f0:	d4f8      	bmi.n	8e4 <kprintf.constprop.0+0x304>
     8f2:	06a2      	lsls	r2, r4, #26
     8f4:	f53f af6d 	bmi.w	7d2 <kprintf.constprop.0+0x1f2>
/home/aom1/Work/Linux/target/STM32MP1-DK2/bootloader/optee-os-custom/lib/libutils/ext/snprintk.c:317
     8f8:	461d      	mov	r5, r3
/home/aom1/Work/Linux/target/STM32MP1-DK2/bootloader/optee-os-custom/lib/libutils/ext/snprintk.c:390
     8fa:	06e3      	lsls	r3, r4, #27
/home/aom1/Work/Linux/target/STM32MP1-DK2/bootloader/optee-os-custom/lib/libutils/ext/snprintk.c:317
     8fc:	f855 1b04 	ldr.w	r1, [r5], #4
/home/aom1/Work/Linux/target/STM32MP1-DK2/bootloader/optee-os-custom/lib/libutils/ext/snprintk.c:390
     900:	d501      	bpl.n	906 <kprintf.constprop.0+0x326>
     902:	4608      	mov	r0, r1
     904:	e7f1      	b.n	8ea <kprintf.constprop.0+0x30a>
     906:	0660      	lsls	r0, r4, #25
     908:	d5fb      	bpl.n	902 <kprintf.constprop.0+0x322>
     90a:	b208      	sxth	r0, r1
     90c:	f341 31c0 	sbfx	r1, r1, #15, #1
     910:	e766      	b.n	7e0 <kprintf.constprop.0+0x200>
/home/aom1/Work/Linux/target/STM32MP1-DK2/bootloader/optee-os-custom/lib/libutils/ext/snprintk.c:398
     912:	0621      	lsls	r1, r4, #24
/home/aom1/Work/Linux/target/STM32MP1-DK2/bootloader/optee-os-custom/lib/libutils/ext/snprintk.c:317
     914:	f103 0504 	add.w	r5, r3, #4
/home/aom1/Work/Linux/target/STM32MP1-DK2/bootloader/optee-os-custom/lib/libutils/ext/snprintk.c:398
     918:	d506      	bpl.n	928 <kprintf.constprop.0+0x348>
/home/aom1/Work/Linux/target/STM32MP1-DK2/bootloader/optee-os-custom/lib/libutils/ext/snprintk.c:405
     91a:	9a0b      	ldr	r2, [sp, #44]	; 0x2c
     91c:	681b      	ldr	r3, [r3, #0]
     91e:	990b      	ldr	r1, [sp, #44]	; 0x2c
     920:	17d2      	asrs	r2, r2, #31
     922:	e9c3 1200 	strd	r1, r2, [r3]
     926:	e66b      	b.n	600 <kprintf.constprop.0+0x20>
/home/aom1/Work/Linux/target/STM32MP1-DK2/bootloader/optee-os-custom/lib/libutils/ext/snprintk.c:400
     928:	05e2      	lsls	r2, r4, #23
     92a:	d503      	bpl.n	934 <kprintf.constprop.0+0x354>
/home/aom1/Work/Linux/target/STM32MP1-DK2/bootloader/optee-os-custom/lib/libutils/ext/snprintk.c:411
     92c:	681b      	ldr	r3, [r3, #0]
     92e:	9a0b      	ldr	r2, [sp, #44]	; 0x2c
     930:	601a      	str	r2, [r3, #0]
     932:	e665      	b.n	600 <kprintf.constprop.0+0x20>
/home/aom1/Work/Linux/target/STM32MP1-DK2/bootloader/optee-os-custom/lib/libutils/ext/snprintk.c:402
     934:	05a0      	lsls	r0, r4, #22
     936:	d4f9      	bmi.n	92c <kprintf.constprop.0+0x34c>
/home/aom1/Work/Linux/target/STM32MP1-DK2/bootloader/optee-os-custom/lib/libutils/ext/snprintk.c:404
     938:	06a1      	lsls	r1, r4, #26
     93a:	d4ee      	bmi.n	91a <kprintf.constprop.0+0x33a>
/home/aom1/Work/Linux/target/STM32MP1-DK2/bootloader/optee-os-custom/lib/libutils/ext/snprintk.c:406
     93c:	06e2      	lsls	r2, r4, #27
     93e:	d4f5      	bmi.n	92c <kprintf.constprop.0+0x34c>
/home/aom1/Work/Linux/target/STM32MP1-DK2/bootloader/optee-os-custom/lib/libutils/ext/snprintk.c:408
     940:	0664      	lsls	r4, r4, #25
     942:	d5f3      	bpl.n	92c <kprintf.constprop.0+0x34c>
/home/aom1/Work/Linux/target/STM32MP1-DK2/bootloader/optee-os-custom/lib/libutils/ext/snprintk.c:409
     944:	681b      	ldr	r3, [r3, #0]
     946:	9a0b      	ldr	r2, [sp, #44]	; 0x2c
     948:	801a      	strh	r2, [r3, #0]
     94a:	e659      	b.n	600 <kprintf.constprop.0+0x20>
/home/aom1/Work/Linux/target/STM32MP1-DK2/bootloader/optee-os-custom/lib/libutils/ext/snprintk.c:414
     94c:	f044 0410 	orr.w	r4, r4, #16
/home/aom1/Work/Linux/target/STM32MP1-DK2/bootloader/optee-os-custom/lib/libutils/ext/snprintk.c:417
     950:	f014 0280 	ands.w	r2, r4, #128	; 0x80
     954:	d007      	beq.n	966 <kprintf.constprop.0+0x386>
     956:	3307      	adds	r3, #7
     958:	f023 0307 	bic.w	r3, r3, #7
     95c:	461d      	mov	r5, r3
     95e:	6859      	ldr	r1, [r3, #4]
     960:	f855 0b08 	ldr.w	r0, [r5], #8
     964:	e006      	b.n	974 <kprintf.constprop.0+0x394>
     966:	f414 7180 	ands.w	r1, r4, #256	; 0x100
     96a:	d017      	beq.n	99c <kprintf.constprop.0+0x3bc>
     96c:	461d      	mov	r5, r3
     96e:	4611      	mov	r1, r2
     970:	f855 0b04 	ldr.w	r0, [r5], #4
/home/aom1/Work/Linux/target/STM32MP1-DK2/bootloader/optee-os-custom/lib/libutils/ext/snprintk.c:494
     974:	f1b9 3fff 	cmp.w	r9, #4294967295	; 0xffffffff
     978:	f04f 0800 	mov.w	r8, #0
     97c:	f43f af44 	beq.w	808 <kprintf.constprop.0+0x228>
     980:	4643      	mov	r3, r8
/home/aom1/Work/Linux/target/STM32MP1-DK2/bootloader/optee-os-custom/lib/libutils/ext/snprintk.c:503
     982:	ea50 0201 	orrs.w	r2, r0, r1
/home/aom1/Work/Linux/target/STM32MP1-DK2/bootloader/optee-os-custom/lib/libutils/ext/snprintk.c:495
     986:	f424 6480 	bic.w	r4, r4, #1024	; 0x400
/home/aom1/Work/Linux/target/STM32MP1-DK2/bootloader/optee-os-custom/lib/libutils/ext/snprintk.c:503
     98a:	f47f af37 	bne.w	7fc <kprintf.constprop.0+0x21c>
     98e:	f1b9 0f00 	cmp.w	r9, #0
     992:	f47f af33 	bne.w	7fc <kprintf.constprop.0+0x21c>
/home/aom1/Work/Linux/target/STM32MP1-DK2/bootloader/optee-os-custom/lib/libutils/ext/snprintk.c:502
     996:	f10d 0a6d 	add.w	sl, sp, #109	; 0x6d
     99a:	e74d      	b.n	838 <kprintf.constprop.0+0x258>
/home/aom1/Work/Linux/target/STM32MP1-DK2/bootloader/optee-os-custom/lib/libutils/ext/snprintk.c:417
     99c:	05a0      	lsls	r0, r4, #22
     99e:	d503      	bpl.n	9a8 <kprintf.constprop.0+0x3c8>
     9a0:	461d      	mov	r5, r3
     9a2:	f855 0b04 	ldr.w	r0, [r5], #4
     9a6:	e7e5      	b.n	974 <kprintf.constprop.0+0x394>
     9a8:	f014 0120 	ands.w	r1, r4, #32
     9ac:	d1d3      	bne.n	956 <kprintf.constprop.0+0x376>
/home/aom1/Work/Linux/target/STM32MP1-DK2/bootloader/optee-os-custom/lib/libutils/ext/snprintk.c:317
     9ae:	461d      	mov	r5, r3
/home/aom1/Work/Linux/target/STM32MP1-DK2/bootloader/optee-os-custom/lib/libutils/ext/snprintk.c:417
     9b0:	f014 0310 	ands.w	r3, r4, #16
/home/aom1/Work/Linux/target/STM32MP1-DK2/bootloader/optee-os-custom/lib/libutils/ext/snprintk.c:317
     9b4:	f855 0b04 	ldr.w	r0, [r5], #4
/home/aom1/Work/Linux/target/STM32MP1-DK2/bootloader/optee-os-custom/lib/libutils/ext/snprintk.c:417
     9b8:	d1dc      	bne.n	974 <kprintf.constprop.0+0x394>
     9ba:	f014 0140 	ands.w	r1, r4, #64	; 0x40
     9be:	d0d9      	beq.n	974 <kprintf.constprop.0+0x394>
     9c0:	b280      	uxth	r0, r0
     9c2:	4619      	mov	r1, r3
     9c4:	e7d6      	b.n	974 <kprintf.constprop.0+0x394>
/home/aom1/Work/Linux/target/STM32MP1-DK2/bootloader/optee-os-custom/lib/libutils/ext/snprintk.c:317
     9c6:	461d      	mov	r5, r3
/home/aom1/Work/Linux/target/STM32MP1-DK2/bootloader/optee-os-custom/lib/libutils/ext/snprintk.c:421
     9c8:	9b11      	ldr	r3, [sp, #68]	; 0x44
     9ca:	f855 0b04 	ldr.w	r0, [r5], #4
     9ce:	b32b      	cbz	r3, a1c <kprintf.constprop.0+0x43c>
     9d0:	783b      	ldrb	r3, [r7, #0]
     9d2:	2b55      	cmp	r3, #85	; 0x55
     9d4:	d122      	bne.n	a1c <kprintf.constprop.0+0x43c>
     9d6:	787b      	ldrb	r3, [r7, #1]
     9d8:	2b6c      	cmp	r3, #108	; 0x6c
     9da:	d11f      	bne.n	a1c <kprintf.constprop.0+0x43c>
uuid2str():
/home/aom1/Work/Linux/target/STM32MP1-DK2/bootloader/optee-os-custom/lib/libutils/ext/snprintk.c:229
     9dc:	7bc3      	ldrb	r3, [r0, #15]
     9de:	f10d 0a48 	add.w	sl, sp, #72	; 0x48
     9e2:	4a9b      	ldr	r2, [pc, #620]	; (c50 <kprintf.constprop.0+0x670>)
     9e4:	2125      	movs	r1, #37	; 0x25
     9e6:	9309      	str	r3, [sp, #36]	; 0x24
kprintf():
/home/aom1/Work/Linux/target/STM32MP1-DK2/bootloader/optee-os-custom/lib/libutils/ext/snprintk.c:426
     9e8:	3702      	adds	r7, #2
uuid2str():
/home/aom1/Work/Linux/target/STM32MP1-DK2/bootloader/optee-os-custom/lib/libutils/ext/snprintk.c:229
     9ea:	7b83      	ldrb	r3, [r0, #14]
     9ec:	447a      	add	r2, pc
     9ee:	9308      	str	r3, [sp, #32]
     9f0:	7b43      	ldrb	r3, [r0, #13]
     9f2:	9307      	str	r3, [sp, #28]
     9f4:	7b03      	ldrb	r3, [r0, #12]
     9f6:	9306      	str	r3, [sp, #24]
     9f8:	7ac3      	ldrb	r3, [r0, #11]
     9fa:	9305      	str	r3, [sp, #20]
     9fc:	7a83      	ldrb	r3, [r0, #10]
     9fe:	9304      	str	r3, [sp, #16]
     a00:	7a43      	ldrb	r3, [r0, #9]
     a02:	9303      	str	r3, [sp, #12]
     a04:	7a03      	ldrb	r3, [r0, #8]
     a06:	9302      	str	r3, [sp, #8]
     a08:	88c3      	ldrh	r3, [r0, #6]
     a0a:	9301      	str	r3, [sp, #4]
     a0c:	8883      	ldrh	r3, [r0, #4]
     a0e:	9300      	str	r3, [sp, #0]
     a10:	6803      	ldr	r3, [r0, #0]
     a12:	4650      	mov	r0, sl
     a14:	f7ff fdd7 	bl	5c6 <snprintk>
kprintf():
/home/aom1/Work/Linux/target/STM32MP1-DK2/bootloader/optee-os-custom/lib/libutils/ext/snprintk.c:466
     a18:	4681      	mov	r9, r0
     a1a:	e034      	b.n	a86 <kprintf.constprop.0+0x4a6>
/home/aom1/Work/Linux/target/STM32MP1-DK2/bootloader/optee-os-custom/lib/libutils/ext/snprintk.c:443
     a1c:	4b8d      	ldr	r3, [pc, #564]	; (c54 <kprintf.constprop.0+0x674>)
/home/aom1/Work/Linux/target/STM32MP1-DK2/bootloader/optee-os-custom/lib/libutils/ext/snprintk.c:441
     a1e:	2100      	movs	r1, #0
/home/aom1/Work/Linux/target/STM32MP1-DK2/bootloader/optee-os-custom/lib/libutils/ext/snprintk.c:444
     a20:	f044 0402 	orr.w	r4, r4, #2
/home/aom1/Work/Linux/target/STM32MP1-DK2/bootloader/optee-os-custom/lib/libutils/ext/snprintk.c:445
     a24:	f04f 0b78 	mov.w	fp, #120	; 0x78
/home/aom1/Work/Linux/target/STM32MP1-DK2/bootloader/optee-os-custom/lib/libutils/ext/snprintk.c:443
     a28:	447b      	add	r3, pc
     a2a:	930f      	str	r3, [sp, #60]	; 0x3c
/home/aom1/Work/Linux/target/STM32MP1-DK2/bootloader/optee-os-custom/lib/libutils/ext/snprintk.c:494
     a2c:	f1b9 3fff 	cmp.w	r9, #4294967295	; 0xffffffff
     a30:	f04f 0800 	mov.w	r8, #0
     a34:	f040 80a3 	bne.w	b7e <kprintf.constprop.0+0x59e>
     a38:	f10d 0a6d 	add.w	sl, sp, #109	; 0x6d
/home/aom1/Work/Linux/target/STM32MP1-DK2/bootloader/optee-os-custom/lib/libutils/ext/snprintk.c:531
     a3c:	9a0f      	ldr	r2, [sp, #60]	; 0x3c
     a3e:	f000 030f 	and.w	r3, r0, #15
/home/aom1/Work/Linux/target/STM32MP1-DK2/bootloader/optee-os-custom/lib/libutils/ext/snprintk.c:532
     a42:	0900      	lsrs	r0, r0, #4
/home/aom1/Work/Linux/target/STM32MP1-DK2/bootloader/optee-os-custom/lib/libutils/ext/snprintk.c:531
     a44:	5cd3      	ldrb	r3, [r2, r3]
/home/aom1/Work/Linux/target/STM32MP1-DK2/bootloader/optee-os-custom/lib/libutils/ext/snprintk.c:532
     a46:	ea40 7001 	orr.w	r0, r0, r1, lsl #28
     a4a:	0909      	lsrs	r1, r1, #4
/home/aom1/Work/Linux/target/STM32MP1-DK2/bootloader/optee-os-custom/lib/libutils/ext/snprintk.c:531
     a4c:	f80a 3d01 	strb.w	r3, [sl, #-1]!
/home/aom1/Work/Linux/target/STM32MP1-DK2/bootloader/optee-os-custom/lib/libutils/ext/snprintk.c:533
     a50:	ea50 0301 	orrs.w	r3, r0, r1
     a54:	d1f2      	bne.n	a3c <kprintf.constprop.0+0x45c>
     a56:	e6ef      	b.n	838 <kprintf.constprop.0+0x258>
/home/aom1/Work/Linux/target/STM32MP1-DK2/bootloader/optee-os-custom/lib/libutils/ext/snprintk.c:448
     a58:	461d      	mov	r5, r3
     a5a:	f855 ab04 	ldr.w	sl, [r5], #4
     a5e:	f1ba 0f00 	cmp.w	sl, #0
     a62:	d102      	bne.n	a6a <kprintf.constprop.0+0x48a>
/home/aom1/Work/Linux/target/STM32MP1-DK2/bootloader/optee-os-custom/lib/libutils/ext/snprintk.c:450
     a64:	f8df a1f0 	ldr.w	sl, [pc, #496]	; c58 <kprintf.constprop.0+0x678>
     a68:	44fa      	add	sl, pc
/home/aom1/Work/Linux/target/STM32MP1-DK2/bootloader/optee-os-custom/lib/libutils/ext/snprintk.c:451
     a6a:	f1b9 3fff 	cmp.w	r9, #4294967295	; 0xffffffff
     a6e:	d00d      	beq.n	a8c <kprintf.constprop.0+0x4ac>
/home/aom1/Work/Linux/target/STM32MP1-DK2/bootloader/optee-os-custom/lib/libutils/ext/snprintk.c:457
     a70:	464a      	mov	r2, r9
     a72:	2100      	movs	r1, #0
     a74:	4650      	mov	r0, sl
     a76:	f006 fa54 	bl	6f22 <memchr>
/home/aom1/Work/Linux/target/STM32MP1-DK2/bootloader/optee-os-custom/lib/libutils/ext/snprintk.c:459
     a7a:	b128      	cbz	r0, a88 <kprintf.constprop.0+0x4a8>
/home/aom1/Work/Linux/target/STM32MP1-DK2/bootloader/optee-os-custom/lib/libutils/ext/snprintk.c:460
     a7c:	eba0 000a 	sub.w	r0, r0, sl
     a80:	4581      	cmp	r9, r0
     a82:	bfa8      	it	ge
     a84:	4681      	movge	r9, r0
/home/aom1/Work/Linux/target/STM32MP1-DK2/bootloader/optee-os-custom/lib/libutils/ext/snprintk.c:291
     a86:	2000      	movs	r0, #0
/home/aom1/Work/Linux/target/STM32MP1-DK2/bootloader/optee-os-custom/lib/libutils/ext/snprintk.c:467
     a88:	4680      	mov	r8, r0
     a8a:	e6da      	b.n	842 <kprintf.constprop.0+0x262>
/home/aom1/Work/Linux/target/STM32MP1-DK2/bootloader/optee-os-custom/lib/libutils/ext/snprintk.c:466
     a8c:	4650      	mov	r0, sl
     a8e:	f006 fa56 	bl	6f3e <strlen>
     a92:	e7c1      	b.n	a18 <kprintf.constprop.0+0x438>
/home/aom1/Work/Linux/target/STM32MP1-DK2/bootloader/optee-os-custom/lib/libutils/ext/snprintk.c:470
     a94:	f044 0410 	orr.w	r4, r4, #16
/home/aom1/Work/Linux/target/STM32MP1-DK2/bootloader/optee-os-custom/lib/libutils/ext/snprintk.c:473
     a98:	f014 0280 	ands.w	r2, r4, #128	; 0x80
     a9c:	d00f      	beq.n	abe <kprintf.constprop.0+0x4de>
     a9e:	3307      	adds	r3, #7
     aa0:	f023 0307 	bic.w	r3, r3, #7
     aa4:	461d      	mov	r5, r3
     aa6:	6859      	ldr	r1, [r3, #4]
     aa8:	f855 0b08 	ldr.w	r0, [r5], #8
/home/aom1/Work/Linux/target/STM32MP1-DK2/bootloader/optee-os-custom/lib/libutils/ext/snprintk.c:488
     aac:	f04f 0800 	mov.w	r8, #0
/home/aom1/Work/Linux/target/STM32MP1-DK2/bootloader/optee-os-custom/lib/libutils/ext/snprintk.c:494
     ab0:	f1b9 3fff 	cmp.w	r9, #4294967295	; 0xffffffff
     ab4:	d165      	bne.n	b82 <kprintf.constprop.0+0x5a2>
     ab6:	f10d 036d 	add.w	r3, sp, #109	; 0x6d
     aba:	9310      	str	r3, [sp, #64]	; 0x40
     abc:	e06d      	b.n	b9a <kprintf.constprop.0+0x5ba>
/home/aom1/Work/Linux/target/STM32MP1-DK2/bootloader/optee-os-custom/lib/libutils/ext/snprintk.c:473
     abe:	f414 7180 	ands.w	r1, r4, #256	; 0x100
     ac2:	d004      	beq.n	ace <kprintf.constprop.0+0x4ee>
     ac4:	461d      	mov	r5, r3
     ac6:	4611      	mov	r1, r2
     ac8:	f855 0b04 	ldr.w	r0, [r5], #4
     acc:	e7ee      	b.n	aac <kprintf.constprop.0+0x4cc>
     ace:	f414 7800 	ands.w	r8, r4, #512	; 0x200
     ad2:	d003      	beq.n	adc <kprintf.constprop.0+0x4fc>
     ad4:	461d      	mov	r5, r3
     ad6:	f855 0b04 	ldr.w	r0, [r5], #4
     ada:	e7e7      	b.n	aac <kprintf.constprop.0+0x4cc>
     adc:	f014 0120 	ands.w	r1, r4, #32
     ae0:	d007      	beq.n	af2 <kprintf.constprop.0+0x512>
     ae2:	3307      	adds	r3, #7
     ae4:	f023 0307 	bic.w	r3, r3, #7
     ae8:	461d      	mov	r5, r3
     aea:	6859      	ldr	r1, [r3, #4]
     aec:	f855 0b08 	ldr.w	r0, [r5], #8
     af0:	e7de      	b.n	ab0 <kprintf.constprop.0+0x4d0>
/home/aom1/Work/Linux/target/STM32MP1-DK2/bootloader/optee-os-custom/lib/libutils/ext/snprintk.c:317
     af2:	461d      	mov	r5, r3
/home/aom1/Work/Linux/target/STM32MP1-DK2/bootloader/optee-os-custom/lib/libutils/ext/snprintk.c:473
     af4:	f014 0310 	ands.w	r3, r4, #16
/home/aom1/Work/Linux/target/STM32MP1-DK2/bootloader/optee-os-custom/lib/libutils/ext/snprintk.c:317
     af8:	f855 0b04 	ldr.w	r0, [r5], #4
/home/aom1/Work/Linux/target/STM32MP1-DK2/bootloader/optee-os-custom/lib/libutils/ext/snprintk.c:473
     afc:	d1d6      	bne.n	aac <kprintf.constprop.0+0x4cc>
     afe:	f014 0140 	ands.w	r1, r4, #64	; 0x40
     b02:	d0d3      	beq.n	aac <kprintf.constprop.0+0x4cc>
     b04:	b280      	uxth	r0, r0
     b06:	4619      	mov	r1, r3
     b08:	e7d0      	b.n	aac <kprintf.constprop.0+0x4cc>
/home/aom1/Work/Linux/target/STM32MP1-DK2/bootloader/optee-os-custom/lib/libutils/ext/snprintk.c:297
     b0a:	4a54      	ldr	r2, [pc, #336]	; (c5c <kprintf.constprop.0+0x67c>)
     b0c:	447a      	add	r2, pc
     b0e:	3211      	adds	r2, #17
/home/aom1/Work/Linux/target/STM32MP1-DK2/bootloader/optee-os-custom/lib/libutils/ext/snprintk.c:480
     b10:	920f      	str	r2, [sp, #60]	; 0x3c
/home/aom1/Work/Linux/target/STM32MP1-DK2/bootloader/optee-os-custom/lib/libutils/ext/snprintk.c:481
     b12:	f014 0280 	ands.w	r2, r4, #128	; 0x80
     b16:	d00a      	beq.n	b2e <kprintf.constprop.0+0x54e>
     b18:	3307      	adds	r3, #7
     b1a:	f023 0307 	bic.w	r3, r3, #7
     b1e:	461d      	mov	r5, r3
     b20:	6859      	ldr	r1, [r3, #4]
     b22:	f855 0b08 	ldr.w	r0, [r5], #8
     b26:	e009      	b.n	b3c <kprintf.constprop.0+0x55c>
/home/aom1/Work/Linux/target/STM32MP1-DK2/bootloader/optee-os-custom/lib/libutils/ext/snprintk.c:480
     b28:	4a4d      	ldr	r2, [pc, #308]	; (c60 <kprintf.constprop.0+0x680>)
     b2a:	447a      	add	r2, pc
     b2c:	e7f0      	b.n	b10 <kprintf.constprop.0+0x530>
/home/aom1/Work/Linux/target/STM32MP1-DK2/bootloader/optee-os-custom/lib/libutils/ext/snprintk.c:481
     b2e:	f414 7180 	ands.w	r1, r4, #256	; 0x100
     b32:	d00f      	beq.n	b54 <kprintf.constprop.0+0x574>
     b34:	461d      	mov	r5, r3
     b36:	4611      	mov	r1, r2
     b38:	f855 0b04 	ldr.w	r0, [r5], #4
/home/aom1/Work/Linux/target/STM32MP1-DK2/bootloader/optee-os-custom/lib/libutils/ext/snprintk.c:484
     b3c:	07e3      	lsls	r3, r4, #31
     b3e:	f57f af75 	bpl.w	a2c <kprintf.constprop.0+0x44c>
     b42:	ea50 0301 	orrs.w	r3, r0, r1
/home/aom1/Work/Linux/target/STM32MP1-DK2/bootloader/optee-os-custom/lib/libutils/ext/snprintk.c:488
     b46:	f04f 0800 	mov.w	r8, #0
/home/aom1/Work/Linux/target/STM32MP1-DK2/bootloader/optee-os-custom/lib/libutils/ext/snprintk.c:485
     b4a:	bf18      	it	ne
     b4c:	f044 0402 	orrne.w	r4, r4, #2
/home/aom1/Work/Linux/target/STM32MP1-DK2/bootloader/optee-os-custom/lib/libutils/ext/snprintk.c:482
     b50:	2302      	movs	r3, #2
     b52:	e64f      	b.n	7f4 <kprintf.constprop.0+0x214>
/home/aom1/Work/Linux/target/STM32MP1-DK2/bootloader/optee-os-custom/lib/libutils/ext/snprintk.c:481
     b54:	05a2      	lsls	r2, r4, #22
     b56:	d503      	bpl.n	b60 <kprintf.constprop.0+0x580>
     b58:	461d      	mov	r5, r3
     b5a:	f855 0b04 	ldr.w	r0, [r5], #4
     b5e:	e7ed      	b.n	b3c <kprintf.constprop.0+0x55c>
     b60:	f014 0120 	ands.w	r1, r4, #32
     b64:	d1d8      	bne.n	b18 <kprintf.constprop.0+0x538>
/home/aom1/Work/Linux/target/STM32MP1-DK2/bootloader/optee-os-custom/lib/libutils/ext/snprintk.c:317
     b66:	461d      	mov	r5, r3
/home/aom1/Work/Linux/target/STM32MP1-DK2/bootloader/optee-os-custom/lib/libutils/ext/snprintk.c:481
     b68:	f014 0310 	ands.w	r3, r4, #16
/home/aom1/Work/Linux/target/STM32MP1-DK2/bootloader/optee-os-custom/lib/libutils/ext/snprintk.c:317
     b6c:	f855 0b04 	ldr.w	r0, [r5], #4
/home/aom1/Work/Linux/target/STM32MP1-DK2/bootloader/optee-os-custom/lib/libutils/ext/snprintk.c:481
     b70:	d1e4      	bne.n	b3c <kprintf.constprop.0+0x55c>
     b72:	f014 0140 	ands.w	r1, r4, #64	; 0x40
     b76:	bf1c      	itt	ne
     b78:	b280      	uxthne	r0, r0
     b7a:	4619      	movne	r1, r3
     b7c:	e7de      	b.n	b3c <kprintf.constprop.0+0x55c>
/home/aom1/Work/Linux/target/STM32MP1-DK2/bootloader/optee-os-custom/lib/libutils/ext/snprintk.c:494
     b7e:	2302      	movs	r3, #2
     b80:	e6ff      	b.n	982 <kprintf.constprop.0+0x3a2>
     b82:	2301      	movs	r3, #1
     b84:	e6fd      	b.n	982 <kprintf.constprop.0+0x3a2>
/home/aom1/Work/Linux/target/STM32MP1-DK2/bootloader/optee-os-custom/lib/libutils/ext/snprintk.c:523
     b86:	220a      	movs	r2, #10
     b88:	2300      	movs	r3, #0
     b8a:	f000 e884 	blx	c94 <__aeabi_uldivmod>
     b8e:	9b10      	ldr	r3, [sp, #64]	; 0x40
     b90:	3230      	adds	r2, #48	; 0x30
/home/aom1/Work/Linux/target/STM32MP1-DK2/bootloader/optee-os-custom/lib/libutils/ext/snprintk.c:524
     b92:	f8cd a040 	str.w	sl, [sp, #64]	; 0x40
/home/aom1/Work/Linux/target/STM32MP1-DK2/bootloader/optee-os-custom/lib/libutils/ext/snprintk.c:523
     b96:	f803 2c01 	strb.w	r2, [r3, #-1]
     b9a:	9b10      	ldr	r3, [sp, #64]	; 0x40
/home/aom1/Work/Linux/target/STM32MP1-DK2/bootloader/optee-os-custom/lib/libutils/ext/snprintk.c:522
     b9c:	280a      	cmp	r0, #10
/home/aom1/Work/Linux/target/STM32MP1-DK2/bootloader/optee-os-custom/lib/libutils/ext/snprintk.c:523
     b9e:	f103 3aff 	add.w	sl, r3, #4294967295	; 0xffffffff
/home/aom1/Work/Linux/target/STM32MP1-DK2/bootloader/optee-os-custom/lib/libutils/ext/snprintk.c:522
     ba2:	f171 0300 	sbcs.w	r3, r1, #0
     ba6:	d2ee      	bcs.n	b86 <kprintf.constprop.0+0x5a6>
/home/aom1/Work/Linux/target/STM32MP1-DK2/bootloader/optee-os-custom/lib/libutils/ext/snprintk.c:526
     ba8:	9b10      	ldr	r3, [sp, #64]	; 0x40
     baa:	3030      	adds	r0, #48	; 0x30
     bac:	f803 0c01 	strb.w	r0, [r3, #-1]
/home/aom1/Work/Linux/target/STM32MP1-DK2/bootloader/optee-os-custom/lib/libutils/ext/snprintk.c:527
     bb0:	e642      	b.n	838 <kprintf.constprop.0+0x258>
/home/aom1/Work/Linux/target/STM32MP1-DK2/bootloader/optee-os-custom/lib/libutils/ext/snprintk.c:547
     bb2:	f1bb 0f00 	cmp.w	fp, #0
     bb6:	f43f ad27 	beq.w	608 <kprintf.constprop.0+0x28>
     bba:	e5a2      	b.n	702 <kprintf.constprop.0+0x122>
/home/aom1/Work/Linux/target/STM32MP1-DK2/bootloader/optee-os-custom/lib/libutils/ext/snprintk.c:574
     bbc:	07a2      	lsls	r2, r4, #30
/home/aom1/Work/Linux/target/STM32MP1-DK2/bootloader/optee-os-custom/lib/libutils/ext/snprintk.c:575
     bbe:	bf48      	it	mi
     bc0:	3302      	addmi	r3, #2
     bc2:	e647      	b.n	854 <kprintf.constprop.0+0x274>
/home/aom1/Work/Linux/target/STM32MP1-DK2/bootloader/optee-os-custom/lib/libutils/ext/snprintk.c:584
     bc4:	b136      	cbz	r6, bd4 <kprintf.constprop.0+0x5f4>
     bc6:	990c      	ldr	r1, [sp, #48]	; 0x30
     bc8:	b111      	cbz	r1, bd0 <kprintf.constprop.0+0x5f0>
     bca:	990e      	ldr	r1, [sp, #56]	; 0x38
     bcc:	42b1      	cmp	r1, r6
     bce:	d901      	bls.n	bd4 <kprintf.constprop.0+0x5f4>
     bd0:	f806 cb01 	strb.w	ip, [r6], #1
     bd4:	3a01      	subs	r2, #1
     bd6:	e64d      	b.n	874 <kprintf.constprop.0+0x294>
/home/aom1/Work/Linux/target/STM32MP1-DK2/bootloader/optee-os-custom/lib/libutils/ext/snprintk.c:590
     bd8:	07a1      	lsls	r1, r4, #30
     bda:	f57f ae5a 	bpl.w	892 <kprintf.constprop.0+0x2b2>
/home/aom1/Work/Linux/target/STM32MP1-DK2/bootloader/optee-os-custom/lib/libutils/ext/snprintk.c:591
     bde:	2e00      	cmp	r6, #0
     be0:	f43f ae57 	beq.w	892 <kprintf.constprop.0+0x2b2>
     be4:	9a0c      	ldr	r2, [sp, #48]	; 0x30
     be6:	b11a      	cbz	r2, bf0 <kprintf.constprop.0+0x610>
     be8:	9a0e      	ldr	r2, [sp, #56]	; 0x38
     bea:	42b2      	cmp	r2, r6
     bec:	f67f ae51 	bls.w	892 <kprintf.constprop.0+0x2b2>
     bf0:	2230      	movs	r2, #48	; 0x30
     bf2:	7032      	strb	r2, [r6, #0]
/home/aom1/Work/Linux/target/STM32MP1-DK2/bootloader/optee-os-custom/lib/libutils/ext/snprintk.c:592
     bf4:	9a0c      	ldr	r2, [sp, #48]	; 0x30
     bf6:	b11a      	cbz	r2, c00 <kprintf.constprop.0+0x620>
     bf8:	990e      	ldr	r1, [sp, #56]	; 0x38
/home/aom1/Work/Linux/target/STM32MP1-DK2/bootloader/optee-os-custom/lib/libutils/ext/snprintk.c:591
     bfa:	1c72      	adds	r2, r6, #1
/home/aom1/Work/Linux/target/STM32MP1-DK2/bootloader/optee-os-custom/lib/libutils/ext/snprintk.c:592
     bfc:	4291      	cmp	r1, r2
     bfe:	d903      	bls.n	c08 <kprintf.constprop.0+0x628>
     c00:	f886 b001 	strb.w	fp, [r6, #1]
     c04:	3602      	adds	r6, #2
     c06:	e644      	b.n	892 <kprintf.constprop.0+0x2b2>
     c08:	4616      	mov	r6, r2
     c0a:	e642      	b.n	892 <kprintf.constprop.0+0x2b2>
/home/aom1/Work/Linux/target/STM32MP1-DK2/bootloader/optee-os-custom/lib/libutils/ext/snprintk.c:599
     c0c:	b136      	cbz	r6, c1c <kprintf.constprop.0+0x63c>
     c0e:	990c      	ldr	r1, [sp, #48]	; 0x30
     c10:	b111      	cbz	r1, c18 <kprintf.constprop.0+0x638>
     c12:	990e      	ldr	r1, [sp, #56]	; 0x38
     c14:	42b1      	cmp	r1, r6
     c16:	d901      	bls.n	c1c <kprintf.constprop.0+0x63c>
     c18:	f806 cb01 	strb.w	ip, [r6], #1
     c1c:	3a01      	subs	r2, #1
     c1e:	e63f      	b.n	8a0 <kprintf.constprop.0+0x2c0>
/home/aom1/Work/Linux/target/STM32MP1-DK2/bootloader/optee-os-custom/lib/libutils/ext/snprintk.c:605
     c20:	b136      	cbz	r6, c30 <kprintf.constprop.0+0x650>
     c22:	990c      	ldr	r1, [sp, #48]	; 0x30
     c24:	b111      	cbz	r1, c2c <kprintf.constprop.0+0x64c>
     c26:	990e      	ldr	r1, [sp, #56]	; 0x38
     c28:	42b1      	cmp	r1, r6
     c2a:	d901      	bls.n	c30 <kprintf.constprop.0+0x650>
     c2c:	f806 2b01 	strb.w	r2, [r6], #1
     c30:	3801      	subs	r0, #1
     c32:	e63b      	b.n	8ac <kprintf.constprop.0+0x2cc>
/home/aom1/Work/Linux/target/STM32MP1-DK2/bootloader/optee-os-custom/lib/libutils/ext/snprintk.c:609
     c34:	b146      	cbz	r6, c48 <kprintf.constprop.0+0x668>
     c36:	9a0c      	ldr	r2, [sp, #48]	; 0x30
     c38:	b112      	cbz	r2, c40 <kprintf.constprop.0+0x660>
     c3a:	9a0e      	ldr	r2, [sp, #56]	; 0x38
     c3c:	42b2      	cmp	r2, r6
     c3e:	d903      	bls.n	c48 <kprintf.constprop.0+0x668>
     c40:	f89a 2000 	ldrb.w	r2, [sl]
     c44:	f806 2b01 	strb.w	r2, [r6], #1
/home/aom1/Work/Linux/target/STM32MP1-DK2/bootloader/optee-os-custom/lib/libutils/ext/snprintk.c:608
     c48:	f10a 0a01 	add.w	sl, sl, #1
     c4c:	e632      	b.n	8b4 <kprintf.constprop.0+0x2d4>
     c4e:	bf00      	nop
     c50:	00006c5d 	.word	0x00006c5d
     c54:	00006c52 	.word	0x00006c52
     c58:	00006bda 	.word	0x00006bda
     c5c:	00006b6e 	.word	0x00006b6e
     c60:	00006b50 	.word	0x00006b50

00000c64 <__vsprintf>:
__vsprintf():
/home/aom1/Work/Linux/target/STM32MP1-DK2/bootloader/optee-os-custom/lib/libutils/ext/snprintk.c:155
     c64:	b513      	push	{r0, r1, r4, lr}
     c66:	4604      	mov	r4, r0
     c68:	4608      	mov	r0, r1
/home/aom1/Work/Linux/target/STM32MP1-DK2/bootloader/optee-os-custom/lib/libutils/ext/snprintk.c:156
     c6a:	2100      	movs	r1, #0
     c6c:	9100      	str	r1, [sp, #0]
/home/aom1/Work/Linux/target/STM32MP1-DK2/bootloader/optee-os-custom/lib/libutils/ext/snprintk.c:155
     c6e:	4613      	mov	r3, r2
/home/aom1/Work/Linux/target/STM32MP1-DK2/bootloader/optee-os-custom/lib/libutils/ext/snprintk.c:156
     c70:	4622      	mov	r2, r4
     c72:	f7ff fcb5 	bl	5e0 <kprintf.constprop.0>
/home/aom1/Work/Linux/target/STM32MP1-DK2/bootloader/optee-os-custom/lib/libutils/ext/snprintk.c:157
     c76:	b002      	add	sp, #8
     c78:	bd10      	pop	{r4, pc}
     c7a:	bf00      	nop

00000c7c <__aeabi_ldivmod>:
__aeabi_ldivmod():
/home/aom1/Work/Linux/target/STM32MP1-DK2/bootloader/optee-os-custom/lib/libutils/isoc/arch/arm/arm32_aeabi_ldivmod_a32.S:12
     c7c:	e92d5000 	push	{ip, lr}
/home/aom1/Work/Linux/target/STM32MP1-DK2/bootloader/optee-os-custom/lib/libutils/isoc/arch/arm/arm32_aeabi_ldivmod_a32.S:14
     c80:	e92d000f 	push	{r0, r1, r2, r3}
/home/aom1/Work/Linux/target/STM32MP1-DK2/bootloader/optee-os-custom/lib/libutils/isoc/arch/arm/arm32_aeabi_ldivmod_a32.S:16
     c84:	e1a0000d 	mov	r0, sp
/home/aom1/Work/Linux/target/STM32MP1-DK2/bootloader/optee-os-custom/lib/libutils/isoc/arch/arm/arm32_aeabi_ldivmod_a32.S:17
     c88:	fb0018e0 	blx	7012 <__l_divmod>
/home/aom1/Work/Linux/target/STM32MP1-DK2/bootloader/optee-os-custom/lib/libutils/isoc/arch/arm/arm32_aeabi_ldivmod_a32.S:18
     c8c:	e8bd000f 	pop	{r0, r1, r2, r3}
/home/aom1/Work/Linux/target/STM32MP1-DK2/bootloader/optee-os-custom/lib/libutils/isoc/arch/arm/arm32_aeabi_ldivmod_a32.S:19
     c90:	e8bd9000 	pop	{ip, pc}

00000c94 <__aeabi_uldivmod>:
__aeabi_uldivmod():
/home/aom1/Work/Linux/target/STM32MP1-DK2/bootloader/optee-os-custom/lib/libutils/isoc/arch/arm/arm32_aeabi_ldivmod_a32.S:27
     c94:	e92d5000 	push	{ip, lr}
/home/aom1/Work/Linux/target/STM32MP1-DK2/bootloader/optee-os-custom/lib/libutils/isoc/arch/arm/arm32_aeabi_ldivmod_a32.S:29
     c98:	e92d000f 	push	{r0, r1, r2, r3}
/home/aom1/Work/Linux/target/STM32MP1-DK2/bootloader/optee-os-custom/lib/libutils/isoc/arch/arm/arm32_aeabi_ldivmod_a32.S:31
     c9c:	e1a0000d 	mov	r0, sp
/home/aom1/Work/Linux/target/STM32MP1-DK2/bootloader/optee-os-custom/lib/libutils/isoc/arch/arm/arm32_aeabi_ldivmod_a32.S:32
     ca0:	fa0018cc 	blx	6fd8 <__ul_divmod>
/home/aom1/Work/Linux/target/STM32MP1-DK2/bootloader/optee-os-custom/lib/libutils/isoc/arch/arm/arm32_aeabi_ldivmod_a32.S:33
     ca4:	e8bd000f 	pop	{r0, r1, r2, r3}
/home/aom1/Work/Linux/target/STM32MP1-DK2/bootloader/optee-os-custom/lib/libutils/isoc/arch/arm/arm32_aeabi_ldivmod_a32.S:34
     ca8:	e8bd9000 	pop	{ip, pc}

00000cac <trace_ext_puts>:
trace_ext_puts():
/home/aom1/Work/Linux/target/STM32MP1-DK2/bootloader/optee-os-custom/lib/libutee/trace_ext.c:22
     cac:	b510      	push	{r4, lr}
     cae:	4604      	mov	r4, r0
/home/aom1/Work/Linux/target/STM32MP1-DK2/bootloader/optee-os-custom/lib/libutee/trace_ext.c:26
     cb0:	f006 f945 	bl	6f3e <strlen>
     cb4:	4601      	mov	r1, r0
     cb6:	4620      	mov	r0, r4
/home/aom1/Work/Linux/target/STM32MP1-DK2/bootloader/optee-os-custom/lib/libutee/trace_ext.c:28
     cb8:	e8bd 4010 	ldmia.w	sp!, {r4, lr}
/home/aom1/Work/Linux/target/STM32MP1-DK2/bootloader/optee-os-custom/lib/libutee/trace_ext.c:26
     cbc:	f006 ba48 	b.w	7150 <___utee_log_from_thumb>

00000cc0 <trace_ext_get_thread_id>:
trace_ext_get_thread_id():
/home/aom1/Work/Linux/target/STM32MP1-DK2/bootloader/optee-os-custom/lib/libutee/trace_ext.c:33
     cc0:	f04f 30ff 	mov.w	r0, #4294967295	; 0xffffffff
     cc4:	4770      	bx	lr

00000cc6 <printf>:
printf():
/home/aom1/Work/Linux/target/STM32MP1-DK2/bootloader/optee-os-custom/lib/libutee/trace_ext.c:41
     cc6:	b40f      	push	{r0, r1, r2, r3}
     cc8:	b530      	push	{r4, r5, lr}
     cca:	b0c3      	sub	sp, #268	; 0x10c
/home/aom1/Work/Linux/target/STM32MP1-DK2/bootloader/optee-os-custom/lib/libutee/trace_ext.c:46
     ccc:	f7ff fba8 	bl	420 <trace_get_level>
     cd0:	2800      	cmp	r0, #0
     cd2:	dd13      	ble.n	cfc <printf+0x36>
/home/aom1/Work/Linux/target/STM32MP1-DK2/bootloader/optee-os-custom/lib/libutee/trace_ext.c:50
     cd4:	9a46      	ldr	r2, [sp, #280]	; 0x118
     cd6:	ad02      	add	r5, sp, #8
/home/aom1/Work/Linux/target/STM32MP1-DK2/bootloader/optee-os-custom/lib/libutee/trace_ext.c:49
     cd8:	ab47      	add	r3, sp, #284	; 0x11c
/home/aom1/Work/Linux/target/STM32MP1-DK2/bootloader/optee-os-custom/lib/libutee/trace_ext.c:50
     cda:	f44f 7180 	mov.w	r1, #256	; 0x100
/home/aom1/Work/Linux/target/STM32MP1-DK2/bootloader/optee-os-custom/lib/libutee/trace_ext.c:49
     cde:	9301      	str	r3, [sp, #4]
/home/aom1/Work/Linux/target/STM32MP1-DK2/bootloader/optee-os-custom/lib/libutee/trace_ext.c:50
     ce0:	4628      	mov	r0, r5
     ce2:	f006 f9de 	bl	70a2 <vsnprintf>
/home/aom1/Work/Linux/target/STM32MP1-DK2/bootloader/optee-os-custom/lib/libutee/trace_ext.c:53
     ce6:	1e04      	subs	r4, r0, #0
     ce8:	db02      	blt.n	cf0 <printf+0x2a>
/home/aom1/Work/Linux/target/STM32MP1-DK2/bootloader/optee-os-custom/lib/libutee/trace_ext.c:56
     cea:	4628      	mov	r0, r5
     cec:	f7ff ffde 	bl	cac <trace_ext_puts>
/home/aom1/Work/Linux/target/STM32MP1-DK2/bootloader/optee-os-custom/lib/libutee/trace_ext.c:59
     cf0:	4620      	mov	r0, r4
     cf2:	b043      	add	sp, #268	; 0x10c
     cf4:	e8bd 4030 	ldmia.w	sp!, {r4, r5, lr}
     cf8:	b004      	add	sp, #16
     cfa:	4770      	bx	lr
/home/aom1/Work/Linux/target/STM32MP1-DK2/bootloader/optee-os-custom/lib/libutee/trace_ext.c:47
     cfc:	2400      	movs	r4, #0
     cfe:	e7f7      	b.n	cf0 <printf+0x2a>

00000d00 <puts>:
puts():
/home/aom1/Work/Linux/target/STM32MP1-DK2/bootloader/optee-os-custom/lib/libutee/trace_ext.c:62
     d00:	b510      	push	{r4, lr}
     d02:	4604      	mov	r4, r0
/home/aom1/Work/Linux/target/STM32MP1-DK2/bootloader/optee-os-custom/lib/libutee/trace_ext.c:63
     d04:	f7ff fb8c 	bl	420 <trace_get_level>
     d08:	2800      	cmp	r0, #0
     d0a:	dd06      	ble.n	d1a <puts+0x1a>
/home/aom1/Work/Linux/target/STM32MP1-DK2/bootloader/optee-os-custom/lib/libutee/trace_ext.c:64
     d0c:	4620      	mov	r0, r4
     d0e:	f7ff ffcd 	bl	cac <trace_ext_puts>
/home/aom1/Work/Linux/target/STM32MP1-DK2/bootloader/optee-os-custom/lib/libutee/trace_ext.c:65
     d12:	4803      	ldr	r0, [pc, #12]	; (d20 <puts+0x20>)
     d14:	4478      	add	r0, pc
     d16:	f7ff ffc9 	bl	cac <trace_ext_puts>
/home/aom1/Work/Linux/target/STM32MP1-DK2/bootloader/optee-os-custom/lib/libutee/trace_ext.c:68
     d1a:	2001      	movs	r0, #1
     d1c:	bd10      	pop	{r4, pc}
     d1e:	bf00      	nop
     d20:	00007154 	.word	0x00007154

00000d24 <putchar>:
putchar():
/home/aom1/Work/Linux/target/STM32MP1-DK2/bootloader/optee-os-custom/lib/libutee/trace_ext.c:71
     d24:	b513      	push	{r0, r1, r4, lr}
/home/aom1/Work/Linux/target/STM32MP1-DK2/bootloader/optee-os-custom/lib/libutee/trace_ext.c:72
     d26:	2300      	movs	r3, #0
     d28:	f88d 0004 	strb.w	r0, [sp, #4]
/home/aom1/Work/Linux/target/STM32MP1-DK2/bootloader/optee-os-custom/lib/libutee/trace_ext.c:71
     d2c:	4604      	mov	r4, r0
/home/aom1/Work/Linux/target/STM32MP1-DK2/bootloader/optee-os-custom/lib/libutee/trace_ext.c:72
     d2e:	f88d 3005 	strb.w	r3, [sp, #5]
/home/aom1/Work/Linux/target/STM32MP1-DK2/bootloader/optee-os-custom/lib/libutee/trace_ext.c:74
     d32:	f7ff fb75 	bl	420 <trace_get_level>
     d36:	2800      	cmp	r0, #0
     d38:	dd02      	ble.n	d40 <putchar+0x1c>
/home/aom1/Work/Linux/target/STM32MP1-DK2/bootloader/optee-os-custom/lib/libutee/trace_ext.c:75
     d3a:	a801      	add	r0, sp, #4
     d3c:	f7ff ffb6 	bl	cac <trace_ext_puts>
/home/aom1/Work/Linux/target/STM32MP1-DK2/bootloader/optee-os-custom/lib/libutee/trace_ext.c:82
     d40:	b2e0      	uxtb	r0, r4
     d42:	b002      	add	sp, #8
     d44:	bd10      	pop	{r4, pc}
     d46:	bf00      	nop

00000d48 <update_out_param>:
update_out_param():
/home/aom1/Work/Linux/target/STM32MP1-DK2/bootloader/optee-os-custom/lib/libutee/tee_api.c:121
     d48:	e92d 47f0 	stmdb	sp!, {r4, r5, r6, r7, r8, r9, sl, lr}
     d4c:	4607      	mov	r7, r0
/home/aom1/Work/Linux/target/STM32MP1-DK2/bootloader/optee-os-custom/lib/libutee/tee_api.c:123
     d4e:	f8d2 a000 	ldr.w	sl, [r2]
/home/aom1/Work/Linux/target/STM32MP1-DK2/bootloader/optee-os-custom/lib/libutee/tee_api.c:121
     d52:	4688      	mov	r8, r1
     d54:	4614      	mov	r4, r2
     d56:	4606      	mov	r6, r0
/home/aom1/Work/Linux/target/STM32MP1-DK2/bootloader/optee-os-custom/lib/libutee/tee_api.c:123
     d58:	2500      	movs	r5, #0
/home/aom1/Work/Linux/target/STM32MP1-DK2/bootloader/optee-os-custom/lib/libutee/tee_api.c:129
     d5a:	fa2a f205 	lsr.w	r2, sl, r5
/home/aom1/Work/Linux/target/STM32MP1-DK2/bootloader/optee-os-custom/lib/libutee/tee_api.c:126
     d5e:	68a1      	ldr	r1, [r4, #8]
/home/aom1/Work/Linux/target/STM32MP1-DK2/bootloader/optee-os-custom/lib/libutee/tee_api.c:129
     d60:	f012 0f0c 	tst.w	r2, #12
/home/aom1/Work/Linux/target/STM32MP1-DK2/bootloader/optee-os-custom/lib/libutee/tee_api.c:127
     d64:	f8d4 9010 	ldr.w	r9, [r4, #16]
/home/aom1/Work/Linux/target/STM32MP1-DK2/bootloader/optee-os-custom/lib/libutee/tee_api.c:129
     d68:	f002 030f 	and.w	r3, r2, #15
     d6c:	d107      	bne.n	d7e <update_out_param+0x36>
     d6e:	f012 0f0e 	tst.w	r2, #14
     d72:	d007      	beq.n	d84 <update_out_param+0x3c>
/home/aom1/Work/Linux/target/STM32MP1-DK2/bootloader/optee-os-custom/lib/libutee/tee_api.c:126
     d74:	f847 1015 	str.w	r1, [r7, r5, lsl #1]
/home/aom1/Work/Linux/target/STM32MP1-DK2/bootloader/optee-os-custom/lib/libutee/tee_api.c:140
     d78:	f8c6 9004 	str.w	r9, [r6, #4]
/home/aom1/Work/Linux/target/STM32MP1-DK2/bootloader/optee-os-custom/lib/libutee/tee_api.c:141
     d7c:	e002      	b.n	d84 <update_out_param+0x3c>
/home/aom1/Work/Linux/target/STM32MP1-DK2/bootloader/optee-os-custom/lib/libutee/tee_api.c:129
     d7e:	3b06      	subs	r3, #6
     d80:	2b01      	cmp	r3, #1
     d82:	d907      	bls.n	d94 <update_out_param+0x4c>
/home/aom1/Work/Linux/target/STM32MP1-DK2/bootloader/optee-os-custom/lib/libutee/tee_api.c:125 (discriminator 2)
     d84:	3504      	adds	r5, #4
     d86:	3410      	adds	r4, #16
     d88:	2d10      	cmp	r5, #16
     d8a:	f106 0608 	add.w	r6, r6, #8
     d8e:	d1e4      	bne.n	d5a <update_out_param+0x12>
/home/aom1/Work/Linux/target/STM32MP1-DK2/bootloader/optee-os-custom/lib/libutee/tee_api.c:146
     d90:	e8bd 87f0 	ldmia.w	sp!, {r4, r5, r6, r7, r8, r9, sl, pc}
/home/aom1/Work/Linux/target/STM32MP1-DK2/bootloader/optee-os-custom/lib/libutee/tee_api.c:137
     d94:	f858 1005 	ldr.w	r1, [r8, r5]
     d98:	2900      	cmp	r1, #0
     d9a:	d0ed      	beq.n	d78 <update_out_param+0x30>
/home/aom1/Work/Linux/target/STM32MP1-DK2/bootloader/optee-os-custom/lib/libutee/tee_api.c:139
     d9c:	6872      	ldr	r2, [r6, #4]
/home/aom1/Work/Linux/target/STM32MP1-DK2/bootloader/optee-os-custom/lib/libutee/tee_api.c:138
     d9e:	f857 0015 	ldr.w	r0, [r7, r5, lsl #1]
     da2:	454a      	cmp	r2, r9
     da4:	bf28      	it	cs
     da6:	464a      	movcs	r2, r9
     da8:	f005 ffc8 	bl	6d3c <memcpy>
     dac:	e7e4      	b.n	d78 <update_out_param+0x30>

00000dae <TEE_CloseTASession>:
TEE_CloseTASession():
/home/aom1/Work/Linux/target/STM32MP1-DK2/bootloader/optee-os-custom/lib/libutee/tee_api.c:195
     dae:	b508      	push	{r3, lr}
/home/aom1/Work/Linux/target/STM32MP1-DK2/bootloader/optee-os-custom/lib/libutee/tee_api.c:196
     db0:	b130      	cbz	r0, dc0 <TEE_CloseTASession+0x12>
/home/aom1/Work/Linux/target/STM32MP1-DK2/bootloader/optee-os-custom/lib/libutee/tee_api.c:197
     db2:	f000 ef76 	blx	1ca0 <_utee_close_ta_session>
/home/aom1/Work/Linux/target/STM32MP1-DK2/bootloader/optee-os-custom/lib/libutee/tee_api.c:199
     db6:	b118      	cbz	r0, dc0 <TEE_CloseTASession+0x12>
/home/aom1/Work/Linux/target/STM32MP1-DK2/bootloader/optee-os-custom/lib/libutee/tee_api.c:202
     db8:	e8bd 4008 	ldmia.w	sp!, {r3, lr}
/home/aom1/Work/Linux/target/STM32MP1-DK2/bootloader/optee-os-custom/lib/libutee/tee_api.c:200
     dbc:	f000 be1c 	b.w	19f8 <TEE_Panic>
/home/aom1/Work/Linux/target/STM32MP1-DK2/bootloader/optee-os-custom/lib/libutee/tee_api.c:202
     dc0:	bd08      	pop	{r3, pc}

00000dc2 <TEE_GetCancellationFlag>:
TEE_GetCancellationFlag():
/home/aom1/Work/Linux/target/STM32MP1-DK2/bootloader/optee-os-custom/lib/libutee/tee_api.c:257
     dc2:	b507      	push	{r0, r1, r2, lr}
/home/aom1/Work/Linux/target/STM32MP1-DK2/bootloader/optee-os-custom/lib/libutee/tee_api.c:259
     dc4:	a801      	add	r0, sp, #4
     dc6:	f000 ef82 	blx	1ccc <_utee_get_cancellation_flag>
/home/aom1/Work/Linux/target/STM32MP1-DK2/bootloader/optee-os-custom/lib/libutee/tee_api.c:261
     dca:	b108      	cbz	r0, dd0 <TEE_GetCancellationFlag+0xe>
/home/aom1/Work/Linux/target/STM32MP1-DK2/bootloader/optee-os-custom/lib/libutee/tee_api.c:262
     dcc:	2300      	movs	r3, #0
     dce:	9301      	str	r3, [sp, #4]
/home/aom1/Work/Linux/target/STM32MP1-DK2/bootloader/optee-os-custom/lib/libutee/tee_api.c:264
     dd0:	9801      	ldr	r0, [sp, #4]
     dd2:	3800      	subs	r0, #0
     dd4:	bf18      	it	ne
     dd6:	2001      	movne	r0, #1
     dd8:	b003      	add	sp, #12
     dda:	f85d fb04 	ldr.w	pc, [sp], #4

00000dde <TEE_UnmaskCancellation>:
TEE_UnmaskCancellation():
/home/aom1/Work/Linux/target/STM32MP1-DK2/bootloader/optee-os-custom/lib/libutee/tee_api.c:267
     dde:	b507      	push	{r0, r1, r2, lr}
/home/aom1/Work/Linux/target/STM32MP1-DK2/bootloader/optee-os-custom/lib/libutee/tee_api.c:269
     de0:	a801      	add	r0, sp, #4
     de2:	f000 ef88 	blx	1cf4 <_utee_unmask_cancellation>
/home/aom1/Work/Linux/target/STM32MP1-DK2/bootloader/optee-os-custom/lib/libutee/tee_api.c:271
     de6:	b108      	cbz	r0, dec <TEE_UnmaskCancellation+0xe>
/home/aom1/Work/Linux/target/STM32MP1-DK2/bootloader/optee-os-custom/lib/libutee/tee_api.c:272
     de8:	f000 fe06 	bl	19f8 <TEE_Panic>
/home/aom1/Work/Linux/target/STM32MP1-DK2/bootloader/optee-os-custom/lib/libutee/tee_api.c:274
     dec:	9801      	ldr	r0, [sp, #4]
     dee:	3800      	subs	r0, #0
     df0:	bf18      	it	ne
     df2:	2001      	movne	r0, #1
     df4:	b003      	add	sp, #12
     df6:	f85d fb04 	ldr.w	pc, [sp], #4

00000dfa <TEE_MaskCancellation>:
TEE_MaskCancellation():
/home/aom1/Work/Linux/target/STM32MP1-DK2/bootloader/optee-os-custom/lib/libutee/tee_api.c:277
     dfa:	b507      	push	{r0, r1, r2, lr}
/home/aom1/Work/Linux/target/STM32MP1-DK2/bootloader/optee-os-custom/lib/libutee/tee_api.c:279
     dfc:	a801      	add	r0, sp, #4
     dfe:	f000 ef84 	blx	1d08 <_utee_mask_cancellation>
/home/aom1/Work/Linux/target/STM32MP1-DK2/bootloader/optee-os-custom/lib/libutee/tee_api.c:281
     e02:	b108      	cbz	r0, e08 <TEE_MaskCancellation+0xe>
/home/aom1/Work/Linux/target/STM32MP1-DK2/bootloader/optee-os-custom/lib/libutee/tee_api.c:282
     e04:	f000 fdf8 	bl	19f8 <TEE_Panic>
/home/aom1/Work/Linux/target/STM32MP1-DK2/bootloader/optee-os-custom/lib/libutee/tee_api.c:284
     e08:	9801      	ldr	r0, [sp, #4]
     e0a:	3800      	subs	r0, #0
     e0c:	bf18      	it	ne
     e0e:	2001      	movne	r0, #1
     e10:	b003      	add	sp, #12
     e12:	f85d fb04 	ldr.w	pc, [sp], #4

00000e16 <TEE_CheckMemoryAccessRights>:
TEE_CheckMemoryAccessRights():
/home/aom1/Work/Linux/target/STM32MP1-DK2/bootloader/optee-os-custom/lib/libutee/tee_api.c:293
     e16:	b10a      	cbz	r2, e1c <TEE_CheckMemoryAccessRights+0x6>
/home/aom1/Work/Linux/target/STM32MP1-DK2/bootloader/optee-os-custom/lib/libutee/tee_api.c:297
     e18:	f006 b9a2 	b.w	7160 <___utee_check_access_rights_from_thumb>
/home/aom1/Work/Linux/target/STM32MP1-DK2/bootloader/optee-os-custom/lib/libutee/tee_api.c:309
     e1c:	4610      	mov	r0, r2
     e1e:	4770      	bx	lr

00000e20 <copy_param>:
copy_param():
/home/aom1/Work/Linux/target/STM32MP1-DK2/bootloader/optee-os-custom/lib/libutee/tee_api.c:29
     e20:	e92d 4ff0 	stmdb	sp!, {r4, r5, r6, r7, r8, r9, sl, fp, lr}
/home/aom1/Work/Linux/target/STM32MP1-DK2/bootloader/optee-os-custom/lib/libutee/tee_api.c:34
     e24:	2500      	movs	r5, #0
/home/aom1/Work/Linux/target/STM32MP1-DK2/bootloader/optee-os-custom/lib/libutee/tee_api.c:29
     e26:	ed2d 8b02 	vpush	{d8}
/home/aom1/Work/Linux/target/STM32MP1-DK2/bootloader/optee-os-custom/lib/libutee/tee_api.c:45
     e2a:	601d      	str	r5, [r3, #0]
/home/aom1/Work/Linux/target/STM32MP1-DK2/bootloader/optee-os-custom/lib/libutee/tee_api.c:29
     e2c:	b085      	sub	sp, #20
     e2e:	4699      	mov	r9, r3
     e30:	4604      	mov	r4, r0
/home/aom1/Work/Linux/target/STM32MP1-DK2/bootloader/optee-os-custom/lib/libutee/tee_api.c:46
     e32:	9b10      	ldr	r3, [sp, #64]	; 0x40
/home/aom1/Work/Linux/target/STM32MP1-DK2/bootloader/optee-os-custom/lib/libutee/tee_api.c:29
     e34:	4688      	mov	r8, r1
/home/aom1/Work/Linux/target/STM32MP1-DK2/bootloader/optee-os-custom/lib/libutee/tee_api.c:34
     e36:	9503      	str	r5, [sp, #12]
/home/aom1/Work/Linux/target/STM32MP1-DK2/bootloader/optee-os-custom/lib/libutee/tee_api.c:29
     e38:	4617      	mov	r7, r2
/home/aom1/Work/Linux/target/STM32MP1-DK2/bootloader/optee-os-custom/lib/libutee/tee_api.c:46
     e3a:	601d      	str	r5, [r3, #0]
/home/aom1/Work/Linux/target/STM32MP1-DK2/bootloader/optee-os-custom/lib/libutee/tee_api.c:47
     e3c:	462e      	mov	r6, r5
/home/aom1/Work/Linux/target/STM32MP1-DK2/bootloader/optee-os-custom/lib/libutee/tee_api.c:48
     e3e:	462b      	mov	r3, r5
/home/aom1/Work/Linux/target/STM32MP1-DK2/bootloader/optee-os-custom/lib/libutee/tee_api.c:54
     e40:	f102 0b04 	add.w	fp, r2, #4
/home/aom1/Work/Linux/target/STM32MP1-DK2/bootloader/optee-os-custom/lib/libutee/tee_api.c:65
     e44:	f04f 0a01 	mov.w	sl, #1
/home/aom1/Work/Linux/target/STM32MP1-DK2/bootloader/optee-os-custom/lib/libutee/tee_api.c:48
     e48:	9a11      	ldr	r2, [sp, #68]	; 0x44
     e4a:	f842 3026 	str.w	r3, [r2, r6, lsl #2]
/home/aom1/Work/Linux/target/STM32MP1-DK2/bootloader/optee-os-custom/lib/libutee/tee_api.c:49
     e4e:	00b2      	lsls	r2, r6, #2
     e50:	fa28 f202 	lsr.w	r2, r8, r2
     e54:	f002 020f 	and.w	r2, r2, #15
     e58:	3a05      	subs	r2, #5
     e5a:	2a02      	cmp	r2, #2
     e5c:	d813      	bhi.n	e86 <copy_param+0x66>
/home/aom1/Work/Linux/target/STM32MP1-DK2/bootloader/optee-os-custom/lib/libutee/tee_api.c:53
     e5e:	f857 1036 	ldr.w	r1, [r7, r6, lsl #3]
/home/aom1/Work/Linux/target/STM32MP1-DK2/bootloader/optee-os-custom/lib/libutee/tee_api.c:64
     e62:	b181      	cbz	r1, e86 <copy_param+0x66>
/home/aom1/Work/Linux/target/STM32MP1-DK2/bootloader/optee-os-custom/lib/libutee/tee_api.c:54 (discriminator 1)
     e64:	f85b 2036 	ldr.w	r2, [fp, r6, lsl #3]
/home/aom1/Work/Linux/target/STM32MP1-DK2/bootloader/optee-os-custom/lib/libutee/tee_api.c:64 (discriminator 1)
     e68:	b16a      	cbz	r2, e86 <copy_param+0x66>
/home/aom1/Work/Linux/target/STM32MP1-DK2/bootloader/optee-os-custom/lib/libutee/tee_api.c:65 (discriminator 2)
     e6a:	9201      	str	r2, [sp, #4]
     e6c:	2001      	movs	r0, #1
     e6e:	f7ff ffd2 	bl	e16 <TEE_CheckMemoryAccessRights>
/home/aom1/Work/Linux/target/STM32MP1-DK2/bootloader/optee-os-custom/lib/libutee/tee_api.c:64 (discriminator 2)
     e72:	2300      	movs	r3, #0
     e74:	b938      	cbnz	r0, e86 <copy_param+0x66>
/home/aom1/Work/Linux/target/STM32MP1-DK2/bootloader/optee-os-custom/lib/libutee/tee_api.c:67
     e76:	9a01      	ldr	r2, [sp, #4]
/home/aom1/Work/Linux/target/STM32MP1-DK2/bootloader/optee-os-custom/lib/libutee/tee_api.c:66
     e78:	a903      	add	r1, sp, #12
     e7a:	f806 a001 	strb.w	sl, [r6, r1]
/home/aom1/Work/Linux/target/STM32MP1-DK2/bootloader/optee-os-custom/lib/libutee/tee_api.c:67
     e7e:	3207      	adds	r2, #7
     e80:	f022 0207 	bic.w	r2, r2, #7
     e84:	4415      	add	r5, r2
/home/aom1/Work/Linux/target/STM32MP1-DK2/bootloader/optee-os-custom/lib/libutee/tee_api.c:47 (discriminator 2)
     e86:	3601      	adds	r6, #1
     e88:	2e04      	cmp	r6, #4
     e8a:	d1dd      	bne.n	e48 <copy_param+0x28>
/home/aom1/Work/Linux/target/STM32MP1-DK2/bootloader/optee-os-custom/lib/libutee/tee_api.c:75
     e8c:	b315      	cbz	r5, ed4 <copy_param+0xb4>
/home/aom1/Work/Linux/target/STM32MP1-DK2/bootloader/optee-os-custom/lib/libutee/tee_api.c:76
     e8e:	4631      	mov	r1, r6
     e90:	4628      	mov	r0, r5
     e92:	f000 fe35 	bl	1b00 <tee_map_zi>
/home/aom1/Work/Linux/target/STM32MP1-DK2/bootloader/optee-os-custom/lib/libutee/tee_api.c:77
     e96:	4603      	mov	r3, r0
     e98:	2800      	cmp	r0, #0
     e9a:	d053      	beq.n	f44 <copy_param+0x124>
/home/aom1/Work/Linux/target/STM32MP1-DK2/bootloader/optee-os-custom/lib/libutee/tee_api.c:80
     e9c:	9a10      	ldr	r2, [sp, #64]	; 0x40
/home/aom1/Work/Linux/target/STM32MP1-DK2/bootloader/optee-os-custom/lib/libutee/tee_api.c:79
     e9e:	f8c9 0000 	str.w	r0, [r9]
/home/aom1/Work/Linux/target/STM32MP1-DK2/bootloader/optee-os-custom/lib/libutee/tee_api.c:80
     ea2:	6015      	str	r5, [r2, #0]
/home/aom1/Work/Linux/target/STM32MP1-DK2/bootloader/optee-os-custom/lib/libutee/tee_api.c:109
     ea4:	ef80 8010 	vmov.i32	d8, #0	; 0x00000000
/home/aom1/Work/Linux/target/STM32MP1-DK2/bootloader/optee-os-custom/lib/libutee/tee_api.c:83
     ea8:	2500      	movs	r5, #0
     eaa:	46b9      	mov	r9, r7
/home/aom1/Work/Linux/target/STM32MP1-DK2/bootloader/optee-os-custom/lib/libutee/tee_api.c:88
     eac:	46aa      	mov	sl, r5
/home/aom1/Work/Linux/target/STM32MP1-DK2/bootloader/optee-os-custom/lib/libutee/tee_api.c:89
     eae:	46ab      	mov	fp, r5
/home/aom1/Work/Linux/target/STM32MP1-DK2/bootloader/optee-os-custom/lib/libutee/tee_api.c:83
     eb0:	e9c4 8500 	strd	r8, r5, [r4]
/home/aom1/Work/Linux/target/STM32MP1-DK2/bootloader/optee-os-custom/lib/libutee/tee_api.c:85
     eb4:	00aa      	lsls	r2, r5, #2
     eb6:	fa28 f202 	lsr.w	r2, r8, r2
     eba:	f002 010f 	and.w	r1, r2, #15
     ebe:	2903      	cmp	r1, #3
     ec0:	d027      	beq.n	f12 <copy_param+0xf2>
     ec2:	f012 0f0c 	tst.w	r2, #12
     ec6:	d107      	bne.n	ed8 <copy_param+0xb8>
     ec8:	2901      	cmp	r1, #1
     eca:	d022      	beq.n	f12 <copy_param+0xf2>
/home/aom1/Work/Linux/target/STM32MP1-DK2/bootloader/optee-os-custom/lib/libutee/tee_api.c:111
     ecc:	2200      	movs	r2, #0
/home/aom1/Work/Linux/target/STM32MP1-DK2/bootloader/optee-os-custom/lib/libutee/tee_api.c:109
     ece:	ed84 8b02 	vstr	d8, [r4, #8]
/home/aom1/Work/Linux/target/STM32MP1-DK2/bootloader/optee-os-custom/lib/libutee/tee_api.c:111
     ed2:	e024      	b.n	f1e <copy_param+0xfe>
/home/aom1/Work/Linux/target/STM32MP1-DK2/bootloader/optee-os-custom/lib/libutee/tee_api.c:31
     ed4:	462b      	mov	r3, r5
     ed6:	e7e5      	b.n	ea4 <copy_param+0x84>
/home/aom1/Work/Linux/target/STM32MP1-DK2/bootloader/optee-os-custom/lib/libutee/tee_api.c:85
     ed8:	1f4a      	subs	r2, r1, #5
     eda:	2a02      	cmp	r2, #2
     edc:	d8f6      	bhi.n	ecc <copy_param+0xac>
/home/aom1/Work/Linux/target/STM32MP1-DK2/bootloader/optee-os-custom/lib/libutee/tee_api.c:94
     ede:	f8d9 2004 	ldr.w	r2, [r9, #4]
/home/aom1/Work/Linux/target/STM32MP1-DK2/bootloader/optee-os-custom/lib/libutee/tee_api.c:95
     ee2:	a803      	add	r0, sp, #12
     ee4:	5c28      	ldrb	r0, [r5, r0]
     ee6:	b348      	cbz	r0, f3c <copy_param+0x11c>
/home/aom1/Work/Linux/target/STM32MP1-DK2/bootloader/optee-os-custom/lib/libutee/tee_api.c:97
     ee8:	9811      	ldr	r0, [sp, #68]	; 0x44
/home/aom1/Work/Linux/target/STM32MP1-DK2/bootloader/optee-os-custom/lib/libutee/tee_api.c:98
     eea:	1dd6      	adds	r6, r2, #7
     eec:	f026 0607 	bic.w	r6, r6, #7
/home/aom1/Work/Linux/target/STM32MP1-DK2/bootloader/optee-os-custom/lib/libutee/tee_api.c:99
     ef0:	2906      	cmp	r1, #6
/home/aom1/Work/Linux/target/STM32MP1-DK2/bootloader/optee-os-custom/lib/libutee/tee_api.c:98
     ef2:	441e      	add	r6, r3
/home/aom1/Work/Linux/target/STM32MP1-DK2/bootloader/optee-os-custom/lib/libutee/tee_api.c:97
     ef4:	f840 3025 	str.w	r3, [r0, r5, lsl #2]
/home/aom1/Work/Linux/target/STM32MP1-DK2/bootloader/optee-os-custom/lib/libutee/tee_api.c:99
     ef8:	d007      	beq.n	f0a <copy_param+0xea>
/home/aom1/Work/Linux/target/STM32MP1-DK2/bootloader/optee-os-custom/lib/libutee/tee_api.c:101
     efa:	f857 1035 	ldr.w	r1, [r7, r5, lsl #3]
     efe:	4618      	mov	r0, r3
     f00:	9201      	str	r2, [sp, #4]
     f02:	f005 ff1b 	bl	6d3c <memcpy>
     f06:	9a01      	ldr	r2, [sp, #4]
     f08:	4603      	mov	r3, r0
/home/aom1/Work/Linux/target/STM32MP1-DK2/bootloader/optee-os-custom/lib/libutee/tee_api.c:105
     f0a:	e9c4 3a02 	strd	r3, sl, [r4, #8]
/home/aom1/Work/Linux/target/STM32MP1-DK2/bootloader/optee-os-custom/lib/libutee/tee_api.c:107
     f0e:	4633      	mov	r3, r6
     f10:	e005      	b.n	f1e <copy_param+0xfe>
/home/aom1/Work/Linux/target/STM32MP1-DK2/bootloader/optee-os-custom/lib/libutee/tee_api.c:88
     f12:	f857 2035 	ldr.w	r2, [r7, r5, lsl #3]
     f16:	e9c4 2a02 	strd	r2, sl, [r4, #8]
/home/aom1/Work/Linux/target/STM32MP1-DK2/bootloader/optee-os-custom/lib/libutee/tee_api.c:89
     f1a:	f8d9 2004 	ldr.w	r2, [r9, #4]
/home/aom1/Work/Linux/target/STM32MP1-DK2/bootloader/optee-os-custom/lib/libutee/tee_api.c:84 (discriminator 2)
     f1e:	3501      	adds	r5, #1
     f20:	f109 0908 	add.w	r9, r9, #8
     f24:	2d04      	cmp	r5, #4
/home/aom1/Work/Linux/target/STM32MP1-DK2/bootloader/optee-os-custom/lib/libutee/tee_api.c:89 (discriminator 2)
     f26:	e9c4 2b04 	strd	r2, fp, [r4, #16]
/home/aom1/Work/Linux/target/STM32MP1-DK2/bootloader/optee-os-custom/lib/libutee/tee_api.c:84 (discriminator 2)
     f2a:	f104 0410 	add.w	r4, r4, #16
     f2e:	d1c1      	bne.n	eb4 <copy_param+0x94>
/home/aom1/Work/Linux/target/STM32MP1-DK2/bootloader/optee-os-custom/lib/libutee/tee_api.c:115
     f30:	2000      	movs	r0, #0
/home/aom1/Work/Linux/target/STM32MP1-DK2/bootloader/optee-os-custom/lib/libutee/tee_api.c:116
     f32:	b005      	add	sp, #20
     f34:	ecbd 8b02 	vpop	{d8}
     f38:	e8bd 8ff0 	ldmia.w	sp!, {r4, r5, r6, r7, r8, r9, sl, fp, pc}
/home/aom1/Work/Linux/target/STM32MP1-DK2/bootloader/optee-os-custom/lib/libutee/tee_api.c:103
     f3c:	461e      	mov	r6, r3
     f3e:	f857 3035 	ldr.w	r3, [r7, r5, lsl #3]
     f42:	e7e2      	b.n	f0a <copy_param+0xea>
/home/aom1/Work/Linux/target/STM32MP1-DK2/bootloader/optee-os-custom/lib/libutee/tee_api.c:78
     f44:	4800      	ldr	r0, [pc, #0]	; (f48 <copy_param+0x128>)
     f46:	e7f4      	b.n	f32 <copy_param+0x112>
     f48:	ffff000c 	.word	0xffff000c

00000f4c <TEE_OpenTASession>:
TEE_OpenTASession():
/home/aom1/Work/Linux/target/STM32MP1-DK2/bootloader/optee-os-custom/lib/libutee/tee_api.c:160
     f4c:	efc0 0010 	vmov.i32	d16, #0	; 0x00000000
/home/aom1/Work/Linux/target/STM32MP1-DK2/bootloader/optee-os-custom/lib/libutee/tee_api.c:154
     f50:	e92d 47f0 	stmdb	sp!, {r4, r5, r6, r7, r8, r9, sl, lr}
     f54:	b09c      	sub	sp, #112	; 0x70
     f56:	461d      	mov	r5, r3
/home/aom1/Work/Linux/target/STM32MP1-DK2/bootloader/optee-os-custom/lib/libutee/tee_api.c:157
     f58:	2300      	movs	r3, #0
/home/aom1/Work/Linux/target/STM32MP1-DK2/bootloader/optee-os-custom/lib/libutee/tee_api.c:154
     f5a:	f8dd 9090 	ldr.w	r9, [sp, #144]	; 0x90
/home/aom1/Work/Linux/target/STM32MP1-DK2/bootloader/optee-os-custom/lib/libutee/tee_api.c:160
     f5e:	ae06      	add	r6, sp, #24
     f60:	edcd 0b06 	vstr	d16, [sp, #24]
/home/aom1/Work/Linux/target/STM32MP1-DK2/bootloader/optee-os-custom/lib/libutee/tee_api.c:157
     f64:	9303      	str	r3, [sp, #12]
/home/aom1/Work/Linux/target/STM32MP1-DK2/bootloader/optee-os-custom/lib/libutee/tee_api.c:154
     f66:	4607      	mov	r7, r0
     f68:	4688      	mov	r8, r1
/home/aom1/Work/Linux/target/STM32MP1-DK2/bootloader/optee-os-custom/lib/libutee/tee_api.c:162
     f6a:	4614      	mov	r4, r2
/home/aom1/Work/Linux/target/STM32MP1-DK2/bootloader/optee-os-custom/lib/libutee/tee_api.c:159
     f6c:	e9cd 3304 	strd	r3, r3, [sp, #16]
/home/aom1/Work/Linux/target/STM32MP1-DK2/bootloader/optee-os-custom/lib/libutee/tee_api.c:160
     f70:	edc6 0b02 	vstr	d16, [r6, #8]
/home/aom1/Work/Linux/target/STM32MP1-DK2/bootloader/optee-os-custom/lib/libutee/tee_api.c:162
     f74:	b11a      	cbz	r2, f7e <TEE_OpenTASession+0x32>
/home/aom1/Work/Linux/target/STM32MP1-DK2/bootloader/optee-os-custom/lib/libutee/tee_api.c:163
     f76:	2120      	movs	r1, #32
     f78:	4628      	mov	r0, r5
     f7a:	f000 fd90 	bl	1a9e <__utee_check_inout_annotation>
/home/aom1/Work/Linux/target/STM32MP1-DK2/bootloader/optee-os-custom/lib/libutee/tee_api.c:166
     f7e:	2104      	movs	r1, #4
     f80:	4648      	mov	r0, r9
/home/aom1/Work/Linux/target/STM32MP1-DK2/bootloader/optee-os-custom/lib/libutee/tee_api.c:168
     f82:	f10d 0a28 	add.w	sl, sp, #40	; 0x28
/home/aom1/Work/Linux/target/STM32MP1-DK2/bootloader/optee-os-custom/lib/libutee/tee_api.c:166
     f86:	f000 fd77 	bl	1a78 <__utee_check_out_annotation>
/home/aom1/Work/Linux/target/STM32MP1-DK2/bootloader/optee-os-custom/lib/libutee/tee_api.c:168
     f8a:	9601      	str	r6, [sp, #4]
     f8c:	ab05      	add	r3, sp, #20
     f8e:	9300      	str	r3, [sp, #0]
     f90:	4621      	mov	r1, r4
     f92:	ab04      	add	r3, sp, #16
     f94:	462a      	mov	r2, r5
     f96:	4650      	mov	r0, sl
     f98:	f7ff ff42 	bl	e20 <copy_param>
/home/aom1/Work/Linux/target/STM32MP1-DK2/bootloader/optee-os-custom/lib/libutee/tee_api.c:169
     f9c:	4604      	mov	r4, r0
     f9e:	b9b0      	cbnz	r0, fce <TEE_OpenTASession+0x82>
/home/aom1/Work/Linux/target/STM32MP1-DK2/bootloader/optee-os-custom/lib/libutee/tee_api.c:171
     fa0:	9b25      	ldr	r3, [sp, #148]	; 0x94
     fa2:	4652      	mov	r2, sl
     fa4:	4641      	mov	r1, r8
     fa6:	4638      	mov	r0, r7
     fa8:	9300      	str	r3, [sp, #0]
     faa:	ab03      	add	r3, sp, #12
     fac:	f000 ee6c 	blx	1c88 <_utee_open_ta_session>
     fb0:	4604      	mov	r4, r0
/home/aom1/Work/Linux/target/STM32MP1-DK2/bootloader/optee-os-custom/lib/libutee/tee_api.c:173
     fb2:	4652      	mov	r2, sl
     fb4:	4628      	mov	r0, r5
     fb6:	4631      	mov	r1, r6
     fb8:	f7ff fec6 	bl	d48 <update_out_param>
/home/aom1/Work/Linux/target/STM32MP1-DK2/bootloader/optee-os-custom/lib/libutee/tee_api.c:174
     fbc:	9804      	ldr	r0, [sp, #16]
     fbe:	b128      	cbz	r0, fcc <TEE_OpenTASession+0x80>
/home/aom1/Work/Linux/target/STM32MP1-DK2/bootloader/optee-os-custom/lib/libutee/tee_api.c:175
     fc0:	9905      	ldr	r1, [sp, #20]
     fc2:	f000 fdb8 	bl	1b36 <tee_unmap>
/home/aom1/Work/Linux/target/STM32MP1-DK2/bootloader/optee-os-custom/lib/libutee/tee_api.c:177
     fc6:	b108      	cbz	r0, fcc <TEE_OpenTASession+0x80>
/home/aom1/Work/Linux/target/STM32MP1-DK2/bootloader/optee-os-custom/lib/libutee/tee_api.c:178
     fc8:	f000 fd16 	bl	19f8 <TEE_Panic>
/home/aom1/Work/Linux/target/STM32MP1-DK2/bootloader/optee-os-custom/lib/libutee/tee_api.c:187
     fcc:	b10c      	cbz	r4, fd2 <TEE_OpenTASession+0x86>
/home/aom1/Work/Linux/target/STM32MP1-DK2/bootloader/optee-os-custom/lib/libutee/tee_api.c:188
     fce:	2300      	movs	r3, #0
     fd0:	9303      	str	r3, [sp, #12]
/home/aom1/Work/Linux/target/STM32MP1-DK2/bootloader/optee-os-custom/lib/libutee/tee_api.c:190
     fd2:	9b03      	ldr	r3, [sp, #12]
/home/aom1/Work/Linux/target/STM32MP1-DK2/bootloader/optee-os-custom/lib/libutee/tee_api.c:192
     fd4:	4620      	mov	r0, r4
/home/aom1/Work/Linux/target/STM32MP1-DK2/bootloader/optee-os-custom/lib/libutee/tee_api.c:190
     fd6:	f8c9 3000 	str.w	r3, [r9]
/home/aom1/Work/Linux/target/STM32MP1-DK2/bootloader/optee-os-custom/lib/libutee/tee_api.c:192
     fda:	b01c      	add	sp, #112	; 0x70
     fdc:	e8bd 87f0 	ldmia.w	sp!, {r4, r5, r6, r7, r8, r9, sl, pc}

00000fe0 <TEE_InvokeTACommand>:
TEE_InvokeTACommand():
/home/aom1/Work/Linux/target/STM32MP1-DK2/bootloader/optee-os-custom/lib/libutee/tee_api.c:215
     fe0:	efc0 0010 	vmov.i32	d16, #0	; 0x00000000
/home/aom1/Work/Linux/target/STM32MP1-DK2/bootloader/optee-os-custom/lib/libutee/tee_api.c:209
     fe4:	e92d 4ff0 	stmdb	sp!, {r4, r5, r6, r7, r8, r9, sl, fp, lr}
     fe8:	b09d      	sub	sp, #116	; 0x74
     fea:	4693      	mov	fp, r2
/home/aom1/Work/Linux/target/STM32MP1-DK2/bootloader/optee-os-custom/lib/libutee/tee_api.c:211
     fec:	2203      	movs	r2, #3
     fee:	9203      	str	r2, [sp, #12]
/home/aom1/Work/Linux/target/STM32MP1-DK2/bootloader/optee-os-custom/lib/libutee/tee_api.c:213
     ff0:	2200      	movs	r2, #0
/home/aom1/Work/Linux/target/STM32MP1-DK2/bootloader/optee-os-custom/lib/libutee/tee_api.c:215
     ff2:	af06      	add	r7, sp, #24
/home/aom1/Work/Linux/target/STM32MP1-DK2/bootloader/optee-os-custom/lib/libutee/tee_api.c:209
     ff4:	4681      	mov	r9, r0
/home/aom1/Work/Linux/target/STM32MP1-DK2/bootloader/optee-os-custom/lib/libutee/tee_api.c:215
     ff6:	edcd 0b06 	vstr	d16, [sp, #24]
/home/aom1/Work/Linux/target/STM32MP1-DK2/bootloader/optee-os-custom/lib/libutee/tee_api.c:209
     ffa:	468a      	mov	sl, r1
/home/aom1/Work/Linux/target/STM32MP1-DK2/bootloader/optee-os-custom/lib/libutee/tee_api.c:217
     ffc:	461c      	mov	r4, r3
/home/aom1/Work/Linux/target/STM32MP1-DK2/bootloader/optee-os-custom/lib/libutee/tee_api.c:209
     ffe:	e9dd 6526 	ldrd	r6, r5, [sp, #152]	; 0x98
/home/aom1/Work/Linux/target/STM32MP1-DK2/bootloader/optee-os-custom/lib/libutee/tee_api.c:214
    1002:	e9cd 2204 	strd	r2, r2, [sp, #16]
/home/aom1/Work/Linux/target/STM32MP1-DK2/bootloader/optee-os-custom/lib/libutee/tee_api.c:215
    1006:	edc7 0b02 	vstr	d16, [r7, #8]
/home/aom1/Work/Linux/target/STM32MP1-DK2/bootloader/optee-os-custom/lib/libutee/tee_api.c:217
    100a:	b11b      	cbz	r3, 1014 <TEE_InvokeTACommand+0x34>
/home/aom1/Work/Linux/target/STM32MP1-DK2/bootloader/optee-os-custom/lib/libutee/tee_api.c:218
    100c:	2120      	movs	r1, #32
    100e:	4630      	mov	r0, r6
    1010:	f000 fd45 	bl	1a9e <__utee_check_inout_annotation>
/home/aom1/Work/Linux/target/STM32MP1-DK2/bootloader/optee-os-custom/lib/libutee/tee_api.c:221
    1014:	b11d      	cbz	r5, 101e <TEE_InvokeTACommand+0x3e>
/home/aom1/Work/Linux/target/STM32MP1-DK2/bootloader/optee-os-custom/lib/libutee/tee_api.c:222
    1016:	2104      	movs	r1, #4
    1018:	4628      	mov	r0, r5
    101a:	f000 fd2d 	bl	1a78 <__utee_check_out_annotation>
/home/aom1/Work/Linux/target/STM32MP1-DK2/bootloader/optee-os-custom/lib/libutee/tee_api.c:225
    101e:	9701      	str	r7, [sp, #4]
    1020:	ab05      	add	r3, sp, #20
    1022:	9300      	str	r3, [sp, #0]
    1024:	f10d 0828 	add.w	r8, sp, #40	; 0x28
    1028:	4621      	mov	r1, r4
    102a:	ab04      	add	r3, sp, #16
    102c:	4632      	mov	r2, r6
    102e:	4640      	mov	r0, r8
    1030:	f7ff fef6 	bl	e20 <copy_param>
/home/aom1/Work/Linux/target/STM32MP1-DK2/bootloader/optee-os-custom/lib/libutee/tee_api.c:226
    1034:	4604      	mov	r4, r0
    1036:	b9a8      	cbnz	r0, 1064 <TEE_InvokeTACommand+0x84>
/home/aom1/Work/Linux/target/STM32MP1-DK2/bootloader/optee-os-custom/lib/libutee/tee_api.c:228
    1038:	ab03      	add	r3, sp, #12
    103a:	465a      	mov	r2, fp
    103c:	9300      	str	r3, [sp, #0]
    103e:	4651      	mov	r1, sl
    1040:	4643      	mov	r3, r8
    1042:	4648      	mov	r0, r9
    1044:	f000 ee36 	blx	1cb4 <_utee_invoke_ta_command>
    1048:	4604      	mov	r4, r0
/home/aom1/Work/Linux/target/STM32MP1-DK2/bootloader/optee-os-custom/lib/libutee/tee_api.c:231
    104a:	4642      	mov	r2, r8
    104c:	4630      	mov	r0, r6
    104e:	4639      	mov	r1, r7
    1050:	f7ff fe7a 	bl	d48 <update_out_param>
/home/aom1/Work/Linux/target/STM32MP1-DK2/bootloader/optee-os-custom/lib/libutee/tee_api.c:232
    1054:	9804      	ldr	r0, [sp, #16]
    1056:	b128      	cbz	r0, 1064 <TEE_InvokeTACommand+0x84>
/home/aom1/Work/Linux/target/STM32MP1-DK2/bootloader/optee-os-custom/lib/libutee/tee_api.c:233
    1058:	9905      	ldr	r1, [sp, #20]
    105a:	f000 fd6c 	bl	1b36 <tee_unmap>
/home/aom1/Work/Linux/target/STM32MP1-DK2/bootloader/optee-os-custom/lib/libutee/tee_api.c:235
    105e:	b108      	cbz	r0, 1064 <TEE_InvokeTACommand+0x84>
/home/aom1/Work/Linux/target/STM32MP1-DK2/bootloader/optee-os-custom/lib/libutee/tee_api.c:236
    1060:	f000 fcca 	bl	19f8 <TEE_Panic>
/home/aom1/Work/Linux/target/STM32MP1-DK2/bootloader/optee-os-custom/lib/libutee/tee_api.c:241
    1064:	9b03      	ldr	r3, [sp, #12]
/home/aom1/Work/Linux/target/STM32MP1-DK2/bootloader/optee-os-custom/lib/libutee/tee_api.c:240
    1066:	b105      	cbz	r5, 106a <TEE_InvokeTACommand+0x8a>
/home/aom1/Work/Linux/target/STM32MP1-DK2/bootloader/optee-os-custom/lib/libutee/tee_api.c:241
    1068:	602b      	str	r3, [r5, #0]
/home/aom1/Work/Linux/target/STM32MP1-DK2/bootloader/optee-os-custom/lib/libutee/tee_api.c:243
    106a:	2b04      	cmp	r3, #4
    106c:	d009      	beq.n	1082 <TEE_InvokeTACommand+0xa2>
/home/aom1/Work/Linux/target/STM32MP1-DK2/bootloader/optee-os-custom/lib/libutee/tee_api.c:246
    106e:	b144      	cbz	r4, 1082 <TEE_InvokeTACommand+0xa2>
/home/aom1/Work/Linux/target/STM32MP1-DK2/bootloader/optee-os-custom/lib/libutee/tee_api.c:246 (discriminator 1)
    1070:	4b06      	ldr	r3, [pc, #24]	; (108c <TEE_InvokeTACommand+0xac>)
    1072:	429c      	cmp	r4, r3
    1074:	d005      	beq.n	1082 <TEE_InvokeTACommand+0xa2>
/home/aom1/Work/Linux/target/STM32MP1-DK2/bootloader/optee-os-custom/lib/libutee/tee_api.c:247
    1076:	4b06      	ldr	r3, [pc, #24]	; (1090 <TEE_InvokeTACommand+0xb0>)
    1078:	429c      	cmp	r4, r3
    107a:	d002      	beq.n	1082 <TEE_InvokeTACommand+0xa2>
/home/aom1/Work/Linux/target/STM32MP1-DK2/bootloader/optee-os-custom/lib/libutee/tee_api.c:249
    107c:	4620      	mov	r0, r4
    107e:	f000 fcbb 	bl	19f8 <TEE_Panic>
/home/aom1/Work/Linux/target/STM32MP1-DK2/bootloader/optee-os-custom/lib/libutee/tee_api.c:252
    1082:	4620      	mov	r0, r4
    1084:	b01d      	add	sp, #116	; 0x74
    1086:	e8bd 8ff0 	ldmia.w	sp!, {r4, r5, r6, r7, r8, r9, sl, fp, pc}
    108a:	bf00      	nop
    108c:	ffff000c 	.word	0xffff000c
    1090:	ffff3024 	.word	0xffff3024

00001094 <TEE_SetInstanceData>:
TEE_SetInstanceData():
/home/aom1/Work/Linux/target/STM32MP1-DK2/bootloader/optee-os-custom/lib/libutee/tee_api.c:313
    1094:	4b01      	ldr	r3, [pc, #4]	; (109c <TEE_SetInstanceData+0x8>)
    1096:	447b      	add	r3, pc
    1098:	6018      	str	r0, [r3, #0]
/home/aom1/Work/Linux/target/STM32MP1-DK2/bootloader/optee-os-custom/lib/libutee/tee_api.c:314
    109a:	4770      	bx	lr
    109c:	000081f6 	.word	0x000081f6

000010a0 <TEE_GetInstanceData>:
TEE_GetInstanceData():
/home/aom1/Work/Linux/target/STM32MP1-DK2/bootloader/optee-os-custom/lib/libutee/tee_api.c:319
    10a0:	4b01      	ldr	r3, [pc, #4]	; (10a8 <TEE_GetInstanceData+0x8>)
    10a2:	447b      	add	r3, pc
    10a4:	6818      	ldr	r0, [r3, #0]
    10a6:	4770      	bx	lr
    10a8:	000081ea 	.word	0x000081ea

000010ac <TEE_MemMove>:
TEE_MemMove():
/home/aom1/Work/Linux/target/STM32MP1-DK2/bootloader/optee-os-custom/lib/libutee/tee_api.c:323
    10ac:	f006 b800 	b.w	70b0 <memmove>

000010b0 <TEE_MemCompare>:
TEE_MemCompare():
/home/aom1/Work/Linux/target/STM32MP1-DK2/bootloader/optee-os-custom/lib/libutee/tee_api.c:328
    10b0:	f006 b818 	b.w	70e4 <consttime_memcmp>

000010b4 <TEE_MemFill>:
TEE_MemFill():
/home/aom1/Work/Linux/target/STM32MP1-DK2/bootloader/optee-os-custom/lib/libutee/tee_api.c:333
    10b4:	f005 bf2d 	b.w	6f12 <memset>

000010b8 <TEE_GetSystemTime>:
TEE_GetSystemTime():
/home/aom1/Work/Linux/target/STM32MP1-DK2/bootloader/optee-os-custom/lib/libutee/tee_api.c:339
    10b8:	4601      	mov	r1, r0
/home/aom1/Work/Linux/target/STM32MP1-DK2/bootloader/optee-os-custom/lib/libutee/tee_api.c:340
    10ba:	2000      	movs	r0, #0
/home/aom1/Work/Linux/target/STM32MP1-DK2/bootloader/optee-os-custom/lib/libutee/tee_api.c:339
    10bc:	b508      	push	{r3, lr}
/home/aom1/Work/Linux/target/STM32MP1-DK2/bootloader/optee-os-custom/lib/libutee/tee_api.c:340
    10be:	f000 ee38 	blx	1d30 <_utee_get_time>
/home/aom1/Work/Linux/target/STM32MP1-DK2/bootloader/optee-os-custom/lib/libutee/tee_api.c:342
    10c2:	b118      	cbz	r0, 10cc <TEE_GetSystemTime+0x14>
/home/aom1/Work/Linux/target/STM32MP1-DK2/bootloader/optee-os-custom/lib/libutee/tee_api.c:344
    10c4:	e8bd 4008 	ldmia.w	sp!, {r3, lr}
/home/aom1/Work/Linux/target/STM32MP1-DK2/bootloader/optee-os-custom/lib/libutee/tee_api.c:343
    10c8:	f000 bc96 	b.w	19f8 <TEE_Panic>
/home/aom1/Work/Linux/target/STM32MP1-DK2/bootloader/optee-os-custom/lib/libutee/tee_api.c:344
    10cc:	bd08      	pop	{r3, pc}

000010ce <TEE_Wait>:
TEE_Wait():
/home/aom1/Work/Linux/target/STM32MP1-DK2/bootloader/optee-os-custom/lib/libutee/tee_api.c:347
    10ce:	b510      	push	{r4, lr}
/home/aom1/Work/Linux/target/STM32MP1-DK2/bootloader/optee-os-custom/lib/libutee/tee_api.c:348
    10d0:	f000 ee24 	blx	1d1c <_utee_wait>
/home/aom1/Work/Linux/target/STM32MP1-DK2/bootloader/optee-os-custom/lib/libutee/tee_api.c:350
    10d4:	4604      	mov	r4, r0
    10d6:	b120      	cbz	r0, 10e2 <TEE_Wait+0x14>
/home/aom1/Work/Linux/target/STM32MP1-DK2/bootloader/optee-os-custom/lib/libutee/tee_api.c:350 (discriminator 1)
    10d8:	4b03      	ldr	r3, [pc, #12]	; (10e8 <TEE_Wait+0x1a>)
    10da:	4298      	cmp	r0, r3
    10dc:	d001      	beq.n	10e2 <TEE_Wait+0x14>
/home/aom1/Work/Linux/target/STM32MP1-DK2/bootloader/optee-os-custom/lib/libutee/tee_api.c:351
    10de:	f000 fc8b 	bl	19f8 <TEE_Panic>
/home/aom1/Work/Linux/target/STM32MP1-DK2/bootloader/optee-os-custom/lib/libutee/tee_api.c:354
    10e2:	4620      	mov	r0, r4
    10e4:	bd10      	pop	{r4, pc}
    10e6:	bf00      	nop
    10e8:	ffff0002 	.word	0xffff0002

000010ec <TEE_GetTAPersistentTime>:
TEE_GetTAPersistentTime():
/home/aom1/Work/Linux/target/STM32MP1-DK2/bootloader/optee-os-custom/lib/libutee/tee_api.c:357
    10ec:	b538      	push	{r3, r4, r5, lr}
/home/aom1/Work/Linux/target/STM32MP1-DK2/bootloader/optee-os-custom/lib/libutee/tee_api.c:360
    10ee:	4601      	mov	r1, r0
/home/aom1/Work/Linux/target/STM32MP1-DK2/bootloader/optee-os-custom/lib/libutee/tee_api.c:357
    10f0:	4605      	mov	r5, r0
/home/aom1/Work/Linux/target/STM32MP1-DK2/bootloader/optee-os-custom/lib/libutee/tee_api.c:360
    10f2:	2001      	movs	r0, #1
    10f4:	f000 ee1c 	blx	1d30 <_utee_get_time>
    10f8:	4604      	mov	r4, r0
/home/aom1/Work/Linux/target/STM32MP1-DK2/bootloader/optee-os-custom/lib/libutee/tee_api.c:362
    10fa:	b170      	cbz	r0, 111a <TEE_GetTAPersistentTime+0x2e>
/home/aom1/Work/Linux/target/STM32MP1-DK2/bootloader/optee-os-custom/lib/libutee/tee_api.c:362 (discriminator 1)
    10fc:	4b08      	ldr	r3, [pc, #32]	; (1120 <TEE_GetTAPersistentTime+0x34>)
    10fe:	4298      	cmp	r0, r3
    1100:	d00b      	beq.n	111a <TEE_GetTAPersistentTime+0x2e>
/home/aom1/Work/Linux/target/STM32MP1-DK2/bootloader/optee-os-custom/lib/libutee/tee_api.c:363
    1102:	2300      	movs	r3, #0
    1104:	602b      	str	r3, [r5, #0]
/home/aom1/Work/Linux/target/STM32MP1-DK2/bootloader/optee-os-custom/lib/libutee/tee_api.c:364
    1106:	606b      	str	r3, [r5, #4]
/home/aom1/Work/Linux/target/STM32MP1-DK2/bootloader/optee-os-custom/lib/libutee/tee_api.c:367
    1108:	f500 4330 	add.w	r3, r0, #45056	; 0xb000
    110c:	2b01      	cmp	r3, #1
    110e:	d904      	bls.n	111a <TEE_GetTAPersistentTime+0x2e>
/home/aom1/Work/Linux/target/STM32MP1-DK2/bootloader/optee-os-custom/lib/libutee/tee_api.c:370
    1110:	4b04      	ldr	r3, [pc, #16]	; (1124 <TEE_GetTAPersistentTime+0x38>)
    1112:	4298      	cmp	r0, r3
    1114:	d001      	beq.n	111a <TEE_GetTAPersistentTime+0x2e>
/home/aom1/Work/Linux/target/STM32MP1-DK2/bootloader/optee-os-custom/lib/libutee/tee_api.c:372
    1116:	f000 fc6f 	bl	19f8 <TEE_Panic>
/home/aom1/Work/Linux/target/STM32MP1-DK2/bootloader/optee-os-custom/lib/libutee/tee_api.c:375
    111a:	4620      	mov	r0, r4
    111c:	bd38      	pop	{r3, r4, r5, pc}
    111e:	bf00      	nop
    1120:	ffff300f 	.word	0xffff300f
    1124:	ffff000c 	.word	0xffff000c

00001128 <TEE_SetTAPersistentTime>:
TEE_SetTAPersistentTime():
/home/aom1/Work/Linux/target/STM32MP1-DK2/bootloader/optee-os-custom/lib/libutee/tee_api.c:378
    1128:	b510      	push	{r4, lr}
/home/aom1/Work/Linux/target/STM32MP1-DK2/bootloader/optee-os-custom/lib/libutee/tee_api.c:381
    112a:	f000 ee0c 	blx	1d44 <_utee_set_ta_time>
/home/aom1/Work/Linux/target/STM32MP1-DK2/bootloader/optee-os-custom/lib/libutee/tee_api.c:383
    112e:	4604      	mov	r4, r0
    1130:	b138      	cbz	r0, 1142 <TEE_SetTAPersistentTime+0x1a>
/home/aom1/Work/Linux/target/STM32MP1-DK2/bootloader/optee-os-custom/lib/libutee/tee_api.c:383 (discriminator 1)
    1132:	4b05      	ldr	r3, [pc, #20]	; (1148 <TEE_SetTAPersistentTime+0x20>)
    1134:	4298      	cmp	r0, r3
    1136:	d004      	beq.n	1142 <TEE_SetTAPersistentTime+0x1a>
/home/aom1/Work/Linux/target/STM32MP1-DK2/bootloader/optee-os-custom/lib/libutee/tee_api.c:384
    1138:	4b04      	ldr	r3, [pc, #16]	; (114c <TEE_SetTAPersistentTime+0x24>)
    113a:	4298      	cmp	r0, r3
    113c:	d001      	beq.n	1142 <TEE_SetTAPersistentTime+0x1a>
/home/aom1/Work/Linux/target/STM32MP1-DK2/bootloader/optee-os-custom/lib/libutee/tee_api.c:386
    113e:	f000 fc5b 	bl	19f8 <TEE_Panic>
/home/aom1/Work/Linux/target/STM32MP1-DK2/bootloader/optee-os-custom/lib/libutee/tee_api.c:389
    1142:	4620      	mov	r0, r4
    1144:	bd10      	pop	{r4, pc}
    1146:	bf00      	nop
    1148:	ffff000c 	.word	0xffff000c
    114c:	ffff3041 	.word	0xffff3041

00001150 <TEE_GetREETime>:
TEE_GetREETime():
/home/aom1/Work/Linux/target/STM32MP1-DK2/bootloader/optee-os-custom/lib/libutee/tee_api.c:392
    1150:	4601      	mov	r1, r0
/home/aom1/Work/Linux/target/STM32MP1-DK2/bootloader/optee-os-custom/lib/libutee/tee_api.c:393
    1152:	2002      	movs	r0, #2
/home/aom1/Work/Linux/target/STM32MP1-DK2/bootloader/optee-os-custom/lib/libutee/tee_api.c:392
    1154:	b508      	push	{r3, lr}
/home/aom1/Work/Linux/target/STM32MP1-DK2/bootloader/optee-os-custom/lib/libutee/tee_api.c:393
    1156:	f000 edec 	blx	1d30 <_utee_get_time>
/home/aom1/Work/Linux/target/STM32MP1-DK2/bootloader/optee-os-custom/lib/libutee/tee_api.c:395
    115a:	b118      	cbz	r0, 1164 <TEE_GetREETime+0x14>
/home/aom1/Work/Linux/target/STM32MP1-DK2/bootloader/optee-os-custom/lib/libutee/tee_api.c:397
    115c:	e8bd 4008 	ldmia.w	sp!, {r3, lr}
/home/aom1/Work/Linux/target/STM32MP1-DK2/bootloader/optee-os-custom/lib/libutee/tee_api.c:396
    1160:	f000 bc4a 	b.w	19f8 <TEE_Panic>
/home/aom1/Work/Linux/target/STM32MP1-DK2/bootloader/optee-os-custom/lib/libutee/tee_api.c:397
    1164:	bd08      	pop	{r3, pc}

00001166 <TEE_Malloc>:
TEE_Malloc():
/home/aom1/Work/Linux/target/STM32MP1-DK2/bootloader/optee-os-custom/lib/libutee/tee_api.c:400
    1166:	460b      	mov	r3, r1
    1168:	b507      	push	{r0, r1, r2, lr}
/home/aom1/Work/Linux/target/STM32MP1-DK2/bootloader/optee-os-custom/lib/libutee/tee_api.c:401
    116a:	4601      	mov	r1, r0
    116c:	b1f0      	cbz	r0, 11ac <TEE_Malloc+0x46>
/home/aom1/Work/Linux/target/STM32MP1-DK2/bootloader/optee-os-custom/lib/libutee/tee_api.c:404
    116e:	b92b      	cbnz	r3, 117c <TEE_Malloc+0x16>
/home/aom1/Work/Linux/target/STM32MP1-DK2/bootloader/optee-os-custom/lib/libutee/tee_api.c:405
    1170:	2001      	movs	r0, #1
/home/aom1/Work/Linux/target/STM32MP1-DK2/bootloader/optee-os-custom/lib/libutee/tee_api.c:412
    1172:	b003      	add	sp, #12
    1174:	f85d eb04 	ldr.w	lr, [sp], #4
/home/aom1/Work/Linux/target/STM32MP1-DK2/bootloader/optee-os-custom/lib/libutee/tee_api.c:405
    1178:	f005 bce8 	b.w	6b4c <calloc>
/home/aom1/Work/Linux/target/STM32MP1-DK2/bootloader/optee-os-custom/lib/libutee/tee_api.c:406
    117c:	f1b3 4f00 	cmp.w	r3, #2147483648	; 0x80000000
    1180:	d104      	bne.n	118c <TEE_Malloc+0x26>
/home/aom1/Work/Linux/target/STM32MP1-DK2/bootloader/optee-os-custom/lib/libutee/tee_api.c:412
    1182:	b003      	add	sp, #12
    1184:	f85d eb04 	ldr.w	lr, [sp], #4
/home/aom1/Work/Linux/target/STM32MP1-DK2/bootloader/optee-os-custom/lib/libutee/tee_api.c:407
    1188:	f005 bcd6 	b.w	6b38 <malloc>
/home/aom1/Work/Linux/target/STM32MP1-DK2/bootloader/optee-os-custom/lib/libutee/tee_api.c:409
    118c:	9301      	str	r3, [sp, #4]
    118e:	f240 1199 	movw	r1, #409	; 0x199
    1192:	4b07      	ldr	r3, [pc, #28]	; (11b0 <TEE_Malloc+0x4a>)
    1194:	4807      	ldr	r0, [pc, #28]	; (11b4 <TEE_Malloc+0x4e>)
    1196:	447b      	add	r3, pc
    1198:	9300      	str	r3, [sp, #0]
    119a:	2301      	movs	r3, #1
    119c:	4478      	add	r0, pc
    119e:	461a      	mov	r2, r3
    11a0:	f7ff f9e4 	bl	56c <trace_printf>
/home/aom1/Work/Linux/target/STM32MP1-DK2/bootloader/optee-os-custom/lib/libutee/tee_api.c:411
    11a4:	2000      	movs	r0, #0
/home/aom1/Work/Linux/target/STM32MP1-DK2/bootloader/optee-os-custom/lib/libutee/tee_api.c:412
    11a6:	b003      	add	sp, #12
    11a8:	f85d fb04 	ldr.w	pc, [sp], #4
/home/aom1/Work/Linux/target/STM32MP1-DK2/bootloader/optee-os-custom/lib/libutee/tee_api.c:402
    11ac:	2001      	movs	r0, #1
    11ae:	e7fa      	b.n	11a6 <TEE_Malloc+0x40>
    11b0:	00006506 	.word	0x00006506
    11b4:	00006511 	.word	0x00006511

000011b8 <TEE_Free>:
TEE_Free():
/home/aom1/Work/Linux/target/STM32MP1-DK2/bootloader/optee-os-custom/lib/libutee/tee_api.c:429
    11b8:	2801      	cmp	r0, #1
    11ba:	d001      	beq.n	11c0 <TEE_Free+0x8>
/home/aom1/Work/Linux/target/STM32MP1-DK2/bootloader/optee-os-custom/lib/libutee/tee_api.c:430
    11bc:	f005 bcf4 	b.w	6ba8 <free>
/home/aom1/Work/Linux/target/STM32MP1-DK2/bootloader/optee-os-custom/lib/libutee/tee_api.c:431
    11c0:	4770      	bx	lr

000011c2 <TEE_Realloc>:
TEE_Realloc():
/home/aom1/Work/Linux/target/STM32MP1-DK2/bootloader/optee-os-custom/lib/libutee/tee_api.c:415
    11c2:	b508      	push	{r3, lr}
/home/aom1/Work/Linux/target/STM32MP1-DK2/bootloader/optee-os-custom/lib/libutee/tee_api.c:416
    11c4:	b149      	cbz	r1, 11da <TEE_Realloc+0x18>
/home/aom1/Work/Linux/target/STM32MP1-DK2/bootloader/optee-os-custom/lib/libutee/tee_api.c:421
    11c6:	2801      	cmp	r0, #1
    11c8:	d103      	bne.n	11d2 <TEE_Realloc+0x10>
/home/aom1/Work/Linux/target/STM32MP1-DK2/bootloader/optee-os-custom/lib/libutee/tee_api.c:425
    11ca:	e8bd 4008 	ldmia.w	sp!, {r3, lr}
/home/aom1/Work/Linux/target/STM32MP1-DK2/bootloader/optee-os-custom/lib/libutee/tee_api.c:422
    11ce:	f005 bcbd 	b.w	6b4c <calloc>
/home/aom1/Work/Linux/target/STM32MP1-DK2/bootloader/optee-os-custom/lib/libutee/tee_api.c:425
    11d2:	e8bd 4008 	ldmia.w	sp!, {r3, lr}
/home/aom1/Work/Linux/target/STM32MP1-DK2/bootloader/optee-os-custom/lib/libutee/tee_api.c:424
    11d6:	f005 bcc9 	b.w	6b6c <realloc>
/home/aom1/Work/Linux/target/STM32MP1-DK2/bootloader/optee-os-custom/lib/libutee/tee_api.c:417
    11da:	f7ff ffed 	bl	11b8 <TEE_Free>
/home/aom1/Work/Linux/target/STM32MP1-DK2/bootloader/optee-os-custom/lib/libutee/tee_api.c:425
    11de:	2001      	movs	r0, #1
    11e0:	bd08      	pop	{r3, pc}

000011e2 <TEE_CacheClean>:
TEE_CacheClean():
/home/aom1/Work/Linux/target/STM32MP1-DK2/bootloader/optee-os-custom/lib/libutee/tee_api.c:436
    11e2:	2200      	movs	r2, #0
    11e4:	f005 bfa4 	b.w	7130 <___utee_cache_operation_from_thumb>

000011e8 <TEE_CacheFlush>:
TEE_CacheFlush():
/home/aom1/Work/Linux/target/STM32MP1-DK2/bootloader/optee-os-custom/lib/libutee/tee_api.c:440
    11e8:	2201      	movs	r2, #1
    11ea:	f005 bfa1 	b.w	7130 <___utee_cache_operation_from_thumb>

000011ee <TEE_CacheInvalidate>:
TEE_CacheInvalidate():
/home/aom1/Work/Linux/target/STM32MP1-DK2/bootloader/optee-os-custom/lib/libutee/tee_api.c:445
    11ee:	2202      	movs	r2, #2
    11f0:	f005 bf9e 	b.w	7130 <___utee_cache_operation_from_thumb>

000011f4 <__utee_from_attr>:
__utee_from_attr():
/home/aom1/Work/Linux/target/STM32MP1-DK2/bootloader/optee-os-custom/lib/libutee/tee_api_objects.c:19
    11f4:	2318      	movs	r3, #24
    11f6:	fb03 0202 	mla	r2, r3, r2, r0
/home/aom1/Work/Linux/target/STM32MP1-DK2/bootloader/optee-os-custom/lib/libutee/tee_api_objects.c:23
    11fa:	2300      	movs	r3, #0
/home/aom1/Work/Linux/target/STM32MP1-DK2/bootloader/optee-os-custom/lib/libutee/tee_api_objects.c:16
    11fc:	b530      	push	{r4, r5, lr}
/home/aom1/Work/Linux/target/STM32MP1-DK2/bootloader/optee-os-custom/lib/libutee/tee_api_objects.c:19 (discriminator 1)
    11fe:	4290      	cmp	r0, r2
    1200:	d100      	bne.n	1204 <__utee_from_attr+0x10>
/home/aom1/Work/Linux/target/STM32MP1-DK2/bootloader/optee-os-custom/lib/libutee/tee_api_objects.c:29
    1202:	bd30      	pop	{r4, r5, pc}
/home/aom1/Work/Linux/target/STM32MP1-DK2/bootloader/optee-os-custom/lib/libutee/tee_api_objects.c:20
    1204:	680c      	ldr	r4, [r1, #0]
    1206:	310c      	adds	r1, #12
    1208:	6104      	str	r4, [r0, #16]
/home/aom1/Work/Linux/target/STM32MP1-DK2/bootloader/optee-os-custom/lib/libutee/tee_api_objects.c:23
    120a:	f851 4c04 	ldr.w	r4, [r1, #-4]
/home/aom1/Work/Linux/target/STM32MP1-DK2/bootloader/optee-os-custom/lib/libutee/tee_api_objects.c:22
    120e:	f851 5c08 	ldr.w	r5, [r1, #-8]
/home/aom1/Work/Linux/target/STM32MP1-DK2/bootloader/optee-os-custom/lib/libutee/tee_api_objects.c:23
    1212:	e9c0 4302 	strd	r4, r3, [r0, #8]
/home/aom1/Work/Linux/target/STM32MP1-DK2/bootloader/optee-os-custom/lib/libutee/tee_api_objects.c:22
    1216:	e9c0 5300 	strd	r5, r3, [r0]
    121a:	3018      	adds	r0, #24
    121c:	e7ef      	b.n	11fe <__utee_from_attr+0xa>

0000121e <TEE_GetObjectInfo>:
TEE_GetObjectInfo():
/home/aom1/Work/Linux/target/STM32MP1-DK2/bootloader/optee-os-custom/lib/libutee/tee_api_objects.c:39
    121e:	b510      	push	{r4, lr}
    1220:	460c      	mov	r4, r1
/home/aom1/Work/Linux/target/STM32MP1-DK2/bootloader/optee-os-custom/lib/libutee/tee_api_objects.c:42
    1222:	f000 edfc 	blx	1e1c <_utee_cryp_obj_get_info>
/home/aom1/Work/Linux/target/STM32MP1-DK2/bootloader/optee-os-custom/lib/libutee/tee_api_objects.c:44
    1226:	b108      	cbz	r0, 122c <TEE_GetObjectInfo+0xe>
/home/aom1/Work/Linux/target/STM32MP1-DK2/bootloader/optee-os-custom/lib/libutee/tee_api_objects.c:45
    1228:	f000 fbe6 	bl	19f8 <TEE_Panic>
/home/aom1/Work/Linux/target/STM32MP1-DK2/bootloader/optee-os-custom/lib/libutee/tee_api_objects.c:47
    122c:	6822      	ldr	r2, [r4, #0]
    122e:	4b05      	ldr	r3, [pc, #20]	; (1244 <TEE_GetObjectInfo+0x26>)
    1230:	429a      	cmp	r2, r3
    1232:	d106      	bne.n	1242 <TEE_GetObjectInfo+0x24>
/home/aom1/Work/Linux/target/STM32MP1-DK2/bootloader/optee-os-custom/lib/libutee/tee_api_objects.c:48
    1234:	2300      	movs	r3, #0
    1236:	6063      	str	r3, [r4, #4]
/home/aom1/Work/Linux/target/STM32MP1-DK2/bootloader/optee-os-custom/lib/libutee/tee_api_objects.c:49
    1238:	60a3      	str	r3, [r4, #8]
/home/aom1/Work/Linux/target/STM32MP1-DK2/bootloader/optee-os-custom/lib/libutee/tee_api_objects.c:50
    123a:	60e3      	str	r3, [r4, #12]
/home/aom1/Work/Linux/target/STM32MP1-DK2/bootloader/optee-os-custom/lib/libutee/tee_api_objects.c:51
    123c:	6123      	str	r3, [r4, #16]
/home/aom1/Work/Linux/target/STM32MP1-DK2/bootloader/optee-os-custom/lib/libutee/tee_api_objects.c:52
    123e:	6163      	str	r3, [r4, #20]
/home/aom1/Work/Linux/target/STM32MP1-DK2/bootloader/optee-os-custom/lib/libutee/tee_api_objects.c:53
    1240:	61a3      	str	r3, [r4, #24]
/home/aom1/Work/Linux/target/STM32MP1-DK2/bootloader/optee-os-custom/lib/libutee/tee_api_objects.c:55
    1242:	bd10      	pop	{r4, pc}
    1244:	a00000be 	.word	0xa00000be

00001248 <TEE_GetObjectInfo1>:
TEE_GetObjectInfo1():
/home/aom1/Work/Linux/target/STM32MP1-DK2/bootloader/optee-os-custom/lib/libutee/tee_api_objects.c:58
    1248:	b510      	push	{r4, lr}
/home/aom1/Work/Linux/target/STM32MP1-DK2/bootloader/optee-os-custom/lib/libutee/tee_api_objects.c:61
    124a:	f000 ede8 	blx	1e1c <_utee_cryp_obj_get_info>
/home/aom1/Work/Linux/target/STM32MP1-DK2/bootloader/optee-os-custom/lib/libutee/tee_api_objects.c:63
    124e:	4604      	mov	r4, r0
    1250:	b130      	cbz	r0, 1260 <TEE_GetObjectInfo1+0x18>
/home/aom1/Work/Linux/target/STM32MP1-DK2/bootloader/optee-os-custom/lib/libutee/tee_api_objects.c:63 (discriminator 1)
    1252:	4b04      	ldr	r3, [pc, #16]	; (1264 <TEE_GetObjectInfo1+0x1c>)
    1254:	f020 0202 	bic.w	r2, r0, #2
    1258:	429a      	cmp	r2, r3
    125a:	d001      	beq.n	1260 <TEE_GetObjectInfo1+0x18>
/home/aom1/Work/Linux/target/STM32MP1-DK2/bootloader/optee-os-custom/lib/libutee/tee_api_objects.c:66
    125c:	f000 fbcc 	bl	19f8 <TEE_Panic>
/home/aom1/Work/Linux/target/STM32MP1-DK2/bootloader/optee-os-custom/lib/libutee/tee_api_objects.c:69
    1260:	4620      	mov	r0, r4
    1262:	bd10      	pop	{r4, pc}
    1264:	f0100001 	.word	0xf0100001

00001268 <TEE_RestrictObjectUsage1>:
TEE_RestrictObjectUsage1():
/home/aom1/Work/Linux/target/STM32MP1-DK2/bootloader/optee-os-custom/lib/libutee/tee_api_objects.c:93
    1268:	b510      	push	{r4, lr}
/home/aom1/Work/Linux/target/STM32MP1-DK2/bootloader/optee-os-custom/lib/libutee/tee_api_objects.c:96
    126a:	f000 ede2 	blx	1e30 <_utee_cryp_obj_restrict_usage>
/home/aom1/Work/Linux/target/STM32MP1-DK2/bootloader/optee-os-custom/lib/libutee/tee_api_objects.c:99
    126e:	4604      	mov	r4, r0
    1270:	b130      	cbz	r0, 1280 <TEE_RestrictObjectUsage1+0x18>
/home/aom1/Work/Linux/target/STM32MP1-DK2/bootloader/optee-os-custom/lib/libutee/tee_api_objects.c:99 (discriminator 1)
    1272:	4b04      	ldr	r3, [pc, #16]	; (1284 <TEE_RestrictObjectUsage1+0x1c>)
    1274:	f020 0202 	bic.w	r2, r0, #2
    1278:	429a      	cmp	r2, r3
    127a:	d001      	beq.n	1280 <TEE_RestrictObjectUsage1+0x18>
/home/aom1/Work/Linux/target/STM32MP1-DK2/bootloader/optee-os-custom/lib/libutee/tee_api_objects.c:102
    127c:	f000 fbbc 	bl	19f8 <TEE_Panic>
/home/aom1/Work/Linux/target/STM32MP1-DK2/bootloader/optee-os-custom/lib/libutee/tee_api_objects.c:105
    1280:	4620      	mov	r0, r4
    1282:	bd10      	pop	{r4, pc}
    1284:	f0100001 	.word	0xf0100001

00001288 <TEE_RestrictObjectUsage>:
TEE_RestrictObjectUsage():
/home/aom1/Work/Linux/target/STM32MP1-DK2/bootloader/optee-os-custom/lib/libutee/tee_api_objects.c:78
    1288:	b530      	push	{r4, r5, lr}
    128a:	b089      	sub	sp, #36	; 0x24
    128c:	460d      	mov	r5, r1
/home/aom1/Work/Linux/target/STM32MP1-DK2/bootloader/optee-os-custom/lib/libutee/tee_api_objects.c:82
    128e:	a901      	add	r1, sp, #4
/home/aom1/Work/Linux/target/STM32MP1-DK2/bootloader/optee-os-custom/lib/libutee/tee_api_objects.c:78
    1290:	4604      	mov	r4, r0
/home/aom1/Work/Linux/target/STM32MP1-DK2/bootloader/optee-os-custom/lib/libutee/tee_api_objects.c:82
    1292:	f000 edc4 	blx	1e1c <_utee_cryp_obj_get_info>
/home/aom1/Work/Linux/target/STM32MP1-DK2/bootloader/optee-os-custom/lib/libutee/tee_api_objects.c:83
    1296:	4b06      	ldr	r3, [pc, #24]	; (12b0 <TEE_RestrictObjectUsage+0x28>)
    1298:	9a01      	ldr	r2, [sp, #4]
    129a:	429a      	cmp	r2, r3
    129c:	d006      	beq.n	12ac <TEE_RestrictObjectUsage+0x24>
/home/aom1/Work/Linux/target/STM32MP1-DK2/bootloader/optee-os-custom/lib/libutee/tee_api_objects.c:86
    129e:	4629      	mov	r1, r5
    12a0:	4620      	mov	r0, r4
    12a2:	f7ff ffe1 	bl	1268 <TEE_RestrictObjectUsage1>
/home/aom1/Work/Linux/target/STM32MP1-DK2/bootloader/optee-os-custom/lib/libutee/tee_api_objects.c:88
    12a6:	b108      	cbz	r0, 12ac <TEE_RestrictObjectUsage+0x24>
/home/aom1/Work/Linux/target/STM32MP1-DK2/bootloader/optee-os-custom/lib/libutee/tee_api_objects.c:89
    12a8:	f000 fba6 	bl	19f8 <TEE_Panic>
/home/aom1/Work/Linux/target/STM32MP1-DK2/bootloader/optee-os-custom/lib/libutee/tee_api_objects.c:90
    12ac:	b009      	add	sp, #36	; 0x24
    12ae:	bd30      	pop	{r4, r5, pc}
    12b0:	a00000be 	.word	0xa00000be

000012b4 <TEE_GetObjectBufferAttribute>:
TEE_GetObjectBufferAttribute():
/home/aom1/Work/Linux/target/STM32MP1-DK2/bootloader/optee-os-custom/lib/libutee/tee_api_objects.c:110
    12b4:	e92d 41f0 	stmdb	sp!, {r4, r5, r6, r7, r8, lr}
    12b8:	4606      	mov	r6, r0
    12ba:	b08a      	sub	sp, #40	; 0x28
/home/aom1/Work/Linux/target/STM32MP1-DK2/bootloader/optee-os-custom/lib/libutee/tee_api_objects.c:115
    12bc:	4618      	mov	r0, r3
/home/aom1/Work/Linux/target/STM32MP1-DK2/bootloader/optee-os-custom/lib/libutee/tee_api_objects.c:110
    12be:	460f      	mov	r7, r1
/home/aom1/Work/Linux/target/STM32MP1-DK2/bootloader/optee-os-custom/lib/libutee/tee_api_objects.c:115
    12c0:	2104      	movs	r1, #4
/home/aom1/Work/Linux/target/STM32MP1-DK2/bootloader/optee-os-custom/lib/libutee/tee_api_objects.c:110
    12c2:	4690      	mov	r8, r2
    12c4:	461d      	mov	r5, r3
/home/aom1/Work/Linux/target/STM32MP1-DK2/bootloader/optee-os-custom/lib/libutee/tee_api_objects.c:115
    12c6:	f000 fbea 	bl	1a9e <__utee_check_inout_annotation>
/home/aom1/Work/Linux/target/STM32MP1-DK2/bootloader/optee-os-custom/lib/libutee/tee_api_objects.c:117
    12ca:	a903      	add	r1, sp, #12
    12cc:	4630      	mov	r0, r6
    12ce:	f000 eda6 	blx	1e1c <_utee_cryp_obj_get_info>
/home/aom1/Work/Linux/target/STM32MP1-DK2/bootloader/optee-os-custom/lib/libutee/tee_api_objects.c:118
    12d2:	4604      	mov	r4, r0
    12d4:	b970      	cbnz	r0, 12f4 <TEE_GetObjectBufferAttribute+0x40>
/home/aom1/Work/Linux/target/STM32MP1-DK2/bootloader/optee-os-custom/lib/libutee/tee_api_objects.c:122
    12d6:	00bb      	lsls	r3, r7, #2
    12d8:	d422      	bmi.n	1320 <TEE_GetObjectBufferAttribute+0x6c>
/home/aom1/Work/Linux/target/STM32MP1-DK2/bootloader/optee-os-custom/lib/libutee/tee_api_objects.c:127
    12da:	682b      	ldr	r3, [r5, #0]
/home/aom1/Work/Linux/target/STM32MP1-DK2/bootloader/optee-os-custom/lib/libutee/tee_api_objects.c:128
    12dc:	4642      	mov	r2, r8
    12de:	4639      	mov	r1, r7
/home/aom1/Work/Linux/target/STM32MP1-DK2/bootloader/optee-os-custom/lib/libutee/tee_api_objects.c:127
    12e0:	e9cd 3000 	strd	r3, r0, [sp]
/home/aom1/Work/Linux/target/STM32MP1-DK2/bootloader/optee-os-custom/lib/libutee/tee_api_objects.c:128
    12e4:	466b      	mov	r3, sp
    12e6:	4630      	mov	r0, r6
    12e8:	f000 edac 	blx	1e44 <_utee_cryp_obj_get_attr>
/home/aom1/Work/Linux/target/STM32MP1-DK2/bootloader/optee-os-custom/lib/libutee/tee_api_objects.c:130
    12ec:	9b00      	ldr	r3, [sp, #0]
/home/aom1/Work/Linux/target/STM32MP1-DK2/bootloader/optee-os-custom/lib/libutee/tee_api_objects.c:133
    12ee:	4604      	mov	r4, r0
/home/aom1/Work/Linux/target/STM32MP1-DK2/bootloader/optee-os-custom/lib/libutee/tee_api_objects.c:130
    12f0:	602b      	str	r3, [r5, #0]
/home/aom1/Work/Linux/target/STM32MP1-DK2/bootloader/optee-os-custom/lib/libutee/tee_api_objects.c:133
    12f2:	b188      	cbz	r0, 1318 <TEE_GetObjectBufferAttribute+0x64>
    12f4:	4b0b      	ldr	r3, [pc, #44]	; (1324 <TEE_GetObjectBufferAttribute+0x70>)
    12f6:	429c      	cmp	r4, r3
    12f8:	d00e      	beq.n	1318 <TEE_GetObjectBufferAttribute+0x64>
/home/aom1/Work/Linux/target/STM32MP1-DK2/bootloader/optee-os-custom/lib/libutee/tee_api_objects.c:134
    12fa:	3308      	adds	r3, #8
    12fc:	429c      	cmp	r4, r3
    12fe:	d00b      	beq.n	1318 <TEE_GetObjectBufferAttribute+0x64>
/home/aom1/Work/Linux/target/STM32MP1-DK2/bootloader/optee-os-custom/lib/libutee/tee_api_objects.c:135
    1300:	f1a3 637e 	sub.w	r3, r3, #266338304	; 0xfe00000
    1304:	f1a3 130f 	sub.w	r3, r3, #983055	; 0xf000f
    1308:	429c      	cmp	r4, r3
    130a:	d005      	beq.n	1318 <TEE_GetObjectBufferAttribute+0x64>
/home/aom1/Work/Linux/target/STM32MP1-DK2/bootloader/optee-os-custom/lib/libutee/tee_api_objects.c:136
    130c:	3302      	adds	r3, #2
    130e:	429c      	cmp	r4, r3
    1310:	d002      	beq.n	1318 <TEE_GetObjectBufferAttribute+0x64>
/home/aom1/Work/Linux/target/STM32MP1-DK2/bootloader/optee-os-custom/lib/libutee/tee_api_objects.c:138
    1312:	4620      	mov	r0, r4
    1314:	f000 fb70 	bl	19f8 <TEE_Panic>
/home/aom1/Work/Linux/target/STM32MP1-DK2/bootloader/optee-os-custom/lib/libutee/tee_api_objects.c:141
    1318:	4620      	mov	r0, r4
    131a:	b00a      	add	sp, #40	; 0x28
    131c:	e8bd 81f0 	ldmia.w	sp!, {r4, r5, r6, r7, r8, pc}
/home/aom1/Work/Linux/target/STM32MP1-DK2/bootloader/optee-os-custom/lib/libutee/tee_api_objects.c:123
    1320:	4c01      	ldr	r4, [pc, #4]	; (1328 <TEE_GetObjectBufferAttribute+0x74>)
    1322:	e7f6      	b.n	1312 <TEE_GetObjectBufferAttribute+0x5e>
    1324:	ffff0008 	.word	0xffff0008
    1328:	ffff0006 	.word	0xffff0006

0000132c <TEE_GetObjectValueAttribute>:
TEE_GetObjectValueAttribute():
/home/aom1/Work/Linux/target/STM32MP1-DK2/bootloader/optee-os-custom/lib/libutee/tee_api_objects.c:146
    132c:	e92d 41f0 	stmdb	sp!, {r4, r5, r6, r7, r8, lr}
    1330:	b08c      	sub	sp, #48	; 0x30
    1332:	4607      	mov	r7, r0
    1334:	4688      	mov	r8, r1
/home/aom1/Work/Linux/target/STM32MP1-DK2/bootloader/optee-os-custom/lib/libutee/tee_api_objects.c:150
    1336:	2008      	movs	r0, #8
    1338:	2100      	movs	r1, #0
/home/aom1/Work/Linux/target/STM32MP1-DK2/bootloader/optee-os-custom/lib/libutee/tee_api_objects.c:146
    133a:	461d      	mov	r5, r3
/home/aom1/Work/Linux/target/STM32MP1-DK2/bootloader/optee-os-custom/lib/libutee/tee_api_objects.c:152
    133c:	4616      	mov	r6, r2
/home/aom1/Work/Linux/target/STM32MP1-DK2/bootloader/optee-os-custom/lib/libutee/tee_api_objects.c:150
    133e:	e9cd 0100 	strd	r0, r1, [sp]
/home/aom1/Work/Linux/target/STM32MP1-DK2/bootloader/optee-os-custom/lib/libutee/tee_api_objects.c:152
    1342:	b11a      	cbz	r2, 134c <TEE_GetObjectValueAttribute+0x20>
/home/aom1/Work/Linux/target/STM32MP1-DK2/bootloader/optee-os-custom/lib/libutee/tee_api_objects.c:153
    1344:	2104      	movs	r1, #4
    1346:	4610      	mov	r0, r2
    1348:	f000 fb96 	bl	1a78 <__utee_check_out_annotation>
/home/aom1/Work/Linux/target/STM32MP1-DK2/bootloader/optee-os-custom/lib/libutee/tee_api_objects.c:154
    134c:	b11d      	cbz	r5, 1356 <TEE_GetObjectValueAttribute+0x2a>
/home/aom1/Work/Linux/target/STM32MP1-DK2/bootloader/optee-os-custom/lib/libutee/tee_api_objects.c:155
    134e:	2104      	movs	r1, #4
    1350:	4628      	mov	r0, r5
    1352:	f000 fb91 	bl	1a78 <__utee_check_out_annotation>
/home/aom1/Work/Linux/target/STM32MP1-DK2/bootloader/optee-os-custom/lib/libutee/tee_api_objects.c:157
    1356:	a905      	add	r1, sp, #20
    1358:	4638      	mov	r0, r7
    135a:	f000 ed60 	blx	1e1c <_utee_cryp_obj_get_info>
/home/aom1/Work/Linux/target/STM32MP1-DK2/bootloader/optee-os-custom/lib/libutee/tee_api_objects.c:158
    135e:	4604      	mov	r4, r0
    1360:	b950      	cbnz	r0, 1378 <TEE_GetObjectValueAttribute+0x4c>
/home/aom1/Work/Linux/target/STM32MP1-DK2/bootloader/optee-os-custom/lib/libutee/tee_api_objects.c:162
    1362:	f018 5f00 	tst.w	r8, #536870912	; 0x20000000
    1366:	d026      	beq.n	13b6 <TEE_GetObjectValueAttribute+0x8a>
/home/aom1/Work/Linux/target/STM32MP1-DK2/bootloader/optee-os-custom/lib/libutee/tee_api_objects.c:167
    1368:	466b      	mov	r3, sp
    136a:	aa03      	add	r2, sp, #12
    136c:	4641      	mov	r1, r8
    136e:	4638      	mov	r0, r7
    1370:	f000 ed68 	blx	1e44 <_utee_cryp_obj_get_attr>
/home/aom1/Work/Linux/target/STM32MP1-DK2/bootloader/optee-os-custom/lib/libutee/tee_api_objects.c:171
    1374:	4604      	mov	r4, r0
    1376:	b158      	cbz	r0, 1390 <TEE_GetObjectValueAttribute+0x64>
    1378:	4b10      	ldr	r3, [pc, #64]	; (13bc <TEE_GetObjectValueAttribute+0x90>)
    137a:	429c      	cmp	r4, r3
    137c:	d008      	beq.n	1390 <TEE_GetObjectValueAttribute+0x64>
/home/aom1/Work/Linux/target/STM32MP1-DK2/bootloader/optee-os-custom/lib/libutee/tee_api_objects.c:172
    137e:	4b10      	ldr	r3, [pc, #64]	; (13c0 <TEE_GetObjectValueAttribute+0x94>)
    1380:	429c      	cmp	r4, r3
    1382:	d005      	beq.n	1390 <TEE_GetObjectValueAttribute+0x64>
/home/aom1/Work/Linux/target/STM32MP1-DK2/bootloader/optee-os-custom/lib/libutee/tee_api_objects.c:173
    1384:	3302      	adds	r3, #2
    1386:	429c      	cmp	r4, r3
    1388:	d002      	beq.n	1390 <TEE_GetObjectValueAttribute+0x64>
/home/aom1/Work/Linux/target/STM32MP1-DK2/bootloader/optee-os-custom/lib/libutee/tee_api_objects.c:175
    138a:	4620      	mov	r0, r4
    138c:	f000 fb34 	bl	19f8 <TEE_Panic>
/home/aom1/Work/Linux/target/STM32MP1-DK2/bootloader/optee-os-custom/lib/libutee/tee_api_objects.c:177
    1390:	9b00      	ldr	r3, [sp, #0]
    1392:	9a01      	ldr	r2, [sp, #4]
    1394:	3b08      	subs	r3, #8
    1396:	4313      	orrs	r3, r2
    1398:	d002      	beq.n	13a0 <TEE_GetObjectValueAttribute+0x74>
/home/aom1/Work/Linux/target/STM32MP1-DK2/bootloader/optee-os-custom/lib/libutee/tee_api_objects.c:178
    139a:	2000      	movs	r0, #0
    139c:	f000 fb2c 	bl	19f8 <TEE_Panic>
/home/aom1/Work/Linux/target/STM32MP1-DK2/bootloader/optee-os-custom/lib/libutee/tee_api_objects.c:180
    13a0:	b92c      	cbnz	r4, 13ae <TEE_GetObjectValueAttribute+0x82>
/home/aom1/Work/Linux/target/STM32MP1-DK2/bootloader/optee-os-custom/lib/libutee/tee_api_objects.c:181
    13a2:	b10e      	cbz	r6, 13a8 <TEE_GetObjectValueAttribute+0x7c>
/home/aom1/Work/Linux/target/STM32MP1-DK2/bootloader/optee-os-custom/lib/libutee/tee_api_objects.c:182
    13a4:	9b03      	ldr	r3, [sp, #12]
    13a6:	6033      	str	r3, [r6, #0]
/home/aom1/Work/Linux/target/STM32MP1-DK2/bootloader/optee-os-custom/lib/libutee/tee_api_objects.c:183
    13a8:	b10d      	cbz	r5, 13ae <TEE_GetObjectValueAttribute+0x82>
/home/aom1/Work/Linux/target/STM32MP1-DK2/bootloader/optee-os-custom/lib/libutee/tee_api_objects.c:184
    13aa:	9b04      	ldr	r3, [sp, #16]
    13ac:	602b      	str	r3, [r5, #0]
/home/aom1/Work/Linux/target/STM32MP1-DK2/bootloader/optee-os-custom/lib/libutee/tee_api_objects.c:188
    13ae:	4620      	mov	r0, r4
    13b0:	b00c      	add	sp, #48	; 0x30
    13b2:	e8bd 81f0 	ldmia.w	sp!, {r4, r5, r6, r7, r8, pc}
/home/aom1/Work/Linux/target/STM32MP1-DK2/bootloader/optee-os-custom/lib/libutee/tee_api_objects.c:163
    13b6:	4c03      	ldr	r4, [pc, #12]	; (13c4 <TEE_GetObjectValueAttribute+0x98>)
    13b8:	e7e7      	b.n	138a <TEE_GetObjectValueAttribute+0x5e>
    13ba:	bf00      	nop
    13bc:	ffff0008 	.word	0xffff0008
    13c0:	f0100001 	.word	0xf0100001
    13c4:	ffff0006 	.word	0xffff0006

000013c8 <TEE_CloseObject>:
TEE_CloseObject():
/home/aom1/Work/Linux/target/STM32MP1-DK2/bootloader/optee-os-custom/lib/libutee/tee_api_objects.c:191
    13c8:	b508      	push	{r3, lr}
/home/aom1/Work/Linux/target/STM32MP1-DK2/bootloader/optee-os-custom/lib/libutee/tee_api_objects.c:194
    13ca:	b130      	cbz	r0, 13da <TEE_CloseObject+0x12>
/home/aom1/Work/Linux/target/STM32MP1-DK2/bootloader/optee-os-custom/lib/libutee/tee_api_objects.c:197
    13cc:	f000 ed4e 	blx	1e6c <_utee_cryp_obj_close>
/home/aom1/Work/Linux/target/STM32MP1-DK2/bootloader/optee-os-custom/lib/libutee/tee_api_objects.c:198
    13d0:	b118      	cbz	r0, 13da <TEE_CloseObject+0x12>
/home/aom1/Work/Linux/target/STM32MP1-DK2/bootloader/optee-os-custom/lib/libutee/tee_api_objects.c:200
    13d2:	e8bd 4008 	ldmia.w	sp!, {r3, lr}
/home/aom1/Work/Linux/target/STM32MP1-DK2/bootloader/optee-os-custom/lib/libutee/tee_api_objects.c:199
    13d6:	f000 bb0f 	b.w	19f8 <TEE_Panic>
/home/aom1/Work/Linux/target/STM32MP1-DK2/bootloader/optee-os-custom/lib/libutee/tee_api_objects.c:200
    13da:	bd08      	pop	{r3, pc}

000013dc <TEE_AllocateTransientObject>:
TEE_AllocateTransientObject():
/home/aom1/Work/Linux/target/STM32MP1-DK2/bootloader/optee-os-custom/lib/libutee/tee_api_objects.c:207
    13dc:	b573      	push	{r0, r1, r4, r5, r6, lr}
    13de:	4604      	mov	r4, r0
    13e0:	460e      	mov	r6, r1
/home/aom1/Work/Linux/target/STM32MP1-DK2/bootloader/optee-os-custom/lib/libutee/tee_api_objects.c:211
    13e2:	4610      	mov	r0, r2
    13e4:	2104      	movs	r1, #4
/home/aom1/Work/Linux/target/STM32MP1-DK2/bootloader/optee-os-custom/lib/libutee/tee_api_objects.c:207
    13e6:	4615      	mov	r5, r2
/home/aom1/Work/Linux/target/STM32MP1-DK2/bootloader/optee-os-custom/lib/libutee/tee_api_objects.c:211
    13e8:	f000 fb46 	bl	1a78 <__utee_check_out_annotation>
/home/aom1/Work/Linux/target/STM32MP1-DK2/bootloader/optee-os-custom/lib/libutee/tee_api_objects.c:213
    13ec:	4620      	mov	r0, r4
    13ee:	aa01      	add	r2, sp, #4
    13f0:	4631      	mov	r1, r6
    13f2:	f000 ed32 	blx	1e58 <_utee_cryp_obj_alloc>
/home/aom1/Work/Linux/target/STM32MP1-DK2/bootloader/optee-os-custom/lib/libutee/tee_api_objects.c:215
    13f6:	4604      	mov	r4, r0
    13f8:	b150      	cbz	r0, 1410 <TEE_AllocateTransientObject+0x34>
/home/aom1/Work/Linux/target/STM32MP1-DK2/bootloader/optee-os-custom/lib/libutee/tee_api_objects.c:215 (discriminator 1)
    13fa:	4b07      	ldr	r3, [pc, #28]	; (1418 <TEE_AllocateTransientObject+0x3c>)
    13fc:	4298      	cmp	r0, r3
    13fe:	d004      	beq.n	140a <TEE_AllocateTransientObject+0x2e>
/home/aom1/Work/Linux/target/STM32MP1-DK2/bootloader/optee-os-custom/lib/libutee/tee_api_objects.c:216
    1400:	3b02      	subs	r3, #2
    1402:	4298      	cmp	r0, r3
    1404:	d001      	beq.n	140a <TEE_AllocateTransientObject+0x2e>
/home/aom1/Work/Linux/target/STM32MP1-DK2/bootloader/optee-os-custom/lib/libutee/tee_api_objects.c:218
    1406:	f000 faf7 	bl	19f8 <TEE_Panic>
/home/aom1/Work/Linux/target/STM32MP1-DK2/bootloader/optee-os-custom/lib/libutee/tee_api_objects.c:224
    140a:	4620      	mov	r0, r4
    140c:	b002      	add	sp, #8
    140e:	bd70      	pop	{r4, r5, r6, pc}
/home/aom1/Work/Linux/target/STM32MP1-DK2/bootloader/optee-os-custom/lib/libutee/tee_api_objects.c:221
    1410:	9b01      	ldr	r3, [sp, #4]
    1412:	602b      	str	r3, [r5, #0]
    1414:	e7f9      	b.n	140a <TEE_AllocateTransientObject+0x2e>
    1416:	bf00      	nop
    1418:	ffff000c 	.word	0xffff000c

0000141c <TEE_FreeTransientObject>:
TEE_FreeTransientObject():
/home/aom1/Work/Linux/target/STM32MP1-DK2/bootloader/optee-os-custom/lib/libutee/tee_api_objects.c:227
    141c:	b510      	push	{r4, lr}
/home/aom1/Work/Linux/target/STM32MP1-DK2/bootloader/optee-os-custom/lib/libutee/tee_api_objects.c:231
    141e:	4604      	mov	r4, r0
/home/aom1/Work/Linux/target/STM32MP1-DK2/bootloader/optee-os-custom/lib/libutee/tee_api_objects.c:227
    1420:	b088      	sub	sp, #32
/home/aom1/Work/Linux/target/STM32MP1-DK2/bootloader/optee-os-custom/lib/libutee/tee_api_objects.c:231
    1422:	b188      	cbz	r0, 1448 <TEE_FreeTransientObject+0x2c>
/home/aom1/Work/Linux/target/STM32MP1-DK2/bootloader/optee-os-custom/lib/libutee/tee_api_objects.c:234
    1424:	a901      	add	r1, sp, #4
    1426:	f000 ecfa 	blx	1e1c <_utee_cryp_obj_get_info>
/home/aom1/Work/Linux/target/STM32MP1-DK2/bootloader/optee-os-custom/lib/libutee/tee_api_objects.c:235
    142a:	b108      	cbz	r0, 1430 <TEE_FreeTransientObject+0x14>
/home/aom1/Work/Linux/target/STM32MP1-DK2/bootloader/optee-os-custom/lib/libutee/tee_api_objects.c:236
    142c:	f000 fae4 	bl	19f8 <TEE_Panic>
/home/aom1/Work/Linux/target/STM32MP1-DK2/bootloader/optee-os-custom/lib/libutee/tee_api_objects.c:238
    1430:	9b07      	ldr	r3, [sp, #28]
    1432:	03db      	lsls	r3, r3, #15
    1434:	d502      	bpl.n	143c <TEE_FreeTransientObject+0x20>
/home/aom1/Work/Linux/target/STM32MP1-DK2/bootloader/optee-os-custom/lib/libutee/tee_api_objects.c:239
    1436:	2000      	movs	r0, #0
    1438:	f000 fade 	bl	19f8 <TEE_Panic>
/home/aom1/Work/Linux/target/STM32MP1-DK2/bootloader/optee-os-custom/lib/libutee/tee_api_objects.c:241
    143c:	4620      	mov	r0, r4
    143e:	f000 ed16 	blx	1e6c <_utee_cryp_obj_close>
/home/aom1/Work/Linux/target/STM32MP1-DK2/bootloader/optee-os-custom/lib/libutee/tee_api_objects.c:242
    1442:	b108      	cbz	r0, 1448 <TEE_FreeTransientObject+0x2c>
/home/aom1/Work/Linux/target/STM32MP1-DK2/bootloader/optee-os-custom/lib/libutee/tee_api_objects.c:243
    1444:	f000 fad8 	bl	19f8 <TEE_Panic>
/home/aom1/Work/Linux/target/STM32MP1-DK2/bootloader/optee-os-custom/lib/libutee/tee_api_objects.c:244
    1448:	b008      	add	sp, #32
    144a:	bd10      	pop	{r4, pc}

0000144c <TEE_ResetTransientObject>:
TEE_ResetTransientObject():
/home/aom1/Work/Linux/target/STM32MP1-DK2/bootloader/optee-os-custom/lib/libutee/tee_api_objects.c:247
    144c:	b510      	push	{r4, lr}
/home/aom1/Work/Linux/target/STM32MP1-DK2/bootloader/optee-os-custom/lib/libutee/tee_api_objects.c:251
    144e:	4604      	mov	r4, r0
/home/aom1/Work/Linux/target/STM32MP1-DK2/bootloader/optee-os-custom/lib/libutee/tee_api_objects.c:247
    1450:	b088      	sub	sp, #32
/home/aom1/Work/Linux/target/STM32MP1-DK2/bootloader/optee-os-custom/lib/libutee/tee_api_objects.c:251
    1452:	b188      	cbz	r0, 1478 <TEE_ResetTransientObject+0x2c>
/home/aom1/Work/Linux/target/STM32MP1-DK2/bootloader/optee-os-custom/lib/libutee/tee_api_objects.c:254
    1454:	a901      	add	r1, sp, #4
    1456:	f000 ece2 	blx	1e1c <_utee_cryp_obj_get_info>
/home/aom1/Work/Linux/target/STM32MP1-DK2/bootloader/optee-os-custom/lib/libutee/tee_api_objects.c:255
    145a:	b108      	cbz	r0, 1460 <TEE_ResetTransientObject+0x14>
/home/aom1/Work/Linux/target/STM32MP1-DK2/bootloader/optee-os-custom/lib/libutee/tee_api_objects.c:256
    145c:	f000 facc 	bl	19f8 <TEE_Panic>
/home/aom1/Work/Linux/target/STM32MP1-DK2/bootloader/optee-os-custom/lib/libutee/tee_api_objects.c:258
    1460:	9b07      	ldr	r3, [sp, #28]
    1462:	03db      	lsls	r3, r3, #15
    1464:	d502      	bpl.n	146c <TEE_ResetTransientObject+0x20>
/home/aom1/Work/Linux/target/STM32MP1-DK2/bootloader/optee-os-custom/lib/libutee/tee_api_objects.c:259
    1466:	2000      	movs	r0, #0
    1468:	f000 fac6 	bl	19f8 <TEE_Panic>
/home/aom1/Work/Linux/target/STM32MP1-DK2/bootloader/optee-os-custom/lib/libutee/tee_api_objects.c:261
    146c:	4620      	mov	r0, r4
    146e:	f000 ed08 	blx	1e80 <_utee_cryp_obj_reset>
/home/aom1/Work/Linux/target/STM32MP1-DK2/bootloader/optee-os-custom/lib/libutee/tee_api_objects.c:262
    1472:	b108      	cbz	r0, 1478 <TEE_ResetTransientObject+0x2c>
/home/aom1/Work/Linux/target/STM32MP1-DK2/bootloader/optee-os-custom/lib/libutee/tee_api_objects.c:263
    1474:	f000 fac0 	bl	19f8 <TEE_Panic>
/home/aom1/Work/Linux/target/STM32MP1-DK2/bootloader/optee-os-custom/lib/libutee/tee_api_objects.c:264
    1478:	b008      	add	sp, #32
    147a:	bd10      	pop	{r4, pc}

0000147c <TEE_PopulateTransientObject>:
TEE_PopulateTransientObject():
/home/aom1/Work/Linux/target/STM32MP1-DK2/bootloader/optee-os-custom/lib/libutee/tee_api_objects.c:269
    147c:	e92d 41f0 	stmdb	sp!, {r4, r5, r6, r7, r8, lr}
    1480:	b088      	sub	sp, #32
    1482:	4614      	mov	r4, r2
/home/aom1/Work/Linux/target/STM32MP1-DK2/bootloader/optee-os-custom/lib/libutee/tee_api_objects.c:272
    1484:	2318      	movs	r3, #24
    1486:	466a      	mov	r2, sp
/home/aom1/Work/Linux/target/STM32MP1-DK2/bootloader/optee-os-custom/lib/libutee/tee_api_objects.c:269
    1488:	460e      	mov	r6, r1
/home/aom1/Work/Linux/target/STM32MP1-DK2/bootloader/optee-os-custom/lib/libutee/tee_api_objects.c:272
    148a:	fb03 2314 	mls	r3, r3, r4, r2
/home/aom1/Work/Linux/target/STM32MP1-DK2/bootloader/optee-os-custom/lib/libutee/tee_api_objects.c:269
    148e:	af00      	add	r7, sp, #0
    1490:	4605      	mov	r5, r0
/home/aom1/Work/Linux/target/STM32MP1-DK2/bootloader/optee-os-custom/lib/libutee/tee_api_objects.c:272
    1492:	469d      	mov	sp, r3
/home/aom1/Work/Linux/target/STM32MP1-DK2/bootloader/optee-os-custom/lib/libutee/tee_api_objects.c:274
    1494:	4621      	mov	r1, r4
    1496:	4630      	mov	r0, r6
/home/aom1/Work/Linux/target/STM32MP1-DK2/bootloader/optee-os-custom/lib/libutee/tee_api_objects.c:272
    1498:	46e8      	mov	r8, sp
/home/aom1/Work/Linux/target/STM32MP1-DK2/bootloader/optee-os-custom/lib/libutee/tee_api_objects.c:274
    149a:	f000 faf6 	bl	1a8a <__utee_check_attr_in_annotation>
/home/aom1/Work/Linux/target/STM32MP1-DK2/bootloader/optee-os-custom/lib/libutee/tee_api_objects.c:276
    149e:	1d39      	adds	r1, r7, #4
    14a0:	4628      	mov	r0, r5
    14a2:	f000 ecbc 	blx	1e1c <_utee_cryp_obj_get_info>
/home/aom1/Work/Linux/target/STM32MP1-DK2/bootloader/optee-os-custom/lib/libutee/tee_api_objects.c:277
    14a6:	b108      	cbz	r0, 14ac <TEE_PopulateTransientObject+0x30>
/home/aom1/Work/Linux/target/STM32MP1-DK2/bootloader/optee-os-custom/lib/libutee/tee_api_objects.c:278
    14a8:	f000 faa6 	bl	19f8 <TEE_Panic>
/home/aom1/Work/Linux/target/STM32MP1-DK2/bootloader/optee-os-custom/lib/libutee/tee_api_objects.c:281
    14ac:	69fb      	ldr	r3, [r7, #28]
    14ae:	03da      	lsls	r2, r3, #15
    14b0:	d502      	bpl.n	14b8 <TEE_PopulateTransientObject+0x3c>
/home/aom1/Work/Linux/target/STM32MP1-DK2/bootloader/optee-os-custom/lib/libutee/tee_api_objects.c:282
    14b2:	2000      	movs	r0, #0
    14b4:	f000 faa0 	bl	19f8 <TEE_Panic>
/home/aom1/Work/Linux/target/STM32MP1-DK2/bootloader/optee-os-custom/lib/libutee/tee_api_objects.c:285
    14b8:	69fb      	ldr	r3, [r7, #28]
    14ba:	039b      	lsls	r3, r3, #14
    14bc:	d502      	bpl.n	14c4 <TEE_PopulateTransientObject+0x48>
/home/aom1/Work/Linux/target/STM32MP1-DK2/bootloader/optee-os-custom/lib/libutee/tee_api_objects.c:286
    14be:	2000      	movs	r0, #0
    14c0:	f000 fa9a 	bl	19f8 <TEE_Panic>
/home/aom1/Work/Linux/target/STM32MP1-DK2/bootloader/optee-os-custom/lib/libutee/tee_api_objects.c:288
    14c4:	4622      	mov	r2, r4
    14c6:	4631      	mov	r1, r6
    14c8:	4640      	mov	r0, r8
    14ca:	f7ff fe93 	bl	11f4 <__utee_from_attr>
/home/aom1/Work/Linux/target/STM32MP1-DK2/bootloader/optee-os-custom/lib/libutee/tee_api_objects.c:289
    14ce:	4622      	mov	r2, r4
    14d0:	4641      	mov	r1, r8
    14d2:	4628      	mov	r0, r5
    14d4:	f000 ecde 	blx	1e94 <_utee_cryp_obj_populate>
/home/aom1/Work/Linux/target/STM32MP1-DK2/bootloader/optee-os-custom/lib/libutee/tee_api_objects.c:290
    14d8:	4604      	mov	r4, r0
    14da:	b120      	cbz	r0, 14e6 <TEE_PopulateTransientObject+0x6a>
/home/aom1/Work/Linux/target/STM32MP1-DK2/bootloader/optee-os-custom/lib/libutee/tee_api_objects.c:290 (discriminator 1)
    14dc:	4b04      	ldr	r3, [pc, #16]	; (14f0 <TEE_PopulateTransientObject+0x74>)
    14de:	4298      	cmp	r0, r3
    14e0:	d001      	beq.n	14e6 <TEE_PopulateTransientObject+0x6a>
/home/aom1/Work/Linux/target/STM32MP1-DK2/bootloader/optee-os-custom/lib/libutee/tee_api_objects.c:291
    14e2:	f000 fa89 	bl	19f8 <TEE_Panic>
/home/aom1/Work/Linux/target/STM32MP1-DK2/bootloader/optee-os-custom/lib/libutee/tee_api_objects.c:293
    14e6:	4620      	mov	r0, r4
    14e8:	3720      	adds	r7, #32
    14ea:	46bd      	mov	sp, r7
    14ec:	e8bd 81f0 	ldmia.w	sp!, {r4, r5, r6, r7, r8, pc}
    14f0:	ffff0006 	.word	0xffff0006

000014f4 <TEE_InitRefAttribute>:
TEE_InitRefAttribute():
/home/aom1/Work/Linux/target/STM32MP1-DK2/bootloader/optee-os-custom/lib/libutee/tee_api_objects.c:297
    14f4:	b5f8      	push	{r3, r4, r5, r6, r7, lr}
    14f6:	460d      	mov	r5, r1
/home/aom1/Work/Linux/target/STM32MP1-DK2/bootloader/optee-os-custom/lib/libutee/tee_api_objects.c:298
    14f8:	210c      	movs	r1, #12
/home/aom1/Work/Linux/target/STM32MP1-DK2/bootloader/optee-os-custom/lib/libutee/tee_api_objects.c:297
    14fa:	461e      	mov	r6, r3
    14fc:	4604      	mov	r4, r0
    14fe:	4617      	mov	r7, r2
/home/aom1/Work/Linux/target/STM32MP1-DK2/bootloader/optee-os-custom/lib/libutee/tee_api_objects.c:298
    1500:	f000 faba 	bl	1a78 <__utee_check_out_annotation>
/home/aom1/Work/Linux/target/STM32MP1-DK2/bootloader/optee-os-custom/lib/libutee/tee_api_objects.c:300
    1504:	00ab      	lsls	r3, r5, #2
    1506:	d502      	bpl.n	150e <TEE_InitRefAttribute+0x1a>
/home/aom1/Work/Linux/target/STM32MP1-DK2/bootloader/optee-os-custom/lib/libutee/tee_api_objects.c:301
    1508:	2000      	movs	r0, #0
    150a:	f000 fa75 	bl	19f8 <TEE_Panic>
/home/aom1/Work/Linux/target/STM32MP1-DK2/bootloader/optee-os-custom/lib/libutee/tee_api_objects.c:303
    150e:	e9c4 5700 	strd	r5, r7, [r4]
/home/aom1/Work/Linux/target/STM32MP1-DK2/bootloader/optee-os-custom/lib/libutee/tee_api_objects.c:304
    1512:	60a6      	str	r6, [r4, #8]
/home/aom1/Work/Linux/target/STM32MP1-DK2/bootloader/optee-os-custom/lib/libutee/tee_api_objects.c:305
    1514:	bdf8      	pop	{r3, r4, r5, r6, r7, pc}

00001516 <TEE_InitValueAttribute>:
TEE_InitValueAttribute():
/home/aom1/Work/Linux/target/STM32MP1-DK2/bootloader/optee-os-custom/lib/libutee/tee_api_objects.c:309
    1516:	b5f8      	push	{r3, r4, r5, r6, r7, lr}
    1518:	460d      	mov	r5, r1
/home/aom1/Work/Linux/target/STM32MP1-DK2/bootloader/optee-os-custom/lib/libutee/tee_api_objects.c:310
    151a:	210c      	movs	r1, #12
/home/aom1/Work/Linux/target/STM32MP1-DK2/bootloader/optee-os-custom/lib/libutee/tee_api_objects.c:309
    151c:	4604      	mov	r4, r0
    151e:	4617      	mov	r7, r2
    1520:	461e      	mov	r6, r3
/home/aom1/Work/Linux/target/STM32MP1-DK2/bootloader/optee-os-custom/lib/libutee/tee_api_objects.c:310
    1522:	f000 faa9 	bl	1a78 <__utee_check_out_annotation>
/home/aom1/Work/Linux/target/STM32MP1-DK2/bootloader/optee-os-custom/lib/libutee/tee_api_objects.c:312
    1526:	f015 5000 	ands.w	r0, r5, #536870912	; 0x20000000
    152a:	d101      	bne.n	1530 <TEE_InitValueAttribute+0x1a>
/home/aom1/Work/Linux/target/STM32MP1-DK2/bootloader/optee-os-custom/lib/libutee/tee_api_objects.c:313
    152c:	f000 fa64 	bl	19f8 <TEE_Panic>
/home/aom1/Work/Linux/target/STM32MP1-DK2/bootloader/optee-os-custom/lib/libutee/tee_api_objects.c:315
    1530:	e9c4 5700 	strd	r5, r7, [r4]
/home/aom1/Work/Linux/target/STM32MP1-DK2/bootloader/optee-os-custom/lib/libutee/tee_api_objects.c:316
    1534:	60a6      	str	r6, [r4, #8]
/home/aom1/Work/Linux/target/STM32MP1-DK2/bootloader/optee-os-custom/lib/libutee/tee_api_objects.c:317
    1536:	bdf8      	pop	{r3, r4, r5, r6, r7, pc}

00001538 <TEE_CopyObjectAttributes1>:
TEE_CopyObjectAttributes1():
/home/aom1/Work/Linux/target/STM32MP1-DK2/bootloader/optee-os-custom/lib/libutee/tee_api_objects.c:342
    1538:	b570      	push	{r4, r5, r6, lr}
    153a:	b08e      	sub	sp, #56	; 0x38
    153c:	460d      	mov	r5, r1
/home/aom1/Work/Linux/target/STM32MP1-DK2/bootloader/optee-os-custom/lib/libutee/tee_api_objects.c:347
    153e:	4669      	mov	r1, sp
/home/aom1/Work/Linux/target/STM32MP1-DK2/bootloader/optee-os-custom/lib/libutee/tee_api_objects.c:342
    1540:	4606      	mov	r6, r0
/home/aom1/Work/Linux/target/STM32MP1-DK2/bootloader/optee-os-custom/lib/libutee/tee_api_objects.c:347
    1542:	f000 ec6c 	blx	1e1c <_utee_cryp_obj_get_info>
/home/aom1/Work/Linux/target/STM32MP1-DK2/bootloader/optee-os-custom/lib/libutee/tee_api_objects.c:348
    1546:	4604      	mov	r4, r0
    1548:	b9e0      	cbnz	r0, 1584 <TEE_CopyObjectAttributes1+0x4c>
/home/aom1/Work/Linux/target/STM32MP1-DK2/bootloader/optee-os-custom/lib/libutee/tee_api_objects.c:351
    154a:	a907      	add	r1, sp, #28
    154c:	4628      	mov	r0, r5
    154e:	f000 ec66 	blx	1e1c <_utee_cryp_obj_get_info>
/home/aom1/Work/Linux/target/STM32MP1-DK2/bootloader/optee-os-custom/lib/libutee/tee_api_objects.c:352
    1552:	4604      	mov	r4, r0
    1554:	b9b0      	cbnz	r0, 1584 <TEE_CopyObjectAttributes1+0x4c>
/home/aom1/Work/Linux/target/STM32MP1-DK2/bootloader/optee-os-custom/lib/libutee/tee_api_objects.c:355
    1556:	9b0d      	ldr	r3, [sp, #52]	; 0x34
    1558:	0399      	lsls	r1, r3, #14
    155a:	d401      	bmi.n	1560 <TEE_CopyObjectAttributes1+0x28>
/home/aom1/Work/Linux/target/STM32MP1-DK2/bootloader/optee-os-custom/lib/libutee/tee_api_objects.c:356
    155c:	f000 fa4c 	bl	19f8 <TEE_Panic>
/home/aom1/Work/Linux/target/STM32MP1-DK2/bootloader/optee-os-custom/lib/libutee/tee_api_objects.c:358
    1560:	9b06      	ldr	r3, [sp, #24]
    1562:	03da      	lsls	r2, r3, #15
    1564:	d502      	bpl.n	156c <TEE_CopyObjectAttributes1+0x34>
/home/aom1/Work/Linux/target/STM32MP1-DK2/bootloader/optee-os-custom/lib/libutee/tee_api_objects.c:359
    1566:	2000      	movs	r0, #0
    1568:	f000 fa46 	bl	19f8 <TEE_Panic>
/home/aom1/Work/Linux/target/STM32MP1-DK2/bootloader/optee-os-custom/lib/libutee/tee_api_objects.c:361
    156c:	9b06      	ldr	r3, [sp, #24]
    156e:	039b      	lsls	r3, r3, #14
    1570:	d502      	bpl.n	1578 <TEE_CopyObjectAttributes1+0x40>
/home/aom1/Work/Linux/target/STM32MP1-DK2/bootloader/optee-os-custom/lib/libutee/tee_api_objects.c:362
    1572:	2000      	movs	r0, #0
    1574:	f000 fa40 	bl	19f8 <TEE_Panic>
/home/aom1/Work/Linux/target/STM32MP1-DK2/bootloader/optee-os-custom/lib/libutee/tee_api_objects.c:364
    1578:	4629      	mov	r1, r5
    157a:	4630      	mov	r0, r6
    157c:	f000 ec94 	blx	1ea8 <_utee_cryp_obj_copy>
/home/aom1/Work/Linux/target/STM32MP1-DK2/bootloader/optee-os-custom/lib/libutee/tee_api_objects.c:368
    1580:	4604      	mov	r4, r0
    1582:	b140      	cbz	r0, 1596 <TEE_CopyObjectAttributes1+0x5e>
/home/aom1/Work/Linux/target/STM32MP1-DK2/bootloader/optee-os-custom/lib/libutee/tee_api_objects.c:368 (discriminator 1)
    1584:	4b05      	ldr	r3, [pc, #20]	; (159c <TEE_CopyObjectAttributes1+0x64>)
    1586:	429c      	cmp	r4, r3
    1588:	d005      	beq.n	1596 <TEE_CopyObjectAttributes1+0x5e>
/home/aom1/Work/Linux/target/STM32MP1-DK2/bootloader/optee-os-custom/lib/libutee/tee_api_objects.c:369
    158a:	3302      	adds	r3, #2
    158c:	429c      	cmp	r4, r3
    158e:	d002      	beq.n	1596 <TEE_CopyObjectAttributes1+0x5e>
/home/aom1/Work/Linux/target/STM32MP1-DK2/bootloader/optee-os-custom/lib/libutee/tee_api_objects.c:371
    1590:	4620      	mov	r0, r4
    1592:	f000 fa31 	bl	19f8 <TEE_Panic>
/home/aom1/Work/Linux/target/STM32MP1-DK2/bootloader/optee-os-custom/lib/libutee/tee_api_objects.c:374
    1596:	4620      	mov	r0, r4
    1598:	b00e      	add	sp, #56	; 0x38
    159a:	bd70      	pop	{r4, r5, r6, pc}
    159c:	f0100001 	.word	0xf0100001

000015a0 <TEE_CopyObjectAttributes>:
TEE_CopyObjectAttributes():
/home/aom1/Work/Linux/target/STM32MP1-DK2/bootloader/optee-os-custom/lib/libutee/tee_api_objects.c:327
    15a0:	b530      	push	{r4, r5, lr}
    15a2:	460c      	mov	r4, r1
    15a4:	b089      	sub	sp, #36	; 0x24
    15a6:	4605      	mov	r5, r0
/home/aom1/Work/Linux/target/STM32MP1-DK2/bootloader/optee-os-custom/lib/libutee/tee_api_objects.c:331
    15a8:	a901      	add	r1, sp, #4
    15aa:	4620      	mov	r0, r4
    15ac:	f000 ec36 	blx	1e1c <_utee_cryp_obj_get_info>
/home/aom1/Work/Linux/target/STM32MP1-DK2/bootloader/optee-os-custom/lib/libutee/tee_api_objects.c:332
    15b0:	4b06      	ldr	r3, [pc, #24]	; (15cc <TEE_CopyObjectAttributes+0x2c>)
    15b2:	9a01      	ldr	r2, [sp, #4]
    15b4:	429a      	cmp	r2, r3
    15b6:	d006      	beq.n	15c6 <TEE_CopyObjectAttributes+0x26>
/home/aom1/Work/Linux/target/STM32MP1-DK2/bootloader/optee-os-custom/lib/libutee/tee_api_objects.c:335
    15b8:	4621      	mov	r1, r4
    15ba:	4628      	mov	r0, r5
    15bc:	f7ff ffbc 	bl	1538 <TEE_CopyObjectAttributes1>
/home/aom1/Work/Linux/target/STM32MP1-DK2/bootloader/optee-os-custom/lib/libutee/tee_api_objects.c:336
    15c0:	b108      	cbz	r0, 15c6 <TEE_CopyObjectAttributes+0x26>
/home/aom1/Work/Linux/target/STM32MP1-DK2/bootloader/optee-os-custom/lib/libutee/tee_api_objects.c:337
    15c2:	f000 fa19 	bl	19f8 <TEE_Panic>
/home/aom1/Work/Linux/target/STM32MP1-DK2/bootloader/optee-os-custom/lib/libutee/tee_api_objects.c:338
    15c6:	b009      	add	sp, #36	; 0x24
    15c8:	bd30      	pop	{r4, r5, pc}
    15ca:	bf00      	nop
    15cc:	a00000be 	.word	0xa00000be

000015d0 <TEE_GenerateKey>:
TEE_GenerateKey():
/home/aom1/Work/Linux/target/STM32MP1-DK2/bootloader/optee-os-custom/lib/libutee/tee_api_objects.c:378
    15d0:	e92d 43f8 	stmdb	sp!, {r3, r4, r5, r6, r7, r8, r9, lr}
    15d4:	461c      	mov	r4, r3
    15d6:	4615      	mov	r5, r2
/home/aom1/Work/Linux/target/STM32MP1-DK2/bootloader/optee-os-custom/lib/libutee/tee_api_objects.c:380
    15d8:	2318      	movs	r3, #24
    15da:	466a      	mov	r2, sp
/home/aom1/Work/Linux/target/STM32MP1-DK2/bootloader/optee-os-custom/lib/libutee/tee_api_objects.c:378
    15dc:	af00      	add	r7, sp, #0
/home/aom1/Work/Linux/target/STM32MP1-DK2/bootloader/optee-os-custom/lib/libutee/tee_api_objects.c:380
    15de:	fb03 2314 	mls	r3, r3, r4, r2
/home/aom1/Work/Linux/target/STM32MP1-DK2/bootloader/optee-os-custom/lib/libutee/tee_api_objects.c:378
    15e2:	4606      	mov	r6, r0
    15e4:	4688      	mov	r8, r1
/home/aom1/Work/Linux/target/STM32MP1-DK2/bootloader/optee-os-custom/lib/libutee/tee_api_objects.c:380
    15e6:	469d      	mov	sp, r3
/home/aom1/Work/Linux/target/STM32MP1-DK2/bootloader/optee-os-custom/lib/libutee/tee_api_objects.c:382
    15e8:	4621      	mov	r1, r4
/home/aom1/Work/Linux/target/STM32MP1-DK2/bootloader/optee-os-custom/lib/libutee/tee_api_objects.c:380
    15ea:	46e9      	mov	r9, sp
/home/aom1/Work/Linux/target/STM32MP1-DK2/bootloader/optee-os-custom/lib/libutee/tee_api_objects.c:382
    15ec:	4628      	mov	r0, r5
    15ee:	f000 fa4c 	bl	1a8a <__utee_check_attr_in_annotation>
/home/aom1/Work/Linux/target/STM32MP1-DK2/bootloader/optee-os-custom/lib/libutee/tee_api_objects.c:384
    15f2:	4622      	mov	r2, r4
    15f4:	4629      	mov	r1, r5
    15f6:	4648      	mov	r0, r9
    15f8:	f7ff fdfc 	bl	11f4 <__utee_from_attr>
/home/aom1/Work/Linux/target/STM32MP1-DK2/bootloader/optee-os-custom/lib/libutee/tee_api_objects.c:385
    15fc:	4623      	mov	r3, r4
    15fe:	464a      	mov	r2, r9
    1600:	4641      	mov	r1, r8
    1602:	4630      	mov	r0, r6
    1604:	f000 ed46 	blx	2094 <_utee_cryp_obj_generate_key>
/home/aom1/Work/Linux/target/STM32MP1-DK2/bootloader/optee-os-custom/lib/libutee/tee_api_objects.c:388
    1608:	4604      	mov	r4, r0
    160a:	b120      	cbz	r0, 1616 <TEE_GenerateKey+0x46>
/home/aom1/Work/Linux/target/STM32MP1-DK2/bootloader/optee-os-custom/lib/libutee/tee_api_objects.c:388 (discriminator 1)
    160c:	4b04      	ldr	r3, [pc, #16]	; (1620 <TEE_GenerateKey+0x50>)
    160e:	4298      	cmp	r0, r3
    1610:	d001      	beq.n	1616 <TEE_GenerateKey+0x46>
/home/aom1/Work/Linux/target/STM32MP1-DK2/bootloader/optee-os-custom/lib/libutee/tee_api_objects.c:389
    1612:	f000 f9f1 	bl	19f8 <TEE_Panic>
/home/aom1/Work/Linux/target/STM32MP1-DK2/bootloader/optee-os-custom/lib/libutee/tee_api_objects.c:392
    1616:	4620      	mov	r0, r4
    1618:	46bd      	mov	sp, r7
    161a:	e8bd 83f8 	ldmia.w	sp!, {r3, r4, r5, r6, r7, r8, r9, pc}
    161e:	bf00      	nop
    1620:	ffff0006 	.word	0xffff0006

00001624 <TEE_OpenPersistentObject>:
TEE_OpenPersistentObject():
/home/aom1/Work/Linux/target/STM32MP1-DK2/bootloader/optee-os-custom/lib/libutee/tee_api_objects.c:399
    1624:	e92d 41ff 	stmdb	sp!, {r0, r1, r2, r3, r4, r5, r6, r7, r8, lr}
    1628:	4605      	mov	r5, r0
    162a:	f8dd 8028 	ldr.w	r8, [sp, #40]	; 0x28
    162e:	4616      	mov	r6, r2
    1630:	461f      	mov	r7, r3
/home/aom1/Work/Linux/target/STM32MP1-DK2/bootloader/optee-os-custom/lib/libutee/tee_api_objects.c:403
    1632:	460c      	mov	r4, r1
    1634:	b911      	cbnz	r1, 163c <TEE_OpenPersistentObject+0x18>
/home/aom1/Work/Linux/target/STM32MP1-DK2/bootloader/optee-os-custom/lib/libutee/tee_api_objects.c:399
    1636:	4c15      	ldr	r4, [pc, #84]	; (168c <TEE_OpenPersistentObject+0x68>)
    1638:	2300      	movs	r3, #0
    163a:	e00e      	b.n	165a <TEE_OpenPersistentObject+0x36>
/home/aom1/Work/Linux/target/STM32MP1-DK2/bootloader/optee-os-custom/lib/libutee/tee_api_objects.c:408
    163c:	2104      	movs	r1, #4
    163e:	4640      	mov	r0, r8
    1640:	f000 fa1a 	bl	1a78 <__utee_check_out_annotation>
/home/aom1/Work/Linux/target/STM32MP1-DK2/bootloader/optee-os-custom/lib/libutee/tee_api_objects.c:410
    1644:	ab03      	add	r3, sp, #12
    1646:	4621      	mov	r1, r4
    1648:	9300      	str	r3, [sp, #0]
    164a:	4632      	mov	r2, r6
    164c:	463b      	mov	r3, r7
    164e:	4628      	mov	r0, r5
    1650:	f000 ec9a 	blx	1f88 <_utee_storage_obj_open>
/home/aom1/Work/Linux/target/STM32MP1-DK2/bootloader/optee-os-custom/lib/libutee/tee_api_objects.c:412
    1654:	4604      	mov	r4, r0
    1656:	b930      	cbnz	r0, 1666 <TEE_OpenPersistentObject+0x42>
/home/aom1/Work/Linux/target/STM32MP1-DK2/bootloader/optee-os-custom/lib/libutee/tee_api_objects.c:413
    1658:	9b03      	ldr	r3, [sp, #12]
    165a:	f8c8 3000 	str.w	r3, [r8]
/home/aom1/Work/Linux/target/STM32MP1-DK2/bootloader/optee-os-custom/lib/libutee/tee_api_objects.c:428
    165e:	4620      	mov	r0, r4
    1660:	b004      	add	sp, #16
    1662:	e8bd 81f0 	ldmia.w	sp!, {r4, r5, r6, r7, r8, pc}
/home/aom1/Work/Linux/target/STM32MP1-DK2/bootloader/optee-os-custom/lib/libutee/tee_api_objects.c:416
    1666:	4b09      	ldr	r3, [pc, #36]	; (168c <TEE_OpenPersistentObject+0x68>)
    1668:	4298      	cmp	r0, r3
    166a:	d0e4      	beq.n	1636 <TEE_OpenPersistentObject+0x12>
/home/aom1/Work/Linux/target/STM32MP1-DK2/bootloader/optee-os-custom/lib/libutee/tee_api_objects.c:417
    166c:	4b08      	ldr	r3, [pc, #32]	; (1690 <TEE_OpenPersistentObject+0x6c>)
    166e:	429c      	cmp	r4, r3
    1670:	d0e2      	beq.n	1638 <TEE_OpenPersistentObject+0x14>
/home/aom1/Work/Linux/target/STM32MP1-DK2/bootloader/optee-os-custom/lib/libutee/tee_api_objects.c:418
    1672:	3309      	adds	r3, #9
    1674:	429c      	cmp	r4, r3
    1676:	d0df      	beq.n	1638 <TEE_OpenPersistentObject+0x14>
/home/aom1/Work/Linux/target/STM32MP1-DK2/bootloader/optee-os-custom/lib/libutee/tee_api_objects.c:419
    1678:	4b06      	ldr	r3, [pc, #24]	; (1694 <TEE_OpenPersistentObject+0x70>)
    167a:	429c      	cmp	r4, r3
    167c:	d0dc      	beq.n	1638 <TEE_OpenPersistentObject+0x14>
/home/aom1/Work/Linux/target/STM32MP1-DK2/bootloader/optee-os-custom/lib/libutee/tee_api_objects.c:420
    167e:	3302      	adds	r3, #2
    1680:	429c      	cmp	r4, r3
    1682:	d0d9      	beq.n	1638 <TEE_OpenPersistentObject+0x14>
/home/aom1/Work/Linux/target/STM32MP1-DK2/bootloader/optee-os-custom/lib/libutee/tee_api_objects.c:422
    1684:	f000 f9b8 	bl	19f8 <TEE_Panic>
    1688:	e7d6      	b.n	1638 <TEE_OpenPersistentObject+0x14>
    168a:	bf00      	nop
    168c:	ffff0008 	.word	0xffff0008
    1690:	ffff0003 	.word	0xffff0003
    1694:	f0100001 	.word	0xf0100001

00001698 <TEE_CreatePersistentObject>:
TEE_CreatePersistentObject():
/home/aom1/Work/Linux/target/STM32MP1-DK2/bootloader/optee-os-custom/lib/libutee/tee_api_objects.c:436
    1698:	e92d 41f0 	stmdb	sp!, {r4, r5, r6, r7, r8, lr}
    169c:	b086      	sub	sp, #24
    169e:	4605      	mov	r5, r0
    16a0:	4616      	mov	r6, r2
    16a2:	f8dd 803c 	ldr.w	r8, [sp, #60]	; 0x3c
    16a6:	461f      	mov	r7, r3
/home/aom1/Work/Linux/target/STM32MP1-DK2/bootloader/optee-os-custom/lib/libutee/tee_api_objects.c:440
    16a8:	460c      	mov	r4, r1
    16aa:	b911      	cbnz	r1, 16b2 <TEE_CreatePersistentObject+0x1a>
/home/aom1/Work/Linux/target/STM32MP1-DK2/bootloader/optee-os-custom/lib/libutee/tee_api_objects.c:436
    16ac:	4c19      	ldr	r4, [pc, #100]	; (1714 <TEE_CreatePersistentObject+0x7c>)
    16ae:	2300      	movs	r3, #0
    16b0:	e014      	b.n	16dc <TEE_CreatePersistentObject+0x44>
/home/aom1/Work/Linux/target/STM32MP1-DK2/bootloader/optee-os-custom/lib/libutee/tee_api_objects.c:445
    16b2:	2104      	movs	r1, #4
    16b4:	4640      	mov	r0, r8
    16b6:	f000 f9df 	bl	1a78 <__utee_check_out_annotation>
/home/aom1/Work/Linux/target/STM32MP1-DK2/bootloader/optee-os-custom/lib/libutee/tee_api_objects.c:447
    16ba:	ab05      	add	r3, sp, #20
    16bc:	4621      	mov	r1, r4
    16be:	9303      	str	r3, [sp, #12]
    16c0:	4632      	mov	r2, r6
    16c2:	9b0e      	ldr	r3, [sp, #56]	; 0x38
    16c4:	4628      	mov	r0, r5
    16c6:	9302      	str	r3, [sp, #8]
    16c8:	9b0d      	ldr	r3, [sp, #52]	; 0x34
    16ca:	9301      	str	r3, [sp, #4]
    16cc:	9b0c      	ldr	r3, [sp, #48]	; 0x30
    16ce:	9300      	str	r3, [sp, #0]
    16d0:	463b      	mov	r3, r7
    16d2:	f000 ec66 	blx	1fa0 <_utee_storage_obj_create>
/home/aom1/Work/Linux/target/STM32MP1-DK2/bootloader/optee-os-custom/lib/libutee/tee_api_objects.c:451
    16d6:	4604      	mov	r4, r0
    16d8:	b930      	cbnz	r0, 16e8 <TEE_CreatePersistentObject+0x50>
/home/aom1/Work/Linux/target/STM32MP1-DK2/bootloader/optee-os-custom/lib/libutee/tee_api_objects.c:452
    16da:	9b05      	ldr	r3, [sp, #20]
    16dc:	f8c8 3000 	str.w	r3, [r8]
/home/aom1/Work/Linux/target/STM32MP1-DK2/bootloader/optee-os-custom/lib/libutee/tee_api_objects.c:468
    16e0:	4620      	mov	r0, r4
    16e2:	b006      	add	sp, #24
    16e4:	e8bd 81f0 	ldmia.w	sp!, {r4, r5, r6, r7, r8, pc}
/home/aom1/Work/Linux/target/STM32MP1-DK2/bootloader/optee-os-custom/lib/libutee/tee_api_objects.c:455
    16e8:	4b0a      	ldr	r3, [pc, #40]	; (1714 <TEE_CreatePersistentObject+0x7c>)
    16ea:	4298      	cmp	r0, r3
    16ec:	d0de      	beq.n	16ac <TEE_CreatePersistentObject+0x14>
/home/aom1/Work/Linux/target/STM32MP1-DK2/bootloader/optee-os-custom/lib/libutee/tee_api_objects.c:456
    16ee:	4b0a      	ldr	r3, [pc, #40]	; (1718 <TEE_CreatePersistentObject+0x80>)
    16f0:	429c      	cmp	r4, r3
    16f2:	d0dc      	beq.n	16ae <TEE_CreatePersistentObject+0x16>
/home/aom1/Work/Linux/target/STM32MP1-DK2/bootloader/optee-os-custom/lib/libutee/tee_api_objects.c:457
    16f4:	3309      	adds	r3, #9
    16f6:	429c      	cmp	r4, r3
    16f8:	d0d9      	beq.n	16ae <TEE_CreatePersistentObject+0x16>
/home/aom1/Work/Linux/target/STM32MP1-DK2/bootloader/optee-os-custom/lib/libutee/tee_api_objects.c:458
    16fa:	4b08      	ldr	r3, [pc, #32]	; (171c <TEE_CreatePersistentObject+0x84>)
    16fc:	429c      	cmp	r4, r3
    16fe:	d0d6      	beq.n	16ae <TEE_CreatePersistentObject+0x16>
/home/aom1/Work/Linux/target/STM32MP1-DK2/bootloader/optee-os-custom/lib/libutee/tee_api_objects.c:459
    1700:	4b07      	ldr	r3, [pc, #28]	; (1720 <TEE_CreatePersistentObject+0x88>)
    1702:	429c      	cmp	r4, r3
    1704:	d0d3      	beq.n	16ae <TEE_CreatePersistentObject+0x16>
/home/aom1/Work/Linux/target/STM32MP1-DK2/bootloader/optee-os-custom/lib/libutee/tee_api_objects.c:460
    1706:	3302      	adds	r3, #2
    1708:	429c      	cmp	r4, r3
    170a:	d0d0      	beq.n	16ae <TEE_CreatePersistentObject+0x16>
/home/aom1/Work/Linux/target/STM32MP1-DK2/bootloader/optee-os-custom/lib/libutee/tee_api_objects.c:462
    170c:	f000 f974 	bl	19f8 <TEE_Panic>
    1710:	e7cd      	b.n	16ae <TEE_CreatePersistentObject+0x16>
    1712:	bf00      	nop
    1714:	ffff0008 	.word	0xffff0008
    1718:	ffff0003 	.word	0xffff0003
    171c:	ffff3041 	.word	0xffff3041
    1720:	f0100001 	.word	0xf0100001

00001724 <TEE_CloseAndDeletePersistentObject1>:
TEE_CloseAndDeletePersistentObject1():
/home/aom1/Work/Linux/target/STM32MP1-DK2/bootloader/optee-os-custom/lib/libutee/tee_api_objects.c:490
    1724:	b510      	push	{r4, lr}
/home/aom1/Work/Linux/target/STM32MP1-DK2/bootloader/optee-os-custom/lib/libutee/tee_api_objects.c:493
    1726:	b910      	cbnz	r0, 172e <TEE_CloseAndDeletePersistentObject1+0xa>
/home/aom1/Work/Linux/target/STM32MP1-DK2/bootloader/optee-os-custom/lib/libutee/tee_api_objects.c:494
    1728:	2400      	movs	r4, #0
/home/aom1/Work/Linux/target/STM32MP1-DK2/bootloader/optee-os-custom/lib/libutee/tee_api_objects.c:502
    172a:	4620      	mov	r0, r4
    172c:	bd10      	pop	{r4, pc}
/home/aom1/Work/Linux/target/STM32MP1-DK2/bootloader/optee-os-custom/lib/libutee/tee_api_objects.c:496
    172e:	f000 ec44 	blx	1fb8 <_utee_storage_obj_del>
/home/aom1/Work/Linux/target/STM32MP1-DK2/bootloader/optee-os-custom/lib/libutee/tee_api_objects.c:498
    1732:	4604      	mov	r4, r0
    1734:	2800      	cmp	r0, #0
    1736:	d0f7      	beq.n	1728 <TEE_CloseAndDeletePersistentObject1+0x4>
    1738:	4b02      	ldr	r3, [pc, #8]	; (1744 <TEE_CloseAndDeletePersistentObject1+0x20>)
    173a:	4298      	cmp	r0, r3
    173c:	d0f5      	beq.n	172a <TEE_CloseAndDeletePersistentObject1+0x6>
/home/aom1/Work/Linux/target/STM32MP1-DK2/bootloader/optee-os-custom/lib/libutee/tee_api_objects.c:499
    173e:	f000 f95b 	bl	19f8 <TEE_Panic>
    1742:	e7f2      	b.n	172a <TEE_CloseAndDeletePersistentObject1+0x6>
    1744:	f0100003 	.word	0xf0100003

00001748 <TEE_CloseAndDeletePersistentObject>:
TEE_CloseAndDeletePersistentObject():
/home/aom1/Work/Linux/target/STM32MP1-DK2/bootloader/optee-os-custom/lib/libutee/tee_api_objects.c:477
    1748:	b508      	push	{r3, lr}
/home/aom1/Work/Linux/target/STM32MP1-DK2/bootloader/optee-os-custom/lib/libutee/tee_api_objects.c:480
    174a:	b138      	cbz	r0, 175c <TEE_CloseAndDeletePersistentObject+0x14>
/home/aom1/Work/Linux/target/STM32MP1-DK2/bootloader/optee-os-custom/lib/libutee/tee_api_objects.c:483
    174c:	f7ff ffea 	bl	1724 <TEE_CloseAndDeletePersistentObject1>
/home/aom1/Work/Linux/target/STM32MP1-DK2/bootloader/optee-os-custom/lib/libutee/tee_api_objects.c:485
    1750:	b120      	cbz	r0, 175c <TEE_CloseAndDeletePersistentObject+0x14>
/home/aom1/Work/Linux/target/STM32MP1-DK2/bootloader/optee-os-custom/lib/libutee/tee_api_objects.c:487
    1752:	e8bd 4008 	ldmia.w	sp!, {r3, lr}
/home/aom1/Work/Linux/target/STM32MP1-DK2/bootloader/optee-os-custom/lib/libutee/tee_api_objects.c:486
    1756:	2000      	movs	r0, #0
    1758:	f000 b94e 	b.w	19f8 <TEE_Panic>
/home/aom1/Work/Linux/target/STM32MP1-DK2/bootloader/optee-os-custom/lib/libutee/tee_api_objects.c:487
    175c:	bd08      	pop	{r3, pc}

0000175e <TEE_RenamePersistentObject>:
TEE_RenamePersistentObject():
/home/aom1/Work/Linux/target/STM32MP1-DK2/bootloader/optee-os-custom/lib/libutee/tee_api_objects.c:508
    175e:	b510      	push	{r4, lr}
/home/aom1/Work/Linux/target/STM32MP1-DK2/bootloader/optee-os-custom/lib/libutee/tee_api_objects.c:511
    1760:	b188      	cbz	r0, 1786 <TEE_RenamePersistentObject+0x28>
/home/aom1/Work/Linux/target/STM32MP1-DK2/bootloader/optee-os-custom/lib/libutee/tee_api_objects.c:516
    1762:	f000 ec34 	blx	1fcc <_utee_storage_obj_rename>
/home/aom1/Work/Linux/target/STM32MP1-DK2/bootloader/optee-os-custom/lib/libutee/tee_api_objects.c:520
    1766:	4604      	mov	r4, r0
    1768:	b158      	cbz	r0, 1782 <TEE_RenamePersistentObject+0x24>
/home/aom1/Work/Linux/target/STM32MP1-DK2/bootloader/optee-os-custom/lib/libutee/tee_api_objects.c:520 (discriminator 1)
    176a:	4b08      	ldr	r3, [pc, #32]	; (178c <TEE_RenamePersistentObject+0x2e>)
    176c:	4298      	cmp	r0, r3
    176e:	d008      	beq.n	1782 <TEE_RenamePersistentObject+0x24>
/home/aom1/Work/Linux/target/STM32MP1-DK2/bootloader/optee-os-custom/lib/libutee/tee_api_objects.c:521
    1770:	4b07      	ldr	r3, [pc, #28]	; (1790 <TEE_RenamePersistentObject+0x32>)
    1772:	4298      	cmp	r0, r3
    1774:	d005      	beq.n	1782 <TEE_RenamePersistentObject+0x24>
/home/aom1/Work/Linux/target/STM32MP1-DK2/bootloader/optee-os-custom/lib/libutee/tee_api_objects.c:522
    1776:	3302      	adds	r3, #2
    1778:	4298      	cmp	r0, r3
    177a:	d002      	beq.n	1782 <TEE_RenamePersistentObject+0x24>
/home/aom1/Work/Linux/target/STM32MP1-DK2/bootloader/optee-os-custom/lib/libutee/tee_api_objects.c:524
    177c:	4620      	mov	r0, r4
    177e:	f000 f93b 	bl	19f8 <TEE_Panic>
/home/aom1/Work/Linux/target/STM32MP1-DK2/bootloader/optee-os-custom/lib/libutee/tee_api_objects.c:527
    1782:	4620      	mov	r0, r4
    1784:	bd10      	pop	{r4, pc}
/home/aom1/Work/Linux/target/STM32MP1-DK2/bootloader/optee-os-custom/lib/libutee/tee_api_objects.c:512
    1786:	4c03      	ldr	r4, [pc, #12]	; (1794 <TEE_RenamePersistentObject+0x36>)
    1788:	e7f8      	b.n	177c <TEE_RenamePersistentObject+0x1e>
    178a:	bf00      	nop
    178c:	ffff0003 	.word	0xffff0003
    1790:	f0100001 	.word	0xf0100001
    1794:	ffff0008 	.word	0xffff0008

00001798 <TEE_AllocatePersistentObjectEnumerator>:
TEE_AllocatePersistentObjectEnumerator():
/home/aom1/Work/Linux/target/STM32MP1-DK2/bootloader/optee-os-custom/lib/libutee/tee_api_objects.c:531
    1798:	b537      	push	{r0, r1, r2, r4, r5, lr}
/home/aom1/Work/Linux/target/STM32MP1-DK2/bootloader/optee-os-custom/lib/libutee/tee_api_objects.c:535
    179a:	2104      	movs	r1, #4
/home/aom1/Work/Linux/target/STM32MP1-DK2/bootloader/optee-os-custom/lib/libutee/tee_api_objects.c:531
    179c:	4605      	mov	r5, r0
/home/aom1/Work/Linux/target/STM32MP1-DK2/bootloader/optee-os-custom/lib/libutee/tee_api_objects.c:535
    179e:	f000 f96b 	bl	1a78 <__utee_check_out_annotation>
/home/aom1/Work/Linux/target/STM32MP1-DK2/bootloader/optee-os-custom/lib/libutee/tee_api_objects.c:538
    17a2:	a801      	add	r0, sp, #4
    17a4:	f000 ec1c 	blx	1fe0 <_utee_storage_alloc_enum>
/home/aom1/Work/Linux/target/STM32MP1-DK2/bootloader/optee-os-custom/lib/libutee/tee_api_objects.c:540
    17a8:	4604      	mov	r4, r0
    17aa:	b108      	cbz	r0, 17b0 <TEE_AllocatePersistentObjectEnumerator+0x18>
/home/aom1/Work/Linux/target/STM32MP1-DK2/bootloader/optee-os-custom/lib/libutee/tee_api_objects.c:541
    17ac:	2300      	movs	r3, #0
    17ae:	9301      	str	r3, [sp, #4]
/home/aom1/Work/Linux/target/STM32MP1-DK2/bootloader/optee-os-custom/lib/libutee/tee_api_objects.c:543
    17b0:	9b01      	ldr	r3, [sp, #4]
    17b2:	602b      	str	r3, [r5, #0]
/home/aom1/Work/Linux/target/STM32MP1-DK2/bootloader/optee-os-custom/lib/libutee/tee_api_objects.c:545
    17b4:	b12c      	cbz	r4, 17c2 <TEE_AllocatePersistentObjectEnumerator+0x2a>
/home/aom1/Work/Linux/target/STM32MP1-DK2/bootloader/optee-os-custom/lib/libutee/tee_api_objects.c:545 (discriminator 1)
    17b6:	4b04      	ldr	r3, [pc, #16]	; (17c8 <TEE_AllocatePersistentObjectEnumerator+0x30>)
    17b8:	429c      	cmp	r4, r3
    17ba:	d002      	beq.n	17c2 <TEE_AllocatePersistentObjectEnumerator+0x2a>
/home/aom1/Work/Linux/target/STM32MP1-DK2/bootloader/optee-os-custom/lib/libutee/tee_api_objects.c:547
    17bc:	4620      	mov	r0, r4
    17be:	f000 f91b 	bl	19f8 <TEE_Panic>
/home/aom1/Work/Linux/target/STM32MP1-DK2/bootloader/optee-os-custom/lib/libutee/tee_api_objects.c:550
    17c2:	4620      	mov	r0, r4
    17c4:	b003      	add	sp, #12
    17c6:	bd30      	pop	{r4, r5, pc}
    17c8:	ffff0003 	.word	0xffff0003

000017cc <TEE_FreePersistentObjectEnumerator>:
TEE_FreePersistentObjectEnumerator():
/home/aom1/Work/Linux/target/STM32MP1-DK2/bootloader/optee-os-custom/lib/libutee/tee_api_objects.c:553
    17cc:	b508      	push	{r3, lr}
/home/aom1/Work/Linux/target/STM32MP1-DK2/bootloader/optee-os-custom/lib/libutee/tee_api_objects.c:556
    17ce:	b130      	cbz	r0, 17de <TEE_FreePersistentObjectEnumerator+0x12>
/home/aom1/Work/Linux/target/STM32MP1-DK2/bootloader/optee-os-custom/lib/libutee/tee_api_objects.c:559
    17d0:	f000 ec10 	blx	1ff4 <_utee_storage_free_enum>
/home/aom1/Work/Linux/target/STM32MP1-DK2/bootloader/optee-os-custom/lib/libutee/tee_api_objects.c:561
    17d4:	b118      	cbz	r0, 17de <TEE_FreePersistentObjectEnumerator+0x12>
/home/aom1/Work/Linux/target/STM32MP1-DK2/bootloader/optee-os-custom/lib/libutee/tee_api_objects.c:563
    17d6:	e8bd 4008 	ldmia.w	sp!, {r3, lr}
/home/aom1/Work/Linux/target/STM32MP1-DK2/bootloader/optee-os-custom/lib/libutee/tee_api_objects.c:562
    17da:	f000 b90d 	b.w	19f8 <TEE_Panic>
/home/aom1/Work/Linux/target/STM32MP1-DK2/bootloader/optee-os-custom/lib/libutee/tee_api_objects.c:563
    17de:	bd08      	pop	{r3, pc}

000017e0 <TEE_ResetPersistentObjectEnumerator>:
TEE_ResetPersistentObjectEnumerator():
/home/aom1/Work/Linux/target/STM32MP1-DK2/bootloader/optee-os-custom/lib/libutee/tee_api_objects.c:566
    17e0:	b508      	push	{r3, lr}
/home/aom1/Work/Linux/target/STM32MP1-DK2/bootloader/optee-os-custom/lib/libutee/tee_api_objects.c:569
    17e2:	b130      	cbz	r0, 17f2 <TEE_ResetPersistentObjectEnumerator+0x12>
/home/aom1/Work/Linux/target/STM32MP1-DK2/bootloader/optee-os-custom/lib/libutee/tee_api_objects.c:572
    17e4:	f000 ec10 	blx	2008 <_utee_storage_reset_enum>
/home/aom1/Work/Linux/target/STM32MP1-DK2/bootloader/optee-os-custom/lib/libutee/tee_api_objects.c:574
    17e8:	b118      	cbz	r0, 17f2 <TEE_ResetPersistentObjectEnumerator+0x12>
/home/aom1/Work/Linux/target/STM32MP1-DK2/bootloader/optee-os-custom/lib/libutee/tee_api_objects.c:576
    17ea:	e8bd 4008 	ldmia.w	sp!, {r3, lr}
/home/aom1/Work/Linux/target/STM32MP1-DK2/bootloader/optee-os-custom/lib/libutee/tee_api_objects.c:575
    17ee:	f000 b903 	b.w	19f8 <TEE_Panic>
/home/aom1/Work/Linux/target/STM32MP1-DK2/bootloader/optee-os-custom/lib/libutee/tee_api_objects.c:576
    17f2:	bd08      	pop	{r3, pc}

000017f4 <TEE_StartPersistentObjectEnumerator>:
TEE_StartPersistentObjectEnumerator():
/home/aom1/Work/Linux/target/STM32MP1-DK2/bootloader/optee-os-custom/lib/libutee/tee_api_objects.c:581
    17f4:	b510      	push	{r4, lr}
/home/aom1/Work/Linux/target/STM32MP1-DK2/bootloader/optee-os-custom/lib/libutee/tee_api_objects.c:584
    17f6:	f000 ec12 	blx	201c <_utee_storage_start_enum>
/home/aom1/Work/Linux/target/STM32MP1-DK2/bootloader/optee-os-custom/lib/libutee/tee_api_objects.c:587
    17fa:	4604      	mov	r4, r0
    17fc:	b148      	cbz	r0, 1812 <TEE_StartPersistentObjectEnumerator+0x1e>
/home/aom1/Work/Linux/target/STM32MP1-DK2/bootloader/optee-os-custom/lib/libutee/tee_api_objects.c:587 (discriminator 1)
    17fe:	4b06      	ldr	r3, [pc, #24]	; (1818 <TEE_StartPersistentObjectEnumerator+0x24>)
    1800:	4298      	cmp	r0, r3
    1802:	d006      	beq.n	1812 <TEE_StartPersistentObjectEnumerator+0x1e>
/home/aom1/Work/Linux/target/STM32MP1-DK2/bootloader/optee-os-custom/lib/libutee/tee_api_objects.c:588
    1804:	4b05      	ldr	r3, [pc, #20]	; (181c <TEE_StartPersistentObjectEnumerator+0x28>)
    1806:	f020 0202 	bic.w	r2, r0, #2
    180a:	429a      	cmp	r2, r3
    180c:	d001      	beq.n	1812 <TEE_StartPersistentObjectEnumerator+0x1e>
/home/aom1/Work/Linux/target/STM32MP1-DK2/bootloader/optee-os-custom/lib/libutee/tee_api_objects.c:591
    180e:	f000 f8f3 	bl	19f8 <TEE_Panic>
/home/aom1/Work/Linux/target/STM32MP1-DK2/bootloader/optee-os-custom/lib/libutee/tee_api_objects.c:594
    1812:	4620      	mov	r0, r4
    1814:	bd10      	pop	{r4, pc}
    1816:	bf00      	nop
    1818:	ffff0008 	.word	0xffff0008
    181c:	f0100001 	.word	0xf0100001

00001820 <TEE_GetNextPersistentObject>:
TEE_GetNextPersistentObject():
/home/aom1/Work/Linux/target/STM32MP1-DK2/bootloader/optee-os-custom/lib/libutee/tee_api_objects.c:599
    1820:	b5f0      	push	{r4, r5, r6, r7, lr}
    1822:	4607      	mov	r7, r0
    1824:	b08b      	sub	sp, #44	; 0x2c
    1826:	4616      	mov	r6, r2
    1828:	461d      	mov	r5, r3
/home/aom1/Work/Linux/target/STM32MP1-DK2/bootloader/optee-os-custom/lib/libutee/tee_api_objects.c:605
    182a:	460c      	mov	r4, r1
    182c:	b119      	cbz	r1, 1836 <TEE_GetNextPersistentObject+0x16>
/home/aom1/Work/Linux/target/STM32MP1-DK2/bootloader/optee-os-custom/lib/libutee/tee_api_objects.c:606
    182e:	211c      	movs	r1, #28
    1830:	4620      	mov	r0, r4
    1832:	f000 f921 	bl	1a78 <__utee_check_out_annotation>
/home/aom1/Work/Linux/target/STM32MP1-DK2/bootloader/optee-os-custom/lib/libutee/tee_api_objects.c:607
    1836:	2104      	movs	r1, #4
    1838:	4628      	mov	r0, r5
    183a:	f000 f91d 	bl	1a78 <__utee_check_out_annotation>
/home/aom1/Work/Linux/target/STM32MP1-DK2/bootloader/optee-os-custom/lib/libutee/tee_api_objects.c:609
    183e:	b1f6      	cbz	r6, 187e <TEE_GetNextPersistentObject+0x5e>
/home/aom1/Work/Linux/target/STM32MP1-DK2/bootloader/optee-os-custom/lib/libutee/tee_api_objects.c:614
    1840:	b904      	cbnz	r4, 1844 <TEE_GetNextPersistentObject+0x24>
/home/aom1/Work/Linux/target/STM32MP1-DK2/bootloader/optee-os-custom/lib/libutee/tee_api_objects.c:617
    1842:	ac03      	add	r4, sp, #12
/home/aom1/Work/Linux/target/STM32MP1-DK2/bootloader/optee-os-custom/lib/libutee/tee_api_objects.c:618
    1844:	682b      	ldr	r3, [r5, #0]
/home/aom1/Work/Linux/target/STM32MP1-DK2/bootloader/optee-os-custom/lib/libutee/tee_api_objects.c:619
    1846:	4621      	mov	r1, r4
    1848:	4632      	mov	r2, r6
    184a:	4638      	mov	r0, r7
/home/aom1/Work/Linux/target/STM32MP1-DK2/bootloader/optee-os-custom/lib/libutee/tee_api_objects.c:618
    184c:	9300      	str	r3, [sp, #0]
    184e:	2300      	movs	r3, #0
    1850:	9301      	str	r3, [sp, #4]
/home/aom1/Work/Linux/target/STM32MP1-DK2/bootloader/optee-os-custom/lib/libutee/tee_api_objects.c:619
    1852:	466b      	mov	r3, sp
    1854:	f000 ebec 	blx	2030 <_utee_storage_next_enum>
/home/aom1/Work/Linux/target/STM32MP1-DK2/bootloader/optee-os-custom/lib/libutee/tee_api_objects.c:621
    1858:	9b00      	ldr	r3, [sp, #0]
/home/aom1/Work/Linux/target/STM32MP1-DK2/bootloader/optee-os-custom/lib/libutee/tee_api_objects.c:624
    185a:	4604      	mov	r4, r0
/home/aom1/Work/Linux/target/STM32MP1-DK2/bootloader/optee-os-custom/lib/libutee/tee_api_objects.c:621
    185c:	602b      	str	r3, [r5, #0]
/home/aom1/Work/Linux/target/STM32MP1-DK2/bootloader/optee-os-custom/lib/libutee/tee_api_objects.c:624
    185e:	b158      	cbz	r0, 1878 <TEE_GetNextPersistentObject+0x58>
/home/aom1/Work/Linux/target/STM32MP1-DK2/bootloader/optee-os-custom/lib/libutee/tee_api_objects.c:624 (discriminator 1)
    1860:	4b08      	ldr	r3, [pc, #32]	; (1884 <TEE_GetNextPersistentObject+0x64>)
    1862:	4298      	cmp	r0, r3
    1864:	d008      	beq.n	1878 <TEE_GetNextPersistentObject+0x58>
/home/aom1/Work/Linux/target/STM32MP1-DK2/bootloader/optee-os-custom/lib/libutee/tee_api_objects.c:625
    1866:	4b08      	ldr	r3, [pc, #32]	; (1888 <TEE_GetNextPersistentObject+0x68>)
    1868:	4298      	cmp	r0, r3
    186a:	d005      	beq.n	1878 <TEE_GetNextPersistentObject+0x58>
/home/aom1/Work/Linux/target/STM32MP1-DK2/bootloader/optee-os-custom/lib/libutee/tee_api_objects.c:626
    186c:	3302      	adds	r3, #2
    186e:	4298      	cmp	r0, r3
    1870:	d002      	beq.n	1878 <TEE_GetNextPersistentObject+0x58>
/home/aom1/Work/Linux/target/STM32MP1-DK2/bootloader/optee-os-custom/lib/libutee/tee_api_objects.c:628
    1872:	4620      	mov	r0, r4
    1874:	f000 f8c0 	bl	19f8 <TEE_Panic>
/home/aom1/Work/Linux/target/STM32MP1-DK2/bootloader/optee-os-custom/lib/libutee/tee_api_objects.c:631
    1878:	4620      	mov	r0, r4
    187a:	b00b      	add	sp, #44	; 0x2c
    187c:	bdf0      	pop	{r4, r5, r6, r7, pc}
/home/aom1/Work/Linux/target/STM32MP1-DK2/bootloader/optee-os-custom/lib/libutee/tee_api_objects.c:610
    187e:	4c03      	ldr	r4, [pc, #12]	; (188c <TEE_GetNextPersistentObject+0x6c>)
    1880:	e7f7      	b.n	1872 <TEE_GetNextPersistentObject+0x52>
    1882:	bf00      	nop
    1884:	ffff0008 	.word	0xffff0008
    1888:	f0100001 	.word	0xf0100001
    188c:	ffff0006 	.word	0xffff0006

00001890 <TEE_ReadObjectData>:
TEE_ReadObjectData():
/home/aom1/Work/Linux/target/STM32MP1-DK2/bootloader/optee-os-custom/lib/libutee/tee_api_objects.c:637
    1890:	b5f7      	push	{r0, r1, r2, r4, r5, r6, r7, lr}
    1892:	460e      	mov	r6, r1
    1894:	4617      	mov	r7, r2
    1896:	461c      	mov	r4, r3
/home/aom1/Work/Linux/target/STM32MP1-DK2/bootloader/optee-os-custom/lib/libutee/tee_api_objects.c:641
    1898:	4605      	mov	r5, r0
    189a:	b1e8      	cbz	r0, 18d8 <TEE_ReadObjectData+0x48>
/home/aom1/Work/Linux/target/STM32MP1-DK2/bootloader/optee-os-custom/lib/libutee/tee_api_objects.c:645
    189c:	4618      	mov	r0, r3
    189e:	2104      	movs	r1, #4
    18a0:	f000 f8ea 	bl	1a78 <__utee_check_out_annotation>
/home/aom1/Work/Linux/target/STM32MP1-DK2/bootloader/optee-os-custom/lib/libutee/tee_api_objects.c:647
    18a4:	6823      	ldr	r3, [r4, #0]
/home/aom1/Work/Linux/target/STM32MP1-DK2/bootloader/optee-os-custom/lib/libutee/tee_api_objects.c:648
    18a6:	463a      	mov	r2, r7
    18a8:	4631      	mov	r1, r6
    18aa:	4628      	mov	r0, r5
/home/aom1/Work/Linux/target/STM32MP1-DK2/bootloader/optee-os-custom/lib/libutee/tee_api_objects.c:647
    18ac:	9300      	str	r3, [sp, #0]
    18ae:	2300      	movs	r3, #0
    18b0:	9301      	str	r3, [sp, #4]
/home/aom1/Work/Linux/target/STM32MP1-DK2/bootloader/optee-os-custom/lib/libutee/tee_api_objects.c:648
    18b2:	466b      	mov	r3, sp
    18b4:	f000 ebc6 	blx	2044 <_utee_storage_obj_read>
/home/aom1/Work/Linux/target/STM32MP1-DK2/bootloader/optee-os-custom/lib/libutee/tee_api_objects.c:650
    18b8:	9b00      	ldr	r3, [sp, #0]
    18ba:	6023      	str	r3, [r4, #0]
/home/aom1/Work/Linux/target/STM32MP1-DK2/bootloader/optee-os-custom/lib/libutee/tee_api_objects.c:653
    18bc:	4604      	mov	r4, r0
    18be:	b140      	cbz	r0, 18d2 <TEE_ReadObjectData+0x42>
/home/aom1/Work/Linux/target/STM32MP1-DK2/bootloader/optee-os-custom/lib/libutee/tee_api_objects.c:653 (discriminator 1)
    18c0:	4b06      	ldr	r3, [pc, #24]	; (18dc <TEE_ReadObjectData+0x4c>)
    18c2:	4298      	cmp	r0, r3
    18c4:	d005      	beq.n	18d2 <TEE_ReadObjectData+0x42>
/home/aom1/Work/Linux/target/STM32MP1-DK2/bootloader/optee-os-custom/lib/libutee/tee_api_objects.c:654
    18c6:	3302      	adds	r3, #2
    18c8:	4298      	cmp	r0, r3
    18ca:	d002      	beq.n	18d2 <TEE_ReadObjectData+0x42>
/home/aom1/Work/Linux/target/STM32MP1-DK2/bootloader/optee-os-custom/lib/libutee/tee_api_objects.c:656
    18cc:	4620      	mov	r0, r4
    18ce:	f000 f893 	bl	19f8 <TEE_Panic>
/home/aom1/Work/Linux/target/STM32MP1-DK2/bootloader/optee-os-custom/lib/libutee/tee_api_objects.c:659
    18d2:	4620      	mov	r0, r4
    18d4:	b003      	add	sp, #12
    18d6:	bdf0      	pop	{r4, r5, r6, r7, pc}
/home/aom1/Work/Linux/target/STM32MP1-DK2/bootloader/optee-os-custom/lib/libutee/tee_api_objects.c:642
    18d8:	4c01      	ldr	r4, [pc, #4]	; (18e0 <TEE_ReadObjectData+0x50>)
    18da:	e7f7      	b.n	18cc <TEE_ReadObjectData+0x3c>
    18dc:	f0100001 	.word	0xf0100001
    18e0:	ffff0006 	.word	0xffff0006

000018e4 <TEE_WriteObjectData>:
TEE_WriteObjectData():
/home/aom1/Work/Linux/target/STM32MP1-DK2/bootloader/optee-os-custom/lib/libutee/tee_api_objects.c:663
    18e4:	b510      	push	{r4, lr}
/home/aom1/Work/Linux/target/STM32MP1-DK2/bootloader/optee-os-custom/lib/libutee/tee_api_objects.c:666
    18e6:	b1a0      	cbz	r0, 1912 <TEE_WriteObjectData+0x2e>
/home/aom1/Work/Linux/target/STM32MP1-DK2/bootloader/optee-os-custom/lib/libutee/tee_api_objects.c:676
    18e8:	f000 ebb6 	blx	2058 <_utee_storage_obj_write>
/home/aom1/Work/Linux/target/STM32MP1-DK2/bootloader/optee-os-custom/lib/libutee/tee_api_objects.c:679
    18ec:	4604      	mov	r4, r0
    18ee:	b170      	cbz	r0, 190e <TEE_WriteObjectData+0x2a>
/home/aom1/Work/Linux/target/STM32MP1-DK2/bootloader/optee-os-custom/lib/libutee/tee_api_objects.c:679 (discriminator 1)
    18f0:	4b09      	ldr	r3, [pc, #36]	; (1918 <TEE_WriteObjectData+0x34>)
    18f2:	4298      	cmp	r0, r3
    18f4:	d00b      	beq.n	190e <TEE_WriteObjectData+0x2a>
/home/aom1/Work/Linux/target/STM32MP1-DK2/bootloader/optee-os-custom/lib/libutee/tee_api_objects.c:680
    18f6:	3b32      	subs	r3, #50	; 0x32
    18f8:	4298      	cmp	r0, r3
    18fa:	d008      	beq.n	190e <TEE_WriteObjectData+0x2a>
/home/aom1/Work/Linux/target/STM32MP1-DK2/bootloader/optee-os-custom/lib/libutee/tee_api_objects.c:681
    18fc:	4b07      	ldr	r3, [pc, #28]	; (191c <TEE_WriteObjectData+0x38>)
    18fe:	4298      	cmp	r0, r3
    1900:	d005      	beq.n	190e <TEE_WriteObjectData+0x2a>
/home/aom1/Work/Linux/target/STM32MP1-DK2/bootloader/optee-os-custom/lib/libutee/tee_api_objects.c:682
    1902:	3302      	adds	r3, #2
    1904:	4298      	cmp	r0, r3
    1906:	d002      	beq.n	190e <TEE_WriteObjectData+0x2a>
/home/aom1/Work/Linux/target/STM32MP1-DK2/bootloader/optee-os-custom/lib/libutee/tee_api_objects.c:684
    1908:	4620      	mov	r0, r4
    190a:	f000 f875 	bl	19f8 <TEE_Panic>
/home/aom1/Work/Linux/target/STM32MP1-DK2/bootloader/optee-os-custom/lib/libutee/tee_api_objects.c:687
    190e:	4620      	mov	r0, r4
    1910:	bd10      	pop	{r4, pc}
/home/aom1/Work/Linux/target/STM32MP1-DK2/bootloader/optee-os-custom/lib/libutee/tee_api_objects.c:667
    1912:	4c03      	ldr	r4, [pc, #12]	; (1920 <TEE_WriteObjectData+0x3c>)
    1914:	e7f8      	b.n	1908 <TEE_WriteObjectData+0x24>
    1916:	bf00      	nop
    1918:	ffff3041 	.word	0xffff3041
    191c:	f0100001 	.word	0xf0100001
    1920:	ffff0006 	.word	0xffff0006

00001924 <TEE_TruncateObjectData>:
TEE_TruncateObjectData():
/home/aom1/Work/Linux/target/STM32MP1-DK2/bootloader/optee-os-custom/lib/libutee/tee_api_objects.c:690
    1924:	b510      	push	{r4, lr}
/home/aom1/Work/Linux/target/STM32MP1-DK2/bootloader/optee-os-custom/lib/libutee/tee_api_objects.c:693
    1926:	b188      	cbz	r0, 194c <TEE_TruncateObjectData+0x28>
/home/aom1/Work/Linux/target/STM32MP1-DK2/bootloader/optee-os-custom/lib/libutee/tee_api_objects.c:698
    1928:	f000 eba0 	blx	206c <_utee_storage_obj_trunc>
/home/aom1/Work/Linux/target/STM32MP1-DK2/bootloader/optee-os-custom/lib/libutee/tee_api_objects.c:701
    192c:	4604      	mov	r4, r0
    192e:	b158      	cbz	r0, 1948 <TEE_TruncateObjectData+0x24>
/home/aom1/Work/Linux/target/STM32MP1-DK2/bootloader/optee-os-custom/lib/libutee/tee_api_objects.c:701 (discriminator 1)
    1930:	4b07      	ldr	r3, [pc, #28]	; (1950 <TEE_TruncateObjectData+0x2c>)
    1932:	4298      	cmp	r0, r3
    1934:	d008      	beq.n	1948 <TEE_TruncateObjectData+0x24>
/home/aom1/Work/Linux/target/STM32MP1-DK2/bootloader/optee-os-custom/lib/libutee/tee_api_objects.c:702
    1936:	4b07      	ldr	r3, [pc, #28]	; (1954 <TEE_TruncateObjectData+0x30>)
    1938:	4298      	cmp	r0, r3
    193a:	d005      	beq.n	1948 <TEE_TruncateObjectData+0x24>
/home/aom1/Work/Linux/target/STM32MP1-DK2/bootloader/optee-os-custom/lib/libutee/tee_api_objects.c:703
    193c:	3302      	adds	r3, #2
    193e:	4298      	cmp	r0, r3
    1940:	d002      	beq.n	1948 <TEE_TruncateObjectData+0x24>
/home/aom1/Work/Linux/target/STM32MP1-DK2/bootloader/optee-os-custom/lib/libutee/tee_api_objects.c:705
    1942:	4620      	mov	r0, r4
    1944:	f000 f858 	bl	19f8 <TEE_Panic>
/home/aom1/Work/Linux/target/STM32MP1-DK2/bootloader/optee-os-custom/lib/libutee/tee_api_objects.c:708
    1948:	4620      	mov	r0, r4
    194a:	bd10      	pop	{r4, pc}
/home/aom1/Work/Linux/target/STM32MP1-DK2/bootloader/optee-os-custom/lib/libutee/tee_api_objects.c:694
    194c:	4c02      	ldr	r4, [pc, #8]	; (1958 <TEE_TruncateObjectData+0x34>)
    194e:	e7f8      	b.n	1942 <TEE_TruncateObjectData+0x1e>
    1950:	ffff3041 	.word	0xffff3041
    1954:	f0100001 	.word	0xf0100001
    1958:	ffff0006 	.word	0xffff0006

0000195c <TEE_SeekObjectData>:
TEE_SeekObjectData():
/home/aom1/Work/Linux/target/STM32MP1-DK2/bootloader/optee-os-custom/lib/libutee/tee_api_objects.c:712
    195c:	b5f0      	push	{r4, r5, r6, r7, lr}
    195e:	460d      	mov	r5, r1
    1960:	b089      	sub	sp, #36	; 0x24
    1962:	4616      	mov	r6, r2
/home/aom1/Work/Linux/target/STM32MP1-DK2/bootloader/optee-os-custom/lib/libutee/tee_api_objects.c:716
    1964:	4607      	mov	r7, r0
    1966:	b368      	cbz	r0, 19c4 <TEE_SeekObjectData+0x68>
/home/aom1/Work/Linux/target/STM32MP1-DK2/bootloader/optee-os-custom/lib/libutee/tee_api_objects.c:721
    1968:	a901      	add	r1, sp, #4
    196a:	f000 ea58 	blx	1e1c <_utee_cryp_obj_get_info>
/home/aom1/Work/Linux/target/STM32MP1-DK2/bootloader/optee-os-custom/lib/libutee/tee_api_objects.c:722
    196e:	4604      	mov	r4, r0
    1970:	b9f0      	cbnz	r0, 19b0 <TEE_SeekObjectData+0x54>
/home/aom1/Work/Linux/target/STM32MP1-DK2/bootloader/optee-os-custom/lib/libutee/tee_api_objects.c:725
    1972:	2e01      	cmp	r6, #1
    1974:	d007      	beq.n	1986 <TEE_SeekObjectData+0x2a>
    1976:	2e02      	cmp	r6, #2
    1978:	d00e      	beq.n	1998 <TEE_SeekObjectData+0x3c>
    197a:	b18e      	cbz	r6, 19a0 <TEE_SeekObjectData+0x44>
    197c:	4c12      	ldr	r4, [pc, #72]	; (19c8 <TEE_SeekObjectData+0x6c>)
