
build/ta/avb/023f8f1a-292a-432b-8fc4-de8471358067.elf:     file format elf32-littlearm
build/ta/avb/023f8f1a-292a-432b-8fc4-de8471358067.elf
architecture: armv7, flags 0x00000150:
HAS_SYMS, DYNAMIC, D_PAGED
start address 0x00000400

Program Header:
    LOAD off    0x00001000 vaddr 0x00000000 paddr 0x00000000 align 2**12
         filesz 0x0000831c memsz 0x0000831c flags r-x
    LOAD off    0x0000a000 vaddr 0x00009000 paddr 0x00009000 align 2**12
         filesz 0x00000290 memsz 0x000072e0 flags rw-
 DYNAMIC off    0x0000a000 vaddr 0x00009000 paddr 0x00009000 align 2**2
         filesz 0x00000088 memsz 0x00000088 flags rw-
   STACK off    0x00000000 vaddr 0x00000000 paddr 0x00000000 align 2**4
         filesz 0x00000000 memsz 0x00000000 flags rwx

Dynamic Section:
  HASH                 0x000082f0
  GNU_HASH             0x00008234
  STRTAB               0x000082c0
  SYMTAB               0x00008260
  STRSZ                0x0000002e
  SYMENT               0x00000010
  DEBUG                0x00000000
  REL                  0x000090c8
  RELSZ                0x00000100
  RELENT               0x00000008
  FLAGS_1              0x08000000
  RELCOUNT             0x00000013
private flags = 0x5000400: [Version5 EABI] [hard-float ABI]

Sections:
Idx Name          Size      VMA       LMA       File off  Algn
  0 .ta_head      00000020  00000000  00000000  00001000  2**3
                  CONTENTS, ALLOC, LOAD, READONLY, DATA
  1 .text         00007150  00000020  00000020  00001020  2**3
                  CONTENTS, ALLOC, LOAD, READONLY, CODE
  2 .rodata       000010c4  00007170  00007170  00008170  2**2
                  CONTENTS, ALLOC, LOAD, READONLY, DATA
  3 .gnu.hash     0000002c  00008234  00008234  00009234  2**2
                  CONTENTS, ALLOC, LOAD, READONLY, DATA
  4 .dynsym       00000060  00008260  00008260  00009260  2**2
                  CONTENTS, ALLOC, LOAD, READONLY, DATA
  5 .dynstr       0000002e  000082c0  000082c0  000092c0  2**0
                  CONTENTS, ALLOC, LOAD, READONLY, DATA
  6 .hash         0000002c  000082f0  000082f0  000092f0  2**2
                  CONTENTS, ALLOC, LOAD, READONLY, DATA
  7 .dynamic      00000088  00009000  00009000  0000a000  2**2
                  CONTENTS, ALLOC, LOAD, DATA
  8 .got          00000040  00009088  00009088  0000a088  2**2
                  CONTENTS, ALLOC, LOAD, DATA
  9 .rel.got      00000068  00009160  00009160  0000a160  2**2
                  CONTENTS, ALLOC, LOAD, READONLY, DATA
 10 .data         000000c8  000091c8  000091c8  0000a1c8  2**2
                  CONTENTS, ALLOC, LOAD, DATA
 11 .bss          00007050  00009290  00009290  0000a290  2**2
                  ALLOC
 12 .debug_info   00014782  00000000  00000000  0000a290  2**0
                  CONTENTS, READONLY, DEBUGGING, OCTETS
 13 .debug_abbrev 00003c36  00000000  00000000  0001ea12  2**0
                  CONTENTS, READONLY, DEBUGGING, OCTETS
 14 .debug_loclists 0000c57d  00000000  00000000  00022648  2**0
                  CONTENTS, READONLY, DEBUGGING, OCTETS
 15 .debug_aranges 00000568  00000000  00000000  0002ebc8  2**3
                  CONTENTS, READONLY, DEBUGGING, OCTETS
 16 .debug_rnglists 000006b0  00000000  00000000  0002f130  2**0
                  CONTENTS, READONLY, DEBUGGING, OCTETS
 17 .debug_macro  00017090  00000000  00000000  0002f7e0  2**0
                  CONTENTS, READONLY, DEBUGGING, OCTETS
 18 .debug_line   0000dc3e  00000000  00000000  00046870  2**0
                  CONTENTS, READONLY, DEBUGGING, OCTETS
 19 .debug_str    000182e1  00000000  00000000  000544ae  2**0
                  CONTENTS, READONLY, DEBUGGING, OCTETS
 20 .comment      00000033  00000000  00000000  0006c78f  2**0
                  CONTENTS, READONLY
 21 .ARM.attributes 00000033  00000000  00000000  0006c7c2  2**0
                  CONTENTS, READONLY
 22 .debug_frame  00002014  00000000  00000000  0006c7f8  2**2
                  CONTENTS, READONLY, DEBUGGING, OCTETS
 23 .rel.dyn      00000098  000090c8  000090c8  0000a0c8  2**2
                  CONTENTS, ALLOC, LOAD, READONLY, DATA
 24 .debug_line_str 000000e0  00000000  00000000  0006e80c  2**0
                  CONTENTS, READONLY, DEBUGGING, OCTETS
SYMBOL TABLE:
00000000 l    d  .ta_head	00000000 .ta_head
00000020 l    d  .text	00000000 .text
00007170 l    d  .rodata	00000000 .rodata
00008234 l    d  .gnu.hash	00000000 .gnu.hash
00008260 l    d  .dynsym	00000000 .dynsym
000082c0 l    d  .dynstr	00000000 .dynstr
000082f0 l    d  .hash	00000000 .hash
00009000 l    d  .dynamic	00000000 .dynamic
00009088 l    d  .got	00000000 .got
00009160 l    d  .rel.got	00000000 .rel.got
000091c8 l    d  .data	00000000 .data
00009290 l    d  .bss	00000000 .bss
00000000 l    d  .debug_info	00000000 .debug_info
00000000 l    d  .debug_abbrev	00000000 .debug_abbrev
00000000 l    d  .debug_loclists	00000000 .debug_loclists
00000000 l    d  .debug_aranges	00000000 .debug_aranges
00000000 l    d  .debug_rnglists	00000000 .debug_rnglists
00000000 l    d  .debug_macro	00000000 .debug_macro
00000000 l    d  .debug_line	00000000 .debug_line
00000000 l    d  .debug_str	00000000 .debug_str
00000000 l    d  .comment	00000000 .comment
00000000 l    d  .ARM.attributes	00000000 .ARM.attributes
00000000 l    d  .debug_frame	00000000 .debug_frame
000090c8 l    d  .rel.dyn	00000000 .rel.dyn
00000000 l    d  .debug_line_str	00000000 .debug_line_str
00000000 l    df *ABS*	00000000 user_ta_header.c
00007174 l     O .rodata	00000004 __compound_literal.4
00007178 l     O .rodata	00000004 __compound_literal.3
0000717c l     O .rodata	00000001 __compound_literal.2
0000717d l     O .rodata	00000001 __compound_literal.1
0000717e l     O .rodata	00000001 __compound_literal.0
00000000 l    df *ABS*	00000000 entry.c
00000020 l     F .text	00000048 open_rb_state
00000068 l     F .text	00000044 get_named_object_name.constprop.0
0000752e l     O .rodata	00000009 rb_obj_name
00007537 l     O .rodata	00000013 __func__.1
0000754a l     O .rodata	00000014 __func__.0
0000755e l     O .rodata	0000001b __func__.2
00000000 l    df *ABS*	00000000 ta_entry_a32.o
00000000 l    df *ABS*	00000000 trace.c
00007641 l     O .rodata	00000005 lvl_strs.0
00000000 l    df *ABS*	00000000 snprintk.c
000005e0 l     F .text	00000684 kprintf.constprop.0
0000767e l     O .rodata	00000011 hexdigits
0000768f l     O .rodata	00000011 HEXDIGITS
00000000 l    df *ABS*	00000000 arm32_aeabi_ldivmod_a32.o
00000000 l    df *ABS*	00000000 trace_ext.c
00000000 l    df *ABS*	00000000 tee_api.c
00000d48 l     F .text	00000066 update_out_param
00000e20 l     F .text	0000012c copy_param
000076b1 l     O .rodata	0000000b __func__.0
00009290 l     O .bss	00000004 tee_api_instance_data
00000000 l    df *ABS*	00000000 tee_api_objects.c
00000000 l    df *ABS*	00000000 tee_api_panic.c
000019d8 l     F .text	00000020 check_access
000019fc l     F .text	0000000a check_res.constprop.0
00000000 l    df *ABS*	00000000 tee_system_pta.c
00001ab0 l     F .text	00000050 invoke_system_pta
00007188 l     O .rodata	00000010 uuid.2
00007198 l     O .rodata	0000000a __func__.1
000071a2 l     O .rodata	00000017 __func__.0
00009294 l     O .bss	00000004 sess.3
00000000 l    df *ABS*	00000000 utee_syscalls_a32.o
00000000 l    df *ABS*	00000000 user_ta_entry.c
000020bc l     F .text	0000006a _get_fn_array
00002126 l     F .text	00000032 _fini_iterate_phdr_cb
00002158 l     F .text	0000001c ta_header_get_session
00002174 l     F .text	0000005a to_utee_params
000021ce l     F .text	0000003c from_utee_params
0000220a l     F .text	00000062 _init_iterate_phdr_cb
00002334 l     F .text	0000006c ta_header_remove_session
0000772a l     O .rodata	00000016 __func__.0
00009298 l     O .bss	00000004 _num_mod_init
0000929c l     O .bss	00000001 init_done
00009220 l     O .data	00000008 ta_sessions
00009228 l     O .data	00000008 __phdr_info_head
00000000 l    df *ABS*	00000000 abort.c
00000000 l    df *ABS*	00000000 tee_api_arith_mpi.c
00002550 l     F .text	00000020 api_panic
00002570 l     F .text	00000020 mpi_panic
00002590 l     F .text	00000050 get_mpi
000025e0 l     F .text	00000040 copy_mpi_to_bigint
00002620 l     F .text	000000a4 bigint_binary
000026c4 l     F .text	00000010 mpi_is_odd
000026d4 l     F .text	00000016 rng_read
000026ea l     F .text	0000045e mpi_egcd
000092d0 l     O .bss	00003000 data.17
00002d7c l     F .text	0000010c bigint_binary_mod
000077fe l     O .rodata	00000008 __func__.14
00007806 l     O .rodata	0000000e __func__.10
00007814 l     O .rodata	00000009 __func__.2
0000781d l     O .rodata	00000012 __func__.16
0000782f l     O .rodata	0000000f __func__.15
0000783e l     O .rodata	0000001f __func__.13
0000785d l     O .rodata	00000019 __func__.12
00007876 l     O .rodata	00000012 __func__.6
00007888 l     O .rodata	00000015 __func__.11
0000789d l     O .rodata	0000000e __func__.9
000078ab l     O .rodata	0000000e __func__.8
000078b9 l     O .rodata	0000000e __func__.7
000078c7 l     O .rodata	00000011 __func__.5
000078d8 l     O .rodata	00000018 __func__.4
000078f0 l     O .rodata	0000001d __func__.3
0000790d l     O .rodata	00000019 __func__.1
00007926 l     O .rodata	00000015 __func__.0
00000000 l    df *ABS*	00000000 tcb.c
000079d1 l     O .rodata	00000010 __func__.1
000079e1 l     O .rodata	00000010 __func__.0
0000c2d0 l     O .bss	00000004 _tls_size
0000c2d4 l     O .bss	00000004 _tcb
00000000 l    df *ABS*	00000000 assert.c
00000000 l    df *ABS*	00000000 bignum.c
0000398c l     F .text	00000024 mpi_safe_cond_assign
000039b0 l     F .text	0000003a mpi_get_digit
000039ea l     F .text	00000364 mpi_mul_hlp
00003d4e l     F .text	000000e4 mpi_montmul
00003e32 l     F .text	00000022 mpi_montred
00003e54 l     F .text	00000026 mpi_montg_init.isra.0
00003e7a l     F .text	00000052 mpi_bigendian_to_host.part.0
00003ecc l     F .text	00000064 mpi_fill_random_internal
00004040 l     F .text	00000036 mbedtls_mpi_resize_clear
000052a8 l     F .text	00000050 mpi_check_small_factors
000058a0 l     F .text	00000192 mpi_miller_rabin
000071bc l     O .rodata	000002a0 small_prime
0000745c l     O .rodata	00000024 gcd_pairs
00000000 l    df *ABS*	00000000 platform_util.c
00009230 l     O .data	00000004 memset_func
00000000 l    df *ABS*	00000000 bget_malloc.c
0000638c l     F .text	00000020 raw_malloc_return_hook
00006ab6 l     F .text	00000082 gen_malloc_add_pool
00008127 l     O .rodata	00000005 __func__.8
0000812c l     O .rodata	00000006 __func__.7
00008132 l     O .rodata	00000005 __func__.5
00008137 l     O .rodata	00000006 __func__.6
0000813d l     O .rodata	00000006 __func__.4
00008143 l     O .rodata	00000007 __func__.3
0000814a l     O .rodata	00000014 __func__.2
0000815e l     O .rodata	0000000e __func__.1
0000816c l     O .rodata	00000013 __func__.0
00009234 l     O .data	0000005c malloc_ctx
00000000 l    df *ABS*	00000000 memcpy.c
00000000 l    df *ABS*	00000000 mempool.c
00008208 l     O .rodata	00000013 __func__.2
0000821b l     O .rodata	0000000b __func__.1
00008226 l     O .rodata	0000000e __func__.0
00000000 l    df *ABS*	00000000 memset.c
00000000 l    df *ABS*	00000000 memchr.c
00000000 l    df *ABS*	00000000 strlen.c
00000000 l    df *ABS*	00000000 arm32_aeabi_ldivmod.c
00006f4e l     F .text	0000008a ul_div_qr
00000000 l    df *ABS*	00000000 snprintf.c
00000000 l    df *ABS*	00000000 memmove.c
00000000 l    df *ABS*	00000000 consttime_memcmp.c
00000000 l    df *ABS*	00000000 
00009000 l     O *ABS*	00000000 _DYNAMIC
00009088 l     O *ABS*	00000000 _GLOBAL_OFFSET_TABLE_
00007130 l     F .text	00000010 ___utee_cache_operation_from_thumb
00007140 l     F .text	00000010 ___utee_panic_from_thumb
00007150 l     F .text	00000010 ___utee_log_from_thumb
00007160 l     F .text	00000010 ___utee_check_access_rights_from_thumb
00000d24 g     F .text	00000022 putchar
0000147c g     F .text	00000078 TEE_PopulateTransientObject
000035ee g     F .text	00000004 TEE_BigIntConvertToFMM
000032cc g     F .text	00000008 TEE_BigIntSquareMod
00002e88 g     F .text	00000110 TEE_BigIntShiftRight
00006bde g     F .text	00000002 raw_malloc_add_pool
00001b84 g     F .text	00000088 tee_invoke_supp_plugin
00003fa8 g     F .text	00000098 mbedtls_mpi_grow
00007012 g     F .text	00000072 __l_divmod
000011c2 g     F .text	00000020 TEE_Realloc
00001a9e g     F .text	00000012 __utee_check_inout_annotation
00006a22 g     F .text	00000008 raw_free
00000cc6 g     F .text	0000003a printf
000014f4 g     F .text	00000022 TEE_InitRefAttribute
00001c34 g     F .text	00000014 _utee_log
00000fe0 g     F .text	000000b4 TEE_InvokeTACommand
00001a06 g     F .text	0000002e __utee_check_outbuf_annotation
00003f3c g     F .text	00000028 mbedtls_mpi_init_mempool
00001ed0 g     F .text	00000014 _utee_cryp_random_number_generate
000044c6 g     F .text	0000006a mbedtls_mpi_write_binary
000005b8 g     F .text	0000000e vsnprintk
00004a54 g     F .text	0000002e mbedtls_mpi_sub_int
000070b0 g     F .text	00000034 memmove
00007084 g     F .text	0000001e snprintf
00002d56 g     F .text	00000026 TEE_BigIntCmpS32
00001516 g     F .text	00000022 TEE_InitValueAttribute
00004076 g     F .text	000000b6 mbedtls_mpi_shrink
00002fe4 g     F .text	0000001c TEE_BigIntAdd
00001e30 g     F .text	00000014 _utee_cryp_obj_restrict_usage
00007180 g     O .rodata	00000004 ta_heap_size
0000144c g     F .text	00000030 TEE_ResetTransientObject
00001f58 g     F .text	00000018 _utee_asymm_operate
00004bc4 g     F .text	0000011c mbedtls_mpi_read_string
0000301c g     F .text	00000074 TEE_BigIntNeg
00001ff4 g     F .text	00000014 _utee_storage_free_enum
00000020 g       .text	00000000 __text_start
000017f4 g     F .text	0000002c TEE_StartPersistentObjectEnumerator
000045d4 g     F .text	00000078 mbedtls_mpi_shift_r
00006ce8 g     F .text	00000054 malloc_buffer_overlaps_heap
00001d98 g     F .text	00000014 _utee_hash_init
00003294 g     F .text	0000001c TEE_BigIntSubMod
00005e6c g     F .text	00000210 mbedtls_mpi_gen_prime
000042f0 g     F .text	00000020 mbedtls_mpi_get_bit
0000441a g     F .text	00000042 mbedtls_mpi_read_binary
0000056c g     F .text	00000018 trace_printf
000052fe g     F .text	00000004 mbedtls_mpi_montmul
000020a8 g     F .text	00000014 _utee_cache_operation
00006d3c g     F .text	000000d8 memcpy
000035f2 g     F .text	00000066 TEE_BigIntConvertFromFMM
000019f8 g     F .text	00000004 TEE_Panic
00000c94 g     F .text	00000018 __aeabi_uldivmod
00000d00 g     F .text	00000024 puts
00003658 g     F .text	000000c0 TEE_BigIntComputeFMM
000069b0 g     F .text	0000001c malloc_get_stats
00001150 g     F .text	00000016 TEE_GetREETime
00006be0 g     F .text	00000018 raw_malloc_get_stats
00001798 g     F .text	00000034 TEE_AllocatePersistentObjectEnumerator
000091cc g     O .data	00000054 ta_props
00001a34 g     F .text	00000018 __utee_check_instring_annotation
00006b38 g     F .text	00000014 malloc
00006f04 g     F .text	0000000a __ta_entry_c
000015d0 g     F .text	00000054 TEE_GenerateKey
000070a2 g     F .text	0000000e vsnprintf
000091c8 g     O .data	00000004 trace_level
00002d20 g     F .text	00000036 TEE_BigIntCmp
00007170 g     O .rodata	00000004 ta_num_props
00006818 g     F .text	00000084 bgetr
00001f88 g     F .text	00000018 _utee_storage_obj_open
00006ef8 g     F .text	0000000c mempool_free
00001dac g     F .text	00000014 _utee_hash_update
00002c1c g     F .text	00000058 TEE_BigIntConvertToOctetString
00004394 g     F .text	00000036 mbedtls_mpi_bitlen
00002f98 g     F .text	0000002a TEE_BigIntGetBit
00007184 g     O .rodata	00000003 trace_ext_prefix
00002030 g     F .text	00000014 _utee_storage_next_enum
00006a10 g     F .text	00000012 raw_malloc
000065b0 g     F .text	00000060 bgetz
000010a0 g     F .text	0000000c TEE_GetInstanceData
000010ce g     F .text	0000001e TEE_Wait
00004a82 g     F .text	000000e6 mbedtls_mpi_mul_mpi
000011e8 g     F .text	00000006 TEE_CacheFlush
00000434 g     F .text	00000138 trace_vprintf
000000b0 g     F .text	00000002 TA_DestroyEntryPoint
00003f30 g     F .text	0000000c mbedtls_mpi_init
00001fb8 g     F .text	00000014 _utee_storage_obj_del
00004360 g     F .text	00000034 mbedtls_mpi_lsb
00003954 g     F .text	00000028 _assert_log
00001d70 g     F .text	00000014 _utee_cryp_state_copy
000035ea g     F .text	00000004 TEE_BigIntFMMContextSizeInU32
00001b36 g     F .text	0000004e tee_unmap
0000175e g     F .text	0000003a TEE_RenamePersistentObject
00002b48 g     F .text	00000044 _TEE_MathAPI_Init
00003718 g     F .text	0000017c __utee_tcb_init
00004994 g     F .text	00000048 mbedtls_mpi_add_mpi
00002538 g     F .text	00000018 abort
00005a32 g     F .text	000000e6 mbedtls_mpi_random
00001a78 g     F .text	00000012 __utee_check_out_annotation
0000c2dc g     O .bss	00004000 ta_heap
000032d4 g     F .text	000000c0 TEE_BigIntInvMod
0000226c g     F .text	000000b8 __utee_call_elf_init_fn
000000b6 g     F .text	00000002 TA_CloseSessionEntryPoint
00001ca0 g     F .text	00000014 _utee_close_ta_session
00001624 g     F .text	00000074 TEE_OpenPersistentObject
000049dc g     F .text	0000004a mbedtls_mpi_sub_mpi
000070e4 g     F .text	00000048 consttime_memcmp
00001c20 g     F .text	00000014 _utee_return
00001c48 g     F .text	00000014 __utee_panic
00003894 g     F .text	00000018 __tls_get_addr
000000b8 g     F .text	00000348 TA_InvokeCommandEntryPoint
00002324 g     F .text	00000010 __utee_call_elf_fini_fn
00006bb8 g     F .text	00000010 free_wipe
00006e98 g     F .text	0000003c mempool_alloc
00001c0c g     F .text	00000014 _utee_panic
00006bcc g     F .text	00000012 raw_malloc_init_ctx
00006ed4 g     F .text	00000024 mempool_calloc
00002094 g     F .text	00000014 _utee_cryp_obj_generate_key
0000206c g     F .text	00000014 _utee_storage_obj_trunc
000015a0 g     F .text	00000030 TEE_CopyObjectAttributes
00001cf4 g     F .text	00000014 _utee_unmask_cancellation
00006b4c g     F .text	00000020 calloc
00001166 g     F .text	00000052 TEE_Malloc
00000e16 g     F .text	0000000a TEE_CheckMemoryAccessRights
00006fd8 g     F .text	0000003a __ul_divmod
00001c5c g     F .text	00000018 _utee_get_property
000042b8 g     F .text	00000038 mbedtls_mpi_lset
00001890 g     F .text	00000054 TEE_ReadObjectData
000012b4 g     F .text	00000078 TEE_GetObjectBufferAttribute
000000b2 g     F .text	00000004 TA_OpenSessionEntryPoint
000038ac g     F .text	000000a8 dl_iterate_phdr
000102e0 g       .bss	00000000 __ftrace_buf_end
000092cc g     O .bss	00000004 ta_param_types
00005044 g     F .text	0000002e mbedtls_mpi_div_int
000011f4 g     F .text	0000002a __utee_from_attr
00005dfe g     F .text	00000064 mbedtls_mpi_is_prime_ext
000035ac g     F .text	00000030 TEE_BigIntIsProbablePrime
00004b68 g     F .text	0000005c mbedtls_mpi_mul_int
00001724 g     F .text	00000024 TEE_CloseAndDeletePersistentObject1
00005306 g     F .text	00000466 mbedtls_mpi_exp_mod
000041c0 g     F .text	00000064 mbedtls_mpi_safe_cond_assign
00004734 g     F .text	000000a2 mbedtls_mpi_lt_mpi_ct
00002b8c g     F .text	00000038 TEE_BigIntInit
00001a4c g     F .text	0000002c __utee_check_outstring_annotation
000010ac g     F .text	00000004 TEE_MemMove
00006378 g     F .text	00000014 mbedtls_platform_zeroize
00002bc4 g     F .text	00000058 TEE_BigIntConvertFromOctetString
00001f40 g     F .text	00000018 _utee_authenc_dec_final
0000464c g     F .text	00000062 mbedtls_mpi_cmp_abs
00002044 g     F .text	00000014 _utee_storage_obj_read
00006f22 g     F .text	0000001c memchr
00000dde g     F .text	0000001c TEE_UnmaskCancellation
0000121e g     F .text	0000002a TEE_GetObjectInfo
0000607c g     F .text	000002fc mbedtls_mpi_self_test
00002080 g     F .text	00000014 _utee_storage_obj_seek
0000141c g     F .text	00000030 TEE_FreeTransientObject
00001ce0 g     F .text	00000014 _utee_check_access_rights
000047d6 g     F .text	0000002e mbedtls_mpi_cmp_int
00002008 g     F .text	00000014 _utee_storage_reset_enum
00001a8a g     F .text	00000014 __utee_check_attr_in_annotation
00001f10 g     F .text	00000018 _utee_authenc_update_payload
00003228 g     F .text	00000050 TEE_BigIntMod
000050d6 g     F .text	0000006e mbedtls_mpi_mod_int
000043d6 g     F .text	00000044 mbedtls_mpi_read_binary_le
0000313a g     F .text	000000ee TEE_BigIntDiv
00001e58 g     F .text	00000014 _utee_cryp_obj_alloc
000102e0 g       .bss	00000000 __ftrace_buf_start
0000412c g     F .text	00000066 mbedtls_mpi_copy
0000699c g     F .text	00000014 malloc_reset_stats
00000c64 g     F .text	00000016 __vsprintf
00001d44 g     F .text	00000014 _utee_set_ta_time
00001cb4 g     F .text	00000018 _utee_invoke_ta_command
00001268 g     F .text	00000020 TEE_RestrictObjectUsage1
00006b6c g     F .text	0000001c realloc
00004192 g     F .text	0000002e mbedtls_mpi_swap
00006e14 g     F .text	00000084 mempool_alloc_pool
00003090 g     F .text	000000a4 TEE_BigIntMul
00006bc8 g     F .text	00000004 raw_malloc_get_ctx_size
00004530 g     F .text	000000a4 mbedtls_mpi_shift_l
000046ae g     F .text	00000086 mbedtls_mpi_cmp_mpi
000010b4 g     F .text	00000004 TEE_MemFill
00006bf8 g     F .text	00000010 malloc_add_pool
00000420 g     F .text	00000014 trace_get_level
00004804 g     F .text	000000ae mbedtls_mpi_add_abs
00001288 g     F .text	0000002c TEE_RestrictObjectUsage
000035e2 g     F .text	00000008 TEE_BigIntFMMSizeInU32
00006a72 g     F .text	00000044 raw_realloc
000035dc g     F .text	00000004 TEE_BigIntInitFMM
000013c8 g     F .text	00000014 TEE_CloseObject
00001dd8 g     F .text	00000014 _utee_cipher_init
000023a0 g     F .text	00000198 __utee_entry
00007170 g       .text	00000000 __text_end
00003394 g     F .text	0000007c TEE_BigIntRelativePrime
00005072 g     F .text	00000064 mbedtls_mpi_mod_mpi
00001e1c g     F .text	00000014 _utee_cryp_obj_get_info
0000689c g     F .text	0000009c bpool
00001d58 g     F .text	00000018 _utee_cryp_state_alloc
00000dc2 g     F .text	0000001c TEE_GetCancellationFlag
0000576c g     F .text	00000100 mbedtls_mpi_gcd
00001128 g     F .text	00000028 TEE_SetTAPersistentTime
0000445c g     F .text	0000006a mbedtls_mpi_write_binary_le
00006f12 g     F .text	00000010 memset
000069cc g     F .text	00000044 raw_memalign
000010ec g     F .text	0000003c TEE_GetTAPersistentTime
00000584 g     F .text	00000002 dhex_dump
00001698 g     F .text	0000008c TEE_CreatePersistentObject
00000dfa g     F .text	0000001c TEE_MaskCancellation
00001924 g     F .text	00000038 TEE_TruncateObjectData
00001e44 g     F .text	00000014 _utee_cryp_obj_get_attr
00001248 g     F .text	00000020 TEE_GetObjectInfo1
00001e04 g     F .text	00000018 _utee_cipher_final
00000404 g     F .text	0000001c trace_set_level
0000132c g     F .text	0000009c TEE_GetObjectValueAttribute
00001d84 g     F .text	00000014 _utee_cryp_state_free
00001c88 g     F .text	00000018 _utee_open_ta_session
00002cc4 g     F .text	0000005c TEE_BigIntConvertToS32
00003000 g     F .text	0000001c TEE_BigIntSub
00006f0e g     F .text	00000004 tahead_get_trace_level
0000201c g     F .text	00000014 _utee_storage_start_enum
0000195c g     F .text	0000007c TEE_SeekObjectData
00001b00 g     F .text	00000036 tee_map_zi
00005302 g     F .text	00000004 mbedtls_mpi_montred
00006b88 g     F .text	00000020 memalign
00002c74 g     F .text	00000050 TEE_BigIntConvertFromS32
00004a26 g     F .text	0000002e mbedtls_mpi_add_int
00001f28 g     F .text	00000018 _utee_authenc_enc_final
00006c08 g     F .text	000000e0 malloc_buffer_is_within_alloced
00001e6c g     F .text	00000014 _utee_cryp_obj_close
000035e0 g     F .text	00000002 TEE_BigIntInitFMMContext
00001d08 g     F .text	00000014 _utee_mask_cancellation
00001fcc g     F .text	00000014 _utee_storage_obj_rename
000017e0 g     F .text	00000014 TEE_ResetPersistentObjectEnumerator
000018e4 g     F .text	00000040 TEE_WriteObjectData
00003134 g     F .text	00000006 TEE_BigIntSquare
00002058 g     F .text	00000014 _utee_storage_obj_write
000000ac g     F .text	00000004 TA_CreateEntryPoint
00000400 g     F .text	00000004 __ta_entry
00001efc g     F .text	00000014 _utee_authenc_update_aad
000052f8 g     F .text	00000006 mbedtls_mpi_montg_init
000005c6 g     F .text	0000001a snprintk
00002fc2 g     F .text	00000022 TEE_BigIntGetBitCount
00001ea8 g     F .text	00000014 _utee_cryp_obj_copy
000032b0 g     F .text	0000001c TEE_BigIntMulMod
00005b18 g     F .text	000002e6 mbedtls_mpi_inv_mod
000092ac g     O .bss	00000020 ta_params
00004ce0 g     F .text	00000364 mbedtls_mpi_div_mpi
000043ca g     F .text	0000000c mbedtls_mpi_size
000063ac g     F .text	00000204 bget
000013dc g     F .text	00000040 TEE_AllocateTransientObject
00001d1c g     F .text	00000014 _utee_wait
00004310 g     F .text	00000050 mbedtls_mpi_set_bit
000011b8 g     F .text	0000000a TEE_Free
00005e62 g     F .text	0000000a mbedtls_mpi_is_prime
000011ee g     F .text	00000006 TEE_CacheInvalidate
0000397c g     F .text	00000010 _assert_break
00003278 g     F .text	0000001c TEE_BigIntAddMod
00001d30 g     F .text	00000014 _utee_get_time
00001e94 g     F .text	00000014 _utee_cryp_obj_populate
000010b0 g     F .text	00000004 TEE_MemCompare
00001dec g     F .text	00000018 _utee_cipher_update
00000588 g     F .text	00000030 __vsnprintf
000092a0 g     O .bss	0000000c __elf_phdr_info
000017cc g     F .text	00000014 TEE_FreePersistentObjectEnumerator
00000f4c g     F .text	00000094 TEE_OpenTASession
00000cac g     F .text	00000014 trace_ext_puts
00000cc0 g     F .text	00000006 trace_ext_get_thread_id
00001748 g     F .text	00000016 TEE_CloseAndDeletePersistentObject
00001ebc g     F .text	00000014 _utee_cryp_derive_key
00003f64 g     F .text	00000044 mbedtls_mpi_free
00001e80 g     F .text	00000014 _utee_cryp_obj_reset
000011e2 g     F .text	00000006 TEE_CacheClean
00001c74 g     F .text	00000014 _utee_get_property_name_to_index
00006a2a g     F .text	00000048 raw_calloc
00004224 g     F .text	00000094 mbedtls_mpi_safe_cond_swap
00001ee4 g     F .text	00000018 _utee_authenc_init
00001538 g     F .text	00000068 TEE_CopyObjectAttributes1
00006f3e g     F .text	00000010 strlen
00003410 g     F .text	0000019c TEE_BigIntComputeExtendedGcd
00001fe0 g     F .text	00000014 _utee_storage_alloc_enum
000010b8 g     F .text	00000016 TEE_GetSystemTime
00001f70 g     F .text	00000018 _utee_asymm_verify
00000000 g     O .ta_head	00000020 ta_head
00006610 g     F .text	00000208 brel
000048b2 g     F .text	000000e2 mbedtls_mpi_sub_abs
0000586c g     F .text	00000034 mbedtls_mpi_fill_random
00001094 g     F .text	0000000c TEE_SetInstanceData
00001ccc g     F .text	00000014 _utee_get_cancellation_flag
00000c7c g     F .text	00000018 __aeabi_ldivmod
00005144 g     F .text	00000164 mbedtls_mpi_write_string
00001820 g     F .text	00000070 TEE_GetNextPersistentObject
00000dae g     F .text	00000014 TEE_CloseTASession
00001fa0 g     F .text	00000018 _utee_storage_obj_create
00006ba8 g     F .text	00000010 free
00006938 g     F .text	00000064 bstats
0000c2d8 g     O .bss	00000004 mbedtls_mpi_mempool
00001dc0 g     F .text	00000018 _utee_hash_final



Disassembly of section .text:

00000020 <open_rb_state>:
open_rb_state():
/home/aom1/Work/Linux/target/STM32MP1-DK2/bootloader/optee-os-custom/ta/avb/entry.c:39
      20:	b570      	push	{r4, r5, r6, lr}
      22:	b086      	sub	sp, #24
/home/aom1/Work/Linux/target/STM32MP1-DK2/bootloader/optee-os-custom/ta/avb/entry.c:44
      24:	4e0f      	ldr	r6, [pc, #60]	; (64 <open_rb_state+0x44>)
/home/aom1/Work/Linux/target/STM32MP1-DK2/bootloader/optee-os-custom/ta/avb/entry.c:39
      26:	4605      	mov	r5, r0
/home/aom1/Work/Linux/target/STM32MP1-DK2/bootloader/optee-os-custom/ta/avb/entry.c:44
      28:	9100      	str	r1, [sp, #0]
/home/aom1/Work/Linux/target/STM32MP1-DK2/bootloader/optee-os-custom/ta/avb/entry.c:39
      2a:	460c      	mov	r4, r1
/home/aom1/Work/Linux/target/STM32MP1-DK2/bootloader/optee-os-custom/ta/avb/entry.c:44
      2c:	447e      	add	r6, pc
      2e:	2303      	movs	r3, #3
      30:	480b      	ldr	r0, [pc, #44]	; (60 <open_rb_state+0x40>)
      32:	2209      	movs	r2, #9
      34:	4631      	mov	r1, r6
      36:	f001 faf5 	bl	1624 <TEE_OpenPersistentObject>
/home/aom1/Work/Linux/target/STM32MP1-DK2/bootloader/optee-os-custom/ta/avb/entry.c:46
      3a:	b170      	cbz	r0, 5a <open_rb_state+0x3a>
create_rb_state():
/home/aom1/Work/Linux/target/STM32MP1-DK2/bootloader/optee-os-custom/ta/avb/entry.c:32
      3c:	4808      	ldr	r0, [pc, #32]	; (60 <open_rb_state+0x40>)
      3e:	2304      	movs	r3, #4
      40:	9302      	str	r3, [sp, #8]
      42:	ab05      	add	r3, sp, #20
      44:	9301      	str	r3, [sp, #4]
      46:	2300      	movs	r3, #0
      48:	9300      	str	r3, [sp, #0]
      4a:	2209      	movs	r2, #9
      4c:	9403      	str	r4, [sp, #12]
      4e:	f240 4303 	movw	r3, #1027	; 0x403
      52:	9505      	str	r5, [sp, #20]
      54:	4631      	mov	r1, r6
      56:	f001 fb1f 	bl	1698 <TEE_CreatePersistentObject>
open_rb_state():
/home/aom1/Work/Linux/target/STM32MP1-DK2/bootloader/optee-os-custom/ta/avb/entry.c:50
      5a:	b006      	add	sp, #24
      5c:	bd70      	pop	{r4, r5, r6, pc}
      5e:	bf00      	nop
      60:	80000100 	.word	0x80000100
      64:	000074fe 	.word	0x000074fe

00000068 <get_named_object_name.constprop.0>:
get_named_object_name():
/home/aom1/Work/Linux/target/STM32MP1-DK2/bootloader/optee-os-custom/ta/avb/entry.c:52
      68:	e92d 41f0 	stmdb	sp!, {r4, r5, r6, r7, r8, lr}
/home/aom1/Work/Linux/target/STM32MP1-DK2/bootloader/optee-os-custom/ta/avb/entry.c:58
      6c:	f101 080c 	add.w	r8, r1, #12
      70:	f1b8 0f40 	cmp.w	r8, #64	; 0x40
/home/aom1/Work/Linux/target/STM32MP1-DK2/bootloader/optee-os-custom/ta/avb/entry.c:52
      74:	4607      	mov	r7, r0
      76:	460d      	mov	r5, r1
      78:	4614      	mov	r4, r2
      7a:	461e      	mov	r6, r3
/home/aom1/Work/Linux/target/STM32MP1-DK2/bootloader/optee-os-custom/ta/avb/entry.c:58
      7c:	d810      	bhi.n	a0 <get_named_object_name.constprop.0+0x38>
/home/aom1/Work/Linux/target/STM32MP1-DK2/bootloader/optee-os-custom/ta/avb/entry.c:63
      7e:	490a      	ldr	r1, [pc, #40]	; (a8 <get_named_object_name.constprop.0+0x40>)
      80:	220c      	movs	r2, #12
      82:	4620      	mov	r0, r4
      84:	4479      	add	r1, pc
      86:	f001 f811 	bl	10ac <TEE_MemMove>
/home/aom1/Work/Linux/target/STM32MP1-DK2/bootloader/optee-os-custom/ta/avb/entry.c:66
      8a:	462a      	mov	r2, r5
      8c:	4639      	mov	r1, r7
      8e:	f104 000c 	add.w	r0, r4, #12
      92:	f001 f80b 	bl	10ac <TEE_MemMove>
/home/aom1/Work/Linux/target/STM32MP1-DK2/bootloader/optee-os-custom/ta/avb/entry.c:68
      96:	f8c6 8000 	str.w	r8, [r6]
/home/aom1/Work/Linux/target/STM32MP1-DK2/bootloader/optee-os-custom/ta/avb/entry.c:70
      9a:	2000      	movs	r0, #0
/home/aom1/Work/Linux/target/STM32MP1-DK2/bootloader/optee-os-custom/ta/avb/entry.c:71
      9c:	e8bd 81f0 	ldmia.w	sp!, {r4, r5, r6, r7, r8, pc}
/home/aom1/Work/Linux/target/STM32MP1-DK2/bootloader/optee-os-custom/ta/avb/entry.c:60
      a0:	4800      	ldr	r0, [pc, #0]	; (a4 <get_named_object_name.constprop.0+0x3c>)
      a2:	e7fb      	b.n	9c <get_named_object_name.constprop.0+0x34>
      a4:	ffff0006 	.word	0xffff0006
      a8:	000073f8 	.word	0x000073f8

000000ac <TA_CreateEntryPoint>:
TA_CreateEntryPoint():
/home/aom1/Work/Linux/target/STM32MP1-DK2/bootloader/optee-os-custom/ta/avb/entry.c:360
      ac:	2000      	movs	r0, #0
      ae:	4770      	bx	lr

000000b0 <TA_DestroyEntryPoint>:
TA_DestroyEntryPoint():
/home/aom1/Work/Linux/target/STM32MP1-DK2/bootloader/optee-os-custom/ta/avb/entry.c:364
      b0:	4770      	bx	lr

000000b2 <TA_OpenSessionEntryPoint>:
TA_OpenSessionEntryPoint():
/home/aom1/Work/Linux/target/STM32MP1-DK2/bootloader/optee-os-custom/ta/avb/entry.c:371
      b2:	2000      	movs	r0, #0
      b4:	4770      	bx	lr

000000b6 <TA_CloseSessionEntryPoint>:
TA_CloseSessionEntryPoint():
/home/aom1/Work/Linux/target/STM32MP1-DK2/bootloader/optee-os-custom/ta/avb/entry.c:375
      b6:	4770      	bx	lr

000000b8 <TA_InvokeCommandEntryPoint>:
TA_InvokeCommandEntryPoint():
/home/aom1/Work/Linux/target/STM32MP1-DK2/bootloader/optee-os-custom/ta/avb/entry.c:380
      b8:	e92d 43f0 	stmdb	sp!, {r4, r5, r6, r7, r8, r9, lr}
      bc:	4614      	mov	r4, r2
      be:	b099      	sub	sp, #100	; 0x64
      c0:	461d      	mov	r5, r3
/home/aom1/Work/Linux/target/STM32MP1-DK2/bootloader/optee-os-custom/ta/avb/entry.c:381
      c2:	2905      	cmp	r1, #5
      c4:	f200 816e 	bhi.w	3a4 <TA_InvokeCommandEntryPoint+0x2ec>
      c8:	e8df f011 	tbh	[pc, r1, lsl #1]
      cc:	00440006 	.word	0x00440006
      d0:	00a4008a 	.word	0x00a4008a
      d4:	012a00d2 	.word	0x012a00d2
read_rb_idx():
/home/aom1/Work/Linux/target/STM32MP1-DK2/bootloader/optee-os-custom/ta/avb/entry.c:85
      d8:	2c21      	cmp	r4, #33	; 0x21
      da:	f040 815f 	bne.w	39c <TA_InvokeCommandEntryPoint+0x2e4>
/home/aom1/Work/Linux/target/STM32MP1-DK2/bootloader/optee-os-custom/ta/avb/entry.c:88
      de:	682e      	ldr	r6, [r5, #0]
get_slot_offset():
/home/aom1/Work/Linux/target/STM32MP1-DK2/bootloader/optee-os-custom/ta/avb/entry.c:19
      e0:	2eff      	cmp	r6, #255	; 0xff
      e2:	f200 815b 	bhi.w	39c <TA_InvokeCommandEntryPoint+0x2e4>
read_rb_idx():
/home/aom1/Work/Linux/target/STM32MP1-DK2/bootloader/optee-os-custom/ta/avb/entry.c:92
      e6:	a906      	add	r1, sp, #24
      e8:	2000      	movs	r0, #0
      ea:	f7ff ff99 	bl	20 <open_rb_state>
/home/aom1/Work/Linux/target/STM32MP1-DK2/bootloader/optee-os-custom/ta/avb/entry.c:93
      ee:	4604      	mov	r4, r0
      f0:	2800      	cmp	r0, #0
      f2:	d168      	bne.n	1c6 <TA_InvokeCommandEntryPoint+0x10e>
get_slot_offset():
/home/aom1/Work/Linux/target/STM32MP1-DK2/bootloader/optee-os-custom/ta/avb/entry.c:22
      f4:	00f6      	lsls	r6, r6, #3
read_rb_idx():
/home/aom1/Work/Linux/target/STM32MP1-DK2/bootloader/optee-os-custom/ta/avb/entry.c:96
      f6:	4602      	mov	r2, r0
      f8:	9806      	ldr	r0, [sp, #24]
get_slot_offset():
/home/aom1/Work/Linux/target/STM32MP1-DK2/bootloader/optee-os-custom/ta/avb/entry.c:22
      fa:	3604      	adds	r6, #4
read_rb_idx():
/home/aom1/Work/Linux/target/STM32MP1-DK2/bootloader/optee-os-custom/ta/avb/entry.c:96
      fc:	4631      	mov	r1, r6
      fe:	f001 fc2d 	bl	195c <TEE_SeekObjectData>
/home/aom1/Work/Linux/target/STM32MP1-DK2/bootloader/optee-os-custom/ta/avb/entry.c:97
     102:	4604      	mov	r4, r0
     104:	b980      	cbnz	r0, 128 <TA_InvokeCommandEntryPoint+0x70>
/home/aom1/Work/Linux/target/STM32MP1-DK2/bootloader/optee-os-custom/ta/avb/entry.c:100
     106:	9806      	ldr	r0, [sp, #24]
     108:	af08      	add	r7, sp, #32
     10a:	ab05      	add	r3, sp, #20
     10c:	2208      	movs	r2, #8
     10e:	4639      	mov	r1, r7
     110:	f001 fbbe 	bl	1890 <TEE_ReadObjectData>
/home/aom1/Work/Linux/target/STM32MP1-DK2/bootloader/optee-os-custom/ta/avb/entry.c:101
     114:	4604      	mov	r4, r0
     116:	b938      	cbnz	r0, 128 <TA_InvokeCommandEntryPoint+0x70>
/home/aom1/Work/Linux/target/STM32MP1-DK2/bootloader/optee-os-custom/ta/avb/entry.c:103
     118:	9b05      	ldr	r3, [sp, #20]
/home/aom1/Work/Linux/target/STM32MP1-DK2/bootloader/optee-os-custom/ta/avb/entry.c:111
     11a:	9806      	ldr	r0, [sp, #24]
/home/aom1/Work/Linux/target/STM32MP1-DK2/bootloader/optee-os-custom/ta/avb/entry.c:103
     11c:	2b08      	cmp	r3, #8
     11e:	d105      	bne.n	12c <TA_InvokeCommandEntryPoint+0x74>
/home/aom1/Work/Linux/target/STM32MP1-DK2/bootloader/optee-os-custom/ta/avb/entry.c:121
     120:	9b09      	ldr	r3, [sp, #36]	; 0x24
     122:	60ab      	str	r3, [r5, #8]
/home/aom1/Work/Linux/target/STM32MP1-DK2/bootloader/optee-os-custom/ta/avb/entry.c:122
     124:	9b08      	ldr	r3, [sp, #32]
     126:	60eb      	str	r3, [r5, #12]
write_lock_state():
/home/aom1/Work/Linux/target/STM32MP1-DK2/bootloader/optee-os-custom/ta/avb/entry.c:244
     128:	9806      	ldr	r0, [sp, #24]
     12a:	e04a      	b.n	1c2 <TA_InvokeCommandEntryPoint+0x10a>
read_rb_idx():
/home/aom1/Work/Linux/target/STM32MP1-DK2/bootloader/optee-os-custom/ta/avb/entry.c:104
     12c:	efc0 0010 	vmov.i32	d16, #0	; 0x00000000
     130:	edcd 0b08 	vstr	d16, [sp, #32]
/home/aom1/Work/Linux/target/STM32MP1-DK2/bootloader/optee-os-custom/ta/avb/entry.c:106
     134:	2b00      	cmp	r3, #0
     136:	d0f3      	beq.n	120 <TA_InvokeCommandEntryPoint+0x68>
/home/aom1/Work/Linux/target/STM32MP1-DK2/bootloader/optee-os-custom/ta/avb/entry.c:111
     138:	4622      	mov	r2, r4
     13a:	4631      	mov	r1, r6
     13c:	f001 fc0e 	bl	195c <TEE_SeekObjectData>
/home/aom1/Work/Linux/target/STM32MP1-DK2/bootloader/optee-os-custom/ta/avb/entry.c:113
     140:	b930      	cbnz	r0, 150 <TA_InvokeCommandEntryPoint+0x98>
/home/aom1/Work/Linux/target/STM32MP1-DK2/bootloader/optee-os-custom/ta/avb/entry.c:115
     142:	9806      	ldr	r0, [sp, #24]
     144:	2208      	movs	r2, #8
     146:	4639      	mov	r1, r7
     148:	f001 fbcc 	bl	18e4 <TEE_WriteObjectData>
/home/aom1/Work/Linux/target/STM32MP1-DK2/bootloader/optee-os-custom/ta/avb/entry.c:116
     14c:	2800      	cmp	r0, #0
     14e:	d0e7      	beq.n	120 <TA_InvokeCommandEntryPoint+0x68>
create_rb_state():
/home/aom1/Work/Linux/target/STM32MP1-DK2/bootloader/optee-os-custom/ta/avb/entry.c:32
     150:	4604      	mov	r4, r0
     152:	e7e9      	b.n	128 <TA_InvokeCommandEntryPoint+0x70>
write_rb_idx():
/home/aom1/Work/Linux/target/STM32MP1-DK2/bootloader/optee-os-custom/ta/avb/entry.c:141
     154:	2c11      	cmp	r4, #17
     156:	f040 8121 	bne.w	39c <TA_InvokeCommandEntryPoint+0x2e4>
/home/aom1/Work/Linux/target/STM32MP1-DK2/bootloader/optee-os-custom/ta/avb/entry.c:144
     15a:	682e      	ldr	r6, [r5, #0]
get_slot_offset():
/home/aom1/Work/Linux/target/STM32MP1-DK2/bootloader/optee-os-custom/ta/avb/entry.c:19
     15c:	2eff      	cmp	r6, #255	; 0xff
     15e:	f200 811d 	bhi.w	39c <TA_InvokeCommandEntryPoint+0x2e4>
write_rb_idx():
/home/aom1/Work/Linux/target/STM32MP1-DK2/bootloader/optee-os-custom/ta/avb/entry.c:147
     162:	68ab      	ldr	r3, [r5, #8]
/home/aom1/Work/Linux/target/STM32MP1-DK2/bootloader/optee-os-custom/ta/avb/entry.c:149
     164:	a905      	add	r1, sp, #20
/home/aom1/Work/Linux/target/STM32MP1-DK2/bootloader/optee-os-custom/ta/avb/entry.c:147
     166:	68ea      	ldr	r2, [r5, #12]
/home/aom1/Work/Linux/target/STM32MP1-DK2/bootloader/optee-os-custom/ta/avb/entry.c:149
     168:	2000      	movs	r0, #0
/home/aom1/Work/Linux/target/STM32MP1-DK2/bootloader/optee-os-custom/ta/avb/entry.c:147
     16a:	e9cd 2306 	strd	r2, r3, [sp, #24]
/home/aom1/Work/Linux/target/STM32MP1-DK2/bootloader/optee-os-custom/ta/avb/entry.c:149
     16e:	f7ff ff57 	bl	20 <open_rb_state>
/home/aom1/Work/Linux/target/STM32MP1-DK2/bootloader/optee-os-custom/ta/avb/entry.c:150
     172:	4604      	mov	r4, r0
     174:	bb38      	cbnz	r0, 1c6 <TA_InvokeCommandEntryPoint+0x10e>
get_slot_offset():
/home/aom1/Work/Linux/target/STM32MP1-DK2/bootloader/optee-os-custom/ta/avb/entry.c:22
     176:	00f5      	lsls	r5, r6, #3
write_rb_idx():
/home/aom1/Work/Linux/target/STM32MP1-DK2/bootloader/optee-os-custom/ta/avb/entry.c:153
     178:	4602      	mov	r2, r0
     17a:	9805      	ldr	r0, [sp, #20]
get_slot_offset():
/home/aom1/Work/Linux/target/STM32MP1-DK2/bootloader/optee-os-custom/ta/avb/entry.c:22
     17c:	3504      	adds	r5, #4
write_rb_idx():
/home/aom1/Work/Linux/target/STM32MP1-DK2/bootloader/optee-os-custom/ta/avb/entry.c:153
     17e:	4629      	mov	r1, r5
     180:	f001 fbec 	bl	195c <TEE_SeekObjectData>
/home/aom1/Work/Linux/target/STM32MP1-DK2/bootloader/optee-os-custom/ta/avb/entry.c:154
     184:	4604      	mov	r4, r0
     186:	b9d8      	cbnz	r0, 1c0 <TA_InvokeCommandEntryPoint+0x108>
/home/aom1/Work/Linux/target/STM32MP1-DK2/bootloader/optee-os-custom/ta/avb/entry.c:157
     188:	9805      	ldr	r0, [sp, #20]
     18a:	ab04      	add	r3, sp, #16
     18c:	2208      	movs	r2, #8
     18e:	a908      	add	r1, sp, #32
     190:	f001 fb7e 	bl	1890 <TEE_ReadObjectData>
/home/aom1/Work/Linux/target/STM32MP1-DK2/bootloader/optee-os-custom/ta/avb/entry.c:158
     194:	4604      	mov	r4, r0
     196:	b998      	cbnz	r0, 1c0 <TA_InvokeCommandEntryPoint+0x108>
/home/aom1/Work/Linux/target/STM32MP1-DK2/bootloader/optee-os-custom/ta/avb/entry.c:160
     198:	9b04      	ldr	r3, [sp, #16]
     19a:	2b08      	cmp	r3, #8
     19c:	d017      	beq.n	1ce <TA_InvokeCommandEntryPoint+0x116>
/home/aom1/Work/Linux/target/STM32MP1-DK2/bootloader/optee-os-custom/ta/avb/entry.c:161
     19e:	efc0 0010 	vmov.i32	d16, #0	; 0x00000000
     1a2:	edcd 0b08 	vstr	d16, [sp, #32]
/home/aom1/Work/Linux/target/STM32MP1-DK2/bootloader/optee-os-custom/ta/avb/entry.c:168
     1a6:	9805      	ldr	r0, [sp, #20]
     1a8:	2200      	movs	r2, #0
     1aa:	4629      	mov	r1, r5
     1ac:	f001 fbd6 	bl	195c <TEE_SeekObjectData>
/home/aom1/Work/Linux/target/STM32MP1-DK2/bootloader/optee-os-custom/ta/avb/entry.c:169
     1b0:	4604      	mov	r4, r0
     1b2:	b928      	cbnz	r0, 1c0 <TA_InvokeCommandEntryPoint+0x108>
/home/aom1/Work/Linux/target/STM32MP1-DK2/bootloader/optee-os-custom/ta/avb/entry.c:172
     1b4:	9805      	ldr	r0, [sp, #20]
     1b6:	2208      	movs	r2, #8
     1b8:	a906      	add	r1, sp, #24
     1ba:	f001 fb93 	bl	18e4 <TEE_WriteObjectData>
     1be:	4604      	mov	r4, r0
/home/aom1/Work/Linux/target/STM32MP1-DK2/bootloader/optee-os-custom/ta/avb/entry.c:174
     1c0:	9805      	ldr	r0, [sp, #20]
     1c2:	f001 f901 	bl	13c8 <TEE_CloseObject>
TA_InvokeCommandEntryPoint():
/home/aom1/Work/Linux/target/STM32MP1-DK2/bootloader/optee-os-custom/ta/avb/entry.c:398
     1c6:	4620      	mov	r0, r4
     1c8:	b019      	add	sp, #100	; 0x64
     1ca:	e8bd 83f0 	ldmia.w	sp!, {r4, r5, r6, r7, r8, r9, pc}
write_rb_idx():
/home/aom1/Work/Linux/target/STM32MP1-DK2/bootloader/optee-os-custom/ta/avb/entry.c:163
     1ce:	9a06      	ldr	r2, [sp, #24]
     1d0:	9b08      	ldr	r3, [sp, #32]
     1d2:	429a      	cmp	r2, r3
     1d4:	9b07      	ldr	r3, [sp, #28]
     1d6:	9a09      	ldr	r2, [sp, #36]	; 0x24
     1d8:	4193      	sbcs	r3, r2
     1da:	d2e4      	bcs.n	1a6 <TA_InvokeCommandEntryPoint+0xee>
/home/aom1/Work/Linux/target/STM32MP1-DK2/bootloader/optee-os-custom/ta/avb/entry.c:164
     1dc:	4c79      	ldr	r4, [pc, #484]	; (3c4 <TA_InvokeCommandEntryPoint+0x30c>)
     1de:	e7ef      	b.n	1c0 <TA_InvokeCommandEntryPoint+0x108>
read_lock_state():
/home/aom1/Work/Linux/target/STM32MP1-DK2/bootloader/optee-os-custom/ta/avb/entry.c:189
     1e0:	2c02      	cmp	r4, #2
     1e2:	f040 80db 	bne.w	39c <TA_InvokeCommandEntryPoint+0x2e4>
/home/aom1/Work/Linux/target/STM32MP1-DK2/bootloader/optee-os-custom/ta/avb/entry.c:192
     1e6:	a908      	add	r1, sp, #32
     1e8:	2000      	movs	r0, #0
     1ea:	f7ff ff19 	bl	20 <open_rb_state>
/home/aom1/Work/Linux/target/STM32MP1-DK2/bootloader/optee-os-custom/ta/avb/entry.c:193
     1ee:	4604      	mov	r4, r0
     1f0:	2800      	cmp	r0, #0
     1f2:	d1e8      	bne.n	1c6 <TA_InvokeCommandEntryPoint+0x10e>
/home/aom1/Work/Linux/target/STM32MP1-DK2/bootloader/optee-os-custom/ta/avb/entry.c:196
     1f4:	9808      	ldr	r0, [sp, #32]
     1f6:	ab06      	add	r3, sp, #24
     1f8:	2204      	movs	r2, #4
     1fa:	a905      	add	r1, sp, #20
     1fc:	f001 fb48 	bl	1890 <TEE_ReadObjectData>
/home/aom1/Work/Linux/target/STM32MP1-DK2/bootloader/optee-os-custom/ta/avb/entry.c:197
     200:	4604      	mov	r4, r0
     202:	b928      	cbnz	r0, 210 <TA_InvokeCommandEntryPoint+0x158>
/home/aom1/Work/Linux/target/STM32MP1-DK2/bootloader/optee-os-custom/ta/avb/entry.c:199
     204:	9b06      	ldr	r3, [sp, #24]
     206:	2b04      	cmp	r3, #4
/home/aom1/Work/Linux/target/STM32MP1-DK2/bootloader/optee-os-custom/ta/avb/entry.c:208
     208:	bf0a      	itet	eq
     20a:	9b05      	ldreq	r3, [sp, #20]
/home/aom1/Work/Linux/target/STM32MP1-DK2/bootloader/optee-os-custom/ta/avb/entry.c:204
     20c:	4c6e      	ldrne	r4, [pc, #440]	; (3c8 <TA_InvokeCommandEntryPoint+0x310>)
/home/aom1/Work/Linux/target/STM32MP1-DK2/bootloader/optee-os-custom/ta/avb/entry.c:208
     20e:	602b      	streq	r3, [r5, #0]
/home/aom1/Work/Linux/target/STM32MP1-DK2/bootloader/optee-os-custom/ta/avb/entry.c:210
     210:	9808      	ldr	r0, [sp, #32]
     212:	e7d6      	b.n	1c2 <TA_InvokeCommandEntryPoint+0x10a>
write_lock_state():
/home/aom1/Work/Linux/target/STM32MP1-DK2/bootloader/optee-os-custom/ta/avb/entry.c:227
     214:	2c01      	cmp	r4, #1
     216:	f040 80c1 	bne.w	39c <TA_InvokeCommandEntryPoint+0x2e4>
/home/aom1/Work/Linux/target/STM32MP1-DK2/bootloader/optee-os-custom/ta/avb/entry.c:230
     21a:	682d      	ldr	r5, [r5, #0]
/home/aom1/Work/Linux/target/STM32MP1-DK2/bootloader/optee-os-custom/ta/avb/entry.c:232
     21c:	ae06      	add	r6, sp, #24
     21e:	4631      	mov	r1, r6
     220:	4628      	mov	r0, r5
     222:	f7ff fefd 	bl	20 <open_rb_state>
/home/aom1/Work/Linux/target/STM32MP1-DK2/bootloader/optee-os-custom/ta/avb/entry.c:233
     226:	4604      	mov	r4, r0
     228:	2800      	cmp	r0, #0
     22a:	d1cc      	bne.n	1c6 <TA_InvokeCommandEntryPoint+0x10e>
/home/aom1/Work/Linux/target/STM32MP1-DK2/bootloader/optee-os-custom/ta/avb/entry.c:236
     22c:	9806      	ldr	r0, [sp, #24]
     22e:	ab05      	add	r3, sp, #20
     230:	2204      	movs	r2, #4
     232:	a904      	add	r1, sp, #16
     234:	f001 fb2c 	bl	1890 <TEE_ReadObjectData>
/home/aom1/Work/Linux/target/STM32MP1-DK2/bootloader/optee-os-custom/ta/avb/entry.c:237
     238:	4604      	mov	r4, r0
     23a:	2800      	cmp	r0, #0
     23c:	f47f af74 	bne.w	128 <TA_InvokeCommandEntryPoint+0x70>
/home/aom1/Work/Linux/target/STM32MP1-DK2/bootloader/optee-os-custom/ta/avb/entry.c:239
     240:	9b05      	ldr	r3, [sp, #20]
     242:	2b04      	cmp	r3, #4
     244:	d103      	bne.n	24e <TA_InvokeCommandEntryPoint+0x196>
     246:	9b04      	ldr	r3, [sp, #16]
     248:	429d      	cmp	r5, r3
     24a:	f43f af6d 	beq.w	128 <TA_InvokeCommandEntryPoint+0x70>
create_rb_state():
/home/aom1/Work/Linux/target/STM32MP1-DK2/bootloader/optee-os-custom/ta/avb/entry.c:32
     24e:	4963      	ldr	r1, [pc, #396]	; (3dc <TA_InvokeCommandEntryPoint+0x324>)
     250:	2304      	movs	r3, #4
     252:	9302      	str	r3, [sp, #8]
     254:	ab08      	add	r3, sp, #32
     256:	9301      	str	r3, [sp, #4]
     258:	2300      	movs	r3, #0
     25a:	9300      	str	r3, [sp, #0]
     25c:	2209      	movs	r2, #9
     25e:	4479      	add	r1, pc
     260:	f240 4303 	movw	r3, #1027	; 0x403
     264:	9603      	str	r6, [sp, #12]
     266:	4859      	ldr	r0, [pc, #356]	; (3cc <TA_InvokeCommandEntryPoint+0x314>)
     268:	9508      	str	r5, [sp, #32]
     26a:	f001 fa15 	bl	1698 <TEE_CreatePersistentObject>
     26e:	e76f      	b.n	150 <TA_InvokeCommandEntryPoint+0x98>
read_persist_value():
/home/aom1/Work/Linux/target/STM32MP1-DK2/bootloader/optee-os-custom/ta/avb/entry.c:317
     270:	2c75      	cmp	r4, #117	; 0x75
/home/aom1/Work/Linux/target/STM32MP1-DK2/bootloader/optee-os-custom/ta/avb/entry.c:308
     272:	f04f 0100 	mov.w	r1, #0
/home/aom1/Work/Linux/target/STM32MP1-DK2/bootloader/optee-os-custom/ta/avb/entry.c:310
     276:	e9cd 1104 	strd	r1, r1, [sp, #16]
/home/aom1/Work/Linux/target/STM32MP1-DK2/bootloader/optee-os-custom/ta/avb/entry.c:315
     27a:	9106      	str	r1, [sp, #24]
/home/aom1/Work/Linux/target/STM32MP1-DK2/bootloader/optee-os-custom/ta/avb/entry.c:317
     27c:	f040 808e 	bne.w	39c <TA_InvokeCommandEntryPoint+0x2e4>
/home/aom1/Work/Linux/target/STM32MP1-DK2/bootloader/optee-os-custom/ta/avb/entry.c:322
     280:	68ef      	ldr	r7, [r5, #12]
/home/aom1/Work/Linux/target/STM32MP1-DK2/bootloader/optee-os-custom/ta/avb/entry.c:321
     282:	e9d5 4900 	ldrd	r4, r9, [r5]
/home/aom1/Work/Linux/target/STM32MP1-DK2/bootloader/optee-os-custom/ta/avb/entry.c:323
     286:	4638      	mov	r0, r7
     288:	f000 ff6d 	bl	1166 <TEE_Malloc>
/home/aom1/Work/Linux/target/STM32MP1-DK2/bootloader/optee-os-custom/ta/avb/entry.c:324
     28c:	4606      	mov	r6, r0
     28e:	2800      	cmp	r0, #0
     290:	f000 8086 	beq.w	3a0 <TA_InvokeCommandEntryPoint+0x2e8>
/home/aom1/Work/Linux/target/STM32MP1-DK2/bootloader/optee-os-custom/ta/avb/entry.c:327
     294:	f10d 0820 	add.w	r8, sp, #32
     298:	4620      	mov	r0, r4
     29a:	ab05      	add	r3, sp, #20
     29c:	4642      	mov	r2, r8
     29e:	4649      	mov	r1, r9
     2a0:	f7ff fee2 	bl	68 <get_named_object_name.constprop.0>
/home/aom1/Work/Linux/target/STM32MP1-DK2/bootloader/optee-os-custom/ta/avb/entry.c:329
     2a4:	4604      	mov	r4, r0
     2a6:	b9b0      	cbnz	r0, 2d6 <TA_InvokeCommandEntryPoint+0x21e>
/home/aom1/Work/Linux/target/STM32MP1-DK2/bootloader/optee-os-custom/ta/avb/entry.c:332
     2a8:	9a05      	ldr	r2, [sp, #20]
     2aa:	ab04      	add	r3, sp, #16
     2ac:	9300      	str	r3, [sp, #0]
     2ae:	4641      	mov	r1, r8
     2b0:	4846      	ldr	r0, [pc, #280]	; (3cc <TA_InvokeCommandEntryPoint+0x314>)
     2b2:	2303      	movs	r3, #3
     2b4:	f001 f9b6 	bl	1624 <TEE_OpenPersistentObject>
/home/aom1/Work/Linux/target/STM32MP1-DK2/bootloader/optee-os-custom/ta/avb/entry.c:334
     2b8:	4604      	mov	r4, r0
     2ba:	b180      	cbz	r0, 2de <TA_InvokeCommandEntryPoint+0x226>
/home/aom1/Work/Linux/target/STM32MP1-DK2/bootloader/optee-os-custom/ta/avb/entry.c:335
     2bc:	4b48      	ldr	r3, [pc, #288]	; (3e0 <TA_InvokeCommandEntryPoint+0x328>)
     2be:	f240 114f 	movw	r1, #335	; 0x14f
     2c2:	9001      	str	r0, [sp, #4]
     2c4:	4847      	ldr	r0, [pc, #284]	; (3e4 <TA_InvokeCommandEntryPoint+0x32c>)
     2c6:	447b      	add	r3, pc
     2c8:	4478      	add	r0, pc
     2ca:	9300      	str	r3, [sp, #0]
     2cc:	2301      	movs	r3, #1
     2ce:	461a      	mov	r2, r3
     2d0:	3009      	adds	r0, #9
     2d2:	f000 f94b 	bl	56c <trace_printf>
write_persist_value():
/home/aom1/Work/Linux/target/STM32MP1-DK2/bootloader/optee-os-custom/ta/avb/entry.c:293
     2d6:	4630      	mov	r0, r6
     2d8:	f000 ff6e 	bl	11b8 <TEE_Free>
/home/aom1/Work/Linux/target/STM32MP1-DK2/bootloader/optee-os-custom/ta/avb/entry.c:295
     2dc:	e773      	b.n	1c6 <TA_InvokeCommandEntryPoint+0x10e>
read_persist_value():
/home/aom1/Work/Linux/target/STM32MP1-DK2/bootloader/optee-os-custom/ta/avb/entry.c:339
     2de:	9804      	ldr	r0, [sp, #16]
     2e0:	ab06      	add	r3, sp, #24
     2e2:	463a      	mov	r2, r7
     2e4:	4631      	mov	r1, r6
     2e6:	f001 fad3 	bl	1890 <TEE_ReadObjectData>
/home/aom1/Work/Linux/target/STM32MP1-DK2/bootloader/optee-os-custom/ta/avb/entry.c:340
     2ea:	4604      	mov	r4, r0
     2ec:	b180      	cbz	r0, 310 <TA_InvokeCommandEntryPoint+0x258>
/home/aom1/Work/Linux/target/STM32MP1-DK2/bootloader/optee-os-custom/ta/avb/entry.c:341
     2ee:	4b3e      	ldr	r3, [pc, #248]	; (3e8 <TA_InvokeCommandEntryPoint+0x330>)
     2f0:	f240 1155 	movw	r1, #341	; 0x155
     2f4:	9001      	str	r0, [sp, #4]
     2f6:	483d      	ldr	r0, [pc, #244]	; (3ec <TA_InvokeCommandEntryPoint+0x334>)
     2f8:	447b      	add	r3, pc
     2fa:	4478      	add	r0, pc
     2fc:	9300      	str	r3, [sp, #0]
     2fe:	2301      	movs	r3, #1
     300:	461a      	mov	r2, r3
     302:	3009      	adds	r0, #9
     304:	f000 f932 	bl	56c <trace_printf>
/home/aom1/Work/Linux/target/STM32MP1-DK2/bootloader/optee-os-custom/ta/avb/entry.c:350
     308:	9804      	ldr	r0, [sp, #16]
write_persist_value():
/home/aom1/Work/Linux/target/STM32MP1-DK2/bootloader/optee-os-custom/ta/avb/entry.c:291
     30a:	f001 f85d 	bl	13c8 <TEE_CloseObject>
     30e:	e7e2      	b.n	2d6 <TA_InvokeCommandEntryPoint+0x21e>
read_persist_value():
/home/aom1/Work/Linux/target/STM32MP1-DK2/bootloader/optee-os-custom/ta/avb/entry.c:345
     310:	68a8      	ldr	r0, [r5, #8]
     312:	463a      	mov	r2, r7
     314:	4631      	mov	r1, r6
     316:	f000 fec9 	bl	10ac <TEE_MemMove>
/home/aom1/Work/Linux/target/STM32MP1-DK2/bootloader/optee-os-custom/ta/avb/entry.c:348
     31a:	9b06      	ldr	r3, [sp, #24]
     31c:	60eb      	str	r3, [r5, #12]
     31e:	e7f3      	b.n	308 <TA_InvokeCommandEntryPoint+0x250>
write_persist_value():
/home/aom1/Work/Linux/target/STM32MP1-DK2/bootloader/optee-os-custom/ta/avb/entry.c:258
     320:	2600      	movs	r6, #0
     322:	223c      	movs	r2, #60	; 0x3c
     324:	9608      	str	r6, [sp, #32]
     326:	4631      	mov	r1, r6
     328:	a809      	add	r0, sp, #36	; 0x24
     32a:	f006 fdf2 	bl	6f12 <memset>
/home/aom1/Work/Linux/target/STM32MP1-DK2/bootloader/optee-os-custom/ta/avb/entry.c:259
     32e:	9605      	str	r6, [sp, #20]
/home/aom1/Work/Linux/target/STM32MP1-DK2/bootloader/optee-os-custom/ta/avb/entry.c:267
     330:	2c55      	cmp	r4, #85	; 0x55
/home/aom1/Work/Linux/target/STM32MP1-DK2/bootloader/optee-os-custom/ta/avb/entry.c:261
     332:	9606      	str	r6, [sp, #24]
/home/aom1/Work/Linux/target/STM32MP1-DK2/bootloader/optee-os-custom/ta/avb/entry.c:267
     334:	d132      	bne.n	39c <TA_InvokeCommandEntryPoint+0x2e4>
/home/aom1/Work/Linux/target/STM32MP1-DK2/bootloader/optee-os-custom/ta/avb/entry.c:272
     336:	68ef      	ldr	r7, [r5, #12]
/home/aom1/Work/Linux/target/STM32MP1-DK2/bootloader/optee-os-custom/ta/avb/entry.c:273
     338:	4631      	mov	r1, r6
/home/aom1/Work/Linux/target/STM32MP1-DK2/bootloader/optee-os-custom/ta/avb/entry.c:271
     33a:	e9d5 4800 	ldrd	r4, r8, [r5]
/home/aom1/Work/Linux/target/STM32MP1-DK2/bootloader/optee-os-custom/ta/avb/entry.c:273
     33e:	4638      	mov	r0, r7
     340:	f000 ff11 	bl	1166 <TEE_Malloc>
/home/aom1/Work/Linux/target/STM32MP1-DK2/bootloader/optee-os-custom/ta/avb/entry.c:274
     344:	4606      	mov	r6, r0
     346:	b358      	cbz	r0, 3a0 <TA_InvokeCommandEntryPoint+0x2e8>
/home/aom1/Work/Linux/target/STM32MP1-DK2/bootloader/optee-os-custom/ta/avb/entry.c:277
     348:	68a9      	ldr	r1, [r5, #8]
     34a:	463a      	mov	r2, r7
/home/aom1/Work/Linux/target/STM32MP1-DK2/bootloader/optee-os-custom/ta/avb/entry.c:279
     34c:	ad08      	add	r5, sp, #32
/home/aom1/Work/Linux/target/STM32MP1-DK2/bootloader/optee-os-custom/ta/avb/entry.c:277
     34e:	f000 fead 	bl	10ac <TEE_MemMove>
/home/aom1/Work/Linux/target/STM32MP1-DK2/bootloader/optee-os-custom/ta/avb/entry.c:279
     352:	4620      	mov	r0, r4
     354:	ab06      	add	r3, sp, #24
     356:	462a      	mov	r2, r5
     358:	4641      	mov	r1, r8
     35a:	f7ff fe85 	bl	68 <get_named_object_name.constprop.0>
/home/aom1/Work/Linux/target/STM32MP1-DK2/bootloader/optee-os-custom/ta/avb/entry.c:281
     35e:	4604      	mov	r4, r0
     360:	2800      	cmp	r0, #0
     362:	d1b8      	bne.n	2d6 <TA_InvokeCommandEntryPoint+0x21e>
/home/aom1/Work/Linux/target/STM32MP1-DK2/bootloader/optee-os-custom/ta/avb/entry.c:284
     364:	9a06      	ldr	r2, [sp, #24]
     366:	ab05      	add	r3, sp, #20
     368:	9303      	str	r3, [sp, #12]
     36a:	4629      	mov	r1, r5
     36c:	e88d 00d0 	stmia.w	sp, {r4, r6, r7}
     370:	4816      	ldr	r0, [pc, #88]	; (3cc <TA_InvokeCommandEntryPoint+0x314>)
     372:	f240 4303 	movw	r3, #1027	; 0x403
     376:	f001 f98f 	bl	1698 <TEE_CreatePersistentObject>
/home/aom1/Work/Linux/target/STM32MP1-DK2/bootloader/optee-os-custom/ta/avb/entry.c:288
     37a:	4604      	mov	r4, r0
     37c:	b160      	cbz	r0, 398 <TA_InvokeCommandEntryPoint+0x2e0>
/home/aom1/Work/Linux/target/STM32MP1-DK2/bootloader/optee-os-custom/ta/avb/entry.c:289
     37e:	4b1c      	ldr	r3, [pc, #112]	; (3f0 <TA_InvokeCommandEntryPoint+0x338>)
     380:	f240 1121 	movw	r1, #289	; 0x121
     384:	9001      	str	r0, [sp, #4]
     386:	481b      	ldr	r0, [pc, #108]	; (3f4 <TA_InvokeCommandEntryPoint+0x33c>)
     388:	447b      	add	r3, pc
     38a:	4478      	add	r0, pc
     38c:	9300      	str	r3, [sp, #0]
     38e:	2301      	movs	r3, #1
     390:	461a      	mov	r2, r3
     392:	301c      	adds	r0, #28
     394:	f000 f8ea 	bl	56c <trace_printf>
/home/aom1/Work/Linux/target/STM32MP1-DK2/bootloader/optee-os-custom/ta/avb/entry.c:291
     398:	9805      	ldr	r0, [sp, #20]
     39a:	e7b6      	b.n	30a <TA_InvokeCommandEntryPoint+0x252>
/home/aom1/Work/Linux/target/STM32MP1-DK2/bootloader/optee-os-custom/ta/avb/entry.c:268
     39c:	4c0c      	ldr	r4, [pc, #48]	; (3d0 <TA_InvokeCommandEntryPoint+0x318>)
     39e:	e712      	b.n	1c6 <TA_InvokeCommandEntryPoint+0x10e>
/home/aom1/Work/Linux/target/STM32MP1-DK2/bootloader/optee-os-custom/ta/avb/entry.c:275
     3a0:	4c0c      	ldr	r4, [pc, #48]	; (3d4 <TA_InvokeCommandEntryPoint+0x31c>)
TA_InvokeCommandEntryPoint():
/home/aom1/Work/Linux/target/STM32MP1-DK2/bootloader/optee-os-custom/ta/avb/entry.c:393
     3a2:	e710      	b.n	1c6 <TA_InvokeCommandEntryPoint+0x10e>
/home/aom1/Work/Linux/target/STM32MP1-DK2/bootloader/optee-os-custom/ta/avb/entry.c:395
     3a4:	4b14      	ldr	r3, [pc, #80]	; (3f8 <TA_InvokeCommandEntryPoint+0x340>)
     3a6:	4815      	ldr	r0, [pc, #84]	; (3fc <TA_InvokeCommandEntryPoint+0x344>)
     3a8:	447b      	add	r3, pc
     3aa:	9300      	str	r3, [sp, #0]
     3ac:	2301      	movs	r3, #1
     3ae:	4478      	add	r0, pc
     3b0:	461a      	mov	r2, r3
     3b2:	9101      	str	r1, [sp, #4]
     3b4:	3030      	adds	r0, #48	; 0x30
/home/aom1/Work/Linux/target/STM32MP1-DK2/bootloader/optee-os-custom/ta/avb/entry.c:396
     3b6:	4c08      	ldr	r4, [pc, #32]	; (3d8 <TA_InvokeCommandEntryPoint+0x320>)
/home/aom1/Work/Linux/target/STM32MP1-DK2/bootloader/optee-os-custom/ta/avb/entry.c:395
     3b8:	f240 118b 	movw	r1, #395	; 0x18b
     3bc:	f000 f8d6 	bl	56c <trace_printf>
/home/aom1/Work/Linux/target/STM32MP1-DK2/bootloader/optee-os-custom/ta/avb/entry.c:396
     3c0:	e701      	b.n	1c6 <TA_InvokeCommandEntryPoint+0x10e>
     3c2:	bf00      	nop
     3c4:	ffff000f 	.word	0xffff000f
     3c8:	f0100001 	.word	0xf0100001
     3cc:	80000100 	.word	0x80000100
     3d0:	ffff0006 	.word	0xffff0006
     3d4:	ffff000c 	.word	0xffff000c
     3d8:	ffff000a 	.word	0xffff000a
     3dc:	000072cc 	.word	0x000072cc
     3e0:	000071c3 	.word	0x000071c3
     3e4:	00007262 	.word	0x00007262
     3e8:	000071bb 	.word	0x000071bb
     3ec:	00007230 	.word	0x00007230
     3f0:	00007155 	.word	0x00007155
     3f4:	000071a0 	.word	0x000071a0
     3f8:	00007161 	.word	0x00007161
     3fc:	0000717c 	.word	0x0000717c

00000400 <__ta_entry>:
__ta_entry():
/home/aom1/Work/Linux/target/STM32MP1-DK2/bootloader/optee-os-custom/build/export-ta_arm32/src/ta_entry_a32.S:20
     400:	fa001abf 	blx	6f04 <__ta_entry_c>

00000404 <trace_set_level>:
trace_set_level():
/home/aom1/Work/Linux/target/STM32MP1-DK2/bootloader/optee-os-custom/lib/libutils/ext/trace.c:24
     404:	4b04      	ldr	r3, [pc, #16]	; (418 <trace_set_level+0x14>)
/home/aom1/Work/Linux/target/STM32MP1-DK2/bootloader/optee-os-custom/lib/libutils/ext/trace.c:28
     406:	2805      	cmp	r0, #5
     408:	4a04      	ldr	r2, [pc, #16]	; (41c <trace_set_level+0x18>)
     40a:	bf28      	it	cs
     40c:	2004      	movcs	r0, #4
/home/aom1/Work/Linux/target/STM32MP1-DK2/bootloader/optee-os-custom/lib/libutils/ext/trace.c:24
     40e:	447b      	add	r3, pc
     410:	589b      	ldr	r3, [r3, r2]
     412:	6018      	str	r0, [r3, #0]
/home/aom1/Work/Linux/target/STM32MP1-DK2/bootloader/optee-os-custom/lib/libutils/ext/trace.c:29
     414:	4770      	bx	lr
     416:	bf00      	nop
     418:	00008c76 	.word	0x00008c76
     41c:	00000010 	.word	0x00000010

00000420 <trace_get_level>:
trace_get_level():
/home/aom1/Work/Linux/target/STM32MP1-DK2/bootloader/optee-os-custom/lib/libutils/ext/trace.c:32
     420:	4b02      	ldr	r3, [pc, #8]	; (42c <trace_get_level+0xc>)
/home/aom1/Work/Linux/target/STM32MP1-DK2/bootloader/optee-os-custom/lib/libutils/ext/trace.c:33
     422:	4a03      	ldr	r2, [pc, #12]	; (430 <trace_get_level+0x10>)
/home/aom1/Work/Linux/target/STM32MP1-DK2/bootloader/optee-os-custom/lib/libutils/ext/trace.c:32
     424:	447b      	add	r3, pc
/home/aom1/Work/Linux/target/STM32MP1-DK2/bootloader/optee-os-custom/lib/libutils/ext/trace.c:33
     426:	589b      	ldr	r3, [r3, r2]
/home/aom1/Work/Linux/target/STM32MP1-DK2/bootloader/optee-os-custom/lib/libutils/ext/trace.c:34
     428:	6818      	ldr	r0, [r3, #0]
     42a:	4770      	bx	lr
     42c:	00008c60 	.word	0x00008c60
     430:	00000010 	.word	0x00000010

00000434 <trace_vprintf>:
trace_vprintf():
/home/aom1/Work/Linux/target/STM32MP1-DK2/bootloader/optee-os-custom/lib/libutils/ext/trace.c:113
     434:	e92d 47f0 	stmdb	sp!, {r4, r5, r6, r7, r8, r9, sl, lr}
     438:	4607      	mov	r7, r0
     43a:	4e42      	ldr	r6, [pc, #264]	; (544 <trace_vprintf+0x110>)
     43c:	b0c2      	sub	sp, #264	; 0x108
     43e:	4688      	mov	r8, r1
     440:	4614      	mov	r4, r2
     442:	447e      	add	r6, pc
/home/aom1/Work/Linux/target/STM32MP1-DK2/bootloader/optee-os-custom/lib/libutils/ext/trace.c:118
     444:	469a      	mov	sl, r3
     446:	2b00      	cmp	r3, #0
     448:	d068      	beq.n	51c <trace_vprintf+0xe8>
/home/aom1/Work/Linux/target/STM32MP1-DK2/bootloader/optee-os-custom/lib/libutils/ext/trace.c:118 (discriminator 1)
     44a:	4b3f      	ldr	r3, [pc, #252]	; (548 <trace_vprintf+0x114>)
     44c:	58f3      	ldr	r3, [r6, r3]
     44e:	681b      	ldr	r3, [r3, #0]
     450:	4293      	cmp	r3, r2
     452:	db60      	blt.n	516 <trace_vprintf+0xe2>
trace_level_to_string():
/home/aom1/Work/Linux/target/STM32MP1-DK2/bootloader/optee-os-custom/lib/libutils/ext/trace.c:51
     454:	2a04      	cmp	r2, #4
     456:	bf94      	ite	ls
     458:	4613      	movls	r3, r2
     45a:	2300      	movhi	r3, #0
/home/aom1/Work/Linux/target/STM32MP1-DK2/bootloader/optee-os-custom/lib/libutils/ext/trace.c:54
     45c:	4a3b      	ldr	r2, [pc, #236]	; (54c <trace_vprintf+0x118>)
     45e:	447a      	add	r2, pc
     460:	5cd3      	ldrb	r3, [r2, r3]
trace_vprintf():
/home/aom1/Work/Linux/target/STM32MP1-DK2/bootloader/optee-os-custom/lib/libutils/ext/trace.c:122
     462:	4a3b      	ldr	r2, [pc, #236]	; (550 <trace_vprintf+0x11c>)
     464:	ad02      	add	r5, sp, #8
     466:	f44f 7180 	mov.w	r1, #256	; 0x100
     46a:	4628      	mov	r0, r5
     46c:	447a      	add	r2, pc
     46e:	f000 f8aa 	bl	5c6 <snprintk>
/home/aom1/Work/Linux/target/STM32MP1-DK2/bootloader/optee-os-custom/lib/libutils/ext/trace.c:124
     472:	f1b0 0900 	subs.w	r9, r0, #0
     476:	db4e      	blt.n	516 <trace_vprintf+0xe2>
/home/aom1/Work/Linux/target/STM32MP1-DK2/bootloader/optee-os-custom/lib/libutils/ext/trace.c:129
     478:	4b36      	ldr	r3, [pc, #216]	; (554 <trace_vprintf+0x120>)
     47a:	f5c9 7180 	rsb	r1, r9, #256	; 0x100
     47e:	4a36      	ldr	r2, [pc, #216]	; (558 <trace_vprintf+0x124>)
     480:	58f3      	ldr	r3, [r6, r3]
     482:	447a      	add	r2, pc
     484:	eb05 0009 	add.w	r0, r5, r9
     488:	f000 f89d 	bl	5c6 <snprintk>
/home/aom1/Work/Linux/target/STM32MP1-DK2/bootloader/optee-os-custom/lib/libutils/ext/trace.c:131
     48c:	2800      	cmp	r0, #0
     48e:	db42      	blt.n	516 <trace_vprintf+0xe2>
/home/aom1/Work/Linux/target/STM32MP1-DK2/bootloader/optee-os-custom/lib/libutils/ext/trace.c:133
     490:	eb00 0609 	add.w	r6, r0, r9
/home/aom1/Work/Linux/target/STM32MP1-DK2/bootloader/optee-os-custom/lib/libutils/ext/trace.c:135
     494:	f1ba 0f00 	cmp.w	sl, #0
     498:	d049      	beq.n	52e <trace_vprintf+0xfa>
/home/aom1/Work/Linux/target/STM32MP1-DK2/bootloader/optee-os-custom/lib/libutils/ext/trace.c:135 (discriminator 1)
     49a:	231a      	movs	r3, #26
     49c:	40e3      	lsrs	r3, r4
     49e:	07db      	lsls	r3, r3, #31
     4a0:	d545      	bpl.n	52e <trace_vprintf+0xfa>
/home/aom1/Work/Linux/target/STM32MP1-DK2/bootloader/optee-os-custom/lib/libutils/ext/trace.c:137
     4a2:	19ac      	adds	r4, r5, r6
print_thread_id():
/home/aom1/Work/Linux/target/STM32MP1-DK2/bootloader/optee-os-custom/lib/libutils/ext/trace.c:66
     4a4:	f000 fc0c 	bl	cc0 <trace_ext_get_thread_id>
/home/aom1/Work/Linux/target/STM32MP1-DK2/bootloader/optee-os-custom/lib/libutils/ext/trace.c:68
     4a8:	2800      	cmp	r0, #0
trace_vprintf():
/home/aom1/Work/Linux/target/STM32MP1-DK2/bootloader/optee-os-custom/lib/libutils/ext/trace.c:137
     4aa:	f5c6 7980 	rsb	r9, r6, #256	; 0x100
print_thread_id():
/home/aom1/Work/Linux/target/STM32MP1-DK2/bootloader/optee-os-custom/lib/libutils/ext/trace.c:68
     4ae:	db37      	blt.n	520 <trace_vprintf+0xec>
/home/aom1/Work/Linux/target/STM32MP1-DK2/bootloader/optee-os-custom/lib/libutils/ext/trace.c:69
     4b0:	4a2a      	ldr	r2, [pc, #168]	; (55c <trace_vprintf+0x128>)
     4b2:	2301      	movs	r3, #1
     4b4:	9000      	str	r0, [sp, #0]
     4b6:	447a      	add	r2, pc
/home/aom1/Work/Linux/target/STM32MP1-DK2/bootloader/optee-os-custom/lib/libutils/ext/trace.c:71
     4b8:	4649      	mov	r1, r9
     4ba:	4620      	mov	r0, r4
     4bc:	f000 f883 	bl	5c6 <snprintk>
trace_vprintf():
/home/aom1/Work/Linux/target/STM32MP1-DK2/bootloader/optee-os-custom/lib/libutils/ext/trace.c:144
     4c0:	2800      	cmp	r0, #0
     4c2:	db28      	blt.n	516 <trace_vprintf+0xe2>
/home/aom1/Work/Linux/target/STM32MP1-DK2/bootloader/optee-os-custom/lib/libutils/ext/trace.c:146
     4c4:	1984      	adds	r4, r0, r6
/home/aom1/Work/Linux/target/STM32MP1-DK2/bootloader/optee-os-custom/lib/libutils/ext/trace.c:148
     4c6:	b167      	cbz	r7, 4e2 <trace_vprintf+0xae>
/home/aom1/Work/Linux/target/STM32MP1-DK2/bootloader/optee-os-custom/lib/libutils/ext/trace.c:149
     4c8:	4a25      	ldr	r2, [pc, #148]	; (560 <trace_vprintf+0x12c>)
     4ca:	463b      	mov	r3, r7
     4cc:	1928      	adds	r0, r5, r4
     4ce:	f5c4 7180 	rsb	r1, r4, #256	; 0x100
     4d2:	447a      	add	r2, pc
     4d4:	f8cd 8000 	str.w	r8, [sp]
     4d8:	f000 f875 	bl	5c6 <snprintk>
/home/aom1/Work/Linux/target/STM32MP1-DK2/bootloader/optee-os-custom/lib/libutils/ext/trace.c:151
     4dc:	2800      	cmp	r0, #0
     4de:	db1a      	blt.n	516 <trace_vprintf+0xe2>
/home/aom1/Work/Linux/target/STM32MP1-DK2/bootloader/optee-os-custom/lib/libutils/ext/trace.c:153
     4e0:	4404      	add	r4, r0
/home/aom1/Work/Linux/target/STM32MP1-DK2/bootloader/optee-os-custom/lib/libutils/ext/trace.c:163
     4e2:	1928      	adds	r0, r5, r4
     4e4:	f5c4 7180 	rsb	r1, r4, #256	; 0x100
     4e8:	e9dd 234a 	ldrd	r2, r3, [sp, #296]	; 0x128
     4ec:	f000 f864 	bl	5b8 <vsnprintk>
/home/aom1/Work/Linux/target/STM32MP1-DK2/bootloader/optee-os-custom/lib/libutils/ext/trace.c:164
     4f0:	2800      	cmp	r0, #0
/home/aom1/Work/Linux/target/STM32MP1-DK2/bootloader/optee-os-custom/lib/libutils/ext/trace.c:170
     4f2:	f04f 030a 	mov.w	r3, #10
/home/aom1/Work/Linux/target/STM32MP1-DK2/bootloader/optee-os-custom/lib/libutils/ext/trace.c:165
     4f6:	bfc8      	it	gt
     4f8:	1824      	addgt	r4, r4, r0
/home/aom1/Work/Linux/target/STM32MP1-DK2/bootloader/optee-os-custom/lib/libutils/ext/trace.c:167
     4fa:	2cfe      	cmp	r4, #254	; 0xfe
     4fc:	bf28      	it	cs
     4fe:	24fe      	movcs	r4, #254	; 0xfe
/home/aom1/Work/Linux/target/STM32MP1-DK2/bootloader/optee-os-custom/lib/libutils/ext/trace.c:170
     500:	552b      	strb	r3, [r5, r4]
/home/aom1/Work/Linux/target/STM32MP1-DK2/bootloader/optee-os-custom/lib/libutils/ext/trace.c:171
     502:	b114      	cbz	r4, 50a <trace_vprintf+0xd6>
/home/aom1/Work/Linux/target/STM32MP1-DK2/bootloader/optee-os-custom/lib/libutils/ext/trace.c:171 (discriminator 1)
     504:	5d2b      	ldrb	r3, [r5, r4]
     506:	2b0a      	cmp	r3, #10
     508:	d019      	beq.n	53e <trace_vprintf+0x10a>
/home/aom1/Work/Linux/target/STM32MP1-DK2/bootloader/optee-os-custom/lib/libutils/ext/trace.c:174
     50a:	442c      	add	r4, r5
     50c:	2300      	movs	r3, #0
/home/aom1/Work/Linux/target/STM32MP1-DK2/bootloader/optee-os-custom/lib/libutils/ext/trace.c:176
     50e:	4628      	mov	r0, r5
/home/aom1/Work/Linux/target/STM32MP1-DK2/bootloader/optee-os-custom/lib/libutils/ext/trace.c:174
     510:	70a3      	strb	r3, [r4, #2]
/home/aom1/Work/Linux/target/STM32MP1-DK2/bootloader/optee-os-custom/lib/libutils/ext/trace.c:176
     512:	f000 fbcb 	bl	cac <trace_ext_puts>
/home/aom1/Work/Linux/target/STM32MP1-DK2/bootloader/optee-os-custom/lib/libutils/ext/trace.c:177
     516:	b042      	add	sp, #264	; 0x108
     518:	e8bd 87f0 	ldmia.w	sp!, {r4, r5, r6, r7, r8, r9, sl, pc}
trace_level_to_string():
/home/aom1/Work/Linux/target/STM32MP1-DK2/bootloader/optee-os-custom/lib/libutils/ext/trace.c:49
     51c:	234d      	movs	r3, #77	; 0x4d
     51e:	e7a0      	b.n	462 <trace_vprintf+0x2e>
print_thread_id():
/home/aom1/Work/Linux/target/STM32MP1-DK2/bootloader/optee-os-custom/lib/libutils/ext/trace.c:71
     520:	4b10      	ldr	r3, [pc, #64]	; (564 <trace_vprintf+0x130>)
     522:	4a11      	ldr	r2, [pc, #68]	; (568 <trace_vprintf+0x134>)
     524:	447b      	add	r3, pc
     526:	9300      	str	r3, [sp, #0]
     528:	2301      	movs	r3, #1
     52a:	447a      	add	r2, pc
     52c:	e7c4      	b.n	4b8 <trace_vprintf+0x84>
trace_vprintf():
/home/aom1/Work/Linux/target/STM32MP1-DK2/bootloader/optee-os-custom/lib/libutils/ext/trace.c:157
     52e:	2efe      	cmp	r6, #254	; 0xfe
     530:	d8f1      	bhi.n	516 <trace_vprintf+0xe2>
/home/aom1/Work/Linux/target/STM32MP1-DK2/bootloader/optee-os-custom/lib/libutils/ext/trace.c:159
     532:	2320      	movs	r3, #32
     534:	1c74      	adds	r4, r6, #1
     536:	55ab      	strb	r3, [r5, r6]
/home/aom1/Work/Linux/target/STM32MP1-DK2/bootloader/optee-os-custom/lib/libutils/ext/trace.c:160
     538:	2300      	movs	r3, #0
     53a:	552b      	strb	r3, [r5, r4]
     53c:	e7d1      	b.n	4e2 <trace_vprintf+0xae>
/home/aom1/Work/Linux/target/STM32MP1-DK2/bootloader/optee-os-custom/lib/libutils/ext/trace.c:172
     53e:	3c01      	subs	r4, #1
     540:	e7df      	b.n	502 <trace_vprintf+0xce>
     542:	bf00      	nop
     544:	00008c42 	.word	0x00008c42
     548:	00000010 	.word	0x00000010
     54c:	000071df 	.word	0x000071df
     550:	000071b7 	.word	0x000071b7
     554:	00000014 	.word	0x00000014
     558:	000071a5 	.word	0x000071a5
     55c:	00007175 	.word	0x00007175
     560:	00007164 	.word	0x00007164
     564:	00007945 	.word	0x00007945
     568:	00007107 	.word	0x00007107

0000056c <trace_printf>:
trace_printf():
/home/aom1/Work/Linux/target/STM32MP1-DK2/bootloader/optee-os-custom/lib/libutils/ext/trace.c:104
     56c:	b530      	push	{r4, r5, lr}
     56e:	b085      	sub	sp, #20
     570:	ac08      	add	r4, sp, #32
     572:	f854 5b04 	ldr.w	r5, [r4], #4
/home/aom1/Work/Linux/target/STM32MP1-DK2/bootloader/optee-os-custom/lib/libutils/ext/trace.c:108
     576:	9401      	str	r4, [sp, #4]
     578:	9500      	str	r5, [sp, #0]
/home/aom1/Work/Linux/target/STM32MP1-DK2/bootloader/optee-os-custom/lib/libutils/ext/trace.c:107
     57a:	9403      	str	r4, [sp, #12]
/home/aom1/Work/Linux/target/STM32MP1-DK2/bootloader/optee-os-custom/lib/libutils/ext/trace.c:108
     57c:	f7ff ff5a 	bl	434 <trace_vprintf>
/home/aom1/Work/Linux/target/STM32MP1-DK2/bootloader/optee-os-custom/lib/libutils/ext/trace.c:110
     580:	b005      	add	sp, #20
     582:	bd30      	pop	{r4, r5, pc}

00000584 <dhex_dump>:
dhex_dump():
/home/aom1/Work/Linux/target/STM32MP1-DK2/bootloader/optee-os-custom/lib/libutils/ext/trace.c:287
     584:	4770      	bx	lr
     586:	bf00      	nop

00000588 <__vsnprintf>:
__vsnprintf():
/home/aom1/Work/Linux/target/STM32MP1-DK2/bootloader/optee-os-custom/lib/libutils/ext/snprintk.c:138
     588:	b57f      	push	{r0, r1, r2, r3, r4, r5, r6, lr}
     58a:	4604      	mov	r4, r0
/home/aom1/Work/Linux/target/STM32MP1-DK2/bootloader/optee-os-custom/lib/libutils/ext/snprintk.c:142
     58c:	1866      	adds	r6, r4, r1
/home/aom1/Work/Linux/target/STM32MP1-DK2/bootloader/optee-os-custom/lib/libutils/ext/snprintk.c:138
     58e:	4610      	mov	r0, r2
/home/aom1/Work/Linux/target/STM32MP1-DK2/bootloader/optee-os-custom/lib/libutils/ext/snprintk.c:143
     590:	f89d 2020 	ldrb.w	r2, [sp, #32]
/home/aom1/Work/Linux/target/STM32MP1-DK2/bootloader/optee-os-custom/lib/libutils/ext/snprintk.c:138
     594:	460d      	mov	r5, r1
/home/aom1/Work/Linux/target/STM32MP1-DK2/bootloader/optee-os-custom/lib/libutils/ext/snprintk.c:142
     596:	9603      	str	r6, [sp, #12]
/home/aom1/Work/Linux/target/STM32MP1-DK2/bootloader/optee-os-custom/lib/libutils/ext/snprintk.c:143
     598:	a903      	add	r1, sp, #12
     59a:	9200      	str	r2, [sp, #0]
     59c:	4622      	mov	r2, r4
     59e:	f000 f81f 	bl	5e0 <kprintf.constprop.0>
/home/aom1/Work/Linux/target/STM32MP1-DK2/bootloader/optee-os-custom/lib/libutils/ext/snprintk.c:144
     5a2:	b13c      	cbz	r4, 5b4 <__vsnprintf+0x2c>
/home/aom1/Work/Linux/target/STM32MP1-DK2/bootloader/optee-os-custom/lib/libutils/ext/snprintk.c:144 (discriminator 1)
     5a4:	b135      	cbz	r5, 5b4 <__vsnprintf+0x2c>
/home/aom1/Work/Linux/target/STM32MP1-DK2/bootloader/optee-os-custom/lib/libutils/ext/snprintk.c:146
     5a6:	42a8      	cmp	r0, r5
     5a8:	f04f 0300 	mov.w	r3, #0
/home/aom1/Work/Linux/target/STM32MP1-DK2/bootloader/optee-os-custom/lib/libutils/ext/snprintk.c:147
     5ac:	bf2c      	ite	cs
     5ae:	f806 3c01 	strbcs.w	r3, [r6, #-1]
/home/aom1/Work/Linux/target/STM32MP1-DK2/bootloader/optee-os-custom/lib/libutils/ext/snprintk.c:149
     5b2:	5423      	strbcc	r3, [r4, r0]
/home/aom1/Work/Linux/target/STM32MP1-DK2/bootloader/optee-os-custom/lib/libutils/ext/snprintk.c:152
     5b4:	b004      	add	sp, #16
     5b6:	bd70      	pop	{r4, r5, r6, pc}

000005b8 <vsnprintk>:
vsnprintk():
/home/aom1/Work/Linux/target/STM32MP1-DK2/bootloader/optee-os-custom/lib/libutils/ext/snprintk.c:130
     5b8:	b513      	push	{r0, r1, r4, lr}
/home/aom1/Work/Linux/target/STM32MP1-DK2/bootloader/optee-os-custom/lib/libutils/ext/snprintk.c:131
     5ba:	2401      	movs	r4, #1
     5bc:	9400      	str	r4, [sp, #0]
     5be:	f7ff ffe3 	bl	588 <__vsnprintf>
/home/aom1/Work/Linux/target/STM32MP1-DK2/bootloader/optee-os-custom/lib/libutils/ext/snprintk.c:132
     5c2:	b002      	add	sp, #8
     5c4:	bd10      	pop	{r4, pc}

000005c6 <snprintk>:
snprintk():
/home/aom1/Work/Linux/target/STM32MP1-DK2/bootloader/optee-os-custom/lib/libutils/ext/snprintk.c:113
     5c6:	b40c      	push	{r2, r3}
     5c8:	b507      	push	{r0, r1, r2, lr}
     5ca:	ab04      	add	r3, sp, #16
     5cc:	f853 2b04 	ldr.w	r2, [r3], #4
/home/aom1/Work/Linux/target/STM32MP1-DK2/bootloader/optee-os-custom/lib/libutils/ext/snprintk.c:117
     5d0:	9301      	str	r3, [sp, #4]
/home/aom1/Work/Linux/target/STM32MP1-DK2/bootloader/optee-os-custom/lib/libutils/ext/snprintk.c:118
     5d2:	f7ff fff1 	bl	5b8 <vsnprintk>
/home/aom1/Work/Linux/target/STM32MP1-DK2/bootloader/optee-os-custom/lib/libutils/ext/snprintk.c:122
     5d6:	b003      	add	sp, #12
     5d8:	f85d eb04 	ldr.w	lr, [sp], #4
     5dc:	b002      	add	sp, #8
     5de:	4770      	bx	lr

000005e0 <kprintf.constprop.0>:
kprintf():
/home/aom1/Work/Linux/target/STM32MP1-DK2/bootloader/optee-os-custom/lib/libutils/ext/snprintk.c:242
     5e0:	e92d 4ff0 	stmdb	sp!, {r4, r5, r6, r7, r8, r9, sl, fp, lr}
     5e4:	b09d      	sub	sp, #116	; 0x74
     5e6:	4616      	mov	r6, r2
     5e8:	4607      	mov	r7, r0
     5ea:	f89d 2098 	ldrb.w	r2, [sp, #152]	; 0x98
     5ee:	461d      	mov	r5, r3
/home/aom1/Work/Linux/target/STM32MP1-DK2/bootloader/optee-os-custom/lib/libutils/ext/snprintk.c:264
     5f0:	910c      	str	r1, [sp, #48]	; 0x30
/home/aom1/Work/Linux/target/STM32MP1-DK2/bootloader/optee-os-custom/lib/libutils/ext/snprintk.c:242
     5f2:	9211      	str	r2, [sp, #68]	; 0x44
/home/aom1/Work/Linux/target/STM32MP1-DK2/bootloader/optee-os-custom/lib/libutils/ext/snprintk.c:264
     5f4:	b179      	cbz	r1, 616 <kprintf.constprop.0+0x36>
/home/aom1/Work/Linux/target/STM32MP1-DK2/bootloader/optee-os-custom/lib/libutils/ext/snprintk.c:265
     5f6:	680b      	ldr	r3, [r1, #0]
/home/aom1/Work/Linux/target/STM32MP1-DK2/bootloader/optee-os-custom/lib/libutils/ext/snprintk.c:267
     5f8:	930e      	str	r3, [sp, #56]	; 0x38
/home/aom1/Work/Linux/target/STM32MP1-DK2/bootloader/optee-os-custom/lib/libutils/ext/snprintk.c:275
     5fa:	2300      	movs	r3, #0
     5fc:	930f      	str	r3, [sp, #60]	; 0x3c
/home/aom1/Work/Linux/target/STM32MP1-DK2/bootloader/optee-os-custom/lib/libutils/ext/snprintk.c:273
     5fe:	930b      	str	r3, [sp, #44]	; 0x2c
/home/aom1/Work/Linux/target/STM32MP1-DK2/bootloader/optee-os-custom/lib/libutils/ext/snprintk.c:281
     600:	783b      	ldrb	r3, [r7, #0]
     602:	2b25      	cmp	r3, #37	; 0x25
     604:	d016      	beq.n	634 <kprintf.constprop.0+0x54>
     606:	b943      	cbnz	r3, 61a <kprintf.constprop.0+0x3a>
/home/aom1/Work/Linux/target/STM32MP1-DK2/bootloader/optee-os-custom/lib/libutils/ext/snprintk.c:619
     608:	9b0c      	ldr	r3, [sp, #48]	; 0x30
     60a:	b103      	cbz	r3, 60e <kprintf.constprop.0+0x2e>
/home/aom1/Work/Linux/target/STM32MP1-DK2/bootloader/optee-os-custom/lib/libutils/ext/snprintk.c:620
     60c:	601e      	str	r6, [r3, #0]
/home/aom1/Work/Linux/target/STM32MP1-DK2/bootloader/optee-os-custom/lib/libutils/ext/snprintk.c:622
     60e:	980b      	ldr	r0, [sp, #44]	; 0x2c
     610:	b01d      	add	sp, #116	; 0x74
     612:	e8bd 8ff0 	ldmia.w	sp!, {r4, r5, r6, r7, r8, r9, sl, fp, pc}
/home/aom1/Work/Linux/target/STM32MP1-DK2/bootloader/optee-os-custom/lib/libutils/ext/snprintk.c:267
     616:	9b0c      	ldr	r3, [sp, #48]	; 0x30
     618:	e7ee      	b.n	5f8 <kprintf.constprop.0+0x18>
/home/aom1/Work/Linux/target/STM32MP1-DK2/bootloader/optee-os-custom/lib/libutils/ext/snprintk.c:282
     61a:	9a0b      	ldr	r2, [sp, #44]	; 0x2c
     61c:	3201      	adds	r2, #1
     61e:	920b      	str	r2, [sp, #44]	; 0x2c
/home/aom1/Work/Linux/target/STM32MP1-DK2/bootloader/optee-os-custom/lib/libutils/ext/snprintk.c:283
     620:	b136      	cbz	r6, 630 <kprintf.constprop.0+0x50>
     622:	9a0c      	ldr	r2, [sp, #48]	; 0x30
     624:	b112      	cbz	r2, 62c <kprintf.constprop.0+0x4c>
     626:	9a0e      	ldr	r2, [sp, #56]	; 0x38
     628:	4296      	cmp	r6, r2
     62a:	d201      	bcs.n	630 <kprintf.constprop.0+0x50>
     62c:	f806 3b01 	strb.w	r3, [r6], #1
/home/aom1/Work/Linux/target/STM32MP1-DK2/bootloader/optee-os-custom/lib/libutils/ext/snprintk.c:281
     630:	3701      	adds	r7, #1
     632:	e7e5      	b.n	600 <kprintf.constprop.0+0x20>
/home/aom1/Work/Linux/target/STM32MP1-DK2/bootloader/optee-os-custom/lib/libutils/ext/snprintk.c:294
     634:	f04f 0800 	mov.w	r8, #0
/home/aom1/Work/Linux/target/STM32MP1-DK2/bootloader/optee-os-custom/lib/libutils/ext/snprintk.c:288
     638:	3701      	adds	r7, #1
/home/aom1/Work/Linux/target/STM32MP1-DK2/bootloader/optee-os-custom/lib/libutils/ext/snprintk.c:292
     63a:	f8cd 8034 	str.w	r8, [sp, #52]	; 0x34
/home/aom1/Work/Linux/target/STM32MP1-DK2/bootloader/optee-os-custom/lib/libutils/ext/snprintk.c:288
     63e:	462b      	mov	r3, r5
/home/aom1/Work/Linux/target/STM32MP1-DK2/bootloader/optee-os-custom/lib/libutils/ext/snprintk.c:293
     640:	f04f 39ff 	mov.w	r9, #4294967295	; 0xffffffff
/home/aom1/Work/Linux/target/STM32MP1-DK2/bootloader/optee-os-custom/lib/libutils/ext/snprintk.c:290
     644:	4644      	mov	r4, r8
/home/aom1/Work/Linux/target/STM32MP1-DK2/bootloader/optee-os-custom/lib/libutils/ext/snprintk.c:296
     646:	f817 bb01 	ldrb.w	fp, [r7], #1
/home/aom1/Work/Linux/target/STM32MP1-DK2/bootloader/optee-os-custom/lib/libutils/ext/snprintk.c:297
     64a:	f1bb 0f39 	cmp.w	fp, #57	; 0x39
     64e:	dc54      	bgt.n	6fa <kprintf.constprop.0+0x11a>
     650:	f1bb 0f1f 	cmp.w	fp, #31
     654:	f340 82ad 	ble.w	bb2 <kprintf.constprop.0+0x5d2>
     658:	f1ab 0220 	sub.w	r2, fp, #32
     65c:	2a19      	cmp	r2, #25
     65e:	d850      	bhi.n	702 <kprintf.constprop.0+0x122>
     660:	e8df f002 	tbb	[pc, r2]
     664:	594f4f53 	.word	0x594f4f53
     668:	4f4f4f4f 	.word	0x4f4f4f4f
     66c:	0d5c4f4f 	.word	0x0d5c4f4f
     670:	4f66634f 	.word	0x4f66634f
     674:	8080807d 	.word	0x8080807d
     678:	80808080 	.word	0x80808080
     67c:	8080      	.short	0x8080
     67e:	f04f 082b 	mov.w	r8, #43	; 0x2b
     682:	e7e0      	b.n	646 <kprintf.constprop.0+0x66>
     684:	2a36      	cmp	r2, #54	; 0x36
     686:	d83c      	bhi.n	702 <kprintf.constprop.0+0x122>
     688:	e8df f012 	tbh	[pc, r2, lsl #1]
     68c:	003b009e 	.word	0x003b009e
     690:	003b003b 	.word	0x003b003b
     694:	003b003b 	.word	0x003b003b
     698:	003b003b 	.word	0x003b003b
     69c:	003b003b 	.word	0x003b003b
     6a0:	0160003b 	.word	0x0160003b
     6a4:	003b003b 	.word	0x003b003b
     6a8:	003b003b 	.word	0x003b003b
     6ac:	0204003b 	.word	0x0204003b
     6b0:	003b003b 	.word	0x003b003b
     6b4:	003b023f 	.word	0x003b023f
     6b8:	003b003b 	.word	0x003b003b
     6bc:	003b003b 	.word	0x003b003b
     6c0:	003b003b 	.word	0x003b003b
     6c4:	003b003b 	.word	0x003b003b
     6c8:	0092003b 	.word	0x0092003b
     6cc:	003b00a0 	.word	0x003b00a0
     6d0:	003b003b 	.word	0x003b003b
     6d4:	00a0007c 	.word	0x00a0007c
     6d8:	003b007f 	.word	0x003b007f
     6dc:	003b0082 	.word	0x003b0082
     6e0:	01620143 	.word	0x01620143
     6e4:	0086019d 	.word	0x0086019d
     6e8:	01e6003b 	.word	0x01e6003b
     6ec:	0206008c 	.word	0x0206008c
     6f0:	003b003b 	.word	0x003b003b
     6f4:	003b024e 	.word	0x003b024e
     6f8:	008f      	.short	0x008f
     6fa:	f1ab 0244 	sub.w	r2, fp, #68	; 0x44
     6fe:	2a36      	cmp	r2, #54	; 0x36
     700:	d9c0      	bls.n	684 <kprintf.constprop.0+0xa4>
/home/aom1/Work/Linux/target/STM32MP1-DK2/bootloader/optee-os-custom/lib/libutils/ext/snprintk.c:551
     702:	f88d b048 	strb.w	fp, [sp, #72]	; 0x48
/home/aom1/Work/Linux/target/STM32MP1-DK2/bootloader/optee-os-custom/lib/libutils/ext/snprintk.c:554
     706:	461d      	mov	r5, r3
     708:	e057      	b.n	7ba <kprintf.constprop.0+0x1da>
/home/aom1/Work/Linux/target/STM32MP1-DK2/bootloader/optee-os-custom/lib/libutils/ext/snprintk.c:305
     70a:	f1b8 0f00 	cmp.w	r8, #0
     70e:	bf08      	it	eq
     710:	f04f 0820 	moveq.w	r8, #32
     714:	e797      	b.n	646 <kprintf.constprop.0+0x66>
/home/aom1/Work/Linux/target/STM32MP1-DK2/bootloader/optee-os-custom/lib/libutils/ext/snprintk.c:308
     716:	f044 0401 	orr.w	r4, r4, #1
/home/aom1/Work/Linux/target/STM32MP1-DK2/bootloader/optee-os-custom/lib/libutils/ext/snprintk.c:309
     71a:	e794      	b.n	646 <kprintf.constprop.0+0x66>
/home/aom1/Work/Linux/target/STM32MP1-DK2/bootloader/optee-os-custom/lib/libutils/ext/snprintk.c:317
     71c:	f853 2b04 	ldr.w	r2, [r3], #4
     720:	920d      	str	r2, [sp, #52]	; 0x34
     722:	2a00      	cmp	r2, #0
     724:	da8f      	bge.n	646 <kprintf.constprop.0+0x66>
/home/aom1/Work/Linux/target/STM32MP1-DK2/bootloader/optee-os-custom/lib/libutils/ext/snprintk.c:319
     726:	4252      	negs	r2, r2
     728:	920d      	str	r2, [sp, #52]	; 0x34
/home/aom1/Work/Linux/target/STM32MP1-DK2/bootloader/optee-os-custom/lib/libutils/ext/snprintk.c:322
     72a:	f044 0404 	orr.w	r4, r4, #4
/home/aom1/Work/Linux/target/STM32MP1-DK2/bootloader/optee-os-custom/lib/libutils/ext/snprintk.c:323
     72e:	e78a      	b.n	646 <kprintf.constprop.0+0x66>
/home/aom1/Work/Linux/target/STM32MP1-DK2/bootloader/optee-os-custom/lib/libutils/ext/snprintk.c:328
     730:	f817 bb01 	ldrb.w	fp, [r7], #1
     734:	f1bb 0f2a 	cmp.w	fp, #42	; 0x2a
     738:	d10e      	bne.n	758 <kprintf.constprop.0+0x178>
/home/aom1/Work/Linux/target/STM32MP1-DK2/bootloader/optee-os-custom/lib/libutils/ext/snprintk.c:330
     73a:	f853 2b04 	ldr.w	r2, [r3], #4
     73e:	ea42 79e2 	orr.w	r9, r2, r2, asr #31
/home/aom1/Work/Linux/target/STM32MP1-DK2/bootloader/optee-os-custom/lib/libutils/ext/snprintk.c:331
     742:	e780      	b.n	646 <kprintf.constprop.0+0x66>
/home/aom1/Work/Linux/target/STM32MP1-DK2/bootloader/optee-os-custom/lib/libutils/ext/snprintk.c:336
     744:	f817 bb01 	ldrb.w	fp, [r7], #1
/home/aom1/Work/Linux/target/STM32MP1-DK2/bootloader/optee-os-custom/lib/libutils/ext/snprintk.c:335
     748:	210a      	movs	r1, #10
     74a:	fb01 2909 	mla	r9, r1, r9, r2
/home/aom1/Work/Linux/target/STM32MP1-DK2/bootloader/optee-os-custom/lib/libutils/ext/snprintk.c:334
     74e:	f1ab 0230 	sub.w	r2, fp, #48	; 0x30
     752:	2a09      	cmp	r2, #9
     754:	d9f6      	bls.n	744 <kprintf.constprop.0+0x164>
     756:	e778      	b.n	64a <kprintf.constprop.0+0x6a>
/home/aom1/Work/Linux/target/STM32MP1-DK2/bootloader/optee-os-custom/lib/libutils/ext/snprintk.c:333
     758:	f04f 0900 	mov.w	r9, #0
     75c:	e7f7      	b.n	74e <kprintf.constprop.0+0x16e>
/home/aom1/Work/Linux/target/STM32MP1-DK2/bootloader/optee-os-custom/lib/libutils/ext/snprintk.c:346
     75e:	f444 6480 	orr.w	r4, r4, #1024	; 0x400
/home/aom1/Work/Linux/target/STM32MP1-DK2/bootloader/optee-os-custom/lib/libutils/ext/snprintk.c:347
     762:	e770      	b.n	646 <kprintf.constprop.0+0x66>
/home/aom1/Work/Linux/target/STM32MP1-DK2/bootloader/optee-os-custom/lib/libutils/ext/snprintk.c:297
     764:	2200      	movs	r2, #0
     766:	920d      	str	r2, [sp, #52]	; 0x34
/home/aom1/Work/Linux/target/STM32MP1-DK2/bootloader/optee-os-custom/lib/libutils/ext/snprintk.c:352
     768:	990d      	ldr	r1, [sp, #52]	; 0x34
     76a:	f1ab 0230 	sub.w	r2, fp, #48	; 0x30
/home/aom1/Work/Linux/target/STM32MP1-DK2/bootloader/optee-os-custom/lib/libutils/ext/snprintk.c:353
     76e:	f817 bb01 	ldrb.w	fp, [r7], #1
/home/aom1/Work/Linux/target/STM32MP1-DK2/bootloader/optee-os-custom/lib/libutils/ext/snprintk.c:352
     772:	200a      	movs	r0, #10
     774:	fb00 2201 	mla	r2, r0, r1, r2
     778:	920d      	str	r2, [sp, #52]	; 0x34
/home/aom1/Work/Linux/target/STM32MP1-DK2/bootloader/optee-os-custom/lib/libutils/ext/snprintk.c:354
     77a:	f1ab 0230 	sub.w	r2, fp, #48	; 0x30
     77e:	2a09      	cmp	r2, #9
     780:	d9f2      	bls.n	768 <kprintf.constprop.0+0x188>
     782:	e762      	b.n	64a <kprintf.constprop.0+0x6a>
/home/aom1/Work/Linux/target/STM32MP1-DK2/bootloader/optee-os-custom/lib/libutils/ext/snprintk.c:358
     784:	f044 0440 	orr.w	r4, r4, #64	; 0x40
/home/aom1/Work/Linux/target/STM32MP1-DK2/bootloader/optee-os-custom/lib/libutils/ext/snprintk.c:359
     788:	e75d      	b.n	646 <kprintf.constprop.0+0x66>
/home/aom1/Work/Linux/target/STM32MP1-DK2/bootloader/optee-os-custom/lib/libutils/ext/snprintk.c:361
     78a:	f044 0480 	orr.w	r4, r4, #128	; 0x80
/home/aom1/Work/Linux/target/STM32MP1-DK2/bootloader/optee-os-custom/lib/libutils/ext/snprintk.c:362
     78e:	e75a      	b.n	646 <kprintf.constprop.0+0x66>
/home/aom1/Work/Linux/target/STM32MP1-DK2/bootloader/optee-os-custom/lib/libutils/ext/snprintk.c:364
     790:	783a      	ldrb	r2, [r7, #0]
     792:	2a6c      	cmp	r2, #108	; 0x6c
     794:	d103      	bne.n	79e <kprintf.constprop.0+0x1be>
/home/aom1/Work/Linux/target/STM32MP1-DK2/bootloader/optee-os-custom/lib/libutils/ext/snprintk.c:328
     796:	3701      	adds	r7, #1
/home/aom1/Work/Linux/target/STM32MP1-DK2/bootloader/optee-os-custom/lib/libutils/ext/snprintk.c:372
     798:	f044 0420 	orr.w	r4, r4, #32
/home/aom1/Work/Linux/target/STM32MP1-DK2/bootloader/optee-os-custom/lib/libutils/ext/snprintk.c:373
     79c:	e753      	b.n	646 <kprintf.constprop.0+0x66>
/home/aom1/Work/Linux/target/STM32MP1-DK2/bootloader/optee-os-custom/lib/libutils/ext/snprintk.c:368
     79e:	f044 0410 	orr.w	r4, r4, #16
     7a2:	e750      	b.n	646 <kprintf.constprop.0+0x66>
/home/aom1/Work/Linux/target/STM32MP1-DK2/bootloader/optee-os-custom/lib/libutils/ext/snprintk.c:375
     7a4:	f444 7480 	orr.w	r4, r4, #256	; 0x100
/home/aom1/Work/Linux/target/STM32MP1-DK2/bootloader/optee-os-custom/lib/libutils/ext/snprintk.c:376
     7a8:	e74d      	b.n	646 <kprintf.constprop.0+0x66>
/home/aom1/Work/Linux/target/STM32MP1-DK2/bootloader/optee-os-custom/lib/libutils/ext/snprintk.c:378
     7aa:	f444 7400 	orr.w	r4, r4, #512	; 0x200
/home/aom1/Work/Linux/target/STM32MP1-DK2/bootloader/optee-os-custom/lib/libutils/ext/snprintk.c:379
     7ae:	e74a      	b.n	646 <kprintf.constprop.0+0x66>
/home/aom1/Work/Linux/target/STM32MP1-DK2/bootloader/optee-os-custom/lib/libutils/ext/snprintk.c:381
     7b0:	461d      	mov	r5, r3
     7b2:	f855 3b04 	ldr.w	r3, [r5], #4
     7b6:	f88d 3048 	strb.w	r3, [sp, #72]	; 0x48
/home/aom1/Work/Linux/target/STM32MP1-DK2/bootloader/optee-os-custom/lib/libutils/ext/snprintk.c:291
     7ba:	2000      	movs	r0, #0
/home/aom1/Work/Linux/target/STM32MP1-DK2/bootloader/optee-os-custom/lib/libutils/ext/snprintk.c:552
     7bc:	f04f 0901 	mov.w	r9, #1
/home/aom1/Work/Linux/target/STM32MP1-DK2/bootloader/optee-os-custom/lib/libutils/ext/snprintk.c:553
     7c0:	4680      	mov	r8, r0
/home/aom1/Work/Linux/target/STM32MP1-DK2/bootloader/optee-os-custom/lib/libutils/ext/snprintk.c:550
     7c2:	f10d 0a48 	add.w	sl, sp, #72	; 0x48
/home/aom1/Work/Linux/target/STM32MP1-DK2/bootloader/optee-os-custom/lib/libutils/ext/snprintk.c:554
     7c6:	e03c      	b.n	842 <kprintf.constprop.0+0x262>
/home/aom1/Work/Linux/target/STM32MP1-DK2/bootloader/optee-os-custom/lib/libutils/ext/snprintk.c:386
     7c8:	f044 0410 	orr.w	r4, r4, #16
/home/aom1/Work/Linux/target/STM32MP1-DK2/bootloader/optee-os-custom/lib/libutils/ext/snprintk.c:390
     7cc:	0625      	lsls	r5, r4, #24
     7ce:	f140 8087 	bpl.w	8e0 <kprintf.constprop.0+0x300>
     7d2:	3307      	adds	r3, #7
     7d4:	f023 0307 	bic.w	r3, r3, #7
     7d8:	461d      	mov	r5, r3
     7da:	6859      	ldr	r1, [r3, #4]
     7dc:	f855 0b08 	ldr.w	r0, [r5], #8
/home/aom1/Work/Linux/target/STM32MP1-DK2/bootloader/optee-os-custom/lib/libutils/ext/snprintk.c:391
     7e0:	2900      	cmp	r1, #0
     7e2:	f280 8165 	bge.w	ab0 <kprintf.constprop.0+0x4d0>
/home/aom1/Work/Linux/target/STM32MP1-DK2/bootloader/optee-os-custom/lib/libutils/ext/snprintk.c:392
     7e6:	4240      	negs	r0, r0
/home/aom1/Work/Linux/target/STM32MP1-DK2/bootloader/optee-os-custom/lib/libutils/ext/snprintk.c:395
     7e8:	f04f 0301 	mov.w	r3, #1
/home/aom1/Work/Linux/target/STM32MP1-DK2/bootloader/optee-os-custom/lib/libutils/ext/snprintk.c:392
     7ec:	eb61 0141 	sbc.w	r1, r1, r1, lsl #1
/home/aom1/Work/Linux/target/STM32MP1-DK2/bootloader/optee-os-custom/lib/libutils/ext/snprintk.c:393
     7f0:	f04f 082d 	mov.w	r8, #45	; 0x2d
/home/aom1/Work/Linux/target/STM32MP1-DK2/bootloader/optee-os-custom/lib/libutils/ext/snprintk.c:494
     7f4:	f1b9 3fff 	cmp.w	r9, #4294967295	; 0xffffffff
     7f8:	f040 80c3 	bne.w	982 <kprintf.constprop.0+0x3a2>
/home/aom1/Work/Linux/target/STM32MP1-DK2/bootloader/optee-os-custom/lib/libutils/ext/snprintk.c:509
     7fc:	2b01      	cmp	r3, #1
     7fe:	f000 815a 	beq.w	ab6 <kprintf.constprop.0+0x4d6>
     802:	2b02      	cmp	r3, #2
     804:	f000 8118 	beq.w	a38 <kprintf.constprop.0+0x458>
/home/aom1/Work/Linux/target/STM32MP1-DK2/bootloader/optee-os-custom/lib/libutils/ext/snprintk.c:494
     808:	f10d 0a6d 	add.w	sl, sp, #109	; 0x6d
/home/aom1/Work/Linux/target/STM32MP1-DK2/bootloader/optee-os-custom/lib/libutils/ext/snprintk.c:512
     80c:	f000 0307 	and.w	r3, r0, #7
     810:	4652      	mov	r2, sl
/home/aom1/Work/Linux/target/STM32MP1-DK2/bootloader/optee-os-custom/lib/libutils/ext/snprintk.c:513
     812:	08c0      	lsrs	r0, r0, #3
/home/aom1/Work/Linux/target/STM32MP1-DK2/bootloader/optee-os-custom/lib/libutils/ext/snprintk.c:512
     814:	3330      	adds	r3, #48	; 0x30
/home/aom1/Work/Linux/target/STM32MP1-DK2/bootloader/optee-os-custom/lib/libutils/ext/snprintk.c:513
     816:	ea40 7041 	orr.w	r0, r0, r1, lsl #29
     81a:	08c9      	lsrs	r1, r1, #3
/home/aom1/Work/Linux/target/STM32MP1-DK2/bootloader/optee-os-custom/lib/libutils/ext/snprintk.c:514
     81c:	ea50 0c01 	orrs.w	ip, r0, r1
/home/aom1/Work/Linux/target/STM32MP1-DK2/bootloader/optee-os-custom/lib/libutils/ext/snprintk.c:512
     820:	f80a 3d01 	strb.w	r3, [sl, #-1]!
/home/aom1/Work/Linux/target/STM32MP1-DK2/bootloader/optee-os-custom/lib/libutils/ext/snprintk.c:514
     824:	d1f2      	bne.n	80c <kprintf.constprop.0+0x22c>
/home/aom1/Work/Linux/target/STM32MP1-DK2/bootloader/optee-os-custom/lib/libutils/ext/snprintk.c:516
     826:	07e1      	lsls	r1, r4, #31
     828:	d506      	bpl.n	838 <kprintf.constprop.0+0x258>
     82a:	2b30      	cmp	r3, #48	; 0x30
     82c:	d004      	beq.n	838 <kprintf.constprop.0+0x258>
/home/aom1/Work/Linux/target/STM32MP1-DK2/bootloader/optee-os-custom/lib/libutils/ext/snprintk.c:517
     82e:	2330      	movs	r3, #48	; 0x30
     830:	f80a 3c01 	strb.w	r3, [sl, #-1]
     834:	f1a2 0a02 	sub.w	sl, r2, #2
/home/aom1/Work/Linux/target/STM32MP1-DK2/bootloader/optee-os-custom/lib/libutils/ext/snprintk.c:543
     838:	4648      	mov	r0, r9
     83a:	f10d 096d 	add.w	r9, sp, #109	; 0x6d
     83e:	eba9 090a 	sub.w	r9, r9, sl
/home/aom1/Work/Linux/target/STM32MP1-DK2/bootloader/optee-os-custom/lib/libutils/ext/snprintk.c:571
     842:	4548      	cmp	r0, r9
     844:	4603      	mov	r3, r0
     846:	bfb8      	it	lt
     848:	464b      	movlt	r3, r9
/home/aom1/Work/Linux/target/STM32MP1-DK2/bootloader/optee-os-custom/lib/libutils/ext/snprintk.c:572
     84a:	f1b8 0f00 	cmp.w	r8, #0
     84e:	f000 81b5 	beq.w	bbc <kprintf.constprop.0+0x5dc>
/home/aom1/Work/Linux/target/STM32MP1-DK2/bootloader/optee-os-custom/lib/libutils/ext/snprintk.c:573
     852:	3301      	adds	r3, #1
/home/aom1/Work/Linux/target/STM32MP1-DK2/bootloader/optee-os-custom/lib/libutils/ext/snprintk.c:578
     854:	9a0b      	ldr	r2, [sp, #44]	; 0x2c
     856:	990d      	ldr	r1, [sp, #52]	; 0x34
     858:	428b      	cmp	r3, r1
     85a:	bfac      	ite	ge
     85c:	18d2      	addge	r2, r2, r3
     85e:	1852      	addlt	r2, r2, r1
/home/aom1/Work/Linux/target/STM32MP1-DK2/bootloader/optee-os-custom/lib/libutils/ext/snprintk.c:581
     860:	f240 4104 	movw	r1, #1028	; 0x404
     864:	ea14 0e01 	ands.w	lr, r4, r1
/home/aom1/Work/Linux/target/STM32MP1-DK2/bootloader/optee-os-custom/lib/libutils/ext/snprintk.c:578
     868:	920b      	str	r2, [sp, #44]	; 0x2c
/home/aom1/Work/Linux/target/STM32MP1-DK2/bootloader/optee-os-custom/lib/libutils/ext/snprintk.c:581
     86a:	d106      	bne.n	87a <kprintf.constprop.0+0x29a>
/home/aom1/Work/Linux/target/STM32MP1-DK2/bootloader/optee-os-custom/lib/libutils/ext/snprintk.c:582
     86c:	9a0d      	ldr	r2, [sp, #52]	; 0x34
/home/aom1/Work/Linux/target/STM32MP1-DK2/bootloader/optee-os-custom/lib/libutils/ext/snprintk.c:584
     86e:	f04f 0c20 	mov.w	ip, #32
/home/aom1/Work/Linux/target/STM32MP1-DK2/bootloader/optee-os-custom/lib/libutils/ext/snprintk.c:582
     872:	1ad2      	subs	r2, r2, r3
/home/aom1/Work/Linux/target/STM32MP1-DK2/bootloader/optee-os-custom/lib/libutils/ext/snprintk.c:583
     874:	2a00      	cmp	r2, #0
     876:	f300 81a5 	bgt.w	bc4 <kprintf.constprop.0+0x5e4>
/home/aom1/Work/Linux/target/STM32MP1-DK2/bootloader/optee-os-custom/lib/libutils/ext/snprintk.c:588
     87a:	f1b8 0f00 	cmp.w	r8, #0
     87e:	f000 81ab 	beq.w	bd8 <kprintf.constprop.0+0x5f8>
/home/aom1/Work/Linux/target/STM32MP1-DK2/bootloader/optee-os-custom/lib/libutils/ext/snprintk.c:589
     882:	b136      	cbz	r6, 892 <kprintf.constprop.0+0x2b2>
     884:	9a0c      	ldr	r2, [sp, #48]	; 0x30
     886:	b112      	cbz	r2, 88e <kprintf.constprop.0+0x2ae>
     888:	9a0e      	ldr	r2, [sp, #56]	; 0x38
     88a:	42b2      	cmp	r2, r6
     88c:	d901      	bls.n	892 <kprintf.constprop.0+0x2b2>
     88e:	f806 8b01 	strb.w	r8, [r6], #1
/home/aom1/Work/Linux/target/STM32MP1-DK2/bootloader/optee-os-custom/lib/libutils/ext/snprintk.c:596
     892:	f5be 6f80 	cmp.w	lr, #1024	; 0x400
     896:	d106      	bne.n	8a6 <kprintf.constprop.0+0x2c6>
/home/aom1/Work/Linux/target/STM32MP1-DK2/bootloader/optee-os-custom/lib/libutils/ext/snprintk.c:597
     898:	9a0d      	ldr	r2, [sp, #52]	; 0x34
/home/aom1/Work/Linux/target/STM32MP1-DK2/bootloader/optee-os-custom/lib/libutils/ext/snprintk.c:599
     89a:	f04f 0c30 	mov.w	ip, #48	; 0x30
/home/aom1/Work/Linux/target/STM32MP1-DK2/bootloader/optee-os-custom/lib/libutils/ext/snprintk.c:597
     89e:	1ad2      	subs	r2, r2, r3
/home/aom1/Work/Linux/target/STM32MP1-DK2/bootloader/optee-os-custom/lib/libutils/ext/snprintk.c:598
     8a0:	2a00      	cmp	r2, #0
     8a2:	f300 81b3 	bgt.w	c0c <kprintf.constprop.0+0x62c>
/home/aom1/Work/Linux/target/STM32MP1-DK2/bootloader/optee-os-custom/lib/libutils/ext/snprintk.c:603
     8a6:	eba0 0009 	sub.w	r0, r0, r9
/home/aom1/Work/Linux/target/STM32MP1-DK2/bootloader/optee-os-custom/lib/libutils/ext/snprintk.c:605
     8aa:	2230      	movs	r2, #48	; 0x30
/home/aom1/Work/Linux/target/STM32MP1-DK2/bootloader/optee-os-custom/lib/libutils/ext/snprintk.c:604
     8ac:	2800      	cmp	r0, #0
     8ae:	f300 81b7 	bgt.w	c20 <kprintf.constprop.0+0x640>
     8b2:	44d1      	add	r9, sl
/home/aom1/Work/Linux/target/STM32MP1-DK2/bootloader/optee-os-custom/lib/libutils/ext/snprintk.c:608
     8b4:	45ca      	cmp	sl, r9
     8b6:	f040 81bd 	bne.w	c34 <kprintf.constprop.0+0x654>
/home/aom1/Work/Linux/target/STM32MP1-DK2/bootloader/optee-os-custom/lib/libutils/ext/snprintk.c:611
     8ba:	0762      	lsls	r2, r4, #29
     8bc:	f57f aea0 	bpl.w	600 <kprintf.constprop.0+0x20>
/home/aom1/Work/Linux/target/STM32MP1-DK2/bootloader/optee-os-custom/lib/libutils/ext/snprintk.c:612
     8c0:	9a0d      	ldr	r2, [sp, #52]	; 0x34
     8c2:	1ad3      	subs	r3, r2, r3
/home/aom1/Work/Linux/target/STM32MP1-DK2/bootloader/optee-os-custom/lib/libutils/ext/snprintk.c:614
     8c4:	2220      	movs	r2, #32
/home/aom1/Work/Linux/target/STM32MP1-DK2/bootloader/optee-os-custom/lib/libutils/ext/snprintk.c:613
     8c6:	2b00      	cmp	r3, #0
     8c8:	f77f ae9a 	ble.w	600 <kprintf.constprop.0+0x20>
/home/aom1/Work/Linux/target/STM32MP1-DK2/bootloader/optee-os-custom/lib/libutils/ext/snprintk.c:614
     8cc:	b136      	cbz	r6, 8dc <kprintf.constprop.0+0x2fc>
     8ce:	990c      	ldr	r1, [sp, #48]	; 0x30
     8d0:	b111      	cbz	r1, 8d8 <kprintf.constprop.0+0x2f8>
     8d2:	990e      	ldr	r1, [sp, #56]	; 0x38
     8d4:	42b1      	cmp	r1, r6
     8d6:	d901      	bls.n	8dc <kprintf.constprop.0+0x2fc>
     8d8:	f806 2b01 	strb.w	r2, [r6], #1
     8dc:	3b01      	subs	r3, #1
     8de:	e7f2      	b.n	8c6 <kprintf.constprop.0+0x2e6>
/home/aom1/Work/Linux/target/STM32MP1-DK2/bootloader/optee-os-custom/lib/libutils/ext/snprintk.c:390
     8e0:	05e0      	lsls	r0, r4, #23
     8e2:	d504      	bpl.n	8ee <kprintf.constprop.0+0x30e>
     8e4:	461d      	mov	r5, r3
     8e6:	f855 0b04 	ldr.w	r0, [r5], #4
     8ea:	17c1      	asrs	r1, r0, #31
     8ec:	e778      	b.n	7e0 <kprintf.constprop.0+0x200>
     8ee:	05a1      	lsls	r1, r4, #22
     8f0:	d4f8      	bmi.n	8e4 <kprintf.constprop.0+0x304>
     8f2:	06a2      	lsls	r2, r4, #26
     8f4:	f53f af6d 	bmi.w	7d2 <kprintf.constprop.0+0x1f2>
/home/aom1/Work/Linux/target/STM32MP1-DK2/bootloader/optee-os-custom/lib/libutils/ext/snprintk.c:317
     8f8:	461d      	mov	r5, r3
/home/aom1/Work/Linux/target/STM32MP1-DK2/bootloader/optee-os-custom/lib/libutils/ext/snprintk.c:390
     8fa:	06e3      	lsls	r3, r4, #27
/home/aom1/Work/Linux/target/STM32MP1-DK2/bootloader/optee-os-custom/lib/libutils/ext/snprintk.c:317
     8fc:	f855 1b04 	ldr.w	r1, [r5], #4
/home/aom1/Work/Linux/target/STM32MP1-DK2/bootloader/optee-os-custom/lib/libutils/ext/snprintk.c:390
     900:	d501      	bpl.n	906 <kprintf.constprop.0+0x326>
     902:	4608      	mov	r0, r1
     904:	e7f1      	b.n	8ea <kprintf.constprop.0+0x30a>
     906:	0660      	lsls	r0, r4, #25
     908:	d5fb      	bpl.n	902 <kprintf.constprop.0+0x322>
     90a:	b208      	sxth	r0, r1
     90c:	f341 31c0 	sbfx	r1, r1, #15, #1
     910:	e766      	b.n	7e0 <kprintf.constprop.0+0x200>
/home/aom1/Work/Linux/target/STM32MP1-DK2/bootloader/optee-os-custom/lib/libutils/ext/snprintk.c:398
     912:	0621      	lsls	r1, r4, #24
/home/aom1/Work/Linux/target/STM32MP1-DK2/bootloader/optee-os-custom/lib/libutils/ext/snprintk.c:317
     914:	f103 0504 	add.w	r5, r3, #4
/home/aom1/Work/Linux/target/STM32MP1-DK2/bootloader/optee-os-custom/lib/libutils/ext/snprintk.c:398
     918:	d506      	bpl.n	928 <kprintf.constprop.0+0x348>
/home/aom1/Work/Linux/target/STM32MP1-DK2/bootloader/optee-os-custom/lib/libutils/ext/snprintk.c:405
     91a:	9a0b      	ldr	r2, [sp, #44]	; 0x2c
     91c:	681b      	ldr	r3, [r3, #0]
     91e:	990b      	ldr	r1, [sp, #44]	; 0x2c
     920:	17d2      	asrs	r2, r2, #31
     922:	e9c3 1200 	strd	r1, r2, [r3]
     926:	e66b      	b.n	600 <kprintf.constprop.0+0x20>
/home/aom1/Work/Linux/target/STM32MP1-DK2/bootloader/optee-os-custom/lib/libutils/ext/snprintk.c:400
     928:	05e2      	lsls	r2, r4, #23
     92a:	d503      	bpl.n	934 <kprintf.constprop.0+0x354>
/home/aom1/Work/Linux/target/STM32MP1-DK2/bootloader/optee-os-custom/lib/libutils/ext/snprintk.c:411
     92c:	681b      	ldr	r3, [r3, #0]
     92e:	9a0b      	ldr	r2, [sp, #44]	; 0x2c
     930:	601a      	str	r2, [r3, #0]
     932:	e665      	b.n	600 <kprintf.constprop.0+0x20>
/home/aom1/Work/Linux/target/STM32MP1-DK2/bootloader/optee-os-custom/lib/libutils/ext/snprintk.c:402
     934:	05a0      	lsls	r0, r4, #22
     936:	d4f9      	bmi.n	92c <kprintf.constprop.0+0x34c>
/home/aom1/Work/Linux/target/STM32MP1-DK2/bootloader/optee-os-custom/lib/libutils/ext/snprintk.c:404
     938:	06a1      	lsls	r1, r4, #26
     93a:	d4ee      	bmi.n	91a <kprintf.constprop.0+0x33a>
/home/aom1/Work/Linux/target/STM32MP1-DK2/bootloader/optee-os-custom/lib/libutils/ext/snprintk.c:406
     93c:	06e2      	lsls	r2, r4, #27
     93e:	d4f5      	bmi.n	92c <kprintf.constprop.0+0x34c>
/home/aom1/Work/Linux/target/STM32MP1-DK2/bootloader/optee-os-custom/lib/libutils/ext/snprintk.c:408
     940:	0664      	lsls	r4, r4, #25
     942:	d5f3      	bpl.n	92c <kprintf.constprop.0+0x34c>
/home/aom1/Work/Linux/target/STM32MP1-DK2/bootloader/optee-os-custom/lib/libutils/ext/snprintk.c:409
     944:	681b      	ldr	r3, [r3, #0]
     946:	9a0b      	ldr	r2, [sp, #44]	; 0x2c
     948:	801a      	strh	r2, [r3, #0]
     94a:	e659      	b.n	600 <kprintf.constprop.0+0x20>
/home/aom1/Work/Linux/target/STM32MP1-DK2/bootloader/optee-os-custom/lib/libutils/ext/snprintk.c:414
     94c:	f044 0410 	orr.w	r4, r4, #16
/home/aom1/Work/Linux/target/STM32MP1-DK2/bootloader/optee-os-custom/lib/libutils/ext/snprintk.c:417
     950:	f014 0280 	ands.w	r2, r4, #128	; 0x80
     954:	d007      	beq.n	966 <kprintf.constprop.0+0x386>
     956:	3307      	adds	r3, #7
     958:	f023 0307 	bic.w	r3, r3, #7
     95c:	461d      	mov	r5, r3
     95e:	6859      	ldr	r1, [r3, #4]
     960:	f855 0b08 	ldr.w	r0, [r5], #8
     964:	e006      	b.n	974 <kprintf.constprop.0+0x394>
     966:	f414 7180 	ands.w	r1, r4, #256	; 0x100
     96a:	d017      	beq.n	99c <kprintf.constprop.0+0x3bc>
     96c:	461d      	mov	r5, r3
     96e:	4611      	mov	r1, r2
     970:	f855 0b04 	ldr.w	r0, [r5], #4
/home/aom1/Work/Linux/target/STM32MP1-DK2/bootloader/optee-os-custom/lib/libutils/ext/snprintk.c:494
     974:	f1b9 3fff 	cmp.w	r9, #4294967295	; 0xffffffff
     978:	f04f 0800 	mov.w	r8, #0
     97c:	f43f af44 	beq.w	808 <kprintf.constprop.0+0x228>
     980:	4643      	mov	r3, r8
/home/aom1/Work/Linux/target/STM32MP1-DK2/bootloader/optee-os-custom/lib/libutils/ext/snprintk.c:503
     982:	ea50 0201 	orrs.w	r2, r0, r1
/home/aom1/Work/Linux/target/STM32MP1-DK2/bootloader/optee-os-custom/lib/libutils/ext/snprintk.c:495
     986:	f424 6480 	bic.w	r4, r4, #1024	; 0x400
/home/aom1/Work/Linux/target/STM32MP1-DK2/bootloader/optee-os-custom/lib/libutils/ext/snprintk.c:503
     98a:	f47f af37 	bne.w	7fc <kprintf.constprop.0+0x21c>
     98e:	f1b9 0f00 	cmp.w	r9, #0
     992:	f47f af33 	bne.w	7fc <kprintf.constprop.0+0x21c>
/home/aom1/Work/Linux/target/STM32MP1-DK2/bootloader/optee-os-custom/lib/libutils/ext/snprintk.c:502
     996:	f10d 0a6d 	add.w	sl, sp, #109	; 0x6d
     99a:	e74d      	b.n	838 <kprintf.constprop.0+0x258>
/home/aom1/Work/Linux/target/STM32MP1-DK2/bootloader/optee-os-custom/lib/libutils/ext/snprintk.c:417
     99c:	05a0      	lsls	r0, r4, #22
     99e:	d503      	bpl.n	9a8 <kprintf.constprop.0+0x3c8>
     9a0:	461d      	mov	r5, r3
     9a2:	f855 0b04 	ldr.w	r0, [r5], #4
     9a6:	e7e5      	b.n	974 <kprintf.constprop.0+0x394>
     9a8:	f014 0120 	ands.w	r1, r4, #32
     9ac:	d1d3      	bne.n	956 <kprintf.constprop.0+0x376>
/home/aom1/Work/Linux/target/STM32MP1-DK2/bootloader/optee-os-custom/lib/libutils/ext/snprintk.c:317
     9ae:	461d      	mov	r5, r3
/home/aom1/Work/Linux/target/STM32MP1-DK2/bootloader/optee-os-custom/lib/libutils/ext/snprintk.c:417
     9b0:	f014 0310 	ands.w	r3, r4, #16
/home/aom1/Work/Linux/target/STM32MP1-DK2/bootloader/optee-os-custom/lib/libutils/ext/snprintk.c:317
     9b4:	f855 0b04 	ldr.w	r0, [r5], #4
/home/aom1/Work/Linux/target/STM32MP1-DK2/bootloader/optee-os-custom/lib/libutils/ext/snprintk.c:417
     9b8:	d1dc      	bne.n	974 <kprintf.constprop.0+0x394>
     9ba:	f014 0140 	ands.w	r1, r4, #64	; 0x40
     9be:	d0d9      	beq.n	974 <kprintf.constprop.0+0x394>
     9c0:	b280      	uxth	r0, r0
     9c2:	4619      	mov	r1, r3
     9c4:	e7d6      	b.n	974 <kprintf.constprop.0+0x394>
/home/aom1/Work/Linux/target/STM32MP1-DK2/bootloader/optee-os-custom/lib/libutils/ext/snprintk.c:317
     9c6:	461d      	mov	r5, r3
/home/aom1/Work/Linux/target/STM32MP1-DK2/bootloader/optee-os-custom/lib/libutils/ext/snprintk.c:421
     9c8:	9b11      	ldr	r3, [sp, #68]	; 0x44
     9ca:	f855 0b04 	ldr.w	r0, [r5], #4
     9ce:	b32b      	cbz	r3, a1c <kprintf.constprop.0+0x43c>
     9d0:	783b      	ldrb	r3, [r7, #0]
     9d2:	2b55      	cmp	r3, #85	; 0x55
     9d4:	d122      	bne.n	a1c <kprintf.constprop.0+0x43c>
     9d6:	787b      	ldrb	r3, [r7, #1]
     9d8:	2b6c      	cmp	r3, #108	; 0x6c
     9da:	d11f      	bne.n	a1c <kprintf.constprop.0+0x43c>
uuid2str():
/home/aom1/Work/Linux/target/STM32MP1-DK2/bootloader/optee-os-custom/lib/libutils/ext/snprintk.c:229
     9dc:	7bc3      	ldrb	r3, [r0, #15]
     9de:	f10d 0a48 	add.w	sl, sp, #72	; 0x48
     9e2:	4a9b      	ldr	r2, [pc, #620]	; (c50 <kprintf.constprop.0+0x670>)
     9e4:	2125      	movs	r1, #37	; 0x25
     9e6:	9309      	str	r3, [sp, #36]	; 0x24
kprintf():
/home/aom1/Work/Linux/target/STM32MP1-DK2/bootloader/optee-os-custom/lib/libutils/ext/snprintk.c:426
     9e8:	3702      	adds	r7, #2
uuid2str():
/home/aom1/Work/Linux/target/STM32MP1-DK2/bootloader/optee-os-custom/lib/libutils/ext/snprintk.c:229
     9ea:	7b83      	ldrb	r3, [r0, #14]
     9ec:	447a      	add	r2, pc
     9ee:	9308      	str	r3, [sp, #32]
     9f0:	7b43      	ldrb	r3, [r0, #13]
     9f2:	9307      	str	r3, [sp, #28]
     9f4:	7b03      	ldrb	r3, [r0, #12]
     9f6:	9306      	str	r3, [sp, #24]
     9f8:	7ac3      	ldrb	r3, [r0, #11]
     9fa:	9305      	str	r3, [sp, #20]
     9fc:	7a83      	ldrb	r3, [r0, #10]
     9fe:	9304      	str	r3, [sp, #16]
     a00:	7a43      	ldrb	r3, [r0, #9]
     a02:	9303      	str	r3, [sp, #12]
     a04:	7a03      	ldrb	r3, [r0, #8]
     a06:	9302      	str	r3, [sp, #8]
     a08:	88c3      	ldrh	r3, [r0, #6]
     a0a:	9301      	str	r3, [sp, #4]
     a0c:	8883      	ldrh	r3, [r0, #4]
     a0e:	9300      	str	r3, [sp, #0]
     a10:	6803      	ldr	r3, [r0, #0]
     a12:	4650      	mov	r0, sl
     a14:	f7ff fdd7 	bl	5c6 <snprintk>
kprintf():
/home/aom1/Work/Linux/target/STM32MP1-DK2/bootloader/optee-os-custom/lib/libutils/ext/snprintk.c:466
     a18:	4681      	mov	r9, r0
     a1a:	e034      	b.n	a86 <kprintf.constprop.0+0x4a6>
/home/aom1/Work/Linux/target/STM32MP1-DK2/bootloader/optee-os-custom/lib/libutils/ext/snprintk.c:443
     a1c:	4b8d      	ldr	r3, [pc, #564]	; (c54 <kprintf.constprop.0+0x674>)
/home/aom1/Work/Linux/target/STM32MP1-DK2/bootloader/optee-os-custom/lib/libutils/ext/snprintk.c:441
     a1e:	2100      	movs	r1, #0
/home/aom1/Work/Linux/target/STM32MP1-DK2/bootloader/optee-os-custom/lib/libutils/ext/snprintk.c:444
     a20:	f044 0402 	orr.w	r4, r4, #2
/home/aom1/Work/Linux/target/STM32MP1-DK2/bootloader/optee-os-custom/lib/libutils/ext/snprintk.c:445
     a24:	f04f 0b78 	mov.w	fp, #120	; 0x78
/home/aom1/Work/Linux/target/STM32MP1-DK2/bootloader/optee-os-custom/lib/libutils/ext/snprintk.c:443
     a28:	447b      	add	r3, pc
     a2a:	930f      	str	r3, [sp, #60]	; 0x3c
/home/aom1/Work/Linux/target/STM32MP1-DK2/bootloader/optee-os-custom/lib/libutils/ext/snprintk.c:494
     a2c:	f1b9 3fff 	cmp.w	r9, #4294967295	; 0xffffffff
     a30:	f04f 0800 	mov.w	r8, #0
     a34:	f040 80a3 	bne.w	b7e <kprintf.constprop.0+0x59e>
     a38:	f10d 0a6d 	add.w	sl, sp, #109	; 0x6d
/home/aom1/Work/Linux/target/STM32MP1-DK2/bootloader/optee-os-custom/lib/libutils/ext/snprintk.c:531
     a3c:	9a0f      	ldr	r2, [sp, #60]	; 0x3c
     a3e:	f000 030f 	and.w	r3, r0, #15
/home/aom1/Work/Linux/target/STM32MP1-DK2/bootloader/optee-os-custom/lib/libutils/ext/snprintk.c:532
     a42:	0900      	lsrs	r0, r0, #4
/home/aom1/Work/Linux/target/STM32MP1-DK2/bootloader/optee-os-custom/lib/libutils/ext/snprintk.c:531
     a44:	5cd3      	ldrb	r3, [r2, r3]
/home/aom1/Work/Linux/target/STM32MP1-DK2/bootloader/optee-os-custom/lib/libutils/ext/snprintk.c:532
     a46:	ea40 7001 	orr.w	r0, r0, r1, lsl #28
     a4a:	0909      	lsrs	r1, r1, #4
/home/aom1/Work/Linux/target/STM32MP1-DK2/bootloader/optee-os-custom/lib/libutils/ext/snprintk.c:531
     a4c:	f80a 3d01 	strb.w	r3, [sl, #-1]!
/home/aom1/Work/Linux/target/STM32MP1-DK2/bootloader/optee-os-custom/lib/libutils/ext/snprintk.c:533
     a50:	ea50 0301 	orrs.w	r3, r0, r1
     a54:	d1f2      	bne.n	a3c <kprintf.constprop.0+0x45c>
     a56:	e6ef      	b.n	838 <kprintf.constprop.0+0x258>
/home/aom1/Work/Linux/target/STM32MP1-DK2/bootloader/optee-os-custom/lib/libutils/ext/snprintk.c:448
     a58:	461d      	mov	r5, r3
     a5a:	f855 ab04 	ldr.w	sl, [r5], #4
     a5e:	f1ba 0f00 	cmp.w	sl, #0
     a62:	d102      	bne.n	a6a <kprintf.constprop.0+0x48a>
/home/aom1/Work/Linux/target/STM32MP1-DK2/bootloader/optee-os-custom/lib/libutils/ext/snprintk.c:450
     a64:	f8df a1f0 	ldr.w	sl, [pc, #496]	; c58 <kprintf.constprop.0+0x678>
     a68:	44fa      	add	sl, pc
/home/aom1/Work/Linux/target/STM32MP1-DK2/bootloader/optee-os-custom/lib/libutils/ext/snprintk.c:451
     a6a:	f1b9 3fff 	cmp.w	r9, #4294967295	; 0xffffffff
     a6e:	d00d      	beq.n	a8c <kprintf.constprop.0+0x4ac>
/home/aom1/Work/Linux/target/STM32MP1-DK2/bootloader/optee-os-custom/lib/libutils/ext/snprintk.c:457
     a70:	464a      	mov	r2, r9
     a72:	2100      	movs	r1, #0
     a74:	4650      	mov	r0, sl
     a76:	f006 fa54 	bl	6f22 <memchr>
/home/aom1/Work/Linux/target/STM32MP1-DK2/bootloader/optee-os-custom/lib/libutils/ext/snprintk.c:459
     a7a:	b128      	cbz	r0, a88 <kprintf.constprop.0+0x4a8>
/home/aom1/Work/Linux/target/STM32MP1-DK2/bootloader/optee-os-custom/lib/libutils/ext/snprintk.c:460
     a7c:	eba0 000a 	sub.w	r0, r0, sl
     a80:	4581      	cmp	r9, r0
     a82:	bfa8      	it	ge
     a84:	4681      	movge	r9, r0
/home/aom1/Work/Linux/target/STM32MP1-DK2/bootloader/optee-os-custom/lib/libutils/ext/snprintk.c:291
     a86:	2000      	movs	r0, #0
/home/aom1/Work/Linux/target/STM32MP1-DK2/bootloader/optee-os-custom/lib/libutils/ext/snprintk.c:467
     a88:	4680      	mov	r8, r0
     a8a:	e6da      	b.n	842 <kprintf.constprop.0+0x262>
/home/aom1/Work/Linux/target/STM32MP1-DK2/bootloader/optee-os-custom/lib/libutils/ext/snprintk.c:466
     a8c:	4650      	mov	r0, sl
     a8e:	f006 fa56 	bl	6f3e <strlen>
     a92:	e7c1      	b.n	a18 <kprintf.constprop.0+0x438>
/home/aom1/Work/Linux/target/STM32MP1-DK2/bootloader/optee-os-custom/lib/libutils/ext/snprintk.c:470
     a94:	f044 0410 	orr.w	r4, r4, #16
/home/aom1/Work/Linux/target/STM32MP1-DK2/bootloader/optee-os-custom/lib/libutils/ext/snprintk.c:473
     a98:	f014 0280 	ands.w	r2, r4, #128	; 0x80
     a9c:	d00f      	beq.n	abe <kprintf.constprop.0+0x4de>
     a9e:	3307      	adds	r3, #7
     aa0:	f023 0307 	bic.w	r3, r3, #7
     aa4:	461d      	mov	r5, r3
     aa6:	6859      	ldr	r1, [r3, #4]
     aa8:	f855 0b08 	ldr.w	r0, [r5], #8
/home/aom1/Work/Linux/target/STM32MP1-DK2/bootloader/optee-os-custom/lib/libutils/ext/snprintk.c:488
     aac:	f04f 0800 	mov.w	r8, #0
/home/aom1/Work/Linux/target/STM32MP1-DK2/bootloader/optee-os-custom/lib/libutils/ext/snprintk.c:494
     ab0:	f1b9 3fff 	cmp.w	r9, #4294967295	; 0xffffffff
     ab4:	d165      	bne.n	b82 <kprintf.constprop.0+0x5a2>
     ab6:	f10d 036d 	add.w	r3, sp, #109	; 0x6d
     aba:	9310      	str	r3, [sp, #64]	; 0x40
     abc:	e06d      	b.n	b9a <kprintf.constprop.0+0x5ba>
/home/aom1/Work/Linux/target/STM32MP1-DK2/bootloader/optee-os-custom/lib/libutils/ext/snprintk.c:473
     abe:	f414 7180 	ands.w	r1, r4, #256	; 0x100
     ac2:	d004      	beq.n	ace <kprintf.constprop.0+0x4ee>
     ac4:	461d      	mov	r5, r3
     ac6:	4611      	mov	r1, r2
     ac8:	f855 0b04 	ldr.w	r0, [r5], #4
     acc:	e7ee      	b.n	aac <kprintf.constprop.0+0x4cc>
     ace:	f414 7800 	ands.w	r8, r4, #512	; 0x200
     ad2:	d003      	beq.n	adc <kprintf.constprop.0+0x4fc>
     ad4:	461d      	mov	r5, r3
     ad6:	f855 0b04 	ldr.w	r0, [r5], #4
     ada:	e7e7      	b.n	aac <kprintf.constprop.0+0x4cc>
     adc:	f014 0120 	ands.w	r1, r4, #32
     ae0:	d007      	beq.n	af2 <kprintf.constprop.0+0x512>
     ae2:	3307      	adds	r3, #7
     ae4:	f023 0307 	bic.w	r3, r3, #7
     ae8:	461d      	mov	r5, r3
     aea:	6859      	ldr	r1, [r3, #4]
     aec:	f855 0b08 	ldr.w	r0, [r5], #8
     af0:	e7de      	b.n	ab0 <kprintf.constprop.0+0x4d0>
/home/aom1/Work/Linux/target/STM32MP1-DK2/bootloader/optee-os-custom/lib/libutils/ext/snprintk.c:317
     af2:	461d      	mov	r5, r3
/home/aom1/Work/Linux/target/STM32MP1-DK2/bootloader/optee-os-custom/lib/libutils/ext/snprintk.c:473
     af4:	f014 0310 	ands.w	r3, r4, #16
/home/aom1/Work/Linux/target/STM32MP1-DK2/bootloader/optee-os-custom/lib/libutils/ext/snprintk.c:317
     af8:	f855 0b04 	ldr.w	r0, [r5], #4
/home/aom1/Work/Linux/target/STM32MP1-DK2/bootloader/optee-os-custom/lib/libutils/ext/snprintk.c:473
     afc:	d1d6      	bne.n	aac <kprintf.constprop.0+0x4cc>
     afe:	f014 0140 	ands.w	r1, r4, #64	; 0x40
     b02:	d0d3      	beq.n	aac <kprintf.constprop.0+0x4cc>
     b04:	b280      	uxth	r0, r0
     b06:	4619      	mov	r1, r3
     b08:	e7d0      	b.n	aac <kprintf.constprop.0+0x4cc>
/home/aom1/Work/Linux/target/STM32MP1-DK2/bootloader/optee-os-custom/lib/libutils/ext/snprintk.c:297
     b0a:	4a54      	ldr	r2, [pc, #336]	; (c5c <kprintf.constprop.0+0x67c>)
     b0c:	447a      	add	r2, pc
     b0e:	3211      	adds	r2, #17
/home/aom1/Work/Linux/target/STM32MP1-DK2/bootloader/optee-os-custom/lib/libutils/ext/snprintk.c:480
     b10:	920f      	str	r2, [sp, #60]	; 0x3c
/home/aom1/Work/Linux/target/STM32MP1-DK2/bootloader/optee-os-custom/lib/libutils/ext/snprintk.c:481
     b12:	f014 0280 	ands.w	r2, r4, #128	; 0x80
     b16:	d00a      	beq.n	b2e <kprintf.constprop.0+0x54e>
     b18:	3307      	adds	r3, #7
     b1a:	f023 0307 	bic.w	r3, r3, #7
     b1e:	461d      	mov	r5, r3
     b20:	6859      	ldr	r1, [r3, #4]
     b22:	f855 0b08 	ldr.w	r0, [r5], #8
     b26:	e009      	b.n	b3c <kprintf.constprop.0+0x55c>
/home/aom1/Work/Linux/target/STM32MP1-DK2/bootloader/optee-os-custom/lib/libutils/ext/snprintk.c:480
     b28:	4a4d      	ldr	r2, [pc, #308]	; (c60 <kprintf.constprop.0+0x680>)
     b2a:	447a      	add	r2, pc
     b2c:	e7f0      	b.n	b10 <kprintf.constprop.0+0x530>
/home/aom1/Work/Linux/target/STM32MP1-DK2/bootloader/optee-os-custom/lib/libutils/ext/snprintk.c:481
     b2e:	f414 7180 	ands.w	r1, r4, #256	; 0x100
     b32:	d00f      	beq.n	b54 <kprintf.constprop.0+0x574>
     b34:	461d      	mov	r5, r3
     b36:	4611      	mov	r1, r2
     b38:	f855 0b04 	ldr.w	r0, [r5], #4
/home/aom1/Work/Linux/target/STM32MP1-DK2/bootloader/optee-os-custom/lib/libutils/ext/snprintk.c:484
     b3c:	07e3      	lsls	r3, r4, #31
     b3e:	f57f af75 	bpl.w	a2c <kprintf.constprop.0+0x44c>
     b42:	ea50 0301 	orrs.w	r3, r0, r1
/home/aom1/Work/Linux/target/STM32MP1-DK2/bootloader/optee-os-custom/lib/libutils/ext/snprintk.c:488
     b46:	f04f 0800 	mov.w	r8, #0
/home/aom1/Work/Linux/target/STM32MP1-DK2/bootloader/optee-os-custom/lib/libutils/ext/snprintk.c:485
     b4a:	bf18      	it	ne
     b4c:	f044 0402 	orrne.w	r4, r4, #2
/home/aom1/Work/Linux/target/STM32MP1-DK2/bootloader/optee-os-custom/lib/libutils/ext/snprintk.c:482
     b50:	2302      	movs	r3, #2
     b52:	e64f      	b.n	7f4 <kprintf.constprop.0+0x214>
/home/aom1/Work/Linux/target/STM32MP1-DK2/bootloader/optee-os-custom/lib/libutils/ext/snprintk.c:481
     b54:	05a2      	lsls	r2, r4, #22
     b56:	d503      	bpl.n	b60 <kprintf.constprop.0+0x580>
     b58:	461d      	mov	r5, r3
     b5a:	f855 0b04 	ldr.w	r0, [r5], #4
     b5e:	e7ed      	b.n	b3c <kprintf.constprop.0+0x55c>
     b60:	f014 0120 	ands.w	r1, r4, #32
     b64:	d1d8      	bne.n	b18 <kprintf.constprop.0+0x538>
/home/aom1/Work/Linux/target/STM32MP1-DK2/bootloader/optee-os-custom/lib/libutils/ext/snprintk.c:317
     b66:	461d      	mov	r5, r3
/home/aom1/Work/Linux/target/STM32MP1-DK2/bootloader/optee-os-custom/lib/libutils/ext/snprintk.c:481
     b68:	f014 0310 	ands.w	r3, r4, #16
/home/aom1/Work/Linux/target/STM32MP1-DK2/bootloader/optee-os-custom/lib/libutils/ext/snprintk.c:317
     b6c:	f855 0b04 	ldr.w	r0, [r5], #4
/home/aom1/Work/Linux/target/STM32MP1-DK2/bootloader/optee-os-custom/lib/libutils/ext/snprintk.c:481
     b70:	d1e4      	bne.n	b3c <kprintf.constprop.0+0x55c>
     b72:	f014 0140 	ands.w	r1, r4, #64	; 0x40
     b76:	bf1c      	itt	ne
     b78:	b280      	uxthne	r0, r0
     b7a:	4619      	movne	r1, r3
     b7c:	e7de      	b.n	b3c <kprintf.constprop.0+0x55c>
/home/aom1/Work/Linux/target/STM32MP1-DK2/bootloader/optee-os-custom/lib/libutils/ext/snprintk.c:494
     b7e:	2302      	movs	r3, #2
     b80:	e6ff      	b.n	982 <kprintf.constprop.0+0x3a2>
     b82:	2301      	movs	r3, #1
     b84:	e6fd      	b.n	982 <kprintf.constprop.0+0x3a2>
/home/aom1/Work/Linux/target/STM32MP1-DK2/bootloader/optee-os-custom/lib/libutils/ext/snprintk.c:523
     b86:	220a      	movs	r2, #10
     b88:	2300      	movs	r3, #0
     b8a:	f000 e884 	blx	c94 <__aeabi_uldivmod>
     b8e:	9b10      	ldr	r3, [sp, #64]	; 0x40
     b90:	3230      	adds	r2, #48	; 0x30
/home/aom1/Work/Linux/target/STM32MP1-DK2/bootloader/optee-os-custom/lib/libutils/ext/snprintk.c:524
     b92:	f8cd a040 	str.w	sl, [sp, #64]	; 0x40
/home/aom1/Work/Linux/target/STM32MP1-DK2/bootloader/optee-os-custom/lib/libutils/ext/snprintk.c:523
     b96:	f803 2c01 	strb.w	r2, [r3, #-1]
     b9a:	9b10      	ldr	r3, [sp, #64]	; 0x40
/home/aom1/Work/Linux/target/STM32MP1-DK2/bootloader/optee-os-custom/lib/libutils/ext/snprintk.c:522
     b9c:	280a      	cmp	r0, #10
/home/aom1/Work/Linux/target/STM32MP1-DK2/bootloader/optee-os-custom/lib/libutils/ext/snprintk.c:523
     b9e:	f103 3aff 	add.w	sl, r3, #4294967295	; 0xffffffff
/home/aom1/Work/Linux/target/STM32MP1-DK2/bootloader/optee-os-custom/lib/libutils/ext/snprintk.c:522
     ba2:	f171 0300 	sbcs.w	r3, r1, #0
     ba6:	d2ee      	bcs.n	b86 <kprintf.constprop.0+0x5a6>
/home/aom1/Work/Linux/target/STM32MP1-DK2/bootloader/optee-os-custom/lib/libutils/ext/snprintk.c:526
     ba8:	9b10      	ldr	r3, [sp, #64]	; 0x40
     baa:	3030      	adds	r0, #48	; 0x30
     bac:	f803 0c01 	strb.w	r0, [r3, #-1]
/home/aom1/Work/Linux/target/STM32MP1-DK2/bootloader/optee-os-custom/lib/libutils/ext/snprintk.c:527
     bb0:	e642      	b.n	838 <kprintf.constprop.0+0x258>
/home/aom1/Work/Linux/target/STM32MP1-DK2/bootloader/optee-os-custom/lib/libutils/ext/snprintk.c:547
     bb2:	f1bb 0f00 	cmp.w	fp, #0
     bb6:	f43f ad27 	beq.w	608 <kprintf.constprop.0+0x28>
     bba:	e5a2      	b.n	702 <kprintf.constprop.0+0x122>
/home/aom1/Work/Linux/target/STM32MP1-DK2/bootloader/optee-os-custom/lib/libutils/ext/snprintk.c:574
     bbc:	07a2      	lsls	r2, r4, #30
/home/aom1/Work/Linux/target/STM32MP1-DK2/bootloader/optee-os-custom/lib/libutils/ext/snprintk.c:575
     bbe:	bf48      	it	mi
     bc0:	3302      	addmi	r3, #2
     bc2:	e647      	b.n	854 <kprintf.constprop.0+0x274>
/home/aom1/Work/Linux/target/STM32MP1-DK2/bootloader/optee-os-custom/lib/libutils/ext/snprintk.c:584
     bc4:	b136      	cbz	r6, bd4 <kprintf.constprop.0+0x5f4>
     bc6:	990c      	ldr	r1, [sp, #48]	; 0x30
     bc8:	b111      	cbz	r1, bd0 <kprintf.constprop.0+0x5f0>
     bca:	990e      	ldr	r1, [sp, #56]	; 0x38
     bcc:	42b1      	cmp	r1, r6
     bce:	d901      	bls.n	bd4 <kprintf.constprop.0+0x5f4>
     bd0:	f806 cb01 	strb.w	ip, [r6], #1
     bd4:	3a01      	subs	r2, #1
     bd6:	e64d      	b.n	874 <kprintf.constprop.0+0x294>
/home/aom1/Work/Linux/target/STM32MP1-DK2/bootloader/optee-os-custom/lib/libutils/ext/snprintk.c:590
     bd8:	07a1      	lsls	r1, r4, #30
     bda:	f57f ae5a 	bpl.w	892 <kprintf.constprop.0+0x2b2>
/home/aom1/Work/Linux/target/STM32MP1-DK2/bootloader/optee-os-custom/lib/libutils/ext/snprintk.c:591
     bde:	2e00      	cmp	r6, #0
     be0:	f43f ae57 	beq.w	892 <kprintf.constprop.0+0x2b2>
     be4:	9a0c      	ldr	r2, [sp, #48]	; 0x30
     be6:	b11a      	cbz	r2, bf0 <kprintf.constprop.0+0x610>
     be8:	9a0e      	ldr	r2, [sp, #56]	; 0x38
     bea:	42b2      	cmp	r2, r6
     bec:	f67f ae51 	bls.w	892 <kprintf.constprop.0+0x2b2>
     bf0:	2230      	movs	r2, #48	; 0x30
     bf2:	7032      	strb	r2, [r6, #0]
/home/aom1/Work/Linux/target/STM32MP1-DK2/bootloader/optee-os-custom/lib/libutils/ext/snprintk.c:592
     bf4:	9a0c      	ldr	r2, [sp, #48]	; 0x30
     bf6:	b11a      	cbz	r2, c00 <kprintf.constprop.0+0x620>
     bf8:	990e      	ldr	r1, [sp, #56]	; 0x38
/home/aom1/Work/Linux/target/STM32MP1-DK2/bootloader/optee-os-custom/lib/libutils/ext/snprintk.c:591
     bfa:	1c72      	adds	r2, r6, #1
/home/aom1/Work/Linux/target/STM32MP1-DK2/bootloader/optee-os-custom/lib/libutils/ext/snprintk.c:592
     bfc:	4291      	cmp	r1, r2
     bfe:	d903      	bls.n	c08 <kprintf.constprop.0+0x628>
     c00:	f886 b001 	strb.w	fp, [r6, #1]
     c04:	3602      	adds	r6, #2
     c06:	e644      	b.n	892 <kprintf.constprop.0+0x2b2>
     c08:	4616      	mov	r6, r2
     c0a:	e642      	b.n	892 <kprintf.constprop.0+0x2b2>
/home/aom1/Work/Linux/target/STM32MP1-DK2/bootloader/optee-os-custom/lib/libutils/ext/snprintk.c:599
     c0c:	b136      	cbz	r6, c1c <kprintf.constprop.0+0x63c>
     c0e:	990c      	ldr	r1, [sp, #48]	; 0x30
     c10:	b111      	cbz	r1, c18 <kprintf.constprop.0+0x638>
     c12:	990e      	ldr	r1, [sp, #56]	; 0x38
     c14:	42b1      	cmp	r1, r6
     c16:	d901      	bls.n	c1c <kprintf.constprop.0+0x63c>
     c18:	f806 cb01 	strb.w	ip, [r6], #1
     c1c:	3a01      	subs	r2, #1
     c1e:	e63f      	b.n	8a0 <kprintf.constprop.0+0x2c0>
/home/aom1/Work/Linux/target/STM32MP1-DK2/bootloader/optee-os-custom/lib/libutils/ext/snprintk.c:605
     c20:	b136      	cbz	r6, c30 <kprintf.constprop.0+0x650>
     c22:	990c      	ldr	r1, [sp, #48]	; 0x30
     c24:	b111      	cbz	r1, c2c <kprintf.constprop.0+0x64c>
     c26:	990e      	ldr	r1, [sp, #56]	; 0x38
     c28:	42b1      	cmp	r1, r6
     c2a:	d901      	bls.n	c30 <kprintf.constprop.0+0x650>
     c2c:	f806 2b01 	strb.w	r2, [r6], #1
     c30:	3801      	subs	r0, #1
     c32:	e63b      	b.n	8ac <kprintf.constprop.0+0x2cc>
/home/aom1/Work/Linux/target/STM32MP1-DK2/bootloader/optee-os-custom/lib/libutils/ext/snprintk.c:609
     c34:	b146      	cbz	r6, c48 <kprintf.constprop.0+0x668>
     c36:	9a0c      	ldr	r2, [sp, #48]	; 0x30
     c38:	b112      	cbz	r2, c40 <kprintf.constprop.0+0x660>
     c3a:	9a0e      	ldr	r2, [sp, #56]	; 0x38
     c3c:	42b2      	cmp	r2, r6
     c3e:	d903      	bls.n	c48 <kprintf.constprop.0+0x668>
     c40:	f89a 2000 	ldrb.w	r2, [sl]
     c44:	f806 2b01 	strb.w	r2, [r6], #1
/home/aom1/Work/Linux/target/STM32MP1-DK2/bootloader/optee-os-custom/lib/libutils/ext/snprintk.c:608
     c48:	f10a 0a01 	add.w	sl, sl, #1
     c4c:	e632      	b.n	8b4 <kprintf.constprop.0+0x2d4>
     c4e:	bf00      	nop
     c50:	00006c5d 	.word	0x00006c5d
     c54:	00006c52 	.word	0x00006c52
     c58:	00006bda 	.word	0x00006bda
     c5c:	00006b6e 	.word	0x00006b6e
     c60:	00006b50 	.word	0x00006b50

00000c64 <__vsprintf>:
__vsprintf():
/home/aom1/Work/Linux/target/STM32MP1-DK2/bootloader/optee-os-custom/lib/libutils/ext/snprintk.c:155
     c64:	b513      	push	{r0, r1, r4, lr}
     c66:	4604      	mov	r4, r0
     c68:	4608      	mov	r0, r1
/home/aom1/Work/Linux/target/STM32MP1-DK2/bootloader/optee-os-custom/lib/libutils/ext/snprintk.c:156
     c6a:	2100      	movs	r1, #0
     c6c:	9100      	str	r1, [sp, #0]
/home/aom1/Work/Linux/target/STM32MP1-DK2/bootloader/optee-os-custom/lib/libutils/ext/snprintk.c:155
     c6e:	4613      	mov	r3, r2
/home/aom1/Work/Linux/target/STM32MP1-DK2/bootloader/optee-os-custom/lib/libutils/ext/snprintk.c:156
     c70:	4622      	mov	r2, r4
     c72:	f7ff fcb5 	bl	5e0 <kprintf.constprop.0>
/home/aom1/Work/Linux/target/STM32MP1-DK2/bootloader/optee-os-custom/lib/libutils/ext/snprintk.c:157
     c76:	b002      	add	sp, #8
     c78:	bd10      	pop	{r4, pc}
     c7a:	bf00      	nop

00000c7c <__aeabi_ldivmod>:
__aeabi_ldivmod():
/home/aom1/Work/Linux/target/STM32MP1-DK2/bootloader/optee-os-custom/lib/libutils/isoc/arch/arm/arm32_aeabi_ldivmod_a32.S:12
     c7c:	e92d5000 	push	{ip, lr}
/home/aom1/Work/Linux/target/STM32MP1-DK2/bootloader/optee-os-custom/lib/libutils/isoc/arch/arm/arm32_aeabi_ldivmod_a32.S:14
     c80:	e92d000f 	push	{r0, r1, r2, r3}
/home/aom1/Work/Linux/target/STM32MP1-DK2/bootloader/optee-os-custom/lib/libutils/isoc/arch/arm/arm32_aeabi_ldivmod_a32.S:16
     c84:	e1a0000d 	mov	r0, sp
/home/aom1/Work/Linux/target/STM32MP1-DK2/bootloader/optee-os-custom/lib/libutils/isoc/arch/arm/arm32_aeabi_ldivmod_a32.S:17
     c88:	fb0018e0 	blx	7012 <__l_divmod>
/home/aom1/Work/Linux/target/STM32MP1-DK2/bootloader/optee-os-custom/lib/libutils/isoc/arch/arm/arm32_aeabi_ldivmod_a32.S:18
     c8c:	e8bd000f 	pop	{r0, r1, r2, r3}
/home/aom1/Work/Linux/target/STM32MP1-DK2/bootloader/optee-os-custom/lib/libutils/isoc/arch/arm/arm32_aeabi_ldivmod_a32.S:19
     c90:	e8bd9000 	pop	{ip, pc}

00000c94 <__aeabi_uldivmod>:
__aeabi_uldivmod():
/home/aom1/Work/Linux/target/STM32MP1-DK2/bootloader/optee-os-custom/lib/libutils/isoc/arch/arm/arm32_aeabi_ldivmod_a32.S:27
     c94:	e92d5000 	push	{ip, lr}
/home/aom1/Work/Linux/target/STM32MP1-DK2/bootloader/optee-os-custom/lib/libutils/isoc/arch/arm/arm32_aeabi_ldivmod_a32.S:29
     c98:	e92d000f 	push	{r0, r1, r2, r3}
/home/aom1/Work/Linux/target/STM32MP1-DK2/bootloader/optee-os-custom/lib/libutils/isoc/arch/arm/arm32_aeabi_ldivmod_a32.S:31
     c9c:	e1a0000d 	mov	r0, sp
/home/aom1/Work/Linux/target/STM32MP1-DK2/bootloader/optee-os-custom/lib/libutils/isoc/arch/arm/arm32_aeabi_ldivmod_a32.S:32
     ca0:	fa0018cc 	blx	6fd8 <__ul_divmod>
/home/aom1/Work/Linux/target/STM32MP1-DK2/bootloader/optee-os-custom/lib/libutils/isoc/arch/arm/arm32_aeabi_ldivmod_a32.S:33
     ca4:	e8bd000f 	pop	{r0, r1, r2, r3}
/home/aom1/Work/Linux/target/STM32MP1-DK2/bootloader/optee-os-custom/lib/libutils/isoc/arch/arm/arm32_aeabi_ldivmod_a32.S:34
     ca8:	e8bd9000 	pop	{ip, pc}

00000cac <trace_ext_puts>:
trace_ext_puts():
/home/aom1/Work/Linux/target/STM32MP1-DK2/bootloader/optee-os-custom/lib/libutee/trace_ext.c:22
     cac:	b510      	push	{r4, lr}
     cae:	4604      	mov	r4, r0
/home/aom1/Work/Linux/target/STM32MP1-DK2/bootloader/optee-os-custom/lib/libutee/trace_ext.c:26
     cb0:	f006 f945 	bl	6f3e <strlen>
     cb4:	4601      	mov	r1, r0
     cb6:	4620      	mov	r0, r4
/home/aom1/Work/Linux/target/STM32MP1-DK2/bootloader/optee-os-custom/lib/libutee/trace_ext.c:28
     cb8:	e8bd 4010 	ldmia.w	sp!, {r4, lr}
/home/aom1/Work/Linux/target/STM32MP1-DK2/bootloader/optee-os-custom/lib/libutee/trace_ext.c:26
     cbc:	f006 ba48 	b.w	7150 <___utee_log_from_thumb>

00000cc0 <trace_ext_get_thread_id>:
trace_ext_get_thread_id():
/home/aom1/Work/Linux/target/STM32MP1-DK2/bootloader/optee-os-custom/lib/libutee/trace_ext.c:33
     cc0:	f04f 30ff 	mov.w	r0, #4294967295	; 0xffffffff
     cc4:	4770      	bx	lr

00000cc6 <printf>:
printf():
/home/aom1/Work/Linux/target/STM32MP1-DK2/bootloader/optee-os-custom/lib/libutee/trace_ext.c:41
     cc6:	b40f      	push	{r0, r1, r2, r3}
     cc8:	b530      	push	{r4, r5, lr}
     cca:	b0c3      	sub	sp, #268	; 0x10c
/home/aom1/Work/Linux/target/STM32MP1-DK2/bootloader/optee-os-custom/lib/libutee/trace_ext.c:46
     ccc:	f7ff fba8 	bl	420 <trace_get_level>
     cd0:	2800      	cmp	r0, #0
     cd2:	dd13      	ble.n	cfc <printf+0x36>
/home/aom1/Work/Linux/target/STM32MP1-DK2/bootloader/optee-os-custom/lib/libutee/trace_ext.c:50
     cd4:	9a46      	ldr	r2, [sp, #280]	; 0x118
     cd6:	ad02      	add	r5, sp, #8
/home/aom1/Work/Linux/target/STM32MP1-DK2/bootloader/optee-os-custom/lib/libutee/trace_ext.c:49
     cd8:	ab47      	add	r3, sp, #284	; 0x11c
/home/aom1/Work/Linux/target/STM32MP1-DK2/bootloader/optee-os-custom/lib/libutee/trace_ext.c:50
     cda:	f44f 7180 	mov.w	r1, #256	; 0x100
/home/aom1/Work/Linux/target/STM32MP1-DK2/bootloader/optee-os-custom/lib/libutee/trace_ext.c:49
     cde:	9301      	str	r3, [sp, #4]
/home/aom1/Work/Linux/target/STM32MP1-DK2/bootloader/optee-os-custom/lib/libutee/trace_ext.c:50
     ce0:	4628      	mov	r0, r5
     ce2:	f006 f9de 	bl	70a2 <vsnprintf>
/home/aom1/Work/Linux/target/STM32MP1-DK2/bootloader/optee-os-custom/lib/libutee/trace_ext.c:53
     ce6:	1e04      	subs	r4, r0, #0
     ce8:	db02      	blt.n	cf0 <printf+0x2a>
/home/aom1/Work/Linux/target/STM32MP1-DK2/bootloader/optee-os-custom/lib/libutee/trace_ext.c:56
     cea:	4628      	mov	r0, r5
     cec:	f7ff ffde 	bl	cac <trace_ext_puts>
/home/aom1/Work/Linux/target/STM32MP1-DK2/bootloader/optee-os-custom/lib/libutee/trace_ext.c:59
     cf0:	4620      	mov	r0, r4
     cf2:	b043      	add	sp, #268	; 0x10c
     cf4:	e8bd 4030 	ldmia.w	sp!, {r4, r5, lr}
     cf8:	b004      	add	sp, #16
     cfa:	4770      	bx	lr
/home/aom1/Work/Linux/target/STM32MP1-DK2/bootloader/optee-os-custom/lib/libutee/trace_ext.c:47
     cfc:	2400      	movs	r4, #0
     cfe:	e7f7      	b.n	cf0 <printf+0x2a>

00000d00 <puts>:
puts():
/home/aom1/Work/Linux/target/STM32MP1-DK2/bootloader/optee-os-custom/lib/libutee/trace_ext.c:62
     d00:	b510      	push	{r4, lr}
     d02:	4604      	mov	r4, r0
/home/aom1/Work/Linux/target/STM32MP1-DK2/bootloader/optee-os-custom/lib/libutee/trace_ext.c:63
     d04:	f7ff fb8c 	bl	420 <trace_get_level>
     d08:	2800      	cmp	r0, #0
     d0a:	dd06      	ble.n	d1a <puts+0x1a>
/home/aom1/Work/Linux/target/STM32MP1-DK2/bootloader/optee-os-custom/lib/libutee/trace_ext.c:64
     d0c:	4620      	mov	r0, r4
     d0e:	f7ff ffcd 	bl	cac <trace_ext_puts>
/home/aom1/Work/Linux/target/STM32MP1-DK2/bootloader/optee-os-custom/lib/libutee/trace_ext.c:65
     d12:	4803      	ldr	r0, [pc, #12]	; (d20 <puts+0x20>)
     d14:	4478      	add	r0, pc
     d16:	f7ff ffc9 	bl	cac <trace_ext_puts>
/home/aom1/Work/Linux/target/STM32MP1-DK2/bootloader/optee-os-custom/lib/libutee/trace_ext.c:68
     d1a:	2001      	movs	r0, #1
     d1c:	bd10      	pop	{r4, pc}
     d1e:	bf00      	nop
     d20:	00007154 	.word	0x00007154

00000d24 <putchar>:
putchar():
/home/aom1/Work/Linux/target/STM32MP1-DK2/bootloader/optee-os-custom/lib/libutee/trace_ext.c:71
     d24:	b513      	push	{r0, r1, r4, lr}
/home/aom1/Work/Linux/target/STM32MP1-DK2/bootloader/optee-os-custom/lib/libutee/trace_ext.c:72
     d26:	2300      	movs	r3, #0
     d28:	f88d 0004 	strb.w	r0, [sp, #4]
/home/aom1/Work/Linux/target/STM32MP1-DK2/bootloader/optee-os-custom/lib/libutee/trace_ext.c:71
     d2c:	4604      	mov	r4, r0
/home/aom1/Work/Linux/target/STM32MP1-DK2/bootloader/optee-os-custom/lib/libutee/trace_ext.c:72
     d2e:	f88d 3005 	strb.w	r3, [sp, #5]
/home/aom1/Work/Linux/target/STM32MP1-DK2/bootloader/optee-os-custom/lib/libutee/trace_ext.c:74
     d32:	f7ff fb75 	bl	420 <trace_get_level>
     d36:	2800      	cmp	r0, #0
     d38:	dd02      	ble.n	d40 <putchar+0x1c>
/home/aom1/Work/Linux/target/STM32MP1-DK2/bootloader/optee-os-custom/lib/libutee/trace_ext.c:75
     d3a:	a801      	add	r0, sp, #4
     d3c:	f7ff ffb6 	bl	cac <trace_ext_puts>
/home/aom1/Work/Linux/target/STM32MP1-DK2/bootloader/optee-os-custom/lib/libutee/trace_ext.c:82
     d40:	b2e0      	uxtb	r0, r4
     d42:	b002      	add	sp, #8
     d44:	bd10      	pop	{r4, pc}
     d46:	bf00      	nop

00000d48 <update_out_param>:
update_out_param():
/home/aom1/Work/Linux/target/STM32MP1-DK2/bootloader/optee-os-custom/lib/libutee/tee_api.c:121
     d48:	e92d 47f0 	stmdb	sp!, {r4, r5, r6, r7, r8, r9, sl, lr}
     d4c:	4607      	mov	r7, r0
/home/aom1/Work/Linux/target/STM32MP1-DK2/bootloader/optee-os-custom/lib/libutee/tee_api.c:123
     d4e:	f8d2 a000 	ldr.w	sl, [r2]
/home/aom1/Work/Linux/target/STM32MP1-DK2/bootloader/optee-os-custom/lib/libutee/tee_api.c:121
     d52:	4688      	mov	r8, r1
     d54:	4614      	mov	r4, r2
     d56:	4606      	mov	r6, r0
/home/aom1/Work/Linux/target/STM32MP1-DK2/bootloader/optee-os-custom/lib/libutee/tee_api.c:123
     d58:	2500      	movs	r5, #0
/home/aom1/Work/Linux/target/STM32MP1-DK2/bootloader/optee-os-custom/lib/libutee/tee_api.c:129
     d5a:	fa2a f205 	lsr.w	r2, sl, r5
/home/aom1/Work/Linux/target/STM32MP1-DK2/bootloader/optee-os-custom/lib/libutee/tee_api.c:126
     d5e:	68a1      	ldr	r1, [r4, #8]
/home/aom1/Work/Linux/target/STM32MP1-DK2/bootloader/optee-os-custom/lib/libutee/tee_api.c:129
     d60:	f012 0f0c 	tst.w	r2, #12
/home/aom1/Work/Linux/target/STM32MP1-DK2/bootloader/optee-os-custom/lib/libutee/tee_api.c:127
     d64:	f8d4 9010 	ldr.w	r9, [r4, #16]
/home/aom1/Work/Linux/target/STM32MP1-DK2/bootloader/optee-os-custom/lib/libutee/tee_api.c:129
     d68:	f002 030f 	and.w	r3, r2, #15
     d6c:	d107      	bne.n	d7e <update_out_param+0x36>
     d6e:	f012 0f0e 	tst.w	r2, #14
     d72:	d007      	beq.n	d84 <update_out_param+0x3c>
/home/aom1/Work/Linux/target/STM32MP1-DK2/bootloader/optee-os-custom/lib/libutee/tee_api.c:126
     d74:	f847 1015 	str.w	r1, [r7, r5, lsl #1]
/home/aom1/Work/Linux/target/STM32MP1-DK2/bootloader/optee-os-custom/lib/libutee/tee_api.c:140
     d78:	f8c6 9004 	str.w	r9, [r6, #4]
/home/aom1/Work/Linux/target/STM32MP1-DK2/bootloader/optee-os-custom/lib/libutee/tee_api.c:141
     d7c:	e002      	b.n	d84 <update_out_param+0x3c>
/home/aom1/Work/Linux/target/STM32MP1-DK2/bootloader/optee-os-custom/lib/libutee/tee_api.c:129
     d7e:	3b06      	subs	r3, #6
     d80:	2b01      	cmp	r3, #1
     d82:	d907      	bls.n	d94 <update_out_param+0x4c>
/home/aom1/Work/Linux/target/STM32MP1-DK2/bootloader/optee-os-custom/lib/libutee/tee_api.c:125 (discriminator 2)
     d84:	3504      	adds	r5, #4
     d86:	3410      	adds	r4, #16
     d88:	2d10      	cmp	r5, #16
     d8a:	f106 0608 	add.w	r6, r6, #8
     d8e:	d1e4      	bne.n	d5a <update_out_param+0x12>
/home/aom1/Work/Linux/target/STM32MP1-DK2/bootloader/optee-os-custom/lib/libutee/tee_api.c:146
     d90:	e8bd 87f0 	ldmia.w	sp!, {r4, r5, r6, r7, r8, r9, sl, pc}
/home/aom1/Work/Linux/target/STM32MP1-DK2/bootloader/optee-os-custom/lib/libutee/tee_api.c:137
     d94:	f858 1005 	ldr.w	r1, [r8, r5]
     d98:	2900      	cmp	r1, #0
     d9a:	d0ed      	beq.n	d78 <update_out_param+0x30>
/home/aom1/Work/Linux/target/STM32MP1-DK2/bootloader/optee-os-custom/lib/libutee/tee_api.c:139
     d9c:	6872      	ldr	r2, [r6, #4]
/home/aom1/Work/Linux/target/STM32MP1-DK2/bootloader/optee-os-custom/lib/libutee/tee_api.c:138
     d9e:	f857 0015 	ldr.w	r0, [r7, r5, lsl #1]
     da2:	454a      	cmp	r2, r9
     da4:	bf28      	it	cs
     da6:	464a      	movcs	r2, r9
     da8:	f005 ffc8 	bl	6d3c <memcpy>
     dac:	e7e4      	b.n	d78 <update_out_param+0x30>

00000dae <TEE_CloseTASession>:
TEE_CloseTASession():
/home/aom1/Work/Linux/target/STM32MP1-DK2/bootloader/optee-os-custom/lib/libutee/tee_api.c:195
     dae:	b508      	push	{r3, lr}
/home/aom1/Work/Linux/target/STM32MP1-DK2/bootloader/optee-os-custom/lib/libutee/tee_api.c:196
     db0:	b130      	cbz	r0, dc0 <TEE_CloseTASession+0x12>
/home/aom1/Work/Linux/target/STM32MP1-DK2/bootloader/optee-os-custom/lib/libutee/tee_api.c:197
     db2:	f000 ef76 	blx	1ca0 <_utee_close_ta_session>
/home/aom1/Work/Linux/target/STM32MP1-DK2/bootloader/optee-os-custom/lib/libutee/tee_api.c:199
     db6:	b118      	cbz	r0, dc0 <TEE_CloseTASession+0x12>
/home/aom1/Work/Linux/target/STM32MP1-DK2/bootloader/optee-os-custom/lib/libutee/tee_api.c:202
     db8:	e8bd 4008 	ldmia.w	sp!, {r3, lr}
/home/aom1/Work/Linux/target/STM32MP1-DK2/bootloader/optee-os-custom/lib/libutee/tee_api.c:200
     dbc:	f000 be1c 	b.w	19f8 <TEE_Panic>
/home/aom1/Work/Linux/target/STM32MP1-DK2/bootloader/optee-os-custom/lib/libutee/tee_api.c:202
     dc0:	bd08      	pop	{r3, pc}

00000dc2 <TEE_GetCancellationFlag>:
TEE_GetCancellationFlag():
/home/aom1/Work/Linux/target/STM32MP1-DK2/bootloader/optee-os-custom/lib/libutee/tee_api.c:257
     dc2:	b507      	push	{r0, r1, r2, lr}
/home/aom1/Work/Linux/target/STM32MP1-DK2/bootloader/optee-os-custom/lib/libutee/tee_api.c:259
     dc4:	a801      	add	r0, sp, #4
     dc6:	f000 ef82 	blx	1ccc <_utee_get_cancellation_flag>
/home/aom1/Work/Linux/target/STM32MP1-DK2/bootloader/optee-os-custom/lib/libutee/tee_api.c:261
     dca:	b108      	cbz	r0, dd0 <TEE_GetCancellationFlag+0xe>
/home/aom1/Work/Linux/target/STM32MP1-DK2/bootloader/optee-os-custom/lib/libutee/tee_api.c:262
     dcc:	2300      	movs	r3, #0
     dce:	9301      	str	r3, [sp, #4]
/home/aom1/Work/Linux/target/STM32MP1-DK2/bootloader/optee-os-custom/lib/libutee/tee_api.c:264
     dd0:	9801      	ldr	r0, [sp, #4]
     dd2:	3800      	subs	r0, #0
     dd4:	bf18      	it	ne
     dd6:	2001      	movne	r0, #1
     dd8:	b003      	add	sp, #12
     dda:	f85d fb04 	ldr.w	pc, [sp], #4

00000dde <TEE_UnmaskCancellation>:
TEE_UnmaskCancellation():
/home/aom1/Work/Linux/target/STM32MP1-DK2/bootloader/optee-os-custom/lib/libutee/tee_api.c:267
     dde:	b507      	push	{r0, r1, r2, lr}
/home/aom1/Work/Linux/target/STM32MP1-DK2/bootloader/optee-os-custom/lib/libutee/tee_api.c:269
     de0:	a801      	add	r0, sp, #4
     de2:	f000 ef88 	blx	1cf4 <_utee_unmask_cancellation>
/home/aom1/Work/Linux/target/STM32MP1-DK2/bootloader/optee-os-custom/lib/libutee/tee_api.c:271
     de6:	b108      	cbz	r0, dec <TEE_UnmaskCancellation+0xe>
/home/aom1/Work/Linux/target/STM32MP1-DK2/bootloader/optee-os-custom/lib/libutee/tee_api.c:272
     de8:	f000 fe06 	bl	19f8 <TEE_Panic>
/home/aom1/Work/Linux/target/STM32MP1-DK2/bootloader/optee-os-custom/lib/libutee/tee_api.c:274
     dec:	9801      	ldr	r0, [sp, #4]
     dee:	3800      	subs	r0, #0
     df0:	bf18      	it	ne
     df2:	2001      	movne	r0, #1
     df4:	b003      	add	sp, #12
     df6:	f85d fb04 	ldr.w	pc, [sp], #4

00000dfa <TEE_MaskCancellation>:
TEE_MaskCancellation():
/home/aom1/Work/Linux/target/STM32MP1-DK2/bootloader/optee-os-custom/lib/libutee/tee_api.c:277
     dfa:	b507      	push	{r0, r1, r2, lr}
/home/aom1/Work/Linux/target/STM32MP1-DK2/bootloader/optee-os-custom/lib/libutee/tee_api.c:279
     dfc:	a801      	add	r0, sp, #4
     dfe:	f000 ef84 	blx	1d08 <_utee_mask_cancellation>
/home/aom1/Work/Linux/target/STM32MP1-DK2/bootloader/optee-os-custom/lib/libutee/tee_api.c:281
     e02:	b108      	cbz	r0, e08 <TEE_MaskCancellation+0xe>
/home/aom1/Work/Linux/target/STM32MP1-DK2/bootloader/optee-os-custom/lib/libutee/tee_api.c:282
     e04:	f000 fdf8 	bl	19f8 <TEE_Panic>
/home/aom1/Work/Linux/target/STM32MP1-DK2/bootloader/optee-os-custom/lib/libutee/tee_api.c:284
     e08:	9801      	ldr	r0, [sp, #4]
     e0a:	3800      	subs	r0, #0
     e0c:	bf18      	it	ne
     e0e:	2001      	movne	r0, #1
     e10:	b003      	add	sp, #12
     e12:	f85d fb04 	ldr.w	pc, [sp], #4

00000e16 <TEE_CheckMemoryAccessRights>:
TEE_CheckMemoryAccessRights():
/home/aom1/Work/Linux/target/STM32MP1-DK2/bootloader/optee-os-custom/lib/libutee/tee_api.c:293
     e16:	b10a      	cbz	r2, e1c <TEE_CheckMemoryAccessRights+0x6>
/home/aom1/Work/Linux/target/STM32MP1-DK2/bootloader/optee-os-custom/lib/libutee/tee_api.c:297
     e18:	f006 b9a2 	b.w	7160 <___utee_check_access_rights_from_thumb>
/home/aom1/Work/Linux/target/STM32MP1-DK2/bootloader/optee-os-custom/lib/libutee/tee_api.c:309
     e1c:	4610      	mov	r0, r2
     e1e:	4770      	bx	lr

00000e20 <copy_param>:
copy_param():
/home/aom1/Work/Linux/target/STM32MP1-DK2/bootloader/optee-os-custom/lib/libutee/tee_api.c:29
     e20:	e92d 4ff0 	stmdb	sp!, {r4, r5, r6, r7, r8, r9, sl, fp, lr}
/home/aom1/Work/Linux/target/STM32MP1-DK2/bootloader/optee-os-custom/lib/libutee/tee_api.c:34
     e24:	2500      	movs	r5, #0
/home/aom1/Work/Linux/target/STM32MP1-DK2/bootloader/optee-os-custom/lib/libutee/tee_api.c:29
     e26:	ed2d 8b02 	vpush	{d8}
/home/aom1/Work/Linux/target/STM32MP1-DK2/bootloader/optee-os-custom/lib/libutee/tee_api.c:45
     e2a:	601d      	str	r5, [r3, #0]
/home/aom1/Work/Linux/target/STM32MP1-DK2/bootloader/optee-os-custom/lib/libutee/tee_api.c:29
     e2c:	b085      	sub	sp, #20
     e2e:	4699      	mov	r9, r3
     e30:	4604      	mov	r4, r0
/home/aom1/Work/Linux/target/STM32MP1-DK2/bootloader/optee-os-custom/lib/libutee/tee_api.c:46
     e32:	9b10      	ldr	r3, [sp, #64]	; 0x40
/home/aom1/Work/Linux/target/STM32MP1-DK2/bootloader/optee-os-custom/lib/libutee/tee_api.c:29
     e34:	4688      	mov	r8, r1
/home/aom1/Work/Linux/target/STM32MP1-DK2/bootloader/optee-os-custom/lib/libutee/tee_api.c:34
     e36:	9503      	str	r5, [sp, #12]
/home/aom1/Work/Linux/target/STM32MP1-DK2/bootloader/optee-os-custom/lib/libutee/tee_api.c:29
     e38:	4617      	mov	r7, r2
/home/aom1/Work/Linux/target/STM32MP1-DK2/bootloader/optee-os-custom/lib/libutee/tee_api.c:46
     e3a:	601d      	str	r5, [r3, #0]
/home/aom1/Work/Linux/target/STM32MP1-DK2/bootloader/optee-os-custom/lib/libutee/tee_api.c:47
     e3c:	462e      	mov	r6, r5
/home/aom1/Work/Linux/target/STM32MP1-DK2/bootloader/optee-os-custom/lib/libutee/tee_api.c:48
     e3e:	462b      	mov	r3, r5
/home/aom1/Work/Linux/target/STM32MP1-DK2/bootloader/optee-os-custom/lib/libutee/tee_api.c:54
     e40:	f102 0b04 	add.w	fp, r2, #4
/home/aom1/Work/Linux/target/STM32MP1-DK2/bootloader/optee-os-custom/lib/libutee/tee_api.c:65
     e44:	f04f 0a01 	mov.w	sl, #1
/home/aom1/Work/Linux/target/STM32MP1-DK2/bootloader/optee-os-custom/lib/libutee/tee_api.c:48
     e48:	9a11      	ldr	r2, [sp, #68]	; 0x44
     e4a:	f842 3026 	str.w	r3, [r2, r6, lsl #2]
/home/aom1/Work/Linux/target/STM32MP1-DK2/bootloader/optee-os-custom/lib/libutee/tee_api.c:49
     e4e:	00b2      	lsls	r2, r6, #2
     e50:	fa28 f202 	lsr.w	r2, r8, r2
     e54:	f002 020f 	and.w	r2, r2, #15
     e58:	3a05      	subs	r2, #5
     e5a:	2a02      	cmp	r2, #2
     e5c:	d813      	bhi.n	e86 <copy_param+0x66>
/home/aom1/Work/Linux/target/STM32MP1-DK2/bootloader/optee-os-custom/lib/libutee/tee_api.c:53
     e5e:	f857 1036 	ldr.w	r1, [r7, r6, lsl #3]
/home/aom1/Work/Linux/target/STM32MP1-DK2/bootloader/optee-os-custom/lib/libutee/tee_api.c:64
     e62:	b181      	cbz	r1, e86 <copy_param+0x66>
/home/aom1/Work/Linux/target/STM32MP1-DK2/bootloader/optee-os-custom/lib/libutee/tee_api.c:54 (discriminator 1)
     e64:	f85b 2036 	ldr.w	r2, [fp, r6, lsl #3]
/home/aom1/Work/Linux/target/STM32MP1-DK2/bootloader/optee-os-custom/lib/libutee/tee_api.c:64 (discriminator 1)
     e68:	b16a      	cbz	r2, e86 <copy_param+0x66>
/home/aom1/Work/Linux/target/STM32MP1-DK2/bootloader/optee-os-custom/lib/libutee/tee_api.c:65 (discriminator 2)
     e6a:	9201      	str	r2, [sp, #4]
     e6c:	2001      	movs	r0, #1
     e6e:	f7ff ffd2 	bl	e16 <TEE_CheckMemoryAccessRights>
/home/aom1/Work/Linux/target/STM32MP1-DK2/bootloader/optee-os-custom/lib/libutee/tee_api.c:64 (discriminator 2)
     e72:	2300      	movs	r3, #0
     e74:	b938      	cbnz	r0, e86 <copy_param+0x66>
/home/aom1/Work/Linux/target/STM32MP1-DK2/bootloader/optee-os-custom/lib/libutee/tee_api.c:67
     e76:	9a01      	ldr	r2, [sp, #4]
/home/aom1/Work/Linux/target/STM32MP1-DK2/bootloader/optee-os-custom/lib/libutee/tee_api.c:66
     e78:	a903      	add	r1, sp, #12
     e7a:	f806 a001 	strb.w	sl, [r6, r1]
/home/aom1/Work/Linux/target/STM32MP1-DK2/bootloader/optee-os-custom/lib/libutee/tee_api.c:67
     e7e:	3207      	adds	r2, #7
     e80:	f022 0207 	bic.w	r2, r2, #7
     e84:	4415      	add	r5, r2
/home/aom1/Work/Linux/target/STM32MP1-DK2/bootloader/optee-os-custom/lib/libutee/tee_api.c:47 (discriminator 2)
     e86:	3601      	adds	r6, #1
     e88:	2e04      	cmp	r6, #4
     e8a:	d1dd      	bne.n	e48 <copy_param+0x28>
/home/aom1/Work/Linux/target/STM32MP1-DK2/bootloader/optee-os-custom/lib/libutee/tee_api.c:75
     e8c:	b315      	cbz	r5, ed4 <copy_param+0xb4>
/home/aom1/Work/Linux/target/STM32MP1-DK2/bootloader/optee-os-custom/lib/libutee/tee_api.c:76
     e8e:	4631      	mov	r1, r6
     e90:	4628      	mov	r0, r5
     e92:	f000 fe35 	bl	1b00 <tee_map_zi>
/home/aom1/Work/Linux/target/STM32MP1-DK2/bootloader/optee-os-custom/lib/libutee/tee_api.c:77
     e96:	4603      	mov	r3, r0
     e98:	2800      	cmp	r0, #0
     e9a:	d053      	beq.n	f44 <copy_param+0x124>
/home/aom1/Work/Linux/target/STM32MP1-DK2/bootloader/optee-os-custom/lib/libutee/tee_api.c:80
     e9c:	9a10      	ldr	r2, [sp, #64]	; 0x40
/home/aom1/Work/Linux/target/STM32MP1-DK2/bootloader/optee-os-custom/lib/libutee/tee_api.c:79
     e9e:	f8c9 0000 	str.w	r0, [r9]
/home/aom1/Work/Linux/target/STM32MP1-DK2/bootloader/optee-os-custom/lib/libutee/tee_api.c:80
     ea2:	6015      	str	r5, [r2, #0]
/home/aom1/Work/Linux/target/STM32MP1-DK2/bootloader/optee-os-custom/lib/libutee/tee_api.c:109
     ea4:	ef80 8010 	vmov.i32	d8, #0	; 0x00000000
/home/aom1/Work/Linux/target/STM32MP1-DK2/bootloader/optee-os-custom/lib/libutee/tee_api.c:83
     ea8:	2500      	movs	r5, #0
     eaa:	46b9      	mov	r9, r7
/home/aom1/Work/Linux/target/STM32MP1-DK2/bootloader/optee-os-custom/lib/libutee/tee_api.c:88
     eac:	46aa      	mov	sl, r5
/home/aom1/Work/Linux/target/STM32MP1-DK2/bootloader/optee-os-custom/lib/libutee/tee_api.c:89
     eae:	46ab      	mov	fp, r5
/home/aom1/Work/Linux/target/STM32MP1-DK2/bootloader/optee-os-custom/lib/libutee/tee_api.c:83
     eb0:	e9c4 8500 	strd	r8, r5, [r4]
/home/aom1/Work/Linux/target/STM32MP1-DK2/bootloader/optee-os-custom/lib/libutee/tee_api.c:85
     eb4:	00aa      	lsls	r2, r5, #2
     eb6:	fa28 f202 	lsr.w	r2, r8, r2
     eba:	f002 010f 	and.w	r1, r2, #15
     ebe:	2903      	cmp	r1, #3
     ec0:	d027      	beq.n	f12 <copy_param+0xf2>
     ec2:	f012 0f0c 	tst.w	r2, #12
     ec6:	d107      	bne.n	ed8 <copy_param+0xb8>
     ec8:	2901      	cmp	r1, #1
     eca:	d022      	beq.n	f12 <copy_param+0xf2>
/home/aom1/Work/Linux/target/STM32MP1-DK2/bootloader/optee-os-custom/lib/libutee/tee_api.c:111
     ecc:	2200      	movs	r2, #0
/home/aom1/Work/Linux/target/STM32MP1-DK2/bootloader/optee-os-custom/lib/libutee/tee_api.c:109
     ece:	ed84 8b02 	vstr	d8, [r4, #8]
/home/aom1/Work/Linux/target/STM32MP1-DK2/bootloader/optee-os-custom/lib/libutee/tee_api.c:111
     ed2:	e024      	b.n	f1e <copy_param+0xfe>
/home/aom1/Work/Linux/target/STM32MP1-DK2/bootloader/optee-os-custom/lib/libutee/tee_api.c:31
     ed4:	462b      	mov	r3, r5
     ed6:	e7e5      	b.n	ea4 <copy_param+0x84>
/home/aom1/Work/Linux/target/STM32MP1-DK2/bootloader/optee-os-custom/lib/libutee/tee_api.c:85
     ed8:	1f4a      	subs	r2, r1, #5
     eda:	2a02      	cmp	r2, #2
     edc:	d8f6      	bhi.n	ecc <copy_param+0xac>
/home/aom1/Work/Linux/target/STM32MP1-DK2/bootloader/optee-os-custom/lib/libutee/tee_api.c:94
     ede:	f8d9 2004 	ldr.w	r2, [r9, #4]
/home/aom1/Work/Linux/target/STM32MP1-DK2/bootloader/optee-os-custom/lib/libutee/tee_api.c:95
     ee2:	a803      	add	r0, sp, #12
     ee4:	5c28      	ldrb	r0, [r5, r0]
     ee6:	b348      	cbz	r0, f3c <copy_param+0x11c>
/home/aom1/Work/Linux/target/STM32MP1-DK2/bootloader/optee-os-custom/lib/libutee/tee_api.c:97
     ee8:	9811      	ldr	r0, [sp, #68]	; 0x44
/home/aom1/Work/Linux/target/STM32MP1-DK2/bootloader/optee-os-custom/lib/libutee/tee_api.c:98
     eea:	1dd6      	adds	r6, r2, #7
     eec:	f026 0607 	bic.w	r6, r6, #7
/home/aom1/Work/Linux/target/STM32MP1-DK2/bootloader/optee-os-custom/lib/libutee/tee_api.c:99
     ef0:	2906      	cmp	r1, #6
/home/aom1/Work/Linux/target/STM32MP1-DK2/bootloader/optee-os-custom/lib/libutee/tee_api.c:98
     ef2:	441e      	add	r6, r3
/home/aom1/Work/Linux/target/STM32MP1-DK2/bootloader/optee-os-custom/lib/libutee/tee_api.c:97
     ef4:	f840 3025 	str.w	r3, [r0, r5, lsl #2]
/home/aom1/Work/Linux/target/STM32MP1-DK2/bootloader/optee-os-custom/lib/libutee/tee_api.c:99
     ef8:	d007      	beq.n	f0a <copy_param+0xea>
/home/aom1/Work/Linux/target/STM32MP1-DK2/bootloader/optee-os-custom/lib/libutee/tee_api.c:101
     efa:	f857 1035 	ldr.w	r1, [r7, r5, lsl #3]
     efe:	4618      	mov	r0, r3
     f00:	9201      	str	r2, [sp, #4]
     f02:	f005 ff1b 	bl	6d3c <memcpy>
     f06:	9a01      	ldr	r2, [sp, #4]
     f08:	4603      	mov	r3, r0
/home/aom1/Work/Linux/target/STM32MP1-DK2/bootloader/optee-os-custom/lib/libutee/tee_api.c:105
     f0a:	e9c4 3a02 	strd	r3, sl, [r4, #8]
/home/aom1/Work/Linux/target/STM32MP1-DK2/bootloader/optee-os-custom/lib/libutee/tee_api.c:107
     f0e:	4633      	mov	r3, r6
     f10:	e005      	b.n	f1e <copy_param+0xfe>
/home/aom1/Work/Linux/target/STM32MP1-DK2/bootloader/optee-os-custom/lib/libutee/tee_api.c:88
     f12:	f857 2035 	ldr.w	r2, [r7, r5, lsl #3]
     f16:	e9c4 2a02 	strd	r2, sl, [r4, #8]
/home/aom1/Work/Linux/target/STM32MP1-DK2/bootloader/optee-os-custom/lib/libutee/tee_api.c:89
     f1a:	f8d9 2004 	ldr.w	r2, [r9, #4]
/home/aom1/Work/Linux/target/STM32MP1-DK2/bootloader/optee-os-custom/lib/libutee/tee_api.c:84 (discriminator 2)
     f1e:	3501      	adds	r5, #1
     f20:	f109 0908 	add.w	r9, r9, #8
     f24:	2d04      	cmp	r5, #4
/home/aom1/Work/Linux/target/STM32MP1-DK2/bootloader/optee-os-custom/lib/libutee/tee_api.c:89 (discriminator 2)
     f26:	e9c4 2b04 	strd	r2, fp, [r4, #16]
/home/aom1/Work/Linux/target/STM32MP1-DK2/bootloader/optee-os-custom/lib/libutee/tee_api.c:84 (discriminator 2)
     f2a:	f104 0410 	add.w	r4, r4, #16
     f2e:	d1c1      	bne.n	eb4 <copy_param+0x94>
/home/aom1/Work/Linux/target/STM32MP1-DK2/bootloader/optee-os-custom/lib/libutee/tee_api.c:115
     f30:	2000      	movs	r0, #0
/home/aom1/Work/Linux/target/STM32MP1-DK2/bootloader/optee-os-custom/lib/libutee/tee_api.c:116
     f32:	b005      	add	sp, #20
     f34:	ecbd 8b02 	vpop	{d8}
     f38:	e8bd 8ff0 	ldmia.w	sp!, {r4, r5, r6, r7, r8, r9, sl, fp, pc}
/home/aom1/Work/Linux/target/STM32MP1-DK2/bootloader/optee-os-custom/lib/libutee/tee_api.c:103
     f3c:	461e      	mov	r6, r3
     f3e:	f857 3035 	ldr.w	r3, [r7, r5, lsl #3]
     f42:	e7e2      	b.n	f0a <copy_param+0xea>
/home/aom1/Work/Linux/target/STM32MP1-DK2/bootloader/optee-os-custom/lib/libutee/tee_api.c:78
     f44:	4800      	ldr	r0, [pc, #0]	; (f48 <copy_param+0x128>)
     f46:	e7f4      	b.n	f32 <copy_param+0x112>
     f48:	ffff000c 	.word	0xffff000c

00000f4c <TEE_OpenTASession>:
TEE_OpenTASession():
/home/aom1/Work/Linux/target/STM32MP1-DK2/bootloader/optee-os-custom/lib/libutee/tee_api.c:160
     f4c:	efc0 0010 	vmov.i32	d16, #0	; 0x00000000
/home/aom1/Work/Linux/target/STM32MP1-DK2/bootloader/optee-os-custom/lib/libutee/tee_api.c:154
     f50:	e92d 47f0 	stmdb	sp!, {r4, r5, r6, r7, r8, r9, sl, lr}
     f54:	b09c      	sub	sp, #112	; 0x70
     f56:	461d      	mov	r5, r3
/home/aom1/Work/Linux/target/STM32MP1-DK2/bootloader/optee-os-custom/lib/libutee/tee_api.c:157
     f58:	2300      	movs	r3, #0
/home/aom1/Work/Linux/target/STM32MP1-DK2/bootloader/optee-os-custom/lib/libutee/tee_api.c:154
     f5a:	f8dd 9090 	ldr.w	r9, [sp, #144]	; 0x90
/home/aom1/Work/Linux/target/STM32MP1-DK2/bootloader/optee-os-custom/lib/libutee/tee_api.c:160
     f5e:	ae06      	add	r6, sp, #24
     f60:	edcd 0b06 	vstr	d16, [sp, #24]
/home/aom1/Work/Linux/target/STM32MP1-DK2/bootloader/optee-os-custom/lib/libutee/tee_api.c:157
     f64:	9303      	str	r3, [sp, #12]
/home/aom1/Work/Linux/target/STM32MP1-DK2/bootloader/optee-os-custom/lib/libutee/tee_api.c:154
     f66:	4607      	mov	r7, r0
     f68:	4688      	mov	r8, r1
/home/aom1/Work/Linux/target/STM32MP1-DK2/bootloader/optee-os-custom/lib/libutee/tee_api.c:162
     f6a:	4614      	mov	r4, r2
/home/aom1/Work/Linux/target/STM32MP1-DK2/bootloader/optee-os-custom/lib/libutee/tee_api.c:159
     f6c:	e9cd 3304 	strd	r3, r3, [sp, #16]
/home/aom1/Work/Linux/target/STM32MP1-DK2/bootloader/optee-os-custom/lib/libutee/tee_api.c:160
     f70:	edc6 0b02 	vstr	d16, [r6, #8]
/home/aom1/Work/Linux/target/STM32MP1-DK2/bootloader/optee-os-custom/lib/libutee/tee_api.c:162
     f74:	b11a      	cbz	r2, f7e <TEE_OpenTASession+0x32>
/home/aom1/Work/Linux/target/STM32MP1-DK2/bootloader/optee-os-custom/lib/libutee/tee_api.c:163
     f76:	2120      	movs	r1, #32
     f78:	4628      	mov	r0, r5
     f7a:	f000 fd90 	bl	1a9e <__utee_check_inout_annotation>
/home/aom1/Work/Linux/target/STM32MP1-DK2/bootloader/optee-os-custom/lib/libutee/tee_api.c:166
     f7e:	2104      	movs	r1, #4
     f80:	4648      	mov	r0, r9
/home/aom1/Work/Linux/target/STM32MP1-DK2/bootloader/optee-os-custom/lib/libutee/tee_api.c:168
     f82:	f10d 0a28 	add.w	sl, sp, #40	; 0x28
/home/aom1/Work/Linux/target/STM32MP1-DK2/bootloader/optee-os-custom/lib/libutee/tee_api.c:166
     f86:	f000 fd77 	bl	1a78 <__utee_check_out_annotation>
/home/aom1/Work/Linux/target/STM32MP1-DK2/bootloader/optee-os-custom/lib/libutee/tee_api.c:168
     f8a:	9601      	str	r6, [sp, #4]
     f8c:	ab05      	add	r3, sp, #20
     f8e:	9300      	str	r3, [sp, #0]
     f90:	4621      	mov	r1, r4
     f92:	ab04      	add	r3, sp, #16
     f94:	462a      	mov	r2, r5
     f96:	4650      	mov	r0, sl
     f98:	f7ff ff42 	bl	e20 <copy_param>
/home/aom1/Work/Linux/target/STM32MP1-DK2/bootloader/optee-os-custom/lib/libutee/tee_api.c:169
     f9c:	4604      	mov	r4, r0
     f9e:	b9b0      	cbnz	r0, fce <TEE_OpenTASession+0x82>
/home/aom1/Work/Linux/target/STM32MP1-DK2/bootloader/optee-os-custom/lib/libutee/tee_api.c:171
     fa0:	9b25      	ldr	r3, [sp, #148]	; 0x94
     fa2:	4652      	mov	r2, sl
     fa4:	4641      	mov	r1, r8
     fa6:	4638      	mov	r0, r7
     fa8:	9300      	str	r3, [sp, #0]
     faa:	ab03      	add	r3, sp, #12
     fac:	f000 ee6c 	blx	1c88 <_utee_open_ta_session>
     fb0:	4604      	mov	r4, r0
/home/aom1/Work/Linux/target/STM32MP1-DK2/bootloader/optee-os-custom/lib/libutee/tee_api.c:173
     fb2:	4652      	mov	r2, sl
     fb4:	4628      	mov	r0, r5
     fb6:	4631      	mov	r1, r6
     fb8:	f7ff fec6 	bl	d48 <update_out_param>
/home/aom1/Work/Linux/target/STM32MP1-DK2/bootloader/optee-os-custom/lib/libutee/tee_api.c:174
     fbc:	9804      	ldr	r0, [sp, #16]
     fbe:	b128      	cbz	r0, fcc <TEE_OpenTASession+0x80>
/home/aom1/Work/Linux/target/STM32MP1-DK2/bootloader/optee-os-custom/lib/libutee/tee_api.c:175
     fc0:	9905      	ldr	r1, [sp, #20]
     fc2:	f000 fdb8 	bl	1b36 <tee_unmap>
/home/aom1/Work/Linux/target/STM32MP1-DK2/bootloader/optee-os-custom/lib/libutee/tee_api.c:177
     fc6:	b108      	cbz	r0, fcc <TEE_OpenTASession+0x80>
/home/aom1/Work/Linux/target/STM32MP1-DK2/bootloader/optee-os-custom/lib/libutee/tee_api.c:178
     fc8:	f000 fd16 	bl	19f8 <TEE_Panic>
/home/aom1/Work/Linux/target/STM32MP1-DK2/bootloader/optee-os-custom/lib/libutee/tee_api.c:187
     fcc:	b10c      	cbz	r4, fd2 <TEE_OpenTASession+0x86>
/home/aom1/Work/Linux/target/STM32MP1-DK2/bootloader/optee-os-custom/lib/libutee/tee_api.c:188
     fce:	2300      	movs	r3, #0
     fd0:	9303      	str	r3, [sp, #12]
/home/aom1/Work/Linux/target/STM32MP1-DK2/bootloader/optee-os-custom/lib/libutee/tee_api.c:190
     fd2:	9b03      	ldr	r3, [sp, #12]
/home/aom1/Work/Linux/target/STM32MP1-DK2/bootloader/optee-os-custom/lib/libutee/tee_api.c:192
     fd4:	4620      	mov	r0, r4
/home/aom1/Work/Linux/target/STM32MP1-DK2/bootloader/optee-os-custom/lib/libutee/tee_api.c:190
     fd6:	f8c9 3000 	str.w	r3, [r9]
/home/aom1/Work/Linux/target/STM32MP1-DK2/bootloader/optee-os-custom/lib/libutee/tee_api.c:192
     fda:	b01c      	add	sp, #112	; 0x70
     fdc:	e8bd 87f0 	ldmia.w	sp!, {r4, r5, r6, r7, r8, r9, sl, pc}

00000fe0 <TEE_InvokeTACommand>:
TEE_InvokeTACommand():
/home/aom1/Work/Linux/target/STM32MP1-DK2/bootloader/optee-os-custom/lib/libutee/tee_api.c:215
     fe0:	efc0 0010 	vmov.i32	d16, #0	; 0x00000000
/home/aom1/Work/Linux/target/STM32MP1-DK2/bootloader/optee-os-custom/lib/libutee/tee_api.c:209
     fe4:	e92d 4ff0 	stmdb	sp!, {r4, r5, r6, r7, r8, r9, sl, fp, lr}
     fe8:	b09d      	sub	sp, #116	; 0x74
     fea:	4693      	mov	fp, r2
/home/aom1/Work/Linux/target/STM32MP1-DK2/bootloader/optee-os-custom/lib/libutee/tee_api.c:211
     fec:	2203      	movs	r2, #3
     fee:	9203      	str	r2, [sp, #12]
/home/aom1/Work/Linux/target/STM32MP1-DK2/bootloader/optee-os-custom/lib/libutee/tee_api.c:213
     ff0:	2200      	movs	r2, #0
/home/aom1/Work/Linux/target/STM32MP1-DK2/bootloader/optee-os-custom/lib/libutee/tee_api.c:215
     ff2:	af06      	add	r7, sp, #24
/home/aom1/Work/Linux/target/STM32MP1-DK2/bootloader/optee-os-custom/lib/libutee/tee_api.c:209
     ff4:	4681      	mov	r9, r0
/home/aom1/Work/Linux/target/STM32MP1-DK2/bootloader/optee-os-custom/lib/libutee/tee_api.c:215
     ff6:	edcd 0b06 	vstr	d16, [sp, #24]
/home/aom1/Work/Linux/target/STM32MP1-DK2/bootloader/optee-os-custom/lib/libutee/tee_api.c:209
     ffa:	468a      	mov	sl, r1
/home/aom1/Work/Linux/target/STM32MP1-DK2/bootloader/optee-os-custom/lib/libutee/tee_api.c:217
     ffc:	461c      	mov	r4, r3
/home/aom1/Work/Linux/target/STM32MP1-DK2/bootloader/optee-os-custom/lib/libutee/tee_api.c:209
     ffe:	e9dd 6526 	ldrd	r6, r5, [sp, #152]	; 0x98
/home/aom1/Work/Linux/target/STM32MP1-DK2/bootloader/optee-os-custom/lib/libutee/tee_api.c:214
    1002:	e9cd 2204 	strd	r2, r2, [sp, #16]
/home/aom1/Work/Linux/target/STM32MP1-DK2/bootloader/optee-os-custom/lib/libutee/tee_api.c:215
    1006:	edc7 0b02 	vstr	d16, [r7, #8]
/home/aom1/Work/Linux/target/STM32MP1-DK2/bootloader/optee-os-custom/lib/libutee/tee_api.c:217
    100a:	b11b      	cbz	r3, 1014 <TEE_InvokeTACommand+0x34>
/home/aom1/Work/Linux/target/STM32MP1-DK2/bootloader/optee-os-custom/lib/libutee/tee_api.c:218
    100c:	2120      	movs	r1, #32
    100e:	4630      	mov	r0, r6
    1010:	f000 fd45 	bl	1a9e <__utee_check_inout_annotation>
/home/aom1/Work/Linux/target/STM32MP1-DK2/bootloader/optee-os-custom/lib/libutee/tee_api.c:221
    1014:	b11d      	cbz	r5, 101e <TEE_InvokeTACommand+0x3e>
/home/aom1/Work/Linux/target/STM32MP1-DK2/bootloader/optee-os-custom/lib/libutee/tee_api.c:222
    1016:	2104      	movs	r1, #4
    1018:	4628      	mov	r0, r5
    101a:	f000 fd2d 	bl	1a78 <__utee_check_out_annotation>
/home/aom1/Work/Linux/target/STM32MP1-DK2/bootloader/optee-os-custom/lib/libutee/tee_api.c:225
    101e:	9701      	str	r7, [sp, #4]
    1020:	ab05      	add	r3, sp, #20
    1022:	9300      	str	r3, [sp, #0]
    1024:	f10d 0828 	add.w	r8, sp, #40	; 0x28
    1028:	4621      	mov	r1, r4
    102a:	ab04      	add	r3, sp, #16
    102c:	4632      	mov	r2, r6
    102e:	4640      	mov	r0, r8
    1030:	f7ff fef6 	bl	e20 <copy_param>
/home/aom1/Work/Linux/target/STM32MP1-DK2/bootloader/optee-os-custom/lib/libutee/tee_api.c:226
    1034:	4604      	mov	r4, r0
    1036:	b9a8      	cbnz	r0, 1064 <TEE_InvokeTACommand+0x84>
/home/aom1/Work/Linux/target/STM32MP1-DK2/bootloader/optee-os-custom/lib/libutee/tee_api.c:228
    1038:	ab03      	add	r3, sp, #12
    103a:	465a      	mov	r2, fp
    103c:	9300      	str	r3, [sp, #0]
    103e:	4651      	mov	r1, sl
    1040:	4643      	mov	r3, r8
    1042:	4648      	mov	r0, r9
    1044:	f000 ee36 	blx	1cb4 <_utee_invoke_ta_command>
    1048:	4604      	mov	r4, r0
/home/aom1/Work/Linux/target/STM32MP1-DK2/bootloader/optee-os-custom/lib/libutee/tee_api.c:231
    104a:	4642      	mov	r2, r8
    104c:	4630      	mov	r0, r6
    104e:	4639      	mov	r1, r7
    1050:	f7ff fe7a 	bl	d48 <update_out_param>
/home/aom1/Work/Linux/target/STM32MP1-DK2/bootloader/optee-os-custom/lib/libutee/tee_api.c:232
    1054:	9804      	ldr	r0, [sp, #16]
    1056:	b128      	cbz	r0, 1064 <TEE_InvokeTACommand+0x84>
/home/aom1/Work/Linux/target/STM32MP1-DK2/bootloader/optee-os-custom/lib/libutee/tee_api.c:233
    1058:	9905      	ldr	r1, [sp, #20]
    105a:	f000 fd6c 	bl	1b36 <tee_unmap>
/home/aom1/Work/Linux/target/STM32MP1-DK2/bootloader/optee-os-custom/lib/libutee/tee_api.c:235
    105e:	b108      	cbz	r0, 1064 <TEE_InvokeTACommand+0x84>
/home/aom1/Work/Linux/target/STM32MP1-DK2/bootloader/optee-os-custom/lib/libutee/tee_api.c:236
    1060:	f000 fcca 	bl	19f8 <TEE_Panic>
/home/aom1/Work/Linux/target/STM32MP1-DK2/bootloader/optee-os-custom/lib/libutee/tee_api.c:241
    1064:	9b03      	ldr	r3, [sp, #12]
/home/aom1/Work/Linux/target/STM32MP1-DK2/bootloader/optee-os-custom/lib/libutee/tee_api.c:240
    1066:	b105      	cbz	r5, 106a <TEE_InvokeTACommand+0x8a>
/home/aom1/Work/Linux/target/STM32MP1-DK2/bootloader/optee-os-custom/lib/libutee/tee_api.c:241
    1068:	602b      	str	r3, [r5, #0]
/home/aom1/Work/Linux/target/STM32MP1-DK2/bootloader/optee-os-custom/lib/libutee/tee_api.c:243
    106a:	2b04      	cmp	r3, #4
    106c:	d009      	beq.n	1082 <TEE_InvokeTACommand+0xa2>
/home/aom1/Work/Linux/target/STM32MP1-DK2/bootloader/optee-os-custom/lib/libutee/tee_api.c:246
    106e:	b144      	cbz	r4, 1082 <TEE_InvokeTACommand+0xa2>
/home/aom1/Work/Linux/target/STM32MP1-DK2/bootloader/optee-os-custom/lib/libutee/tee_api.c:246 (discriminator 1)
    1070:	4b06      	ldr	r3, [pc, #24]	; (108c <TEE_InvokeTACommand+0xac>)
    1072:	429c      	cmp	r4, r3
    1074:	d005      	beq.n	1082 <TEE_InvokeTACommand+0xa2>
/home/aom1/Work/Linux/target/STM32MP1-DK2/bootloader/optee-os-custom/lib/libutee/tee_api.c:247
    1076:	4b06      	ldr	r3, [pc, #24]	; (1090 <TEE_InvokeTACommand+0xb0>)
    1078:	429c      	cmp	r4, r3
    107a:	d002      	beq.n	1082 <TEE_InvokeTACommand+0xa2>
/home/aom1/Work/Linux/target/STM32MP1-DK2/bootloader/optee-os-custom/lib/libutee/tee_api.c:249
    107c:	4620      	mov	r0, r4
    107e:	f000 fcbb 	bl	19f8 <TEE_Panic>
/home/aom1/Work/Linux/target/STM32MP1-DK2/bootloader/optee-os-custom/lib/libutee/tee_api.c:252
    1082:	4620      	mov	r0, r4
    1084:	b01d      	add	sp, #116	; 0x74
    1086:	e8bd 8ff0 	ldmia.w	sp!, {r4, r5, r6, r7, r8, r9, sl, fp, pc}
    108a:	bf00      	nop
    108c:	ffff000c 	.word	0xffff000c
    1090:	ffff3024 	.word	0xffff3024

00001094 <TEE_SetInstanceData>:
TEE_SetInstanceData():
/home/aom1/Work/Linux/target/STM32MP1-DK2/bootloader/optee-os-custom/lib/libutee/tee_api.c:313
    1094:	4b01      	ldr	r3, [pc, #4]	; (109c <TEE_SetInstanceData+0x8>)
    1096:	447b      	add	r3, pc
    1098:	6018      	str	r0, [r3, #0]
/home/aom1/Work/Linux/target/STM32MP1-DK2/bootloader/optee-os-custom/lib/libutee/tee_api.c:314
    109a:	4770      	bx	lr
    109c:	000081f6 	.word	0x000081f6

000010a0 <TEE_GetInstanceData>:
TEE_GetInstanceData():
/home/aom1/Work/Linux/target/STM32MP1-DK2/bootloader/optee-os-custom/lib/libutee/tee_api.c:319
    10a0:	4b01      	ldr	r3, [pc, #4]	; (10a8 <TEE_GetInstanceData+0x8>)
    10a2:	447b      	add	r3, pc
    10a4:	6818      	ldr	r0, [r3, #0]
    10a6:	4770      	bx	lr
    10a8:	000081ea 	.word	0x000081ea

000010ac <TEE_MemMove>:
TEE_MemMove():
/home/aom1/Work/Linux/target/STM32MP1-DK2/bootloader/optee-os-custom/lib/libutee/tee_api.c:323
    10ac:	f006 b800 	b.w	70b0 <memmove>

000010b0 <TEE_MemCompare>:
TEE_MemCompare():
/home/aom1/Work/Linux/target/STM32MP1-DK2/bootloader/optee-os-custom/lib/libutee/tee_api.c:328
    10b0:	f006 b818 	b.w	70e4 <consttime_memcmp>

000010b4 <TEE_MemFill>:
TEE_MemFill():
/home/aom1/Work/Linux/target/STM32MP1-DK2/bootloader/optee-os-custom/lib/libutee/tee_api.c:333
    10b4:	f005 bf2d 	b.w	6f12 <memset>

000010b8 <TEE_GetSystemTime>:
TEE_GetSystemTime():
/home/aom1/Work/Linux/target/STM32MP1-DK2/bootloader/optee-os-custom/lib/libutee/tee_api.c:339
    10b8:	4601      	mov	r1, r0
/home/aom1/Work/Linux/target/STM32MP1-DK2/bootloader/optee-os-custom/lib/libutee/tee_api.c:340
    10ba:	2000      	movs	r0, #0
/home/aom1/Work/Linux/target/STM32MP1-DK2/bootloader/optee-os-custom/lib/libutee/tee_api.c:339
    10bc:	b508      	push	{r3, lr}
/home/aom1/Work/Linux/target/STM32MP1-DK2/bootloader/optee-os-custom/lib/libutee/tee_api.c:340
    10be:	f000 ee38 	blx	1d30 <_utee_get_time>
/home/aom1/Work/Linux/target/STM32MP1-DK2/bootloader/optee-os-custom/lib/libutee/tee_api.c:342
    10c2:	b118      	cbz	r0, 10cc <TEE_GetSystemTime+0x14>
/home/aom1/Work/Linux/target/STM32MP1-DK2/bootloader/optee-os-custom/lib/libutee/tee_api.c:344
    10c4:	e8bd 4008 	ldmia.w	sp!, {r3, lr}
/home/aom1/Work/Linux/target/STM32MP1-DK2/bootloader/optee-os-custom/lib/libutee/tee_api.c:343
    10c8:	f000 bc96 	b.w	19f8 <TEE_Panic>
/home/aom1/Work/Linux/target/STM32MP1-DK2/bootloader/optee-os-custom/lib/libutee/tee_api.c:344
    10cc:	bd08      	pop	{r3, pc}

000010ce <TEE_Wait>:
TEE_Wait():
/home/aom1/Work/Linux/target/STM32MP1-DK2/bootloader/optee-os-custom/lib/libutee/tee_api.c:347
    10ce:	b510      	push	{r4, lr}
/home/aom1/Work/Linux/target/STM32MP1-DK2/bootloader/optee-os-custom/lib/libutee/tee_api.c:348
    10d0:	f000 ee24 	blx	1d1c <_utee_wait>
/home/aom1/Work/Linux/target/STM32MP1-DK2/bootloader/optee-os-custom/lib/libutee/tee_api.c:350
    10d4:	4604      	mov	r4, r0
    10d6:	b120      	cbz	r0, 10e2 <TEE_Wait+0x14>
/home/aom1/Work/Linux/target/STM32MP1-DK2/bootloader/optee-os-custom/lib/libutee/tee_api.c:350 (discriminator 1)
    10d8:	4b03      	ldr	r3, [pc, #12]	; (10e8 <TEE_Wait+0x1a>)
    10da:	4298      	cmp	r0, r3
    10dc:	d001      	beq.n	10e2 <TEE_Wait+0x14>
/home/aom1/Work/Linux/target/STM32MP1-DK2/bootloader/optee-os-custom/lib/libutee/tee_api.c:351
    10de:	f000 fc8b 	bl	19f8 <TEE_Panic>
/home/aom1/Work/Linux/target/STM32MP1-DK2/bootloader/optee-os-custom/lib/libutee/tee_api.c:354
    10e2:	4620      	mov	r0, r4
    10e4:	bd10      	pop	{r4, pc}
    10e6:	bf00      	nop
    10e8:	ffff0002 	.word	0xffff0002

000010ec <TEE_GetTAPersistentTime>:
TEE_GetTAPersistentTime():
/home/aom1/Work/Linux/target/STM32MP1-DK2/bootloader/optee-os-custom/lib/libutee/tee_api.c:357
    10ec:	b538      	push	{r3, r4, r5, lr}
/home/aom1/Work/Linux/target/STM32MP1-DK2/bootloader/optee-os-custom/lib/libutee/tee_api.c:360
    10ee:	4601      	mov	r1, r0
/home/aom1/Work/Linux/target/STM32MP1-DK2/bootloader/optee-os-custom/lib/libutee/tee_api.c:357
    10f0:	4605      	mov	r5, r0
/home/aom1/Work/Linux/target/STM32MP1-DK2/bootloader/optee-os-custom/lib/libutee/tee_api.c:360
    10f2:	2001      	movs	r0, #1
    10f4:	f000 ee1c 	blx	1d30 <_utee_get_time>
    10f8:	4604      	mov	r4, r0
/home/aom1/Work/Linux/target/STM32MP1-DK2/bootloader/optee-os-custom/lib/libutee/tee_api.c:362
    10fa:	b170      	cbz	r0, 111a <TEE_GetTAPersistentTime+0x2e>
/home/aom1/Work/Linux/target/STM32MP1-DK2/bootloader/optee-os-custom/lib/libutee/tee_api.c:362 (discriminator 1)
    10fc:	4b08      	ldr	r3, [pc, #32]	; (1120 <TEE_GetTAPersistentTime+0x34>)
    10fe:	4298      	cmp	r0, r3
    1100:	d00b      	beq.n	111a <TEE_GetTAPersistentTime+0x2e>
/home/aom1/Work/Linux/target/STM32MP1-DK2/bootloader/optee-os-custom/lib/libutee/tee_api.c:363
    1102:	2300      	movs	r3, #0
    1104:	602b      	str	r3, [r5, #0]
/home/aom1/Work/Linux/target/STM32MP1-DK2/bootloader/optee-os-custom/lib/libutee/tee_api.c:364
    1106:	606b      	str	r3, [r5, #4]
/home/aom1/Work/Linux/target/STM32MP1-DK2/bootloader/optee-os-custom/lib/libutee/tee_api.c:367
    1108:	f500 4330 	add.w	r3, r0, #45056	; 0xb000
    110c:	2b01      	cmp	r3, #1
    110e:	d904      	bls.n	111a <TEE_GetTAPersistentTime+0x2e>
/home/aom1/Work/Linux/target/STM32MP1-DK2/bootloader/optee-os-custom/lib/libutee/tee_api.c:370
    1110:	4b04      	ldr	r3, [pc, #16]	; (1124 <TEE_GetTAPersistentTime+0x38>)
    1112:	4298      	cmp	r0, r3
    1114:	d001      	beq.n	111a <TEE_GetTAPersistentTime+0x2e>
/home/aom1/Work/Linux/target/STM32MP1-DK2/bootloader/optee-os-custom/lib/libutee/tee_api.c:372
    1116:	f000 fc6f 	bl	19f8 <TEE_Panic>
/home/aom1/Work/Linux/target/STM32MP1-DK2/bootloader/optee-os-custom/lib/libutee/tee_api.c:375
    111a:	4620      	mov	r0, r4
    111c:	bd38      	pop	{r3, r4, r5, pc}
    111e:	bf00      	nop
    1120:	ffff300f 	.word	0xffff300f
    1124:	ffff000c 	.word	0xffff000c

00001128 <TEE_SetTAPersistentTime>:
TEE_SetTAPersistentTime():
/home/aom1/Work/Linux/target/STM32MP1-DK2/bootloader/optee-os-custom/lib/libutee/tee_api.c:378
    1128:	b510      	push	{r4, lr}
/home/aom1/Work/Linux/target/STM32MP1-DK2/bootloader/optee-os-custom/lib/libutee/tee_api.c:381
    112a:	f000 ee0c 	blx	1d44 <_utee_set_ta_time>
/home/aom1/Work/Linux/target/STM32MP1-DK2/bootloader/optee-os-custom/lib/libutee/tee_api.c:383
    112e:	4604      	mov	r4, r0
    1130:	b138      	cbz	r0, 1142 <TEE_SetTAPersistentTime+0x1a>
/home/aom1/Work/Linux/target/STM32MP1-DK2/bootloader/optee-os-custom/lib/libutee/tee_api.c:383 (discriminator 1)
    1132:	4b05      	ldr	r3, [pc, #20]	; (1148 <TEE_SetTAPersistentTime+0x20>)
    1134:	4298      	cmp	r0, r3
    1136:	d004      	beq.n	1142 <TEE_SetTAPersistentTime+0x1a>
/home/aom1/Work/Linux/target/STM32MP1-DK2/bootloader/optee-os-custom/lib/libutee/tee_api.c:384
    1138:	4b04      	ldr	r3, [pc, #16]	; (114c <TEE_SetTAPersistentTime+0x24>)
    113a:	4298      	cmp	r0, r3
    113c:	d001      	beq.n	1142 <TEE_SetTAPersistentTime+0x1a>
/home/aom1/Work/Linux/target/STM32MP1-DK2/bootloader/optee-os-custom/lib/libutee/tee_api.c:386
    113e:	f000 fc5b 	bl	19f8 <TEE_Panic>
/home/aom1/Work/Linux/target/STM32MP1-DK2/bootloader/optee-os-custom/lib/libutee/tee_api.c:389
    1142:	4620      	mov	r0, r4
    1144:	bd10      	pop	{r4, pc}
    1146:	bf00      	nop
    1148:	ffff000c 	.word	0xffff000c
    114c:	ffff3041 	.word	0xffff3041

00001150 <TEE_GetREETime>:
TEE_GetREETime():
/home/aom1/Work/Linux/target/STM32MP1-DK2/bootloader/optee-os-custom/lib/libutee/tee_api.c:392
    1150:	4601      	mov	r1, r0
/home/aom1/Work/Linux/target/STM32MP1-DK2/bootloader/optee-os-custom/lib/libutee/tee_api.c:393
    1152:	2002      	movs	r0, #2
/home/aom1/Work/Linux/target/STM32MP1-DK2/bootloader/optee-os-custom/lib/libutee/tee_api.c:392
    1154:	b508      	push	{r3, lr}
/home/aom1/Work/Linux/target/STM32MP1-DK2/bootloader/optee-os-custom/lib/libutee/tee_api.c:393
    1156:	f000 edec 	blx	1d30 <_utee_get_time>
/home/aom1/Work/Linux/target/STM32MP1-DK2/bootloader/optee-os-custom/lib/libutee/tee_api.c:395
    115a:	b118      	cbz	r0, 1164 <TEE_GetREETime+0x14>
/home/aom1/Work/Linux/target/STM32MP1-DK2/bootloader/optee-os-custom/lib/libutee/tee_api.c:397
    115c:	e8bd 4008 	ldmia.w	sp!, {r3, lr}
/home/aom1/Work/Linux/target/STM32MP1-DK2/bootloader/optee-os-custom/lib/libutee/tee_api.c:396
    1160:	f000 bc4a 	b.w	19f8 <TEE_Panic>
/home/aom1/Work/Linux/target/STM32MP1-DK2/bootloader/optee-os-custom/lib/libutee/tee_api.c:397
    1164:	bd08      	pop	{r3, pc}

00001166 <TEE_Malloc>:
TEE_Malloc():
/home/aom1/Work/Linux/target/STM32MP1-DK2/bootloader/optee-os-custom/lib/libutee/tee_api.c:400
    1166:	460b      	mov	r3, r1
    1168:	b507      	push	{r0, r1, r2, lr}
/home/aom1/Work/Linux/target/STM32MP1-DK2/bootloader/optee-os-custom/lib/libutee/tee_api.c:401
    116a:	4601      	mov	r1, r0
    116c:	b1f0      	cbz	r0, 11ac <TEE_Malloc+0x46>
/home/aom1/Work/Linux/target/STM32MP1-DK2/bootloader/optee-os-custom/lib/libutee/tee_api.c:404
    116e:	b92b      	cbnz	r3, 117c <TEE_Malloc+0x16>
/home/aom1/Work/Linux/target/STM32MP1-DK2/bootloader/optee-os-custom/lib/libutee/tee_api.c:405
    1170:	2001      	movs	r0, #1
/home/aom1/Work/Linux/target/STM32MP1-DK2/bootloader/optee-os-custom/lib/libutee/tee_api.c:412
    1172:	b003      	add	sp, #12
    1174:	f85d eb04 	ldr.w	lr, [sp], #4
/home/aom1/Work/Linux/target/STM32MP1-DK2/bootloader/optee-os-custom/lib/libutee/tee_api.c:405
    1178:	f005 bce8 	b.w	6b4c <calloc>
/home/aom1/Work/Linux/target/STM32MP1-DK2/bootloader/optee-os-custom/lib/libutee/tee_api.c:406
    117c:	f1b3 4f00 	cmp.w	r3, #2147483648	; 0x80000000
    1180:	d104      	bne.n	118c <TEE_Malloc+0x26>
/home/aom1/Work/Linux/target/STM32MP1-DK2/bootloader/optee-os-custom/lib/libutee/tee_api.c:412
    1182:	b003      	add	sp, #12
    1184:	f85d eb04 	ldr.w	lr, [sp], #4
/home/aom1/Work/Linux/target/STM32MP1-DK2/bootloader/optee-os-custom/lib/libutee/tee_api.c:407
    1188:	f005 bcd6 	b.w	6b38 <malloc>
/home/aom1/Work/Linux/target/STM32MP1-DK2/bootloader/optee-os-custom/lib/libutee/tee_api.c:409
    118c:	9301      	str	r3, [sp, #4]
    118e:	f240 1199 	movw	r1, #409	; 0x199
    1192:	4b07      	ldr	r3, [pc, #28]	; (11b0 <TEE_Malloc+0x4a>)
    1194:	4807      	ldr	r0, [pc, #28]	; (11b4 <TEE_Malloc+0x4e>)
    1196:	447b      	add	r3, pc
    1198:	9300      	str	r3, [sp, #0]
    119a:	2301      	movs	r3, #1
    119c:	4478      	add	r0, pc
    119e:	461a      	mov	r2, r3
    11a0:	f7ff f9e4 	bl	56c <trace_printf>
/home/aom1/Work/Linux/target/STM32MP1-DK2/bootloader/optee-os-custom/lib/libutee/tee_api.c:411
    11a4:	2000      	movs	r0, #0
/home/aom1/Work/Linux/target/STM32MP1-DK2/bootloader/optee-os-custom/lib/libutee/tee_api.c:412
    11a6:	b003      	add	sp, #12
    11a8:	f85d fb04 	ldr.w	pc, [sp], #4
/home/aom1/Work/Linux/target/STM32MP1-DK2/bootloader/optee-os-custom/lib/libutee/tee_api.c:402
    11ac:	2001      	movs	r0, #1
    11ae:	e7fa      	b.n	11a6 <TEE_Malloc+0x40>
    11b0:	00006506 	.word	0x00006506
    11b4:	00006511 	.word	0x00006511

000011b8 <TEE_Free>:
TEE_Free():
/home/aom1/Work/Linux/target/STM32MP1-DK2/bootloader/optee-os-custom/lib/libutee/tee_api.c:429
    11b8:	2801      	cmp	r0, #1
    11ba:	d001      	beq.n	11c0 <TEE_Free+0x8>
/home/aom1/Work/Linux/target/STM32MP1-DK2/bootloader/optee-os-custom/lib/libutee/tee_api.c:430
    11bc:	f005 bcf4 	b.w	6ba8 <free>
/home/aom1/Work/Linux/target/STM32MP1-DK2/bootloader/optee-os-custom/lib/libutee/tee_api.c:431
    11c0:	4770      	bx	lr

000011c2 <TEE_Realloc>:
TEE_Realloc():
/home/aom1/Work/Linux/target/STM32MP1-DK2/bootloader/optee-os-custom/lib/libutee/tee_api.c:415
    11c2:	b508      	push	{r3, lr}
/home/aom1/Work/Linux/target/STM32MP1-DK2/bootloader/optee-os-custom/lib/libutee/tee_api.c:416
    11c4:	b149      	cbz	r1, 11da <TEE_Realloc+0x18>
/home/aom1/Work/Linux/target/STM32MP1-DK2/bootloader/optee-os-custom/lib/libutee/tee_api.c:421
    11c6:	2801      	cmp	r0, #1
    11c8:	d103      	bne.n	11d2 <TEE_Realloc+0x10>
/home/aom1/Work/Linux/target/STM32MP1-DK2/bootloader/optee-os-custom/lib/libutee/tee_api.c:425
    11ca:	e8bd 4008 	ldmia.w	sp!, {r3, lr}
/home/aom1/Work/Linux/target/STM32MP1-DK2/bootloader/optee-os-custom/lib/libutee/tee_api.c:422
    11ce:	f005 bcbd 	b.w	6b4c <calloc>
/home/aom1/Work/Linux/target/STM32MP1-DK2/bootloader/optee-os-custom/lib/libutee/tee_api.c:425
    11d2:	e8bd 4008 	ldmia.w	sp!, {r3, lr}
/home/aom1/Work/Linux/target/STM32MP1-DK2/bootloader/optee-os-custom/lib/libutee/tee_api.c:424
    11d6:	f005 bcc9 	b.w	6b6c <realloc>
/home/aom1/Work/Linux/target/STM32MP1-DK2/bootloader/optee-os-custom/lib/libutee/tee_api.c:417
    11da:	f7ff ffed 	bl	11b8 <TEE_Free>
/home/aom1/Work/Linux/target/STM32MP1-DK2/bootloader/optee-os-custom/lib/libutee/tee_api.c:425
    11de:	2001      	movs	r0, #1
    11e0:	bd08      	pop	{r3, pc}

000011e2 <TEE_CacheClean>:
TEE_CacheClean():
/home/aom1/Work/Linux/target/STM32MP1-DK2/bootloader/optee-os-custom/lib/libutee/tee_api.c:436
    11e2:	2200      	movs	r2, #0
    11e4:	f005 bfa4 	b.w	7130 <___utee_cache_operation_from_thumb>

000011e8 <TEE_CacheFlush>:
TEE_CacheFlush():
/home/aom1/Work/Linux/target/STM32MP1-DK2/bootloader/optee-os-custom/lib/libutee/tee_api.c:440
    11e8:	2201      	movs	r2, #1
    11ea:	f005 bfa1 	b.w	7130 <___utee_cache_operation_from_thumb>

000011ee <TEE_CacheInvalidate>:
TEE_CacheInvalidate():
/home/aom1/Work/Linux/target/STM32MP1-DK2/bootloader/optee-os-custom/lib/libutee/tee_api.c:445
    11ee:	2202      	movs	r2, #2
    11f0:	f005 bf9e 	b.w	7130 <___utee_cache_operation_from_thumb>

000011f4 <__utee_from_attr>:
__utee_from_attr():
/home/aom1/Work/Linux/target/STM32MP1-DK2/bootloader/optee-os-custom/lib/libutee/tee_api_objects.c:19
    11f4:	2318      	movs	r3, #24
    11f6:	fb03 0202 	mla	r2, r3, r2, r0
/home/aom1/Work/Linux/target/STM32MP1-DK2/bootloader/optee-os-custom/lib/libutee/tee_api_objects.c:23
    11fa:	2300      	movs	r3, #0
/home/aom1/Work/Linux/target/STM32MP1-DK2/bootloader/optee-os-custom/lib/libutee/tee_api_objects.c:16
    11fc:	b530      	push	{r4, r5, lr}
/home/aom1/Work/Linux/target/STM32MP1-DK2/bootloader/optee-os-custom/lib/libutee/tee_api_objects.c:19 (discriminator 1)
    11fe:	4290      	cmp	r0, r2
    1200:	d100      	bne.n	1204 <__utee_from_attr+0x10>
/home/aom1/Work/Linux/target/STM32MP1-DK2/bootloader/optee-os-custom/lib/libutee/tee_api_objects.c:29
    1202:	bd30      	pop	{r4, r5, pc}
/home/aom1/Work/Linux/target/STM32MP1-DK2/bootloader/optee-os-custom/lib/libutee/tee_api_objects.c:20
    1204:	680c      	ldr	r4, [r1, #0]
    1206:	310c      	adds	r1, #12
    1208:	6104      	str	r4, [r0, #16]
/home/aom1/Work/Linux/target/STM32MP1-DK2/bootloader/optee-os-custom/lib/libutee/tee_api_objects.c:23
    120a:	f851 4c04 	ldr.w	r4, [r1, #-4]
/home/aom1/Work/Linux/target/STM32MP1-DK2/bootloader/optee-os-custom/lib/libutee/tee_api_objects.c:22
    120e:	f851 5c08 	ldr.w	r5, [r1, #-8]
/home/aom1/Work/Linux/target/STM32MP1-DK2/bootloader/optee-os-custom/lib/libutee/tee_api_objects.c:23
    1212:	e9c0 4302 	strd	r4, r3, [r0, #8]
/home/aom1/Work/Linux/target/STM32MP1-DK2/bootloader/optee-os-custom/lib/libutee/tee_api_objects.c:22
    1216:	e9c0 5300 	strd	r5, r3, [r0]
    121a:	3018      	adds	r0, #24
    121c:	e7ef      	b.n	11fe <__utee_from_attr+0xa>

0000121e <TEE_GetObjectInfo>:
TEE_GetObjectInfo():
/home/aom1/Work/Linux/target/STM32MP1-DK2/bootloader/optee-os-custom/lib/libutee/tee_api_objects.c:39
    121e:	b510      	push	{r4, lr}
    1220:	460c      	mov	r4, r1
/home/aom1/Work/Linux/target/STM32MP1-DK2/bootloader/optee-os-custom/lib/libutee/tee_api_objects.c:42
    1222:	f000 edfc 	blx	1e1c <_utee_cryp_obj_get_info>
/home/aom1/Work/Linux/target/STM32MP1-DK2/bootloader/optee-os-custom/lib/libutee/tee_api_objects.c:44
    1226:	b108      	cbz	r0, 122c <TEE_GetObjectInfo+0xe>
/home/aom1/Work/Linux/target/STM32MP1-DK2/bootloader/optee-os-custom/lib/libutee/tee_api_objects.c:45
    1228:	f000 fbe6 	bl	19f8 <TEE_Panic>
/home/aom1/Work/Linux/target/STM32MP1-DK2/bootloader/optee-os-custom/lib/libutee/tee_api_objects.c:47
    122c:	6822      	ldr	r2, [r4, #0]
    122e:	4b05      	ldr	r3, [pc, #20]	; (1244 <TEE_GetObjectInfo+0x26>)
    1230:	429a      	cmp	r2, r3
    1232:	d106      	bne.n	1242 <TEE_GetObjectInfo+0x24>
/home/aom1/Work/Linux/target/STM32MP1-DK2/bootloader/optee-os-custom/lib/libutee/tee_api_objects.c:48
    1234:	2300      	movs	r3, #0
    1236:	6063      	str	r3, [r4, #4]
/home/aom1/Work/Linux/target/STM32MP1-DK2/bootloader/optee-os-custom/lib/libutee/tee_api_objects.c:49
    1238:	60a3      	str	r3, [r4, #8]
/home/aom1/Work/Linux/target/STM32MP1-DK2/bootloader/optee-os-custom/lib/libutee/tee_api_objects.c:50
    123a:	60e3      	str	r3, [r4, #12]
/home/aom1/Work/Linux/target/STM32MP1-DK2/bootloader/optee-os-custom/lib/libutee/tee_api_objects.c:51
    123c:	6123      	str	r3, [r4, #16]
/home/aom1/Work/Linux/target/STM32MP1-DK2/bootloader/optee-os-custom/lib/libutee/tee_api_objects.c:52
    123e:	6163      	str	r3, [r4, #20]
/home/aom1/Work/Linux/target/STM32MP1-DK2/bootloader/optee-os-custom/lib/libutee/tee_api_objects.c:53
    1240:	61a3      	str	r3, [r4, #24]
/home/aom1/Work/Linux/target/STM32MP1-DK2/bootloader/optee-os-custom/lib/libutee/tee_api_objects.c:55
    1242:	bd10      	pop	{r4, pc}
    1244:	a00000be 	.word	0xa00000be

00001248 <TEE_GetObjectInfo1>:
TEE_GetObjectInfo1():
/home/aom1/Work/Linux/target/STM32MP1-DK2/bootloader/optee-os-custom/lib/libutee/tee_api_objects.c:58
    1248:	b510      	push	{r4, lr}
/home/aom1/Work/Linux/target/STM32MP1-DK2/bootloader/optee-os-custom/lib/libutee/tee_api_objects.c:61
    124a:	f000 ede8 	blx	1e1c <_utee_cryp_obj_get_info>
/home/aom1/Work/Linux/target/STM32MP1-DK2/bootloader/optee-os-custom/lib/libutee/tee_api_objects.c:63
    124e:	4604      	mov	r4, r0
    1250:	b130      	cbz	r0, 1260 <TEE_GetObjectInfo1+0x18>
/home/aom1/Work/Linux/target/STM32MP1-DK2/bootloader/optee-os-custom/lib/libutee/tee_api_objects.c:63 (discriminator 1)
    1252:	4b04      	ldr	r3, [pc, #16]	; (1264 <TEE_GetObjectInfo1+0x1c>)
    1254:	f020 0202 	bic.w	r2, r0, #2
    1258:	429a      	cmp	r2, r3
    125a:	d001      	beq.n	1260 <TEE_GetObjectInfo1+0x18>
/home/aom1/Work/Linux/target/STM32MP1-DK2/bootloader/optee-os-custom/lib/libutee/tee_api_objects.c:66
    125c:	f000 fbcc 	bl	19f8 <TEE_Panic>
/home/aom1/Work/Linux/target/STM32MP1-DK2/bootloader/optee-os-custom/lib/libutee/tee_api_objects.c:69
    1260:	4620      	mov	r0, r4
    1262:	bd10      	pop	{r4, pc}
    1264:	f0100001 	.word	0xf0100001

00001268 <TEE_RestrictObjectUsage1>:
TEE_RestrictObjectUsage1():
/home/aom1/Work/Linux/target/STM32MP1-DK2/bootloader/optee-os-custom/lib/libutee/tee_api_objects.c:93
    1268:	b510      	push	{r4, lr}
/home/aom1/Work/Linux/target/STM32MP1-DK2/bootloader/optee-os-custom/lib/libutee/tee_api_objects.c:96
    126a:	f000 ede2 	blx	1e30 <_utee_cryp_obj_restrict_usage>
/home/aom1/Work/Linux/target/STM32MP1-DK2/bootloader/optee-os-custom/lib/libutee/tee_api_objects.c:99
    126e:	4604      	mov	r4, r0
    1270:	b130      	cbz	r0, 1280 <TEE_RestrictObjectUsage1+0x18>
/home/aom1/Work/Linux/target/STM32MP1-DK2/bootloader/optee-os-custom/lib/libutee/tee_api_objects.c:99 (discriminator 1)
    1272:	4b04      	ldr	r3, [pc, #16]	; (1284 <TEE_RestrictObjectUsage1+0x1c>)
    1274:	f020 0202 	bic.w	r2, r0, #2
    1278:	429a      	cmp	r2, r3
    127a:	d001      	beq.n	1280 <TEE_RestrictObjectUsage1+0x18>
/home/aom1/Work/Linux/target/STM32MP1-DK2/bootloader/optee-os-custom/lib/libutee/tee_api_objects.c:102
    127c:	f000 fbbc 	bl	19f8 <TEE_Panic>
/home/aom1/Work/Linux/target/STM32MP1-DK2/bootloader/optee-os-custom/lib/libutee/tee_api_objects.c:105
    1280:	4620      	mov	r0, r4
    1282:	bd10      	pop	{r4, pc}
    1284:	f0100001 	.word	0xf0100001

00001288 <TEE_RestrictObjectUsage>:
TEE_RestrictObjectUsage():
/home/aom1/Work/Linux/target/STM32MP1-DK2/bootloader/optee-os-custom/lib/libutee/tee_api_objects.c:78
    1288:	b530      	push	{r4, r5, lr}
    128a:	b089      	sub	sp, #36	; 0x24
    128c:	460d      	mov	r5, r1
/home/aom1/Work/Linux/target/STM32MP1-DK2/bootloader/optee-os-custom/lib/libutee/tee_api_objects.c:82
    128e:	a901      	add	r1, sp, #4
/home/aom1/Work/Linux/target/STM32MP1-DK2/bootloader/optee-os-custom/lib/libutee/tee_api_objects.c:78
    1290:	4604      	mov	r4, r0
/home/aom1/Work/Linux/target/STM32MP1-DK2/bootloader/optee-os-custom/lib/libutee/tee_api_objects.c:82
    1292:	f000 edc4 	blx	1e1c <_utee_cryp_obj_get_info>
/home/aom1/Work/Linux/target/STM32MP1-DK2/bootloader/optee-os-custom/lib/libutee/tee_api_objects.c:83
    1296:	4b06      	ldr	r3, [pc, #24]	; (12b0 <TEE_RestrictObjectUsage+0x28>)
    1298:	9a01      	ldr	r2, [sp, #4]
    129a:	429a      	cmp	r2, r3
    129c:	d006      	beq.n	12ac <TEE_RestrictObjectUsage+0x24>
/home/aom1/Work/Linux/target/STM32MP1-DK2/bootloader/optee-os-custom/lib/libutee/tee_api_objects.c:86
    129e:	4629      	mov	r1, r5
    12a0:	4620      	mov	r0, r4
    12a2:	f7ff ffe1 	bl	1268 <TEE_RestrictObjectUsage1>
/home/aom1/Work/Linux/target/STM32MP1-DK2/bootloader/optee-os-custom/lib/libutee/tee_api_objects.c:88
    12a6:	b108      	cbz	r0, 12ac <TEE_RestrictObjectUsage+0x24>
/home/aom1/Work/Linux/target/STM32MP1-DK2/bootloader/optee-os-custom/lib/libutee/tee_api_objects.c:89
    12a8:	f000 fba6 	bl	19f8 <TEE_Panic>
/home/aom1/Work/Linux/target/STM32MP1-DK2/bootloader/optee-os-custom/lib/libutee/tee_api_objects.c:90
    12ac:	b009      	add	sp, #36	; 0x24
    12ae:	bd30      	pop	{r4, r5, pc}
    12b0:	a00000be 	.word	0xa00000be

000012b4 <TEE_GetObjectBufferAttribute>:
TEE_GetObjectBufferAttribute():
/home/aom1/Work/Linux/target/STM32MP1-DK2/bootloader/optee-os-custom/lib/libutee/tee_api_objects.c:110
    12b4:	e92d 41f0 	stmdb	sp!, {r4, r5, r6, r7, r8, lr}
    12b8:	4606      	mov	r6, r0
    12ba:	b08a      	sub	sp, #40	; 0x28
/home/aom1/Work/Linux/target/STM32MP1-DK2/bootloader/optee-os-custom/lib/libutee/tee_api_objects.c:115
    12bc:	4618      	mov	r0, r3
/home/aom1/Work/Linux/target/STM32MP1-DK2/bootloader/optee-os-custom/lib/libutee/tee_api_objects.c:110
    12be:	460f      	mov	r7, r1
/home/aom1/Work/Linux/target/STM32MP1-DK2/bootloader/optee-os-custom/lib/libutee/tee_api_objects.c:115
    12c0:	2104      	movs	r1, #4
/home/aom1/Work/Linux/target/STM32MP1-DK2/bootloader/optee-os-custom/lib/libutee/tee_api_objects.c:110
    12c2:	4690      	mov	r8, r2
    12c4:	461d      	mov	r5, r3
/home/aom1/Work/Linux/target/STM32MP1-DK2/bootloader/optee-os-custom/lib/libutee/tee_api_objects.c:115
    12c6:	f000 fbea 	bl	1a9e <__utee_check_inout_annotation>
/home/aom1/Work/Linux/target/STM32MP1-DK2/bootloader/optee-os-custom/lib/libutee/tee_api_objects.c:117
    12ca:	a903      	add	r1, sp, #12
    12cc:	4630      	mov	r0, r6
    12ce:	f000 eda6 	blx	1e1c <_utee_cryp_obj_get_info>
/home/aom1/Work/Linux/target/STM32MP1-DK2/bootloader/optee-os-custom/lib/libutee/tee_api_objects.c:118
    12d2:	4604      	mov	r4, r0
    12d4:	b970      	cbnz	r0, 12f4 <TEE_GetObjectBufferAttribute+0x40>
/home/aom1/Work/Linux/target/STM32MP1-DK2/bootloader/optee-os-custom/lib/libutee/tee_api_objects.c:122
    12d6:	00bb      	lsls	r3, r7, #2
    12d8:	d422      	bmi.n	1320 <TEE_GetObjectBufferAttribute+0x6c>
/home/aom1/Work/Linux/target/STM32MP1-DK2/bootloader/optee-os-custom/lib/libutee/tee_api_objects.c:127
    12da:	682b      	ldr	r3, [r5, #0]
/home/aom1/Work/Linux/target/STM32MP1-DK2/bootloader/optee-os-custom/lib/libutee/tee_api_objects.c:128
    12dc:	4642      	mov	r2, r8
    12de:	4639      	mov	r1, r7
/home/aom1/Work/Linux/target/STM32MP1-DK2/bootloader/optee-os-custom/lib/libutee/tee_api_objects.c:127
    12e0:	e9cd 3000 	strd	r3, r0, [sp]
/home/aom1/Work/Linux/target/STM32MP1-DK2/bootloader/optee-os-custom/lib/libutee/tee_api_objects.c:128
    12e4:	466b      	mov	r3, sp
    12e6:	4630      	mov	r0, r6
    12e8:	f000 edac 	blx	1e44 <_utee_cryp_obj_get_attr>
/home/aom1/Work/Linux/target/STM32MP1-DK2/bootloader/optee-os-custom/lib/libutee/tee_api_objects.c:130
    12ec:	9b00      	ldr	r3, [sp, #0]
/home/aom1/Work/Linux/target/STM32MP1-DK2/bootloader/optee-os-custom/lib/libutee/tee_api_objects.c:133
    12ee:	4604      	mov	r4, r0
/home/aom1/Work/Linux/target/STM32MP1-DK2/bootloader/optee-os-custom/lib/libutee/tee_api_objects.c:130
    12f0:	602b      	str	r3, [r5, #0]
/home/aom1/Work/Linux/target/STM32MP1-DK2/bootloader/optee-os-custom/lib/libutee/tee_api_objects.c:133
    12f2:	b188      	cbz	r0, 1318 <TEE_GetObjectBufferAttribute+0x64>
    12f4:	4b0b      	ldr	r3, [pc, #44]	; (1324 <TEE_GetObjectBufferAttribute+0x70>)
    12f6:	429c      	cmp	r4, r3
    12f8:	d00e      	beq.n	1318 <TEE_GetObjectBufferAttribute+0x64>
/home/aom1/Work/Linux/target/STM32MP1-DK2/bootloader/optee-os-custom/lib/libutee/tee_api_objects.c:134
    12fa:	3308      	adds	r3, #8
    12fc:	429c      	cmp	r4, r3
    12fe:	d00b      	beq.n	1318 <TEE_GetObjectBufferAttribute+0x64>
/home/aom1/Work/Linux/target/STM32MP1-DK2/bootloader/optee-os-custom/lib/libutee/tee_api_objects.c:135
    1300:	f1a3 637e 	sub.w	r3, r3, #266338304	; 0xfe00000
    1304:	f1a3 130f 	sub.w	r3, r3, #983055	; 0xf000f
    1308:	429c      	cmp	r4, r3
    130a:	d005      	beq.n	1318 <TEE_GetObjectBufferAttribute+0x64>
/home/aom1/Work/Linux/target/STM32MP1-DK2/bootloader/optee-os-custom/lib/libutee/tee_api_objects.c:136
    130c:	3302      	adds	r3, #2
    130e:	429c      	cmp	r4, r3
    1310:	d002      	beq.n	1318 <TEE_GetObjectBufferAttribute+0x64>
/home/aom1/Work/Linux/target/STM32MP1-DK2/bootloader/optee-os-custom/lib/libutee/tee_api_objects.c:138
    1312:	4620      	mov	r0, r4
    1314:	f000 fb70 	bl	19f8 <TEE_Panic>
/home/aom1/Work/Linux/target/STM32MP1-DK2/bootloader/optee-os-custom/lib/libutee/tee_api_objects.c:141
    1318:	4620      	mov	r0, r4
    131a:	b00a      	add	sp, #40	; 0x28
    131c:	e8bd 81f0 	ldmia.w	sp!, {r4, r5, r6, r7, r8, pc}
/home/aom1/Work/Linux/target/STM32MP1-DK2/bootloader/optee-os-custom/lib/libutee/tee_api_objects.c:123
    1320:	4c01      	ldr	r4, [pc, #4]	; (1328 <TEE_GetObjectBufferAttribute+0x74>)
    1322:	e7f6      	b.n	1312 <TEE_GetObjectBufferAttribute+0x5e>
    1324:	ffff0008 	.word	0xffff0008
    1328:	ffff0006 	.word	0xffff0006

0000132c <TEE_GetObjectValueAttribute>:
TEE_GetObjectValueAttribute():
/home/aom1/Work/Linux/target/STM32MP1-DK2/bootloader/optee-os-custom/lib/libutee/tee_api_objects.c:146
    132c:	e92d 41f0 	stmdb	sp!, {r4, r5, r6, r7, r8, lr}
    1330:	b08c      	sub	sp, #48	; 0x30
    1332:	4607      	mov	r7, r0
    1334:	4688      	mov	r8, r1
/home/aom1/Work/Linux/target/STM32MP1-DK2/bootloader/optee-os-custom/lib/libutee/tee_api_objects.c:150
    1336:	2008      	movs	r0, #8
    1338:	2100      	movs	r1, #0
/home/aom1/Work/Linux/target/STM32MP1-DK2/bootloader/optee-os-custom/lib/libutee/tee_api_objects.c:146
    133a:	461d      	mov	r5, r3
/home/aom1/Work/Linux/target/STM32MP1-DK2/bootloader/optee-os-custom/lib/libutee/tee_api_objects.c:152
    133c:	4616      	mov	r6, r2
/home/aom1/Work/Linux/target/STM32MP1-DK2/bootloader/optee-os-custom/lib/libutee/tee_api_objects.c:150
    133e:	e9cd 0100 	strd	r0, r1, [sp]
/home/aom1/Work/Linux/target/STM32MP1-DK2/bootloader/optee-os-custom/lib/libutee/tee_api_objects.c:152
    1342:	b11a      	cbz	r2, 134c <TEE_GetObjectValueAttribute+0x20>
/home/aom1/Work/Linux/target/STM32MP1-DK2/bootloader/optee-os-custom/lib/libutee/tee_api_objects.c:153
    1344:	2104      	movs	r1, #4
    1346:	4610      	mov	r0, r2
    1348:	f000 fb96 	bl	1a78 <__utee_check_out_annotation>
/home/aom1/Work/Linux/target/STM32MP1-DK2/bootloader/optee-os-custom/lib/libutee/tee_api_objects.c:154
    134c:	b11d      	cbz	r5, 1356 <TEE_GetObjectValueAttribute+0x2a>
/home/aom1/Work/Linux/target/STM32MP1-DK2/bootloader/optee-os-custom/lib/libutee/tee_api_objects.c:155
    134e:	2104      	movs	r1, #4
    1350:	4628      	mov	r0, r5
    1352:	f000 fb91 	bl	1a78 <__utee_check_out_annotation>
/home/aom1/Work/Linux/target/STM32MP1-DK2/bootloader/optee-os-custom/lib/libutee/tee_api_objects.c:157
    1356:	a905      	add	r1, sp, #20
    1358:	4638      	mov	r0, r7
    135a:	f000 ed60 	blx	1e1c <_utee_cryp_obj_get_info>
/home/aom1/Work/Linux/target/STM32MP1-DK2/bootloader/optee-os-custom/lib/libutee/tee_api_objects.c:158
    135e:	4604      	mov	r4, r0
    1360:	b950      	cbnz	r0, 1378 <TEE_GetObjectValueAttribute+0x4c>
/home/aom1/Work/Linux/target/STM32MP1-DK2/bootloader/optee-os-custom/lib/libutee/tee_api_objects.c:162
    1362:	f018 5f00 	tst.w	r8, #536870912	; 0x20000000
    1366:	d026      	beq.n	13b6 <TEE_GetObjectValueAttribute+0x8a>
/home/aom1/Work/Linux/target/STM32MP1-DK2/bootloader/optee-os-custom/lib/libutee/tee_api_objects.c:167
    1368:	466b      	mov	r3, sp
    136a:	aa03      	add	r2, sp, #12
    136c:	4641      	mov	r1, r8
    136e:	4638      	mov	r0, r7
    1370:	f000 ed68 	blx	1e44 <_utee_cryp_obj_get_attr>
/home/aom1/Work/Linux/target/STM32MP1-DK2/bootloader/optee-os-custom/lib/libutee/tee_api_objects.c:171
    1374:	4604      	mov	r4, r0
    1376:	b158      	cbz	r0, 1390 <TEE_GetObjectValueAttribute+0x64>
    1378:	4b10      	ldr	r3, [pc, #64]	; (13bc <TEE_GetObjectValueAttribute+0x90>)
    137a:	429c      	cmp	r4, r3
    137c:	d008      	beq.n	1390 <TEE_GetObjectValueAttribute+0x64>
/home/aom1/Work/Linux/target/STM32MP1-DK2/bootloader/optee-os-custom/lib/libutee/tee_api_objects.c:172
    137e:	4b10      	ldr	r3, [pc, #64]	; (13c0 <TEE_GetObjectValueAttribute+0x94>)
    1380:	429c      	cmp	r4, r3
    1382:	d005      	beq.n	1390 <TEE_GetObjectValueAttribute+0x64>
/home/aom1/Work/Linux/target/STM32MP1-DK2/bootloader/optee-os-custom/lib/libutee/tee_api_objects.c:173
    1384:	3302      	adds	r3, #2
    1386:	429c      	cmp	r4, r3
    1388:	d002      	beq.n	1390 <TEE_GetObjectValueAttribute+0x64>
/home/aom1/Work/Linux/target/STM32MP1-DK2/bootloader/optee-os-custom/lib/libutee/tee_api_objects.c:175
    138a:	4620      	mov	r0, r4
    138c:	f000 fb34 	bl	19f8 <TEE_Panic>
/home/aom1/Work/Linux/target/STM32MP1-DK2/bootloader/optee-os-custom/lib/libutee/tee_api_objects.c:177
    1390:	9b00      	ldr	r3, [sp, #0]
    1392:	9a01      	ldr	r2, [sp, #4]
    1394:	3b08      	subs	r3, #8
    1396:	4313      	orrs	r3, r2
    1398:	d002      	beq.n	13a0 <TEE_GetObjectValueAttribute+0x74>
/home/aom1/Work/Linux/target/STM32MP1-DK2/bootloader/optee-os-custom/lib/libutee/tee_api_objects.c:178
    139a:	2000      	movs	r0, #0
    139c:	f000 fb2c 	bl	19f8 <TEE_Panic>
/home/aom1/Work/Linux/target/STM32MP1-DK2/bootloader/optee-os-custom/lib/libutee/tee_api_objects.c:180
    13a0:	b92c      	cbnz	r4, 13ae <TEE_GetObjectValueAttribute+0x82>
/home/aom1/Work/Linux/target/STM32MP1-DK2/bootloader/optee-os-custom/lib/libutee/tee_api_objects.c:181
    13a2:	b10e      	cbz	r6, 13a8 <TEE_GetObjectValueAttribute+0x7c>
/home/aom1/Work/Linux/target/STM32MP1-DK2/bootloader/optee-os-custom/lib/libutee/tee_api_objects.c:182
    13a4:	9b03      	ldr	r3, [sp, #12]
    13a6:	6033      	str	r3, [r6, #0]
/home/aom1/Work/Linux/target/STM32MP1-DK2/bootloader/optee-os-custom/lib/libutee/tee_api_objects.c:183
    13a8:	b10d      	cbz	r5, 13ae <TEE_GetObjectValueAttribute+0x82>
/home/aom1/Work/Linux/target/STM32MP1-DK2/bootloader/optee-os-custom/lib/libutee/tee_api_objects.c:184
    13aa:	9b04      	ldr	r3, [sp, #16]
    13ac:	602b      	str	r3, [r5, #0]
/home/aom1/Work/Linux/target/STM32MP1-DK2/bootloader/optee-os-custom/lib/libutee/tee_api_objects.c:188
    13ae:	4620      	mov	r0, r4
    13b0:	b00c      	add	sp, #48	; 0x30
    13b2:	e8bd 81f0 	ldmia.w	sp!, {r4, r5, r6, r7, r8, pc}
/home/aom1/Work/Linux/target/STM32MP1-DK2/bootloader/optee-os-custom/lib/libutee/tee_api_objects.c:163
    13b6:	4c03      	ldr	r4, [pc, #12]	; (13c4 <TEE_GetObjectValueAttribute+0x98>)
    13b8:	e7e7      	b.n	138a <TEE_GetObjectValueAttribute+0x5e>
    13ba:	bf00      	nop
    13bc:	ffff0008 	.word	0xffff0008
    13c0:	f0100001 	.word	0xf0100001
    13c4:	ffff0006 	.word	0xffff0006

000013c8 <TEE_CloseObject>:
TEE_CloseObject():
/home/aom1/Work/Linux/target/STM32MP1-DK2/bootloader/optee-os-custom/lib/libutee/tee_api_objects.c:191
    13c8:	b508      	push	{r3, lr}
/home/aom1/Work/Linux/target/STM32MP1-DK2/bootloader/optee-os-custom/lib/libutee/tee_api_objects.c:194
    13ca:	b130      	cbz	r0, 13da <TEE_CloseObject+0x12>
/home/aom1/Work/Linux/target/STM32MP1-DK2/bootloader/optee-os-custom/lib/libutee/tee_api_objects.c:197
    13cc:	f000 ed4e 	blx	1e6c <_utee_cryp_obj_close>
/home/aom1/Work/Linux/target/STM32MP1-DK2/bootloader/optee-os-custom/lib/libutee/tee_api_objects.c:198
    13d0:	b118      	cbz	r0, 13da <TEE_CloseObject+0x12>
/home/aom1/Work/Linux/target/STM32MP1-DK2/bootloader/optee-os-custom/lib/libutee/tee_api_objects.c:200
    13d2:	e8bd 4008 	ldmia.w	sp!, {r3, lr}
/home/aom1/Work/Linux/target/STM32MP1-DK2/bootloader/optee-os-custom/lib/libutee/tee_api_objects.c:199
    13d6:	f000 bb0f 	b.w	19f8 <TEE_Panic>
/home/aom1/Work/Linux/target/STM32MP1-DK2/bootloader/optee-os-custom/lib/libutee/tee_api_objects.c:200
    13da:	bd08      	pop	{r3, pc}

000013dc <TEE_AllocateTransientObject>:
TEE_AllocateTransientObject():
/home/aom1/Work/Linux/target/STM32MP1-DK2/bootloader/optee-os-custom/lib/libutee/tee_api_objects.c:207
    13dc:	b573      	push	{r0, r1, r4, r5, r6, lr}
    13de:	4604      	mov	r4, r0
    13e0:	460e      	mov	r6, r1
/home/aom1/Work/Linux/target/STM32MP1-DK2/bootloader/optee-os-custom/lib/libutee/tee_api_objects.c:211
    13e2:	4610      	mov	r0, r2
    13e4:	2104      	movs	r1, #4
/home/aom1/Work/Linux/target/STM32MP1-DK2/bootloader/optee-os-custom/lib/libutee/tee_api_objects.c:207
    13e6:	4615      	mov	r5, r2
/home/aom1/Work/Linux/target/STM32MP1-DK2/bootloader/optee-os-custom/lib/libutee/tee_api_objects.c:211
    13e8:	f000 fb46 	bl	1a78 <__utee_check_out_annotation>
/home/aom1/Work/Linux/target/STM32MP1-DK2/bootloader/optee-os-custom/lib/libutee/tee_api_objects.c:213
    13ec:	4620      	mov	r0, r4
    13ee:	aa01      	add	r2, sp, #4
    13f0:	4631      	mov	r1, r6
    13f2:	f000 ed32 	blx	1e58 <_utee_cryp_obj_alloc>
/home/aom1/Work/Linux/target/STM32MP1-DK2/bootloader/optee-os-custom/lib/libutee/tee_api_objects.c:215
    13f6:	4604      	mov	r4, r0
    13f8:	b150      	cbz	r0, 1410 <TEE_AllocateTransientObject+0x34>
/home/aom1/Work/Linux/target/STM32MP1-DK2/bootloader/optee-os-custom/lib/libutee/tee_api_objects.c:215 (discriminator 1)
    13fa:	4b07      	ldr	r3, [pc, #28]	; (1418 <TEE_AllocateTransientObject+0x3c>)
    13fc:	4298      	cmp	r0, r3
    13fe:	d004      	beq.n	140a <TEE_AllocateTransientObject+0x2e>
/home/aom1/Work/Linux/target/STM32MP1-DK2/bootloader/optee-os-custom/lib/libutee/tee_api_objects.c:216
    1400:	3b02      	subs	r3, #2
    1402:	4298      	cmp	r0, r3
    1404:	d001      	beq.n	140a <TEE_AllocateTransientObject+0x2e>
/home/aom1/Work/Linux/target/STM32MP1-DK2/bootloader/optee-os-custom/lib/libutee/tee_api_objects.c:218
    1406:	f000 faf7 	bl	19f8 <TEE_Panic>
/home/aom1/Work/Linux/target/STM32MP1-DK2/bootloader/optee-os-custom/lib/libutee/tee_api_objects.c:224
    140a:	4620      	mov	r0, r4
    140c:	b002      	add	sp, #8
    140e:	bd70      	pop	{r4, r5, r6, pc}
/home/aom1/Work/Linux/target/STM32MP1-DK2/bootloader/optee-os-custom/lib/libutee/tee_api_objects.c:221
    1410:	9b01      	ldr	r3, [sp, #4]
    1412:	602b      	str	r3, [r5, #0]
    1414:	e7f9      	b.n	140a <TEE_AllocateTransientObject+0x2e>
    1416:	bf00      	nop
    1418:	ffff000c 	.word	0xffff000c

0000141c <TEE_FreeTransientObject>:
TEE_FreeTransientObject():
/home/aom1/Work/Linux/target/STM32MP1-DK2/bootloader/optee-os-custom/lib/libutee/tee_api_objects.c:227
    141c:	b510      	push	{r4, lr}
/home/aom1/Work/Linux/target/STM32MP1-DK2/bootloader/optee-os-custom/lib/libutee/tee_api_objects.c:231
    141e:	4604      	mov	r4, r0
/home/aom1/Work/Linux/target/STM32MP1-DK2/bootloader/optee-os-custom/lib/libutee/tee_api_objects.c:227
    1420:	b088      	sub	sp, #32
/home/aom1/Work/Linux/target/STM32MP1-DK2/bootloader/optee-os-custom/lib/libutee/tee_api_objects.c:231
    1422:	b188      	cbz	r0, 1448 <TEE_FreeTransientObject+0x2c>
/home/aom1/Work/Linux/target/STM32MP1-DK2/bootloader/optee-os-custom/lib/libutee/tee_api_objects.c:234
    1424:	a901      	add	r1, sp, #4
    1426:	f000 ecfa 	blx	1e1c <_utee_cryp_obj_get_info>
/home/aom1/Work/Linux/target/STM32MP1-DK2/bootloader/optee-os-custom/lib/libutee/tee_api_objects.c:235
    142a:	b108      	cbz	r0, 1430 <TEE_FreeTransientObject+0x14>
/home/aom1/Work/Linux/target/STM32MP1-DK2/bootloader/optee-os-custom/lib/libutee/tee_api_objects.c:236
    142c:	f000 fae4 	bl	19f8 <TEE_Panic>
/home/aom1/Work/Linux/target/STM32MP1-DK2/bootloader/optee-os-custom/lib/libutee/tee_api_objects.c:238
    1430:	9b07      	ldr	r3, [sp, #28]
    1432:	03db      	lsls	r3, r3, #15
    1434:	d502      	bpl.n	143c <TEE_FreeTransientObject+0x20>
/home/aom1/Work/Linux/target/STM32MP1-DK2/bootloader/optee-os-custom/lib/libutee/tee_api_objects.c:239
    1436:	2000      	movs	r0, #0
    1438:	f000 fade 	bl	19f8 <TEE_Panic>
/home/aom1/Work/Linux/target/STM32MP1-DK2/bootloader/optee-os-custom/lib/libutee/tee_api_objects.c:241
    143c:	4620      	mov	r0, r4
    143e:	f000 ed16 	blx	1e6c <_utee_cryp_obj_close>
/home/aom1/Work/Linux/target/STM32MP1-DK2/bootloader/optee-os-custom/lib/libutee/tee_api_objects.c:242
    1442:	b108      	cbz	r0, 1448 <TEE_FreeTransientObject+0x2c>
/home/aom1/Work/Linux/target/STM32MP1-DK2/bootloader/optee-os-custom/lib/libutee/tee_api_objects.c:243
    1444:	f000 fad8 	bl	19f8 <TEE_Panic>
/home/aom1/Work/Linux/target/STM32MP1-DK2/bootloader/optee-os-custom/lib/libutee/tee_api_objects.c:244
    1448:	b008      	add	sp, #32
    144a:	bd10      	pop	{r4, pc}

0000144c <TEE_ResetTransientObject>:
TEE_ResetTransientObject():
/home/aom1/Work/Linux/target/STM32MP1-DK2/bootloader/optee-os-custom/lib/libutee/tee_api_objects.c:247
    144c:	b510      	push	{r4, lr}
/home/aom1/Work/Linux/target/STM32MP1-DK2/bootloader/optee-os-custom/lib/libutee/tee_api_objects.c:251
    144e:	4604      	mov	r4, r0
/home/aom1/Work/Linux/target/STM32MP1-DK2/bootloader/optee-os-custom/lib/libutee/tee_api_objects.c:247
    1450:	b088      	sub	sp, #32
/home/aom1/Work/Linux/target/STM32MP1-DK2/bootloader/optee-os-custom/lib/libutee/tee_api_objects.c:251
    1452:	b188      	cbz	r0, 1478 <TEE_ResetTransientObject+0x2c>
/home/aom1/Work/Linux/target/STM32MP1-DK2/bootloader/optee-os-custom/lib/libutee/tee_api_objects.c:254
    1454:	a901      	add	r1, sp, #4
    1456:	f000 ece2 	blx	1e1c <_utee_cryp_obj_get_info>
/home/aom1/Work/Linux/target/STM32MP1-DK2/bootloader/optee-os-custom/lib/libutee/tee_api_objects.c:255
    145a:	b108      	cbz	r0, 1460 <TEE_ResetTransientObject+0x14>
/home/aom1/Work/Linux/target/STM32MP1-DK2/bootloader/optee-os-custom/lib/libutee/tee_api_objects.c:256
    145c:	f000 facc 	bl	19f8 <TEE_Panic>
/home/aom1/Work/Linux/target/STM32MP1-DK2/bootloader/optee-os-custom/lib/libutee/tee_api_objects.c:258
    1460:	9b07      	ldr	r3, [sp, #28]
    1462:	03db      	lsls	r3, r3, #15
    1464:	d502      	bpl.n	146c <TEE_ResetTransientObject+0x20>
/home/aom1/Work/Linux/target/STM32MP1-DK2/bootloader/optee-os-custom/lib/libutee/tee_api_objects.c:259
    1466:	2000      	movs	r0, #0
    1468:	f000 fac6 	bl	19f8 <TEE_Panic>
/home/aom1/Work/Linux/target/STM32MP1-DK2/bootloader/optee-os-custom/lib/libutee/tee_api_objects.c:261
    146c:	4620      	mov	r0, r4
    146e:	f000 ed08 	blx	1e80 <_utee_cryp_obj_reset>
/home/aom1/Work/Linux/target/STM32MP1-DK2/bootloader/optee-os-custom/lib/libutee/tee_api_objects.c:262
    1472:	b108      	cbz	r0, 1478 <TEE_ResetTransientObject+0x2c>
/home/aom1/Work/Linux/target/STM32MP1-DK2/bootloader/optee-os-custom/lib/libutee/tee_api_objects.c:263
    1474:	f000 fac0 	bl	19f8 <TEE_Panic>
/home/aom1/Work/Linux/target/STM32MP1-DK2/bootloader/optee-os-custom/lib/libutee/tee_api_objects.c:264
    1478:	b008      	add	sp, #32
    147a:	bd10      	pop	{r4, pc}

0000147c <TEE_PopulateTransientObject>:
TEE_PopulateTransientObject():
/home/aom1/Work/Linux/target/STM32MP1-DK2/bootloader/optee-os-custom/lib/libutee/tee_api_objects.c:269
    147c:	e92d 41f0 	stmdb	sp!, {r4, r5, r6, r7, r8, lr}
    1480:	b088      	sub	sp, #32
    1482:	4614      	mov	r4, r2
/home/aom1/Work/Linux/target/STM32MP1-DK2/bootloader/optee-os-custom/lib/libutee/tee_api_objects.c:272
    1484:	2318      	movs	r3, #24
    1486:	466a      	mov	r2, sp
/home/aom1/Work/Linux/target/STM32MP1-DK2/bootloader/optee-os-custom/lib/libutee/tee_api_objects.c:269
    1488:	460e      	mov	r6, r1
/home/aom1/Work/Linux/target/STM32MP1-DK2/bootloader/optee-os-custom/lib/libutee/tee_api_objects.c:272
    148a:	fb03 2314 	mls	r3, r3, r4, r2
/home/aom1/Work/Linux/target/STM32MP1-DK2/bootloader/optee-os-custom/lib/libutee/tee_api_objects.c:269
    148e:	af00      	add	r7, sp, #0
    1490:	4605      	mov	r5, r0
/home/aom1/Work/Linux/target/STM32MP1-DK2/bootloader/optee-os-custom/lib/libutee/tee_api_objects.c:272
    1492:	469d      	mov	sp, r3
/home/aom1/Work/Linux/target/STM32MP1-DK2/bootloader/optee-os-custom/lib/libutee/tee_api_objects.c:274
    1494:	4621      	mov	r1, r4
    1496:	4630      	mov	r0, r6
/home/aom1/Work/Linux/target/STM32MP1-DK2/bootloader/optee-os-custom/lib/libutee/tee_api_objects.c:272
    1498:	46e8      	mov	r8, sp
/home/aom1/Work/Linux/target/STM32MP1-DK2/bootloader/optee-os-custom/lib/libutee/tee_api_objects.c:274
    149a:	f000 faf6 	bl	1a8a <__utee_check_attr_in_annotation>
/home/aom1/Work/Linux/target/STM32MP1-DK2/bootloader/optee-os-custom/lib/libutee/tee_api_objects.c:276
    149e:	1d39      	adds	r1, r7, #4
    14a0:	4628      	mov	r0, r5
    14a2:	f000 ecbc 	blx	1e1c <_utee_cryp_obj_get_info>
/home/aom1/Work/Linux/target/STM32MP1-DK2/bootloader/optee-os-custom/lib/libutee/tee_api_objects.c:277
    14a6:	b108      	cbz	r0, 14ac <TEE_PopulateTransientObject+0x30>
/home/aom1/Work/Linux/target/STM32MP1-DK2/bootloader/optee-os-custom/lib/libutee/tee_api_objects.c:278
    14a8:	f000 faa6 	bl	19f8 <TEE_Panic>
/home/aom1/Work/Linux/target/STM32MP1-DK2/bootloader/optee-os-custom/lib/libutee/tee_api_objects.c:281
    14ac:	69fb      	ldr	r3, [r7, #28]
    14ae:	03da      	lsls	r2, r3, #15
    14b0:	d502      	bpl.n	14b8 <TEE_PopulateTransientObject+0x3c>
/home/aom1/Work/Linux/target/STM32MP1-DK2/bootloader/optee-os-custom/lib/libutee/tee_api_objects.c:282
    14b2:	2000      	movs	r0, #0
    14b4:	f000 faa0 	bl	19f8 <TEE_Panic>
/home/aom1/Work/Linux/target/STM32MP1-DK2/bootloader/optee-os-custom/lib/libutee/tee_api_objects.c:285
    14b8:	69fb      	ldr	r3, [r7, #28]
    14ba:	039b      	lsls	r3, r3, #14
    14bc:	d502      	bpl.n	14c4 <TEE_PopulateTransientObject+0x48>
/home/aom1/Work/Linux/target/STM32MP1-DK2/bootloader/optee-os-custom/lib/libutee/tee_api_objects.c:286
    14be:	2000      	movs	r0, #0
    14c0:	f000 fa9a 	bl	19f8 <TEE_Panic>
/home/aom1/Work/Linux/target/STM32MP1-DK2/bootloader/optee-os-custom/lib/libutee/tee_api_objects.c:288
    14c4:	4622      	mov	r2, r4
    14c6:	4631      	mov	r1, r6
    14c8:	4640      	mov	r0, r8
    14ca:	f7ff fe93 	bl	11f4 <__utee_from_attr>
/home/aom1/Work/Linux/target/STM32MP1-DK2/bootloader/optee-os-custom/lib/libutee/tee_api_objects.c:289
    14ce:	4622      	mov	r2, r4
    14d0:	4641      	mov	r1, r8
    14d2:	4628      	mov	r0, r5
    14d4:	f000 ecde 	blx	1e94 <_utee_cryp_obj_populate>
/home/aom1/Work/Linux/target/STM32MP1-DK2/bootloader/optee-os-custom/lib/libutee/tee_api_objects.c:290
    14d8:	4604      	mov	r4, r0
    14da:	b120      	cbz	r0, 14e6 <TEE_PopulateTransientObject+0x6a>
/home/aom1/Work/Linux/target/STM32MP1-DK2/bootloader/optee-os-custom/lib/libutee/tee_api_objects.c:290 (discriminator 1)
    14dc:	4b04      	ldr	r3, [pc, #16]	; (14f0 <TEE_PopulateTransientObject+0x74>)
    14de:	4298      	cmp	r0, r3
    14e0:	d001      	beq.n	14e6 <TEE_PopulateTransientObject+0x6a>
/home/aom1/Work/Linux/target/STM32MP1-DK2/bootloader/optee-os-custom/lib/libutee/tee_api_objects.c:291
    14e2:	f000 fa89 	bl	19f8 <TEE_Panic>
/home/aom1/Work/Linux/target/STM32MP1-DK2/bootloader/optee-os-custom/lib/libutee/tee_api_objects.c:293
    14e6:	4620      	mov	r0, r4
    14e8:	3720      	adds	r7, #32
    14ea:	46bd      	mov	sp, r7
    14ec:	e8bd 81f0 	ldmia.w	sp!, {r4, r5, r6, r7, r8, pc}
    14f0:	ffff0006 	.word	0xffff0006

000014f4 <TEE_InitRefAttribute>:
TEE_InitRefAttribute():
/home/aom1/Work/Linux/target/STM32MP1-DK2/bootloader/optee-os-custom/lib/libutee/tee_api_objects.c:297
    14f4:	b5f8      	push	{r3, r4, r5, r6, r7, lr}
    14f6:	460d      	mov	r5, r1
/home/aom1/Work/Linux/target/STM32MP1-DK2/bootloader/optee-os-custom/lib/libutee/tee_api_objects.c:298
    14f8:	210c      	movs	r1, #12
/home/aom1/Work/Linux/target/STM32MP1-DK2/bootloader/optee-os-custom/lib/libutee/tee_api_objects.c:297
    14fa:	461e      	mov	r6, r3
    14fc:	4604      	mov	r4, r0
    14fe:	4617      	mov	r7, r2
/home/aom1/Work/Linux/target/STM32MP1-DK2/bootloader/optee-os-custom/lib/libutee/tee_api_objects.c:298
    1500:	f000 faba 	bl	1a78 <__utee_check_out_annotation>
/home/aom1/Work/Linux/target/STM32MP1-DK2/bootloader/optee-os-custom/lib/libutee/tee_api_objects.c:300
    1504:	00ab      	lsls	r3, r5, #2
    1506:	d502      	bpl.n	150e <TEE_InitRefAttribute+0x1a>
/home/aom1/Work/Linux/target/STM32MP1-DK2/bootloader/optee-os-custom/lib/libutee/tee_api_objects.c:301
    1508:	2000      	movs	r0, #0
    150a:	f000 fa75 	bl	19f8 <TEE_Panic>
/home/aom1/Work/Linux/target/STM32MP1-DK2/bootloader/optee-os-custom/lib/libutee/tee_api_objects.c:303
    150e:	e9c4 5700 	strd	r5, r7, [r4]
/home/aom1/Work/Linux/target/STM32MP1-DK2/bootloader/optee-os-custom/lib/libutee/tee_api_objects.c:304
    1512:	60a6      	str	r6, [r4, #8]
/home/aom1/Work/Linux/target/STM32MP1-DK2/bootloader/optee-os-custom/lib/libutee/tee_api_objects.c:305
    1514:	bdf8      	pop	{r3, r4, r5, r6, r7, pc}

00001516 <TEE_InitValueAttribute>:
TEE_InitValueAttribute():
/home/aom1/Work/Linux/target/STM32MP1-DK2/bootloader/optee-os-custom/lib/libutee/tee_api_objects.c:309
    1516:	b5f8      	push	{r3, r4, r5, r6, r7, lr}
    1518:	460d      	mov	r5, r1
/home/aom1/Work/Linux/target/STM32MP1-DK2/bootloader/optee-os-custom/lib/libutee/tee_api_objects.c:310
    151a:	210c      	movs	r1, #12
/home/aom1/Work/Linux/target/STM32MP1-DK2/bootloader/optee-os-custom/lib/libutee/tee_api_objects.c:309
    151c:	4604      	mov	r4, r0
    151e:	4617      	mov	r7, r2
    1520:	461e      	mov	r6, r3
/home/aom1/Work/Linux/target/STM32MP1-DK2/bootloader/optee-os-custom/lib/libutee/tee_api_objects.c:310
    1522:	f000 faa9 	bl	1a78 <__utee_check_out_annotation>
/home/aom1/Work/Linux/target/STM32MP1-DK2/bootloader/optee-os-custom/lib/libutee/tee_api_objects.c:312
    1526:	f015 5000 	ands.w	r0, r5, #536870912	; 0x20000000
    152a:	d101      	bne.n	1530 <TEE_InitValueAttribute+0x1a>
/home/aom1/Work/Linux/target/STM32MP1-DK2/bootloader/optee-os-custom/lib/libutee/tee_api_objects.c:313
    152c:	f000 fa64 	bl	19f8 <TEE_Panic>
/home/aom1/Work/Linux/target/STM32MP1-DK2/bootloader/optee-os-custom/lib/libutee/tee_api_objects.c:315
    1530:	e9c4 5700 	strd	r5, r7, [r4]
/home/aom1/Work/Linux/target/STM32MP1-DK2/bootloader/optee-os-custom/lib/libutee/tee_api_objects.c:316
    1534:	60a6      	str	r6, [r4, #8]
/home/aom1/Work/Linux/target/STM32MP1-DK2/bootloader/optee-os-custom/lib/libutee/tee_api_objects.c:317
    1536:	bdf8      	pop	{r3, r4, r5, r6, r7, pc}

00001538 <TEE_CopyObjectAttributes1>:
TEE_CopyObjectAttributes1():
/home/aom1/Work/Linux/target/STM32MP1-DK2/bootloader/optee-os-custom/lib/libutee/tee_api_objects.c:342
    1538:	b570      	push	{r4, r5, r6, lr}
    153a:	b08e      	sub	sp, #56	; 0x38
    153c:	460d      	mov	r5, r1
/home/aom1/Work/Linux/target/STM32MP1-DK2/bootloader/optee-os-custom/lib/libutee/tee_api_objects.c:347
    153e:	4669      	mov	r1, sp
/home/aom1/Work/Linux/target/STM32MP1-DK2/bootloader/optee-os-custom/lib/libutee/tee_api_objects.c:342
    1540:	4606      	mov	r6, r0
/home/aom1/Work/Linux/target/STM32MP1-DK2/bootloader/optee-os-custom/lib/libutee/tee_api_objects.c:347
    1542:	f000 ec6c 	blx	1e1c <_utee_cryp_obj_get_info>
/home/aom1/Work/Linux/target/STM32MP1-DK2/bootloader/optee-os-custom/lib/libutee/tee_api_objects.c:348
    1546:	4604      	mov	r4, r0
    1548:	b9e0      	cbnz	r0, 1584 <TEE_CopyObjectAttributes1+0x4c>
/home/aom1/Work/Linux/target/STM32MP1-DK2/bootloader/optee-os-custom/lib/libutee/tee_api_objects.c:351
    154a:	a907      	add	r1, sp, #28
    154c:	4628      	mov	r0, r5
    154e:	f000 ec66 	blx	1e1c <_utee_cryp_obj_get_info>
/home/aom1/Work/Linux/target/STM32MP1-DK2/bootloader/optee-os-custom/lib/libutee/tee_api_objects.c:352
    1552:	4604      	mov	r4, r0
    1554:	b9b0      	cbnz	r0, 1584 <TEE_CopyObjectAttributes1+0x4c>
/home/aom1/Work/Linux/target/STM32MP1-DK2/bootloader/optee-os-custom/lib/libutee/tee_api_objects.c:355
    1556:	9b0d      	ldr	r3, [sp, #52]	; 0x34
    1558:	0399      	lsls	r1, r3, #14
    155a:	d401      	bmi.n	1560 <TEE_CopyObjectAttributes1+0x28>
/home/aom1/Work/Linux/target/STM32MP1-DK2/bootloader/optee-os-custom/lib/libutee/tee_api_objects.c:356
    155c:	f000 fa4c 	bl	19f8 <TEE_Panic>
/home/aom1/Work/Linux/target/STM32MP1-DK2/bootloader/optee-os-custom/lib/libutee/tee_api_objects.c:358
    1560:	9b06      	ldr	r3, [sp, #24]
    1562:	03da      	lsls	r2, r3, #15
    1564:	d502      	bpl.n	156c <TEE_CopyObjectAttributes1+0x34>
/home/aom1/Work/Linux/target/STM32MP1-DK2/bootloader/optee-os-custom/lib/libutee/tee_api_objects.c:359
    1566:	2000      	movs	r0, #0
    1568:	f000 fa46 	bl	19f8 <TEE_Panic>
/home/aom1/Work/Linux/target/STM32MP1-DK2/bootloader/optee-os-custom/lib/libutee/tee_api_objects.c:361
    156c:	9b06      	ldr	r3, [sp, #24]
    156e:	039b      	lsls	r3, r3, #14
    1570:	d502      	bpl.n	1578 <TEE_CopyObjectAttributes1+0x40>
/home/aom1/Work/Linux/target/STM32MP1-DK2/bootloader/optee-os-custom/lib/libutee/tee_api_objects.c:362
    1572:	2000      	movs	r0, #0
    1574:	f000 fa40 	bl	19f8 <TEE_Panic>
/home/aom1/Work/Linux/target/STM32MP1-DK2/bootloader/optee-os-custom/lib/libutee/tee_api_objects.c:364
    1578:	4629      	mov	r1, r5
    157a:	4630      	mov	r0, r6
    157c:	f000 ec94 	blx	1ea8 <_utee_cryp_obj_copy>
/home/aom1/Work/Linux/target/STM32MP1-DK2/bootloader/optee-os-custom/lib/libutee/tee_api_objects.c:368
    1580:	4604      	mov	r4, r0
    1582:	b140      	cbz	r0, 1596 <TEE_CopyObjectAttributes1+0x5e>
/home/aom1/Work/Linux/target/STM32MP1-DK2/bootloader/optee-os-custom/lib/libutee/tee_api_objects.c:368 (discriminator 1)
    1584:	4b05      	ldr	r3, [pc, #20]	; (159c <TEE_CopyObjectAttributes1+0x64>)
    1586:	429c      	cmp	r4, r3
    1588:	d005      	beq.n	1596 <TEE_CopyObjectAttributes1+0x5e>
/home/aom1/Work/Linux/target/STM32MP1-DK2/bootloader/optee-os-custom/lib/libutee/tee_api_objects.c:369
    158a:	3302      	adds	r3, #2
    158c:	429c      	cmp	r4, r3
    158e:	d002      	beq.n	1596 <TEE_CopyObjectAttributes1+0x5e>
/home/aom1/Work/Linux/target/STM32MP1-DK2/bootloader/optee-os-custom/lib/libutee/tee_api_objects.c:371
    1590:	4620      	mov	r0, r4
    1592:	f000 fa31 	bl	19f8 <TEE_Panic>
/home/aom1/Work/Linux/target/STM32MP1-DK2/bootloader/optee-os-custom/lib/libutee/tee_api_objects.c:374
    1596:	4620      	mov	r0, r4
    1598:	b00e      	add	sp, #56	; 0x38
    159a:	bd70      	pop	{r4, r5, r6, pc}
    159c:	f0100001 	.word	0xf0100001

000015a0 <TEE_CopyObjectAttributes>:
TEE_CopyObjectAttributes():
/home/aom1/Work/Linux/target/STM32MP1-DK2/bootloader/optee-os-custom/lib/libutee/tee_api_objects.c:327
    15a0:	b530      	push	{r4, r5, lr}
    15a2:	460c      	mov	r4, r1
    15a4:	b089      	sub	sp, #36	; 0x24
    15a6:	4605      	mov	r5, r0
/home/aom1/Work/Linux/target/STM32MP1-DK2/bootloader/optee-os-custom/lib/libutee/tee_api_objects.c:331
    15a8:	a901      	add	r1, sp, #4
    15aa:	4620      	mov	r0, r4
    15ac:	f000 ec36 	blx	1e1c <_utee_cryp_obj_get_info>
/home/aom1/Work/Linux/target/STM32MP1-DK2/bootloader/optee-os-custom/lib/libutee/tee_api_objects.c:332
    15b0:	4b06      	ldr	r3, [pc, #24]	; (15cc <TEE_CopyObjectAttributes+0x2c>)
    15b2:	9a01      	ldr	r2, [sp, #4]
    15b4:	429a      	cmp	r2, r3
    15b6:	d006      	beq.n	15c6 <TEE_CopyObjectAttributes+0x26>
/home/aom1/Work/Linux/target/STM32MP1-DK2/bootloader/optee-os-custom/lib/libutee/tee_api_objects.c:335
    15b8:	4621      	mov	r1, r4
    15ba:	4628      	mov	r0, r5
    15bc:	f7ff ffbc 	bl	1538 <TEE_CopyObjectAttributes1>
/home/aom1/Work/Linux/target/STM32MP1-DK2/bootloader/optee-os-custom/lib/libutee/tee_api_objects.c:336
    15c0:	b108      	cbz	r0, 15c6 <TEE_CopyObjectAttributes+0x26>
/home/aom1/Work/Linux/target/STM32MP1-DK2/bootloader/optee-os-custom/lib/libutee/tee_api_objects.c:337
    15c2:	f000 fa19 	bl	19f8 <TEE_Panic>
/home/aom1/Work/Linux/target/STM32MP1-DK2/bootloader/optee-os-custom/lib/libutee/tee_api_objects.c:338
    15c6:	b009      	add	sp, #36	; 0x24
    15c8:	bd30      	pop	{r4, r5, pc}
    15ca:	bf00      	nop
    15cc:	a00000be 	.word	0xa00000be

000015d0 <TEE_GenerateKey>:
TEE_GenerateKey():
/home/aom1/Work/Linux/target/STM32MP1-DK2/bootloader/optee-os-custom/lib/libutee/tee_api_objects.c:378
    15d0:	e92d 43f8 	stmdb	sp!, {r3, r4, r5, r6, r7, r8, r9, lr}
    15d4:	461c      	mov	r4, r3
    15d6:	4615      	mov	r5, r2
/home/aom1/Work/Linux/target/STM32MP1-DK2/bootloader/optee-os-custom/lib/libutee/tee_api_objects.c:380
    15d8:	2318      	movs	r3, #24
    15da:	466a      	mov	r2, sp
/home/aom1/Work/Linux/target/STM32MP1-DK2/bootloader/optee-os-custom/lib/libutee/tee_api_objects.c:378
    15dc:	af00      	add	r7, sp, #0
/home/aom1/Work/Linux/target/STM32MP1-DK2/bootloader/optee-os-custom/lib/libutee/tee_api_objects.c:380
    15de:	fb03 2314 	mls	r3, r3, r4, r2
/home/aom1/Work/Linux/target/STM32MP1-DK2/bootloader/optee-os-custom/lib/libutee/tee_api_objects.c:378
    15e2:	4606      	mov	r6, r0
    15e4:	4688      	mov	r8, r1
/home/aom1/Work/Linux/target/STM32MP1-DK2/bootloader/optee-os-custom/lib/libutee/tee_api_objects.c:380
    15e6:	469d      	mov	sp, r3
/home/aom1/Work/Linux/target/STM32MP1-DK2/bootloader/optee-os-custom/lib/libutee/tee_api_objects.c:382
    15e8:	4621      	mov	r1, r4
/home/aom1/Work/Linux/target/STM32MP1-DK2/bootloader/optee-os-custom/lib/libutee/tee_api_objects.c:380
    15ea:	46e9      	mov	r9, sp
/home/aom1/Work/Linux/target/STM32MP1-DK2/bootloader/optee-os-custom/lib/libutee/tee_api_objects.c:382
    15ec:	4628      	mov	r0, r5
    15ee:	f000 fa4c 	bl	1a8a <__utee_check_attr_in_annotation>
/home/aom1/Work/Linux/target/STM32MP1-DK2/bootloader/optee-os-custom/lib/libutee/tee_api_objects.c:384
    15f2:	4622      	mov	r2, r4
    15f4:	4629      	mov	r1, r5
    15f6:	4648      	mov	r0, r9
    15f8:	f7ff fdfc 	bl	11f4 <__utee_from_attr>
/home/aom1/Work/Linux/target/STM32MP1-DK2/bootloader/optee-os-custom/lib/libutee/tee_api_objects.c:385
    15fc:	4623      	mov	r3, r4
    15fe:	464a      	mov	r2, r9
    1600:	4641      	mov	r1, r8
    1602:	4630      	mov	r0, r6
    1604:	f000 ed46 	blx	2094 <_utee_cryp_obj_generate_key>
/home/aom1/Work/Linux/target/STM32MP1-DK2/bootloader/optee-os-custom/lib/libutee/tee_api_objects.c:388
    1608:	4604      	mov	r4, r0
    160a:	b120      	cbz	r0, 1616 <TEE_GenerateKey+0x46>
/home/aom1/Work/Linux/target/STM32MP1-DK2/bootloader/optee-os-custom/lib/libutee/tee_api_objects.c:388 (discriminator 1)
    160c:	4b04      	ldr	r3, [pc, #16]	; (1620 <TEE_GenerateKey+0x50>)
    160e:	4298      	cmp	r0, r3
    1610:	d001      	beq.n	1616 <TEE_GenerateKey+0x46>
/home/aom1/Work/Linux/target/STM32MP1-DK2/bootloader/optee-os-custom/lib/libutee/tee_api_objects.c:389
    1612:	f000 f9f1 	bl	19f8 <TEE_Panic>
/home/aom1/Work/Linux/target/STM32MP1-DK2/bootloader/optee-os-custom/lib/libutee/tee_api_objects.c:392
    1616:	4620      	mov	r0, r4
    1618:	46bd      	mov	sp, r7
    161a:	e8bd 83f8 	ldmia.w	sp!, {r3, r4, r5, r6, r7, r8, r9, pc}
    161e:	bf00      	nop
    1620:	ffff0006 	.word	0xffff0006

00001624 <TEE_OpenPersistentObject>:
TEE_OpenPersistentObject():
/home/aom1/Work/Linux/target/STM32MP1-DK2/bootloader/optee-os-custom/lib/libutee/tee_api_objects.c:399
    1624:	e92d 41ff 	stmdb	sp!, {r0, r1, r2, r3, r4, r5, r6, r7, r8, lr}
    1628:	4605      	mov	r5, r0
    162a:	f8dd 8028 	ldr.w	r8, [sp, #40]	; 0x28
    162e:	4616      	mov	r6, r2
    1630:	461f      	mov	r7, r3
/home/aom1/Work/Linux/target/STM32MP1-DK2/bootloader/optee-os-custom/lib/libutee/tee_api_objects.c:403
    1632:	460c      	mov	r4, r1
    1634:	b911      	cbnz	r1, 163c <TEE_OpenPersistentObject+0x18>
/home/aom1/Work/Linux/target/STM32MP1-DK2/bootloader/optee-os-custom/lib/libutee/tee_api_objects.c:399
    1636:	4c15      	ldr	r4, [pc, #84]	; (168c <TEE_OpenPersistentObject+0x68>)
    1638:	2300      	movs	r3, #0
    163a:	e00e      	b.n	165a <TEE_OpenPersistentObject+0x36>
/home/aom1/Work/Linux/target/STM32MP1-DK2/bootloader/optee-os-custom/lib/libutee/tee_api_objects.c:408
    163c:	2104      	movs	r1, #4
    163e:	4640      	mov	r0, r8
    1640:	f000 fa1a 	bl	1a78 <__utee_check_out_annotation>
/home/aom1/Work/Linux/target/STM32MP1-DK2/bootloader/optee-os-custom/lib/libutee/tee_api_objects.c:410
    1644:	ab03      	add	r3, sp, #12
    1646:	4621      	mov	r1, r4
    1648:	9300      	str	r3, [sp, #0]
    164a:	4632      	mov	r2, r6
    164c:	463b      	mov	r3, r7
    164e:	4628      	mov	r0, r5
    1650:	f000 ec9a 	blx	1f88 <_utee_storage_obj_open>
/home/aom1/Work/Linux/target/STM32MP1-DK2/bootloader/optee-os-custom/lib/libutee/tee_api_objects.c:412
    1654:	4604      	mov	r4, r0
    1656:	b930      	cbnz	r0, 1666 <TEE_OpenPersistentObject+0x42>
/home/aom1/Work/Linux/target/STM32MP1-DK2/bootloader/optee-os-custom/lib/libutee/tee_api_objects.c:413
    1658:	9b03      	ldr	r3, [sp, #12]
    165a:	f8c8 3000 	str.w	r3, [r8]
/home/aom1/Work/Linux/target/STM32MP1-DK2/bootloader/optee-os-custom/lib/libutee/tee_api_objects.c:428
    165e:	4620      	mov	r0, r4
    1660:	b004      	add	sp, #16
    1662:	e8bd 81f0 	ldmia.w	sp!, {r4, r5, r6, r7, r8, pc}
/home/aom1/Work/Linux/target/STM32MP1-DK2/bootloader/optee-os-custom/lib/libutee/tee_api_objects.c:416
    1666:	4b09      	ldr	r3, [pc, #36]	; (168c <TEE_OpenPersistentObject+0x68>)
    1668:	4298      	cmp	r0, r3
    166a:	d0e4      	beq.n	1636 <TEE_OpenPersistentObject+0x12>
/home/aom1/Work/Linux/target/STM32MP1-DK2/bootloader/optee-os-custom/lib/libutee/tee_api_objects.c:417
    166c:	4b08      	ldr	r3, [pc, #32]	; (1690 <TEE_OpenPersistentObject+0x6c>)
    166e:	429c      	cmp	r4, r3
    1670:	d0e2      	beq.n	1638 <TEE_OpenPersistentObject+0x14>
/home/aom1/Work/Linux/target/STM32MP1-DK2/bootloader/optee-os-custom/lib/libutee/tee_api_objects.c:418
    1672:	3309      	adds	r3, #9
    1674:	429c      	cmp	r4, r3
    1676:	d0df      	beq.n	1638 <TEE_OpenPersistentObject+0x14>
/home/aom1/Work/Linux/target/STM32MP1-DK2/bootloader/optee-os-custom/lib/libutee/tee_api_objects.c:419
    1678:	4b06      	ldr	r3, [pc, #24]	; (1694 <TEE_OpenPersistentObject+0x70>)
    167a:	429c      	cmp	r4, r3
    167c:	d0dc      	beq.n	1638 <TEE_OpenPersistentObject+0x14>
/home/aom1/Work/Linux/target/STM32MP1-DK2/bootloader/optee-os-custom/lib/libutee/tee_api_objects.c:420
    167e:	3302      	adds	r3, #2
    1680:	429c      	cmp	r4, r3
    1682:	d0d9      	beq.n	1638 <TEE_OpenPersistentObject+0x14>
/home/aom1/Work/Linux/target/STM32MP1-DK2/bootloader/optee-os-custom/lib/libutee/tee_api_objects.c:422
    1684:	f000 f9b8 	bl	19f8 <TEE_Panic>
    1688:	e7d6      	b.n	1638 <TEE_OpenPersistentObject+0x14>
    168a:	bf00      	nop
    168c:	ffff0008 	.word	0xffff0008
    1690:	ffff0003 	.word	0xffff0003
    1694:	f0100001 	.word	0xf0100001

00001698 <TEE_CreatePersistentObject>:
TEE_CreatePersistentObject():
/home/aom1/Work/Linux/target/STM32MP1-DK2/bootloader/optee-os-custom/lib/libutee/tee_api_objects.c:436
    1698:	e92d 41f0 	stmdb	sp!, {r4, r5, r6, r7, r8, lr}
    169c:	b086      	sub	sp, #24
    169e:	4605      	mov	r5, r0
    16a0:	4616      	mov	r6, r2
    16a2:	f8dd 803c 	ldr.w	r8, [sp, #60]	; 0x3c
    16a6:	461f      	mov	r7, r3
/home/aom1/Work/Linux/target/STM32MP1-DK2/bootloader/optee-os-custom/lib/libutee/tee_api_objects.c:440
    16a8:	460c      	mov	r4, r1
    16aa:	b911      	cbnz	r1, 16b2 <TEE_CreatePersistentObject+0x1a>
/home/aom1/Work/Linux/target/STM32MP1-DK2/bootloader/optee-os-custom/lib/libutee/tee_api_objects.c:436
    16ac:	4c19      	ldr	r4, [pc, #100]	; (1714 <TEE_CreatePersistentObject+0x7c>)
    16ae:	2300      	movs	r3, #0
    16b0:	e014      	b.n	16dc <TEE_CreatePersistentObject+0x44>
/home/aom1/Work/Linux/target/STM32MP1-DK2/bootloader/optee-os-custom/lib/libutee/tee_api_objects.c:445
    16b2:	2104      	movs	r1, #4
    16b4:	4640      	mov	r0, r8
    16b6:	f000 f9df 	bl	1a78 <__utee_check_out_annotation>
/home/aom1/Work/Linux/target/STM32MP1-DK2/bootloader/optee-os-custom/lib/libutee/tee_api_objects.c:447
    16ba:	ab05      	add	r3, sp, #20
    16bc:	4621      	mov	r1, r4
    16be:	9303      	str	r3, [sp, #12]
    16c0:	4632      	mov	r2, r6
    16c2:	9b0e      	ldr	r3, [sp, #56]	; 0x38
    16c4:	4628      	mov	r0, r5
    16c6:	9302      	str	r3, [sp, #8]
    16c8:	9b0d      	ldr	r3, [sp, #52]	; 0x34
    16ca:	9301      	str	r3, [sp, #4]
    16cc:	9b0c      	ldr	r3, [sp, #48]	; 0x30
    16ce:	9300      	str	r3, [sp, #0]
    16d0:	463b      	mov	r3, r7
    16d2:	f000 ec66 	blx	1fa0 <_utee_storage_obj_create>
/home/aom1/Work/Linux/target/STM32MP1-DK2/bootloader/optee-os-custom/lib/libutee/tee_api_objects.c:451
    16d6:	4604      	mov	r4, r0
    16d8:	b930      	cbnz	r0, 16e8 <TEE_CreatePersistentObject+0x50>
/home/aom1/Work/Linux/target/STM32MP1-DK2/bootloader/optee-os-custom/lib/libutee/tee_api_objects.c:452
    16da:	9b05      	ldr	r3, [sp, #20]
    16dc:	f8c8 3000 	str.w	r3, [r8]
/home/aom1/Work/Linux/target/STM32MP1-DK2/bootloader/optee-os-custom/lib/libutee/tee_api_objects.c:468
    16e0:	4620      	mov	r0, r4
    16e2:	b006      	add	sp, #24
    16e4:	e8bd 81f0 	ldmia.w	sp!, {r4, r5, r6, r7, r8, pc}
/home/aom1/Work/Linux/target/STM32MP1-DK2/bootloader/optee-os-custom/lib/libutee/tee_api_objects.c:455
    16e8:	4b0a      	ldr	r3, [pc, #40]	; (1714 <TEE_CreatePersistentObject+0x7c>)
    16ea:	4298      	cmp	r0, r3
    16ec:	d0de      	beq.n	16ac <TEE_CreatePersistentObject+0x14>
/home/aom1/Work/Linux/target/STM32MP1-DK2/bootloader/optee-os-custom/lib/libutee/tee_api_objects.c:456
    16ee:	4b0a      	ldr	r3, [pc, #40]	; (1718 <TEE_CreatePersistentObject+0x80>)
    16f0:	429c      	cmp	r4, r3
    16f2:	d0dc      	beq.n	16ae <TEE_CreatePersistentObject+0x16>
/home/aom1/Work/Linux/target/STM32MP1-DK2/bootloader/optee-os-custom/lib/libutee/tee_api_objects.c:457
    16f4:	3309      	adds	r3, #9
    16f6:	429c      	cmp	r4, r3
    16f8:	d0d9      	beq.n	16ae <TEE_CreatePersistentObject+0x16>
/home/aom1/Work/Linux/target/STM32MP1-DK2/bootloader/optee-os-custom/lib/libutee/tee_api_objects.c:458
    16fa:	4b08      	ldr	r3, [pc, #32]	; (171c <TEE_CreatePersistentObject+0x84>)
    16fc:	429c      	cmp	r4, r3
    16fe:	d0d6      	beq.n	16ae <TEE_CreatePersistentObject+0x16>
/home/aom1/Work/Linux/target/STM32MP1-DK2/bootloader/optee-os-custom/lib/libutee/tee_api_objects.c:459
    1700:	4b07      	ldr	r3, [pc, #28]	; (1720 <TEE_CreatePersistentObject+0x88>)
    1702:	429c      	cmp	r4, r3
    1704:	d0d3      	beq.n	16ae <TEE_CreatePersistentObject+0x16>
/home/aom1/Work/Linux/target/STM32MP1-DK2/bootloader/optee-os-custom/lib/libutee/tee_api_objects.c:460
    1706:	3302      	adds	r3, #2
    1708:	429c      	cmp	r4, r3
    170a:	d0d0      	beq.n	16ae <TEE_CreatePersistentObject+0x16>
/home/aom1/Work/Linux/target/STM32MP1-DK2/bootloader/optee-os-custom/lib/libutee/tee_api_objects.c:462
    170c:	f000 f974 	bl	19f8 <TEE_Panic>
    1710:	e7cd      	b.n	16ae <TEE_CreatePersistentObject+0x16>
    1712:	bf00      	nop
    1714:	ffff0008 	.word	0xffff0008
    1718:	ffff0003 	.word	0xffff0003
    171c:	ffff3041 	.word	0xffff3041
    1720:	f0100001 	.word	0xf0100001

00001724 <TEE_CloseAndDeletePersistentObject1>:
TEE_CloseAndDeletePersistentObject1():
/home/aom1/Work/Linux/target/STM32MP1-DK2/bootloader/optee-os-custom/lib/libutee/tee_api_objects.c:490
    1724:	b510      	push	{r4, lr}
/home/aom1/Work/Linux/target/STM32MP1-DK2/bootloader/optee-os-custom/lib/libutee/tee_api_objects.c:493
    1726:	b910      	cbnz	r0, 172e <TEE_CloseAndDeletePersistentObject1+0xa>
/home/aom1/Work/Linux/target/STM32MP1-DK2/bootloader/optee-os-custom/lib/libutee/tee_api_objects.c:494
    1728:	2400      	movs	r4, #0
/home/aom1/Work/Linux/target/STM32MP1-DK2/bootloader/optee-os-custom/lib/libutee/tee_api_objects.c:502
    172a:	4620      	mov	r0, r4
    172c:	bd10      	pop	{r4, pc}
/home/aom1/Work/Linux/target/STM32MP1-DK2/bootloader/optee-os-custom/lib/libutee/tee_api_objects.c:496
    172e:	f000 ec44 	blx	1fb8 <_utee_storage_obj_del>
/home/aom1/Work/Linux/target/STM32MP1-DK2/bootloader/optee-os-custom/lib/libutee/tee_api_objects.c:498
    1732:	4604      	mov	r4, r0
    1734:	2800      	cmp	r0, #0
    1736:	d0f7      	beq.n	1728 <TEE_CloseAndDeletePersistentObject1+0x4>
    1738:	4b02      	ldr	r3, [pc, #8]	; (1744 <TEE_CloseAndDeletePersistentObject1+0x20>)
    173a:	4298      	cmp	r0, r3
    173c:	d0f5      	beq.n	172a <TEE_CloseAndDeletePersistentObject1+0x6>
/home/aom1/Work/Linux/target/STM32MP1-DK2/bootloader/optee-os-custom/lib/libutee/tee_api_objects.c:499
    173e:	f000 f95b 	bl	19f8 <TEE_Panic>
    1742:	e7f2      	b.n	172a <TEE_CloseAndDeletePersistentObject1+0x6>
    1744:	f0100003 	.word	0xf0100003

00001748 <TEE_CloseAndDeletePersistentObject>:
TEE_CloseAndDeletePersistentObject():
/home/aom1/Work/Linux/target/STM32MP1-DK2/bootloader/optee-os-custom/lib/libutee/tee_api_objects.c:477
    1748:	b508      	push	{r3, lr}
/home/aom1/Work/Linux/target/STM32MP1-DK2/bootloader/optee-os-custom/lib/libutee/tee_api_objects.c:480
    174a:	b138      	cbz	r0, 175c <TEE_CloseAndDeletePersistentObject+0x14>
/home/aom1/Work/Linux/target/STM32MP1-DK2/bootloader/optee-os-custom/lib/libutee/tee_api_objects.c:483
    174c:	f7ff ffea 	bl	1724 <TEE_CloseAndDeletePersistentObject1>
/home/aom1/Work/Linux/target/STM32MP1-DK2/bootloader/optee-os-custom/lib/libutee/tee_api_objects.c:485
    1750:	b120      	cbz	r0, 175c <TEE_CloseAndDeletePersistentObject+0x14>
/home/aom1/Work/Linux/target/STM32MP1-DK2/bootloader/optee-os-custom/lib/libutee/tee_api_objects.c:487
    1752:	e8bd 4008 	ldmia.w	sp!, {r3, lr}
/home/aom1/Work/Linux/target/STM32MP1-DK2/bootloader/optee-os-custom/lib/libutee/tee_api_objects.c:486
    1756:	2000      	movs	r0, #0
    1758:	f000 b94e 	b.w	19f8 <TEE_Panic>
/home/aom1/Work/Linux/target/STM32MP1-DK2/bootloader/optee-os-custom/lib/libutee/tee_api_objects.c:487
    175c:	bd08      	pop	{r3, pc}

0000175e <TEE_RenamePersistentObject>:
TEE_RenamePersistentObject():
/home/aom1/Work/Linux/target/STM32MP1-DK2/bootloader/optee-os-custom/lib/libutee/tee_api_objects.c:508
    175e:	b510      	push	{r4, lr}
/home/aom1/Work/Linux/target/STM32MP1-DK2/bootloader/optee-os-custom/lib/libutee/tee_api_objects.c:511
    1760:	b188      	cbz	r0, 1786 <TEE_RenamePersistentObject+0x28>
/home/aom1/Work/Linux/target/STM32MP1-DK2/bootloader/optee-os-custom/lib/libutee/tee_api_objects.c:516
    1762:	f000 ec34 	blx	1fcc <_utee_storage_obj_rename>
/home/aom1/Work/Linux/target/STM32MP1-DK2/bootloader/optee-os-custom/lib/libutee/tee_api_objects.c:520
    1766:	4604      	mov	r4, r0
    1768:	b158      	cbz	r0, 1782 <TEE_RenamePersistentObject+0x24>
/home/aom1/Work/Linux/target/STM32MP1-DK2/bootloader/optee-os-custom/lib/libutee/tee_api_objects.c:520 (discriminator 1)
    176a:	4b08      	ldr	r3, [pc, #32]	; (178c <TEE_RenamePersistentObject+0x2e>)
    176c:	4298      	cmp	r0, r3
    176e:	d008      	beq.n	1782 <TEE_RenamePersistentObject+0x24>
/home/aom1/Work/Linux/target/STM32MP1-DK2/bootloader/optee-os-custom/lib/libutee/tee_api_objects.c:521
    1770:	4b07      	ldr	r3, [pc, #28]	; (1790 <TEE_RenamePersistentObject+0x32>)
    1772:	4298      	cmp	r0, r3
    1774:	d005      	beq.n	1782 <TEE_RenamePersistentObject+0x24>
/home/aom1/Work/Linux/target/STM32MP1-DK2/bootloader/optee-os-custom/lib/libutee/tee_api_objects.c:522
    1776:	3302      	adds	r3, #2
    1778:	4298      	cmp	r0, r3
    177a:	d002      	beq.n	1782 <TEE_RenamePersistentObject+0x24>
/home/aom1/Work/Linux/target/STM32MP1-DK2/bootloader/optee-os-custom/lib/libutee/tee_api_objects.c:524
    177c:	4620      	mov	r0, r4
    177e:	f000 f93b 	bl	19f8 <TEE_Panic>
/home/aom1/Work/Linux/target/STM32MP1-DK2/bootloader/optee-os-custom/lib/libutee/tee_api_objects.c:527
    1782:	4620      	mov	r0, r4
    1784:	bd10      	pop	{r4, pc}
/home/aom1/Work/Linux/target/STM32MP1-DK2/bootloader/optee-os-custom/lib/libutee/tee_api_objects.c:512
    1786:	4c03      	ldr	r4, [pc, #12]	; (1794 <TEE_RenamePersistentObject+0x36>)
    1788:	e7f8      	b.n	177c <TEE_RenamePersistentObject+0x1e>
    178a:	bf00      	nop
    178c:	ffff0003 	.word	0xffff0003
    1790:	f0100001 	.word	0xf0100001
    1794:	ffff0008 	.word	0xffff0008

00001798 <TEE_AllocatePersistentObjectEnumerator>:
TEE_AllocatePersistentObjectEnumerator():
/home/aom1/Work/Linux/target/STM32MP1-DK2/bootloader/optee-os-custom/lib/libutee/tee_api_objects.c:531
    1798:	b537      	push	{r0, r1, r2, r4, r5, lr}
/home/aom1/Work/Linux/target/STM32MP1-DK2/bootloader/optee-os-custom/lib/libutee/tee_api_objects.c:535
    179a:	2104      	movs	r1, #4
/home/aom1/Work/Linux/target/STM32MP1-DK2/bootloader/optee-os-custom/lib/libutee/tee_api_objects.c:531
    179c:	4605      	mov	r5, r0
/home/aom1/Work/Linux/target/STM32MP1-DK2/bootloader/optee-os-custom/lib/libutee/tee_api_objects.c:535
    179e:	f000 f96b 	bl	1a78 <__utee_check_out_annotation>
/home/aom1/Work/Linux/target/STM32MP1-DK2/bootloader/optee-os-custom/lib/libutee/tee_api_objects.c:538
    17a2:	a801      	add	r0, sp, #4
    17a4:	f000 ec1c 	blx	1fe0 <_utee_storage_alloc_enum>
/home/aom1/Work/Linux/target/STM32MP1-DK2/bootloader/optee-os-custom/lib/libutee/tee_api_objects.c:540
    17a8:	4604      	mov	r4, r0
    17aa:	b108      	cbz	r0, 17b0 <TEE_AllocatePersistentObjectEnumerator+0x18>
/home/aom1/Work/Linux/target/STM32MP1-DK2/bootloader/optee-os-custom/lib/libutee/tee_api_objects.c:541
    17ac:	2300      	movs	r3, #0
    17ae:	9301      	str	r3, [sp, #4]
/home/aom1/Work/Linux/target/STM32MP1-DK2/bootloader/optee-os-custom/lib/libutee/tee_api_objects.c:543
    17b0:	9b01      	ldr	r3, [sp, #4]
    17b2:	602b      	str	r3, [r5, #0]
/home/aom1/Work/Linux/target/STM32MP1-DK2/bootloader/optee-os-custom/lib/libutee/tee_api_objects.c:545
    17b4:	b12c      	cbz	r4, 17c2 <TEE_AllocatePersistentObjectEnumerator+0x2a>
/home/aom1/Work/Linux/target/STM32MP1-DK2/bootloader/optee-os-custom/lib/libutee/tee_api_objects.c:545 (discriminator 1)
    17b6:	4b04      	ldr	r3, [pc, #16]	; (17c8 <TEE_AllocatePersistentObjectEnumerator+0x30>)
    17b8:	429c      	cmp	r4, r3
    17ba:	d002      	beq.n	17c2 <TEE_AllocatePersistentObjectEnumerator+0x2a>
/home/aom1/Work/Linux/target/STM32MP1-DK2/bootloader/optee-os-custom/lib/libutee/tee_api_objects.c:547
    17bc:	4620      	mov	r0, r4
    17be:	f000 f91b 	bl	19f8 <TEE_Panic>
/home/aom1/Work/Linux/target/STM32MP1-DK2/bootloader/optee-os-custom/lib/libutee/tee_api_objects.c:550
    17c2:	4620      	mov	r0, r4
    17c4:	b003      	add	sp, #12
    17c6:	bd30      	pop	{r4, r5, pc}
    17c8:	ffff0003 	.word	0xffff0003

000017cc <TEE_FreePersistentObjectEnumerator>:
TEE_FreePersistentObjectEnumerator():
/home/aom1/Work/Linux/target/STM32MP1-DK2/bootloader/optee-os-custom/lib/libutee/tee_api_objects.c:553
    17cc:	b508      	push	{r3, lr}
/home/aom1/Work/Linux/target/STM32MP1-DK2/bootloader/optee-os-custom/lib/libutee/tee_api_objects.c:556
    17ce:	b130      	cbz	r0, 17de <TEE_FreePersistentObjectEnumerator+0x12>
/home/aom1/Work/Linux/target/STM32MP1-DK2/bootloader/optee-os-custom/lib/libutee/tee_api_objects.c:559
    17d0:	f000 ec10 	blx	1ff4 <_utee_storage_free_enum>
/home/aom1/Work/Linux/target/STM32MP1-DK2/bootloader/optee-os-custom/lib/libutee/tee_api_objects.c:561
    17d4:	b118      	cbz	r0, 17de <TEE_FreePersistentObjectEnumerator+0x12>
/home/aom1/Work/Linux/target/STM32MP1-DK2/bootloader/optee-os-custom/lib/libutee/tee_api_objects.c:563
    17d6:	e8bd 4008 	ldmia.w	sp!, {r3, lr}
/home/aom1/Work/Linux/target/STM32MP1-DK2/bootloader/optee-os-custom/lib/libutee/tee_api_objects.c:562
    17da:	f000 b90d 	b.w	19f8 <TEE_Panic>
/home/aom1/Work/Linux/target/STM32MP1-DK2/bootloader/optee-os-custom/lib/libutee/tee_api_objects.c:563
    17de:	bd08      	pop	{r3, pc}

000017e0 <TEE_ResetPersistentObjectEnumerator>:
TEE_ResetPersistentObjectEnumerator():
/home/aom1/Work/Linux/target/STM32MP1-DK2/bootloader/optee-os-custom/lib/libutee/tee_api_objects.c:566
    17e0:	b508      	push	{r3, lr}
/home/aom1/Work/Linux/target/STM32MP1-DK2/bootloader/optee-os-custom/lib/libutee/tee_api_objects.c:569
    17e2:	b130      	cbz	r0, 17f2 <TEE_ResetPersistentObjectEnumerator+0x12>
/home/aom1/Work/Linux/target/STM32MP1-DK2/bootloader/optee-os-custom/lib/libutee/tee_api_objects.c:572
    17e4:	f000 ec10 	blx	2008 <_utee_storage_reset_enum>
/home/aom1/Work/Linux/target/STM32MP1-DK2/bootloader/optee-os-custom/lib/libutee/tee_api_objects.c:574
    17e8:	b118      	cbz	r0, 17f2 <TEE_ResetPersistentObjectEnumerator+0x12>
/home/aom1/Work/Linux/target/STM32MP1-DK2/bootloader/optee-os-custom/lib/libutee/tee_api_objects.c:576
    17ea:	e8bd 4008 	ldmia.w	sp!, {r3, lr}
/home/aom1/Work/Linux/target/STM32MP1-DK2/bootloader/optee-os-custom/lib/libutee/tee_api_objects.c:575
    17ee:	f000 b903 	b.w	19f8 <TEE_Panic>
/home/aom1/Work/Linux/target/STM32MP1-DK2/bootloader/optee-os-custom/lib/libutee/tee_api_objects.c:576
    17f2:	bd08      	pop	{r3, pc}

000017f4 <TEE_StartPersistentObjectEnumerator>:
TEE_StartPersistentObjectEnumerator():
/home/aom1/Work/Linux/target/STM32MP1-DK2/bootloader/optee-os-custom/lib/libutee/tee_api_objects.c:581
    17f4:	b510      	push	{r4, lr}
/home/aom1/Work/Linux/target/STM32MP1-DK2/bootloader/optee-os-custom/lib/libutee/tee_api_objects.c:584
    17f6:	f000 ec12 	blx	201c <_utee_storage_start_enum>
/home/aom1/Work/Linux/target/STM32MP1-DK2/bootloader/optee-os-custom/lib/libutee/tee_api_objects.c:587
    17fa:	4604      	mov	r4, r0
    17fc:	b148      	cbz	r0, 1812 <TEE_StartPersistentObjectEnumerator+0x1e>
/home/aom1/Work/Linux/target/STM32MP1-DK2/bootloader/optee-os-custom/lib/libutee/tee_api_objects.c:587 (discriminator 1)
    17fe:	4b06      	ldr	r3, [pc, #24]	; (1818 <TEE_StartPersistentObjectEnumerator+0x24>)
    1800:	4298      	cmp	r0, r3
    1802:	d006      	beq.n	1812 <TEE_StartPersistentObjectEnumerator+0x1e>
/home/aom1/Work/Linux/target/STM32MP1-DK2/bootloader/optee-os-custom/lib/libutee/tee_api_objects.c:588
    1804:	4b05      	ldr	r3, [pc, #20]	; (181c <TEE_StartPersistentObjectEnumerator+0x28>)
    1806:	f020 0202 	bic.w	r2, r0, #2
    180a:	429a      	cmp	r2, r3
    180c:	d001      	beq.n	1812 <TEE_StartPersistentObjectEnumerator+0x1e>
/home/aom1/Work/Linux/target/STM32MP1-DK2/bootloader/optee-os-custom/lib/libutee/tee_api_objects.c:591
    180e:	f000 f8f3 	bl	19f8 <TEE_Panic>
/home/aom1/Work/Linux/target/STM32MP1-DK2/bootloader/optee-os-custom/lib/libutee/tee_api_objects.c:594
    1812:	4620      	mov	r0, r4
    1814:	bd10      	pop	{r4, pc}
    1816:	bf00      	nop
    1818:	ffff0008 	.word	0xffff0008
    181c:	f0100001 	.word	0xf0100001

00001820 <TEE_GetNextPersistentObject>:
TEE_GetNextPersistentObject():
/home/aom1/Work/Linux/target/STM32MP1-DK2/bootloader/optee-os-custom/lib/libutee/tee_api_objects.c:599
    1820:	b5f0      	push	{r4, r5, r6, r7, lr}
    1822:	4607      	mov	r7, r0
    1824:	b08b      	sub	sp, #44	; 0x2c
    1826:	4616      	mov	r6, r2
    1828:	461d      	mov	r5, r3
/home/aom1/Work/Linux/target/STM32MP1-DK2/bootloader/optee-os-custom/lib/libutee/tee_api_objects.c:605
    182a:	460c      	mov	r4, r1
    182c:	b119      	cbz	r1, 1836 <TEE_GetNextPersistentObject+0x16>
/home/aom1/Work/Linux/target/STM32MP1-DK2/bootloader/optee-os-custom/lib/libutee/tee_api_objects.c:606
    182e:	211c      	movs	r1, #28
    1830:	4620      	mov	r0, r4
    1832:	f000 f921 	bl	1a78 <__utee_check_out_annotation>
/home/aom1/Work/Linux/target/STM32MP1-DK2/bootloader/optee-os-custom/lib/libutee/tee_api_objects.c:607
    1836:	2104      	movs	r1, #4
    1838:	4628      	mov	r0, r5
    183a:	f000 f91d 	bl	1a78 <__utee_check_out_annotation>
/home/aom1/Work/Linux/target/STM32MP1-DK2/bootloader/optee-os-custom/lib/libutee/tee_api_objects.c:609
    183e:	b1f6      	cbz	r6, 187e <TEE_GetNextPersistentObject+0x5e>
/home/aom1/Work/Linux/target/STM32MP1-DK2/bootloader/optee-os-custom/lib/libutee/tee_api_objects.c:614
    1840:	b904      	cbnz	r4, 1844 <TEE_GetNextPersistentObject+0x24>
/home/aom1/Work/Linux/target/STM32MP1-DK2/bootloader/optee-os-custom/lib/libutee/tee_api_objects.c:617
    1842:	ac03      	add	r4, sp, #12
/home/aom1/Work/Linux/target/STM32MP1-DK2/bootloader/optee-os-custom/lib/libutee/tee_api_objects.c:618
    1844:	682b      	ldr	r3, [r5, #0]
/home/aom1/Work/Linux/target/STM32MP1-DK2/bootloader/optee-os-custom/lib/libutee/tee_api_objects.c:619
    1846:	4621      	mov	r1, r4
    1848:	4632      	mov	r2, r6
    184a:	4638      	mov	r0, r7
/home/aom1/Work/Linux/target/STM32MP1-DK2/bootloader/optee-os-custom/lib/libutee/tee_api_objects.c:618
    184c:	9300      	str	r3, [sp, #0]
    184e:	2300      	movs	r3, #0
    1850:	9301      	str	r3, [sp, #4]
/home/aom1/Work/Linux/target/STM32MP1-DK2/bootloader/optee-os-custom/lib/libutee/tee_api_objects.c:619
    1852:	466b      	mov	r3, sp
    1854:	f000 ebec 	blx	2030 <_utee_storage_next_enum>
/home/aom1/Work/Linux/target/STM32MP1-DK2/bootloader/optee-os-custom/lib/libutee/tee_api_objects.c:621
    1858:	9b00      	ldr	r3, [sp, #0]
/home/aom1/Work/Linux/target/STM32MP1-DK2/bootloader/optee-os-custom/lib/libutee/tee_api_objects.c:624
    185a:	4604      	mov	r4, r0
/home/aom1/Work/Linux/target/STM32MP1-DK2/bootloader/optee-os-custom/lib/libutee/tee_api_objects.c:621
    185c:	602b      	str	r3, [r5, #0]
/home/aom1/Work/Linux/target/STM32MP1-DK2/bootloader/optee-os-custom/lib/libutee/tee_api_objects.c:624
    185e:	b158      	cbz	r0, 1878 <TEE_GetNextPersistentObject+0x58>
/home/aom1/Work/Linux/target/STM32MP1-DK2/bootloader/optee-os-custom/lib/libutee/tee_api_objects.c:624 (discriminator 1)
    1860:	4b08      	ldr	r3, [pc, #32]	; (1884 <TEE_GetNextPersistentObject+0x64>)
    1862:	4298      	cmp	r0, r3
    1864:	d008      	beq.n	1878 <TEE_GetNextPersistentObject+0x58>
/home/aom1/Work/Linux/target/STM32MP1-DK2/bootloader/optee-os-custom/lib/libutee/tee_api_objects.c:625
    1866:	4b08      	ldr	r3, [pc, #32]	; (1888 <TEE_GetNextPersistentObject+0x68>)
    1868:	4298      	cmp	r0, r3
    186a:	d005      	beq.n	1878 <TEE_GetNextPersistentObject+0x58>
/home/aom1/Work/Linux/target/STM32MP1-DK2/bootloader/optee-os-custom/lib/libutee/tee_api_objects.c:626
    186c:	3302      	adds	r3, #2
    186e:	4298      	cmp	r0, r3
    1870:	d002      	beq.n	1878 <TEE_GetNextPersistentObject+0x58>
/home/aom1/Work/Linux/target/STM32MP1-DK2/bootloader/optee-os-custom/lib/libutee/tee_api_objects.c:628
    1872:	4620      	mov	r0, r4
    1874:	f000 f8c0 	bl	19f8 <TEE_Panic>
/home/aom1/Work/Linux/target/STM32MP1-DK2/bootloader/optee-os-custom/lib/libutee/tee_api_objects.c:631
    1878:	4620      	mov	r0, r4
    187a:	b00b      	add	sp, #44	; 0x2c
    187c:	bdf0      	pop	{r4, r5, r6, r7, pc}
/home/aom1/Work/Linux/target/STM32MP1-DK2/bootloader/optee-os-custom/lib/libutee/tee_api_objects.c:610
    187e:	4c03      	ldr	r4, [pc, #12]	; (188c <TEE_GetNextPersistentObject+0x6c>)
    1880:	e7f7      	b.n	1872 <TEE_GetNextPersistentObject+0x52>
    1882:	bf00      	nop
    1884:	ffff0008 	.word	0xffff0008
    1888:	f0100001 	.word	0xf0100001
    188c:	ffff0006 	.word	0xffff0006

00001890 <TEE_ReadObjectData>:
TEE_ReadObjectData():
/home/aom1/Work/Linux/target/STM32MP1-DK2/bootloader/optee-os-custom/lib/libutee/tee_api_objects.c:637
    1890:	b5f7      	push	{r0, r1, r2, r4, r5, r6, r7, lr}
    1892:	460e      	mov	r6, r1
    1894:	4617      	mov	r7, r2
    1896:	461c      	mov	r4, r3
/home/aom1/Work/Linux/target/STM32MP1-DK2/bootloader/optee-os-custom/lib/libutee/tee_api_objects.c:641
    1898:	4605      	mov	r5, r0
    189a:	b1e8      	cbz	r0, 18d8 <TEE_ReadObjectData+0x48>
/home/aom1/Work/Linux/target/STM32MP1-DK2/bootloader/optee-os-custom/lib/libutee/tee_api_objects.c:645
    189c:	4618      	mov	r0, r3
    189e:	2104      	movs	r1, #4
    18a0:	f000 f8ea 	bl	1a78 <__utee_check_out_annotation>
/home/aom1/Work/Linux/target/STM32MP1-DK2/bootloader/optee-os-custom/lib/libutee/tee_api_objects.c:647
    18a4:	6823      	ldr	r3, [r4, #0]
/home/aom1/Work/Linux/target/STM32MP1-DK2/bootloader/optee-os-custom/lib/libutee/tee_api_objects.c:648
    18a6:	463a      	mov	r2, r7
    18a8:	4631      	mov	r1, r6
    18aa:	4628      	mov	r0, r5
/home/aom1/Work/Linux/target/STM32MP1-DK2/bootloader/optee-os-custom/lib/libutee/tee_api_objects.c:647
    18ac:	9300      	str	r3, [sp, #0]
    18ae:	2300      	movs	r3, #0
    18b0:	9301      	str	r3, [sp, #4]
/home/aom1/Work/Linux/target/STM32MP1-DK2/bootloader/optee-os-custom/lib/libutee/tee_api_objects.c:648
    18b2:	466b      	mov	r3, sp
    18b4:	f000 ebc6 	blx	2044 <_utee_storage_obj_read>
/home/aom1/Work/Linux/target/STM32MP1-DK2/bootloader/optee-os-custom/lib/libutee/tee_api_objects.c:650
    18b8:	9b00      	ldr	r3, [sp, #0]
    18ba:	6023      	str	r3, [r4, #0]
/home/aom1/Work/Linux/target/STM32MP1-DK2/bootloader/optee-os-custom/lib/libutee/tee_api_objects.c:653
    18bc:	4604      	mov	r4, r0
    18be:	b140      	cbz	r0, 18d2 <TEE_ReadObjectData+0x42>
/home/aom1/Work/Linux/target/STM32MP1-DK2/bootloader/optee-os-custom/lib/libutee/tee_api_objects.c:653 (discriminator 1)
    18c0:	4b06      	ldr	r3, [pc, #24]	; (18dc <TEE_ReadObjectData+0x4c>)
    18c2:	4298      	cmp	r0, r3
    18c4:	d005      	beq.n	18d2 <TEE_ReadObjectData+0x42>
/home/aom1/Work/Linux/target/STM32MP1-DK2/bootloader/optee-os-custom/lib/libutee/tee_api_objects.c:654
    18c6:	3302      	adds	r3, #2
    18c8:	4298      	cmp	r0, r3
    18ca:	d002      	beq.n	18d2 <TEE_ReadObjectData+0x42>
/home/aom1/Work/Linux/target/STM32MP1-DK2/bootloader/optee-os-custom/lib/libutee/tee_api_objects.c:656
    18cc:	4620      	mov	r0, r4
    18ce:	f000 f893 	bl	19f8 <TEE_Panic>
/home/aom1/Work/Linux/target/STM32MP1-DK2/bootloader/optee-os-custom/lib/libutee/tee_api_objects.c:659
    18d2:	4620      	mov	r0, r4
    18d4:	b003      	add	sp, #12
    18d6:	bdf0      	pop	{r4, r5, r6, r7, pc}
/home/aom1/Work/Linux/target/STM32MP1-DK2/bootloader/optee-os-custom/lib/libutee/tee_api_objects.c:642
    18d8:	4c01      	ldr	r4, [pc, #4]	; (18e0 <TEE_ReadObjectData+0x50>)
    18da:	e7f7      	b.n	18cc <TEE_ReadObjectData+0x3c>
    18dc:	f0100001 	.word	0xf0100001
    18e0:	ffff0006 	.word	0xffff0006

000018e4 <TEE_WriteObjectData>:
TEE_WriteObjectData():
/home/aom1/Work/Linux/target/STM32MP1-DK2/bootloader/optee-os-custom/lib/libutee/tee_api_objects.c:663
    18e4:	b510      	push	{r4, lr}
/home/aom1/Work/Linux/target/STM32MP1-DK2/bootloader/optee-os-custom/lib/libutee/tee_api_objects.c:666
    18e6:	b1a0      	cbz	r0, 1912 <TEE_WriteObjectData+0x2e>
/home/aom1/Work/Linux/target/STM32MP1-DK2/bootloader/optee-os-custom/lib/libutee/tee_api_objects.c:676
    18e8:	f000 ebb6 	blx	2058 <_utee_storage_obj_write>
/home/aom1/Work/Linux/target/STM32MP1-DK2/bootloader/optee-os-custom/lib/libutee/tee_api_objects.c:679
    18ec:	4604      	mov	r4, r0
    18ee:	b170      	cbz	r0, 190e <TEE_WriteObjectData+0x2a>
/home/aom1/Work/Linux/target/STM32MP1-DK2/bootloader/optee-os-custom/lib/libutee/tee_api_objects.c:679 (discriminator 1)
    18f0:	4b09      	ldr	r3, [pc, #36]	; (1918 <TEE_WriteObjectData+0x34>)
    18f2:	4298      	cmp	r0, r3
    18f4:	d00b      	beq.n	190e <TEE_WriteObjectData+0x2a>
/home/aom1/Work/Linux/target/STM32MP1-DK2/bootloader/optee-os-custom/lib/libutee/tee_api_objects.c:680
    18f6:	3b32      	subs	r3, #50	; 0x32
    18f8:	4298      	cmp	r0, r3
    18fa:	d008      	beq.n	190e <TEE_WriteObjectData+0x2a>
/home/aom1/Work/Linux/target/STM32MP1-DK2/bootloader/optee-os-custom/lib/libutee/tee_api_objects.c:681
    18fc:	4b07      	ldr	r3, [pc, #28]	; (191c <TEE_WriteObjectData+0x38>)
    18fe:	4298      	cmp	r0, r3
    1900:	d005      	beq.n	190e <TEE_WriteObjectData+0x2a>
/home/aom1/Work/Linux/target/STM32MP1-DK2/bootloader/optee-os-custom/lib/libutee/tee_api_objects.c:682
    1902:	3302      	adds	r3, #2
    1904:	4298      	cmp	r0, r3
    1906:	d002      	beq.n	190e <TEE_WriteObjectData+0x2a>
/home/aom1/Work/Linux/target/STM32MP1-DK2/bootloader/optee-os-custom/lib/libutee/tee_api_objects.c:684
    1908:	4620      	mov	r0, r4
    190a:	f000 f875 	bl	19f8 <TEE_Panic>
/home/aom1/Work/Linux/target/STM32MP1-DK2/bootloader/optee-os-custom/lib/libutee/tee_api_objects.c:687
    190e:	4620      	mov	r0, r4
    1910:	bd10      	pop	{r4, pc}
/home/aom1/Work/Linux/target/STM32MP1-DK2/bootloader/optee-os-custom/lib/libutee/tee_api_objects.c:667
    1912:	4c03      	ldr	r4, [pc, #12]	; (1920 <TEE_WriteObjectData+0x3c>)
    1914:	e7f8      	b.n	1908 <TEE_WriteObjectData+0x24>
    1916:	bf00      	nop
    1918:	ffff3041 	.word	0xffff3041
    191c:	f0100001 	.word	0xf0100001
    1920:	ffff0006 	.word	0xffff0006

00001924 <TEE_TruncateObjectData>:
TEE_TruncateObjectData():
/home/aom1/Work/Linux/target/STM32MP1-DK2/bootloader/optee-os-custom/lib/libutee/tee_api_objects.c:690
    1924:	b510      	push	{r4, lr}
/home/aom1/Work/Linux/target/STM32MP1-DK2/bootloader/optee-os-custom/lib/libutee/tee_api_objects.c:693
    1926:	b188      	cbz	r0, 194c <TEE_TruncateObjectData+0x28>
/home/aom1/Work/Linux/target/STM32MP1-DK2/bootloader/optee-os-custom/lib/libutee/tee_api_objects.c:698
    1928:	f000 eba0 	blx	206c <_utee_storage_obj_trunc>
/home/aom1/Work/Linux/target/STM32MP1-DK2/bootloader/optee-os-custom/lib/libutee/tee_api_objects.c:701
    192c:	4604      	mov	r4, r0
    192e:	b158      	cbz	r0, 1948 <TEE_TruncateObjectData+0x24>
/home/aom1/Work/Linux/target/STM32MP1-DK2/bootloader/optee-os-custom/lib/libutee/tee_api_objects.c:701 (discriminator 1)
    1930:	4b07      	ldr	r3, [pc, #28]	; (1950 <TEE_TruncateObjectData+0x2c>)
    1932:	4298      	cmp	r0, r3
    1934:	d008      	beq.n	1948 <TEE_TruncateObjectData+0x24>
/home/aom1/Work/Linux/target/STM32MP1-DK2/bootloader/optee-os-custom/lib/libutee/tee_api_objects.c:702
    1936:	4b07      	ldr	r3, [pc, #28]	; (1954 <TEE_TruncateObjectData+0x30>)
    1938:	4298      	cmp	r0, r3
    193a:	d005      	beq.n	1948 <TEE_TruncateObjectData+0x24>
/home/aom1/Work/Linux/target/STM32MP1-DK2/bootloader/optee-os-custom/lib/libutee/tee_api_objects.c:703
    193c:	3302      	adds	r3, #2
    193e:	4298      	cmp	r0, r3
    1940:	d002      	beq.n	1948 <TEE_TruncateObjectData+0x24>
/home/aom1/Work/Linux/target/STM32MP1-DK2/bootloader/optee-os-custom/lib/libutee/tee_api_objects.c:705
    1942:	4620      	mov	r0, r4
    1944:	f000 f858 	bl	19f8 <TEE_Panic>
/home/aom1/Work/Linux/target/STM32MP1-DK2/bootloader/optee-os-custom/lib/libutee/tee_api_objects.c:708
    1948:	4620      	mov	r0, r4
    194a:	bd10      	pop	{r4, pc}
/home/aom1/Work/Linux/target/STM32MP1-DK2/bootloader/optee-os-custom/lib/libutee/tee_api_objects.c:694
    194c:	4c02      	ldr	r4, [pc, #8]	; (1958 <TEE_TruncateObjectData+0x34>)
    194e:	e7f8      	b.n	1942 <TEE_TruncateObjectData+0x1e>
    1950:	ffff3041 	.word	0xffff3041
    1954:	f0100001 	.word	0xf0100001
    1958:	ffff0006 	.word	0xffff0006

0000195c <TEE_SeekObjectData>:
TEE_SeekObjectData():
/home/aom1/Work/Linux/target/STM32MP1-DK2/bootloader/optee-os-custom/lib/libutee/tee_api_objects.c:712
    195c:	b5f0      	push	{r4, r5, r6, r7, lr}
    195e:	460d      	mov	r5, r1
    1960:	b089      	sub	sp, #36	; 0x24
    1962:	4616      	mov	r6, r2
/home/aom1/Work/Linux/target/STM32MP1-DK2/bootloader/optee-os-custom/lib/libutee/tee_api_objects.c:716
    1964:	4607      	mov	r7, r0
    1966:	b368      	cbz	r0, 19c4 <TEE_SeekObjectData+0x68>
/home/aom1/Work/Linux/target/STM32MP1-DK2/bootloader/optee-os-custom/lib/libutee/tee_api_objects.c:721
    1968:	a901      	add	r1, sp, #4
    196a:	f000 ea58 	blx	1e1c <_utee_cryp_obj_get_info>
/home/aom1/Work/Linux/target/STM32MP1-DK2/bootloader/optee-os-custom/lib/libutee/tee_api_objects.c:722
    196e:	4604      	mov	r4, r0
    1970:	b9f0      	cbnz	r0, 19b0 <TEE_SeekObjectData+0x54>
/home/aom1/Work/Linux/target/STM32MP1-DK2/bootloader/optee-os-custom/lib/libutee/tee_api_objects.c:725
    1972:	2e01      	cmp	r6, #1
    1974:	d007      	beq.n	1986 <TEE_SeekObjectData+0x2a>
    1976:	2e02      	cmp	r6, #2
    1978:	d00e      	beq.n	1998 <TEE_SeekObjectData+0x3c>
    197a:	b18e      	cbz	r6, 19a0 <TEE_SeekObjectData+0x44>
    197c:	4c12      	ldr	r4, [pc, #72]	; (19c8 <TEE_SeekObjectData+0x6c>)
/home/aom1/Work/Linux/target/STM32MP1-DK2/bootloader/optee-os-custom/lib/libutee/tee_api_objects.c:762
    197e:	4620      	mov	r0, r4
    1980:	f000 f83a 	bl	19f8 <TEE_Panic>
/home/aom1/Work/Linux/target/STM32MP1-DK2/bootloader/optee-os-custom/lib/libutee/tee_api_objects.c:764
    1984:	e005      	b.n	1992 <TEE_SeekObjectData+0x36>
/home/aom1/Work/Linux/target/STM32MP1-DK2/bootloader/optee-os-custom/lib/libutee/tee_api_objects.c:733
    1986:	2d00      	cmp	r5, #0
    1988:	dd0a      	ble.n	19a0 <TEE_SeekObjectData+0x44>
/home/aom1/Work/Linux/target/STM32MP1-DK2/bootloader/optee-os-custom/lib/libutee/tee_api_objects.c:733 (discriminator 1)
    198a:	9b06      	ldr	r3, [sp, #24]
    198c:	42dd      	cmn	r5, r3
    198e:	d307      	bcc.n	19a0 <TEE_SeekObjectData+0x44>
/home/aom1/Work/Linux/target/STM32MP1-DK2/bootloader/optee-os-custom/lib/libutee/tee_api_objects.c:725
    1990:	4c0e      	ldr	r4, [pc, #56]	; (19cc <TEE_SeekObjectData+0x70>)
/home/aom1/Work/Linux/target/STM32MP1-DK2/bootloader/optee-os-custom/lib/libutee/tee_api_objects.c:765
    1992:	4620      	mov	r0, r4
    1994:	b009      	add	sp, #36	; 0x24
    1996:	bdf0      	pop	{r4, r5, r6, r7, pc}
/home/aom1/Work/Linux/target/STM32MP1-DK2/bootloader/optee-os-custom/lib/libutee/tee_api_objects.c:743
    1998:	2d00      	cmp	r5, #0
    199a:	dd01      	ble.n	19a0 <TEE_SeekObjectData+0x44>
/home/aom1/Work/Linux/target/STM32MP1-DK2/bootloader/optee-os-custom/lib/libutee/tee_api_objects.c:743 (discriminator 1)
    199c:	9b05      	ldr	r3, [sp, #20]
    199e:	e7f5      	b.n	198c <TEE_SeekObjectData+0x30>
/home/aom1/Work/Linux/target/STM32MP1-DK2/bootloader/optee-os-custom/lib/libutee/tee_api_objects.c:755
    19a0:	4632      	mov	r2, r6
    19a2:	4629      	mov	r1, r5
    19a4:	4638      	mov	r0, r7
    19a6:	f000 eb6c 	blx	2080 <_utee_storage_obj_seek>
/home/aom1/Work/Linux/target/STM32MP1-DK2/bootloader/optee-os-custom/lib/libutee/tee_api_objects.c:758
    19aa:	4604      	mov	r4, r0
    19ac:	2800      	cmp	r0, #0
    19ae:	d0f0      	beq.n	1992 <TEE_SeekObjectData+0x36>
    19b0:	4b06      	ldr	r3, [pc, #24]	; (19cc <TEE_SeekObjectData+0x70>)
    19b2:	429c      	cmp	r4, r3
    19b4:	d0ec      	beq.n	1990 <TEE_SeekObjectData+0x34>
/home/aom1/Work/Linux/target/STM32MP1-DK2/bootloader/optee-os-custom/lib/libutee/tee_api_objects.c:759
    19b6:	4b06      	ldr	r3, [pc, #24]	; (19d0 <TEE_SeekObjectData+0x74>)
    19b8:	429c      	cmp	r4, r3
    19ba:	d0ea      	beq.n	1992 <TEE_SeekObjectData+0x36>
/home/aom1/Work/Linux/target/STM32MP1-DK2/bootloader/optee-os-custom/lib/libutee/tee_api_objects.c:760
    19bc:	3302      	adds	r3, #2
    19be:	429c      	cmp	r4, r3
    19c0:	d0e7      	beq.n	1992 <TEE_SeekObjectData+0x36>
    19c2:	e7dc      	b.n	197e <TEE_SeekObjectData+0x22>
/home/aom1/Work/Linux/target/STM32MP1-DK2/bootloader/optee-os-custom/lib/libutee/tee_api_objects.c:717
    19c4:	4c03      	ldr	r4, [pc, #12]	; (19d4 <TEE_SeekObjectData+0x78>)
    19c6:	e7da      	b.n	197e <TEE_SeekObjectData+0x22>
    19c8:	ffff0008 	.word	0xffff0008
    19cc:	ffff300f 	.word	0xffff300f
    19d0:	f0100001 	.word	0xf0100001
    19d4:	ffff0006 	.word	0xffff0006

000019d8 <check_access>:
check_access():
/home/aom1/Work/Linux/target/STM32MP1-DK2/bootloader/optee-os-custom/lib/libutee/tee_api_panic.c:40
    19d8:	4613      	mov	r3, r2
/home/aom1/Work/Linux/target/STM32MP1-DK2/bootloader/optee-os-custom/lib/libutee/tee_api_panic.c:39
    19da:	b410      	push	{r4}
/home/aom1/Work/Linux/target/STM32MP1-DK2/bootloader/optee-os-custom/lib/libutee/tee_api_panic.c:40
    19dc:	b12a      	cbz	r2, 19ea <check_access+0x12>
/home/aom1/Work/Linux/target/STM32MP1-DK2/bootloader/optee-os-custom/lib/libutee/tee_api_panic.c:43
    19de:	b119      	cbz	r1, 19e8 <check_access+0x10>
/home/aom1/Work/Linux/target/STM32MP1-DK2/bootloader/optee-os-custom/lib/libutee/tee_api_panic.c:50
    19e0:	f85d 4b04 	ldr.w	r4, [sp], #4
/home/aom1/Work/Linux/target/STM32MP1-DK2/bootloader/optee-os-custom/lib/libutee/tee_api_panic.c:47
    19e4:	f7ff ba17 	b.w	e16 <TEE_CheckMemoryAccessRights>
/home/aom1/Work/Linux/target/STM32MP1-DK2/bootloader/optee-os-custom/lib/libutee/tee_api_panic.c:44
    19e8:	4b02      	ldr	r3, [pc, #8]	; (19f4 <check_access+0x1c>)
/home/aom1/Work/Linux/target/STM32MP1-DK2/bootloader/optee-os-custom/lib/libutee/tee_api_panic.c:50
    19ea:	f85d 4b04 	ldr.w	r4, [sp], #4
    19ee:	4618      	mov	r0, r3
    19f0:	4770      	bx	lr
    19f2:	bf00      	nop
    19f4:	ffff000f 	.word	0xffff000f

000019f8 <TEE_Panic>:
TEE_Panic():
/home/aom1/Work/Linux/target/STM32MP1-DK2/bootloader/optee-os-custom/lib/libutee/tee_api_panic.c:24
    19f8:	f005 bba2 	b.w	7140 <___utee_panic_from_thumb>

000019fc <check_res.constprop.0>:
check_res():
/home/aom1/Work/Linux/target/STM32MP1-DK2/bootloader/optee-os-custom/lib/libutee/tee_api_panic.c:32
    19fc:	b110      	cbz	r0, 1a04 <check_res.constprop.0+0x8>
/home/aom1/Work/Linux/target/STM32MP1-DK2/bootloader/optee-os-custom/lib/libutee/tee_api_panic.c:34
    19fe:	2000      	movs	r0, #0
    1a00:	f7ff bffa 	b.w	19f8 <TEE_Panic>
/home/aom1/Work/Linux/target/STM32MP1-DK2/bootloader/optee-os-custom/lib/libutee/tee_api_panic.c:36
    1a04:	4770      	bx	lr

00001a06 <__utee_check_outbuf_annotation>:
__utee_check_outbuf_annotation():
/home/aom1/Work/Linux/target/STM32MP1-DK2/bootloader/optee-os-custom/lib/libutee/tee_api_panic.c:53
    1a06:	b538      	push	{r3, r4, r5, lr}
    1a08:	4605      	mov	r5, r0
check_access():
/home/aom1/Work/Linux/target/STM32MP1-DK2/bootloader/optee-os-custom/lib/libutee/tee_api_panic.c:43
    1a0a:	460c      	mov	r4, r1
    1a0c:	b169      	cbz	r1, 1a2a <__utee_check_outbuf_annotation+0x24>
/home/aom1/Work/Linux/target/STM32MP1-DK2/bootloader/optee-os-custom/lib/libutee/tee_api_panic.c:47
    1a0e:	2204      	movs	r2, #4
    1a10:	2003      	movs	r0, #3
    1a12:	f7ff fa00 	bl	e16 <TEE_CheckMemoryAccessRights>
__utee_check_outbuf_annotation():
/home/aom1/Work/Linux/target/STM32MP1-DK2/bootloader/optee-os-custom/lib/libutee/tee_api_panic.c:54
    1a16:	f7ff fff1 	bl	19fc <check_res.constprop.0>
/home/aom1/Work/Linux/target/STM32MP1-DK2/bootloader/optee-os-custom/lib/libutee/tee_api_panic.c:56
    1a1a:	6822      	ldr	r2, [r4, #0]
    1a1c:	4629      	mov	r1, r5
    1a1e:	2006      	movs	r0, #6
    1a20:	f7ff ffda 	bl	19d8 <check_access>
/home/aom1/Work/Linux/target/STM32MP1-DK2/bootloader/optee-os-custom/lib/libutee/tee_api_panic.c:58
    1a24:	e8bd 4038 	ldmia.w	sp!, {r3, r4, r5, lr}
/home/aom1/Work/Linux/target/STM32MP1-DK2/bootloader/optee-os-custom/lib/libutee/tee_api_panic.c:56
    1a28:	e7e8      	b.n	19fc <check_res.constprop.0>
check_access():
/home/aom1/Work/Linux/target/STM32MP1-DK2/bootloader/optee-os-custom/lib/libutee/tee_api_panic.c:44
    1a2a:	4801      	ldr	r0, [pc, #4]	; (1a30 <__utee_check_outbuf_annotation+0x2a>)
    1a2c:	e7f3      	b.n	1a16 <__utee_check_outbuf_annotation+0x10>
    1a2e:	bf00      	nop
    1a30:	ffff000f 	.word	0xffff000f

00001a34 <__utee_check_instring_annotation>:
__utee_check_instring_annotation():
/home/aom1/Work/Linux/target/STM32MP1-DK2/bootloader/optee-os-custom/lib/libutee/tee_api_panic.c:61
    1a34:	b510      	push	{r4, lr}
    1a36:	4604      	mov	r4, r0
/home/aom1/Work/Linux/target/STM32MP1-DK2/bootloader/optee-os-custom/lib/libutee/tee_api_panic.c:63
    1a38:	f005 fa81 	bl	6f3e <strlen>
/home/aom1/Work/Linux/target/STM32MP1-DK2/bootloader/optee-os-custom/lib/libutee/tee_api_panic.c:62
    1a3c:	1c42      	adds	r2, r0, #1
    1a3e:	4621      	mov	r1, r4
    1a40:	2001      	movs	r0, #1
    1a42:	f7ff ffc9 	bl	19d8 <check_access>
/home/aom1/Work/Linux/target/STM32MP1-DK2/bootloader/optee-os-custom/lib/libutee/tee_api_panic.c:64
    1a46:	e8bd 4010 	ldmia.w	sp!, {r4, lr}
/home/aom1/Work/Linux/target/STM32MP1-DK2/bootloader/optee-os-custom/lib/libutee/tee_api_panic.c:62
    1a4a:	e7d7      	b.n	19fc <check_res.constprop.0>

00001a4c <__utee_check_outstring_annotation>:
__utee_check_outstring_annotation():
/home/aom1/Work/Linux/target/STM32MP1-DK2/bootloader/optee-os-custom/lib/libutee/tee_api_panic.c:67
    1a4c:	b538      	push	{r3, r4, r5, lr}
    1a4e:	4605      	mov	r5, r0
check_access():
/home/aom1/Work/Linux/target/STM32MP1-DK2/bootloader/optee-os-custom/lib/libutee/tee_api_panic.c:43
    1a50:	460c      	mov	r4, r1
    1a52:	b169      	cbz	r1, 1a70 <__utee_check_outstring_annotation+0x24>
/home/aom1/Work/Linux/target/STM32MP1-DK2/bootloader/optee-os-custom/lib/libutee/tee_api_panic.c:47
    1a54:	2204      	movs	r2, #4
    1a56:	2003      	movs	r0, #3
    1a58:	f7ff f9dd 	bl	e16 <TEE_CheckMemoryAccessRights>
__utee_check_outstring_annotation():
/home/aom1/Work/Linux/target/STM32MP1-DK2/bootloader/optee-os-custom/lib/libutee/tee_api_panic.c:68
    1a5c:	f7ff ffce 	bl	19fc <check_res.constprop.0>
/home/aom1/Work/Linux/target/STM32MP1-DK2/bootloader/optee-os-custom/lib/libutee/tee_api_panic.c:70
    1a60:	6822      	ldr	r2, [r4, #0]
    1a62:	4629      	mov	r1, r5
    1a64:	2006      	movs	r0, #6
    1a66:	f7ff ffb7 	bl	19d8 <check_access>
/home/aom1/Work/Linux/target/STM32MP1-DK2/bootloader/optee-os-custom/lib/libutee/tee_api_panic.c:72
    1a6a:	e8bd 4038 	ldmia.w	sp!, {r3, r4, r5, lr}
/home/aom1/Work/Linux/target/STM32MP1-DK2/bootloader/optee-os-custom/lib/libutee/tee_api_panic.c:70
    1a6e:	e7c5      	b.n	19fc <check_res.constprop.0>
check_access():
/home/aom1/Work/Linux/target/STM32MP1-DK2/bootloader/optee-os-custom/lib/libutee/tee_api_panic.c:44
    1a70:	4800      	ldr	r0, [pc, #0]	; (1a74 <__utee_check_outstring_annotation+0x28>)
    1a72:	e7f3      	b.n	1a5c <__utee_check_outstring_annotation+0x10>
    1a74:	ffff000f 	.word	0xffff000f

00001a78 <__utee_check_out_annotation>:
__utee_check_out_annotation():
/home/aom1/Work/Linux/target/STM32MP1-DK2/bootloader/optee-os-custom/lib/libutee/tee_api_panic.c:75
    1a78:	460a      	mov	r2, r1
/home/aom1/Work/Linux/target/STM32MP1-DK2/bootloader/optee-os-custom/lib/libutee/tee_api_panic.c:76
    1a7a:	4601      	mov	r1, r0
/home/aom1/Work/Linux/target/STM32MP1-DK2/bootloader/optee-os-custom/lib/libutee/tee_api_panic.c:75
    1a7c:	b508      	push	{r3, lr}
/home/aom1/Work/Linux/target/STM32MP1-DK2/bootloader/optee-os-custom/lib/libutee/tee_api_panic.c:76
    1a7e:	2002      	movs	r0, #2
    1a80:	f7ff ffaa 	bl	19d8 <check_access>
/home/aom1/Work/Linux/target/STM32MP1-DK2/bootloader/optee-os-custom/lib/libutee/tee_api_panic.c:78
    1a84:	e8bd 4008 	ldmia.w	sp!, {r3, lr}
/home/aom1/Work/Linux/target/STM32MP1-DK2/bootloader/optee-os-custom/lib/libutee/tee_api_panic.c:76
    1a88:	e7b8      	b.n	19fc <check_res.constprop.0>

00001a8a <__utee_check_attr_in_annotation>:
__utee_check_attr_in_annotation():
/home/aom1/Work/Linux/target/STM32MP1-DK2/bootloader/optee-os-custom/lib/libutee/tee_api_panic.c:82
    1a8a:	220c      	movs	r2, #12
    1a8c:	434a      	muls	r2, r1
/home/aom1/Work/Linux/target/STM32MP1-DK2/bootloader/optee-os-custom/lib/libutee/tee_api_panic.c:81
    1a8e:	b508      	push	{r3, lr}
/home/aom1/Work/Linux/target/STM32MP1-DK2/bootloader/optee-os-custom/lib/libutee/tee_api_panic.c:82
    1a90:	4601      	mov	r1, r0
    1a92:	2001      	movs	r0, #1
    1a94:	f7ff ffa0 	bl	19d8 <check_access>
/home/aom1/Work/Linux/target/STM32MP1-DK2/bootloader/optee-os-custom/lib/libutee/tee_api_panic.c:84
    1a98:	e8bd 4008 	ldmia.w	sp!, {r3, lr}
/home/aom1/Work/Linux/target/STM32MP1-DK2/bootloader/optee-os-custom/lib/libutee/tee_api_panic.c:82
    1a9c:	e7ae      	b.n	19fc <check_res.constprop.0>

00001a9e <__utee_check_inout_annotation>:
__utee_check_inout_annotation():
/home/aom1/Work/Linux/target/STM32MP1-DK2/bootloader/optee-os-custom/lib/libutee/tee_api_panic.c:87
    1a9e:	460a      	mov	r2, r1
/home/aom1/Work/Linux/target/STM32MP1-DK2/bootloader/optee-os-custom/lib/libutee/tee_api_panic.c:88
    1aa0:	4601      	mov	r1, r0
/home/aom1/Work/Linux/target/STM32MP1-DK2/bootloader/optee-os-custom/lib/libutee/tee_api_panic.c:87
    1aa2:	b508      	push	{r3, lr}
/home/aom1/Work/Linux/target/STM32MP1-DK2/bootloader/optee-os-custom/lib/libutee/tee_api_panic.c:88
    1aa4:	2003      	movs	r0, #3
    1aa6:	f7ff ff97 	bl	19d8 <check_access>
/home/aom1/Work/Linux/target/STM32MP1-DK2/bootloader/optee-os-custom/lib/libutee/tee_api_panic.c:90
    1aaa:	e8bd 4008 	ldmia.w	sp!, {r3, lr}
/home/aom1/Work/Linux/target/STM32MP1-DK2/bootloader/optee-os-custom/lib/libutee/tee_api_panic.c:88
    1aae:	e7a5      	b.n	19fc <check_res.constprop.0>

00001ab0 <invoke_system_pta>:
invoke_system_pta():
/home/aom1/Work/Linux/target/STM32MP1-DK2/bootloader/optee-os-custom/lib/libutee/tee_system_pta.c:16
    1ab0:	b573      	push	{r0, r1, r4, r5, r6, lr}
    1ab2:	4616      	mov	r6, r2
/home/aom1/Work/Linux/target/STM32MP1-DK2/bootloader/optee-os-custom/lib/libutee/tee_system_pta.c:20
    1ab4:	4a0f      	ldr	r2, [pc, #60]	; (1af4 <invoke_system_pta+0x44>)
/home/aom1/Work/Linux/target/STM32MP1-DK2/bootloader/optee-os-custom/lib/libutee/tee_system_pta.c:16
    1ab6:	4604      	mov	r4, r0
    1ab8:	460d      	mov	r5, r1
/home/aom1/Work/Linux/target/STM32MP1-DK2/bootloader/optee-os-custom/lib/libutee/tee_system_pta.c:20
    1aba:	447a      	add	r2, pc
    1abc:	6813      	ldr	r3, [r2, #0]
    1abe:	b16b      	cbz	r3, 1adc <invoke_system_pta+0x2c>
/home/aom1/Work/Linux/target/STM32MP1-DK2/bootloader/optee-os-custom/lib/libutee/tee_system_pta.c:28
    1ac0:	480d      	ldr	r0, [pc, #52]	; (1af8 <invoke_system_pta+0x48>)
    1ac2:	2300      	movs	r3, #0
    1ac4:	9301      	str	r3, [sp, #4]
    1ac6:	4622      	mov	r2, r4
    1ac8:	4478      	add	r0, pc
    1aca:	462b      	mov	r3, r5
    1acc:	9600      	str	r6, [sp, #0]
    1ace:	f04f 31ff 	mov.w	r1, #4294967295	; 0xffffffff
    1ad2:	6800      	ldr	r0, [r0, #0]
    1ad4:	f7ff fa84 	bl	fe0 <TEE_InvokeTACommand>
/home/aom1/Work/Linux/target/STM32MP1-DK2/bootloader/optee-os-custom/lib/libutee/tee_system_pta.c:30
    1ad8:	b002      	add	sp, #8
    1ada:	bd70      	pop	{r4, r5, r6, pc}
/home/aom1/Work/Linux/target/STM32MP1-DK2/bootloader/optee-os-custom/lib/libutee/tee_system_pta.c:21
    1adc:	4807      	ldr	r0, [pc, #28]	; (1afc <invoke_system_pta+0x4c>)
    1ade:	f04f 31ff 	mov.w	r1, #4294967295	; 0xffffffff
    1ae2:	e9cd 2300 	strd	r2, r3, [sp]
    1ae6:	4478      	add	r0, pc
    1ae8:	461a      	mov	r2, r3
    1aea:	f7ff fa2f 	bl	f4c <TEE_OpenTASession>
/home/aom1/Work/Linux/target/STM32MP1-DK2/bootloader/optee-os-custom/lib/libutee/tee_system_pta.c:24
    1aee:	2800      	cmp	r0, #0
    1af0:	d0e6      	beq.n	1ac0 <invoke_system_pta+0x10>
    1af2:	e7f1      	b.n	1ad8 <invoke_system_pta+0x28>
    1af4:	000077d6 	.word	0x000077d6
    1af8:	000077c8 	.word	0x000077c8
    1afc:	0000569e 	.word	0x0000569e

00001b00 <tee_map_zi>:
tee_map_zi():
/home/aom1/Work/Linux/target/STM32MP1-DK2/bootloader/optee-os-custom/lib/libutee/tee_system_pta.c:33
    1b00:	b530      	push	{r4, r5, lr}
    1b02:	460c      	mov	r4, r1
    1b04:	b089      	sub	sp, #36	; 0x24
    1b06:	4605      	mov	r5, r0
/home/aom1/Work/Linux/target/STM32MP1-DK2/bootloader/optee-os-custom/lib/libutee/tee_system_pta.c:38
    1b08:	221c      	movs	r2, #28
    1b0a:	2100      	movs	r1, #0
    1b0c:	a801      	add	r0, sp, #4
    1b0e:	f005 fa00 	bl	6f12 <memset>
/home/aom1/Work/Linux/target/STM32MP1-DK2/bootloader/optee-os-custom/lib/libutee/tee_system_pta.c:41
    1b12:	9500      	str	r5, [sp, #0]
/home/aom1/Work/Linux/target/STM32MP1-DK2/bootloader/optee-os-custom/lib/libutee/tee_system_pta.c:44
    1b14:	b11c      	cbz	r4, 1b1e <tee_map_zi+0x1e>
    1b16:	2c04      	cmp	r4, #4
    1b18:	d10b      	bne.n	1b32 <tee_map_zi+0x32>
/home/aom1/Work/Linux/target/STM32MP1-DK2/bootloader/optee-os-custom/lib/libutee/tee_system_pta.c:48
    1b1a:	2301      	movs	r3, #1
    1b1c:	9301      	str	r3, [sp, #4]
/home/aom1/Work/Linux/target/STM32MP1-DK2/bootloader/optee-os-custom/lib/libutee/tee_system_pta.c:54
    1b1e:	466a      	mov	r2, sp
    1b20:	f240 1131 	movw	r1, #305	; 0x131
    1b24:	2002      	movs	r0, #2
    1b26:	f7ff ffc3 	bl	1ab0 <invoke_system_pta>
/home/aom1/Work/Linux/target/STM32MP1-DK2/bootloader/optee-os-custom/lib/libutee/tee_system_pta.c:55
    1b2a:	b910      	cbnz	r0, 1b32 <tee_map_zi+0x32>
reg_pair_to_64():
/home/aom1/Work/Linux/target/STM32MP1-DK2/bootloader/optee-os-custom/lib/libutils/ext/include/util.h:166
    1b2c:	9803      	ldr	r0, [sp, #12]
tee_map_zi():
/home/aom1/Work/Linux/target/STM32MP1-DK2/bootloader/optee-os-custom/lib/libutee/tee_system_pta.c:60
    1b2e:	b009      	add	sp, #36	; 0x24
    1b30:	bd30      	pop	{r4, r5, pc}
/home/aom1/Work/Linux/target/STM32MP1-DK2/bootloader/optee-os-custom/lib/libutee/tee_system_pta.c:56
    1b32:	2000      	movs	r0, #0
    1b34:	e7fb      	b.n	1b2e <tee_map_zi+0x2e>

00001b36 <tee_unmap>:
tee_unmap():
/home/aom1/Work/Linux/target/STM32MP1-DK2/bootloader/optee-os-custom/lib/libutee/tee_system_pta.c:63
    1b36:	b570      	push	{r4, r5, r6, lr}
    1b38:	b08c      	sub	sp, #48	; 0x30
    1b3a:	4605      	mov	r5, r0
    1b3c:	460e      	mov	r6, r1
/home/aom1/Work/Linux/target/STM32MP1-DK2/bootloader/optee-os-custom/lib/libutee/tee_system_pta.c:69
    1b3e:	221c      	movs	r2, #28
    1b40:	2100      	movs	r1, #0
    1b42:	a805      	add	r0, sp, #20
    1b44:	f005 f9e5 	bl	6f12 <memset>
/home/aom1/Work/Linux/target/STM32MP1-DK2/bootloader/optee-os-custom/lib/libutee/tee_system_pta.c:71
    1b48:	9604      	str	r6, [sp, #16]
/home/aom1/Work/Linux/target/STM32MP1-DK2/bootloader/optee-os-custom/lib/libutee/tee_system_pta.c:74
    1b4a:	aa04      	add	r2, sp, #16
reg_pair_from_64():
/home/aom1/Work/Linux/target/STM32MP1-DK2/bootloader/optee-os-custom/lib/libutils/ext/include/util.h:173
    1b4c:	9507      	str	r5, [sp, #28]
tee_unmap():
/home/aom1/Work/Linux/target/STM32MP1-DK2/bootloader/optee-os-custom/lib/libutee/tee_system_pta.c:74
    1b4e:	2111      	movs	r1, #17
    1b50:	2003      	movs	r0, #3
    1b52:	f7ff ffad 	bl	1ab0 <invoke_system_pta>
/home/aom1/Work/Linux/target/STM32MP1-DK2/bootloader/optee-os-custom/lib/libutee/tee_system_pta.c:75
    1b56:	4604      	mov	r4, r0
    1b58:	b160      	cbz	r0, 1b74 <tee_unmap+0x3e>
/home/aom1/Work/Linux/target/STM32MP1-DK2/bootloader/optee-os-custom/lib/libutee/tee_system_pta.c:76
    1b5a:	4b08      	ldr	r3, [pc, #32]	; (1b7c <tee_unmap+0x46>)
    1b5c:	214c      	movs	r1, #76	; 0x4c
    1b5e:	4808      	ldr	r0, [pc, #32]	; (1b80 <tee_unmap+0x4a>)
    1b60:	447b      	add	r3, pc
    1b62:	4478      	add	r0, pc
    1b64:	9300      	str	r3, [sp, #0]
    1b66:	2301      	movs	r3, #1
    1b68:	9602      	str	r6, [sp, #8]
    1b6a:	461a      	mov	r2, r3
    1b6c:	9501      	str	r5, [sp, #4]
    1b6e:	3010      	adds	r0, #16
    1b70:	f7fe fcfc 	bl	56c <trace_printf>
/home/aom1/Work/Linux/target/STM32MP1-DK2/bootloader/optee-os-custom/lib/libutee/tee_system_pta.c:79
    1b74:	4620      	mov	r0, r4
    1b76:	b00c      	add	sp, #48	; 0x30
    1b78:	bd70      	pop	{r4, r5, r6, pc}
    1b7a:	bf00      	nop
    1b7c:	00005b58 	.word	0x00005b58
    1b80:	00005622 	.word	0x00005622

00001b84 <tee_invoke_supp_plugin>:
tee_invoke_supp_plugin():
/home/aom1/Work/Linux/target/STM32MP1-DK2/bootloader/optee-os-custom/lib/libutee/tee_system_pta.c:84
    1b84:	e92d 43f0 	stmdb	sp!, {r4, r5, r6, r7, r8, r9, lr}
    1b88:	b08b      	sub	sp, #44	; 0x2c
    1b8a:	461c      	mov	r4, r3
/home/aom1/Work/Linux/target/STM32MP1-DK2/bootloader/optee-os-custom/lib/libutee/tee_system_pta.c:90
    1b8c:	ab02      	add	r3, sp, #8
/home/aom1/Work/Linux/target/STM32MP1-DK2/bootloader/optee-os-custom/lib/libutee/tee_system_pta.c:84
    1b8e:	4605      	mov	r5, r0
    1b90:	460f      	mov	r7, r1
/home/aom1/Work/Linux/target/STM32MP1-DK2/bootloader/optee-os-custom/lib/libutee/tee_system_pta.c:90
    1b92:	4618      	mov	r0, r3
/home/aom1/Work/Linux/target/STM32MP1-DK2/bootloader/optee-os-custom/lib/libutee/tee_system_pta.c:84
    1b94:	4616      	mov	r6, r2
/home/aom1/Work/Linux/target/STM32MP1-DK2/bootloader/optee-os-custom/lib/libutee/tee_system_pta.c:90
    1b96:	2100      	movs	r1, #0
    1b98:	2220      	movs	r2, #32
/home/aom1/Work/Linux/target/STM32MP1-DK2/bootloader/optee-os-custom/lib/libutee/tee_system_pta.c:84
    1b9a:	e9dd 9812 	ldrd	r9, r8, [sp, #72]	; 0x48
/home/aom1/Work/Linux/target/STM32MP1-DK2/bootloader/optee-os-custom/lib/libutee/tee_system_pta.c:90
    1b9e:	f005 f9b8 	bl	6f12 <memset>
    1ba2:	4603      	mov	r3, r0
/home/aom1/Work/Linux/target/STM32MP1-DK2/bootloader/optee-os-custom/lib/libutee/tee_system_pta.c:92
    1ba4:	b11d      	cbz	r5, 1bae <tee_invoke_supp_plugin+0x2a>
/home/aom1/Work/Linux/target/STM32MP1-DK2/bootloader/optee-os-custom/lib/libutee/tee_system_pta.c:92 (discriminator 1)
    1ba6:	f1b9 0f00 	cmp.w	r9, #0
    1baa:	d002      	beq.n	1bb2 <tee_invoke_supp_plugin+0x2e>
/home/aom1/Work/Linux/target/STM32MP1-DK2/bootloader/optee-os-custom/lib/libutee/tee_system_pta.c:92 (discriminator 2)
    1bac:	b91c      	cbnz	r4, 1bb6 <tee_invoke_supp_plugin+0x32>
/home/aom1/Work/Linux/target/STM32MP1-DK2/bootloader/optee-os-custom/lib/libutee/tee_system_pta.c:93
    1bae:	4c14      	ldr	r4, [pc, #80]	; (1c00 <tee_invoke_supp_plugin+0x7c>)
    1bb0:	e022      	b.n	1bf8 <tee_invoke_supp_plugin+0x74>
/home/aom1/Work/Linux/target/STM32MP1-DK2/bootloader/optee-os-custom/lib/libutee/tee_system_pta.c:92 (discriminator 5)
    1bb2:	2c00      	cmp	r4, #0
    1bb4:	d1fb      	bne.n	1bae <tee_invoke_supp_plugin+0x2a>
/home/aom1/Work/Linux/target/STM32MP1-DK2/bootloader/optee-os-custom/lib/libutee/tee_system_pta.c:95
    1bb6:	9502      	str	r5, [sp, #8]
/home/aom1/Work/Linux/target/STM32MP1-DK2/bootloader/optee-os-custom/lib/libutee/tee_system_pta.c:96
    1bb8:	2210      	movs	r2, #16
    1bba:	9203      	str	r2, [sp, #12]
/home/aom1/Work/Linux/target/STM32MP1-DK2/bootloader/optee-os-custom/lib/libutee/tee_system_pta.c:102
    1bbc:	f242 7115 	movw	r1, #10005	; 0x2715
    1bc0:	461a      	mov	r2, r3
    1bc2:	200d      	movs	r0, #13
/home/aom1/Work/Linux/target/STM32MP1-DK2/bootloader/optee-os-custom/lib/libutee/tee_system_pta.c:100
    1bc4:	e9cd 4906 	strd	r4, r9, [sp, #24]
/home/aom1/Work/Linux/target/STM32MP1-DK2/bootloader/optee-os-custom/lib/libutee/tee_system_pta.c:98
    1bc8:	e9cd 7604 	strd	r7, r6, [sp, #16]
/home/aom1/Work/Linux/target/STM32MP1-DK2/bootloader/optee-os-custom/lib/libutee/tee_system_pta.c:102
    1bcc:	f7ff ff70 	bl	1ab0 <invoke_system_pta>
/home/aom1/Work/Linux/target/STM32MP1-DK2/bootloader/optee-os-custom/lib/libutee/tee_system_pta.c:104
    1bd0:	4604      	mov	r4, r0
    1bd2:	b158      	cbz	r0, 1bec <tee_invoke_supp_plugin+0x68>
/home/aom1/Work/Linux/target/STM32MP1-DK2/bootloader/optee-os-custom/lib/libutee/tee_system_pta.c:105
    1bd4:	4b0b      	ldr	r3, [pc, #44]	; (1c04 <tee_invoke_supp_plugin+0x80>)
    1bd6:	2169      	movs	r1, #105	; 0x69
    1bd8:	9001      	str	r0, [sp, #4]
    1bda:	480b      	ldr	r0, [pc, #44]	; (1c08 <tee_invoke_supp_plugin+0x84>)
    1bdc:	447b      	add	r3, pc
    1bde:	4478      	add	r0, pc
    1be0:	9300      	str	r3, [sp, #0]
    1be2:	2301      	movs	r3, #1
    1be4:	461a      	mov	r2, r3
    1be6:	301a      	adds	r0, #26
    1be8:	f7fe fcc0 	bl	56c <trace_printf>
/home/aom1/Work/Linux/target/STM32MP1-DK2/bootloader/optee-os-custom/lib/libutee/tee_system_pta.c:107
    1bec:	f1b8 0f00 	cmp.w	r8, #0
    1bf0:	d002      	beq.n	1bf8 <tee_invoke_supp_plugin+0x74>
/home/aom1/Work/Linux/target/STM32MP1-DK2/bootloader/optee-os-custom/lib/libutee/tee_system_pta.c:108
    1bf2:	9b08      	ldr	r3, [sp, #32]
    1bf4:	f8c8 3000 	str.w	r3, [r8]
/home/aom1/Work/Linux/target/STM32MP1-DK2/bootloader/optee-os-custom/lib/libutee/tee_system_pta.c:111
    1bf8:	4620      	mov	r0, r4
    1bfa:	b00b      	add	sp, #44	; 0x2c
    1bfc:	e8bd 83f0 	ldmia.w	sp!, {r4, r5, r6, r7, r8, r9, pc}
    1c00:	ffff0006 	.word	0xffff0006
    1c04:	00005b06 	.word	0x00005b06
    1c08:	000055a6 	.word	0x000055a6

00001c0c <_utee_panic>:
_utee_panic():
/home/aom1/Work/Linux/target/STM32MP1-DK2/bootloader/optee-os-custom/lib/libutee/arch/arm/utee_syscalls_a32.S:48
    1c0c:	e92d4fff 	push	{r0, r1, r2, r3, r4, r5, r6, r7, r8, r9, sl, fp, lr}
/home/aom1/Work/Linux/target/STM32MP1-DK2/bootloader/optee-os-custom/lib/libutee/arch/arm/utee_syscalls_a32.S:50
    1c10:	e1a0e00f 	mov	lr, pc
/home/aom1/Work/Linux/target/STM32MP1-DK2/bootloader/optee-os-custom/lib/libutee/arch/arm/utee_syscalls_a32.S:51
    1c14:	e52de004 	push	{lr}		; (str lr, [sp, #-4]!)
/home/aom1/Work/Linux/target/STM32MP1-DK2/bootloader/optee-os-custom/lib/libutee/arch/arm/utee_syscalls_a32.S:53
    1c18:	e1a0100d 	mov	r1, sp
/home/aom1/Work/Linux/target/STM32MP1-DK2/bootloader/optee-os-custom/lib/libutee/arch/arm/utee_syscalls_a32.S:54
    1c1c:	eb000009 	bl	1c48 <__utee_panic>

00001c20 <_utee_return>:
_utee_return():
/home/aom1/Work/Linux/target/STM32MP1-DK2/bootloader/optee-os-custom/lib/libutee/arch/arm/utee_syscalls_asm.S:8
    1c20:	e92d40e0 	push	{r5, r6, r7, lr}
    1c24:	e3a07000 	mov	r7, #0
    1c28:	e3a06000 	mov	r6, #0
    1c2c:	ef000000 	svc	0x00000000
    1c30:	e8bd80e0 	pop	{r5, r6, r7, pc}

00001c34 <_utee_log>:
_utee_log():
/home/aom1/Work/Linux/target/STM32MP1-DK2/bootloader/optee-os-custom/lib/libutee/arch/arm/utee_syscalls_asm.S:10
    1c34:	e92d40e0 	push	{r5, r6, r7, lr}
    1c38:	e3a07001 	mov	r7, #1
    1c3c:	e3a06000 	mov	r6, #0
    1c40:	ef000000 	svc	0x00000000
    1c44:	e8bd80e0 	pop	{r5, r6, r7, pc}

00001c48 <__utee_panic>:
__utee_panic():
/home/aom1/Work/Linux/target/STM32MP1-DK2/bootloader/optee-os-custom/lib/libutee/arch/arm/utee_syscalls_asm.S:12
    1c48:	e92d40e0 	push	{r5, r6, r7, lr}
    1c4c:	e3a07002 	mov	r7, #2
    1c50:	e3a06000 	mov	r6, #0
    1c54:	ef000000 	svc	0x00000000
    1c58:	e8bd80e0 	pop	{r5, r6, r7, pc}

00001c5c <_utee_get_property>:
_utee_get_property():
/home/aom1/Work/Linux/target/STM32MP1-DK2/bootloader/optee-os-custom/lib/libutee/arch/arm/utee_syscalls_asm.S:14
    1c5c:	e92d40e0 	push	{r5, r6, r7, lr}
    1c60:	e3a07003 	mov	r7, #3
    1c64:	e3a06003 	mov	r6, #3
    1c68:	e28d5010 	add	r5, sp, #16
    1c6c:	ef000000 	svc	0x00000000
    1c70:	e8bd80e0 	pop	{r5, r6, r7, pc}

00001c74 <_utee_get_property_name_to_index>:
_utee_get_property_name_to_index():
/home/aom1/Work/Linux/target/STM32MP1-DK2/bootloader/optee-os-custom/lib/libutee/arch/arm/utee_syscalls_asm.S:16
    1c74:	e92d40e0 	push	{r5, r6, r7, lr}
    1c78:	e3a07004 	mov	r7, #4
    1c7c:	e3a06000 	mov	r6, #0
    1c80:	ef000000 	svc	0x00000000
    1c84:	e8bd80e0 	pop	{r5, r6, r7, pc}

00001c88 <_utee_open_ta_session>:
_utee_open_ta_session():
/home/aom1/Work/Linux/target/STM32MP1-DK2/bootloader/optee-os-custom/lib/libutee/arch/arm/utee_syscalls_asm.S:19
    1c88:	e92d40e0 	push	{r5, r6, r7, lr}
    1c8c:	e3a07005 	mov	r7, #5
    1c90:	e3a06001 	mov	r6, #1
    1c94:	e28d5010 	add	r5, sp, #16
    1c98:	ef000000 	svc	0x00000000
    1c9c:	e8bd80e0 	pop	{r5, r6, r7, pc}

00001ca0 <_utee_close_ta_session>:
_utee_close_ta_session():
/home/aom1/Work/Linux/target/STM32MP1-DK2/bootloader/optee-os-custom/lib/libutee/arch/arm/utee_syscalls_asm.S:21
    1ca0:	e92d40e0 	push	{r5, r6, r7, lr}
    1ca4:	e3a07006 	mov	r7, #6
    1ca8:	e3a06000 	mov	r6, #0
    1cac:	ef000000 	svc	0x00000000
    1cb0:	e8bd80e0 	pop	{r5, r6, r7, pc}

00001cb4 <_utee_invoke_ta_command>:
_utee_invoke_ta_command():
/home/aom1/Work/Linux/target/STM32MP1-DK2/bootloader/optee-os-custom/lib/libutee/arch/arm/utee_syscalls_asm.S:23
    1cb4:	e92d40e0 	push	{r5, r6, r7, lr}
    1cb8:	e3a07007 	mov	r7, #7
    1cbc:	e3a06001 	mov	r6, #1
    1cc0:	e28d5010 	add	r5, sp, #16
    1cc4:	ef000000 	svc	0x00000000
    1cc8:	e8bd80e0 	pop	{r5, r6, r7, pc}

00001ccc <_utee_get_cancellation_flag>:
_utee_get_cancellation_flag():
/home/aom1/Work/Linux/target/STM32MP1-DK2/bootloader/optee-os-custom/lib/libutee/arch/arm/utee_syscalls_asm.S:25
    1ccc:	e92d40e0 	push	{r5, r6, r7, lr}
    1cd0:	e3a07009 	mov	r7, #9
    1cd4:	e3a06000 	mov	r6, #0
    1cd8:	ef000000 	svc	0x00000000
    1cdc:	e8bd80e0 	pop	{r5, r6, r7, pc}

00001ce0 <_utee_check_access_rights>:
_utee_check_access_rights():
/home/aom1/Work/Linux/target/STM32MP1-DK2/bootloader/optee-os-custom/lib/libutee/arch/arm/utee_syscalls_asm.S:28
    1ce0:	e92d40e0 	push	{r5, r6, r7, lr}
    1ce4:	e3a07008 	mov	r7, #8
    1ce8:	e3a06000 	mov	r6, #0
    1cec:	ef000000 	svc	0x00000000
    1cf0:	e8bd80e0 	pop	{r5, r6, r7, pc}

00001cf4 <_utee_unmask_cancellation>:
_utee_unmask_cancellation():
/home/aom1/Work/Linux/target/STM32MP1-DK2/bootloader/optee-os-custom/lib/libutee/arch/arm/utee_syscalls_asm.S:30
    1cf4:	e92d40e0 	push	{r5, r6, r7, lr}
    1cf8:	e3a0700a 	mov	r7, #10
    1cfc:	e3a06000 	mov	r6, #0
    1d00:	ef000000 	svc	0x00000000
    1d04:	e8bd80e0 	pop	{r5, r6, r7, pc}

00001d08 <_utee_mask_cancellation>:
_utee_mask_cancellation():
/home/aom1/Work/Linux/target/STM32MP1-DK2/bootloader/optee-os-custom/lib/libutee/arch/arm/utee_syscalls_asm.S:32
    1d08:	e92d40e0 	push	{r5, r6, r7, lr}
    1d0c:	e3a0700b 	mov	r7, #11
    1d10:	e3a06000 	mov	r6, #0
    1d14:	ef000000 	svc	0x00000000
    1d18:	e8bd80e0 	pop	{r5, r6, r7, pc}

00001d1c <_utee_wait>:
_utee_wait():
/home/aom1/Work/Linux/target/STM32MP1-DK2/bootloader/optee-os-custom/lib/libutee/arch/arm/utee_syscalls_asm.S:34
    1d1c:	e92d40e0 	push	{r5, r6, r7, lr}
    1d20:	e3a0700c 	mov	r7, #12
    1d24:	e3a06000 	mov	r6, #0
    1d28:	ef000000 	svc	0x00000000
    1d2c:	e8bd80e0 	pop	{r5, r6, r7, pc}

00001d30 <_utee_get_time>:
_utee_get_time():
/home/aom1/Work/Linux/target/STM32MP1-DK2/bootloader/optee-os-custom/lib/libutee/arch/arm/utee_syscalls_asm.S:36
    1d30:	e92d40e0 	push	{r5, r6, r7, lr}
    1d34:	e3a0700d 	mov	r7, #13
    1d38:	e3a06000 	mov	r6, #0
    1d3c:	ef000000 	svc	0x00000000
    1d40:	e8bd80e0 	pop	{r5, r6, r7, pc}

00001d44 <_utee_set_ta_time>:
_utee_set_ta_time():
/home/aom1/Work/Linux/target/STM32MP1-DK2/bootloader/optee-os-custom/lib/libutee/arch/arm/utee_syscalls_asm.S:38
    1d44:	e92d40e0 	push	{r5, r6, r7, lr}
    1d48:	e3a0700e 	mov	r7, #14
    1d4c:	e3a06000 	mov	r6, #0
    1d50:	ef000000 	svc	0x00000000
    1d54:	e8bd80e0 	pop	{r5, r6, r7, pc}

00001d58 <_utee_cryp_state_alloc>:
_utee_cryp_state_alloc():
/home/aom1/Work/Linux/target/STM32MP1-DK2/bootloader/optee-os-custom/lib/libutee/arch/arm/utee_syscalls_asm.S:40
    1d58:	e92d40e0 	push	{r5, r6, r7, lr}
    1d5c:	e3a0700f 	mov	r7, #15
    1d60:	e3a06001 	mov	r6, #1
    1d64:	e28d5010 	add	r5, sp, #16
    1d68:	ef000000 	svc	0x00000000
    1d6c:	e8bd80e0 	pop	{r5, r6, r7, pc}

00001d70 <_utee_cryp_state_copy>:
_utee_cryp_state_copy():
/home/aom1/Work/Linux/target/STM32MP1-DK2/bootloader/optee-os-custom/lib/libutee/arch/arm/utee_syscalls_asm.S:42
    1d70:	e92d40e0 	push	{r5, r6, r7, lr}
    1d74:	e3a07010 	mov	r7, #16
    1d78:	e3a06000 	mov	r6, #0
    1d7c:	ef000000 	svc	0x00000000
    1d80:	e8bd80e0 	pop	{r5, r6, r7, pc}

00001d84 <_utee_cryp_state_free>:
_utee_cryp_state_free():
/home/aom1/Work/Linux/target/STM32MP1-DK2/bootloader/optee-os-custom/lib/libutee/arch/arm/utee_syscalls_asm.S:44
    1d84:	e92d40e0 	push	{r5, r6, r7, lr}
    1d88:	e3a07011 	mov	r7, #17
    1d8c:	e3a06000 	mov	r6, #0
    1d90:	ef000000 	svc	0x00000000
    1d94:	e8bd80e0 	pop	{r5, r6, r7, pc}

00001d98 <_utee_hash_init>:
_utee_hash_init():
/home/aom1/Work/Linux/target/STM32MP1-DK2/bootloader/optee-os-custom/lib/libutee/arch/arm/utee_syscalls_asm.S:46
    1d98:	e92d40e0 	push	{r5, r6, r7, lr}
    1d9c:	e3a07012 	mov	r7, #18
    1da0:	e3a06000 	mov	r6, #0
    1da4:	ef000000 	svc	0x00000000
    1da8:	e8bd80e0 	pop	{r5, r6, r7, pc}

00001dac <_utee_hash_update>:
_utee_hash_update():
/home/aom1/Work/Linux/target/STM32MP1-DK2/bootloader/optee-os-custom/lib/libutee/arch/arm/utee_syscalls_asm.S:48
    1dac:	e92d40e0 	push	{r5, r6, r7, lr}
    1db0:	e3a07013 	mov	r7, #19
    1db4:	e3a06000 	mov	r6, #0
    1db8:	ef000000 	svc	0x00000000
    1dbc:	e8bd80e0 	pop	{r5, r6, r7, pc}

00001dc0 <_utee_hash_final>:
_utee_hash_final():
/home/aom1/Work/Linux/target/STM32MP1-DK2/bootloader/optee-os-custom/lib/libutee/arch/arm/utee_syscalls_asm.S:50
    1dc0:	e92d40e0 	push	{r5, r6, r7, lr}
    1dc4:	e3a07014 	mov	r7, #20
    1dc8:	e3a06001 	mov	r6, #1
    1dcc:	e28d5010 	add	r5, sp, #16
    1dd0:	ef000000 	svc	0x00000000
    1dd4:	e8bd80e0 	pop	{r5, r6, r7, pc}

00001dd8 <_utee_cipher_init>:
_utee_cipher_init():
/home/aom1/Work/Linux/target/STM32MP1-DK2/bootloader/optee-os-custom/lib/libutee/arch/arm/utee_syscalls_asm.S:52
    1dd8:	e92d40e0 	push	{r5, r6, r7, lr}
    1ddc:	e3a07015 	mov	r7, #21
    1de0:	e3a06000 	mov	r6, #0
    1de4:	ef000000 	svc	0x00000000
    1de8:	e8bd80e0 	pop	{r5, r6, r7, pc}

00001dec <_utee_cipher_update>:
_utee_cipher_update():
/home/aom1/Work/Linux/target/STM32MP1-DK2/bootloader/optee-os-custom/lib/libutee/arch/arm/utee_syscalls_asm.S:54
    1dec:	e92d40e0 	push	{r5, r6, r7, lr}
    1df0:	e3a07016 	mov	r7, #22
    1df4:	e3a06001 	mov	r6, #1
    1df8:	e28d5010 	add	r5, sp, #16
    1dfc:	ef000000 	svc	0x00000000
    1e00:	e8bd80e0 	pop	{r5, r6, r7, pc}

00001e04 <_utee_cipher_final>:
_utee_cipher_final():
/home/aom1/Work/Linux/target/STM32MP1-DK2/bootloader/optee-os-custom/lib/libutee/arch/arm/utee_syscalls_asm.S:56
    1e04:	e92d40e0 	push	{r5, r6, r7, lr}
    1e08:	e3a07017 	mov	r7, #23
    1e0c:	e3a06001 	mov	r6, #1
    1e10:	e28d5010 	add	r5, sp, #16
    1e14:	ef000000 	svc	0x00000000
    1e18:	e8bd80e0 	pop	{r5, r6, r7, pc}

00001e1c <_utee_cryp_obj_get_info>:
_utee_cryp_obj_get_info():
/home/aom1/Work/Linux/target/STM32MP1-DK2/bootloader/optee-os-custom/lib/libutee/arch/arm/utee_syscalls_asm.S:58
    1e1c:	e92d40e0 	push	{r5, r6, r7, lr}
    1e20:	e3a07018 	mov	r7, #24
    1e24:	e3a06000 	mov	r6, #0
    1e28:	ef000000 	svc	0x00000000
    1e2c:	e8bd80e0 	pop	{r5, r6, r7, pc}

00001e30 <_utee_cryp_obj_restrict_usage>:
_utee_cryp_obj_restrict_usage():
/home/aom1/Work/Linux/target/STM32MP1-DK2/bootloader/optee-os-custom/lib/libutee/arch/arm/utee_syscalls_asm.S:60
    1e30:	e92d40e0 	push	{r5, r6, r7, lr}
    1e34:	e3a07019 	mov	r7, #25
    1e38:	e3a06000 	mov	r6, #0
    1e3c:	ef000000 	svc	0x00000000
    1e40:	e8bd80e0 	pop	{r5, r6, r7, pc}

00001e44 <_utee_cryp_obj_get_attr>:
_utee_cryp_obj_get_attr():
/home/aom1/Work/Linux/target/STM32MP1-DK2/bootloader/optee-os-custom/lib/libutee/arch/arm/utee_syscalls_asm.S:63
    1e44:	e92d40e0 	push	{r5, r6, r7, lr}
    1e48:	e3a0701a 	mov	r7, #26
    1e4c:	e3a06000 	mov	r6, #0
    1e50:	ef000000 	svc	0x00000000
    1e54:	e8bd80e0 	pop	{r5, r6, r7, pc}

00001e58 <_utee_cryp_obj_alloc>:
_utee_cryp_obj_alloc():
/home/aom1/Work/Linux/target/STM32MP1-DK2/bootloader/optee-os-custom/lib/libutee/arch/arm/utee_syscalls_asm.S:65
    1e58:	e92d40e0 	push	{r5, r6, r7, lr}
    1e5c:	e3a0701b 	mov	r7, #27
    1e60:	e3a06000 	mov	r6, #0
    1e64:	ef000000 	svc	0x00000000
    1e68:	e8bd80e0 	pop	{r5, r6, r7, pc}

00001e6c <_utee_cryp_obj_close>:
_utee_cryp_obj_close():
/home/aom1/Work/Linux/target/STM32MP1-DK2/bootloader/optee-os-custom/lib/libutee/arch/arm/utee_syscalls_asm.S:67
    1e6c:	e92d40e0 	push	{r5, r6, r7, lr}
    1e70:	e3a0701c 	mov	r7, #28
    1e74:	e3a06000 	mov	r6, #0
    1e78:	ef000000 	svc	0x00000000
    1e7c:	e8bd80e0 	pop	{r5, r6, r7, pc}

00001e80 <_utee_cryp_obj_reset>:
_utee_cryp_obj_reset():
/home/aom1/Work/Linux/target/STM32MP1-DK2/bootloader/optee-os-custom/lib/libutee/arch/arm/utee_syscalls_asm.S:69
    1e80:	e92d40e0 	push	{r5, r6, r7, lr}
    1e84:	e3a0701d 	mov	r7, #29
    1e88:	e3a06000 	mov	r6, #0
    1e8c:	ef000000 	svc	0x00000000
    1e90:	e8bd80e0 	pop	{r5, r6, r7, pc}

00001e94 <_utee_cryp_obj_populate>:
_utee_cryp_obj_populate():
/home/aom1/Work/Linux/target/STM32MP1-DK2/bootloader/optee-os-custom/lib/libutee/arch/arm/utee_syscalls_asm.S:71
    1e94:	e92d40e0 	push	{r5, r6, r7, lr}
    1e98:	e3a0701e 	mov	r7, #30
    1e9c:	e3a06000 	mov	r6, #0
    1ea0:	ef000000 	svc	0x00000000
    1ea4:	e8bd80e0 	pop	{r5, r6, r7, pc}

00001ea8 <_utee_cryp_obj_copy>:
_utee_cryp_obj_copy():
/home/aom1/Work/Linux/target/STM32MP1-DK2/bootloader/optee-os-custom/lib/libutee/arch/arm/utee_syscalls_asm.S:73
    1ea8:	e92d40e0 	push	{r5, r6, r7, lr}
    1eac:	e3a0701f 	mov	r7, #31
    1eb0:	e3a06000 	mov	r6, #0
    1eb4:	ef000000 	svc	0x00000000
    1eb8:	e8bd80e0 	pop	{r5, r6, r7, pc}

00001ebc <_utee_cryp_derive_key>:
_utee_cryp_derive_key():
/home/aom1/Work/Linux/target/STM32MP1-DK2/bootloader/optee-os-custom/lib/libutee/arch/arm/utee_syscalls_asm.S:75
    1ebc:	e92d40e0 	push	{r5, r6, r7, lr}
    1ec0:	e3a07020 	mov	r7, #32
    1ec4:	e3a06000 	mov	r6, #0
    1ec8:	ef000000 	svc	0x00000000
    1ecc:	e8bd80e0 	pop	{r5, r6, r7, pc}

00001ed0 <_utee_cryp_random_number_generate>:
_utee_cryp_random_number_generate():
/home/aom1/Work/Linux/target/STM32MP1-DK2/bootloader/optee-os-custom/lib/libutee/arch/arm/utee_syscalls_asm.S:77
    1ed0:	e92d40e0 	push	{r5, r6, r7, lr}
    1ed4:	e3a07021 	mov	r7, #33	; 0x21
    1ed8:	e3a06000 	mov	r6, #0
    1edc:	ef000000 	svc	0x00000000
    1ee0:	e8bd80e0 	pop	{r5, r6, r7, pc}

00001ee4 <_utee_authenc_init>:
_utee_authenc_init():
/home/aom1/Work/Linux/target/STM32MP1-DK2/bootloader/optee-os-custom/lib/libutee/arch/arm/utee_syscalls_asm.S:80
    1ee4:	e92d40e0 	push	{r5, r6, r7, lr}
    1ee8:	e3a07022 	mov	r7, #34	; 0x22
    1eec:	e3a06002 	mov	r6, #2
    1ef0:	e28d5010 	add	r5, sp, #16
    1ef4:	ef000000 	svc	0x00000000
    1ef8:	e8bd80e0 	pop	{r5, r6, r7, pc}

00001efc <_utee_authenc_update_aad>:
_utee_authenc_update_aad():
/home/aom1/Work/Linux/target/STM32MP1-DK2/bootloader/optee-os-custom/lib/libutee/arch/arm/utee_syscalls_asm.S:82
    1efc:	e92d40e0 	push	{r5, r6, r7, lr}
    1f00:	e3a07023 	mov	r7, #35	; 0x23
    1f04:	e3a06000 	mov	r6, #0
    1f08:	ef000000 	svc	0x00000000
    1f0c:	e8bd80e0 	pop	{r5, r6, r7, pc}

00001f10 <_utee_authenc_update_payload>:
_utee_authenc_update_payload():
/home/aom1/Work/Linux/target/STM32MP1-DK2/bootloader/optee-os-custom/lib/libutee/arch/arm/utee_syscalls_asm.S:84
    1f10:	e92d40e0 	push	{r5, r6, r7, lr}
    1f14:	e3a07024 	mov	r7, #36	; 0x24
    1f18:	e3a06001 	mov	r6, #1
    1f1c:	e28d5010 	add	r5, sp, #16
    1f20:	ef000000 	svc	0x00000000
    1f24:	e8bd80e0 	pop	{r5, r6, r7, pc}

00001f28 <_utee_authenc_enc_final>:
_utee_authenc_enc_final():
/home/aom1/Work/Linux/target/STM32MP1-DK2/bootloader/optee-os-custom/lib/libutee/arch/arm/utee_syscalls_asm.S:87
    1f28:	e92d40e0 	push	{r5, r6, r7, lr}
    1f2c:	e3a07025 	mov	r7, #37	; 0x25
    1f30:	e3a06003 	mov	r6, #3
    1f34:	e28d5010 	add	r5, sp, #16
    1f38:	ef000000 	svc	0x00000000
    1f3c:	e8bd80e0 	pop	{r5, r6, r7, pc}

00001f40 <_utee_authenc_dec_final>:
_utee_authenc_dec_final():
/home/aom1/Work/Linux/target/STM32MP1-DK2/bootloader/optee-os-custom/lib/libutee/arch/arm/utee_syscalls_asm.S:89
    1f40:	e92d40e0 	push	{r5, r6, r7, lr}
    1f44:	e3a07026 	mov	r7, #38	; 0x26
    1f48:	e3a06003 	mov	r6, #3
    1f4c:	e28d5010 	add	r5, sp, #16
    1f50:	ef000000 	svc	0x00000000
    1f54:	e8bd80e0 	pop	{r5, r6, r7, pc}

00001f58 <_utee_asymm_operate>:
_utee_asymm_operate():
/home/aom1/Work/Linux/target/STM32MP1-DK2/bootloader/optee-os-custom/lib/libutee/arch/arm/utee_syscalls_asm.S:91
    1f58:	e92d40e0 	push	{r5, r6, r7, lr}
    1f5c:	e3a07027 	mov	r7, #39	; 0x27
    1f60:	e3a06003 	mov	r6, #3
    1f64:	e28d5010 	add	r5, sp, #16
    1f68:	ef000000 	svc	0x00000000
    1f6c:	e8bd80e0 	pop	{r5, r6, r7, pc}

00001f70 <_utee_asymm_verify>:
_utee_asymm_verify():
/home/aom1/Work/Linux/target/STM32MP1-DK2/bootloader/optee-os-custom/lib/libutee/arch/arm/utee_syscalls_asm.S:93
    1f70:	e92d40e0 	push	{r5, r6, r7, lr}
    1f74:	e3a07028 	mov	r7, #40	; 0x28
    1f78:	e3a06003 	mov	r6, #3
    1f7c:	e28d5010 	add	r5, sp, #16
    1f80:	ef000000 	svc	0x00000000
    1f84:	e8bd80e0 	pop	{r5, r6, r7, pc}

00001f88 <_utee_storage_obj_open>:
_utee_storage_obj_open():
/home/aom1/Work/Linux/target/STM32MP1-DK2/bootloader/optee-os-custom/lib/libutee/arch/arm/utee_syscalls_asm.S:95
    1f88:	e92d40e0 	push	{r5, r6, r7, lr}
    1f8c:	e3a07029 	mov	r7, #41	; 0x29
    1f90:	e3a06001 	mov	r6, #1
    1f94:	e28d5010 	add	r5, sp, #16
    1f98:	ef000000 	svc	0x00000000
    1f9c:	e8bd80e0 	pop	{r5, r6, r7, pc}

00001fa0 <_utee_storage_obj_create>:
_utee_storage_obj_create():
/home/aom1/Work/Linux/target/STM32MP1-DK2/bootloader/optee-os-custom/lib/libutee/arch/arm/utee_syscalls_asm.S:97
    1fa0:	e92d40e0 	push	{r5, r6, r7, lr}
    1fa4:	e3a0702a 	mov	r7, #42	; 0x2a
    1fa8:	e3a06004 	mov	r6, #4
    1fac:	e28d5010 	add	r5, sp, #16
    1fb0:	ef000000 	svc	0x00000000
    1fb4:	e8bd80e0 	pop	{r5, r6, r7, pc}

00001fb8 <_utee_storage_obj_del>:
_utee_storage_obj_del():
/home/aom1/Work/Linux/target/STM32MP1-DK2/bootloader/optee-os-custom/lib/libutee/arch/arm/utee_syscalls_asm.S:99
    1fb8:	e92d40e0 	push	{r5, r6, r7, lr}
    1fbc:	e3a0702b 	mov	r7, #43	; 0x2b
    1fc0:	e3a06000 	mov	r6, #0
    1fc4:	ef000000 	svc	0x00000000
    1fc8:	e8bd80e0 	pop	{r5, r6, r7, pc}

00001fcc <_utee_storage_obj_rename>:
_utee_storage_obj_rename():
/home/aom1/Work/Linux/target/STM32MP1-DK2/bootloader/optee-os-custom/lib/libutee/arch/arm/utee_syscalls_asm.S:101
    1fcc:	e92d40e0 	push	{r5, r6, r7, lr}
    1fd0:	e3a0702c 	mov	r7, #44	; 0x2c
    1fd4:	e3a06000 	mov	r6, #0
    1fd8:	ef000000 	svc	0x00000000
    1fdc:	e8bd80e0 	pop	{r5, r6, r7, pc}

00001fe0 <_utee_storage_alloc_enum>:
_utee_storage_alloc_enum():
/home/aom1/Work/Linux/target/STM32MP1-DK2/bootloader/optee-os-custom/lib/libutee/arch/arm/utee_syscalls_asm.S:103
    1fe0:	e92d40e0 	push	{r5, r6, r7, lr}
    1fe4:	e3a0702d 	mov	r7, #45	; 0x2d
    1fe8:	e3a06000 	mov	r6, #0
    1fec:	ef000000 	svc	0x00000000
    1ff0:	e8bd80e0 	pop	{r5, r6, r7, pc}

00001ff4 <_utee_storage_free_enum>:
_utee_storage_free_enum():
/home/aom1/Work/Linux/target/STM32MP1-DK2/bootloader/optee-os-custom/lib/libutee/arch/arm/utee_syscalls_asm.S:105
    1ff4:	e92d40e0 	push	{r5, r6, r7, lr}
    1ff8:	e3a0702e 	mov	r7, #46	; 0x2e
    1ffc:	e3a06000 	mov	r6, #0
    2000:	ef000000 	svc	0x00000000
    2004:	e8bd80e0 	pop	{r5, r6, r7, pc}

00002008 <_utee_storage_reset_enum>:
_utee_storage_reset_enum():
/home/aom1/Work/Linux/target/STM32MP1-DK2/bootloader/optee-os-custom/lib/libutee/arch/arm/utee_syscalls_asm.S:107
    2008:	e92d40e0 	push	{r5, r6, r7, lr}
    200c:	e3a0702f 	mov	r7, #47	; 0x2f
    2010:	e3a06000 	mov	r6, #0
    2014:	ef000000 	svc	0x00000000
    2018:	e8bd80e0 	pop	{r5, r6, r7, pc}

0000201c <_utee_storage_start_enum>:
_utee_storage_start_enum():
/home/aom1/Work/Linux/target/STM32MP1-DK2/bootloader/optee-os-custom/lib/libutee/arch/arm/utee_syscalls_asm.S:109
    201c:	e92d40e0 	push	{r5, r6, r7, lr}
    2020:	e3a07030 	mov	r7, #48	; 0x30
    2024:	e3a06000 	mov	r6, #0
    2028:	ef000000 	svc	0x00000000
    202c:	e8bd80e0 	pop	{r5, r6, r7, pc}

00002030 <_utee_storage_next_enum>:
_utee_storage_next_enum():
/home/aom1/Work/Linux/target/STM32MP1-DK2/bootloader/optee-os-custom/lib/libutee/arch/arm/utee_syscalls_asm.S:111
    2030:	e92d40e0 	push	{r5, r6, r7, lr}
    2034:	e3a07031 	mov	r7, #49	; 0x31
    2038:	e3a06000 	mov	r6, #0
    203c:	ef000000 	svc	0x00000000
    2040:	e8bd80e0 	pop	{r5, r6, r7, pc}

00002044 <_utee_storage_obj_read>:
_utee_storage_obj_read():
/home/aom1/Work/Linux/target/STM32MP1-DK2/bootloader/optee-os-custom/lib/libutee/arch/arm/utee_syscalls_asm.S:113
    2044:	e92d40e0 	push	{r5, r6, r7, lr}
    2048:	e3a07032 	mov	r7, #50	; 0x32
    204c:	e3a06000 	mov	r6, #0
    2050:	ef000000 	svc	0x00000000
    2054:	e8bd80e0 	pop	{r5, r6, r7, pc}

00002058 <_utee_storage_obj_write>:
_utee_storage_obj_write():
/home/aom1/Work/Linux/target/STM32MP1-DK2/bootloader/optee-os-custom/lib/libutee/arch/arm/utee_syscalls_asm.S:115
    2058:	e92d40e0 	push	{r5, r6, r7, lr}
    205c:	e3a07033 	mov	r7, #51	; 0x33
    2060:	e3a06000 	mov	r6, #0
    2064:	ef000000 	svc	0x00000000
    2068:	e8bd80e0 	pop	{r5, r6, r7, pc}

0000206c <_utee_storage_obj_trunc>:
_utee_storage_obj_trunc():
/home/aom1/Work/Linux/target/STM32MP1-DK2/bootloader/optee-os-custom/lib/libutee/arch/arm/utee_syscalls_asm.S:117
    206c:	e92d40e0 	push	{r5, r6, r7, lr}
    2070:	e3a07034 	mov	r7, #52	; 0x34
    2074:	e3a06000 	mov	r6, #0
    2078:	ef000000 	svc	0x00000000
    207c:	e8bd80e0 	pop	{r5, r6, r7, pc}

00002080 <_utee_storage_obj_seek>:
_utee_storage_obj_seek():
/home/aom1/Work/Linux/target/STM32MP1-DK2/bootloader/optee-os-custom/lib/libutee/arch/arm/utee_syscalls_asm.S:119
    2080:	e92d40e0 	push	{r5, r6, r7, lr}
    2084:	e3a07035 	mov	r7, #53	; 0x35
    2088:	e3a06000 	mov	r6, #0
    208c:	ef000000 	svc	0x00000000
    2090:	e8bd80e0 	pop	{r5, r6, r7, pc}

00002094 <_utee_cryp_obj_generate_key>:
_utee_cryp_obj_generate_key():
/home/aom1/Work/Linux/target/STM32MP1-DK2/bootloader/optee-os-custom/lib/libutee/arch/arm/utee_syscalls_asm.S:121
    2094:	e92d40e0 	push	{r5, r6, r7, lr}
    2098:	e3a07036 	mov	r7, #54	; 0x36
    209c:	e3a06000 	mov	r6, #0
    20a0:	ef000000 	svc	0x00000000
    20a4:	e8bd80e0 	pop	{r5, r6, r7, pc}

000020a8 <_utee_cache_operation>:
_utee_cache_operation():
/home/aom1/Work/Linux/target/STM32MP1-DK2/bootloader/optee-os-custom/lib/libutee/arch/arm/utee_syscalls_asm.S:124
    20a8:	e92d40e0 	push	{r5, r6, r7, lr}
    20ac:	e3a07046 	mov	r7, #70	; 0x46
    20b0:	e3a06000 	mov	r6, #0
    20b4:	ef000000 	svc	0x00000000
    20b8:	e8bd80e0 	pop	{r5, r6, r7, pc}

000020bc <_get_fn_array>:
_get_fn_array():
/home/aom1/Work/Linux/target/STM32MP1-DK2/bootloader/optee-os-custom/lib/libutee/arch/arm/user_ta_entry.c:72
    20bc:	e92d 41f0 	stmdb	sp!, {r4, r5, r6, r7, r8, lr}
    20c0:	4690      	mov	r8, r2
    20c2:	9f06      	ldr	r7, [sp, #24]
/home/aom1/Work/Linux/target/STM32MP1-DK2/bootloader/optee-os-custom/lib/libutee/arch/arm/user_ta_entry.c:79
    20c4:	2500      	movs	r5, #0
    20c6:	f8b0 c00c 	ldrh.w	ip, [r0, #12]
/home/aom1/Work/Linux/target/STM32MP1-DK2/bootloader/optee-os-custom/lib/libutee/arch/arm/user_ta_entry.c:79 (discriminator 1)
    20ca:	45ac      	cmp	ip, r5
    20cc:	d801      	bhi.n	20d2 <_get_fn_array+0x16>
/home/aom1/Work/Linux/target/STM32MP1-DK2/bootloader/optee-os-custom/lib/libutee/arch/arm/user_ta_entry.c:99
    20ce:	e8bd 81f0 	ldmia.w	sp!, {r4, r5, r6, r7, r8, pc}
/home/aom1/Work/Linux/target/STM32MP1-DK2/bootloader/optee-os-custom/lib/libutee/arch/arm/user_ta_entry.c:80
    20d2:	6886      	ldr	r6, [r0, #8]
    20d4:	016c      	lsls	r4, r5, #5
    20d6:	eb06 1e45 	add.w	lr, r6, r5, lsl #5
/home/aom1/Work/Linux/target/STM32MP1-DK2/bootloader/optee-os-custom/lib/libutee/arch/arm/user_ta_entry.c:81
    20da:	5934      	ldr	r4, [r6, r4]
    20dc:	2c02      	cmp	r4, #2
    20de:	d001      	beq.n	20e4 <_get_fn_array+0x28>
/home/aom1/Work/Linux/target/STM32MP1-DK2/bootloader/optee-os-custom/lib/libutee/arch/arm/user_ta_entry.c:79
    20e0:	3501      	adds	r5, #1
    20e2:	e7f2      	b.n	20ca <_get_fn_array+0xe>
/home/aom1/Work/Linux/target/STM32MP1-DK2/bootloader/optee-os-custom/lib/libutee/arch/arm/user_ta_entry.c:84
    20e4:	f8de 6008 	ldr.w	r6, [lr, #8]
    20e8:	6804      	ldr	r4, [r0, #0]
    20ea:	4434      	add	r4, r6
/home/aom1/Work/Linux/target/STM32MP1-DK2/bootloader/optee-os-custom/lib/libutee/arch/arm/user_ta_entry.c:83
    20ec:	f8de 6014 	ldr.w	r6, [lr, #20]
    20f0:	f026 0e07 	bic.w	lr, r6, #7
    20f4:	44a6      	add	lr, r4
/home/aom1/Work/Linux/target/STM32MP1-DK2/bootloader/optee-os-custom/lib/libutee/arch/arm/user_ta_entry.c:85 (discriminator 1)
    20f6:	4574      	cmp	r4, lr
    20f8:	d0f2      	beq.n	20e0 <_get_fn_array+0x24>
/home/aom1/Work/Linux/target/STM32MP1-DK2/bootloader/optee-os-custom/lib/libutee/arch/arm/user_ta_entry.c:86
    20fa:	681e      	ldr	r6, [r3, #0]
    20fc:	b116      	cbz	r6, 2104 <_get_fn_array+0x48>
/home/aom1/Work/Linux/target/STM32MP1-DK2/bootloader/optee-os-custom/lib/libutee/arch/arm/user_ta_entry.c:86 (discriminator 1)
    20fe:	683e      	ldr	r6, [r7, #0]
    2100:	2e00      	cmp	r6, #0
    2102:	d1ed      	bne.n	20e0 <_get_fn_array+0x24>
/home/aom1/Work/Linux/target/STM32MP1-DK2/bootloader/optee-os-custom/lib/libutee/arch/arm/user_ta_entry.c:88
    2104:	6826      	ldr	r6, [r4, #0]
    2106:	2e00      	cmp	r6, #0
    2108:	d0ea      	beq.n	20e0 <_get_fn_array+0x24>
/home/aom1/Work/Linux/target/STM32MP1-DK2/bootloader/optee-os-custom/lib/libutee/arch/arm/user_ta_entry.c:90
    210a:	428e      	cmp	r6, r1
    210c:	d105      	bne.n	211a <_get_fn_array+0x5e>
/home/aom1/Work/Linux/target/STM32MP1-DK2/bootloader/optee-os-custom/lib/libutee/arch/arm/user_ta_entry.c:91
    210e:	6866      	ldr	r6, [r4, #4]
    2110:	6802      	ldr	r2, [r0, #0]
    2112:	4416      	add	r6, r2
    2114:	601e      	str	r6, [r3, #0]
/home/aom1/Work/Linux/target/STM32MP1-DK2/bootloader/optee-os-custom/lib/libutee/arch/arm/user_ta_entry.c:96 (discriminator 2)
    2116:	3408      	adds	r4, #8
/home/aom1/Work/Linux/target/STM32MP1-DK2/bootloader/optee-os-custom/lib/libutee/arch/arm/user_ta_entry.c:85 (discriminator 2)
    2118:	e7ed      	b.n	20f6 <_get_fn_array+0x3a>
/home/aom1/Work/Linux/target/STM32MP1-DK2/bootloader/optee-os-custom/lib/libutee/arch/arm/user_ta_entry.c:93
    211a:	4546      	cmp	r6, r8
/home/aom1/Work/Linux/target/STM32MP1-DK2/bootloader/optee-os-custom/lib/libutee/arch/arm/user_ta_entry.c:94
    211c:	bf02      	ittt	eq
    211e:	6866      	ldreq	r6, [r4, #4]
    2120:	08b6      	lsreq	r6, r6, #2
    2122:	603e      	streq	r6, [r7, #0]
    2124:	e7f7      	b.n	2116 <_get_fn_array+0x5a>

00002126 <_fini_iterate_phdr_cb>:
_fini_iterate_phdr_cb():
/home/aom1/Work/Linux/target/STM32MP1-DK2/bootloader/optee-os-custom/lib/libutee/arch/arm/user_ta_entry.c:135
    2126:	b51f      	push	{r0, r1, r2, r3, r4, lr}
/home/aom1/Work/Linux/target/STM32MP1-DK2/bootloader/optee-os-custom/lib/libutee/arch/arm/user_ta_entry.c:136
    2128:	2300      	movs	r3, #0
/home/aom1/Work/Linux/target/STM32MP1-DK2/bootloader/optee-os-custom/lib/libutee/arch/arm/user_ta_entry.c:137
    212a:	e9cd 3302 	strd	r3, r3, [sp, #8]
/home/aom1/Work/Linux/target/STM32MP1-DK2/bootloader/optee-os-custom/lib/libutee/arch/arm/user_ta_entry.c:140
    212e:	ab03      	add	r3, sp, #12
    2130:	221c      	movs	r2, #28
    2132:	9300      	str	r3, [sp, #0]
    2134:	211a      	movs	r1, #26
    2136:	ab02      	add	r3, sp, #8
/home/aom1/Work/Linux/target/STM32MP1-DK2/bootloader/optee-os-custom/lib/libutee/arch/arm/user_ta_entry.c:142
    2138:	2401      	movs	r4, #1
/home/aom1/Work/Linux/target/STM32MP1-DK2/bootloader/optee-os-custom/lib/libutee/arch/arm/user_ta_entry.c:140
    213a:	f7ff ffbf 	bl	20bc <_get_fn_array>
/home/aom1/Work/Linux/target/STM32MP1-DK2/bootloader/optee-os-custom/lib/libutee/arch/arm/user_ta_entry.c:142 (discriminator 1)
    213e:	9b03      	ldr	r3, [sp, #12]
    2140:	42a3      	cmp	r3, r4
    2142:	d202      	bcs.n	214a <_fini_iterate_phdr_cb+0x24>
/home/aom1/Work/Linux/target/STM32MP1-DK2/bootloader/optee-os-custom/lib/libutee/arch/arm/user_ta_entry.c:146
    2144:	2000      	movs	r0, #0
    2146:	b004      	add	sp, #16
    2148:	bd10      	pop	{r4, pc}
/home/aom1/Work/Linux/target/STM32MP1-DK2/bootloader/optee-os-custom/lib/libutee/arch/arm/user_ta_entry.c:143 (discriminator 3)
    214a:	1b1b      	subs	r3, r3, r4
/home/aom1/Work/Linux/target/STM32MP1-DK2/bootloader/optee-os-custom/lib/libutee/arch/arm/user_ta_entry.c:142 (discriminator 3)
    214c:	3401      	adds	r4, #1
/home/aom1/Work/Linux/target/STM32MP1-DK2/bootloader/optee-os-custom/lib/libutee/arch/arm/user_ta_entry.c:143 (discriminator 3)
    214e:	9a02      	ldr	r2, [sp, #8]
    2150:	f852 3023 	ldr.w	r3, [r2, r3, lsl #2]
    2154:	4798      	blx	r3
/home/aom1/Work/Linux/target/STM32MP1-DK2/bootloader/optee-os-custom/lib/libutee/arch/arm/user_ta_entry.c:142 (discriminator 3)
    2156:	e7f2      	b.n	213e <_fini_iterate_phdr_cb+0x18>

00002158 <ta_header_get_session>:
ta_header_get_session():
/home/aom1/Work/Linux/target/STM32MP1-DK2/bootloader/optee-os-custom/lib/libutee/arch/arm/user_ta_entry.c:186
    2158:	4a05      	ldr	r2, [pc, #20]	; (2170 <ta_header_get_session+0x18>)
/home/aom1/Work/Linux/target/STM32MP1-DK2/bootloader/optee-os-custom/lib/libutee/arch/arm/user_ta_entry.c:183
    215a:	4603      	mov	r3, r0
/home/aom1/Work/Linux/target/STM32MP1-DK2/bootloader/optee-os-custom/lib/libutee/arch/arm/user_ta_entry.c:186
    215c:	447a      	add	r2, pc
    215e:	6810      	ldr	r0, [r2, #0]
/home/aom1/Work/Linux/target/STM32MP1-DK2/bootloader/optee-os-custom/lib/libutee/arch/arm/user_ta_entry.c:186 (discriminator 1)
    2160:	b900      	cbnz	r0, 2164 <ta_header_get_session+0xc>
/home/aom1/Work/Linux/target/STM32MP1-DK2/bootloader/optee-os-custom/lib/libutee/arch/arm/user_ta_entry.c:191
    2162:	4770      	bx	lr
/home/aom1/Work/Linux/target/STM32MP1-DK2/bootloader/optee-os-custom/lib/libutee/arch/arm/user_ta_entry.c:187
    2164:	6802      	ldr	r2, [r0, #0]
    2166:	429a      	cmp	r2, r3
    2168:	d0fb      	beq.n	2162 <ta_header_get_session+0xa>
/home/aom1/Work/Linux/target/STM32MP1-DK2/bootloader/optee-os-custom/lib/libutee/arch/arm/user_ta_entry.c:186 (discriminator 2)
    216a:	6880      	ldr	r0, [r0, #8]
    216c:	e7f8      	b.n	2160 <ta_header_get_session+0x8>
    216e:	bf00      	nop
    2170:	000070c0 	.word	0x000070c0

00002174 <to_utee_params>:
to_utee_params():
/home/aom1/Work/Linux/target/STM32MP1-DK2/bootloader/optee-os-custom/lib/libutee/arch/arm/user_ta_entry.c:261
    2174:	efc0 0010 	vmov.i32	d16, #0	; 0x00000000
/home/aom1/Work/Linux/target/STM32MP1-DK2/bootloader/optee-os-custom/lib/libutee/arch/arm/user_ta_entry.c:245
    2178:	2300      	movs	r3, #0
/home/aom1/Work/Linux/target/STM32MP1-DK2/bootloader/optee-os-custom/lib/libutee/arch/arm/user_ta_entry.c:242
    217a:	b5f0      	push	{r4, r5, r6, r7, lr}
    217c:	4615      	mov	r5, r2
/home/aom1/Work/Linux/target/STM32MP1-DK2/bootloader/optee-os-custom/lib/libutee/arch/arm/user_ta_entry.c:263
    217e:	461f      	mov	r7, r3
/home/aom1/Work/Linux/target/STM32MP1-DK2/bootloader/optee-os-custom/lib/libutee/arch/arm/user_ta_entry.c:245
    2180:	e9c0 1300 	strd	r1, r3, [r0]
/home/aom1/Work/Linux/target/STM32MP1-DK2/bootloader/optee-os-custom/lib/libutee/arch/arm/user_ta_entry.c:247
    2184:	fa21 f403 	lsr.w	r4, r1, r3
    2188:	f004 060f 	and.w	r6, r4, #15
    218c:	f014 040c 	ands.w	r4, r4, #12
    2190:	d10e      	bne.n	21b0 <to_utee_params+0x3c>
    2192:	b186      	cbz	r6, 21b6 <to_utee_params+0x42>
/home/aom1/Work/Linux/target/STM32MP1-DK2/bootloader/optee-os-custom/lib/libutee/arch/arm/user_ta_entry.c:251
    2194:	f852 6013 	ldr.w	r6, [r2, r3, lsl #1]
    2198:	e9c0 6402 	strd	r6, r4, [r0, #8]
/home/aom1/Work/Linux/target/STM32MP1-DK2/bootloader/optee-os-custom/lib/libutee/arch/arm/user_ta_entry.c:252
    219c:	686e      	ldr	r6, [r5, #4]
/home/aom1/Work/Linux/target/STM32MP1-DK2/bootloader/optee-os-custom/lib/libutee/arch/arm/user_ta_entry.c:246 (discriminator 2)
    219e:	3304      	adds	r3, #4
    21a0:	3508      	adds	r5, #8
    21a2:	2b10      	cmp	r3, #16
/home/aom1/Work/Linux/target/STM32MP1-DK2/bootloader/optee-os-custom/lib/libutee/arch/arm/user_ta_entry.c:252 (discriminator 2)
    21a4:	e9c0 6404 	strd	r6, r4, [r0, #16]
/home/aom1/Work/Linux/target/STM32MP1-DK2/bootloader/optee-os-custom/lib/libutee/arch/arm/user_ta_entry.c:246 (discriminator 2)
    21a8:	f100 0010 	add.w	r0, r0, #16
    21ac:	d1ea      	bne.n	2184 <to_utee_params+0x10>
/home/aom1/Work/Linux/target/STM32MP1-DK2/bootloader/optee-os-custom/lib/libutee/arch/arm/user_ta_entry.c:266
    21ae:	bdf0      	pop	{r4, r5, r6, r7, pc}
/home/aom1/Work/Linux/target/STM32MP1-DK2/bootloader/optee-os-custom/lib/libutee/arch/arm/user_ta_entry.c:247
    21b0:	3e05      	subs	r6, #5
    21b2:	2e02      	cmp	r6, #2
    21b4:	d904      	bls.n	21c0 <to_utee_params+0x4c>
/home/aom1/Work/Linux/target/STM32MP1-DK2/bootloader/optee-os-custom/lib/libutee/arch/arm/user_ta_entry.c:263
    21b6:	2600      	movs	r6, #0
    21b8:	4634      	mov	r4, r6
/home/aom1/Work/Linux/target/STM32MP1-DK2/bootloader/optee-os-custom/lib/libutee/arch/arm/user_ta_entry.c:261
    21ba:	edc0 0b02 	vstr	d16, [r0, #8]
/home/aom1/Work/Linux/target/STM32MP1-DK2/bootloader/optee-os-custom/lib/libutee/arch/arm/user_ta_entry.c:263
    21be:	e7ee      	b.n	219e <to_utee_params+0x2a>
/home/aom1/Work/Linux/target/STM32MP1-DK2/bootloader/optee-os-custom/lib/libutee/arch/arm/user_ta_entry.c:257
    21c0:	f852 4013 	ldr.w	r4, [r2, r3, lsl #1]
/home/aom1/Work/Linux/target/STM32MP1-DK2/bootloader/optee-os-custom/lib/libutee/arch/arm/user_ta_entry.c:258
    21c4:	686e      	ldr	r6, [r5, #4]
/home/aom1/Work/Linux/target/STM32MP1-DK2/bootloader/optee-os-custom/lib/libutee/arch/arm/user_ta_entry.c:257
    21c6:	e9c0 4702 	strd	r4, r7, [r0, #8]
/home/aom1/Work/Linux/target/STM32MP1-DK2/bootloader/optee-os-custom/lib/libutee/arch/arm/user_ta_entry.c:258
    21ca:	2400      	movs	r4, #0
/home/aom1/Work/Linux/target/STM32MP1-DK2/bootloader/optee-os-custom/lib/libutee/arch/arm/user_ta_entry.c:259
    21cc:	e7e7      	b.n	219e <to_utee_params+0x2a>

000021ce <from_utee_params>:
from_utee_params():
/home/aom1/Work/Linux/target/STM32MP1-DK2/bootloader/optee-os-custom/lib/libutee/arch/arm/user_ta_entry.c:271
    21ce:	b5f0      	push	{r4, r5, r6, r7, lr}
/home/aom1/Work/Linux/target/STM32MP1-DK2/bootloader/optee-os-custom/lib/libutee/arch/arm/user_ta_entry.c:273
    21d0:	2300      	movs	r3, #0
    21d2:	6816      	ldr	r6, [r2, #0]
/home/aom1/Work/Linux/target/STM32MP1-DK2/bootloader/optee-os-custom/lib/libutee/arch/arm/user_ta_entry.c:275
    21d4:	4604      	mov	r4, r0
/home/aom1/Work/Linux/target/STM32MP1-DK2/bootloader/optee-os-custom/lib/libutee/arch/arm/user_ta_entry.c:279
    21d6:	fa26 fe03 	lsr.w	lr, r6, r3
/home/aom1/Work/Linux/target/STM32MP1-DK2/bootloader/optee-os-custom/lib/libutee/arch/arm/user_ta_entry.c:276
    21da:	f8d2 c008 	ldr.w	ip, [r2, #8]
/home/aom1/Work/Linux/target/STM32MP1-DK2/bootloader/optee-os-custom/lib/libutee/arch/arm/user_ta_entry.c:279
    21de:	f01e 0f0c 	tst.w	lr, #12
/home/aom1/Work/Linux/target/STM32MP1-DK2/bootloader/optee-os-custom/lib/libutee/arch/arm/user_ta_entry.c:277
    21e2:	6917      	ldr	r7, [r2, #16]
/home/aom1/Work/Linux/target/STM32MP1-DK2/bootloader/optee-os-custom/lib/libutee/arch/arm/user_ta_entry.c:279
    21e4:	f00e 050f 	and.w	r5, lr, #15
    21e8:	d104      	bne.n	21f4 <from_utee_params+0x26>
    21ea:	b135      	cbz	r5, 21fa <from_utee_params+0x2c>
/home/aom1/Work/Linux/target/STM32MP1-DK2/bootloader/optee-os-custom/lib/libutee/arch/arm/user_ta_entry.c:289
    21ec:	f840 c013 	str.w	ip, [r0, r3, lsl #1]
/home/aom1/Work/Linux/target/STM32MP1-DK2/bootloader/optee-os-custom/lib/libutee/arch/arm/user_ta_entry.c:290
    21f0:	6067      	str	r7, [r4, #4]
/home/aom1/Work/Linux/target/STM32MP1-DK2/bootloader/optee-os-custom/lib/libutee/arch/arm/user_ta_entry.c:291
    21f2:	e002      	b.n	21fa <from_utee_params+0x2c>
/home/aom1/Work/Linux/target/STM32MP1-DK2/bootloader/optee-os-custom/lib/libutee/arch/arm/user_ta_entry.c:279
    21f4:	3d05      	subs	r5, #5
    21f6:	2d02      	cmp	r5, #2
    21f8:	d9f8      	bls.n	21ec <from_utee_params+0x1e>
/home/aom1/Work/Linux/target/STM32MP1-DK2/bootloader/optee-os-custom/lib/libutee/arch/arm/user_ta_entry.c:275 (discriminator 2)
    21fa:	3304      	adds	r3, #4
    21fc:	3210      	adds	r2, #16
    21fe:	2b10      	cmp	r3, #16
    2200:	f104 0408 	add.w	r4, r4, #8
    2204:	d1e7      	bne.n	21d6 <from_utee_params+0x8>
/home/aom1/Work/Linux/target/STM32MP1-DK2/bootloader/optee-os-custom/lib/libutee/arch/arm/user_ta_entry.c:298
    2206:	600e      	str	r6, [r1, #0]
/home/aom1/Work/Linux/target/STM32MP1-DK2/bootloader/optee-os-custom/lib/libutee/arch/arm/user_ta_entry.c:299
    2208:	bdf0      	pop	{r4, r5, r6, r7, pc}

0000220a <_init_iterate_phdr_cb>:
_init_iterate_phdr_cb():
/home/aom1/Work/Linux/target/STM32MP1-DK2/bootloader/optee-os-custom/lib/libutee/arch/arm/user_ta_entry.c:55
    220a:	b5f7      	push	{r0, r1, r2, r4, r5, r6, r7, lr}
    220c:	4604      	mov	r4, r0
/home/aom1/Work/Linux/target/STM32MP1-DK2/bootloader/optee-os-custom/lib/libutee/arch/arm/user_ta_entry.c:59
    220e:	2030      	movs	r0, #48	; 0x30
/home/aom1/Work/Linux/target/STM32MP1-DK2/bootloader/optee-os-custom/lib/libutee/arch/arm/user_ta_entry.c:55
    2210:	4617      	mov	r7, r2
/home/aom1/Work/Linux/target/STM32MP1-DK2/bootloader/optee-os-custom/lib/libutee/arch/arm/user_ta_entry.c:59
    2212:	f004 fc91 	bl	6b38 <malloc>
/home/aom1/Work/Linux/target/STM32MP1-DK2/bootloader/optee-os-custom/lib/libutee/arch/arm/user_ta_entry.c:60
    2216:	4606      	mov	r6, r0
    2218:	b958      	cbnz	r0, 2232 <_init_iterate_phdr_cb+0x28>
/home/aom1/Work/Linux/target/STM32MP1-DK2/bootloader/optee-os-custom/lib/libutee/arch/arm/user_ta_entry.c:61
    221a:	4b11      	ldr	r3, [pc, #68]	; (2260 <_init_iterate_phdr_cb+0x56>)
    221c:	213d      	movs	r1, #61	; 0x3d
    221e:	4811      	ldr	r0, [pc, #68]	; (2264 <_init_iterate_phdr_cb+0x5a>)
    2220:	447b      	add	r3, pc
    2222:	9300      	str	r3, [sp, #0]
    2224:	2301      	movs	r3, #1
    2226:	4478      	add	r0, pc
    2228:	461a      	mov	r2, r3
    222a:	f7fe f99f 	bl	56c <trace_printf>
/home/aom1/Work/Linux/target/STM32MP1-DK2/bootloader/optee-os-custom/lib/libutee/arch/arm/user_ta_entry.c:62
    222e:	f000 f983 	bl	2538 <abort>
/home/aom1/Work/Linux/target/STM32MP1-DK2/bootloader/optee-os-custom/lib/libutee/arch/arm/user_ta_entry.c:64
    2232:	4605      	mov	r5, r0
    2234:	cc0f      	ldmia	r4!, {r0, r1, r2, r3}
    2236:	c50f      	stmia	r5!, {r0, r1, r2, r3}
    2238:	cc0f      	ldmia	r4!, {r0, r1, r2, r3}
    223a:	c50f      	stmia	r5!, {r0, r1, r2, r3}
/home/aom1/Work/Linux/target/STM32MP1-DK2/bootloader/optee-os-custom/lib/libutee/arch/arm/user_ta_entry.c:65
    223c:	4b0a      	ldr	r3, [pc, #40]	; (2268 <_init_iterate_phdr_cb+0x5e>)
/home/aom1/Work/Linux/target/STM32MP1-DK2/bootloader/optee-os-custom/lib/libutee/arch/arm/user_ta_entry.c:64
    223e:	e894 0003 	ldmia.w	r4, {r0, r1}
/home/aom1/Work/Linux/target/STM32MP1-DK2/bootloader/optee-os-custom/lib/libutee/arch/arm/user_ta_entry.c:65
    2242:	447b      	add	r3, pc
/home/aom1/Work/Linux/target/STM32MP1-DK2/bootloader/optee-os-custom/lib/libutee/arch/arm/user_ta_entry.c:64
    2244:	e885 0003 	stmia.w	r5, {r0, r1}
/home/aom1/Work/Linux/target/STM32MP1-DK2/bootloader/optee-os-custom/lib/libutee/arch/arm/user_ta_entry.c:65
    2248:	68da      	ldr	r2, [r3, #12]
    224a:	2000      	movs	r0, #0
    224c:	62b0      	str	r0, [r6, #40]	; 0x28
    224e:	62f2      	str	r2, [r6, #44]	; 0x2c
    2250:	6016      	str	r6, [r2, #0]
    2252:	3628      	adds	r6, #40	; 0x28
    2254:	60de      	str	r6, [r3, #12]
/home/aom1/Work/Linux/target/STM32MP1-DK2/bootloader/optee-os-custom/lib/libutee/arch/arm/user_ta_entry.c:66
    2256:	683b      	ldr	r3, [r7, #0]
    2258:	3301      	adds	r3, #1
    225a:	603b      	str	r3, [r7, #0]
/home/aom1/Work/Linux/target/STM32MP1-DK2/bootloader/optee-os-custom/lib/libutee/arch/arm/user_ta_entry.c:68
    225c:	b003      	add	sp, #12
    225e:	bdf0      	pop	{r4, r5, r6, r7, pc}
    2260:	000054ed 	.word	0x000054ed
    2264:	00005500 	.word	0x00005500
    2268:	00006fda 	.word	0x00006fda

0000226c <__utee_call_elf_init_fn>:
__utee_call_elf_init_fn():
/home/aom1/Work/Linux/target/STM32MP1-DK2/bootloader/optee-os-custom/lib/libutee/arch/arm/user_ta_entry.c:111
    226c:	4827      	ldr	r0, [pc, #156]	; (230c <__utee_call_elf_init_fn+0xa0>)
/home/aom1/Work/Linux/target/STM32MP1-DK2/bootloader/optee-os-custom/lib/libutee/arch/arm/user_ta_entry.c:102
    226e:	e92d 43f0 	stmdb	sp!, {r4, r5, r6, r7, r8, r9, lr}
    2272:	b087      	sub	sp, #28
/home/aom1/Work/Linux/target/STM32MP1-DK2/bootloader/optee-os-custom/lib/libutee/arch/arm/user_ta_entry.c:111
    2274:	4478      	add	r0, pc
/home/aom1/Work/Linux/target/STM32MP1-DK2/bootloader/optee-os-custom/lib/libutee/arch/arm/user_ta_entry.c:103
    2276:	2400      	movs	r4, #0
    2278:	9403      	str	r4, [sp, #12]
/home/aom1/Work/Linux/target/STM32MP1-DK2/bootloader/optee-os-custom/lib/libutee/arch/arm/user_ta_entry.c:111
    227a:	a904      	add	r1, sp, #16
/home/aom1/Work/Linux/target/STM32MP1-DK2/bootloader/optee-os-custom/lib/libutee/arch/arm/user_ta_entry.c:105
    227c:	e9cd 4404 	strd	r4, r4, [sp, #16]
/home/aom1/Work/Linux/target/STM32MP1-DK2/bootloader/optee-os-custom/lib/libutee/arch/arm/user_ta_entry.c:115
    2280:	4f23      	ldr	r7, [pc, #140]	; (2310 <__utee_call_elf_init_fn+0xa4>)
/home/aom1/Work/Linux/target/STM32MP1-DK2/bootloader/optee-os-custom/lib/libutee/arch/arm/user_ta_entry.c:111
    2282:	f001 fb13 	bl	38ac <dl_iterate_phdr>
/home/aom1/Work/Linux/target/STM32MP1-DK2/bootloader/optee-os-custom/lib/libutee/arch/arm/user_ta_entry.c:114
    2286:	4b23      	ldr	r3, [pc, #140]	; (2314 <__utee_call_elf_init_fn+0xa8>)
/home/aom1/Work/Linux/target/STM32MP1-DK2/bootloader/optee-os-custom/lib/libutee/arch/arm/user_ta_entry.c:117
    2288:	f10d 080c 	add.w	r8, sp, #12
/home/aom1/Work/Linux/target/STM32MP1-DK2/bootloader/optee-os-custom/lib/libutee/arch/arm/user_ta_entry.c:115
    228c:	447f      	add	r7, pc
/home/aom1/Work/Linux/target/STM32MP1-DK2/bootloader/optee-os-custom/lib/libutee/arch/arm/user_ta_entry.c:117
    228e:	f10d 0914 	add.w	r9, sp, #20
/home/aom1/Work/Linux/target/STM32MP1-DK2/bootloader/optee-os-custom/lib/libutee/arch/arm/user_ta_entry.c:114
    2292:	447b      	add	r3, pc
    2294:	68db      	ldr	r3, [r3, #12]
    2296:	685b      	ldr	r3, [r3, #4]
    2298:	681e      	ldr	r6, [r3, #0]
/home/aom1/Work/Linux/target/STM32MP1-DK2/bootloader/optee-os-custom/lib/libutee/arch/arm/user_ta_entry.c:115 (discriminator 1)
    229a:	683a      	ldr	r2, [r7, #0]
/home/aom1/Work/Linux/target/STM32MP1-DK2/bootloader/optee-os-custom/lib/libutee/arch/arm/user_ta_entry.c:114 (discriminator 1)
    229c:	b976      	cbnz	r6, 22bc <__utee_call_elf_init_fn+0x50>
/home/aom1/Work/Linux/target/STM32MP1-DK2/bootloader/optee-os-custom/lib/libutee/arch/arm/user_ta_entry.c:125
    229e:	4b1e      	ldr	r3, [pc, #120]	; (2318 <__utee_call_elf_init_fn+0xac>)
    22a0:	4414      	add	r4, r2
    22a2:	447b      	add	r3, pc
/home/aom1/Work/Linux/target/STM32MP1-DK2/bootloader/optee-os-custom/lib/libutee/arch/arm/user_ta_entry.c:128
    22a4:	4d1d      	ldr	r5, [pc, #116]	; (231c <__utee_call_elf_init_fn+0xb0>)
/home/aom1/Work/Linux/target/STM32MP1-DK2/bootloader/optee-os-custom/lib/libutee/arch/arm/user_ta_entry.c:125
    22a6:	601c      	str	r4, [r3, #0]
/home/aom1/Work/Linux/target/STM32MP1-DK2/bootloader/optee-os-custom/lib/libutee/arch/arm/user_ta_entry.c:127
    22a8:	4b1d      	ldr	r3, [pc, #116]	; (2320 <__utee_call_elf_init_fn+0xb4>)
/home/aom1/Work/Linux/target/STM32MP1-DK2/bootloader/optee-os-custom/lib/libutee/arch/arm/user_ta_entry.c:128
    22aa:	447d      	add	r5, pc
/home/aom1/Work/Linux/target/STM32MP1-DK2/bootloader/optee-os-custom/lib/libutee/arch/arm/user_ta_entry.c:127
    22ac:	447b      	add	r3, pc
    22ae:	6898      	ldr	r0, [r3, #8]
/home/aom1/Work/Linux/target/STM32MP1-DK2/bootloader/optee-os-custom/lib/libutee/arch/arm/user_ta_entry.c:127 (discriminator 2)
    22b0:	b348      	cbz	r0, 2306 <__utee_call_elf_init_fn+0x9a>
/home/aom1/Work/Linux/target/STM32MP1-DK2/bootloader/optee-os-custom/lib/libutee/arch/arm/user_ta_entry.c:128 (discriminator 3)
    22b2:	e9d0 430a 	ldrd	r4, r3, [r0, #40]	; 0x28
    22b6:	b9fc      	cbnz	r4, 22f8 <__utee_call_elf_init_fn+0x8c>
/home/aom1/Work/Linux/target/STM32MP1-DK2/bootloader/optee-os-custom/lib/libutee/arch/arm/user_ta_entry.c:128 (discriminator 2)
    22b8:	60eb      	str	r3, [r5, #12]
    22ba:	e01e      	b.n	22fa <__utee_call_elf_init_fn+0x8e>
/home/aom1/Work/Linux/target/STM32MP1-DK2/bootloader/optee-os-custom/lib/libutee/arch/arm/user_ta_entry.c:115
    22bc:	9b04      	ldr	r3, [sp, #16]
    22be:	1a9b      	subs	r3, r3, r2
    22c0:	42a3      	cmp	r3, r4
    22c2:	d0ec      	beq.n	229e <__utee_call_elf_init_fn+0x32>
/home/aom1/Work/Linux/target/STM32MP1-DK2/bootloader/optee-os-custom/lib/libutee/arch/arm/user_ta_entry.c:117
    22c4:	f8cd 9000 	str.w	r9, [sp]
    22c8:	4643      	mov	r3, r8
    22ca:	221b      	movs	r2, #27
    22cc:	2119      	movs	r1, #25
    22ce:	4630      	mov	r0, r6
/home/aom1/Work/Linux/target/STM32MP1-DK2/bootloader/optee-os-custom/lib/libutee/arch/arm/user_ta_entry.c:119
    22d0:	2500      	movs	r5, #0
/home/aom1/Work/Linux/target/STM32MP1-DK2/bootloader/optee-os-custom/lib/libutee/arch/arm/user_ta_entry.c:117
    22d2:	f7ff fef3 	bl	20bc <_get_fn_array>
/home/aom1/Work/Linux/target/STM32MP1-DK2/bootloader/optee-os-custom/lib/libutee/arch/arm/user_ta_entry.c:119 (discriminator 1)
    22d6:	9b05      	ldr	r3, [sp, #20]
    22d8:	42ab      	cmp	r3, r5
    22da:	d807      	bhi.n	22ec <__utee_call_elf_init_fn+0x80>
/home/aom1/Work/Linux/target/STM32MP1-DK2/bootloader/optee-os-custom/lib/libutee/arch/arm/user_ta_entry.c:121 (discriminator 2)
    22dc:	2300      	movs	r3, #0
/home/aom1/Work/Linux/target/STM32MP1-DK2/bootloader/optee-os-custom/lib/libutee/arch/arm/user_ta_entry.c:123 (discriminator 2)
    22de:	3401      	adds	r4, #1
/home/aom1/Work/Linux/target/STM32MP1-DK2/bootloader/optee-os-custom/lib/libutee/arch/arm/user_ta_entry.c:121 (discriminator 2)
    22e0:	9303      	str	r3, [sp, #12]
/home/aom1/Work/Linux/target/STM32MP1-DK2/bootloader/optee-os-custom/lib/libutee/arch/arm/user_ta_entry.c:122 (discriminator 2)
    22e2:	9305      	str	r3, [sp, #20]
/home/aom1/Work/Linux/target/STM32MP1-DK2/bootloader/optee-os-custom/lib/libutee/arch/arm/user_ta_entry.c:114 (discriminator 2)
    22e4:	6af3      	ldr	r3, [r6, #44]	; 0x2c
    22e6:	685b      	ldr	r3, [r3, #4]
    22e8:	681e      	ldr	r6, [r3, #0]
    22ea:	e7d6      	b.n	229a <__utee_call_elf_init_fn+0x2e>
/home/aom1/Work/Linux/target/STM32MP1-DK2/bootloader/optee-os-custom/lib/libutee/arch/arm/user_ta_entry.c:120 (discriminator 3)
    22ec:	9b03      	ldr	r3, [sp, #12]
    22ee:	f853 3025 	ldr.w	r3, [r3, r5, lsl #2]
/home/aom1/Work/Linux/target/STM32MP1-DK2/bootloader/optee-os-custom/lib/libutee/arch/arm/user_ta_entry.c:119 (discriminator 3)
    22f2:	3501      	adds	r5, #1
/home/aom1/Work/Linux/target/STM32MP1-DK2/bootloader/optee-os-custom/lib/libutee/arch/arm/user_ta_entry.c:120 (discriminator 3)
    22f4:	4798      	blx	r3
/home/aom1/Work/Linux/target/STM32MP1-DK2/bootloader/optee-os-custom/lib/libutee/arch/arm/user_ta_entry.c:119 (discriminator 3)
    22f6:	e7ee      	b.n	22d6 <__utee_call_elf_init_fn+0x6a>
/home/aom1/Work/Linux/target/STM32MP1-DK2/bootloader/optee-os-custom/lib/libutee/arch/arm/user_ta_entry.c:128 (discriminator 1)
    22f8:	62e3      	str	r3, [r4, #44]	; 0x2c
/home/aom1/Work/Linux/target/STM32MP1-DK2/bootloader/optee-os-custom/lib/libutee/arch/arm/user_ta_entry.c:128 (discriminator 4)
    22fa:	6ac3      	ldr	r3, [r0, #44]	; 0x2c
    22fc:	601c      	str	r4, [r3, #0]
/home/aom1/Work/Linux/target/STM32MP1-DK2/bootloader/optee-os-custom/lib/libutee/arch/arm/user_ta_entry.c:129 (discriminator 4)
    22fe:	f004 fc53 	bl	6ba8 <free>
/home/aom1/Work/Linux/target/STM32MP1-DK2/bootloader/optee-os-custom/lib/libutee/arch/arm/user_ta_entry.c:127 (discriminator 4)
    2302:	4620      	mov	r0, r4
    2304:	e7d4      	b.n	22b0 <__utee_call_elf_init_fn+0x44>
/home/aom1/Work/Linux/target/STM32MP1-DK2/bootloader/optee-os-custom/lib/libutee/arch/arm/user_ta_entry.c:131
    2306:	b007      	add	sp, #28
    2308:	e8bd 83f0 	ldmia.w	sp!, {r4, r5, r6, r7, r8, r9, pc}
    230c:	ffffff93 	.word	0xffffff93
    2310:	00007008 	.word	0x00007008
    2314:	00006f8a 	.word	0x00006f8a
    2318:	00006ff2 	.word	0x00006ff2
    231c:	00006f72 	.word	0x00006f72
    2320:	00006f70 	.word	0x00006f70

00002324 <__utee_call_elf_fini_fn>:
__utee_call_elf_fini_fn():
/home/aom1/Work/Linux/target/STM32MP1-DK2/bootloader/optee-os-custom/lib/libutee/arch/arm/user_ta_entry.c:150
    2324:	4802      	ldr	r0, [pc, #8]	; (2330 <__utee_call_elf_fini_fn+0xc>)
    2326:	2100      	movs	r1, #0
    2328:	4478      	add	r0, pc
    232a:	f001 babf 	b.w	38ac <dl_iterate_phdr>
    232e:	bf00      	nop
    2330:	fffffdfb 	.word	0xfffffdfb

00002334 <ta_header_remove_session>:
ta_header_remove_session():
/home/aom1/Work/Linux/target/STM32MP1-DK2/bootloader/optee-os-custom/lib/libutee/arch/arm/user_ta_entry.c:224
    2334:	4b15      	ldr	r3, [pc, #84]	; (238c <ta_header_remove_session+0x58>)
/home/aom1/Work/Linux/target/STM32MP1-DK2/bootloader/optee-os-custom/lib/libutee/arch/arm/user_ta_entry.c:220
    2336:	4602      	mov	r2, r0
    2338:	b510      	push	{r4, lr}
/home/aom1/Work/Linux/target/STM32MP1-DK2/bootloader/optee-os-custom/lib/libutee/arch/arm/user_ta_entry.c:224
    233a:	447b      	add	r3, pc
/home/aom1/Work/Linux/target/STM32MP1-DK2/bootloader/optee-os-custom/lib/libutee/arch/arm/user_ta_entry.c:220
    233c:	4c14      	ldr	r4, [pc, #80]	; (2390 <ta_header_remove_session+0x5c>)
/home/aom1/Work/Linux/target/STM32MP1-DK2/bootloader/optee-os-custom/lib/libutee/arch/arm/user_ta_entry.c:224
    233e:	6818      	ldr	r0, [r3, #0]
/home/aom1/Work/Linux/target/STM32MP1-DK2/bootloader/optee-os-custom/lib/libutee/arch/arm/user_ta_entry.c:220
    2340:	447c      	add	r4, pc
/home/aom1/Work/Linux/target/STM32MP1-DK2/bootloader/optee-os-custom/lib/libutee/arch/arm/user_ta_entry.c:224 (discriminator 1)
    2342:	b900      	cbnz	r0, 2346 <ta_header_remove_session+0x12>
/home/aom1/Work/Linux/target/STM32MP1-DK2/bootloader/optee-os-custom/lib/libutee/arch/arm/user_ta_entry.c:238
    2344:	bd10      	pop	{r4, pc}
/home/aom1/Work/Linux/target/STM32MP1-DK2/bootloader/optee-os-custom/lib/libutee/arch/arm/user_ta_entry.c:225
    2346:	6801      	ldr	r1, [r0, #0]
/home/aom1/Work/Linux/target/STM32MP1-DK2/bootloader/optee-os-custom/lib/libutee/arch/arm/user_ta_entry.c:226
    2348:	6883      	ldr	r3, [r0, #8]
/home/aom1/Work/Linux/target/STM32MP1-DK2/bootloader/optee-os-custom/lib/libutee/arch/arm/user_ta_entry.c:225
    234a:	4291      	cmp	r1, r2
    234c:	d11c      	bne.n	2388 <ta_header_remove_session+0x54>
/home/aom1/Work/Linux/target/STM32MP1-DK2/bootloader/optee-os-custom/lib/libutee/arch/arm/user_ta_entry.c:226
    234e:	68c2      	ldr	r2, [r0, #12]
    2350:	b1b3      	cbz	r3, 2380 <ta_header_remove_session+0x4c>
/home/aom1/Work/Linux/target/STM32MP1-DK2/bootloader/optee-os-custom/lib/libutee/arch/arm/user_ta_entry.c:226 (discriminator 1)
    2352:	60da      	str	r2, [r3, #12]
/home/aom1/Work/Linux/target/STM32MP1-DK2/bootloader/optee-os-custom/lib/libutee/arch/arm/user_ta_entry.c:226 (discriminator 4)
    2354:	68c2      	ldr	r2, [r0, #12]
    2356:	6013      	str	r3, [r2, #0]
/home/aom1/Work/Linux/target/STM32MP1-DK2/bootloader/optee-os-custom/lib/libutee/arch/arm/user_ta_entry.c:227 (discriminator 4)
    2358:	f7fe ff2e 	bl	11b8 <TEE_Free>
/home/aom1/Work/Linux/target/STM32MP1-DK2/bootloader/optee-os-custom/lib/libutee/arch/arm/user_ta_entry.c:232 (discriminator 4)
    235c:	4a0d      	ldr	r2, [pc, #52]	; (2394 <ta_header_remove_session+0x60>)
/home/aom1/Work/Linux/target/STM32MP1-DK2/bootloader/optee-os-custom/lib/libutee/arch/arm/user_ta_entry.c:230 (discriminator 4)
    235e:	4b0e      	ldr	r3, [pc, #56]	; (2398 <ta_header_remove_session+0x64>)
/home/aom1/Work/Linux/target/STM32MP1-DK2/bootloader/optee-os-custom/lib/libutee/arch/arm/user_ta_entry.c:232 (discriminator 4)
    2360:	447a      	add	r2, pc
/home/aom1/Work/Linux/target/STM32MP1-DK2/bootloader/optee-os-custom/lib/libutee/arch/arm/user_ta_entry.c:230 (discriminator 4)
    2362:	58e3      	ldr	r3, [r4, r3]
/home/aom1/Work/Linux/target/STM32MP1-DK2/bootloader/optee-os-custom/lib/libutee/arch/arm/user_ta_entry.c:232 (discriminator 4)
    2364:	6812      	ldr	r2, [r2, #0]
/home/aom1/Work/Linux/target/STM32MP1-DK2/bootloader/optee-os-custom/lib/libutee/arch/arm/user_ta_entry.c:230 (discriminator 4)
    2366:	695b      	ldr	r3, [r3, #20]
/home/aom1/Work/Linux/target/STM32MP1-DK2/bootloader/optee-os-custom/lib/libutee/arch/arm/user_ta_entry.c:232 (discriminator 4)
    2368:	2a00      	cmp	r2, #0
    236a:	d1eb      	bne.n	2344 <ta_header_remove_session+0x10>
/home/aom1/Work/Linux/target/STM32MP1-DK2/bootloader/optee-os-custom/lib/libutee/arch/arm/user_ta_entry.c:230 (discriminator 1)
    236c:	f003 0314 	and.w	r3, r3, #20
/home/aom1/Work/Linux/target/STM32MP1-DK2/bootloader/optee-os-custom/lib/libutee/arch/arm/user_ta_entry.c:232 (discriminator 1)
    2370:	2b14      	cmp	r3, #20
    2372:	d0e7      	beq.n	2344 <ta_header_remove_session+0x10>
uninit_instance():
/home/aom1/Work/Linux/target/STM32MP1-DK2/bootloader/optee-os-custom/lib/libutee/arch/arm/user_ta_entry.c:167
    2374:	f7fd fe9c 	bl	b0 <TA_DestroyEntryPoint>
ta_header_remove_session():
/home/aom1/Work/Linux/target/STM32MP1-DK2/bootloader/optee-os-custom/lib/libutee/arch/arm/user_ta_entry.c:238
    2378:	e8bd 4010 	ldmia.w	sp!, {r4, lr}
uninit_instance():
/home/aom1/Work/Linux/target/STM32MP1-DK2/bootloader/optee-os-custom/lib/libutee/arch/arm/user_ta_entry.c:168
    237c:	f7ff bfd2 	b.w	2324 <__utee_call_elf_fini_fn>
ta_header_remove_session():
/home/aom1/Work/Linux/target/STM32MP1-DK2/bootloader/optee-os-custom/lib/libutee/arch/arm/user_ta_entry.c:226 (discriminator 2)
    2380:	4906      	ldr	r1, [pc, #24]	; (239c <ta_header_remove_session+0x68>)
    2382:	4479      	add	r1, pc
    2384:	604a      	str	r2, [r1, #4]
    2386:	e7e5      	b.n	2354 <ta_header_remove_session+0x20>
/home/aom1/Work/Linux/target/STM32MP1-DK2/bootloader/optee-os-custom/lib/libutee/arch/arm/user_ta_entry.c:226
    2388:	4618      	mov	r0, r3
    238a:	e7da      	b.n	2342 <ta_header_remove_session+0xe>
    238c:	00006ee2 	.word	0x00006ee2
    2390:	00006d44 	.word	0x00006d44
    2394:	00006ebc 	.word	0x00006ebc
    2398:	00000038 	.word	0x00000038
    239c:	00006e9a 	.word	0x00006e9a

000023a0 <__utee_entry>:
__utee_entry():
/home/aom1/Work/Linux/target/STM32MP1-DK2/bootloader/optee-os-custom/lib/libutee/arch/arm/user_ta_entry.c:366
    23a0:	e92d 4ff0 	stmdb	sp!, {r4, r5, r6, r7, r8, r9, sl, fp, lr}
    23a4:	469a      	mov	sl, r3
    23a6:	4c5d      	ldr	r4, [pc, #372]	; (251c <__utee_entry+0x17c>)
/home/aom1/Work/Linux/target/STM32MP1-DK2/bootloader/optee-os-custom/lib/libutee/arch/arm/user_ta_entry.c:369
    23a8:	2801      	cmp	r0, #1
    23aa:	4b5d      	ldr	r3, [pc, #372]	; (2520 <__utee_entry+0x180>)
/home/aom1/Work/Linux/target/STM32MP1-DK2/bootloader/optee-os-custom/lib/libutee/arch/arm/user_ta_entry.c:366
    23ac:	b08b      	sub	sp, #44	; 0x2c
    23ae:	447c      	add	r4, pc
    23b0:	4688      	mov	r8, r1
    23b2:	4615      	mov	r5, r2
    23b4:	58e7      	ldr	r7, [r4, r3]
    23b6:	4b5b      	ldr	r3, [pc, #364]	; (2524 <__utee_entry+0x184>)
    23b8:	58e6      	ldr	r6, [r4, r3]
/home/aom1/Work/Linux/target/STM32MP1-DK2/bootloader/optee-os-custom/lib/libutee/arch/arm/user_ta_entry.c:369
    23ba:	d06f      	beq.n	249c <__utee_entry+0xfc>
    23bc:	2802      	cmp	r0, #2
    23be:	d079      	beq.n	24b4 <__utee_entry+0x114>
    23c0:	2800      	cmp	r0, #0
    23c2:	f040 809e 	bne.w	2502 <__utee_entry+0x162>
ta_header_add_session():
/home/aom1/Work/Linux/target/STM32MP1-DK2/bootloader/optee-os-custom/lib/libutee/arch/arm/user_ta_entry.c:195
    23c6:	4608      	mov	r0, r1
    23c8:	f7ff fec6 	bl	2158 <ta_header_get_session>
/home/aom1/Work/Linux/target/STM32MP1-DK2/bootloader/optee-os-custom/lib/libutee/arch/arm/user_ta_entry.c:198
    23cc:	2800      	cmp	r0, #0
    23ce:	d139      	bne.n	2444 <__utee_entry+0xa4>
/home/aom1/Work/Linux/target/STM32MP1-DK2/bootloader/optee-os-custom/lib/libutee/arch/arm/user_ta_entry.c:201
    23d0:	4b55      	ldr	r3, [pc, #340]	; (2528 <__utee_entry+0x188>)
    23d2:	447b      	add	r3, pc
    23d4:	791a      	ldrb	r2, [r3, #4]
    23d6:	b13a      	cbz	r2, 23e8 <__utee_entry+0x48>
/home/aom1/Work/Linux/target/STM32MP1-DK2/bootloader/optee-os-custom/lib/libutee/arch/arm/user_ta_entry.c:208
    23d8:	f04f 4100 	mov.w	r1, #2147483648	; 0x80000000
    23dc:	2010      	movs	r0, #16
    23de:	f7fe fec2 	bl	1166 <TEE_Malloc>
/home/aom1/Work/Linux/target/STM32MP1-DK2/bootloader/optee-os-custom/lib/libutee/arch/arm/user_ta_entry.c:210
    23e2:	bb18      	cbnz	r0, 242c <__utee_entry+0x8c>
/home/aom1/Work/Linux/target/STM32MP1-DK2/bootloader/optee-os-custom/lib/libutee/arch/arm/user_ta_entry.c:211
    23e4:	4c4b      	ldr	r4, [pc, #300]	; (2514 <__utee_entry+0x174>)
    23e6:	e017      	b.n	2418 <__utee_entry+0x78>
/home/aom1/Work/Linux/target/STM32MP1-DK2/bootloader/optee-os-custom/lib/libutee/arch/arm/user_ta_entry.c:202
    23e8:	2201      	movs	r2, #1
    23ea:	711a      	strb	r2, [r3, #4]
init_instance():
/home/aom1/Work/Linux/target/STM32MP1-DK2/bootloader/optee-os-custom/lib/libutee/arch/arm/user_ta_entry.c:155
    23ec:	f004 fd8f 	bl	6f0e <tahead_get_trace_level>
    23f0:	f7fe f808 	bl	404 <trace_set_level>
/home/aom1/Work/Linux/target/STM32MP1-DK2/bootloader/optee-os-custom/lib/libutee/arch/arm/user_ta_entry.c:157
    23f4:	4b4d      	ldr	r3, [pc, #308]	; (252c <__utee_entry+0x18c>)
    23f6:	4a4e      	ldr	r2, [pc, #312]	; (2530 <__utee_entry+0x190>)
    23f8:	58e3      	ldr	r3, [r4, r3]
    23fa:	58a0      	ldr	r0, [r4, r2]
    23fc:	6819      	ldr	r1, [r3, #0]
    23fe:	f004 fbfb 	bl	6bf8 <malloc_add_pool>
/home/aom1/Work/Linux/target/STM32MP1-DK2/bootloader/optee-os-custom/lib/libutee/arch/arm/user_ta_entry.c:158
    2402:	f000 fba1 	bl	2b48 <_TEE_MathAPI_Init>
/home/aom1/Work/Linux/target/STM32MP1-DK2/bootloader/optee-os-custom/lib/libutee/arch/arm/user_ta_entry.c:159
    2406:	f001 f987 	bl	3718 <__utee_tcb_init>
/home/aom1/Work/Linux/target/STM32MP1-DK2/bootloader/optee-os-custom/lib/libutee/arch/arm/user_ta_entry.c:160
    240a:	f7ff ff2f 	bl	226c <__utee_call_elf_init_fn>
/home/aom1/Work/Linux/target/STM32MP1-DK2/bootloader/optee-os-custom/lib/libutee/arch/arm/user_ta_entry.c:161
    240e:	f7fd fe4d 	bl	ac <TA_CreateEntryPoint>
ta_header_add_session():
/home/aom1/Work/Linux/target/STM32MP1-DK2/bootloader/optee-os-custom/lib/libutee/arch/arm/user_ta_entry.c:204
    2412:	4604      	mov	r4, r0
    2414:	2800      	cmp	r0, #0
    2416:	d0df      	beq.n	23d8 <__utee_entry+0x38>
ta_header_save_params():
/home/aom1/Work/Linux/target/STM32MP1-DK2/bootloader/optee-os-custom/lib/libutee/arch/arm/user_ta_entry.c:174
    2418:	2100      	movs	r1, #0
/home/aom1/Work/Linux/target/STM32MP1-DK2/bootloader/optee-os-custom/lib/libutee/arch/arm/user_ta_entry.c:179
    241a:	2220      	movs	r2, #32
/home/aom1/Work/Linux/target/STM32MP1-DK2/bootloader/optee-os-custom/lib/libutee/arch/arm/user_ta_entry.c:174
    241c:	6039      	str	r1, [r7, #0]
/home/aom1/Work/Linux/target/STM32MP1-DK2/bootloader/optee-os-custom/lib/libutee/arch/arm/user_ta_entry.c:179
    241e:	4630      	mov	r0, r6
    2420:	f004 fd77 	bl	6f12 <memset>
__utee_entry():
/home/aom1/Work/Linux/target/STM32MP1-DK2/bootloader/optee-os-custom/lib/libutee/arch/arm/user_ta_entry.c:387
    2424:	4620      	mov	r0, r4
    2426:	b00b      	add	sp, #44	; 0x2c
    2428:	e8bd 8ff0 	ldmia.w	sp!, {r4, r5, r6, r7, r8, r9, sl, fp, pc}
ta_header_add_session():
/home/aom1/Work/Linux/target/STM32MP1-DK2/bootloader/optee-os-custom/lib/libutee/arch/arm/user_ta_entry.c:212
    242c:	f8c0 8000 	str.w	r8, [r0]
/home/aom1/Work/Linux/target/STM32MP1-DK2/bootloader/optee-os-custom/lib/libutee/arch/arm/user_ta_entry.c:213
    2430:	2300      	movs	r3, #0
    2432:	6043      	str	r3, [r0, #4]
/home/aom1/Work/Linux/target/STM32MP1-DK2/bootloader/optee-os-custom/lib/libutee/arch/arm/user_ta_entry.c:214
    2434:	6083      	str	r3, [r0, #8]
    2436:	4b3f      	ldr	r3, [pc, #252]	; (2534 <__utee_entry+0x194>)
    2438:	447b      	add	r3, pc
    243a:	685a      	ldr	r2, [r3, #4]
    243c:	60c2      	str	r2, [r0, #12]
    243e:	6010      	str	r0, [r2, #0]
    2440:	3008      	adds	r0, #8
    2442:	6058      	str	r0, [r3, #4]
entry_open_session():
/home/aom1/Work/Linux/target/STM32MP1-DK2/bootloader/optee-os-custom/lib/libutee/arch/arm/user_ta_entry.c:313
    2444:	4640      	mov	r0, r8
    2446:	f7ff fe87 	bl	2158 <ta_header_get_session>
/home/aom1/Work/Linux/target/STM32MP1-DK2/bootloader/optee-os-custom/lib/libutee/arch/arm/user_ta_entry.c:314
    244a:	4683      	mov	fp, r0
    244c:	2800      	cmp	r0, #0
    244e:	d05e      	beq.n	250e <__utee_entry+0x16e>
/home/aom1/Work/Linux/target/STM32MP1-DK2/bootloader/optee-os-custom/lib/libutee/arch/arm/user_ta_entry.c:317
    2450:	f10d 0908 	add.w	r9, sp, #8
    2454:	462a      	mov	r2, r5
    2456:	a901      	add	r1, sp, #4
    2458:	4648      	mov	r0, r9
ta_header_save_params():
/home/aom1/Work/Linux/target/STM32MP1-DK2/bootloader/optee-os-custom/lib/libutee/arch/arm/user_ta_entry.c:177
    245a:	4634      	mov	r4, r6
entry_open_session():
/home/aom1/Work/Linux/target/STM32MP1-DK2/bootloader/optee-os-custom/lib/libutee/arch/arm/user_ta_entry.c:317
    245c:	f7ff feb7 	bl	21ce <from_utee_params>
/home/aom1/Work/Linux/target/STM32MP1-DK2/bootloader/optee-os-custom/lib/libutee/arch/arm/user_ta_entry.c:318
    2460:	f8dd a004 	ldr.w	sl, [sp, #4]
ta_header_save_params():
/home/aom1/Work/Linux/target/STM32MP1-DK2/bootloader/optee-os-custom/lib/libutee/arch/arm/user_ta_entry.c:177
    2464:	46cc      	mov	ip, r9
    2466:	e8bc 000f 	ldmia.w	ip!, {r0, r1, r2, r3}
/home/aom1/Work/Linux/target/STM32MP1-DK2/bootloader/optee-os-custom/lib/libutee/arch/arm/user_ta_entry.c:174
    246a:	f8c7 a000 	str.w	sl, [r7]
/home/aom1/Work/Linux/target/STM32MP1-DK2/bootloader/optee-os-custom/lib/libutee/arch/arm/user_ta_entry.c:177
    246e:	c40f      	stmia	r4!, {r0, r1, r2, r3}
    2470:	e89c 000f 	ldmia.w	ip, {r0, r1, r2, r3}
    2474:	e884 000f 	stmia.w	r4, {r0, r1, r2, r3}
entry_open_session():
/home/aom1/Work/Linux/target/STM32MP1-DK2/bootloader/optee-os-custom/lib/libutee/arch/arm/user_ta_entry.c:320
    2478:	f10b 0204 	add.w	r2, fp, #4
    247c:	4649      	mov	r1, r9
    247e:	4650      	mov	r0, sl
    2480:	f7fd fe17 	bl	b2 <TA_OpenSessionEntryPoint>
    2484:	4604      	mov	r4, r0
/home/aom1/Work/Linux/target/STM32MP1-DK2/bootloader/optee-os-custom/lib/libutee/arch/arm/user_ta_entry.c:323
    2486:	464a      	mov	r2, r9
    2488:	4651      	mov	r1, sl
    248a:	4628      	mov	r0, r5
    248c:	f7ff fe72 	bl	2174 <to_utee_params>
/home/aom1/Work/Linux/target/STM32MP1-DK2/bootloader/optee-os-custom/lib/libutee/arch/arm/user_ta_entry.c:325
    2490:	2c00      	cmp	r4, #0
    2492:	d0c1      	beq.n	2418 <__utee_entry+0x78>
/home/aom1/Work/Linux/target/STM32MP1-DK2/bootloader/optee-os-custom/lib/libutee/arch/arm/user_ta_entry.c:326
    2494:	4640      	mov	r0, r8
    2496:	f7ff ff4d 	bl	2334 <ta_header_remove_session>
    249a:	e7bd      	b.n	2418 <__utee_entry+0x78>
entry_close_session():
/home/aom1/Work/Linux/target/STM32MP1-DK2/bootloader/optee-os-custom/lib/libutee/arch/arm/user_ta_entry.c:332
    249c:	4608      	mov	r0, r1
    249e:	f7ff fe5b 	bl	2158 <ta_header_get_session>
/home/aom1/Work/Linux/target/STM32MP1-DK2/bootloader/optee-os-custom/lib/libutee/arch/arm/user_ta_entry.c:334
    24a2:	b3a0      	cbz	r0, 250e <__utee_entry+0x16e>
/home/aom1/Work/Linux/target/STM32MP1-DK2/bootloader/optee-os-custom/lib/libutee/arch/arm/user_ta_entry.c:337
    24a4:	6840      	ldr	r0, [r0, #4]
/home/aom1/Work/Linux/target/STM32MP1-DK2/bootloader/optee-os-custom/lib/libutee/arch/arm/user_ta_entry.c:340
    24a6:	2400      	movs	r4, #0
/home/aom1/Work/Linux/target/STM32MP1-DK2/bootloader/optee-os-custom/lib/libutee/arch/arm/user_ta_entry.c:337
    24a8:	f7fd fe05 	bl	b6 <TA_CloseSessionEntryPoint>
/home/aom1/Work/Linux/target/STM32MP1-DK2/bootloader/optee-os-custom/lib/libutee/arch/arm/user_ta_entry.c:339
    24ac:	4640      	mov	r0, r8
    24ae:	f7ff ff41 	bl	2334 <ta_header_remove_session>
/home/aom1/Work/Linux/target/STM32MP1-DK2/bootloader/optee-os-custom/lib/libutee/arch/arm/user_ta_entry.c:340
    24b2:	e7b1      	b.n	2418 <__utee_entry+0x78>
entry_invoke_command():
/home/aom1/Work/Linux/target/STM32MP1-DK2/bootloader/optee-os-custom/lib/libutee/arch/arm/user_ta_entry.c:349
    24b4:	4608      	mov	r0, r1
    24b6:	f7ff fe4f 	bl	2158 <ta_header_get_session>
/home/aom1/Work/Linux/target/STM32MP1-DK2/bootloader/optee-os-custom/lib/libutee/arch/arm/user_ta_entry.c:351
    24ba:	4683      	mov	fp, r0
    24bc:	b338      	cbz	r0, 250e <__utee_entry+0x16e>
/home/aom1/Work/Linux/target/STM32MP1-DK2/bootloader/optee-os-custom/lib/libutee/arch/arm/user_ta_entry.c:354
    24be:	f10d 0808 	add.w	r8, sp, #8
    24c2:	462a      	mov	r2, r5
    24c4:	a901      	add	r1, sp, #4
    24c6:	4640      	mov	r0, r8
ta_header_save_params():
/home/aom1/Work/Linux/target/STM32MP1-DK2/bootloader/optee-os-custom/lib/libutee/arch/arm/user_ta_entry.c:177
    24c8:	4634      	mov	r4, r6
entry_invoke_command():
/home/aom1/Work/Linux/target/STM32MP1-DK2/bootloader/optee-os-custom/lib/libutee/arch/arm/user_ta_entry.c:354
    24ca:	f7ff fe80 	bl	21ce <from_utee_params>
/home/aom1/Work/Linux/target/STM32MP1-DK2/bootloader/optee-os-custom/lib/libutee/arch/arm/user_ta_entry.c:355
    24ce:	f8dd 9004 	ldr.w	r9, [sp, #4]
ta_header_save_params():
/home/aom1/Work/Linux/target/STM32MP1-DK2/bootloader/optee-os-custom/lib/libutee/arch/arm/user_ta_entry.c:177
    24d2:	46c4      	mov	ip, r8
    24d4:	e8bc 000f 	ldmia.w	ip!, {r0, r1, r2, r3}
/home/aom1/Work/Linux/target/STM32MP1-DK2/bootloader/optee-os-custom/lib/libutee/arch/arm/user_ta_entry.c:174
    24d8:	f8c7 9000 	str.w	r9, [r7]
/home/aom1/Work/Linux/target/STM32MP1-DK2/bootloader/optee-os-custom/lib/libutee/arch/arm/user_ta_entry.c:177
    24dc:	c40f      	stmia	r4!, {r0, r1, r2, r3}
    24de:	e89c 000f 	ldmia.w	ip, {r0, r1, r2, r3}
    24e2:	e884 000f 	stmia.w	r4, {r0, r1, r2, r3}
entry_invoke_command():
/home/aom1/Work/Linux/target/STM32MP1-DK2/bootloader/optee-os-custom/lib/libutee/arch/arm/user_ta_entry.c:357
    24e6:	464a      	mov	r2, r9
    24e8:	f8db 0004 	ldr.w	r0, [fp, #4]
    24ec:	4651      	mov	r1, sl
    24ee:	4643      	mov	r3, r8
    24f0:	f7fd fde2 	bl	b8 <TA_InvokeCommandEntryPoint>
    24f4:	4604      	mov	r4, r0
/home/aom1/Work/Linux/target/STM32MP1-DK2/bootloader/optee-os-custom/lib/libutee/arch/arm/user_ta_entry.c:360
    24f6:	4642      	mov	r2, r8
    24f8:	4649      	mov	r1, r9
    24fa:	4628      	mov	r0, r5
    24fc:	f7ff fe3a 	bl	2174 <to_utee_params>
/home/aom1/Work/Linux/target/STM32MP1-DK2/bootloader/optee-os-custom/lib/libutee/arch/arm/user_ta_entry.c:361
    2500:	e78a      	b.n	2418 <__utee_entry+0x78>
__utee_entry():
/home/aom1/Work/Linux/target/STM32MP1-DK2/bootloader/optee-os-custom/lib/libutee/arch/arm/user_ta_entry.c:381
    2502:	2000      	movs	r0, #0
/home/aom1/Work/Linux/target/STM32MP1-DK2/bootloader/optee-os-custom/lib/libutee/arch/arm/user_ta_entry.c:380
    2504:	f04f 34ff 	mov.w	r4, #4294967295	; 0xffffffff
/home/aom1/Work/Linux/target/STM32MP1-DK2/bootloader/optee-os-custom/lib/libutee/arch/arm/user_ta_entry.c:381
    2508:	f7ff fa76 	bl	19f8 <TEE_Panic>
/home/aom1/Work/Linux/target/STM32MP1-DK2/bootloader/optee-os-custom/lib/libutee/arch/arm/user_ta_entry.c:382
    250c:	e784      	b.n	2418 <__utee_entry+0x78>
entry_close_session():
/home/aom1/Work/Linux/target/STM32MP1-DK2/bootloader/optee-os-custom/lib/libutee/arch/arm/user_ta_entry.c:335
    250e:	4c02      	ldr	r4, [pc, #8]	; (2518 <__utee_entry+0x178>)
    2510:	e782      	b.n	2418 <__utee_entry+0x78>
    2512:	bf00      	nop
    2514:	ffff000c 	.word	0xffff000c
    2518:	ffff0007 	.word	0xffff0007
    251c:	00006cd6 	.word	0x00006cd6
    2520:	00000028 	.word	0x00000028
    2524:	00000030 	.word	0x00000030
    2528:	00006ec2 	.word	0x00006ec2
    252c:	0000000c 	.word	0x0000000c
    2530:	00000020 	.word	0x00000020
    2534:	00006de4 	.word	0x00006de4

00002538 <abort>:
abort():
/home/aom1/Work/Linux/target/STM32MP1-DK2/bootloader/optee-os-custom/lib/libutee/abort.c:13
    2538:	4804      	ldr	r0, [pc, #16]	; (254c <abort+0x14>)
/home/aom1/Work/Linux/target/STM32MP1-DK2/bootloader/optee-os-custom/lib/libutee/abort.c:12
    253a:	b508      	push	{r3, lr}
/home/aom1/Work/Linux/target/STM32MP1-DK2/bootloader/optee-os-custom/lib/libutee/abort.c:13
    253c:	4478      	add	r0, pc
    253e:	f7fe fbdf 	bl	d00 <puts>
/home/aom1/Work/Linux/target/STM32MP1-DK2/bootloader/optee-os-custom/lib/libutee/abort.c:14
    2542:	2000      	movs	r0, #0
    2544:	f7ff eb62 	blx	1c0c <_utee_panic>
/home/aom1/Work/Linux/target/STM32MP1-DK2/bootloader/optee-os-custom/lib/libutee/abort.c:16 (discriminator 1)
    2548:	e7fe      	b.n	2548 <abort+0x10>
    254a:	bf00      	nop
    254c:	00005200 	.word	0x00005200

00002550 <api_panic>:
api_panic():
/home/aom1/Work/Linux/target/STM32MP1-DK2/bootloader/optee-os-custom/lib/libutee/tee_api_arith_mpi.c:19
    2550:	b508      	push	{r3, lr}
    2552:	4613      	mov	r3, r2
/home/aom1/Work/Linux/target/STM32MP1-DK2/bootloader/optee-os-custom/lib/libutee/tee_api_arith_mpi.c:20
    2554:	460a      	mov	r2, r1
    2556:	4601      	mov	r1, r0
    2558:	4804      	ldr	r0, [pc, #16]	; (256c <api_panic+0x1c>)
    255a:	4478      	add	r0, pc
    255c:	f7fe fbb3 	bl	cc6 <printf>
/home/aom1/Work/Linux/target/STM32MP1-DK2/bootloader/optee-os-custom/lib/libutee/tee_api_arith_mpi.c:21
    2560:	4801      	ldr	r0, [pc, #4]	; (2568 <api_panic+0x18>)
    2562:	f7ff fa49 	bl	19f8 <TEE_Panic>
/home/aom1/Work/Linux/target/STM32MP1-DK2/bootloader/optee-os-custom/lib/libutee/tee_api_arith_mpi.c:22 (discriminator 1)
    2566:	e7fe      	b.n	2566 <api_panic+0x16>
    2568:	00b16127 	.word	0x00b16127
    256c:	000051e9 	.word	0x000051e9

00002570 <mpi_panic>:
mpi_panic():
/home/aom1/Work/Linux/target/STM32MP1-DK2/bootloader/optee-os-custom/lib/libutee/tee_api_arith_mpi.c:29
    2570:	b508      	push	{r3, lr}
    2572:	4613      	mov	r3, r2
/home/aom1/Work/Linux/target/STM32MP1-DK2/bootloader/optee-os-custom/lib/libutee/tee_api_arith_mpi.c:30
    2574:	460a      	mov	r2, r1
    2576:	4601      	mov	r1, r0
    2578:	4804      	ldr	r0, [pc, #16]	; (258c <mpi_panic+0x1c>)
    257a:	4478      	add	r0, pc
    257c:	f7fe fba3 	bl	cc6 <printf>
/home/aom1/Work/Linux/target/STM32MP1-DK2/bootloader/optee-os-custom/lib/libutee/tee_api_arith_mpi.c:31
    2580:	4801      	ldr	r0, [pc, #4]	; (2588 <mpi_panic+0x18>)
    2582:	f7ff fa39 	bl	19f8 <TEE_Panic>
/home/aom1/Work/Linux/target/STM32MP1-DK2/bootloader/optee-os-custom/lib/libutee/tee_api_arith_mpi.c:32 (discriminator 1)
    2586:	e7fe      	b.n	2586 <mpi_panic+0x16>
    2588:	00b16127 	.word	0x00b16127
    258c:	000051e9 	.word	0x000051e9

00002590 <get_mpi>:
get_mpi():
/home/aom1/Work/Linux/target/STM32MP1-DK2/bootloader/optee-os-custom/lib/libutee/tee_api_arith_mpi.c:86
    2590:	b5f8      	push	{r3, r4, r5, r6, r7, lr}
    2592:	460c      	mov	r4, r1
    2594:	4606      	mov	r6, r0
/home/aom1/Work/Linux/target/STM32MP1-DK2/bootloader/optee-os-custom/lib/libutee/tee_api_arith_mpi.c:101
    2596:	f001 fcd1 	bl	3f3c <mbedtls_mpi_init_mempool>
/home/aom1/Work/Linux/target/STM32MP1-DK2/bootloader/optee-os-custom/lib/libutee/tee_api_arith_mpi.c:103
    259a:	b1ec      	cbz	r4, 25d8 <get_mpi+0x48>
/home/aom1/Work/Linux/target/STM32MP1-DK2/bootloader/optee-os-custom/lib/libutee/tee_api_arith_mpi.c:106
    259c:	88e5      	ldrh	r5, [r4, #6]
/home/aom1/Work/Linux/target/STM32MP1-DK2/bootloader/optee-os-custom/lib/libutee/tee_api_arith_mpi.c:105
    259e:	f104 0708 	add.w	r7, r4, #8
/home/aom1/Work/Linux/target/STM32MP1-DK2/bootloader/optee-os-custom/lib/libutee/tee_api_arith_mpi.c:109
    25a2:	1d22      	adds	r2, r4, #4
    25a4:	b115      	cbz	r5, 25ac <get_mpi+0x1c>
/home/aom1/Work/Linux/target/STM32MP1-DK2/bootloader/optee-os-custom/lib/libutee/tee_api_arith_mpi.c:109 (discriminator 1)
    25a6:	f852 3025 	ldr.w	r3, [r2, r5, lsl #2]
    25aa:	b153      	cbz	r3, 25c2 <get_mpi+0x32>
/home/aom1/Work/Linux/target/STM32MP1-DK2/bootloader/optee-os-custom/lib/libutee/tee_api_arith_mpi.c:112
    25ac:	4629      	mov	r1, r5
    25ae:	4630      	mov	r0, r6
    25b0:	f001 fcfa 	bl	3fa8 <mbedtls_mpi_grow>
    25b4:	4602      	mov	r2, r0
    25b6:	b130      	cbz	r0, 25c6 <get_mpi+0x36>
/home/aom1/Work/Linux/target/STM32MP1-DK2/bootloader/optee-os-custom/lib/libutee/tee_api_arith_mpi.c:112 (discriminator 1)
    25b8:	4808      	ldr	r0, [pc, #32]	; (25dc <get_mpi+0x4c>)
    25ba:	2170      	movs	r1, #112	; 0x70
    25bc:	4478      	add	r0, pc
    25be:	f7ff ffd7 	bl	2570 <mpi_panic>
/home/aom1/Work/Linux/target/STM32MP1-DK2/bootloader/optee-os-custom/lib/libutee/tee_api_arith_mpi.c:110
    25c2:	3d01      	subs	r5, #1
    25c4:	e7ee      	b.n	25a4 <get_mpi+0x14>
/home/aom1/Work/Linux/target/STM32MP1-DK2/bootloader/optee-os-custom/lib/libutee/tee_api_arith_mpi.c:113 (discriminator 2)
    25c6:	6823      	ldr	r3, [r4, #0]
/home/aom1/Work/Linux/target/STM32MP1-DK2/bootloader/optee-os-custom/lib/libutee/tee_api_arith_mpi.c:114 (discriminator 2)
    25c8:	4639      	mov	r1, r7
    25ca:	00aa      	lsls	r2, r5, #2
    25cc:	68b0      	ldr	r0, [r6, #8]
/home/aom1/Work/Linux/target/STM32MP1-DK2/bootloader/optee-os-custom/lib/libutee/tee_api_arith_mpi.c:113 (discriminator 2)
    25ce:	8033      	strh	r3, [r6, #0]
/home/aom1/Work/Linux/target/STM32MP1-DK2/bootloader/optee-os-custom/lib/libutee/tee_api_arith_mpi.c:116 (discriminator 2)
    25d0:	e8bd 40f8 	ldmia.w	sp!, {r3, r4, r5, r6, r7, lr}
/home/aom1/Work/Linux/target/STM32MP1-DK2/bootloader/optee-os-custom/lib/libutee/tee_api_arith_mpi.c:114 (discriminator 2)
    25d4:	f004 bbb2 	b.w	6d3c <memcpy>
/home/aom1/Work/Linux/target/STM32MP1-DK2/bootloader/optee-os-custom/lib/libutee/tee_api_arith_mpi.c:116
    25d8:	bdf8      	pop	{r3, r4, r5, r6, r7, pc}
    25da:	bf00      	nop
    25dc:	0000523e 	.word	0x0000523e

000025e0 <copy_mpi_to_bigint>:
copy_mpi_to_bigint():
/home/aom1/Work/Linux/target/STM32MP1-DK2/bootloader/optee-os-custom/lib/libutee/tee_api_arith_mpi.c:61
    25e0:	b538      	push	{r3, r4, r5, lr}
    25e2:	4604      	mov	r4, r0
    25e4:	4608      	mov	r0, r1
/home/aom1/Work/Linux/target/STM32MP1-DK2/bootloader/optee-os-custom/lib/libutee/tee_api_arith_mpi.c:63
    25e6:	6862      	ldr	r2, [r4, #4]
/home/aom1/Work/Linux/target/STM32MP1-DK2/bootloader/optee-os-custom/lib/libutee/tee_api_arith_mpi.c:66
    25e8:	68a1      	ldr	r1, [r4, #8]
/home/aom1/Work/Linux/target/STM32MP1-DK2/bootloader/optee-os-custom/lib/libutee/tee_api_arith_mpi.c:63
    25ea:	4613      	mov	r3, r2
/home/aom1/Work/Linux/target/STM32MP1-DK2/bootloader/optee-os-custom/lib/libutee/tee_api_arith_mpi.c:66
    25ec:	b13b      	cbz	r3, 25fe <copy_mpi_to_bigint+0x1e>
/home/aom1/Work/Linux/target/STM32MP1-DK2/bootloader/optee-os-custom/lib/libutee/tee_api_arith_mpi.c:66 (discriminator 1)
    25ee:	eb01 0583 	add.w	r5, r1, r3, lsl #2
    25f2:	f855 5c04 	ldr.w	r5, [r5, #-4]
    25f6:	b165      	cbz	r5, 2612 <copy_mpi_to_bigint+0x32>
/home/aom1/Work/Linux/target/STM32MP1-DK2/bootloader/optee-os-custom/lib/libutee/tee_api_arith_mpi.c:69
    25f8:	8885      	ldrh	r5, [r0, #4]
    25fa:	429d      	cmp	r5, r3
    25fc:	d30b      	bcc.n	2616 <copy_mpi_to_bigint+0x36>
/home/aom1/Work/Linux/target/STM32MP1-DK2/bootloader/optee-os-custom/lib/libutee/tee_api_arith_mpi.c:72
    25fe:	80c3      	strh	r3, [r0, #6]
/home/aom1/Work/Linux/target/STM32MP1-DK2/bootloader/optee-os-custom/lib/libutee/tee_api_arith_mpi.c:73
    2600:	f9b4 3000 	ldrsh.w	r3, [r4]
/home/aom1/Work/Linux/target/STM32MP1-DK2/bootloader/optee-os-custom/lib/libutee/tee_api_arith_mpi.c:74
    2604:	0092      	lsls	r2, r2, #2
/home/aom1/Work/Linux/target/STM32MP1-DK2/bootloader/optee-os-custom/lib/libutee/tee_api_arith_mpi.c:73
    2606:	f840 3b08 	str.w	r3, [r0], #8
/home/aom1/Work/Linux/target/STM32MP1-DK2/bootloader/optee-os-custom/lib/libutee/tee_api_arith_mpi.c:74
    260a:	f004 fb97 	bl	6d3c <memcpy>
/home/aom1/Work/Linux/target/STM32MP1-DK2/bootloader/optee-os-custom/lib/libutee/tee_api_arith_mpi.c:76
    260e:	2000      	movs	r0, #0
/home/aom1/Work/Linux/target/STM32MP1-DK2/bootloader/optee-os-custom/lib/libutee/tee_api_arith_mpi.c:77
    2610:	bd38      	pop	{r3, r4, r5, pc}
/home/aom1/Work/Linux/target/STM32MP1-DK2/bootloader/optee-os-custom/lib/libutee/tee_api_arith_mpi.c:67
    2612:	3b01      	subs	r3, #1
    2614:	e7ea      	b.n	25ec <copy_mpi_to_bigint+0xc>
/home/aom1/Work/Linux/target/STM32MP1-DK2/bootloader/optee-os-custom/lib/libutee/tee_api_arith_mpi.c:70
    2616:	4801      	ldr	r0, [pc, #4]	; (261c <copy_mpi_to_bigint+0x3c>)
    2618:	e7fa      	b.n	2610 <copy_mpi_to_bigint+0x30>
    261a:	bf00      	nop
    261c:	ffff300f 	.word	0xffff300f

00002620 <bigint_binary>:
bigint_binary():
/home/aom1/Work/Linux/target/STM32MP1-DK2/bootloader/optee-os-custom/lib/libutee/tee_api_arith_mpi.c:319
    2620:	e92d 4ff0 	stmdb	sp!, {r4, r5, r6, r7, r8, r9, sl, fp, lr}
    2624:	b08b      	sub	sp, #44	; 0x2c
/home/aom1/Work/Linux/target/STM32MP1-DK2/bootloader/optee-os-custom/lib/libutee/tee_api_arith_mpi.c:326
    2626:	ac01      	add	r4, sp, #4
/home/aom1/Work/Linux/target/STM32MP1-DK2/bootloader/optee-os-custom/lib/libutee/tee_api_arith_mpi.c:319
    2628:	4605      	mov	r5, r0
    262a:	468b      	mov	fp, r1
/home/aom1/Work/Linux/target/STM32MP1-DK2/bootloader/optee-os-custom/lib/libutee/tee_api_arith_mpi.c:326
    262c:	4601      	mov	r1, r0
    262e:	4620      	mov	r0, r4
/home/aom1/Work/Linux/target/STM32MP1-DK2/bootloader/optee-os-custom/lib/libutee/tee_api_arith_mpi.c:319
    2630:	4616      	mov	r6, r2
    2632:	469a      	mov	sl, r3
/home/aom1/Work/Linux/target/STM32MP1-DK2/bootloader/optee-os-custom/lib/libutee/tee_api_arith_mpi.c:326
    2634:	f7ff ffac 	bl	2590 <get_mpi>
/home/aom1/Work/Linux/target/STM32MP1-DK2/bootloader/optee-os-custom/lib/libutee/tee_api_arith_mpi.c:328
    2638:	455d      	cmp	r5, fp
    263a:	f10d 0910 	add.w	r9, sp, #16
    263e:	d01c      	beq.n	267a <bigint_binary+0x5a>
/home/aom1/Work/Linux/target/STM32MP1-DK2/bootloader/optee-os-custom/lib/libutee/tee_api_arith_mpi.c:331
    2640:	4659      	mov	r1, fp
    2642:	4648      	mov	r0, r9
/home/aom1/Work/Linux/target/STM32MP1-DK2/bootloader/optee-os-custom/lib/libutee/tee_api_arith_mpi.c:323
    2644:	464f      	mov	r7, r9
/home/aom1/Work/Linux/target/STM32MP1-DK2/bootloader/optee-os-custom/lib/libutee/tee_api_arith_mpi.c:331
    2646:	f7ff ffa3 	bl	2590 <get_mpi>
/home/aom1/Work/Linux/target/STM32MP1-DK2/bootloader/optee-os-custom/lib/libutee/tee_api_arith_mpi.c:333
    264a:	42b5      	cmp	r5, r6
    264c:	f10d 081c 	add.w	r8, sp, #28
    2650:	d015      	beq.n	267e <bigint_binary+0x5e>
/home/aom1/Work/Linux/target/STM32MP1-DK2/bootloader/optee-os-custom/lib/libutee/tee_api_arith_mpi.c:335
    2652:	45b3      	cmp	fp, r6
    2654:	d015      	beq.n	2682 <bigint_binary+0x62>
/home/aom1/Work/Linux/target/STM32MP1-DK2/bootloader/optee-os-custom/lib/libutee/tee_api_arith_mpi.c:338
    2656:	4631      	mov	r1, r6
    2658:	4640      	mov	r0, r8
/home/aom1/Work/Linux/target/STM32MP1-DK2/bootloader/optee-os-custom/lib/libutee/tee_api_arith_mpi.c:324
    265a:	4646      	mov	r6, r8
/home/aom1/Work/Linux/target/STM32MP1-DK2/bootloader/optee-os-custom/lib/libutee/tee_api_arith_mpi.c:338
    265c:	f7ff ff98 	bl	2590 <get_mpi>
/home/aom1/Work/Linux/target/STM32MP1-DK2/bootloader/optee-os-custom/lib/libutee/tee_api_arith_mpi.c:340
    2660:	4632      	mov	r2, r6
    2662:	4639      	mov	r1, r7
    2664:	4620      	mov	r0, r4
    2666:	47d0      	blx	sl
    2668:	4602      	mov	r2, r0
    266a:	b160      	cbz	r0, 2686 <bigint_binary+0x66>
/home/aom1/Work/Linux/target/STM32MP1-DK2/bootloader/optee-os-custom/lib/libutee/tee_api_arith_mpi.c:340 (discriminator 1)
    266c:	4813      	ldr	r0, [pc, #76]	; (26bc <bigint_binary+0x9c>)
    266e:	f44f 71aa 	mov.w	r1, #340	; 0x154
    2672:	4478      	add	r0, pc
/home/aom1/Work/Linux/target/STM32MP1-DK2/bootloader/optee-os-custom/lib/libutee/tee_api_arith_mpi.c:342 (discriminator 1)
    2674:	3008      	adds	r0, #8
    2676:	f7ff ff7b 	bl	2570 <mpi_panic>
/home/aom1/Work/Linux/target/STM32MP1-DK2/bootloader/optee-os-custom/lib/libutee/tee_api_arith_mpi.c:329
    267a:	4627      	mov	r7, r4
    267c:	e7e5      	b.n	264a <bigint_binary+0x2a>
/home/aom1/Work/Linux/target/STM32MP1-DK2/bootloader/optee-os-custom/lib/libutee/tee_api_arith_mpi.c:334
    267e:	4626      	mov	r6, r4
    2680:	e7ee      	b.n	2660 <bigint_binary+0x40>
/home/aom1/Work/Linux/target/STM32MP1-DK2/bootloader/optee-os-custom/lib/libutee/tee_api_arith_mpi.c:336
    2682:	463e      	mov	r6, r7
    2684:	e7ec      	b.n	2660 <bigint_binary+0x40>
/home/aom1/Work/Linux/target/STM32MP1-DK2/bootloader/optee-os-custom/lib/libutee/tee_api_arith_mpi.c:342 (discriminator 2)
    2686:	4629      	mov	r1, r5
    2688:	4620      	mov	r0, r4
    268a:	f7ff ffa9 	bl	25e0 <copy_mpi_to_bigint>
    268e:	4602      	mov	r2, r0
    2690:	b120      	cbz	r0, 269c <bigint_binary+0x7c>
/home/aom1/Work/Linux/target/STM32MP1-DK2/bootloader/optee-os-custom/lib/libutee/tee_api_arith_mpi.c:342 (discriminator 1)
    2692:	480b      	ldr	r0, [pc, #44]	; (26c0 <bigint_binary+0xa0>)
    2694:	f44f 71ab 	mov.w	r1, #342	; 0x156
    2698:	4478      	add	r0, pc
    269a:	e7eb      	b.n	2674 <bigint_binary+0x54>
/home/aom1/Work/Linux/target/STM32MP1-DK2/bootloader/optee-os-custom/lib/libutee/tee_api_arith_mpi.c:343 (discriminator 2)
    269c:	4620      	mov	r0, r4
    269e:	f001 fc61 	bl	3f64 <mbedtls_mpi_free>
/home/aom1/Work/Linux/target/STM32MP1-DK2/bootloader/optee-os-custom/lib/libutee/tee_api_arith_mpi.c:344 (discriminator 2)
    26a2:	454f      	cmp	r7, r9
    26a4:	d102      	bne.n	26ac <bigint_binary+0x8c>
/home/aom1/Work/Linux/target/STM32MP1-DK2/bootloader/optee-os-custom/lib/libutee/tee_api_arith_mpi.c:345
    26a6:	4638      	mov	r0, r7
    26a8:	f001 fc5c 	bl	3f64 <mbedtls_mpi_free>
/home/aom1/Work/Linux/target/STM32MP1-DK2/bootloader/optee-os-custom/lib/libutee/tee_api_arith_mpi.c:346
    26ac:	4546      	cmp	r6, r8
    26ae:	d102      	bne.n	26b6 <bigint_binary+0x96>
/home/aom1/Work/Linux/target/STM32MP1-DK2/bootloader/optee-os-custom/lib/libutee/tee_api_arith_mpi.c:347
    26b0:	4630      	mov	r0, r6
    26b2:	f001 fc57 	bl	3f64 <mbedtls_mpi_free>
/home/aom1/Work/Linux/target/STM32MP1-DK2/bootloader/optee-os-custom/lib/libutee/tee_api_arith_mpi.c:348
    26b6:	b00b      	add	sp, #44	; 0x2c
    26b8:	e8bd 8ff0 	ldmia.w	sp!, {r4, r5, r6, r7, r8, r9, sl, fp, pc}
    26bc:	00005188 	.word	0x00005188
    26c0:	00005162 	.word	0x00005162

000026c4 <mpi_is_odd>:
mpi_is_odd():
/home/aom1/Work/Linux/target/STM32MP1-DK2/bootloader/optee-os-custom/lib/libutee/tee_api_arith_mpi.c:592
    26c4:	2100      	movs	r1, #0
/home/aom1/Work/Linux/target/STM32MP1-DK2/bootloader/optee-os-custom/lib/libutee/tee_api_arith_mpi.c:591
    26c6:	b508      	push	{r3, lr}
/home/aom1/Work/Linux/target/STM32MP1-DK2/bootloader/optee-os-custom/lib/libutee/tee_api_arith_mpi.c:592
    26c8:	f001 fe12 	bl	42f0 <mbedtls_mpi_get_bit>
/home/aom1/Work/Linux/target/STM32MP1-DK2/bootloader/optee-os-custom/lib/libutee/tee_api_arith_mpi.c:593
    26cc:	3800      	subs	r0, #0
    26ce:	bf18      	it	ne
    26d0:	2001      	movne	r0, #1
    26d2:	bd08      	pop	{r3, pc}

000026d4 <rng_read>:
rng_read():
/home/aom1/Work/Linux/target/STM32MP1-DK2/bootloader/optee-os-custom/lib/libutee/tee_api_arith_mpi.c:756
    26d4:	4608      	mov	r0, r1
/home/aom1/Work/Linux/target/STM32MP1-DK2/bootloader/optee-os-custom/lib/libutee/tee_api_arith_mpi.c:757
    26d6:	4611      	mov	r1, r2
/home/aom1/Work/Linux/target/STM32MP1-DK2/bootloader/optee-os-custom/lib/libutee/tee_api_arith_mpi.c:756
    26d8:	b508      	push	{r3, lr}
/home/aom1/Work/Linux/target/STM32MP1-DK2/bootloader/optee-os-custom/lib/libutee/tee_api_arith_mpi.c:757
    26da:	f7ff ebfa 	blx	1ed0 <_utee_cryp_random_number_generate>
/home/aom1/Work/Linux/target/STM32MP1-DK2/bootloader/optee-os-custom/lib/libutee/tee_api_arith_mpi.c:758
    26de:	2800      	cmp	r0, #0
/home/aom1/Work/Linux/target/STM32MP1-DK2/bootloader/optee-os-custom/lib/libutee/tee_api_arith_mpi.c:760
    26e0:	bf14      	ite	ne
    26e2:	f06f 0001 	mvnne.w	r0, #1
    26e6:	2000      	moveq	r0, #0
    26e8:	bd08      	pop	{r3, pc}

000026ea <mpi_egcd>:
mpi_egcd():
/home/aom1/Work/Linux/target/STM32MP1-DK2/bootloader/optee-os-custom/lib/libutee/tee_api_arith_mpi.c:606
    26ea:	e92d 4ff0 	stmdb	sp!, {r4, r5, r6, r7, r8, r9, sl, fp, lr}
    26ee:	b09b      	sub	sp, #108	; 0x6c
get_mpi():
/home/aom1/Work/Linux/target/STM32MP1-DK2/bootloader/optee-os-custom/lib/libutee/tee_api_arith_mpi.c:101
    26f0:	f10d 0914 	add.w	r9, sp, #20
mpi_egcd():
/home/aom1/Work/Linux/target/STM32MP1-DK2/bootloader/optee-os-custom/lib/libutee/tee_api_arith_mpi.c:606
    26f4:	4606      	mov	r6, r0
    26f6:	9102      	str	r1, [sp, #8]
get_mpi():
/home/aom1/Work/Linux/target/STM32MP1-DK2/bootloader/optee-os-custom/lib/libutee/tee_api_arith_mpi.c:101
    26f8:	4648      	mov	r0, r9
mpi_egcd():
/home/aom1/Work/Linux/target/STM32MP1-DK2/bootloader/optee-os-custom/lib/libutee/tee_api_arith_mpi.c:606
    26fa:	9203      	str	r2, [sp, #12]
get_mpi():
/home/aom1/Work/Linux/target/STM32MP1-DK2/bootloader/optee-os-custom/lib/libutee/tee_api_arith_mpi.c:101
    26fc:	f10d 0820 	add.w	r8, sp, #32
mpi_egcd():
/home/aom1/Work/Linux/target/STM32MP1-DK2/bootloader/optee-os-custom/lib/libutee/tee_api_arith_mpi.c:606
    2700:	9301      	str	r3, [sp, #4]
get_mpi():
/home/aom1/Work/Linux/target/STM32MP1-DK2/bootloader/optee-os-custom/lib/libutee/tee_api_arith_mpi.c:101
    2702:	ad0b      	add	r5, sp, #44	; 0x2c
    2704:	ac0e      	add	r4, sp, #56	; 0x38
    2706:	f001 fc19 	bl	3f3c <mbedtls_mpi_init_mempool>
    270a:	4640      	mov	r0, r8
    270c:	f10d 0a44 	add.w	sl, sp, #68	; 0x44
    2710:	f10d 0b50 	add.w	fp, sp, #80	; 0x50
    2714:	f001 fc12 	bl	3f3c <mbedtls_mpi_init_mempool>
    2718:	4628      	mov	r0, r5
    271a:	af17      	add	r7, sp, #92	; 0x5c
    271c:	f001 fc0e 	bl	3f3c <mbedtls_mpi_init_mempool>
    2720:	4620      	mov	r0, r4
    2722:	f001 fc0b 	bl	3f3c <mbedtls_mpi_init_mempool>
    2726:	4650      	mov	r0, sl
    2728:	f001 fc08 	bl	3f3c <mbedtls_mpi_init_mempool>
    272c:	4658      	mov	r0, fp
    272e:	f001 fc05 	bl	3f3c <mbedtls_mpi_init_mempool>
    2732:	4638      	mov	r0, r7
    2734:	f001 fc02 	bl	3f3c <mbedtls_mpi_init_mempool>
mpi_egcd():
/home/aom1/Work/Linux/target/STM32MP1-DK2/bootloader/optee-os-custom/lib/libutee/tee_api_arith_mpi.c:625
    2738:	9824      	ldr	r0, [sp, #144]	; 0x90
    273a:	2100      	movs	r1, #0
    273c:	f002 f84b 	bl	47d6 <mbedtls_mpi_cmp_int>
    2740:	bb20      	cbnz	r0, 278c <mpi_egcd+0xa2>
/home/aom1/Work/Linux/target/STM32MP1-DK2/bootloader/optee-os-custom/lib/libutee/tee_api_arith_mpi.c:626
    2742:	9802      	ldr	r0, [sp, #8]
    2744:	2101      	movs	r1, #1
    2746:	f001 fdb7 	bl	42b8 <mbedtls_mpi_lset>
    274a:	4602      	mov	r2, r0
    274c:	b130      	cbz	r0, 275c <mpi_egcd+0x72>
/home/aom1/Work/Linux/target/STM32MP1-DK2/bootloader/optee-os-custom/lib/libutee/tee_api_arith_mpi.c:626 (discriminator 1)
    274e:	48de      	ldr	r0, [pc, #888]	; (2ac8 <mpi_egcd+0x3de>)
    2750:	f240 2172 	movw	r1, #626	; 0x272
    2754:	4478      	add	r0, pc
/home/aom1/Work/Linux/target/STM32MP1-DK2/bootloader/optee-os-custom/lib/libutee/tee_api_arith_mpi.c:627 (discriminator 1)
    2756:	3016      	adds	r0, #22
    2758:	f7ff ff0a 	bl	2570 <mpi_panic>
/home/aom1/Work/Linux/target/STM32MP1-DK2/bootloader/optee-os-custom/lib/libutee/tee_api_arith_mpi.c:627 (discriminator 2)
    275c:	4601      	mov	r1, r0
    275e:	9803      	ldr	r0, [sp, #12]
    2760:	f001 fdaa 	bl	42b8 <mbedtls_mpi_lset>
    2764:	4602      	mov	r2, r0
    2766:	b120      	cbz	r0, 2772 <mpi_egcd+0x88>
/home/aom1/Work/Linux/target/STM32MP1-DK2/bootloader/optee-os-custom/lib/libutee/tee_api_arith_mpi.c:627 (discriminator 1)
    2768:	48d8      	ldr	r0, [pc, #864]	; (2acc <mpi_egcd+0x3e2>)
    276a:	f240 2173 	movw	r1, #627	; 0x273
    276e:	4478      	add	r0, pc
    2770:	e7f1      	b.n	2756 <mpi_egcd+0x6c>
/home/aom1/Work/Linux/target/STM32MP1-DK2/bootloader/optee-os-custom/lib/libutee/tee_api_arith_mpi.c:628 (discriminator 2)
    2772:	9901      	ldr	r1, [sp, #4]
    2774:	4630      	mov	r0, r6
    2776:	f001 fcd9 	bl	412c <mbedtls_mpi_copy>
    277a:	4602      	mov	r2, r0
    277c:	2800      	cmp	r0, #0
    277e:	f000 818a 	beq.w	2a96 <mpi_egcd+0x3ac>
/home/aom1/Work/Linux/target/STM32MP1-DK2/bootloader/optee-os-custom/lib/libutee/tee_api_arith_mpi.c:628 (discriminator 1)
    2782:	48d3      	ldr	r0, [pc, #844]	; (2ad0 <mpi_egcd+0x3e6>)
    2784:	f44f 711d 	mov.w	r1, #628	; 0x274
    2788:	4478      	add	r0, pc
    278a:	e7e4      	b.n	2756 <mpi_egcd+0x6c>
/home/aom1/Work/Linux/target/STM32MP1-DK2/bootloader/optee-os-custom/lib/libutee/tee_api_arith_mpi.c:632
    278c:	9901      	ldr	r1, [sp, #4]
    278e:	4650      	mov	r0, sl
    2790:	f001 fccc 	bl	412c <mbedtls_mpi_copy>
    2794:	4602      	mov	r2, r0
    2796:	b120      	cbz	r0, 27a2 <mpi_egcd+0xb8>
/home/aom1/Work/Linux/target/STM32MP1-DK2/bootloader/optee-os-custom/lib/libutee/tee_api_arith_mpi.c:632 (discriminator 1)
    2798:	48ce      	ldr	r0, [pc, #824]	; (2ad4 <mpi_egcd+0x3ea>)
    279a:	f44f 711e 	mov.w	r1, #632	; 0x278
    279e:	4478      	add	r0, pc
    27a0:	e7d9      	b.n	2756 <mpi_egcd+0x6c>
/home/aom1/Work/Linux/target/STM32MP1-DK2/bootloader/optee-os-custom/lib/libutee/tee_api_arith_mpi.c:633 (discriminator 2)
    27a2:	9924      	ldr	r1, [sp, #144]	; 0x90
    27a4:	4658      	mov	r0, fp
    27a6:	f001 fcc1 	bl	412c <mbedtls_mpi_copy>
    27aa:	4602      	mov	r2, r0
    27ac:	b178      	cbz	r0, 27ce <mpi_egcd+0xe4>
/home/aom1/Work/Linux/target/STM32MP1-DK2/bootloader/optee-os-custom/lib/libutee/tee_api_arith_mpi.c:633 (discriminator 1)
    27ae:	48ca      	ldr	r0, [pc, #808]	; (2ad8 <mpi_egcd+0x3ee>)
    27b0:	f240 2179 	movw	r1, #633	; 0x279
    27b4:	4478      	add	r0, pc
    27b6:	e7ce      	b.n	2756 <mpi_egcd+0x6c>
/home/aom1/Work/Linux/target/STM32MP1-DK2/bootloader/optee-os-custom/lib/libutee/tee_api_arith_mpi.c:639 (discriminator 2)
    27b8:	2101      	movs	r1, #1
    27ba:	4658      	mov	r0, fp
    27bc:	f001 ff0a 	bl	45d4 <mbedtls_mpi_shift_r>
    27c0:	4602      	mov	r2, r0
    27c2:	b128      	cbz	r0, 27d0 <mpi_egcd+0xe6>
/home/aom1/Work/Linux/target/STM32MP1-DK2/bootloader/optee-os-custom/lib/libutee/tee_api_arith_mpi.c:639 (discriminator 1)
    27c4:	48c5      	ldr	r0, [pc, #788]	; (2adc <mpi_egcd+0x3f2>)
    27c6:	f240 217f 	movw	r1, #639	; 0x27f
    27ca:	4478      	add	r0, pc
    27cc:	e7c3      	b.n	2756 <mpi_egcd+0x6c>
/home/aom1/Work/Linux/target/STM32MP1-DK2/bootloader/optee-os-custom/lib/libutee/tee_api_arith_mpi.c:635
    27ce:	9001      	str	r0, [sp, #4]
mpi_is_even():
/home/aom1/Work/Linux/target/STM32MP1-DK2/bootloader/optee-os-custom/lib/libutee/tee_api_arith_mpi.c:597 (discriminator 2)
    27d0:	4650      	mov	r0, sl
    27d2:	f7ff ff77 	bl	26c4 <mpi_is_odd>
mpi_egcd():
/home/aom1/Work/Linux/target/STM32MP1-DK2/bootloader/optee-os-custom/lib/libutee/tee_api_arith_mpi.c:636 (discriminator 2)
    27d6:	b150      	cbz	r0, 27ee <mpi_egcd+0x104>
/home/aom1/Work/Linux/target/STM32MP1-DK2/bootloader/optee-os-custom/lib/libutee/tee_api_arith_mpi.c:642
    27d8:	4651      	mov	r1, sl
    27da:	4638      	mov	r0, r7
    27dc:	f001 fca6 	bl	412c <mbedtls_mpi_copy>
    27e0:	4602      	mov	r2, r0
    27e2:	b1c0      	cbz	r0, 2816 <mpi_egcd+0x12c>
/home/aom1/Work/Linux/target/STM32MP1-DK2/bootloader/optee-os-custom/lib/libutee/tee_api_arith_mpi.c:642 (discriminator 1)
    27e4:	48be      	ldr	r0, [pc, #760]	; (2ae0 <mpi_egcd+0x3f6>)
    27e6:	f240 2182 	movw	r1, #642	; 0x282
    27ea:	4478      	add	r0, pc
    27ec:	e7b3      	b.n	2756 <mpi_egcd+0x6c>
mpi_is_even():
/home/aom1/Work/Linux/target/STM32MP1-DK2/bootloader/optee-os-custom/lib/libutee/tee_api_arith_mpi.c:597
    27ee:	4658      	mov	r0, fp
    27f0:	f7ff ff68 	bl	26c4 <mpi_is_odd>
mpi_egcd():
/home/aom1/Work/Linux/target/STM32MP1-DK2/bootloader/optee-os-custom/lib/libutee/tee_api_arith_mpi.c:636
    27f4:	2800      	cmp	r0, #0
    27f6:	d1ef      	bne.n	27d8 <mpi_egcd+0xee>
/home/aom1/Work/Linux/target/STM32MP1-DK2/bootloader/optee-os-custom/lib/libutee/tee_api_arith_mpi.c:637
    27f8:	9b01      	ldr	r3, [sp, #4]
/home/aom1/Work/Linux/target/STM32MP1-DK2/bootloader/optee-os-custom/lib/libutee/tee_api_arith_mpi.c:638
    27fa:	2101      	movs	r1, #1
    27fc:	4650      	mov	r0, sl
/home/aom1/Work/Linux/target/STM32MP1-DK2/bootloader/optee-os-custom/lib/libutee/tee_api_arith_mpi.c:637
    27fe:	3301      	adds	r3, #1
    2800:	9301      	str	r3, [sp, #4]
/home/aom1/Work/Linux/target/STM32MP1-DK2/bootloader/optee-os-custom/lib/libutee/tee_api_arith_mpi.c:638
    2802:	f001 fee7 	bl	45d4 <mbedtls_mpi_shift_r>
    2806:	4602      	mov	r2, r0
    2808:	2800      	cmp	r0, #0
    280a:	d0d5      	beq.n	27b8 <mpi_egcd+0xce>
/home/aom1/Work/Linux/target/STM32MP1-DK2/bootloader/optee-os-custom/lib/libutee/tee_api_arith_mpi.c:638 (discriminator 1)
    280c:	48b5      	ldr	r0, [pc, #724]	; (2ae4 <mpi_egcd+0x3fa>)
    280e:	f240 217e 	movw	r1, #638	; 0x27e
    2812:	4478      	add	r0, pc
    2814:	e79f      	b.n	2756 <mpi_egcd+0x6c>
/home/aom1/Work/Linux/target/STM32MP1-DK2/bootloader/optee-os-custom/lib/libutee/tee_api_arith_mpi.c:643 (discriminator 2)
    2816:	4659      	mov	r1, fp
    2818:	4630      	mov	r0, r6
    281a:	f001 fc87 	bl	412c <mbedtls_mpi_copy>
    281e:	4602      	mov	r2, r0
    2820:	b120      	cbz	r0, 282c <mpi_egcd+0x142>
/home/aom1/Work/Linux/target/STM32MP1-DK2/bootloader/optee-os-custom/lib/libutee/tee_api_arith_mpi.c:643 (discriminator 1)
    2822:	48b1      	ldr	r0, [pc, #708]	; (2ae8 <mpi_egcd+0x3fe>)
    2824:	f240 2183 	movw	r1, #643	; 0x283
    2828:	4478      	add	r0, pc
    282a:	e794      	b.n	2756 <mpi_egcd+0x6c>
/home/aom1/Work/Linux/target/STM32MP1-DK2/bootloader/optee-os-custom/lib/libutee/tee_api_arith_mpi.c:644 (discriminator 2)
    282c:	2101      	movs	r1, #1
    282e:	4648      	mov	r0, r9
    2830:	f001 fd42 	bl	42b8 <mbedtls_mpi_lset>
    2834:	4602      	mov	r2, r0
    2836:	b120      	cbz	r0, 2842 <mpi_egcd+0x158>
/home/aom1/Work/Linux/target/STM32MP1-DK2/bootloader/optee-os-custom/lib/libutee/tee_api_arith_mpi.c:644 (discriminator 1)
    2838:	48ac      	ldr	r0, [pc, #688]	; (2aec <mpi_egcd+0x402>)
    283a:	f44f 7121 	mov.w	r1, #644	; 0x284
    283e:	4478      	add	r0, pc
    2840:	e789      	b.n	2756 <mpi_egcd+0x6c>
/home/aom1/Work/Linux/target/STM32MP1-DK2/bootloader/optee-os-custom/lib/libutee/tee_api_arith_mpi.c:645 (discriminator 2)
    2842:	4601      	mov	r1, r0
    2844:	4640      	mov	r0, r8
    2846:	f001 fd37 	bl	42b8 <mbedtls_mpi_lset>
    284a:	4602      	mov	r2, r0
    284c:	b120      	cbz	r0, 2858 <mpi_egcd+0x16e>
/home/aom1/Work/Linux/target/STM32MP1-DK2/bootloader/optee-os-custom/lib/libutee/tee_api_arith_mpi.c:645 (discriminator 1)
    284e:	48a8      	ldr	r0, [pc, #672]	; (2af0 <mpi_egcd+0x406>)
    2850:	f240 2185 	movw	r1, #645	; 0x285
    2854:	4478      	add	r0, pc
    2856:	e77e      	b.n	2756 <mpi_egcd+0x6c>
/home/aom1/Work/Linux/target/STM32MP1-DK2/bootloader/optee-os-custom/lib/libutee/tee_api_arith_mpi.c:646 (discriminator 2)
    2858:	4601      	mov	r1, r0
    285a:	4628      	mov	r0, r5
    285c:	f001 fd2c 	bl	42b8 <mbedtls_mpi_lset>
    2860:	4602      	mov	r2, r0
    2862:	b120      	cbz	r0, 286e <mpi_egcd+0x184>
/home/aom1/Work/Linux/target/STM32MP1-DK2/bootloader/optee-os-custom/lib/libutee/tee_api_arith_mpi.c:646 (discriminator 1)
    2864:	48a3      	ldr	r0, [pc, #652]	; (2af4 <mpi_egcd+0x40a>)
    2866:	f240 2186 	movw	r1, #646	; 0x286
    286a:	4478      	add	r0, pc
    286c:	e773      	b.n	2756 <mpi_egcd+0x6c>
/home/aom1/Work/Linux/target/STM32MP1-DK2/bootloader/optee-os-custom/lib/libutee/tee_api_arith_mpi.c:647 (discriminator 2)
    286e:	2101      	movs	r1, #1
    2870:	4620      	mov	r0, r4
    2872:	f001 fd21 	bl	42b8 <mbedtls_mpi_lset>
    2876:	4602      	mov	r2, r0
    2878:	2800      	cmp	r0, #0
    287a:	f000 80e4 	beq.w	2a46 <mpi_egcd+0x35c>
/home/aom1/Work/Linux/target/STM32MP1-DK2/bootloader/optee-os-custom/lib/libutee/tee_api_arith_mpi.c:647 (discriminator 1)
    287e:	489e      	ldr	r0, [pc, #632]	; (2af8 <mpi_egcd+0x40e>)
    2880:	f240 2187 	movw	r1, #647	; 0x287
    2884:	4478      	add	r0, pc
    2886:	e766      	b.n	2756 <mpi_egcd+0x6c>
/home/aom1/Work/Linux/target/STM32MP1-DK2/bootloader/optee-os-custom/lib/libutee/tee_api_arith_mpi.c:651
    2888:	2101      	movs	r1, #1
    288a:	4638      	mov	r0, r7
    288c:	f001 fea2 	bl	45d4 <mbedtls_mpi_shift_r>
    2890:	4602      	mov	r2, r0
    2892:	b120      	cbz	r0, 289e <mpi_egcd+0x1b4>
/home/aom1/Work/Linux/target/STM32MP1-DK2/bootloader/optee-os-custom/lib/libutee/tee_api_arith_mpi.c:651 (discriminator 1)
    2894:	4899      	ldr	r0, [pc, #612]	; (2afc <mpi_egcd+0x412>)
    2896:	f240 218b 	movw	r1, #651	; 0x28b
    289a:	4478      	add	r0, pc
    289c:	e75b      	b.n	2756 <mpi_egcd+0x6c>
/home/aom1/Work/Linux/target/STM32MP1-DK2/bootloader/optee-os-custom/lib/libutee/tee_api_arith_mpi.c:652 (discriminator 2)
    289e:	4648      	mov	r0, r9
    28a0:	f7ff ff10 	bl	26c4 <mpi_is_odd>
    28a4:	b158      	cbz	r0, 28be <mpi_egcd+0x1d4>
/home/aom1/Work/Linux/target/STM32MP1-DK2/bootloader/optee-os-custom/lib/libutee/tee_api_arith_mpi.c:653
    28a6:	465a      	mov	r2, fp
    28a8:	4649      	mov	r1, r9
    28aa:	4648      	mov	r0, r9
    28ac:	f002 f872 	bl	4994 <mbedtls_mpi_add_mpi>
    28b0:	4602      	mov	r2, r0
    28b2:	b1a0      	cbz	r0, 28de <mpi_egcd+0x1f4>
/home/aom1/Work/Linux/target/STM32MP1-DK2/bootloader/optee-os-custom/lib/libutee/tee_api_arith_mpi.c:653 (discriminator 1)
    28b4:	4892      	ldr	r0, [pc, #584]	; (2b00 <mpi_egcd+0x416>)
    28b6:	f240 218d 	movw	r1, #653	; 0x28d
    28ba:	4478      	add	r0, pc
    28bc:	e74b      	b.n	2756 <mpi_egcd+0x6c>
/home/aom1/Work/Linux/target/STM32MP1-DK2/bootloader/optee-os-custom/lib/libutee/tee_api_arith_mpi.c:652 (discriminator 1)
    28be:	4640      	mov	r0, r8
    28c0:	f7ff ff00 	bl	26c4 <mpi_is_odd>
    28c4:	2800      	cmp	r0, #0
    28c6:	d1ee      	bne.n	28a6 <mpi_egcd+0x1bc>
/home/aom1/Work/Linux/target/STM32MP1-DK2/bootloader/optee-os-custom/lib/libutee/tee_api_arith_mpi.c:656
    28c8:	2101      	movs	r1, #1
    28ca:	4648      	mov	r0, r9
    28cc:	f001 fe82 	bl	45d4 <mbedtls_mpi_shift_r>
    28d0:	4602      	mov	r2, r0
    28d2:	b188      	cbz	r0, 28f8 <mpi_egcd+0x20e>
/home/aom1/Work/Linux/target/STM32MP1-DK2/bootloader/optee-os-custom/lib/libutee/tee_api_arith_mpi.c:656 (discriminator 1)
    28d4:	488b      	ldr	r0, [pc, #556]	; (2b04 <mpi_egcd+0x41a>)
    28d6:	f44f 7124 	mov.w	r1, #656	; 0x290
    28da:	4478      	add	r0, pc
    28dc:	e73b      	b.n	2756 <mpi_egcd+0x6c>
/home/aom1/Work/Linux/target/STM32MP1-DK2/bootloader/optee-os-custom/lib/libutee/tee_api_arith_mpi.c:654 (discriminator 2)
    28de:	4652      	mov	r2, sl
    28e0:	4641      	mov	r1, r8
    28e2:	4640      	mov	r0, r8
    28e4:	f002 f87a 	bl	49dc <mbedtls_mpi_sub_mpi>
    28e8:	4602      	mov	r2, r0
    28ea:	2800      	cmp	r0, #0
    28ec:	d0ec      	beq.n	28c8 <mpi_egcd+0x1de>
/home/aom1/Work/Linux/target/STM32MP1-DK2/bootloader/optee-os-custom/lib/libutee/tee_api_arith_mpi.c:654 (discriminator 1)
    28ee:	4886      	ldr	r0, [pc, #536]	; (2b08 <mpi_egcd+0x41e>)
    28f0:	f240 218e 	movw	r1, #654	; 0x28e
    28f4:	4478      	add	r0, pc
    28f6:	e72e      	b.n	2756 <mpi_egcd+0x6c>
/home/aom1/Work/Linux/target/STM32MP1-DK2/bootloader/optee-os-custom/lib/libutee/tee_api_arith_mpi.c:657 (discriminator 2)
    28f8:	2101      	movs	r1, #1
    28fa:	4640      	mov	r0, r8
    28fc:	f001 fe6a 	bl	45d4 <mbedtls_mpi_shift_r>
    2900:	4602      	mov	r2, r0
    2902:	b120      	cbz	r0, 290e <mpi_egcd+0x224>
/home/aom1/Work/Linux/target/STM32MP1-DK2/bootloader/optee-os-custom/lib/libutee/tee_api_arith_mpi.c:657 (discriminator 1)
    2904:	4881      	ldr	r0, [pc, #516]	; (2b0c <mpi_egcd+0x422>)
    2906:	f240 2191 	movw	r1, #657	; 0x291
    290a:	4478      	add	r0, pc
    290c:	e723      	b.n	2756 <mpi_egcd+0x6c>
mpi_is_even():
/home/aom1/Work/Linux/target/STM32MP1-DK2/bootloader/optee-os-custom/lib/libutee/tee_api_arith_mpi.c:597 (discriminator 2)
    290e:	4638      	mov	r0, r7
    2910:	f7ff fed8 	bl	26c4 <mpi_is_odd>
mpi_egcd():
/home/aom1/Work/Linux/target/STM32MP1-DK2/bootloader/optee-os-custom/lib/libutee/tee_api_arith_mpi.c:650 (discriminator 2)
    2914:	2800      	cmp	r0, #0
    2916:	d0b7      	beq.n	2888 <mpi_egcd+0x19e>
mpi_is_even():
/home/aom1/Work/Linux/target/STM32MP1-DK2/bootloader/optee-os-custom/lib/libutee/tee_api_arith_mpi.c:597 (discriminator 2)
    2918:	4630      	mov	r0, r6
    291a:	f7ff fed3 	bl	26c4 <mpi_is_odd>
mpi_egcd():
/home/aom1/Work/Linux/target/STM32MP1-DK2/bootloader/optee-os-custom/lib/libutee/tee_api_arith_mpi.c:660 (discriminator 2)
    291e:	b190      	cbz	r0, 2946 <mpi_egcd+0x25c>
/home/aom1/Work/Linux/target/STM32MP1-DK2/bootloader/optee-os-custom/lib/libutee/tee_api_arith_mpi.c:671
    2920:	4631      	mov	r1, r6
    2922:	4638      	mov	r0, r7
    2924:	f001 fec3 	bl	46ae <mbedtls_mpi_cmp_mpi>
    2928:	2800      	cmp	r0, #0
    292a:	db68      	blt.n	29fe <mpi_egcd+0x314>
/home/aom1/Work/Linux/target/STM32MP1-DK2/bootloader/optee-os-custom/lib/libutee/tee_api_arith_mpi.c:672
    292c:	4632      	mov	r2, r6
    292e:	4639      	mov	r1, r7
    2930:	4638      	mov	r0, r7
    2932:	f002 f853 	bl	49dc <mbedtls_mpi_sub_mpi>
    2936:	4602      	mov	r2, r0
    2938:	2800      	cmp	r0, #0
    293a:	d048      	beq.n	29ce <mpi_egcd+0x2e4>
/home/aom1/Work/Linux/target/STM32MP1-DK2/bootloader/optee-os-custom/lib/libutee/tee_api_arith_mpi.c:672 (discriminator 1)
    293c:	4874      	ldr	r0, [pc, #464]	; (2b10 <mpi_egcd+0x426>)
    293e:	f44f 7128 	mov.w	r1, #672	; 0x2a0
    2942:	4478      	add	r0, pc
    2944:	e707      	b.n	2756 <mpi_egcd+0x6c>
/home/aom1/Work/Linux/target/STM32MP1-DK2/bootloader/optee-os-custom/lib/libutee/tee_api_arith_mpi.c:661
    2946:	2101      	movs	r1, #1
    2948:	4630      	mov	r0, r6
    294a:	f001 fe43 	bl	45d4 <mbedtls_mpi_shift_r>
    294e:	4602      	mov	r2, r0
    2950:	b120      	cbz	r0, 295c <mpi_egcd+0x272>
/home/aom1/Work/Linux/target/STM32MP1-DK2/bootloader/optee-os-custom/lib/libutee/tee_api_arith_mpi.c:661 (discriminator 1)
    2952:	4870      	ldr	r0, [pc, #448]	; (2b14 <mpi_egcd+0x42a>)
    2954:	f240 2195 	movw	r1, #661	; 0x295
    2958:	4478      	add	r0, pc
    295a:	e6fc      	b.n	2756 <mpi_egcd+0x6c>
/home/aom1/Work/Linux/target/STM32MP1-DK2/bootloader/optee-os-custom/lib/libutee/tee_api_arith_mpi.c:662 (discriminator 2)
    295c:	4628      	mov	r0, r5
    295e:	f7ff feb1 	bl	26c4 <mpi_is_odd>
    2962:	b158      	cbz	r0, 297c <mpi_egcd+0x292>
/home/aom1/Work/Linux/target/STM32MP1-DK2/bootloader/optee-os-custom/lib/libutee/tee_api_arith_mpi.c:663
    2964:	465a      	mov	r2, fp
    2966:	4629      	mov	r1, r5
    2968:	4628      	mov	r0, r5
    296a:	f002 f813 	bl	4994 <mbedtls_mpi_add_mpi>
    296e:	4602      	mov	r2, r0
    2970:	b1a0      	cbz	r0, 299c <mpi_egcd+0x2b2>
/home/aom1/Work/Linux/target/STM32MP1-DK2/bootloader/optee-os-custom/lib/libutee/tee_api_arith_mpi.c:663 (discriminator 1)
    2972:	4869      	ldr	r0, [pc, #420]	; (2b18 <mpi_egcd+0x42e>)
    2974:	f240 2197 	movw	r1, #663	; 0x297
    2978:	4478      	add	r0, pc
    297a:	e6ec      	b.n	2756 <mpi_egcd+0x6c>
/home/aom1/Work/Linux/target/STM32MP1-DK2/bootloader/optee-os-custom/lib/libutee/tee_api_arith_mpi.c:662 (discriminator 1)
    297c:	4620      	mov	r0, r4
    297e:	f7ff fea1 	bl	26c4 <mpi_is_odd>
    2982:	2800      	cmp	r0, #0
    2984:	d1ee      	bne.n	2964 <mpi_egcd+0x27a>
/home/aom1/Work/Linux/target/STM32MP1-DK2/bootloader/optee-os-custom/lib/libutee/tee_api_arith_mpi.c:666
    2986:	2101      	movs	r1, #1
    2988:	4628      	mov	r0, r5
    298a:	f001 fe23 	bl	45d4 <mbedtls_mpi_shift_r>
    298e:	4602      	mov	r2, r0
    2990:	b188      	cbz	r0, 29b6 <mpi_egcd+0x2cc>
/home/aom1/Work/Linux/target/STM32MP1-DK2/bootloader/optee-os-custom/lib/libutee/tee_api_arith_mpi.c:666 (discriminator 1)
    2992:	4862      	ldr	r0, [pc, #392]	; (2b1c <mpi_egcd+0x432>)
    2994:	f240 219a 	movw	r1, #666	; 0x29a
    2998:	4478      	add	r0, pc
    299a:	e6dc      	b.n	2756 <mpi_egcd+0x6c>
/home/aom1/Work/Linux/target/STM32MP1-DK2/bootloader/optee-os-custom/lib/libutee/tee_api_arith_mpi.c:664 (discriminator 2)
    299c:	4652      	mov	r2, sl
    299e:	4621      	mov	r1, r4
    29a0:	4620      	mov	r0, r4
    29a2:	f002 f81b 	bl	49dc <mbedtls_mpi_sub_mpi>
    29a6:	4602      	mov	r2, r0
    29a8:	2800      	cmp	r0, #0
    29aa:	d0ec      	beq.n	2986 <mpi_egcd+0x29c>
/home/aom1/Work/Linux/target/STM32MP1-DK2/bootloader/optee-os-custom/lib/libutee/tee_api_arith_mpi.c:664 (discriminator 1)
    29ac:	485c      	ldr	r0, [pc, #368]	; (2b20 <mpi_egcd+0x436>)
    29ae:	f44f 7126 	mov.w	r1, #664	; 0x298
    29b2:	4478      	add	r0, pc
    29b4:	e6cf      	b.n	2756 <mpi_egcd+0x6c>
/home/aom1/Work/Linux/target/STM32MP1-DK2/bootloader/optee-os-custom/lib/libutee/tee_api_arith_mpi.c:667 (discriminator 2)
    29b6:	2101      	movs	r1, #1
    29b8:	4620      	mov	r0, r4
    29ba:	f001 fe0b 	bl	45d4 <mbedtls_mpi_shift_r>
    29be:	4602      	mov	r2, r0
    29c0:	2800      	cmp	r0, #0
    29c2:	d0a9      	beq.n	2918 <mpi_egcd+0x22e>
/home/aom1/Work/Linux/target/STM32MP1-DK2/bootloader/optee-os-custom/lib/libutee/tee_api_arith_mpi.c:667 (discriminator 1)
    29c4:	4857      	ldr	r0, [pc, #348]	; (2b24 <mpi_egcd+0x43a>)
    29c6:	f240 219b 	movw	r1, #667	; 0x29b
    29ca:	4478      	add	r0, pc
    29cc:	e6c3      	b.n	2756 <mpi_egcd+0x6c>
/home/aom1/Work/Linux/target/STM32MP1-DK2/bootloader/optee-os-custom/lib/libutee/tee_api_arith_mpi.c:673 (discriminator 2)
    29ce:	462a      	mov	r2, r5
    29d0:	4649      	mov	r1, r9
    29d2:	4648      	mov	r0, r9
    29d4:	f002 f802 	bl	49dc <mbedtls_mpi_sub_mpi>
    29d8:	4602      	mov	r2, r0
    29da:	b120      	cbz	r0, 29e6 <mpi_egcd+0x2fc>
/home/aom1/Work/Linux/target/STM32MP1-DK2/bootloader/optee-os-custom/lib/libutee/tee_api_arith_mpi.c:673 (discriminator 1)
    29dc:	4852      	ldr	r0, [pc, #328]	; (2b28 <mpi_egcd+0x43e>)
    29de:	f240 21a1 	movw	r1, #673	; 0x2a1
    29e2:	4478      	add	r0, pc
    29e4:	e6b7      	b.n	2756 <mpi_egcd+0x6c>
/home/aom1/Work/Linux/target/STM32MP1-DK2/bootloader/optee-os-custom/lib/libutee/tee_api_arith_mpi.c:674 (discriminator 2)
    29e6:	4622      	mov	r2, r4
    29e8:	4641      	mov	r1, r8
    29ea:	4640      	mov	r0, r8
    29ec:	f001 fff6 	bl	49dc <mbedtls_mpi_sub_mpi>
    29f0:	4602      	mov	r2, r0
    29f2:	b340      	cbz	r0, 2a46 <mpi_egcd+0x35c>
/home/aom1/Work/Linux/target/STM32MP1-DK2/bootloader/optee-os-custom/lib/libutee/tee_api_arith_mpi.c:674 (discriminator 1)
    29f4:	484d      	ldr	r0, [pc, #308]	; (2b2c <mpi_egcd+0x442>)
    29f6:	f240 21a2 	movw	r1, #674	; 0x2a2
    29fa:	4478      	add	r0, pc
    29fc:	e6ab      	b.n	2756 <mpi_egcd+0x6c>
/home/aom1/Work/Linux/target/STM32MP1-DK2/bootloader/optee-os-custom/lib/libutee/tee_api_arith_mpi.c:676
    29fe:	463a      	mov	r2, r7
    2a00:	4631      	mov	r1, r6
    2a02:	4630      	mov	r0, r6
    2a04:	f001 ffea 	bl	49dc <mbedtls_mpi_sub_mpi>
    2a08:	4602      	mov	r2, r0
    2a0a:	b120      	cbz	r0, 2a16 <mpi_egcd+0x32c>
/home/aom1/Work/Linux/target/STM32MP1-DK2/bootloader/optee-os-custom/lib/libutee/tee_api_arith_mpi.c:676 (discriminator 1)
    2a0c:	4848      	ldr	r0, [pc, #288]	; (2b30 <mpi_egcd+0x446>)
    2a0e:	f44f 7129 	mov.w	r1, #676	; 0x2a4
    2a12:	4478      	add	r0, pc
    2a14:	e69f      	b.n	2756 <mpi_egcd+0x6c>
/home/aom1/Work/Linux/target/STM32MP1-DK2/bootloader/optee-os-custom/lib/libutee/tee_api_arith_mpi.c:677 (discriminator 2)
    2a16:	464a      	mov	r2, r9
    2a18:	4629      	mov	r1, r5
    2a1a:	4628      	mov	r0, r5
    2a1c:	f001 ffde 	bl	49dc <mbedtls_mpi_sub_mpi>
    2a20:	4602      	mov	r2, r0
    2a22:	b120      	cbz	r0, 2a2e <mpi_egcd+0x344>
/home/aom1/Work/Linux/target/STM32MP1-DK2/bootloader/optee-os-custom/lib/libutee/tee_api_arith_mpi.c:677 (discriminator 1)
    2a24:	4843      	ldr	r0, [pc, #268]	; (2b34 <mpi_egcd+0x44a>)
    2a26:	f240 21a5 	movw	r1, #677	; 0x2a5
    2a2a:	4478      	add	r0, pc
    2a2c:	e693      	b.n	2756 <mpi_egcd+0x6c>
/home/aom1/Work/Linux/target/STM32MP1-DK2/bootloader/optee-os-custom/lib/libutee/tee_api_arith_mpi.c:678 (discriminator 2)
    2a2e:	4642      	mov	r2, r8
    2a30:	4621      	mov	r1, r4
    2a32:	4620      	mov	r0, r4
    2a34:	f001 ffd2 	bl	49dc <mbedtls_mpi_sub_mpi>
    2a38:	4602      	mov	r2, r0
    2a3a:	b120      	cbz	r0, 2a46 <mpi_egcd+0x35c>
/home/aom1/Work/Linux/target/STM32MP1-DK2/bootloader/optee-os-custom/lib/libutee/tee_api_arith_mpi.c:678 (discriminator 1)
    2a3c:	483e      	ldr	r0, [pc, #248]	; (2b38 <mpi_egcd+0x44e>)
    2a3e:	f240 21a6 	movw	r1, #678	; 0x2a6
    2a42:	4478      	add	r0, pc
    2a44:	e687      	b.n	2756 <mpi_egcd+0x6c>
/home/aom1/Work/Linux/target/STM32MP1-DK2/bootloader/optee-os-custom/lib/libutee/tee_api_arith_mpi.c:649 (discriminator 2)
    2a46:	2100      	movs	r1, #0
    2a48:	4638      	mov	r0, r7
    2a4a:	f001 fec4 	bl	47d6 <mbedtls_mpi_cmp_int>
    2a4e:	2800      	cmp	r0, #0
    2a50:	f47f af5d 	bne.w	290e <mpi_egcd+0x224>
/home/aom1/Work/Linux/target/STM32MP1-DK2/bootloader/optee-os-custom/lib/libutee/tee_api_arith_mpi.c:682
    2a54:	9802      	ldr	r0, [sp, #8]
    2a56:	4629      	mov	r1, r5
    2a58:	f001 fb68 	bl	412c <mbedtls_mpi_copy>
    2a5c:	4602      	mov	r2, r0
    2a5e:	b120      	cbz	r0, 2a6a <mpi_egcd+0x380>
/home/aom1/Work/Linux/target/STM32MP1-DK2/bootloader/optee-os-custom/lib/libutee/tee_api_arith_mpi.c:682 (discriminator 1)
    2a60:	4836      	ldr	r0, [pc, #216]	; (2b3c <mpi_egcd+0x452>)
    2a62:	f240 21aa 	movw	r1, #682	; 0x2aa
    2a66:	4478      	add	r0, pc
    2a68:	e675      	b.n	2756 <mpi_egcd+0x6c>
/home/aom1/Work/Linux/target/STM32MP1-DK2/bootloader/optee-os-custom/lib/libutee/tee_api_arith_mpi.c:683 (discriminator 2)
    2a6a:	9803      	ldr	r0, [sp, #12]
    2a6c:	4621      	mov	r1, r4
    2a6e:	f001 fb5d 	bl	412c <mbedtls_mpi_copy>
    2a72:	4602      	mov	r2, r0
    2a74:	b120      	cbz	r0, 2a80 <mpi_egcd+0x396>
/home/aom1/Work/Linux/target/STM32MP1-DK2/bootloader/optee-os-custom/lib/libutee/tee_api_arith_mpi.c:683 (discriminator 1)
    2a76:	4832      	ldr	r0, [pc, #200]	; (2b40 <mpi_egcd+0x456>)
    2a78:	f240 21ab 	movw	r1, #683	; 0x2ab
    2a7c:	4478      	add	r0, pc
    2a7e:	e66a      	b.n	2756 <mpi_egcd+0x6c>
/home/aom1/Work/Linux/target/STM32MP1-DK2/bootloader/optee-os-custom/lib/libutee/tee_api_arith_mpi.c:684 (discriminator 2)
    2a80:	9901      	ldr	r1, [sp, #4]
    2a82:	4630      	mov	r0, r6
    2a84:	f001 fd54 	bl	4530 <mbedtls_mpi_shift_l>
    2a88:	4602      	mov	r2, r0
    2a8a:	b120      	cbz	r0, 2a96 <mpi_egcd+0x3ac>
/home/aom1/Work/Linux/target/STM32MP1-DK2/bootloader/optee-os-custom/lib/libutee/tee_api_arith_mpi.c:684 (discriminator 1)
    2a8c:	482d      	ldr	r0, [pc, #180]	; (2b44 <mpi_egcd+0x45a>)
    2a8e:	f44f 712b 	mov.w	r1, #684	; 0x2ac
    2a92:	4478      	add	r0, pc
    2a94:	e65f      	b.n	2756 <mpi_egcd+0x6c>
/home/aom1/Work/Linux/target/STM32MP1-DK2/bootloader/optee-os-custom/lib/libutee/tee_api_arith_mpi.c:687
    2a96:	4648      	mov	r0, r9
    2a98:	f001 fa64 	bl	3f64 <mbedtls_mpi_free>
/home/aom1/Work/Linux/target/STM32MP1-DK2/bootloader/optee-os-custom/lib/libutee/tee_api_arith_mpi.c:688
    2a9c:	4640      	mov	r0, r8
    2a9e:	f001 fa61 	bl	3f64 <mbedtls_mpi_free>
/home/aom1/Work/Linux/target/STM32MP1-DK2/bootloader/optee-os-custom/lib/libutee/tee_api_arith_mpi.c:689
    2aa2:	4628      	mov	r0, r5
    2aa4:	f001 fa5e 	bl	3f64 <mbedtls_mpi_free>
/home/aom1/Work/Linux/target/STM32MP1-DK2/bootloader/optee-os-custom/lib/libutee/tee_api_arith_mpi.c:690
    2aa8:	4620      	mov	r0, r4
    2aaa:	f001 fa5b 	bl	3f64 <mbedtls_mpi_free>
/home/aom1/Work/Linux/target/STM32MP1-DK2/bootloader/optee-os-custom/lib/libutee/tee_api_arith_mpi.c:691
    2aae:	4650      	mov	r0, sl
    2ab0:	f001 fa58 	bl	3f64 <mbedtls_mpi_free>
/home/aom1/Work/Linux/target/STM32MP1-DK2/bootloader/optee-os-custom/lib/libutee/tee_api_arith_mpi.c:692
    2ab4:	4658      	mov	r0, fp
    2ab6:	f001 fa55 	bl	3f64 <mbedtls_mpi_free>
/home/aom1/Work/Linux/target/STM32MP1-DK2/bootloader/optee-os-custom/lib/libutee/tee_api_arith_mpi.c:693
    2aba:	4638      	mov	r0, r7
    2abc:	f001 fa52 	bl	3f64 <mbedtls_mpi_free>
/home/aom1/Work/Linux/target/STM32MP1-DK2/bootloader/optee-os-custom/lib/libutee/tee_api_arith_mpi.c:694
    2ac0:	b01b      	add	sp, #108	; 0x6c
    2ac2:	e8bd 8ff0 	ldmia.w	sp!, {r4, r5, r6, r7, r8, r9, sl, fp, pc}
    2ac6:	bf00      	nop
    2ac8:	000050a6 	.word	0x000050a6
    2acc:	0000508c 	.word	0x0000508c
    2ad0:	00005072 	.word	0x00005072
    2ad4:	0000505c 	.word	0x0000505c
    2ad8:	00005046 	.word	0x00005046
    2adc:	00005030 	.word	0x00005030
    2ae0:	00005010 	.word	0x00005010
    2ae4:	00004fe8 	.word	0x00004fe8
    2ae8:	00004fd2 	.word	0x00004fd2
    2aec:	00004fbc 	.word	0x00004fbc
    2af0:	00004fa6 	.word	0x00004fa6
    2af4:	00004f90 	.word	0x00004f90
    2af8:	00004f76 	.word	0x00004f76
    2afc:	00004f60 	.word	0x00004f60
    2b00:	00004f40 	.word	0x00004f40
    2b04:	00004f20 	.word	0x00004f20
    2b08:	00004f06 	.word	0x00004f06
    2b0c:	00004ef0 	.word	0x00004ef0
    2b10:	00004eb8 	.word	0x00004eb8
    2b14:	00004ea2 	.word	0x00004ea2
    2b18:	00004e82 	.word	0x00004e82
    2b1c:	00004e62 	.word	0x00004e62
    2b20:	00004e48 	.word	0x00004e48
    2b24:	00004e30 	.word	0x00004e30
    2b28:	00004e18 	.word	0x00004e18
    2b2c:	00004e00 	.word	0x00004e00
    2b30:	00004de8 	.word	0x00004de8
    2b34:	00004dd0 	.word	0x00004dd0
    2b38:	00004db8 	.word	0x00004db8
    2b3c:	00004d94 	.word	0x00004d94
    2b40:	00004d7e 	.word	0x00004d7e
    2b44:	00004d68 	.word	0x00004d68

00002b48 <_TEE_MathAPI_Init>:
_TEE_MathAPI_Init():
/home/aom1/Work/Linux/target/STM32MP1-DK2/bootloader/optee-os-custom/lib/libutee/tee_api_arith_mpi.c:47
    2b48:	480b      	ldr	r0, [pc, #44]	; (2b78 <_TEE_MathAPI_Init+0x30>)
    2b4a:	2200      	movs	r2, #0
/home/aom1/Work/Linux/target/STM32MP1-DK2/bootloader/optee-os-custom/lib/libutee/tee_api_arith_mpi.c:44
    2b4c:	b510      	push	{r4, lr}
/home/aom1/Work/Linux/target/STM32MP1-DK2/bootloader/optee-os-custom/lib/libutee/tee_api_arith_mpi.c:47
    2b4e:	f44f 5140 	mov.w	r1, #12288	; 0x3000
/home/aom1/Work/Linux/target/STM32MP1-DK2/bootloader/optee-os-custom/lib/libutee/tee_api_arith_mpi.c:44
    2b52:	4c0a      	ldr	r4, [pc, #40]	; (2b7c <_TEE_MathAPI_Init+0x34>)
/home/aom1/Work/Linux/target/STM32MP1-DK2/bootloader/optee-os-custom/lib/libutee/tee_api_arith_mpi.c:47
    2b54:	4478      	add	r0, pc
/home/aom1/Work/Linux/target/STM32MP1-DK2/bootloader/optee-os-custom/lib/libutee/tee_api_arith_mpi.c:44
    2b56:	447c      	add	r4, pc
/home/aom1/Work/Linux/target/STM32MP1-DK2/bootloader/optee-os-custom/lib/libutee/tee_api_arith_mpi.c:47
    2b58:	f004 f95c 	bl	6e14 <mempool_alloc_pool>
    2b5c:	4b08      	ldr	r3, [pc, #32]	; (2b80 <_TEE_MathAPI_Init+0x38>)
    2b5e:	58e3      	ldr	r3, [r4, r3]
    2b60:	6018      	str	r0, [r3, #0]
/home/aom1/Work/Linux/target/STM32MP1-DK2/bootloader/optee-os-custom/lib/libutee/tee_api_arith_mpi.c:48
    2b62:	b938      	cbnz	r0, 2b74 <_TEE_MathAPI_Init+0x2c>
/home/aom1/Work/Linux/target/STM32MP1-DK2/bootloader/optee-os-custom/lib/libutee/tee_api_arith_mpi.c:49
    2b64:	4807      	ldr	r0, [pc, #28]	; (2b84 <_TEE_MathAPI_Init+0x3c>)
    2b66:	2131      	movs	r1, #49	; 0x31
    2b68:	4a07      	ldr	r2, [pc, #28]	; (2b88 <_TEE_MathAPI_Init+0x40>)
    2b6a:	4478      	add	r0, pc
    2b6c:	447a      	add	r2, pc
    2b6e:	301f      	adds	r0, #31
    2b70:	f7ff fcee 	bl	2550 <api_panic>
/home/aom1/Work/Linux/target/STM32MP1-DK2/bootloader/optee-os-custom/lib/libutee/tee_api_arith_mpi.c:50
    2b74:	bd10      	pop	{r4, pc}
    2b76:	bf00      	nop
    2b78:	00006778 	.word	0x00006778
    2b7c:	0000652e 	.word	0x0000652e
    2b80:	0000003c 	.word	0x0000003c
    2b84:	00004c90 	.word	0x00004c90
    2b88:	00004c1c 	.word	0x00004c1c

00002b8c <TEE_BigIntInit>:
TEE_BigIntInit():
/home/aom1/Work/Linux/target/STM32MP1-DK2/bootloader/optee-os-custom/lib/libutee/tee_api_arith_mpi.c:119
    2b8c:	b538      	push	{r3, r4, r5, lr}
    2b8e:	4605      	mov	r5, r0
/home/aom1/Work/Linux/target/STM32MP1-DK2/bootloader/optee-os-custom/lib/libutee/tee_api_arith_mpi.c:122
    2b90:	008a      	lsls	r2, r1, #2
/home/aom1/Work/Linux/target/STM32MP1-DK2/bootloader/optee-os-custom/lib/libutee/tee_api_arith_mpi.c:119
    2b92:	460c      	mov	r4, r1
/home/aom1/Work/Linux/target/STM32MP1-DK2/bootloader/optee-os-custom/lib/libutee/tee_api_arith_mpi.c:122
    2b94:	2100      	movs	r1, #0
/home/aom1/Work/Linux/target/STM32MP1-DK2/bootloader/optee-os-custom/lib/libutee/tee_api_arith_mpi.c:124
    2b96:	3c02      	subs	r4, #2
/home/aom1/Work/Linux/target/STM32MP1-DK2/bootloader/optee-os-custom/lib/libutee/tee_api_arith_mpi.c:122
    2b98:	f004 f9bb 	bl	6f12 <memset>
/home/aom1/Work/Linux/target/STM32MP1-DK2/bootloader/optee-os-custom/lib/libutee/tee_api_arith_mpi.c:123
    2b9c:	2301      	movs	r3, #1
    2b9e:	602b      	str	r3, [r5, #0]
/home/aom1/Work/Linux/target/STM32MP1-DK2/bootloader/optee-os-custom/lib/libutee/tee_api_arith_mpi.c:124
    2ba0:	f242 7310 	movw	r3, #10000	; 0x2710
    2ba4:	429c      	cmp	r4, r3
    2ba6:	d907      	bls.n	2bb8 <TEE_BigIntInit+0x2c>
/home/aom1/Work/Linux/target/STM32MP1-DK2/bootloader/optee-os-custom/lib/libutee/tee_api_arith_mpi.c:125
    2ba8:	4804      	ldr	r0, [pc, #16]	; (2bbc <TEE_BigIntInit+0x30>)
    2baa:	217d      	movs	r1, #125	; 0x7d
    2bac:	4a04      	ldr	r2, [pc, #16]	; (2bc0 <TEE_BigIntInit+0x34>)
    2bae:	4478      	add	r0, pc
    2bb0:	447a      	add	r2, pc
    2bb2:	3031      	adds	r0, #49	; 0x31
    2bb4:	f7ff fccc 	bl	2550 <api_panic>
/home/aom1/Work/Linux/target/STM32MP1-DK2/bootloader/optee-os-custom/lib/libutee/tee_api_arith_mpi.c:126
    2bb8:	80ac      	strh	r4, [r5, #4]
/home/aom1/Work/Linux/target/STM32MP1-DK2/bootloader/optee-os-custom/lib/libutee/tee_api_arith_mpi.c:127
    2bba:	bd38      	pop	{r3, r4, r5, pc}
    2bbc:	00004c4c 	.word	0x00004c4c
    2bc0:	00004bf9 	.word	0x00004bf9

00002bc4 <TEE_BigIntConvertFromOctetString>:
TEE_BigIntConvertFromOctetString():
/home/aom1/Work/Linux/target/STM32MP1-DK2/bootloader/optee-os-custom/lib/libutee/tee_api_arith_mpi.c:132
    2bc4:	e92d 41ff 	stmdb	sp!, {r0, r1, r2, r3, r4, r5, r6, r7, r8, lr}
get_mpi():
/home/aom1/Work/Linux/target/STM32MP1-DK2/bootloader/optee-os-custom/lib/libutee/tee_api_arith_mpi.c:101
    2bc8:	ad01      	add	r5, sp, #4
TEE_BigIntConvertFromOctetString():
/home/aom1/Work/Linux/target/STM32MP1-DK2/bootloader/optee-os-custom/lib/libutee/tee_api_arith_mpi.c:132
    2bca:	460f      	mov	r7, r1
    2bcc:	4690      	mov	r8, r2
    2bce:	4606      	mov	r6, r0
get_mpi():
/home/aom1/Work/Linux/target/STM32MP1-DK2/bootloader/optee-os-custom/lib/libutee/tee_api_arith_mpi.c:101
    2bd0:	4628      	mov	r0, r5
TEE_BigIntConvertFromOctetString():
/home/aom1/Work/Linux/target/STM32MP1-DK2/bootloader/optee-os-custom/lib/libutee/tee_api_arith_mpi.c:132
    2bd2:	461c      	mov	r4, r3
get_mpi():
/home/aom1/Work/Linux/target/STM32MP1-DK2/bootloader/optee-os-custom/lib/libutee/tee_api_arith_mpi.c:101
    2bd4:	f001 f9b2 	bl	3f3c <mbedtls_mpi_init_mempool>
TEE_BigIntConvertFromOctetString():
/home/aom1/Work/Linux/target/STM32MP1-DK2/bootloader/optee-os-custom/lib/libutee/tee_api_arith_mpi.c:138
    2bd8:	4642      	mov	r2, r8
    2bda:	4639      	mov	r1, r7
    2bdc:	4628      	mov	r0, r5
    2bde:	f001 fc1c 	bl	441a <mbedtls_mpi_read_binary>
    2be2:	b988      	cbnz	r0, 2c08 <TEE_BigIntConvertFromOctetString+0x44>
/home/aom1/Work/Linux/target/STM32MP1-DK2/bootloader/optee-os-custom/lib/libutee/tee_api_arith_mpi.c:143
    2be4:	2c00      	cmp	r4, #0
    2be6:	da03      	bge.n	2bf0 <TEE_BigIntConvertFromOctetString+0x2c>
/home/aom1/Work/Linux/target/STM32MP1-DK2/bootloader/optee-os-custom/lib/libutee/tee_api_arith_mpi.c:144
    2be8:	f64f 73ff 	movw	r3, #65535	; 0xffff
    2bec:	f8ad 3004 	strh.w	r3, [sp, #4]
/home/aom1/Work/Linux/target/STM32MP1-DK2/bootloader/optee-os-custom/lib/libutee/tee_api_arith_mpi.c:147
    2bf0:	4631      	mov	r1, r6
    2bf2:	4628      	mov	r0, r5
    2bf4:	f7ff fcf4 	bl	25e0 <copy_mpi_to_bigint>
    2bf8:	4604      	mov	r4, r0
/home/aom1/Work/Linux/target/STM32MP1-DK2/bootloader/optee-os-custom/lib/libutee/tee_api_arith_mpi.c:149
    2bfa:	4628      	mov	r0, r5
    2bfc:	f001 f9b2 	bl	3f64 <mbedtls_mpi_free>
/home/aom1/Work/Linux/target/STM32MP1-DK2/bootloader/optee-os-custom/lib/libutee/tee_api_arith_mpi.c:152
    2c00:	4620      	mov	r0, r4
    2c02:	b004      	add	sp, #16
    2c04:	e8bd 81f0 	ldmia.w	sp!, {r4, r5, r6, r7, r8, pc}
/home/aom1/Work/Linux/target/STM32MP1-DK2/bootloader/optee-os-custom/lib/libutee/tee_api_arith_mpi.c:143
    2c08:	2c00      	cmp	r4, #0
    2c0a:	da03      	bge.n	2c14 <TEE_BigIntConvertFromOctetString+0x50>
/home/aom1/Work/Linux/target/STM32MP1-DK2/bootloader/optee-os-custom/lib/libutee/tee_api_arith_mpi.c:144
    2c0c:	f64f 73ff 	movw	r3, #65535	; 0xffff
    2c10:	f8ad 3004 	strh.w	r3, [sp, #4]
/home/aom1/Work/Linux/target/STM32MP1-DK2/bootloader/optee-os-custom/lib/libutee/tee_api_arith_mpi.c:143
    2c14:	4c00      	ldr	r4, [pc, #0]	; (2c18 <TEE_BigIntConvertFromOctetString+0x54>)
    2c16:	e7f0      	b.n	2bfa <TEE_BigIntConvertFromOctetString+0x36>
    2c18:	ffff300f 	.word	0xffff300f

00002c1c <TEE_BigIntConvertToOctetString>:
TEE_BigIntConvertToOctetString():
/home/aom1/Work/Linux/target/STM32MP1-DK2/bootloader/optee-os-custom/lib/libutee/tee_api_arith_mpi.c:156
    2c1c:	b5f0      	push	{r4, r5, r6, r7, lr}
    2c1e:	b085      	sub	sp, #20
/home/aom1/Work/Linux/target/STM32MP1-DK2/bootloader/optee-os-custom/lib/libutee/tee_api_arith_mpi.c:161
    2c20:	ae01      	add	r6, sp, #4
/home/aom1/Work/Linux/target/STM32MP1-DK2/bootloader/optee-os-custom/lib/libutee/tee_api_arith_mpi.c:156
    2c22:	460f      	mov	r7, r1
    2c24:	4604      	mov	r4, r0
/home/aom1/Work/Linux/target/STM32MP1-DK2/bootloader/optee-os-custom/lib/libutee/tee_api_arith_mpi.c:161
    2c26:	4611      	mov	r1, r2
    2c28:	4630      	mov	r0, r6
    2c2a:	f7ff fcb1 	bl	2590 <get_mpi>
/home/aom1/Work/Linux/target/STM32MP1-DK2/bootloader/optee-os-custom/lib/libutee/tee_api_arith_mpi.c:163
    2c2e:	4630      	mov	r0, r6
    2c30:	f001 fbcb 	bl	43ca <mbedtls_mpi_size>
/home/aom1/Work/Linux/target/STM32MP1-DK2/bootloader/optee-os-custom/lib/libutee/tee_api_arith_mpi.c:164
    2c34:	683b      	ldr	r3, [r7, #0]
/home/aom1/Work/Linux/target/STM32MP1-DK2/bootloader/optee-os-custom/lib/libutee/tee_api_arith_mpi.c:163
    2c36:	4605      	mov	r5, r0
/home/aom1/Work/Linux/target/STM32MP1-DK2/bootloader/optee-os-custom/lib/libutee/tee_api_arith_mpi.c:164
    2c38:	4283      	cmp	r3, r0
    2c3a:	d30c      	bcc.n	2c56 <TEE_BigIntConvertToOctetString+0x3a>
/home/aom1/Work/Linux/target/STM32MP1-DK2/bootloader/optee-os-custom/lib/libutee/tee_api_arith_mpi.c:165
    2c3c:	4602      	mov	r2, r0
    2c3e:	4621      	mov	r1, r4
    2c40:	4630      	mov	r0, r6
    2c42:	f001 fc40 	bl	44c6 <mbedtls_mpi_write_binary>
    2c46:	4602      	mov	r2, r0
    2c48:	b168      	cbz	r0, 2c66 <TEE_BigIntConvertToOctetString+0x4a>
/home/aom1/Work/Linux/target/STM32MP1-DK2/bootloader/optee-os-custom/lib/libutee/tee_api_arith_mpi.c:165 (discriminator 1)
    2c4a:	4809      	ldr	r0, [pc, #36]	; (2c70 <TEE_BigIntConvertToOctetString+0x54>)
    2c4c:	21a5      	movs	r1, #165	; 0xa5
    2c4e:	4478      	add	r0, pc
    2c50:	3040      	adds	r0, #64	; 0x40
    2c52:	f7ff fc8d 	bl	2570 <mpi_panic>
/home/aom1/Work/Linux/target/STM32MP1-DK2/bootloader/optee-os-custom/lib/libutee/tee_api_arith_mpi.c:167
    2c56:	4c05      	ldr	r4, [pc, #20]	; (2c6c <TEE_BigIntConvertToOctetString+0x50>)
/home/aom1/Work/Linux/target/STM32MP1-DK2/bootloader/optee-os-custom/lib/libutee/tee_api_arith_mpi.c:169
    2c58:	603d      	str	r5, [r7, #0]
/home/aom1/Work/Linux/target/STM32MP1-DK2/bootloader/optee-os-custom/lib/libutee/tee_api_arith_mpi.c:171
    2c5a:	4630      	mov	r0, r6
    2c5c:	f001 f982 	bl	3f64 <mbedtls_mpi_free>
/home/aom1/Work/Linux/target/STM32MP1-DK2/bootloader/optee-os-custom/lib/libutee/tee_api_arith_mpi.c:174
    2c60:	4620      	mov	r0, r4
    2c62:	b005      	add	sp, #20
    2c64:	bdf0      	pop	{r4, r5, r6, r7, pc}
/home/aom1/Work/Linux/target/STM32MP1-DK2/bootloader/optee-os-custom/lib/libutee/tee_api_arith_mpi.c:157
    2c66:	4604      	mov	r4, r0
    2c68:	e7f6      	b.n	2c58 <TEE_BigIntConvertToOctetString+0x3c>
    2c6a:	bf00      	nop
    2c6c:	ffff0010 	.word	0xffff0010
    2c70:	00004bac 	.word	0x00004bac

00002c74 <TEE_BigIntConvertFromS32>:
TEE_BigIntConvertFromS32():
/home/aom1/Work/Linux/target/STM32MP1-DK2/bootloader/optee-os-custom/lib/libutee/tee_api_arith_mpi.c:177
    2c74:	b57f      	push	{r0, r1, r2, r3, r4, r5, r6, lr}
/home/aom1/Work/Linux/target/STM32MP1-DK2/bootloader/optee-os-custom/lib/libutee/tee_api_arith_mpi.c:180
    2c76:	ac01      	add	r4, sp, #4
/home/aom1/Work/Linux/target/STM32MP1-DK2/bootloader/optee-os-custom/lib/libutee/tee_api_arith_mpi.c:177
    2c78:	460e      	mov	r6, r1
    2c7a:	4605      	mov	r5, r0
/home/aom1/Work/Linux/target/STM32MP1-DK2/bootloader/optee-os-custom/lib/libutee/tee_api_arith_mpi.c:180
    2c7c:	4601      	mov	r1, r0
    2c7e:	4620      	mov	r0, r4
    2c80:	f7ff fc86 	bl	2590 <get_mpi>
/home/aom1/Work/Linux/target/STM32MP1-DK2/bootloader/optee-os-custom/lib/libutee/tee_api_arith_mpi.c:182
    2c84:	4631      	mov	r1, r6
    2c86:	4620      	mov	r0, r4
    2c88:	f001 fb16 	bl	42b8 <mbedtls_mpi_lset>
    2c8c:	4602      	mov	r2, r0
    2c8e:	b128      	cbz	r0, 2c9c <TEE_BigIntConvertFromS32+0x28>
/home/aom1/Work/Linux/target/STM32MP1-DK2/bootloader/optee-os-custom/lib/libutee/tee_api_arith_mpi.c:182 (discriminator 1)
    2c90:	480a      	ldr	r0, [pc, #40]	; (2cbc <TEE_BigIntConvertFromS32+0x48>)
    2c92:	21b6      	movs	r1, #182	; 0xb6
    2c94:	4478      	add	r0, pc
/home/aom1/Work/Linux/target/STM32MP1-DK2/bootloader/optee-os-custom/lib/libutee/tee_api_arith_mpi.c:184 (discriminator 1)
    2c96:	305f      	adds	r0, #95	; 0x5f
    2c98:	f7ff fc6a 	bl	2570 <mpi_panic>
/home/aom1/Work/Linux/target/STM32MP1-DK2/bootloader/optee-os-custom/lib/libutee/tee_api_arith_mpi.c:184 (discriminator 2)
    2c9c:	4629      	mov	r1, r5
    2c9e:	4620      	mov	r0, r4
    2ca0:	f7ff fc9e 	bl	25e0 <copy_mpi_to_bigint>
    2ca4:	4602      	mov	r2, r0
    2ca6:	b118      	cbz	r0, 2cb0 <TEE_BigIntConvertFromS32+0x3c>
/home/aom1/Work/Linux/target/STM32MP1-DK2/bootloader/optee-os-custom/lib/libutee/tee_api_arith_mpi.c:184 (discriminator 1)
    2ca8:	4805      	ldr	r0, [pc, #20]	; (2cc0 <TEE_BigIntConvertFromS32+0x4c>)
    2caa:	21b8      	movs	r1, #184	; 0xb8
    2cac:	4478      	add	r0, pc
    2cae:	e7f2      	b.n	2c96 <TEE_BigIntConvertFromS32+0x22>
/home/aom1/Work/Linux/target/STM32MP1-DK2/bootloader/optee-os-custom/lib/libutee/tee_api_arith_mpi.c:185 (discriminator 2)
    2cb0:	4620      	mov	r0, r4
    2cb2:	f001 f957 	bl	3f64 <mbedtls_mpi_free>
/home/aom1/Work/Linux/target/STM32MP1-DK2/bootloader/optee-os-custom/lib/libutee/tee_api_arith_mpi.c:186 (discriminator 2)
    2cb6:	b004      	add	sp, #16
    2cb8:	bd70      	pop	{r4, r5, r6, pc}
    2cba:	bf00      	nop
    2cbc:	00004b66 	.word	0x00004b66
    2cc0:	00004b4e 	.word	0x00004b4e

00002cc4 <TEE_BigIntConvertToS32>:
TEE_BigIntConvertToS32():
/home/aom1/Work/Linux/target/STM32MP1-DK2/bootloader/optee-os-custom/lib/libutee/tee_api_arith_mpi.c:189
    2cc4:	b530      	push	{r4, r5, lr}
    2cc6:	b085      	sub	sp, #20
/home/aom1/Work/Linux/target/STM32MP1-DK2/bootloader/optee-os-custom/lib/libutee/tee_api_arith_mpi.c:194
    2cc8:	ad01      	add	r5, sp, #4
/home/aom1/Work/Linux/target/STM32MP1-DK2/bootloader/optee-os-custom/lib/libutee/tee_api_arith_mpi.c:189
    2cca:	4604      	mov	r4, r0
/home/aom1/Work/Linux/target/STM32MP1-DK2/bootloader/optee-os-custom/lib/libutee/tee_api_arith_mpi.c:194
    2ccc:	4628      	mov	r0, r5
    2cce:	f7ff fc5f 	bl	2590 <get_mpi>
/home/aom1/Work/Linux/target/STM32MP1-DK2/bootloader/optee-os-custom/lib/libutee/tee_api_arith_mpi.c:196
    2cd2:	2204      	movs	r2, #4
    2cd4:	4669      	mov	r1, sp
    2cd6:	4628      	mov	r0, r5
    2cd8:	f001 fbf5 	bl	44c6 <mbedtls_mpi_write_binary>
    2cdc:	4603      	mov	r3, r0
    2cde:	b130      	cbz	r0, 2cee <TEE_BigIntConvertToS32+0x2a>
/home/aom1/Work/Linux/target/STM32MP1-DK2/bootloader/optee-os-custom/lib/libutee/tee_api_arith_mpi.c:197
    2ce0:	4c0e      	ldr	r4, [pc, #56]	; (2d1c <TEE_BigIntConvertToS32+0x58>)
/home/aom1/Work/Linux/target/STM32MP1-DK2/bootloader/optee-os-custom/lib/libutee/tee_api_arith_mpi.c:210
    2ce2:	4628      	mov	r0, r5
    2ce4:	f001 f93e 	bl	3f64 <mbedtls_mpi_free>
/home/aom1/Work/Linux/target/STM32MP1-DK2/bootloader/optee-os-custom/lib/libutee/tee_api_arith_mpi.c:213
    2ce8:	4620      	mov	r0, r4
    2cea:	b005      	add	sp, #20
    2cec:	bd30      	pop	{r4, r5, pc}
/home/aom1/Work/Linux/target/STM32MP1-DK2/bootloader/optee-os-custom/lib/libutee/tee_api_arith_mpi.c:201
    2cee:	f9bd 1004 	ldrsh.w	r1, [sp, #4]
/home/aom1/Work/Linux/target/STM32MP1-DK2/bootloader/optee-os-custom/lib/libutee/tee_api_arith_mpi.c:202
    2cf2:	9a00      	ldr	r2, [sp, #0]
/home/aom1/Work/Linux/target/STM32MP1-DK2/bootloader/optee-os-custom/lib/libutee/tee_api_arith_mpi.c:201
    2cf4:	2900      	cmp	r1, #0
/home/aom1/Work/Linux/target/STM32MP1-DK2/bootloader/optee-os-custom/lib/libutee/tee_api_arith_mpi.c:202
    2cf6:	ba12      	rev	r2, r2
/home/aom1/Work/Linux/target/STM32MP1-DK2/bootloader/optee-os-custom/lib/libutee/tee_api_arith_mpi.c:201
    2cf8:	dd04      	ble.n	2d04 <TEE_BigIntConvertToS32+0x40>
/home/aom1/Work/Linux/target/STM32MP1-DK2/bootloader/optee-os-custom/lib/libutee/tee_api_arith_mpi.c:202
    2cfa:	6022      	str	r2, [r4, #0]
    2cfc:	2a00      	cmp	r2, #0
    2cfe:	dbef      	blt.n	2ce0 <TEE_BigIntConvertToS32+0x1c>
/home/aom1/Work/Linux/target/STM32MP1-DK2/bootloader/optee-os-custom/lib/libutee/tee_api_arith_mpi.c:190
    2d00:	2400      	movs	r4, #0
    2d02:	e7ee      	b.n	2ce2 <TEE_BigIntConvertToS32+0x1e>
/home/aom1/Work/Linux/target/STM32MP1-DK2/bootloader/optee-os-custom/lib/libutee/tee_api_arith_mpi.c:205
    2d04:	4251      	negs	r1, r2
    2d06:	b11a      	cbz	r2, 2d10 <TEE_BigIntConvertToS32+0x4c>
    2d08:	2900      	cmp	r1, #0
    2d0a:	db03      	blt.n	2d14 <TEE_BigIntConvertToS32+0x50>
    2d0c:	2301      	movs	r3, #1
    2d0e:	e001      	b.n	2d14 <TEE_BigIntConvertToS32+0x50>
    2d10:	2900      	cmp	r1, #0
    2d12:	dbfb      	blt.n	2d0c <TEE_BigIntConvertToS32+0x48>
    2d14:	6021      	str	r1, [r4, #0]
    2d16:	2b00      	cmp	r3, #0
    2d18:	d0f2      	beq.n	2d00 <TEE_BigIntConvertToS32+0x3c>
    2d1a:	e7e1      	b.n	2ce0 <TEE_BigIntConvertToS32+0x1c>
    2d1c:	ffff300f 	.word	0xffff300f

00002d20 <TEE_BigIntCmp>:
TEE_BigIntCmp():
/home/aom1/Work/Linux/target/STM32MP1-DK2/bootloader/optee-os-custom/lib/libutee/tee_api_arith_mpi.c:216
    2d20:	b570      	push	{r4, r5, r6, lr}
    2d22:	b086      	sub	sp, #24
/home/aom1/Work/Linux/target/STM32MP1-DK2/bootloader/optee-os-custom/lib/libutee/tee_api_arith_mpi.c:221
    2d24:	466d      	mov	r5, sp
/home/aom1/Work/Linux/target/STM32MP1-DK2/bootloader/optee-os-custom/lib/libutee/tee_api_arith_mpi.c:216
    2d26:	460c      	mov	r4, r1
/home/aom1/Work/Linux/target/STM32MP1-DK2/bootloader/optee-os-custom/lib/libutee/tee_api_arith_mpi.c:221
    2d28:	4601      	mov	r1, r0
    2d2a:	4628      	mov	r0, r5
    2d2c:	f7ff fc30 	bl	2590 <get_mpi>
/home/aom1/Work/Linux/target/STM32MP1-DK2/bootloader/optee-os-custom/lib/libutee/tee_api_arith_mpi.c:222
    2d30:	4621      	mov	r1, r4
    2d32:	ac03      	add	r4, sp, #12
    2d34:	4620      	mov	r0, r4
    2d36:	f7ff fc2b 	bl	2590 <get_mpi>
/home/aom1/Work/Linux/target/STM32MP1-DK2/bootloader/optee-os-custom/lib/libutee/tee_api_arith_mpi.c:224
    2d3a:	4621      	mov	r1, r4
    2d3c:	4628      	mov	r0, r5
    2d3e:	f001 fcb6 	bl	46ae <mbedtls_mpi_cmp_mpi>
    2d42:	4606      	mov	r6, r0
/home/aom1/Work/Linux/target/STM32MP1-DK2/bootloader/optee-os-custom/lib/libutee/tee_api_arith_mpi.c:226
    2d44:	4628      	mov	r0, r5
    2d46:	f001 f90d 	bl	3f64 <mbedtls_mpi_free>
/home/aom1/Work/Linux/target/STM32MP1-DK2/bootloader/optee-os-custom/lib/libutee/tee_api_arith_mpi.c:227
    2d4a:	4620      	mov	r0, r4
    2d4c:	f001 f90a 	bl	3f64 <mbedtls_mpi_free>
/home/aom1/Work/Linux/target/STM32MP1-DK2/bootloader/optee-os-custom/lib/libutee/tee_api_arith_mpi.c:230
    2d50:	4630      	mov	r0, r6
    2d52:	b006      	add	sp, #24
    2d54:	bd70      	pop	{r4, r5, r6, pc}

00002d56 <TEE_BigIntCmpS32>:
TEE_BigIntCmpS32():
/home/aom1/Work/Linux/target/STM32MP1-DK2/bootloader/optee-os-custom/lib/libutee/tee_api_arith_mpi.c:233
    2d56:	b530      	push	{r4, r5, lr}
    2d58:	b085      	sub	sp, #20
/home/aom1/Work/Linux/target/STM32MP1-DK2/bootloader/optee-os-custom/lib/libutee/tee_api_arith_mpi.c:237
    2d5a:	ac01      	add	r4, sp, #4
/home/aom1/Work/Linux/target/STM32MP1-DK2/bootloader/optee-os-custom/lib/libutee/tee_api_arith_mpi.c:233
    2d5c:	460d      	mov	r5, r1
/home/aom1/Work/Linux/target/STM32MP1-DK2/bootloader/optee-os-custom/lib/libutee/tee_api_arith_mpi.c:237
    2d5e:	4601      	mov	r1, r0
    2d60:	4620      	mov	r0, r4
    2d62:	f7ff fc15 	bl	2590 <get_mpi>
/home/aom1/Work/Linux/target/STM32MP1-DK2/bootloader/optee-os-custom/lib/libutee/tee_api_arith_mpi.c:239
    2d66:	4629      	mov	r1, r5
    2d68:	4620      	mov	r0, r4
    2d6a:	f001 fd34 	bl	47d6 <mbedtls_mpi_cmp_int>
    2d6e:	4605      	mov	r5, r0
/home/aom1/Work/Linux/target/STM32MP1-DK2/bootloader/optee-os-custom/lib/libutee/tee_api_arith_mpi.c:241
    2d70:	4620      	mov	r0, r4
    2d72:	f001 f8f7 	bl	3f64 <mbedtls_mpi_free>
/home/aom1/Work/Linux/target/STM32MP1-DK2/bootloader/optee-os-custom/lib/libutee/tee_api_arith_mpi.c:244
    2d76:	4628      	mov	r0, r5
    2d78:	b005      	add	sp, #20
    2d7a:	bd30      	pop	{r4, r5, pc}

00002d7c <bigint_binary_mod>:
bigint_binary_mod():
/home/aom1/Work/Linux/target/STM32MP1-DK2/bootloader/optee-os-custom/lib/libutee/tee_api_arith_mpi.c:354
    2d7c:	e92d 4ff0 	stmdb	sp!, {r4, r5, r6, r7, r8, r9, sl, fp, lr}
    2d80:	4605      	mov	r5, r0
    2d82:	b091      	sub	sp, #68	; 0x44
    2d84:	468b      	mov	fp, r1
/home/aom1/Work/Linux/target/STM32MP1-DK2/bootloader/optee-os-custom/lib/libutee/tee_api_arith_mpi.c:363
    2d86:	4618      	mov	r0, r3
    2d88:	2102      	movs	r1, #2
/home/aom1/Work/Linux/target/STM32MP1-DK2/bootloader/optee-os-custom/lib/libutee/tee_api_arith_mpi.c:354
    2d8a:	4616      	mov	r6, r2
    2d8c:	461f      	mov	r7, r3
/home/aom1/Work/Linux/target/STM32MP1-DK2/bootloader/optee-os-custom/lib/libutee/tee_api_arith_mpi.c:363
    2d8e:	f7ff ffe2 	bl	2d56 <TEE_BigIntCmpS32>
    2d92:	2800      	cmp	r0, #0
    2d94:	da08      	bge.n	2da8 <bigint_binary_mod+0x2c>
/home/aom1/Work/Linux/target/STM32MP1-DK2/bootloader/optee-os-custom/lib/libutee/tee_api_arith_mpi.c:364
    2d96:	4837      	ldr	r0, [pc, #220]	; (2e74 <bigint_binary_mod+0xf8>)
    2d98:	f44f 71b6 	mov.w	r1, #364	; 0x16c
    2d9c:	4a36      	ldr	r2, [pc, #216]	; (2e78 <bigint_binary_mod+0xfc>)
    2d9e:	4478      	add	r0, pc
    2da0:	447a      	add	r2, pc
    2da2:	3078      	adds	r0, #120	; 0x78
    2da4:	f7ff fbd4 	bl	2550 <api_panic>
/home/aom1/Work/Linux/target/STM32MP1-DK2/bootloader/optee-os-custom/lib/libutee/tee_api_arith_mpi.c:366
    2da8:	ac01      	add	r4, sp, #4
    2daa:	4629      	mov	r1, r5
    2dac:	4620      	mov	r0, r4
/home/aom1/Work/Linux/target/STM32MP1-DK2/bootloader/optee-os-custom/lib/libutee/tee_api_arith_mpi.c:367
    2dae:	f10d 0828 	add.w	r8, sp, #40	; 0x28
    2db2:	f10d 0a10 	add.w	sl, sp, #16
/home/aom1/Work/Linux/target/STM32MP1-DK2/bootloader/optee-os-custom/lib/libutee/tee_api_arith_mpi.c:366
    2db6:	f7ff fbeb 	bl	2590 <get_mpi>
/home/aom1/Work/Linux/target/STM32MP1-DK2/bootloader/optee-os-custom/lib/libutee/tee_api_arith_mpi.c:367
    2dba:	4639      	mov	r1, r7
    2dbc:	4640      	mov	r0, r8
    2dbe:	f7ff fbe7 	bl	2590 <get_mpi>
/home/aom1/Work/Linux/target/STM32MP1-DK2/bootloader/optee-os-custom/lib/libutee/tee_api_arith_mpi.c:369
    2dc2:	455d      	cmp	r5, fp
    2dc4:	d022      	beq.n	2e0c <bigint_binary_mod+0x90>
/home/aom1/Work/Linux/target/STM32MP1-DK2/bootloader/optee-os-custom/lib/libutee/tee_api_arith_mpi.c:372
    2dc6:	4659      	mov	r1, fp
    2dc8:	4650      	mov	r0, sl
/home/aom1/Work/Linux/target/STM32MP1-DK2/bootloader/optee-os-custom/lib/libutee/tee_api_arith_mpi.c:359
    2dca:	4657      	mov	r7, sl
/home/aom1/Work/Linux/target/STM32MP1-DK2/bootloader/optee-os-custom/lib/libutee/tee_api_arith_mpi.c:372
    2dcc:	f7ff fbe0 	bl	2590 <get_mpi>
/home/aom1/Work/Linux/target/STM32MP1-DK2/bootloader/optee-os-custom/lib/libutee/tee_api_arith_mpi.c:374
    2dd0:	42b5      	cmp	r5, r6
    2dd2:	f10d 091c 	add.w	r9, sp, #28
    2dd6:	d01b      	beq.n	2e10 <bigint_binary_mod+0x94>
/home/aom1/Work/Linux/target/STM32MP1-DK2/bootloader/optee-os-custom/lib/libutee/tee_api_arith_mpi.c:376
    2dd8:	45b3      	cmp	fp, r6
    2dda:	d01b      	beq.n	2e14 <bigint_binary_mod+0x98>
/home/aom1/Work/Linux/target/STM32MP1-DK2/bootloader/optee-os-custom/lib/libutee/tee_api_arith_mpi.c:379
    2ddc:	4631      	mov	r1, r6
    2dde:	4648      	mov	r0, r9
/home/aom1/Work/Linux/target/STM32MP1-DK2/bootloader/optee-os-custom/lib/libutee/tee_api_arith_mpi.c:360
    2de0:	464e      	mov	r6, r9
/home/aom1/Work/Linux/target/STM32MP1-DK2/bootloader/optee-os-custom/lib/libutee/tee_api_arith_mpi.c:379
    2de2:	f7ff fbd5 	bl	2590 <get_mpi>
get_mpi():
/home/aom1/Work/Linux/target/STM32MP1-DK2/bootloader/optee-os-custom/lib/libutee/tee_api_arith_mpi.c:101
    2de6:	f10d 0b34 	add.w	fp, sp, #52	; 0x34
    2dea:	4658      	mov	r0, fp
    2dec:	f001 f8a6 	bl	3f3c <mbedtls_mpi_init_mempool>
bigint_binary_mod():
/home/aom1/Work/Linux/target/STM32MP1-DK2/bootloader/optee-os-custom/lib/libutee/tee_api_arith_mpi.c:383
    2df0:	9b1a      	ldr	r3, [sp, #104]	; 0x68
    2df2:	4632      	mov	r2, r6
    2df4:	4639      	mov	r1, r7
    2df6:	4658      	mov	r0, fp
    2df8:	4798      	blx	r3
    2dfa:	4602      	mov	r2, r0
    2dfc:	b160      	cbz	r0, 2e18 <bigint_binary_mod+0x9c>
/home/aom1/Work/Linux/target/STM32MP1-DK2/bootloader/optee-os-custom/lib/libutee/tee_api_arith_mpi.c:383 (discriminator 1)
    2dfe:	481f      	ldr	r0, [pc, #124]	; (2e7c <bigint_binary_mod+0x100>)
    2e00:	f240 117f 	movw	r1, #383	; 0x17f
    2e04:	4478      	add	r0, pc
/home/aom1/Work/Linux/target/STM32MP1-DK2/bootloader/optee-os-custom/lib/libutee/tee_api_arith_mpi.c:384 (discriminator 1)
    2e06:	3078      	adds	r0, #120	; 0x78
    2e08:	f7ff fbb2 	bl	2570 <mpi_panic>
/home/aom1/Work/Linux/target/STM32MP1-DK2/bootloader/optee-os-custom/lib/libutee/tee_api_arith_mpi.c:370
    2e0c:	4627      	mov	r7, r4
    2e0e:	e7df      	b.n	2dd0 <bigint_binary_mod+0x54>
/home/aom1/Work/Linux/target/STM32MP1-DK2/bootloader/optee-os-custom/lib/libutee/tee_api_arith_mpi.c:375
    2e10:	4626      	mov	r6, r4
    2e12:	e7e8      	b.n	2de6 <bigint_binary_mod+0x6a>
/home/aom1/Work/Linux/target/STM32MP1-DK2/bootloader/optee-os-custom/lib/libutee/tee_api_arith_mpi.c:377
    2e14:	463e      	mov	r6, r7
    2e16:	e7e6      	b.n	2de6 <bigint_binary_mod+0x6a>
/home/aom1/Work/Linux/target/STM32MP1-DK2/bootloader/optee-os-custom/lib/libutee/tee_api_arith_mpi.c:384 (discriminator 2)
    2e18:	4642      	mov	r2, r8
    2e1a:	4659      	mov	r1, fp
    2e1c:	4620      	mov	r0, r4
    2e1e:	f002 f928 	bl	5072 <mbedtls_mpi_mod_mpi>
    2e22:	4602      	mov	r2, r0
    2e24:	b120      	cbz	r0, 2e30 <bigint_binary_mod+0xb4>
/home/aom1/Work/Linux/target/STM32MP1-DK2/bootloader/optee-os-custom/lib/libutee/tee_api_arith_mpi.c:384 (discriminator 1)
    2e26:	4816      	ldr	r0, [pc, #88]	; (2e80 <bigint_binary_mod+0x104>)
    2e28:	f44f 71c0 	mov.w	r1, #384	; 0x180
    2e2c:	4478      	add	r0, pc
    2e2e:	e7ea      	b.n	2e06 <bigint_binary_mod+0x8a>
/home/aom1/Work/Linux/target/STM32MP1-DK2/bootloader/optee-os-custom/lib/libutee/tee_api_arith_mpi.c:386 (discriminator 2)
    2e30:	4629      	mov	r1, r5
    2e32:	4620      	mov	r0, r4
    2e34:	f7ff fbd4 	bl	25e0 <copy_mpi_to_bigint>
    2e38:	4602      	mov	r2, r0
    2e3a:	b120      	cbz	r0, 2e46 <bigint_binary_mod+0xca>
/home/aom1/Work/Linux/target/STM32MP1-DK2/bootloader/optee-os-custom/lib/libutee/tee_api_arith_mpi.c:386 (discriminator 1)
    2e3c:	4811      	ldr	r0, [pc, #68]	; (2e84 <bigint_binary_mod+0x108>)
    2e3e:	f44f 71c1 	mov.w	r1, #386	; 0x182
    2e42:	4478      	add	r0, pc
    2e44:	e7df      	b.n	2e06 <bigint_binary_mod+0x8a>
/home/aom1/Work/Linux/target/STM32MP1-DK2/bootloader/optee-os-custom/lib/libutee/tee_api_arith_mpi.c:387 (discriminator 2)
    2e46:	4620      	mov	r0, r4
    2e48:	f001 f88c 	bl	3f64 <mbedtls_mpi_free>
/home/aom1/Work/Linux/target/STM32MP1-DK2/bootloader/optee-os-custom/lib/libutee/tee_api_arith_mpi.c:388 (discriminator 2)
    2e4c:	4557      	cmp	r7, sl
    2e4e:	d102      	bne.n	2e56 <bigint_binary_mod+0xda>
/home/aom1/Work/Linux/target/STM32MP1-DK2/bootloader/optee-os-custom/lib/libutee/tee_api_arith_mpi.c:389
    2e50:	4638      	mov	r0, r7
    2e52:	f001 f887 	bl	3f64 <mbedtls_mpi_free>
/home/aom1/Work/Linux/target/STM32MP1-DK2/bootloader/optee-os-custom/lib/libutee/tee_api_arith_mpi.c:390
    2e56:	454e      	cmp	r6, r9
    2e58:	d102      	bne.n	2e60 <bigint_binary_mod+0xe4>
/home/aom1/Work/Linux/target/STM32MP1-DK2/bootloader/optee-os-custom/lib/libutee/tee_api_arith_mpi.c:391
    2e5a:	4630      	mov	r0, r6
    2e5c:	f001 f882 	bl	3f64 <mbedtls_mpi_free>
/home/aom1/Work/Linux/target/STM32MP1-DK2/bootloader/optee-os-custom/lib/libutee/tee_api_arith_mpi.c:392
    2e60:	4658      	mov	r0, fp
    2e62:	f001 f87f 	bl	3f64 <mbedtls_mpi_free>
/home/aom1/Work/Linux/target/STM32MP1-DK2/bootloader/optee-os-custom/lib/libutee/tee_api_arith_mpi.c:393
    2e66:	4640      	mov	r0, r8
    2e68:	f001 f87c 	bl	3f64 <mbedtls_mpi_free>
/home/aom1/Work/Linux/target/STM32MP1-DK2/bootloader/optee-os-custom/lib/libutee/tee_api_arith_mpi.c:394
    2e6c:	b011      	add	sp, #68	; 0x44
    2e6e:	e8bd 8ff0 	ldmia.w	sp!, {r4, r5, r6, r7, r8, r9, sl, fp, pc}
    2e72:	bf00      	nop
    2e74:	00004a5c 	.word	0x00004a5c
    2e78:	00004a1a 	.word	0x00004a1a
    2e7c:	000049f6 	.word	0x000049f6
    2e80:	000049ce 	.word	0x000049ce
    2e84:	000049b8 	.word	0x000049b8

00002e88 <TEE_BigIntShiftRight>:
TEE_BigIntShiftRight():
/home/aom1/Work/Linux/target/STM32MP1-DK2/bootloader/optee-os-custom/lib/libutee/tee_api_arith_mpi.c:247
    2e88:	e92d 41f0 	stmdb	sp!, {r4, r5, r6, r7, r8, lr}
    2e8c:	b08a      	sub	sp, #40	; 0x28
/home/aom1/Work/Linux/target/STM32MP1-DK2/bootloader/optee-os-custom/lib/libutee/tee_api_arith_mpi.c:251
    2e8e:	ac01      	add	r4, sp, #4
/home/aom1/Work/Linux/target/STM32MP1-DK2/bootloader/optee-os-custom/lib/libutee/tee_api_arith_mpi.c:247
    2e90:	4605      	mov	r5, r0
    2e92:	460f      	mov	r7, r1
/home/aom1/Work/Linux/target/STM32MP1-DK2/bootloader/optee-os-custom/lib/libutee/tee_api_arith_mpi.c:251
    2e94:	4601      	mov	r1, r0
    2e96:	4620      	mov	r0, r4
/home/aom1/Work/Linux/target/STM32MP1-DK2/bootloader/optee-os-custom/lib/libutee/tee_api_arith_mpi.c:247
    2e98:	4690      	mov	r8, r2
/home/aom1/Work/Linux/target/STM32MP1-DK2/bootloader/optee-os-custom/lib/libutee/tee_api_arith_mpi.c:251
    2e9a:	f7ff fb79 	bl	2590 <get_mpi>
/home/aom1/Work/Linux/target/STM32MP1-DK2/bootloader/optee-os-custom/lib/libutee/tee_api_arith_mpi.c:253
    2e9e:	42bd      	cmp	r5, r7
    2ea0:	d10c      	bne.n	2ebc <TEE_BigIntShiftRight+0x34>
/home/aom1/Work/Linux/target/STM32MP1-DK2/bootloader/optee-os-custom/lib/libutee/tee_api_arith_mpi.c:254
    2ea2:	4641      	mov	r1, r8
    2ea4:	4620      	mov	r0, r4
    2ea6:	f001 fb95 	bl	45d4 <mbedtls_mpi_shift_r>
    2eaa:	4602      	mov	r2, r0
    2eac:	2800      	cmp	r0, #0
    2eae:	d054      	beq.n	2f5a <TEE_BigIntShiftRight+0xd2>
/home/aom1/Work/Linux/target/STM32MP1-DK2/bootloader/optee-os-custom/lib/libutee/tee_api_arith_mpi.c:254 (discriminator 1)
    2eb0:	4832      	ldr	r0, [pc, #200]	; (2f7c <TEE_BigIntShiftRight+0xf4>)
    2eb2:	21fe      	movs	r1, #254	; 0xfe
    2eb4:	4478      	add	r0, pc
/home/aom1/Work/Linux/target/STM32MP1-DK2/bootloader/optee-os-custom/lib/libutee/tee_api_arith_mpi.c:261 (discriminator 1)
    2eb6:	308a      	adds	r0, #138	; 0x8a
    2eb8:	f7ff fb5a 	bl	2570 <mpi_panic>
/home/aom1/Work/Linux/target/STM32MP1-DK2/bootloader/optee-os-custom/lib/libutee/tee_api_arith_mpi.c:258
    2ebc:	ae04      	add	r6, sp, #16
    2ebe:	4639      	mov	r1, r7
    2ec0:	4630      	mov	r0, r6
    2ec2:	f7ff fb65 	bl	2590 <get_mpi>
/home/aom1/Work/Linux/target/STM32MP1-DK2/bootloader/optee-os-custom/lib/libutee/tee_api_arith_mpi.c:260
    2ec6:	4620      	mov	r0, r4
    2ec8:	f001 fa7f 	bl	43ca <mbedtls_mpi_size>
    2ecc:	4607      	mov	r7, r0
    2ece:	4630      	mov	r0, r6
    2ed0:	f001 fa7b 	bl	43ca <mbedtls_mpi_size>
    2ed4:	4287      	cmp	r7, r0
    2ed6:	d315      	bcc.n	2f04 <TEE_BigIntShiftRight+0x7c>
/home/aom1/Work/Linux/target/STM32MP1-DK2/bootloader/optee-os-custom/lib/libutee/tee_api_arith_mpi.c:261
    2ed8:	4631      	mov	r1, r6
    2eda:	4620      	mov	r0, r4
    2edc:	f001 f926 	bl	412c <mbedtls_mpi_copy>
    2ee0:	4602      	mov	r2, r0
    2ee2:	b120      	cbz	r0, 2eee <TEE_BigIntShiftRight+0x66>
/home/aom1/Work/Linux/target/STM32MP1-DK2/bootloader/optee-os-custom/lib/libutee/tee_api_arith_mpi.c:261 (discriminator 1)
    2ee4:	4826      	ldr	r0, [pc, #152]	; (2f80 <TEE_BigIntShiftRight+0xf8>)
    2ee6:	f240 1105 	movw	r1, #261	; 0x105
    2eea:	4478      	add	r0, pc
    2eec:	e7e3      	b.n	2eb6 <TEE_BigIntShiftRight+0x2e>
/home/aom1/Work/Linux/target/STM32MP1-DK2/bootloader/optee-os-custom/lib/libutee/tee_api_arith_mpi.c:262 (discriminator 2)
    2eee:	4641      	mov	r1, r8
    2ef0:	4620      	mov	r0, r4
    2ef2:	f001 fb6f 	bl	45d4 <mbedtls_mpi_shift_r>
    2ef6:	4602      	mov	r2, r0
    2ef8:	b360      	cbz	r0, 2f54 <TEE_BigIntShiftRight+0xcc>
/home/aom1/Work/Linux/target/STM32MP1-DK2/bootloader/optee-os-custom/lib/libutee/tee_api_arith_mpi.c:262 (discriminator 1)
    2efa:	4822      	ldr	r0, [pc, #136]	; (2f84 <TEE_BigIntShiftRight+0xfc>)
    2efc:	f44f 7183 	mov.w	r1, #262	; 0x106
    2f00:	4478      	add	r0, pc
    2f02:	e7d8      	b.n	2eb6 <TEE_BigIntShiftRight+0x2e>
get_mpi():
/home/aom1/Work/Linux/target/STM32MP1-DK2/bootloader/optee-os-custom/lib/libutee/tee_api_arith_mpi.c:101
    2f04:	af07      	add	r7, sp, #28
    2f06:	4638      	mov	r0, r7
    2f08:	f001 f818 	bl	3f3c <mbedtls_mpi_init_mempool>
TEE_BigIntShiftRight():
/home/aom1/Work/Linux/target/STM32MP1-DK2/bootloader/optee-os-custom/lib/libutee/tee_api_arith_mpi.c:273
    2f0c:	4631      	mov	r1, r6
    2f0e:	4638      	mov	r0, r7
    2f10:	f001 f90c 	bl	412c <mbedtls_mpi_copy>
    2f14:	4602      	mov	r2, r0
    2f16:	b120      	cbz	r0, 2f22 <TEE_BigIntShiftRight+0x9a>
/home/aom1/Work/Linux/target/STM32MP1-DK2/bootloader/optee-os-custom/lib/libutee/tee_api_arith_mpi.c:273 (discriminator 1)
    2f18:	481b      	ldr	r0, [pc, #108]	; (2f88 <TEE_BigIntShiftRight+0x100>)
    2f1a:	f240 1111 	movw	r1, #273	; 0x111
    2f1e:	4478      	add	r0, pc
    2f20:	e7c9      	b.n	2eb6 <TEE_BigIntShiftRight+0x2e>
/home/aom1/Work/Linux/target/STM32MP1-DK2/bootloader/optee-os-custom/lib/libutee/tee_api_arith_mpi.c:274 (discriminator 2)
    2f22:	4641      	mov	r1, r8
    2f24:	4638      	mov	r0, r7
    2f26:	f001 fb55 	bl	45d4 <mbedtls_mpi_shift_r>
    2f2a:	4602      	mov	r2, r0
    2f2c:	b120      	cbz	r0, 2f38 <TEE_BigIntShiftRight+0xb0>
/home/aom1/Work/Linux/target/STM32MP1-DK2/bootloader/optee-os-custom/lib/libutee/tee_api_arith_mpi.c:274 (discriminator 1)
    2f2e:	4817      	ldr	r0, [pc, #92]	; (2f8c <TEE_BigIntShiftRight+0x104>)
    2f30:	f44f 7189 	mov.w	r1, #274	; 0x112
    2f34:	4478      	add	r0, pc
    2f36:	e7be      	b.n	2eb6 <TEE_BigIntShiftRight+0x2e>
/home/aom1/Work/Linux/target/STM32MP1-DK2/bootloader/optee-os-custom/lib/libutee/tee_api_arith_mpi.c:275 (discriminator 2)
    2f38:	4639      	mov	r1, r7
    2f3a:	4620      	mov	r0, r4
    2f3c:	f001 f8f6 	bl	412c <mbedtls_mpi_copy>
    2f40:	4602      	mov	r2, r0
    2f42:	b120      	cbz	r0, 2f4e <TEE_BigIntShiftRight+0xc6>
/home/aom1/Work/Linux/target/STM32MP1-DK2/bootloader/optee-os-custom/lib/libutee/tee_api_arith_mpi.c:275 (discriminator 1)
    2f44:	4812      	ldr	r0, [pc, #72]	; (2f90 <TEE_BigIntShiftRight+0x108>)
    2f46:	f240 1113 	movw	r1, #275	; 0x113
    2f4a:	4478      	add	r0, pc
    2f4c:	e7b3      	b.n	2eb6 <TEE_BigIntShiftRight+0x2e>
/home/aom1/Work/Linux/target/STM32MP1-DK2/bootloader/optee-os-custom/lib/libutee/tee_api_arith_mpi.c:277 (discriminator 2)
    2f4e:	4638      	mov	r0, r7
    2f50:	f001 f808 	bl	3f64 <mbedtls_mpi_free>
/home/aom1/Work/Linux/target/STM32MP1-DK2/bootloader/optee-os-custom/lib/libutee/tee_api_arith_mpi.c:280
    2f54:	4630      	mov	r0, r6
    2f56:	f001 f805 	bl	3f64 <mbedtls_mpi_free>
/home/aom1/Work/Linux/target/STM32MP1-DK2/bootloader/optee-os-custom/lib/libutee/tee_api_arith_mpi.c:283
    2f5a:	4629      	mov	r1, r5
    2f5c:	4620      	mov	r0, r4
    2f5e:	f7ff fb3f 	bl	25e0 <copy_mpi_to_bigint>
    2f62:	4602      	mov	r2, r0
    2f64:	b120      	cbz	r0, 2f70 <TEE_BigIntShiftRight+0xe8>
/home/aom1/Work/Linux/target/STM32MP1-DK2/bootloader/optee-os-custom/lib/libutee/tee_api_arith_mpi.c:283 (discriminator 1)
    2f66:	480b      	ldr	r0, [pc, #44]	; (2f94 <TEE_BigIntShiftRight+0x10c>)
    2f68:	f240 111b 	movw	r1, #283	; 0x11b
    2f6c:	4478      	add	r0, pc
    2f6e:	e7a2      	b.n	2eb6 <TEE_BigIntShiftRight+0x2e>
/home/aom1/Work/Linux/target/STM32MP1-DK2/bootloader/optee-os-custom/lib/libutee/tee_api_arith_mpi.c:284 (discriminator 2)
    2f70:	4620      	mov	r0, r4
    2f72:	f000 fff7 	bl	3f64 <mbedtls_mpi_free>
/home/aom1/Work/Linux/target/STM32MP1-DK2/bootloader/optee-os-custom/lib/libutee/tee_api_arith_mpi.c:285 (discriminator 2)
    2f76:	b00a      	add	sp, #40	; 0x28
    2f78:	e8bd 81f0 	ldmia.w	sp!, {r4, r5, r6, r7, r8, pc}
    2f7c:	00004946 	.word	0x00004946
    2f80:	00004910 	.word	0x00004910
    2f84:	000048fa 	.word	0x000048fa
    2f88:	000048dc 	.word	0x000048dc
    2f8c:	000048c6 	.word	0x000048c6
    2f90:	000048b0 	.word	0x000048b0
    2f94:	0000488e 	.word	0x0000488e

00002f98 <TEE_BigIntGetBit>:
TEE_BigIntGetBit():
/home/aom1/Work/Linux/target/STM32MP1-DK2/bootloader/optee-os-custom/lib/libutee/tee_api_arith_mpi.c:288
    2f98:	b530      	push	{r4, r5, lr}
    2f9a:	b085      	sub	sp, #20
/home/aom1/Work/Linux/target/STM32MP1-DK2/bootloader/optee-os-custom/lib/libutee/tee_api_arith_mpi.c:292
    2f9c:	ac01      	add	r4, sp, #4
/home/aom1/Work/Linux/target/STM32MP1-DK2/bootloader/optee-os-custom/lib/libutee/tee_api_arith_mpi.c:288
    2f9e:	460d      	mov	r5, r1
/home/aom1/Work/Linux/target/STM32MP1-DK2/bootloader/optee-os-custom/lib/libutee/tee_api_arith_mpi.c:292
    2fa0:	4601      	mov	r1, r0
    2fa2:	4620      	mov	r0, r4
    2fa4:	f7ff faf4 	bl	2590 <get_mpi>
/home/aom1/Work/Linux/target/STM32MP1-DK2/bootloader/optee-os-custom/lib/libutee/tee_api_arith_mpi.c:294
    2fa8:	4629      	mov	r1, r5
    2faa:	4620      	mov	r0, r4
    2fac:	f001 f9a0 	bl	42f0 <mbedtls_mpi_get_bit>
    2fb0:	4605      	mov	r5, r0
/home/aom1/Work/Linux/target/STM32MP1-DK2/bootloader/optee-os-custom/lib/libutee/tee_api_arith_mpi.c:296
    2fb2:	4620      	mov	r0, r4
    2fb4:	f000 ffd6 	bl	3f64 <mbedtls_mpi_free>
/home/aom1/Work/Linux/target/STM32MP1-DK2/bootloader/optee-os-custom/lib/libutee/tee_api_arith_mpi.c:299
    2fb8:	1e28      	subs	r0, r5, #0
    2fba:	bf18      	it	ne
    2fbc:	2001      	movne	r0, #1
    2fbe:	b005      	add	sp, #20
    2fc0:	bd30      	pop	{r4, r5, pc}

00002fc2 <TEE_BigIntGetBitCount>:
TEE_BigIntGetBitCount():
/home/aom1/Work/Linux/target/STM32MP1-DK2/bootloader/optee-os-custom/lib/libutee/tee_api_arith_mpi.c:302
    2fc2:	b530      	push	{r4, r5, lr}
    2fc4:	b085      	sub	sp, #20
/home/aom1/Work/Linux/target/STM32MP1-DK2/bootloader/optee-os-custom/lib/libutee/tee_api_arith_mpi.c:306
    2fc6:	ac01      	add	r4, sp, #4
/home/aom1/Work/Linux/target/STM32MP1-DK2/bootloader/optee-os-custom/lib/libutee/tee_api_arith_mpi.c:302
    2fc8:	4601      	mov	r1, r0
/home/aom1/Work/Linux/target/STM32MP1-DK2/bootloader/optee-os-custom/lib/libutee/tee_api_arith_mpi.c:306
    2fca:	4620      	mov	r0, r4
    2fcc:	f7ff fae0 	bl	2590 <get_mpi>
/home/aom1/Work/Linux/target/STM32MP1-DK2/bootloader/optee-os-custom/lib/libutee/tee_api_arith_mpi.c:308
    2fd0:	4620      	mov	r0, r4
    2fd2:	f001 f9df 	bl	4394 <mbedtls_mpi_bitlen>
    2fd6:	4605      	mov	r5, r0
/home/aom1/Work/Linux/target/STM32MP1-DK2/bootloader/optee-os-custom/lib/libutee/tee_api_arith_mpi.c:310
    2fd8:	4620      	mov	r0, r4
    2fda:	f000 ffc3 	bl	3f64 <mbedtls_mpi_free>
/home/aom1/Work/Linux/target/STM32MP1-DK2/bootloader/optee-os-custom/lib/libutee/tee_api_arith_mpi.c:313
    2fde:	4628      	mov	r0, r5
    2fe0:	b005      	add	sp, #20
    2fe2:	bd30      	pop	{r4, r5, pc}

00002fe4 <TEE_BigIntAdd>:
TEE_BigIntAdd():
/home/aom1/Work/Linux/target/STM32MP1-DK2/bootloader/optee-os-custom/lib/libutee/tee_api_arith_mpi.c:398
    2fe4:	4b04      	ldr	r3, [pc, #16]	; (2ff8 <TEE_BigIntAdd+0x14>)
    2fe6:	b410      	push	{r4}
    2fe8:	447b      	add	r3, pc
/home/aom1/Work/Linux/target/STM32MP1-DK2/bootloader/optee-os-custom/lib/libutee/tee_api_arith_mpi.c:399
    2fea:	4c04      	ldr	r4, [pc, #16]	; (2ffc <TEE_BigIntAdd+0x18>)
    2fec:	591b      	ldr	r3, [r3, r4]
/home/aom1/Work/Linux/target/STM32MP1-DK2/bootloader/optee-os-custom/lib/libutee/tee_api_arith_mpi.c:400
    2fee:	f85d 4b04 	ldr.w	r4, [sp], #4
/home/aom1/Work/Linux/target/STM32MP1-DK2/bootloader/optee-os-custom/lib/libutee/tee_api_arith_mpi.c:399
    2ff2:	f7ff bb15 	b.w	2620 <bigint_binary>
    2ff6:	bf00      	nop
    2ff8:	0000609c 	.word	0x0000609c
    2ffc:	0000001c 	.word	0x0000001c

00003000 <TEE_BigIntSub>:
TEE_BigIntSub():
/home/aom1/Work/Linux/target/STM32MP1-DK2/bootloader/optee-os-custom/lib/libutee/tee_api_arith_mpi.c:404
    3000:	4b04      	ldr	r3, [pc, #16]	; (3014 <TEE_BigIntSub+0x14>)
    3002:	b410      	push	{r4}
    3004:	447b      	add	r3, pc
/home/aom1/Work/Linux/target/STM32MP1-DK2/bootloader/optee-os-custom/lib/libutee/tee_api_arith_mpi.c:405
    3006:	4c04      	ldr	r4, [pc, #16]	; (3018 <TEE_BigIntSub+0x18>)
    3008:	591b      	ldr	r3, [r3, r4]
/home/aom1/Work/Linux/target/STM32MP1-DK2/bootloader/optee-os-custom/lib/libutee/tee_api_arith_mpi.c:406
    300a:	f85d 4b04 	ldr.w	r4, [sp], #4
/home/aom1/Work/Linux/target/STM32MP1-DK2/bootloader/optee-os-custom/lib/libutee/tee_api_arith_mpi.c:405
    300e:	f7ff bb07 	b.w	2620 <bigint_binary>
    3012:	bf00      	nop
    3014:	00006080 	.word	0x00006080
    3018:	00000024 	.word	0x00000024

0000301c <TEE_BigIntNeg>:
TEE_BigIntNeg():
/home/aom1/Work/Linux/target/STM32MP1-DK2/bootloader/optee-os-custom/lib/libutee/tee_api_arith_mpi.c:409
    301c:	b5f0      	push	{r4, r5, r6, r7, lr}
    301e:	b087      	sub	sp, #28
/home/aom1/Work/Linux/target/STM32MP1-DK2/bootloader/optee-os-custom/lib/libutee/tee_api_arith_mpi.c:412
    3020:	466d      	mov	r5, sp
/home/aom1/Work/Linux/target/STM32MP1-DK2/bootloader/optee-os-custom/lib/libutee/tee_api_arith_mpi.c:409
    3022:	4604      	mov	r4, r0
    3024:	460e      	mov	r6, r1
/home/aom1/Work/Linux/target/STM32MP1-DK2/bootloader/optee-os-custom/lib/libutee/tee_api_arith_mpi.c:412
    3026:	4601      	mov	r1, r0
    3028:	4628      	mov	r0, r5
    302a:	f7ff fab1 	bl	2590 <get_mpi>
/home/aom1/Work/Linux/target/STM32MP1-DK2/bootloader/optee-os-custom/lib/libutee/tee_api_arith_mpi.c:414
    302e:	42b4      	cmp	r4, r6
    3030:	d014      	beq.n	305c <TEE_BigIntNeg+0x40>
/home/aom1/Work/Linux/target/STM32MP1-DK2/bootloader/optee-os-custom/lib/libutee/tee_api_arith_mpi.c:417
    3032:	af03      	add	r7, sp, #12
    3034:	4631      	mov	r1, r6
    3036:	4638      	mov	r0, r7
    3038:	f7ff faaa 	bl	2590 <get_mpi>
/home/aom1/Work/Linux/target/STM32MP1-DK2/bootloader/optee-os-custom/lib/libutee/tee_api_arith_mpi.c:419
    303c:	4639      	mov	r1, r7
    303e:	4628      	mov	r0, r5
    3040:	f001 f874 	bl	412c <mbedtls_mpi_copy>
    3044:	4602      	mov	r2, r0
    3046:	b130      	cbz	r0, 3056 <TEE_BigIntNeg+0x3a>
/home/aom1/Work/Linux/target/STM32MP1-DK2/bootloader/optee-os-custom/lib/libutee/tee_api_arith_mpi.c:419 (discriminator 1)
    3048:	480f      	ldr	r0, [pc, #60]	; (3088 <TEE_BigIntNeg+0x6c>)
    304a:	f240 11a3 	movw	r1, #419	; 0x1a3
    304e:	4478      	add	r0, pc
/home/aom1/Work/Linux/target/STM32MP1-DK2/bootloader/optee-os-custom/lib/libutee/tee_api_arith_mpi.c:426 (discriminator 1)
    3050:	309f      	adds	r0, #159	; 0x9f
    3052:	f7ff fa8d 	bl	2570 <mpi_panic>
/home/aom1/Work/Linux/target/STM32MP1-DK2/bootloader/optee-os-custom/lib/libutee/tee_api_arith_mpi.c:421 (discriminator 2)
    3056:	4638      	mov	r0, r7
    3058:	f000 ff84 	bl	3f64 <mbedtls_mpi_free>
/home/aom1/Work/Linux/target/STM32MP1-DK2/bootloader/optee-os-custom/lib/libutee/tee_api_arith_mpi.c:424
    305c:	f8bd 3000 	ldrh.w	r3, [sp]
/home/aom1/Work/Linux/target/STM32MP1-DK2/bootloader/optee-os-custom/lib/libutee/tee_api_arith_mpi.c:426
    3060:	4621      	mov	r1, r4
    3062:	4628      	mov	r0, r5
/home/aom1/Work/Linux/target/STM32MP1-DK2/bootloader/optee-os-custom/lib/libutee/tee_api_arith_mpi.c:424
    3064:	425b      	negs	r3, r3
    3066:	f8ad 3000 	strh.w	r3, [sp]
/home/aom1/Work/Linux/target/STM32MP1-DK2/bootloader/optee-os-custom/lib/libutee/tee_api_arith_mpi.c:426
    306a:	f7ff fab9 	bl	25e0 <copy_mpi_to_bigint>
    306e:	4602      	mov	r2, r0
    3070:	b120      	cbz	r0, 307c <TEE_BigIntNeg+0x60>
/home/aom1/Work/Linux/target/STM32MP1-DK2/bootloader/optee-os-custom/lib/libutee/tee_api_arith_mpi.c:426 (discriminator 1)
    3072:	4806      	ldr	r0, [pc, #24]	; (308c <TEE_BigIntNeg+0x70>)
    3074:	f44f 71d5 	mov.w	r1, #426	; 0x1aa
    3078:	4478      	add	r0, pc
    307a:	e7e9      	b.n	3050 <TEE_BigIntNeg+0x34>
/home/aom1/Work/Linux/target/STM32MP1-DK2/bootloader/optee-os-custom/lib/libutee/tee_api_arith_mpi.c:427 (discriminator 2)
    307c:	4628      	mov	r0, r5
    307e:	f000 ff71 	bl	3f64 <mbedtls_mpi_free>
/home/aom1/Work/Linux/target/STM32MP1-DK2/bootloader/optee-os-custom/lib/libutee/tee_api_arith_mpi.c:428 (discriminator 2)
    3082:	b007      	add	sp, #28
    3084:	bdf0      	pop	{r4, r5, r6, r7, pc}
    3086:	bf00      	nop
    3088:	000047ac 	.word	0x000047ac
    308c:	00004782 	.word	0x00004782

00003090 <TEE_BigIntMul>:
TEE_BigIntMul():
/home/aom1/Work/Linux/target/STM32MP1-DK2/bootloader/optee-os-custom/lib/libutee/tee_api_arith_mpi.c:432
    3090:	e92d 4ff0 	stmdb	sp!, {r4, r5, r6, r7, r8, r9, sl, fp, lr}
    3094:	4607      	mov	r7, r0
    3096:	f8df 8090 	ldr.w	r8, [pc, #144]	; 3128 <TEE_BigIntMul+0x98>
    309a:	b085      	sub	sp, #20
/home/aom1/Work/Linux/target/STM32MP1-DK2/bootloader/optee-os-custom/lib/libutee/tee_api_arith_mpi.c:433
    309c:	4608      	mov	r0, r1
/home/aom1/Work/Linux/target/STM32MP1-DK2/bootloader/optee-os-custom/lib/libutee/tee_api_arith_mpi.c:432
    309e:	4616      	mov	r6, r2
    30a0:	44f8      	add	r8, pc
    30a2:	460d      	mov	r5, r1
/home/aom1/Work/Linux/target/STM32MP1-DK2/bootloader/optee-os-custom/lib/libutee/tee_api_arith_mpi.c:436
    30a4:	f10d 0b04 	add.w	fp, sp, #4
/home/aom1/Work/Linux/target/STM32MP1-DK2/bootloader/optee-os-custom/lib/libutee/tee_api_arith_mpi.c:433
    30a8:	f7ff ff8b 	bl	2fc2 <TEE_BigIntGetBitCount>
    30ac:	4604      	mov	r4, r0
/home/aom1/Work/Linux/target/STM32MP1-DK2/bootloader/optee-os-custom/lib/libutee/tee_api_arith_mpi.c:434
    30ae:	4630      	mov	r0, r6
    30b0:	f7ff ff87 	bl	2fc2 <TEE_BigIntGetBitCount>
/home/aom1/Work/Linux/target/STM32MP1-DK2/bootloader/optee-os-custom/lib/libutee/tee_api_arith_mpi.c:436
    30b4:	efc0 0010 	vmov.i32	d16, #0	; 0x00000000
/home/aom1/Work/Linux/target/STM32MP1-DK2/bootloader/optee-os-custom/lib/libutee/tee_api_arith_mpi.c:435
    30b8:	f104 031f 	add.w	r3, r4, #31
    30bc:	f100 041f 	add.w	r4, r0, #31
/home/aom1/Work/Linux/target/STM32MP1-DK2/bootloader/optee-os-custom/lib/libutee/tee_api_arith_mpi.c:436
    30c0:	edcd 0b01 	vstr	d16, [sp, #4]
    30c4:	edcd 0b02 	vstr	d16, [sp, #8]
/home/aom1/Work/Linux/target/STM32MP1-DK2/bootloader/optee-os-custom/lib/libutee/tee_api_arith_mpi.c:435
    30c8:	0964      	lsrs	r4, r4, #5
    30ca:	eb04 1453 	add.w	r4, r4, r3, lsr #5
/home/aom1/Work/Linux/target/STM32MP1-DK2/bootloader/optee-os-custom/lib/libutee/tee_api_arith_mpi.c:439
    30ce:	4b17      	ldr	r3, [pc, #92]	; (312c <TEE_BigIntMul+0x9c>)
/home/aom1/Work/Linux/target/STM32MP1-DK2/bootloader/optee-os-custom/lib/libutee/tee_api_arith_mpi.c:435
    30d0:	3404      	adds	r4, #4
/home/aom1/Work/Linux/target/STM32MP1-DK2/bootloader/optee-os-custom/lib/libutee/tee_api_arith_mpi.c:439
    30d2:	f858 a003 	ldr.w	sl, [r8, r3]
    30d6:	00a1      	lsls	r1, r4, #2
    30d8:	f8da 0000 	ldr.w	r0, [sl]
    30dc:	f003 fedc 	bl	6e98 <mempool_alloc>
/home/aom1/Work/Linux/target/STM32MP1-DK2/bootloader/optee-os-custom/lib/libutee/tee_api_arith_mpi.c:440
    30e0:	4681      	mov	r9, r0
    30e2:	b910      	cbnz	r0, 30ea <TEE_BigIntMul+0x5a>
/home/aom1/Work/Linux/target/STM32MP1-DK2/bootloader/optee-os-custom/lib/libutee/tee_api_arith_mpi.c:441
    30e4:	480f      	ldr	r0, [pc, #60]	; (3124 <TEE_BigIntMul+0x94>)
    30e6:	f7fe fc87 	bl	19f8 <TEE_Panic>
/home/aom1/Work/Linux/target/STM32MP1-DK2/bootloader/optee-os-custom/lib/libutee/tee_api_arith_mpi.c:443
    30ea:	4621      	mov	r1, r4
    30ec:	4648      	mov	r0, r9
    30ee:	f7ff fd4d 	bl	2b8c <TEE_BigIntInit>
/home/aom1/Work/Linux/target/STM32MP1-DK2/bootloader/optee-os-custom/lib/libutee/tee_api_arith_mpi.c:444
    30f2:	4658      	mov	r0, fp
    30f4:	2103      	movs	r1, #3
    30f6:	f7ff fd49 	bl	2b8c <TEE_BigIntInit>
/home/aom1/Work/Linux/target/STM32MP1-DK2/bootloader/optee-os-custom/lib/libutee/tee_api_arith_mpi.c:446
    30fa:	4b0d      	ldr	r3, [pc, #52]	; (3130 <TEE_BigIntMul+0xa0>)
    30fc:	4632      	mov	r2, r6
    30fe:	4629      	mov	r1, r5
    3100:	4648      	mov	r0, r9
    3102:	f858 3003 	ldr.w	r3, [r8, r3]
    3106:	f7ff fa8b 	bl	2620 <bigint_binary>
/home/aom1/Work/Linux/target/STM32MP1-DK2/bootloader/optee-os-custom/lib/libutee/tee_api_arith_mpi.c:448
    310a:	465a      	mov	r2, fp
    310c:	4649      	mov	r1, r9
    310e:	4638      	mov	r0, r7
    3110:	f7ff ff68 	bl	2fe4 <TEE_BigIntAdd>
/home/aom1/Work/Linux/target/STM32MP1-DK2/bootloader/optee-os-custom/lib/libutee/tee_api_arith_mpi.c:450
    3114:	f8da 0000 	ldr.w	r0, [sl]
    3118:	4649      	mov	r1, r9
    311a:	f003 feed 	bl	6ef8 <mempool_free>
/home/aom1/Work/Linux/target/STM32MP1-DK2/bootloader/optee-os-custom/lib/libutee/tee_api_arith_mpi.c:451
    311e:	b005      	add	sp, #20
    3120:	e8bd 8ff0 	ldmia.w	sp!, {r4, r5, r6, r7, r8, r9, sl, fp, pc}
    3124:	ffff000c 	.word	0xffff000c
    3128:	00005fe4 	.word	0x00005fe4
    312c:	0000003c 	.word	0x0000003c
    3130:	00000018 	.word	0x00000018

00003134 <TEE_BigIntSquare>:
TEE_BigIntSquare():
/home/aom1/Work/Linux/target/STM32MP1-DK2/bootloader/optee-os-custom/lib/libutee/tee_api_arith_mpi.c:454
    3134:	460a      	mov	r2, r1
/home/aom1/Work/Linux/target/STM32MP1-DK2/bootloader/optee-os-custom/lib/libutee/tee_api_arith_mpi.c:455
    3136:	f7ff bfab 	b.w	3090 <TEE_BigIntMul>

0000313a <TEE_BigIntDiv>:
TEE_BigIntDiv():
/home/aom1/Work/Linux/target/STM32MP1-DK2/bootloader/optee-os-custom/lib/libutee/tee_api_arith_mpi.c:460
    313a:	e92d 4ff0 	stmdb	sp!, {r4, r5, r6, r7, r8, r9, sl, fp, lr}
    313e:	b08f      	sub	sp, #60	; 0x3c
/home/aom1/Work/Linux/target/STM32MP1-DK2/bootloader/optee-os-custom/lib/libutee/tee_api_arith_mpi.c:468
    3140:	f10d 0908 	add.w	r9, sp, #8
/home/aom1/Work/Linux/target/STM32MP1-DK2/bootloader/optee-os-custom/lib/libutee/tee_api_arith_mpi.c:460
    3144:	4605      	mov	r5, r0
    3146:	9201      	str	r2, [sp, #4]
    3148:	460c      	mov	r4, r1
/home/aom1/Work/Linux/target/STM32MP1-DK2/bootloader/optee-os-custom/lib/libutee/tee_api_arith_mpi.c:469
    314a:	f10d 0814 	add.w	r8, sp, #20
/home/aom1/Work/Linux/target/STM32MP1-DK2/bootloader/optee-os-custom/lib/libutee/tee_api_arith_mpi.c:468
    314e:	4601      	mov	r1, r0
    3150:	4648      	mov	r0, r9
/home/aom1/Work/Linux/target/STM32MP1-DK2/bootloader/optee-os-custom/lib/libutee/tee_api_arith_mpi.c:460
    3152:	461e      	mov	r6, r3
    3154:	f10d 0b20 	add.w	fp, sp, #32
/home/aom1/Work/Linux/target/STM32MP1-DK2/bootloader/optee-os-custom/lib/libutee/tee_api_arith_mpi.c:468
    3158:	f7ff fa1a 	bl	2590 <get_mpi>
/home/aom1/Work/Linux/target/STM32MP1-DK2/bootloader/optee-os-custom/lib/libutee/tee_api_arith_mpi.c:469
    315c:	4621      	mov	r1, r4
    315e:	4640      	mov	r0, r8
    3160:	f7ff fa16 	bl	2590 <get_mpi>
/home/aom1/Work/Linux/target/STM32MP1-DK2/bootloader/optee-os-custom/lib/libutee/tee_api_arith_mpi.c:471
    3164:	9a01      	ldr	r2, [sp, #4]
    3166:	4295      	cmp	r5, r2
    3168:	d023      	beq.n	31b2 <TEE_BigIntDiv+0x78>
/home/aom1/Work/Linux/target/STM32MP1-DK2/bootloader/optee-os-custom/lib/libutee/tee_api_arith_mpi.c:473
    316a:	4294      	cmp	r4, r2
    316c:	d023      	beq.n	31b6 <TEE_BigIntDiv+0x7c>
/home/aom1/Work/Linux/target/STM32MP1-DK2/bootloader/optee-os-custom/lib/libutee/tee_api_arith_mpi.c:476
    316e:	4611      	mov	r1, r2
    3170:	4658      	mov	r0, fp
/home/aom1/Work/Linux/target/STM32MP1-DK2/bootloader/optee-os-custom/lib/libutee/tee_api_arith_mpi.c:465
    3172:	465f      	mov	r7, fp
/home/aom1/Work/Linux/target/STM32MP1-DK2/bootloader/optee-os-custom/lib/libutee/tee_api_arith_mpi.c:476
    3174:	f7ff fa0c 	bl	2590 <get_mpi>
    3178:	9a01      	ldr	r2, [sp, #4]
/home/aom1/Work/Linux/target/STM32MP1-DK2/bootloader/optee-os-custom/lib/libutee/tee_api_arith_mpi.c:478
    317a:	42b5      	cmp	r5, r6
    317c:	f10d 0a2c 	add.w	sl, sp, #44	; 0x2c
    3180:	d01b      	beq.n	31ba <TEE_BigIntDiv+0x80>
/home/aom1/Work/Linux/target/STM32MP1-DK2/bootloader/optee-os-custom/lib/libutee/tee_api_arith_mpi.c:480
    3182:	42b4      	cmp	r4, r6
    3184:	d01b      	beq.n	31be <TEE_BigIntDiv+0x84>
/home/aom1/Work/Linux/target/STM32MP1-DK2/bootloader/optee-os-custom/lib/libutee/tee_api_arith_mpi.c:482
    3186:	42b2      	cmp	r2, r6
    3188:	d01b      	beq.n	31c2 <TEE_BigIntDiv+0x88>
/home/aom1/Work/Linux/target/STM32MP1-DK2/bootloader/optee-os-custom/lib/libutee/tee_api_arith_mpi.c:485
    318a:	4631      	mov	r1, r6
    318c:	4650      	mov	r0, sl
/home/aom1/Work/Linux/target/STM32MP1-DK2/bootloader/optee-os-custom/lib/libutee/tee_api_arith_mpi.c:466
    318e:	4656      	mov	r6, sl
/home/aom1/Work/Linux/target/STM32MP1-DK2/bootloader/optee-os-custom/lib/libutee/tee_api_arith_mpi.c:485
    3190:	f7ff f9fe 	bl	2590 <get_mpi>
/home/aom1/Work/Linux/target/STM32MP1-DK2/bootloader/optee-os-custom/lib/libutee/tee_api_arith_mpi.c:487
    3194:	463a      	mov	r2, r7
    3196:	4633      	mov	r3, r6
    3198:	4641      	mov	r1, r8
    319a:	4648      	mov	r0, r9
    319c:	f001 fda0 	bl	4ce0 <mbedtls_mpi_div_mpi>
    31a0:	4602      	mov	r2, r0
    31a2:	b180      	cbz	r0, 31c6 <TEE_BigIntDiv+0x8c>
/home/aom1/Work/Linux/target/STM32MP1-DK2/bootloader/optee-os-custom/lib/libutee/tee_api_arith_mpi.c:487 (discriminator 1)
    31a4:	481d      	ldr	r0, [pc, #116]	; (321c <TEE_BigIntDiv+0xe2>)
    31a6:	f240 11e7 	movw	r1, #487	; 0x1e7
    31aa:	4478      	add	r0, pc
/home/aom1/Work/Linux/target/STM32MP1-DK2/bootloader/optee-os-custom/lib/libutee/tee_api_arith_mpi.c:490 (discriminator 1)
    31ac:	30ad      	adds	r0, #173	; 0xad
    31ae:	f7ff f9df 	bl	2570 <mpi_panic>
/home/aom1/Work/Linux/target/STM32MP1-DK2/bootloader/optee-os-custom/lib/libutee/tee_api_arith_mpi.c:472
    31b2:	464f      	mov	r7, r9
    31b4:	e7e1      	b.n	317a <TEE_BigIntDiv+0x40>
/home/aom1/Work/Linux/target/STM32MP1-DK2/bootloader/optee-os-custom/lib/libutee/tee_api_arith_mpi.c:474
    31b6:	4647      	mov	r7, r8
    31b8:	e7df      	b.n	317a <TEE_BigIntDiv+0x40>
/home/aom1/Work/Linux/target/STM32MP1-DK2/bootloader/optee-os-custom/lib/libutee/tee_api_arith_mpi.c:479
    31ba:	464e      	mov	r6, r9
    31bc:	e7ea      	b.n	3194 <TEE_BigIntDiv+0x5a>
/home/aom1/Work/Linux/target/STM32MP1-DK2/bootloader/optee-os-custom/lib/libutee/tee_api_arith_mpi.c:481
    31be:	4646      	mov	r6, r8
    31c0:	e7e8      	b.n	3194 <TEE_BigIntDiv+0x5a>
/home/aom1/Work/Linux/target/STM32MP1-DK2/bootloader/optee-os-custom/lib/libutee/tee_api_arith_mpi.c:483
    31c2:	463e      	mov	r6, r7
    31c4:	e7e6      	b.n	3194 <TEE_BigIntDiv+0x5a>
/home/aom1/Work/Linux/target/STM32MP1-DK2/bootloader/optee-os-custom/lib/libutee/tee_api_arith_mpi.c:489 (discriminator 2)
    31c6:	b155      	cbz	r5, 31de <TEE_BigIntDiv+0xa4>
/home/aom1/Work/Linux/target/STM32MP1-DK2/bootloader/optee-os-custom/lib/libutee/tee_api_arith_mpi.c:490
    31c8:	4629      	mov	r1, r5
    31ca:	4648      	mov	r0, r9
    31cc:	f7ff fa08 	bl	25e0 <copy_mpi_to_bigint>
    31d0:	4602      	mov	r2, r0
    31d2:	b120      	cbz	r0, 31de <TEE_BigIntDiv+0xa4>
/home/aom1/Work/Linux/target/STM32MP1-DK2/bootloader/optee-os-custom/lib/libutee/tee_api_arith_mpi.c:490 (discriminator 1)
    31d4:	4812      	ldr	r0, [pc, #72]	; (3220 <TEE_BigIntDiv+0xe6>)
    31d6:	f44f 71f5 	mov.w	r1, #490	; 0x1ea
    31da:	4478      	add	r0, pc
    31dc:	e7e6      	b.n	31ac <TEE_BigIntDiv+0x72>
/home/aom1/Work/Linux/target/STM32MP1-DK2/bootloader/optee-os-custom/lib/libutee/tee_api_arith_mpi.c:491
    31de:	b154      	cbz	r4, 31f6 <TEE_BigIntDiv+0xbc>
/home/aom1/Work/Linux/target/STM32MP1-DK2/bootloader/optee-os-custom/lib/libutee/tee_api_arith_mpi.c:492
    31e0:	4621      	mov	r1, r4
    31e2:	4640      	mov	r0, r8
    31e4:	f7ff f9fc 	bl	25e0 <copy_mpi_to_bigint>
    31e8:	4602      	mov	r2, r0
    31ea:	b120      	cbz	r0, 31f6 <TEE_BigIntDiv+0xbc>
/home/aom1/Work/Linux/target/STM32MP1-DK2/bootloader/optee-os-custom/lib/libutee/tee_api_arith_mpi.c:492 (discriminator 1)
    31ec:	480d      	ldr	r0, [pc, #52]	; (3224 <TEE_BigIntDiv+0xea>)
    31ee:	f44f 71f6 	mov.w	r1, #492	; 0x1ec
    31f2:	4478      	add	r0, pc
    31f4:	e7da      	b.n	31ac <TEE_BigIntDiv+0x72>
/home/aom1/Work/Linux/target/STM32MP1-DK2/bootloader/optee-os-custom/lib/libutee/tee_api_arith_mpi.c:493
    31f6:	4648      	mov	r0, r9
    31f8:	f000 feb4 	bl	3f64 <mbedtls_mpi_free>
/home/aom1/Work/Linux/target/STM32MP1-DK2/bootloader/optee-os-custom/lib/libutee/tee_api_arith_mpi.c:494
    31fc:	4640      	mov	r0, r8
    31fe:	f000 feb1 	bl	3f64 <mbedtls_mpi_free>
/home/aom1/Work/Linux/target/STM32MP1-DK2/bootloader/optee-os-custom/lib/libutee/tee_api_arith_mpi.c:495
    3202:	455f      	cmp	r7, fp
    3204:	d102      	bne.n	320c <TEE_BigIntDiv+0xd2>
/home/aom1/Work/Linux/target/STM32MP1-DK2/bootloader/optee-os-custom/lib/libutee/tee_api_arith_mpi.c:496
    3206:	4638      	mov	r0, r7
    3208:	f000 feac 	bl	3f64 <mbedtls_mpi_free>
/home/aom1/Work/Linux/target/STM32MP1-DK2/bootloader/optee-os-custom/lib/libutee/tee_api_arith_mpi.c:497
    320c:	4556      	cmp	r6, sl
    320e:	d102      	bne.n	3216 <TEE_BigIntDiv+0xdc>
/home/aom1/Work/Linux/target/STM32MP1-DK2/bootloader/optee-os-custom/lib/libutee/tee_api_arith_mpi.c:498
    3210:	4630      	mov	r0, r6
    3212:	f000 fea7 	bl	3f64 <mbedtls_mpi_free>
/home/aom1/Work/Linux/target/STM32MP1-DK2/bootloader/optee-os-custom/lib/libutee/tee_api_arith_mpi.c:499
    3216:	b00f      	add	sp, #60	; 0x3c
    3218:	e8bd 8ff0 	ldmia.w	sp!, {r4, r5, r6, r7, r8, r9, sl, fp, pc}
    321c:	00004650 	.word	0x00004650
    3220:	00004620 	.word	0x00004620
    3224:	00004608 	.word	0x00004608

00003228 <TEE_BigIntMod>:
TEE_BigIntMod():
/home/aom1/Work/Linux/target/STM32MP1-DK2/bootloader/optee-os-custom/lib/libutee/tee_api_arith_mpi.c:502
    3228:	e92d 41f0 	stmdb	sp!, {r4, r5, r6, r7, r8, lr}
    322c:	4605      	mov	r5, r0
    322e:	4f0e      	ldr	r7, [pc, #56]	; (3268 <TEE_BigIntMod+0x40>)
    3230:	460e      	mov	r6, r1
/home/aom1/Work/Linux/target/STM32MP1-DK2/bootloader/optee-os-custom/lib/libutee/tee_api_arith_mpi.c:503
    3232:	4610      	mov	r0, r2
    3234:	2102      	movs	r1, #2
/home/aom1/Work/Linux/target/STM32MP1-DK2/bootloader/optee-os-custom/lib/libutee/tee_api_arith_mpi.c:502
    3236:	447f      	add	r7, pc
    3238:	4614      	mov	r4, r2
/home/aom1/Work/Linux/target/STM32MP1-DK2/bootloader/optee-os-custom/lib/libutee/tee_api_arith_mpi.c:503
    323a:	f7ff fd8c 	bl	2d56 <TEE_BigIntCmpS32>
    323e:	2800      	cmp	r0, #0
    3240:	da08      	bge.n	3254 <TEE_BigIntMod+0x2c>
/home/aom1/Work/Linux/target/STM32MP1-DK2/bootloader/optee-os-custom/lib/libutee/tee_api_arith_mpi.c:504
    3242:	480a      	ldr	r0, [pc, #40]	; (326c <TEE_BigIntMod+0x44>)
    3244:	f44f 71fc 	mov.w	r1, #504	; 0x1f8
    3248:	4a09      	ldr	r2, [pc, #36]	; (3270 <TEE_BigIntMod+0x48>)
    324a:	4478      	add	r0, pc
    324c:	447a      	add	r2, pc
    324e:	30bb      	adds	r0, #187	; 0xbb
    3250:	f7ff f97e 	bl	2550 <api_panic>
/home/aom1/Work/Linux/target/STM32MP1-DK2/bootloader/optee-os-custom/lib/libutee/tee_api_arith_mpi.c:506
    3254:	4b07      	ldr	r3, [pc, #28]	; (3274 <TEE_BigIntMod+0x4c>)
    3256:	4622      	mov	r2, r4
    3258:	4631      	mov	r1, r6
    325a:	4628      	mov	r0, r5
    325c:	58fb      	ldr	r3, [r7, r3]
/home/aom1/Work/Linux/target/STM32MP1-DK2/bootloader/optee-os-custom/lib/libutee/tee_api_arith_mpi.c:507
    325e:	e8bd 41f0 	ldmia.w	sp!, {r4, r5, r6, r7, r8, lr}
/home/aom1/Work/Linux/target/STM32MP1-DK2/bootloader/optee-os-custom/lib/libutee/tee_api_arith_mpi.c:506
    3262:	f7ff b9dd 	b.w	2620 <bigint_binary>
    3266:	bf00      	nop
    3268:	00005e4e 	.word	0x00005e4e
    326c:	000045b0 	.word	0x000045b0
    3270:	0000456e 	.word	0x0000456e
    3274:	0000002c 	.word	0x0000002c

00003278 <TEE_BigIntAddMod>:
TEE_BigIntAddMod():
/home/aom1/Work/Linux/target/STM32MP1-DK2/bootloader/optee-os-custom/lib/libutee/tee_api_arith_mpi.c:511
    3278:	b537      	push	{r0, r1, r2, r4, r5, lr}
    327a:	4c04      	ldr	r4, [pc, #16]	; (328c <TEE_BigIntAddMod+0x14>)
/home/aom1/Work/Linux/target/STM32MP1-DK2/bootloader/optee-os-custom/lib/libutee/tee_api_arith_mpi.c:512
    327c:	4d04      	ldr	r5, [pc, #16]	; (3290 <TEE_BigIntAddMod+0x18>)
/home/aom1/Work/Linux/target/STM32MP1-DK2/bootloader/optee-os-custom/lib/libutee/tee_api_arith_mpi.c:511
    327e:	447c      	add	r4, pc
/home/aom1/Work/Linux/target/STM32MP1-DK2/bootloader/optee-os-custom/lib/libutee/tee_api_arith_mpi.c:512
    3280:	5964      	ldr	r4, [r4, r5]
    3282:	9400      	str	r4, [sp, #0]
    3284:	f7ff fd7a 	bl	2d7c <bigint_binary_mod>
/home/aom1/Work/Linux/target/STM32MP1-DK2/bootloader/optee-os-custom/lib/libutee/tee_api_arith_mpi.c:513
    3288:	b003      	add	sp, #12
    328a:	bd30      	pop	{r4, r5, pc}
    328c:	00005e06 	.word	0x00005e06
    3290:	0000001c 	.word	0x0000001c

00003294 <TEE_BigIntSubMod>:
TEE_BigIntSubMod():
/home/aom1/Work/Linux/target/STM32MP1-DK2/bootloader/optee-os-custom/lib/libutee/tee_api_arith_mpi.c:517
    3294:	b537      	push	{r0, r1, r2, r4, r5, lr}
    3296:	4c04      	ldr	r4, [pc, #16]	; (32a8 <TEE_BigIntSubMod+0x14>)
/home/aom1/Work/Linux/target/STM32MP1-DK2/bootloader/optee-os-custom/lib/libutee/tee_api_arith_mpi.c:518
    3298:	4d04      	ldr	r5, [pc, #16]	; (32ac <TEE_BigIntSubMod+0x18>)
/home/aom1/Work/Linux/target/STM32MP1-DK2/bootloader/optee-os-custom/lib/libutee/tee_api_arith_mpi.c:517
    329a:	447c      	add	r4, pc
/home/aom1/Work/Linux/target/STM32MP1-DK2/bootloader/optee-os-custom/lib/libutee/tee_api_arith_mpi.c:518
    329c:	5964      	ldr	r4, [r4, r5]
    329e:	9400      	str	r4, [sp, #0]
    32a0:	f7ff fd6c 	bl	2d7c <bigint_binary_mod>
/home/aom1/Work/Linux/target/STM32MP1-DK2/bootloader/optee-os-custom/lib/libutee/tee_api_arith_mpi.c:519
    32a4:	b003      	add	sp, #12
    32a6:	bd30      	pop	{r4, r5, pc}
    32a8:	00005dea 	.word	0x00005dea
    32ac:	00000024 	.word	0x00000024

000032b0 <TEE_BigIntMulMod>:
TEE_BigIntMulMod():
/home/aom1/Work/Linux/target/STM32MP1-DK2/bootloader/optee-os-custom/lib/libutee/tee_api_arith_mpi.c:523
    32b0:	b537      	push	{r0, r1, r2, r4, r5, lr}
    32b2:	4c04      	ldr	r4, [pc, #16]	; (32c4 <TEE_BigIntMulMod+0x14>)
/home/aom1/Work/Linux/target/STM32MP1-DK2/bootloader/optee-os-custom/lib/libutee/tee_api_arith_mpi.c:524
    32b4:	4d04      	ldr	r5, [pc, #16]	; (32c8 <TEE_BigIntMulMod+0x18>)
/home/aom1/Work/Linux/target/STM32MP1-DK2/bootloader/optee-os-custom/lib/libutee/tee_api_arith_mpi.c:523
    32b6:	447c      	add	r4, pc
/home/aom1/Work/Linux/target/STM32MP1-DK2/bootloader/optee-os-custom/lib/libutee/tee_api_arith_mpi.c:524
    32b8:	5964      	ldr	r4, [r4, r5]
    32ba:	9400      	str	r4, [sp, #0]
    32bc:	f7ff fd5e 	bl	2d7c <bigint_binary_mod>
/home/aom1/Work/Linux/target/STM32MP1-DK2/bootloader/optee-os-custom/lib/libutee/tee_api_arith_mpi.c:525
    32c0:	b003      	add	sp, #12
    32c2:	bd30      	pop	{r4, r5, pc}
    32c4:	00005dce 	.word	0x00005dce
    32c8:	00000018 	.word	0x00000018

000032cc <TEE_BigIntSquareMod>:
TEE_BigIntSquareMod():
/home/aom1/Work/Linux/target/STM32MP1-DK2/bootloader/optee-os-custom/lib/libutee/tee_api_arith_mpi.c:529
    32cc:	4613      	mov	r3, r2
/home/aom1/Work/Linux/target/STM32MP1-DK2/bootloader/optee-os-custom/lib/libutee/tee_api_arith_mpi.c:530
    32ce:	460a      	mov	r2, r1
    32d0:	f7ff bfee 	b.w	32b0 <TEE_BigIntMulMod>

000032d4 <TEE_BigIntInvMod>:
TEE_BigIntInvMod():
/home/aom1/Work/Linux/target/STM32MP1-DK2/bootloader/optee-os-custom/lib/libutee/tee_api_arith_mpi.c:535
    32d4:	e92d 41f0 	stmdb	sp!, {r4, r5, r6, r7, r8, lr}
    32d8:	4605      	mov	r5, r0
    32da:	b08a      	sub	sp, #40	; 0x28
    32dc:	460e      	mov	r6, r1
/home/aom1/Work/Linux/target/STM32MP1-DK2/bootloader/optee-os-custom/lib/libutee/tee_api_arith_mpi.c:541
    32de:	4610      	mov	r0, r2
    32e0:	2102      	movs	r1, #2
/home/aom1/Work/Linux/target/STM32MP1-DK2/bootloader/optee-os-custom/lib/libutee/tee_api_arith_mpi.c:535
    32e2:	4617      	mov	r7, r2
/home/aom1/Work/Linux/target/STM32MP1-DK2/bootloader/optee-os-custom/lib/libutee/tee_api_arith_mpi.c:541
    32e4:	f7ff fd37 	bl	2d56 <TEE_BigIntCmpS32>
    32e8:	2800      	cmp	r0, #0
    32ea:	da08      	bge.n	32fe <TEE_BigIntInvMod+0x2a>
/home/aom1/Work/Linux/target/STM32MP1-DK2/bootloader/optee-os-custom/lib/libutee/tee_api_arith_mpi.c:542
    32ec:	4825      	ldr	r0, [pc, #148]	; (3384 <TEE_BigIntInvMod+0xb0>)
    32ee:	f240 211e 	movw	r1, #542	; 0x21e
    32f2:	4a25      	ldr	r2, [pc, #148]	; (3388 <TEE_BigIntInvMod+0xb4>)
    32f4:	4478      	add	r0, pc
    32f6:	447a      	add	r2, pc
    32f8:	30c9      	adds	r0, #201	; 0xc9
    32fa:	f7ff f929 	bl	2550 <api_panic>
/home/aom1/Work/Linux/target/STM32MP1-DK2/bootloader/optee-os-custom/lib/libutee/tee_api_arith_mpi.c:541 (discriminator 1)
    32fe:	2100      	movs	r1, #0
    3300:	4630      	mov	r0, r6
    3302:	f7ff fd28 	bl	2d56 <TEE_BigIntCmpS32>
    3306:	2800      	cmp	r0, #0
    3308:	d0f0      	beq.n	32ec <TEE_BigIntInvMod+0x18>
/home/aom1/Work/Linux/target/STM32MP1-DK2/bootloader/optee-os-custom/lib/libutee/tee_api_arith_mpi.c:544
    330a:	ac01      	add	r4, sp, #4
    330c:	4629      	mov	r1, r5
    330e:	4620      	mov	r0, r4
/home/aom1/Work/Linux/target/STM32MP1-DK2/bootloader/optee-os-custom/lib/libutee/tee_api_arith_mpi.c:545
    3310:	f10d 081c 	add.w	r8, sp, #28
/home/aom1/Work/Linux/target/STM32MP1-DK2/bootloader/optee-os-custom/lib/libutee/tee_api_arith_mpi.c:544
    3314:	f7ff f93c 	bl	2590 <get_mpi>
/home/aom1/Work/Linux/target/STM32MP1-DK2/bootloader/optee-os-custom/lib/libutee/tee_api_arith_mpi.c:545
    3318:	4639      	mov	r1, r7
    331a:	4640      	mov	r0, r8
    331c:	af04      	add	r7, sp, #16
    331e:	f7ff f937 	bl	2590 <get_mpi>
/home/aom1/Work/Linux/target/STM32MP1-DK2/bootloader/optee-os-custom/lib/libutee/tee_api_arith_mpi.c:547
    3322:	42ae      	cmp	r6, r5
    3324:	d012      	beq.n	334c <TEE_BigIntInvMod+0x78>
/home/aom1/Work/Linux/target/STM32MP1-DK2/bootloader/optee-os-custom/lib/libutee/tee_api_arith_mpi.c:550
    3326:	4631      	mov	r1, r6
    3328:	4638      	mov	r0, r7
/home/aom1/Work/Linux/target/STM32MP1-DK2/bootloader/optee-os-custom/lib/libutee/tee_api_arith_mpi.c:539
    332a:	463e      	mov	r6, r7
/home/aom1/Work/Linux/target/STM32MP1-DK2/bootloader/optee-os-custom/lib/libutee/tee_api_arith_mpi.c:550
    332c:	f7ff f930 	bl	2590 <get_mpi>
/home/aom1/Work/Linux/target/STM32MP1-DK2/bootloader/optee-os-custom/lib/libutee/tee_api_arith_mpi.c:552
    3330:	4642      	mov	r2, r8
    3332:	4631      	mov	r1, r6
    3334:	4620      	mov	r0, r4
    3336:	f002 fbef 	bl	5b18 <mbedtls_mpi_inv_mod>
    333a:	4602      	mov	r2, r0
    333c:	b140      	cbz	r0, 3350 <TEE_BigIntInvMod+0x7c>
/home/aom1/Work/Linux/target/STM32MP1-DK2/bootloader/optee-os-custom/lib/libutee/tee_api_arith_mpi.c:552 (discriminator 1)
    333e:	4813      	ldr	r0, [pc, #76]	; (338c <TEE_BigIntInvMod+0xb8>)
    3340:	f44f 710a 	mov.w	r1, #552	; 0x228
    3344:	4478      	add	r0, pc
/home/aom1/Work/Linux/target/STM32MP1-DK2/bootloader/optee-os-custom/lib/libutee/tee_api_arith_mpi.c:554 (discriminator 1)
    3346:	30c9      	adds	r0, #201	; 0xc9
    3348:	f7ff f912 	bl	2570 <mpi_panic>
/home/aom1/Work/Linux/target/STM32MP1-DK2/bootloader/optee-os-custom/lib/libutee/tee_api_arith_mpi.c:548
    334c:	4626      	mov	r6, r4
    334e:	e7ef      	b.n	3330 <TEE_BigIntInvMod+0x5c>
/home/aom1/Work/Linux/target/STM32MP1-DK2/bootloader/optee-os-custom/lib/libutee/tee_api_arith_mpi.c:554 (discriminator 2)
    3350:	4629      	mov	r1, r5
    3352:	4620      	mov	r0, r4
    3354:	f7ff f944 	bl	25e0 <copy_mpi_to_bigint>
    3358:	4602      	mov	r2, r0
    335a:	b120      	cbz	r0, 3366 <TEE_BigIntInvMod+0x92>
/home/aom1/Work/Linux/target/STM32MP1-DK2/bootloader/optee-os-custom/lib/libutee/tee_api_arith_mpi.c:554 (discriminator 1)
    335c:	480c      	ldr	r0, [pc, #48]	; (3390 <TEE_BigIntInvMod+0xbc>)
    335e:	f240 212a 	movw	r1, #554	; 0x22a
    3362:	4478      	add	r0, pc
    3364:	e7ef      	b.n	3346 <TEE_BigIntInvMod+0x72>
/home/aom1/Work/Linux/target/STM32MP1-DK2/bootloader/optee-os-custom/lib/libutee/tee_api_arith_mpi.c:555 (discriminator 2)
    3366:	4620      	mov	r0, r4
    3368:	f000 fdfc 	bl	3f64 <mbedtls_mpi_free>
/home/aom1/Work/Linux/target/STM32MP1-DK2/bootloader/optee-os-custom/lib/libutee/tee_api_arith_mpi.c:556 (discriminator 2)
    336c:	4640      	mov	r0, r8
    336e:	f000 fdf9 	bl	3f64 <mbedtls_mpi_free>
/home/aom1/Work/Linux/target/STM32MP1-DK2/bootloader/optee-os-custom/lib/libutee/tee_api_arith_mpi.c:557 (discriminator 2)
    3372:	42be      	cmp	r6, r7
    3374:	d102      	bne.n	337c <TEE_BigIntInvMod+0xa8>
/home/aom1/Work/Linux/target/STM32MP1-DK2/bootloader/optee-os-custom/lib/libutee/tee_api_arith_mpi.c:558
    3376:	4630      	mov	r0, r6
    3378:	f000 fdf4 	bl	3f64 <mbedtls_mpi_free>
/home/aom1/Work/Linux/target/STM32MP1-DK2/bootloader/optee-os-custom/lib/libutee/tee_api_arith_mpi.c:559
    337c:	b00a      	add	sp, #40	; 0x28
    337e:	e8bd 81f0 	ldmia.w	sp!, {r4, r5, r6, r7, r8, pc}
    3382:	bf00      	nop
    3384:	00004506 	.word	0x00004506
    3388:	000044d9 	.word	0x000044d9
    338c:	000044b6 	.word	0x000044b6
    3390:	00004498 	.word	0x00004498

00003394 <TEE_BigIntRelativePrime>:
TEE_BigIntRelativePrime():
/home/aom1/Work/Linux/target/STM32MP1-DK2/bootloader/optee-os-custom/lib/libutee/tee_api_arith_mpi.c:562
    3394:	e92d 41f0 	stmdb	sp!, {r4, r5, r6, r7, r8, lr}
    3398:	b08a      	sub	sp, #40	; 0x28
/home/aom1/Work/Linux/target/STM32MP1-DK2/bootloader/optee-os-custom/lib/libutee/tee_api_arith_mpi.c:569
    339a:	ae01      	add	r6, sp, #4
/home/aom1/Work/Linux/target/STM32MP1-DK2/bootloader/optee-os-custom/lib/libutee/tee_api_arith_mpi.c:562
    339c:	4605      	mov	r5, r0
    339e:	460c      	mov	r4, r1
/home/aom1/Work/Linux/target/STM32MP1-DK2/bootloader/optee-os-custom/lib/libutee/tee_api_arith_mpi.c:569
    33a0:	4601      	mov	r1, r0
    33a2:	4630      	mov	r0, r6
    33a4:	f7ff f8f4 	bl	2590 <get_mpi>
/home/aom1/Work/Linux/target/STM32MP1-DK2/bootloader/optee-os-custom/lib/libutee/tee_api_arith_mpi.c:571
    33a8:	42a5      	cmp	r5, r4
    33aa:	ad04      	add	r5, sp, #16
    33ac:	d016      	beq.n	33dc <TEE_BigIntRelativePrime+0x48>
/home/aom1/Work/Linux/target/STM32MP1-DK2/bootloader/optee-os-custom/lib/libutee/tee_api_arith_mpi.c:574
    33ae:	4621      	mov	r1, r4
    33b0:	4628      	mov	r0, r5
/home/aom1/Work/Linux/target/STM32MP1-DK2/bootloader/optee-os-custom/lib/libutee/tee_api_arith_mpi.c:566
    33b2:	46a8      	mov	r8, r5
/home/aom1/Work/Linux/target/STM32MP1-DK2/bootloader/optee-os-custom/lib/libutee/tee_api_arith_mpi.c:574
    33b4:	f7ff f8ec 	bl	2590 <get_mpi>
get_mpi():
/home/aom1/Work/Linux/target/STM32MP1-DK2/bootloader/optee-os-custom/lib/libutee/tee_api_arith_mpi.c:101
    33b8:	af07      	add	r7, sp, #28
    33ba:	4638      	mov	r0, r7
    33bc:	f000 fdbe 	bl	3f3c <mbedtls_mpi_init_mempool>
TEE_BigIntRelativePrime():
/home/aom1/Work/Linux/target/STM32MP1-DK2/bootloader/optee-os-custom/lib/libutee/tee_api_arith_mpi.c:578
    33c0:	462a      	mov	r2, r5
    33c2:	4631      	mov	r1, r6
    33c4:	4638      	mov	r0, r7
    33c6:	f002 f9d1 	bl	576c <mbedtls_mpi_gcd>
    33ca:	4602      	mov	r2, r0
    33cc:	b140      	cbz	r0, 33e0 <TEE_BigIntRelativePrime+0x4c>
/home/aom1/Work/Linux/target/STM32MP1-DK2/bootloader/optee-os-custom/lib/libutee/tee_api_arith_mpi.c:578 (discriminator 1)
    33ce:	480f      	ldr	r0, [pc, #60]	; (340c <TEE_BigIntRelativePrime+0x78>)
    33d0:	f240 2142 	movw	r1, #578	; 0x242
    33d4:	4478      	add	r0, pc
    33d6:	30da      	adds	r0, #218	; 0xda
    33d8:	f7ff f8ca 	bl	2570 <mpi_panic>
/home/aom1/Work/Linux/target/STM32MP1-DK2/bootloader/optee-os-custom/lib/libutee/tee_api_arith_mpi.c:572
    33dc:	46b0      	mov	r8, r6
    33de:	e7eb      	b.n	33b8 <TEE_BigIntRelativePrime+0x24>
/home/aom1/Work/Linux/target/STM32MP1-DK2/bootloader/optee-os-custom/lib/libutee/tee_api_arith_mpi.c:580 (discriminator 2)
    33e0:	2101      	movs	r1, #1
    33e2:	4638      	mov	r0, r7
    33e4:	f001 f9f7 	bl	47d6 <mbedtls_mpi_cmp_int>
    33e8:	fab0 f480 	clz	r4, r0
/home/aom1/Work/Linux/target/STM32MP1-DK2/bootloader/optee-os-custom/lib/libutee/tee_api_arith_mpi.c:582 (discriminator 2)
    33ec:	4638      	mov	r0, r7
    33ee:	f000 fdb9 	bl	3f64 <mbedtls_mpi_free>
/home/aom1/Work/Linux/target/STM32MP1-DK2/bootloader/optee-os-custom/lib/libutee/tee_api_arith_mpi.c:580 (discriminator 2)
    33f2:	0964      	lsrs	r4, r4, #5
/home/aom1/Work/Linux/target/STM32MP1-DK2/bootloader/optee-os-custom/lib/libutee/tee_api_arith_mpi.c:583 (discriminator 2)
    33f4:	4630      	mov	r0, r6
    33f6:	f000 fdb5 	bl	3f64 <mbedtls_mpi_free>
/home/aom1/Work/Linux/target/STM32MP1-DK2/bootloader/optee-os-custom/lib/libutee/tee_api_arith_mpi.c:584 (discriminator 2)
    33fa:	45a8      	cmp	r8, r5
    33fc:	d102      	bne.n	3404 <TEE_BigIntRelativePrime+0x70>
/home/aom1/Work/Linux/target/STM32MP1-DK2/bootloader/optee-os-custom/lib/libutee/tee_api_arith_mpi.c:585
    33fe:	4640      	mov	r0, r8
    3400:	f000 fdb0 	bl	3f64 <mbedtls_mpi_free>
/home/aom1/Work/Linux/target/STM32MP1-DK2/bootloader/optee-os-custom/lib/libutee/tee_api_arith_mpi.c:588
    3404:	4620      	mov	r0, r4
    3406:	b00a      	add	sp, #40	; 0x28
    3408:	e8bd 81f0 	ldmia.w	sp!, {r4, r5, r6, r7, r8, pc}
    340c:	00004426 	.word	0x00004426

00003410 <TEE_BigIntComputeExtendedGcd>:
TEE_BigIntComputeExtendedGcd():
/home/aom1/Work/Linux/target/STM32MP1-DK2/bootloader/optee-os-custom/lib/libutee/tee_api_arith_mpi.c:699
    3410:	e92d 4ff0 	stmdb	sp!, {r4, r5, r6, r7, r8, r9, sl, fp, lr}
    3414:	b097      	sub	sp, #92	; 0x5c
/home/aom1/Work/Linux/target/STM32MP1-DK2/bootloader/optee-os-custom/lib/libutee/tee_api_arith_mpi.c:705
    3416:	ae07      	add	r6, sp, #28
/home/aom1/Work/Linux/target/STM32MP1-DK2/bootloader/optee-os-custom/lib/libutee/tee_api_arith_mpi.c:699
    3418:	461c      	mov	r4, r3
    341a:	9f20      	ldr	r7, [sp, #128]	; 0x80
    341c:	468a      	mov	sl, r1
    341e:	9003      	str	r0, [sp, #12]
/home/aom1/Work/Linux/target/STM32MP1-DK2/bootloader/optee-os-custom/lib/libutee/tee_api_arith_mpi.c:705
    3420:	4601      	mov	r1, r0
/home/aom1/Work/Linux/target/STM32MP1-DK2/bootloader/optee-os-custom/lib/libutee/tee_api_arith_mpi.c:706
    3422:	ad0a      	add	r5, sp, #40	; 0x28
/home/aom1/Work/Linux/target/STM32MP1-DK2/bootloader/optee-os-custom/lib/libutee/tee_api_arith_mpi.c:705
    3424:	4630      	mov	r0, r6
/home/aom1/Work/Linux/target/STM32MP1-DK2/bootloader/optee-os-custom/lib/libutee/tee_api_arith_mpi.c:699
    3426:	4691      	mov	r9, r2
/home/aom1/Work/Linux/target/STM32MP1-DK2/bootloader/optee-os-custom/lib/libutee/tee_api_arith_mpi.c:705
    3428:	f7ff f8b2 	bl	2590 <get_mpi>
/home/aom1/Work/Linux/target/STM32MP1-DK2/bootloader/optee-os-custom/lib/libutee/tee_api_arith_mpi.c:706
    342c:	4621      	mov	r1, r4
    342e:	4628      	mov	r0, r5
    3430:	f10d 0b34 	add.w	fp, sp, #52	; 0x34
    3434:	f7ff f8ac 	bl	2590 <get_mpi>
/home/aom1/Work/Linux/target/STM32MP1-DK2/bootloader/optee-os-custom/lib/libutee/tee_api_arith_mpi.c:708
    3438:	42bc      	cmp	r4, r7
    343a:	d019      	beq.n	3470 <TEE_BigIntComputeExtendedGcd+0x60>
/home/aom1/Work/Linux/target/STM32MP1-DK2/bootloader/optee-os-custom/lib/libutee/tee_api_arith_mpi.c:711
    343c:	4639      	mov	r1, r7
    343e:	4658      	mov	r0, fp
/home/aom1/Work/Linux/target/STM32MP1-DK2/bootloader/optee-os-custom/lib/libutee/tee_api_arith_mpi.c:703
    3440:	465c      	mov	r4, fp
/home/aom1/Work/Linux/target/STM32MP1-DK2/bootloader/optee-os-custom/lib/libutee/tee_api_arith_mpi.c:711
    3442:	f7ff f8a5 	bl	2590 <get_mpi>
/home/aom1/Work/Linux/target/STM32MP1-DK2/bootloader/optee-os-custom/lib/libutee/tee_api_arith_mpi.c:713
    3446:	f1ba 0f00 	cmp.w	sl, #0
    344a:	d113      	bne.n	3474 <TEE_BigIntComputeExtendedGcd+0x64>
/home/aom1/Work/Linux/target/STM32MP1-DK2/bootloader/optee-os-custom/lib/libutee/tee_api_arith_mpi.c:713 (discriminator 1)
    344c:	f1b9 0f00 	cmp.w	r9, #0
    3450:	d110      	bne.n	3474 <TEE_BigIntComputeExtendedGcd+0x64>
/home/aom1/Work/Linux/target/STM32MP1-DK2/bootloader/optee-os-custom/lib/libutee/tee_api_arith_mpi.c:714
    3452:	4622      	mov	r2, r4
    3454:	4629      	mov	r1, r5
    3456:	4630      	mov	r0, r6
    3458:	f002 f988 	bl	576c <mbedtls_mpi_gcd>
    345c:	4602      	mov	r2, r0
    345e:	2800      	cmp	r0, #0
    3460:	d07c      	beq.n	355c <TEE_BigIntComputeExtendedGcd+0x14c>
/home/aom1/Work/Linux/target/STM32MP1-DK2/bootloader/optee-os-custom/lib/libutee/tee_api_arith_mpi.c:714 (discriminator 1)
    3462:	484b      	ldr	r0, [pc, #300]	; (3590 <TEE_BigIntComputeExtendedGcd+0x180>)
    3464:	f240 21ca 	movw	r1, #714	; 0x2ca
    3468:	4478      	add	r0, pc
/home/aom1/Work/Linux/target/STM32MP1-DK2/bootloader/optee-os-custom/lib/libutee/tee_api_arith_mpi.c:730 (discriminator 1)
    346a:	30f2      	adds	r0, #242	; 0xf2
    346c:	f7ff f880 	bl	2570 <mpi_panic>
/home/aom1/Work/Linux/target/STM32MP1-DK2/bootloader/optee-os-custom/lib/libutee/tee_api_arith_mpi.c:709
    3470:	462c      	mov	r4, r5
    3472:	e7e8      	b.n	3446 <TEE_BigIntComputeExtendedGcd+0x36>
/home/aom1/Work/Linux/target/STM32MP1-DK2/bootloader/optee-os-custom/lib/libutee/tee_api_arith_mpi.c:718
    3474:	f99d 3028 	ldrsb.w	r3, [sp, #40]	; 0x28
/home/aom1/Work/Linux/target/STM32MP1-DK2/bootloader/optee-os-custom/lib/libutee/tee_api_arith_mpi.c:725
    3478:	f10d 0840 	add.w	r8, sp, #64	; 0x40
    347c:	4651      	mov	r1, sl
    347e:	4640      	mov	r0, r8
/home/aom1/Work/Linux/target/STM32MP1-DK2/bootloader/optee-os-custom/lib/libutee/tee_api_arith_mpi.c:718
    3480:	9304      	str	r3, [sp, #16]
/home/aom1/Work/Linux/target/STM32MP1-DK2/bootloader/optee-os-custom/lib/libutee/tee_api_arith_mpi.c:726
    3482:	af13      	add	r7, sp, #76	; 0x4c
/home/aom1/Work/Linux/target/STM32MP1-DK2/bootloader/optee-os-custom/lib/libutee/tee_api_arith_mpi.c:719
    3484:	f994 3000 	ldrsb.w	r3, [r4]
    3488:	9305      	str	r3, [sp, #20]
/home/aom1/Work/Linux/target/STM32MP1-DK2/bootloader/optee-os-custom/lib/libutee/tee_api_arith_mpi.c:722
    348a:	2301      	movs	r3, #1
    348c:	f8ad 3028 	strh.w	r3, [sp, #40]	; 0x28
/home/aom1/Work/Linux/target/STM32MP1-DK2/bootloader/optee-os-custom/lib/libutee/tee_api_arith_mpi.c:723
    3490:	8023      	strh	r3, [r4, #0]
/home/aom1/Work/Linux/target/STM32MP1-DK2/bootloader/optee-os-custom/lib/libutee/tee_api_arith_mpi.c:725
    3492:	f7ff f87d 	bl	2590 <get_mpi>
/home/aom1/Work/Linux/target/STM32MP1-DK2/bootloader/optee-os-custom/lib/libutee/tee_api_arith_mpi.c:726
    3496:	4649      	mov	r1, r9
    3498:	4638      	mov	r0, r7
    349a:	f7ff f879 	bl	2590 <get_mpi>
/home/aom1/Work/Linux/target/STM32MP1-DK2/bootloader/optee-os-custom/lib/libutee/tee_api_arith_mpi.c:728
    349e:	4621      	mov	r1, r4
    34a0:	4628      	mov	r0, r5
    34a2:	f001 f8d3 	bl	464c <mbedtls_mpi_cmp_abs>
/home/aom1/Work/Linux/target/STM32MP1-DK2/bootloader/optee-os-custom/lib/libutee/tee_api_arith_mpi.c:729
    34a6:	2800      	cmp	r0, #0
    34a8:	d121      	bne.n	34ee <TEE_BigIntComputeExtendedGcd+0xde>
/home/aom1/Work/Linux/target/STM32MP1-DK2/bootloader/optee-os-custom/lib/libutee/tee_api_arith_mpi.c:730
    34aa:	4629      	mov	r1, r5
    34ac:	4630      	mov	r0, r6
    34ae:	f000 fe3d 	bl	412c <mbedtls_mpi_copy>
    34b2:	4602      	mov	r2, r0
    34b4:	2301      	movs	r3, #1
    34b6:	b120      	cbz	r0, 34c2 <TEE_BigIntComputeExtendedGcd+0xb2>
/home/aom1/Work/Linux/target/STM32MP1-DK2/bootloader/optee-os-custom/lib/libutee/tee_api_arith_mpi.c:730 (discriminator 1)
    34b8:	4836      	ldr	r0, [pc, #216]	; (3594 <TEE_BigIntComputeExtendedGcd+0x184>)
    34ba:	f240 21da 	movw	r1, #730	; 0x2da
    34be:	4478      	add	r0, pc
    34c0:	e7d3      	b.n	346a <TEE_BigIntComputeExtendedGcd+0x5a>
/home/aom1/Work/Linux/target/STM32MP1-DK2/bootloader/optee-os-custom/lib/libutee/tee_api_arith_mpi.c:731 (discriminator 2)
    34c2:	4619      	mov	r1, r3
    34c4:	4640      	mov	r0, r8
    34c6:	f000 fef7 	bl	42b8 <mbedtls_mpi_lset>
    34ca:	4602      	mov	r2, r0
    34cc:	b120      	cbz	r0, 34d8 <TEE_BigIntComputeExtendedGcd+0xc8>
/home/aom1/Work/Linux/target/STM32MP1-DK2/bootloader/optee-os-custom/lib/libutee/tee_api_arith_mpi.c:731 (discriminator 1)
    34ce:	4832      	ldr	r0, [pc, #200]	; (3598 <TEE_BigIntComputeExtendedGcd+0x188>)
    34d0:	f240 21db 	movw	r1, #731	; 0x2db
    34d4:	4478      	add	r0, pc
    34d6:	e7c8      	b.n	346a <TEE_BigIntComputeExtendedGcd+0x5a>
/home/aom1/Work/Linux/target/STM32MP1-DK2/bootloader/optee-os-custom/lib/libutee/tee_api_arith_mpi.c:732 (discriminator 2)
    34d8:	4601      	mov	r1, r0
    34da:	4638      	mov	r0, r7
    34dc:	f000 feec 	bl	42b8 <mbedtls_mpi_lset>
    34e0:	4602      	mov	r2, r0
    34e2:	b188      	cbz	r0, 3508 <TEE_BigIntComputeExtendedGcd+0xf8>
/home/aom1/Work/Linux/target/STM32MP1-DK2/bootloader/optee-os-custom/lib/libutee/tee_api_arith_mpi.c:732 (discriminator 1)
    34e4:	482d      	ldr	r0, [pc, #180]	; (359c <TEE_BigIntComputeExtendedGcd+0x18c>)
    34e6:	f44f 7137 	mov.w	r1, #732	; 0x2dc
    34ea:	4478      	add	r0, pc
    34ec:	e7bd      	b.n	346a <TEE_BigIntComputeExtendedGcd+0x5a>
/home/aom1/Work/Linux/target/STM32MP1-DK2/bootloader/optee-os-custom/lib/libutee/tee_api_arith_mpi.c:734
    34ee:	bfc5      	ittet	gt
    34f0:	9400      	strgt	r4, [sp, #0]
    34f2:	462b      	movgt	r3, r5
/home/aom1/Work/Linux/target/STM32MP1-DK2/bootloader/optee-os-custom/lib/libutee/tee_api_arith_mpi.c:736
    34f4:	9500      	strle	r5, [sp, #0]
/home/aom1/Work/Linux/target/STM32MP1-DK2/bootloader/optee-os-custom/lib/libutee/tee_api_arith_mpi.c:734
    34f6:	463a      	movgt	r2, r7
    34f8:	bfcf      	iteee	gt
    34fa:	4641      	movgt	r1, r8
/home/aom1/Work/Linux/target/STM32MP1-DK2/bootloader/optee-os-custom/lib/libutee/tee_api_arith_mpi.c:736
    34fc:	4623      	movle	r3, r4
    34fe:	4642      	movle	r2, r8
    3500:	4639      	movle	r1, r7
    3502:	4630      	mov	r0, r6
    3504:	f7ff f8f1 	bl	26ea <mpi_egcd>
/home/aom1/Work/Linux/target/STM32MP1-DK2/bootloader/optee-os-custom/lib/libutee/tee_api_arith_mpi.c:739
    3508:	f8bd 3040 	ldrh.w	r3, [sp, #64]	; 0x40
/home/aom1/Work/Linux/target/STM32MP1-DK2/bootloader/optee-os-custom/lib/libutee/tee_api_arith_mpi.c:742
    350c:	4651      	mov	r1, sl
/home/aom1/Work/Linux/target/STM32MP1-DK2/bootloader/optee-os-custom/lib/libutee/tee_api_arith_mpi.c:739
    350e:	9a04      	ldr	r2, [sp, #16]
/home/aom1/Work/Linux/target/STM32MP1-DK2/bootloader/optee-os-custom/lib/libutee/tee_api_arith_mpi.c:742
    3510:	4640      	mov	r0, r8
/home/aom1/Work/Linux/target/STM32MP1-DK2/bootloader/optee-os-custom/lib/libutee/tee_api_arith_mpi.c:739
    3512:	fb13 f302 	smulbb	r3, r3, r2
/home/aom1/Work/Linux/target/STM32MP1-DK2/bootloader/optee-os-custom/lib/libutee/tee_api_arith_mpi.c:740
    3516:	9a05      	ldr	r2, [sp, #20]
/home/aom1/Work/Linux/target/STM32MP1-DK2/bootloader/optee-os-custom/lib/libutee/tee_api_arith_mpi.c:739
    3518:	f8ad 3040 	strh.w	r3, [sp, #64]	; 0x40
/home/aom1/Work/Linux/target/STM32MP1-DK2/bootloader/optee-os-custom/lib/libutee/tee_api_arith_mpi.c:740
    351c:	f8bd 304c 	ldrh.w	r3, [sp, #76]	; 0x4c
    3520:	fb13 f302 	smulbb	r3, r3, r2
    3524:	f8ad 304c 	strh.w	r3, [sp, #76]	; 0x4c
/home/aom1/Work/Linux/target/STM32MP1-DK2/bootloader/optee-os-custom/lib/libutee/tee_api_arith_mpi.c:742
    3528:	f7ff f85a 	bl	25e0 <copy_mpi_to_bigint>
    352c:	4602      	mov	r2, r0
    352e:	b120      	cbz	r0, 353a <TEE_BigIntComputeExtendedGcd+0x12a>
/home/aom1/Work/Linux/target/STM32MP1-DK2/bootloader/optee-os-custom/lib/libutee/tee_api_arith_mpi.c:742 (discriminator 1)
    3530:	481b      	ldr	r0, [pc, #108]	; (35a0 <TEE_BigIntComputeExtendedGcd+0x190>)
    3532:	f240 21e6 	movw	r1, #742	; 0x2e6
    3536:	4478      	add	r0, pc
    3538:	e797      	b.n	346a <TEE_BigIntComputeExtendedGcd+0x5a>
/home/aom1/Work/Linux/target/STM32MP1-DK2/bootloader/optee-os-custom/lib/libutee/tee_api_arith_mpi.c:743 (discriminator 2)
    353a:	4649      	mov	r1, r9
    353c:	4638      	mov	r0, r7
    353e:	f7ff f84f 	bl	25e0 <copy_mpi_to_bigint>
    3542:	4602      	mov	r2, r0
    3544:	b120      	cbz	r0, 3550 <TEE_BigIntComputeExtendedGcd+0x140>
/home/aom1/Work/Linux/target/STM32MP1-DK2/bootloader/optee-os-custom/lib/libutee/tee_api_arith_mpi.c:743 (discriminator 1)
    3546:	4817      	ldr	r0, [pc, #92]	; (35a4 <TEE_BigIntComputeExtendedGcd+0x194>)
    3548:	f240 21e7 	movw	r1, #743	; 0x2e7
    354c:	4478      	add	r0, pc
    354e:	e78c      	b.n	346a <TEE_BigIntComputeExtendedGcd+0x5a>
/home/aom1/Work/Linux/target/STM32MP1-DK2/bootloader/optee-os-custom/lib/libutee/tee_api_arith_mpi.c:744 (discriminator 2)
    3550:	4640      	mov	r0, r8
    3552:	f000 fd07 	bl	3f64 <mbedtls_mpi_free>
/home/aom1/Work/Linux/target/STM32MP1-DK2/bootloader/optee-os-custom/lib/libutee/tee_api_arith_mpi.c:745 (discriminator 2)
    3556:	4638      	mov	r0, r7
    3558:	f000 fd04 	bl	3f64 <mbedtls_mpi_free>
/home/aom1/Work/Linux/target/STM32MP1-DK2/bootloader/optee-os-custom/lib/libutee/tee_api_arith_mpi.c:748
    355c:	9903      	ldr	r1, [sp, #12]
    355e:	4630      	mov	r0, r6
    3560:	f7ff f83e 	bl	25e0 <copy_mpi_to_bigint>
    3564:	4602      	mov	r2, r0
    3566:	b120      	cbz	r0, 3572 <TEE_BigIntComputeExtendedGcd+0x162>
/home/aom1/Work/Linux/target/STM32MP1-DK2/bootloader/optee-os-custom/lib/libutee/tee_api_arith_mpi.c:748 (discriminator 1)
    3568:	480f      	ldr	r0, [pc, #60]	; (35a8 <TEE_BigIntComputeExtendedGcd+0x198>)
    356a:	f44f 713b 	mov.w	r1, #748	; 0x2ec
    356e:	4478      	add	r0, pc
    3570:	e77b      	b.n	346a <TEE_BigIntComputeExtendedGcd+0x5a>
/home/aom1/Work/Linux/target/STM32MP1-DK2/bootloader/optee-os-custom/lib/libutee/tee_api_arith_mpi.c:749 (discriminator 2)
    3572:	4630      	mov	r0, r6
    3574:	f000 fcf6 	bl	3f64 <mbedtls_mpi_free>
/home/aom1/Work/Linux/target/STM32MP1-DK2/bootloader/optee-os-custom/lib/libutee/tee_api_arith_mpi.c:750 (discriminator 2)
    3578:	4628      	mov	r0, r5
    357a:	f000 fcf3 	bl	3f64 <mbedtls_mpi_free>
/home/aom1/Work/Linux/target/STM32MP1-DK2/bootloader/optee-os-custom/lib/libutee/tee_api_arith_mpi.c:751 (discriminator 2)
    357e:	455c      	cmp	r4, fp
    3580:	d102      	bne.n	3588 <TEE_BigIntComputeExtendedGcd+0x178>
/home/aom1/Work/Linux/target/STM32MP1-DK2/bootloader/optee-os-custom/lib/libutee/tee_api_arith_mpi.c:752
    3582:	4620      	mov	r0, r4
    3584:	f000 fcee 	bl	3f64 <mbedtls_mpi_free>
/home/aom1/Work/Linux/target/STM32MP1-DK2/bootloader/optee-os-custom/lib/libutee/tee_api_arith_mpi.c:753
    3588:	b017      	add	sp, #92	; 0x5c
    358a:	e8bd 8ff0 	ldmia.w	sp!, {r4, r5, r6, r7, r8, r9, sl, fp, pc}
    358e:	bf00      	nop
    3590:	00004392 	.word	0x00004392
    3594:	0000433c 	.word	0x0000433c
    3598:	00004326 	.word	0x00004326
    359c:	00004310 	.word	0x00004310
    35a0:	000042c4 	.word	0x000042c4
    35a4:	000042ae 	.word	0x000042ae
    35a8:	0000428c 	.word	0x0000428c

000035ac <TEE_BigIntIsProbablePrime>:
TEE_BigIntIsProbablePrime():
/home/aom1/Work/Linux/target/STM32MP1-DK2/bootloader/optee-os-custom/lib/libutee/tee_api_arith_mpi.c:764
    35ac:	b530      	push	{r4, r5, lr}
    35ae:	b085      	sub	sp, #20
/home/aom1/Work/Linux/target/STM32MP1-DK2/bootloader/optee-os-custom/lib/libutee/tee_api_arith_mpi.c:768
    35b0:	ac01      	add	r4, sp, #4
/home/aom1/Work/Linux/target/STM32MP1-DK2/bootloader/optee-os-custom/lib/libutee/tee_api_arith_mpi.c:764
    35b2:	4601      	mov	r1, r0
/home/aom1/Work/Linux/target/STM32MP1-DK2/bootloader/optee-os-custom/lib/libutee/tee_api_arith_mpi.c:768
    35b4:	4620      	mov	r0, r4
    35b6:	f7fe ffeb 	bl	2590 <get_mpi>
/home/aom1/Work/Linux/target/STM32MP1-DK2/bootloader/optee-os-custom/lib/libutee/tee_api_arith_mpi.c:770
    35ba:	4907      	ldr	r1, [pc, #28]	; (35d8 <TEE_BigIntIsProbablePrime+0x2c>)
    35bc:	2200      	movs	r2, #0
    35be:	4620      	mov	r0, r4
    35c0:	4479      	add	r1, pc
    35c2:	f002 fc4e 	bl	5e62 <mbedtls_mpi_is_prime>
    35c6:	4605      	mov	r5, r0
/home/aom1/Work/Linux/target/STM32MP1-DK2/bootloader/optee-os-custom/lib/libutee/tee_api_arith_mpi.c:772
    35c8:	4620      	mov	r0, r4
    35ca:	f000 fccb 	bl	3f64 <mbedtls_mpi_free>
/home/aom1/Work/Linux/target/STM32MP1-DK2/bootloader/optee-os-custom/lib/libutee/tee_api_arith_mpi.c:778
    35ce:	fab5 f085 	clz	r0, r5
    35d2:	0940      	lsrs	r0, r0, #5
    35d4:	b005      	add	sp, #20
    35d6:	bd30      	pop	{r4, r5, pc}
    35d8:	fffff111 	.word	0xfffff111

000035dc <TEE_BigIntInitFMM>:
TEE_BigIntInitFMM():
/home/aom1/Work/Linux/target/STM32MP1-DK2/bootloader/optee-os-custom/lib/libutee/tee_api_arith_mpi.c:790
    35dc:	f7ff bad6 	b.w	2b8c <TEE_BigIntInit>

000035e0 <TEE_BigIntInitFMMContext>:
TEE_BigIntInitFMMContext():
/home/aom1/Work/Linux/target/STM32MP1-DK2/bootloader/optee-os-custom/lib/libutee/tee_api_arith_mpi.c:797
    35e0:	4770      	bx	lr

000035e2 <TEE_BigIntFMMSizeInU32>:
TEE_BigIntFMMSizeInU32():
/home/aom1/Work/Linux/target/STM32MP1-DK2/bootloader/optee-os-custom/lib/libutee/tee_api_arith_mpi.c:801
    35e2:	301f      	adds	r0, #31
    35e4:	0940      	lsrs	r0, r0, #5
/home/aom1/Work/Linux/target/STM32MP1-DK2/bootloader/optee-os-custom/lib/libutee/tee_api_arith_mpi.c:802
    35e6:	3002      	adds	r0, #2
    35e8:	4770      	bx	lr

000035ea <TEE_BigIntFMMContextSizeInU32>:
TEE_BigIntFMMContextSizeInU32():
/home/aom1/Work/Linux/target/STM32MP1-DK2/bootloader/optee-os-custom/lib/libutee/tee_api_arith_mpi.c:808
    35ea:	2001      	movs	r0, #1
    35ec:	4770      	bx	lr

000035ee <TEE_BigIntConvertToFMM>:
TEE_BigIntConvertToFMM():
/home/aom1/Work/Linux/target/STM32MP1-DK2/bootloader/optee-os-custom/lib/libutee/tee_api_arith_mpi.c:814
    35ee:	f7ff be1b 	b.w	3228 <TEE_BigIntMod>

000035f2 <TEE_BigIntConvertFromFMM>:
TEE_BigIntConvertFromFMM():
/home/aom1/Work/Linux/target/STM32MP1-DK2/bootloader/optee-os-custom/lib/libutee/tee_api_arith_mpi.c:820
    35f2:	b5f0      	push	{r4, r5, r6, r7, lr}
    35f4:	b087      	sub	sp, #28
/home/aom1/Work/Linux/target/STM32MP1-DK2/bootloader/optee-os-custom/lib/libutee/tee_api_arith_mpi.c:824
    35f6:	466c      	mov	r4, sp
/home/aom1/Work/Linux/target/STM32MP1-DK2/bootloader/optee-os-custom/lib/libutee/tee_api_arith_mpi.c:820
    35f8:	460f      	mov	r7, r1
/home/aom1/Work/Linux/target/STM32MP1-DK2/bootloader/optee-os-custom/lib/libutee/tee_api_arith_mpi.c:825
    35fa:	ae03      	add	r6, sp, #12
/home/aom1/Work/Linux/target/STM32MP1-DK2/bootloader/optee-os-custom/lib/libutee/tee_api_arith_mpi.c:824
    35fc:	4601      	mov	r1, r0
/home/aom1/Work/Linux/target/STM32MP1-DK2/bootloader/optee-os-custom/lib/libutee/tee_api_arith_mpi.c:820
    35fe:	4605      	mov	r5, r0
/home/aom1/Work/Linux/target/STM32MP1-DK2/bootloader/optee-os-custom/lib/libutee/tee_api_arith_mpi.c:824
    3600:	4620      	mov	r0, r4
    3602:	f7fe ffc5 	bl	2590 <get_mpi>
/home/aom1/Work/Linux/target/STM32MP1-DK2/bootloader/optee-os-custom/lib/libutee/tee_api_arith_mpi.c:825
    3606:	4639      	mov	r1, r7
    3608:	4630      	mov	r0, r6
    360a:	f7fe ffc1 	bl	2590 <get_mpi>
/home/aom1/Work/Linux/target/STM32MP1-DK2/bootloader/optee-os-custom/lib/libutee/tee_api_arith_mpi.c:827
    360e:	4631      	mov	r1, r6
    3610:	4620      	mov	r0, r4
    3612:	f000 fd8b 	bl	412c <mbedtls_mpi_copy>
    3616:	4602      	mov	r2, r0
    3618:	b138      	cbz	r0, 362a <TEE_BigIntConvertFromFMM+0x38>
/home/aom1/Work/Linux/target/STM32MP1-DK2/bootloader/optee-os-custom/lib/libutee/tee_api_arith_mpi.c:827 (discriminator 1)
    361a:	480d      	ldr	r0, [pc, #52]	; (3650 <TEE_BigIntConvertFromFMM+0x5e>)
    361c:	f240 313b 	movw	r1, #827	; 0x33b
    3620:	4478      	add	r0, pc
/home/aom1/Work/Linux/target/STM32MP1-DK2/bootloader/optee-os-custom/lib/libutee/tee_api_arith_mpi.c:829 (discriminator 1)
    3622:	f200 100f 	addw	r0, r0, #271	; 0x10f
    3626:	f7fe ffa3 	bl	2570 <mpi_panic>
/home/aom1/Work/Linux/target/STM32MP1-DK2/bootloader/optee-os-custom/lib/libutee/tee_api_arith_mpi.c:829 (discriminator 2)
    362a:	4629      	mov	r1, r5
    362c:	4620      	mov	r0, r4
    362e:	f7fe ffd7 	bl	25e0 <copy_mpi_to_bigint>
    3632:	4602      	mov	r2, r0
    3634:	b120      	cbz	r0, 3640 <TEE_BigIntConvertFromFMM+0x4e>
/home/aom1/Work/Linux/target/STM32MP1-DK2/bootloader/optee-os-custom/lib/libutee/tee_api_arith_mpi.c:829 (discriminator 1)
    3636:	4807      	ldr	r0, [pc, #28]	; (3654 <TEE_BigIntConvertFromFMM+0x62>)
    3638:	f240 313d 	movw	r1, #829	; 0x33d
    363c:	4478      	add	r0, pc
    363e:	e7f0      	b.n	3622 <TEE_BigIntConvertFromFMM+0x30>
/home/aom1/Work/Linux/target/STM32MP1-DK2/bootloader/optee-os-custom/lib/libutee/tee_api_arith_mpi.c:830 (discriminator 2)
    3640:	4620      	mov	r0, r4
    3642:	f000 fc8f 	bl	3f64 <mbedtls_mpi_free>
/home/aom1/Work/Linux/target/STM32MP1-DK2/bootloader/optee-os-custom/lib/libutee/tee_api_arith_mpi.c:831 (discriminator 2)
    3646:	4630      	mov	r0, r6
    3648:	f000 fc8c 	bl	3f64 <mbedtls_mpi_free>
/home/aom1/Work/Linux/target/STM32MP1-DK2/bootloader/optee-os-custom/lib/libutee/tee_api_arith_mpi.c:832 (discriminator 2)
    364c:	b007      	add	sp, #28
    364e:	bdf0      	pop	{r4, r5, r6, r7, pc}
    3650:	000041da 	.word	0x000041da
    3654:	000041be 	.word	0x000041be

00003658 <TEE_BigIntComputeFMM>:
TEE_BigIntComputeFMM():
/home/aom1/Work/Linux/target/STM32MP1-DK2/bootloader/optee-os-custom/lib/libutee/tee_api_arith_mpi.c:837
    3658:	e92d 43f0 	stmdb	sp!, {r4, r5, r6, r7, r8, r9, lr}
    365c:	b091      	sub	sp, #68	; 0x44
/home/aom1/Work/Linux/target/STM32MP1-DK2/bootloader/optee-os-custom/lib/libutee/tee_api_arith_mpi.c:844
    365e:	ac01      	add	r4, sp, #4
/home/aom1/Work/Linux/target/STM32MP1-DK2/bootloader/optee-os-custom/lib/libutee/tee_api_arith_mpi.c:837
    3660:	4688      	mov	r8, r1
/home/aom1/Work/Linux/target/STM32MP1-DK2/bootloader/optee-os-custom/lib/libutee/tee_api_arith_mpi.c:845
    3662:	af04      	add	r7, sp, #16
/home/aom1/Work/Linux/target/STM32MP1-DK2/bootloader/optee-os-custom/lib/libutee/tee_api_arith_mpi.c:844
    3664:	4601      	mov	r1, r0
/home/aom1/Work/Linux/target/STM32MP1-DK2/bootloader/optee-os-custom/lib/libutee/tee_api_arith_mpi.c:837
    3666:	4605      	mov	r5, r0
/home/aom1/Work/Linux/target/STM32MP1-DK2/bootloader/optee-os-custom/lib/libutee/tee_api_arith_mpi.c:844
    3668:	4620      	mov	r0, r4
/home/aom1/Work/Linux/target/STM32MP1-DK2/bootloader/optee-os-custom/lib/libutee/tee_api_arith_mpi.c:837
    366a:	4691      	mov	r9, r2
    366c:	461e      	mov	r6, r3
/home/aom1/Work/Linux/target/STM32MP1-DK2/bootloader/optee-os-custom/lib/libutee/tee_api_arith_mpi.c:844
    366e:	f7fe ff8f 	bl	2590 <get_mpi>
/home/aom1/Work/Linux/target/STM32MP1-DK2/bootloader/optee-os-custom/lib/libutee/tee_api_arith_mpi.c:845
    3672:	4641      	mov	r1, r8
    3674:	4638      	mov	r0, r7
/home/aom1/Work/Linux/target/STM32MP1-DK2/bootloader/optee-os-custom/lib/libutee/tee_api_arith_mpi.c:846
    3676:	f10d 081c 	add.w	r8, sp, #28
/home/aom1/Work/Linux/target/STM32MP1-DK2/bootloader/optee-os-custom/lib/libutee/tee_api_arith_mpi.c:845
    367a:	f7fe ff89 	bl	2590 <get_mpi>
/home/aom1/Work/Linux/target/STM32MP1-DK2/bootloader/optee-os-custom/lib/libutee/tee_api_arith_mpi.c:846
    367e:	4649      	mov	r1, r9
    3680:	4640      	mov	r0, r8
/home/aom1/Work/Linux/target/STM32MP1-DK2/bootloader/optee-os-custom/lib/libutee/tee_api_arith_mpi.c:847
    3682:	f10d 0928 	add.w	r9, sp, #40	; 0x28
/home/aom1/Work/Linux/target/STM32MP1-DK2/bootloader/optee-os-custom/lib/libutee/tee_api_arith_mpi.c:846
    3686:	f7fe ff83 	bl	2590 <get_mpi>
/home/aom1/Work/Linux/target/STM32MP1-DK2/bootloader/optee-os-custom/lib/libutee/tee_api_arith_mpi.c:847
    368a:	4631      	mov	r1, r6
    368c:	4648      	mov	r0, r9
get_mpi():
/home/aom1/Work/Linux/target/STM32MP1-DK2/bootloader/optee-os-custom/lib/libutee/tee_api_arith_mpi.c:101
    368e:	ae0d      	add	r6, sp, #52	; 0x34
TEE_BigIntComputeFMM():
/home/aom1/Work/Linux/target/STM32MP1-DK2/bootloader/optee-os-custom/lib/libutee/tee_api_arith_mpi.c:847
    3690:	f7fe ff7e 	bl	2590 <get_mpi>
get_mpi():
/home/aom1/Work/Linux/target/STM32MP1-DK2/bootloader/optee-os-custom/lib/libutee/tee_api_arith_mpi.c:101
    3694:	4630      	mov	r0, r6
    3696:	f000 fc51 	bl	3f3c <mbedtls_mpi_init_mempool>
TEE_BigIntComputeFMM():
/home/aom1/Work/Linux/target/STM32MP1-DK2/bootloader/optee-os-custom/lib/libutee/tee_api_arith_mpi.c:850
    369a:	4642      	mov	r2, r8
    369c:	4639      	mov	r1, r7
    369e:	4630      	mov	r0, r6
    36a0:	f001 f9ef 	bl	4a82 <mbedtls_mpi_mul_mpi>
    36a4:	4602      	mov	r2, r0
    36a6:	b138      	cbz	r0, 36b8 <TEE_BigIntComputeFMM+0x60>
/home/aom1/Work/Linux/target/STM32MP1-DK2/bootloader/optee-os-custom/lib/libutee/tee_api_arith_mpi.c:850 (discriminator 1)
    36a8:	4818      	ldr	r0, [pc, #96]	; (370c <TEE_BigIntComputeFMM+0xb4>)
    36aa:	f240 3152 	movw	r1, #850	; 0x352
    36ae:	4478      	add	r0, pc
/home/aom1/Work/Linux/target/STM32MP1-DK2/bootloader/optee-os-custom/lib/libutee/tee_api_arith_mpi.c:851 (discriminator 1)
    36b0:	f500 7094 	add.w	r0, r0, #296	; 0x128
    36b4:	f7fe ff5c 	bl	2570 <mpi_panic>
/home/aom1/Work/Linux/target/STM32MP1-DK2/bootloader/optee-os-custom/lib/libutee/tee_api_arith_mpi.c:851 (discriminator 2)
    36b8:	464a      	mov	r2, r9
    36ba:	4631      	mov	r1, r6
    36bc:	4620      	mov	r0, r4
    36be:	f001 fcd8 	bl	5072 <mbedtls_mpi_mod_mpi>
    36c2:	4602      	mov	r2, r0
    36c4:	b120      	cbz	r0, 36d0 <TEE_BigIntComputeFMM+0x78>
/home/aom1/Work/Linux/target/STM32MP1-DK2/bootloader/optee-os-custom/lib/libutee/tee_api_arith_mpi.c:851 (discriminator 1)
    36c6:	4812      	ldr	r0, [pc, #72]	; (3710 <TEE_BigIntComputeFMM+0xb8>)
    36c8:	f240 3153 	movw	r1, #851	; 0x353
    36cc:	4478      	add	r0, pc
    36ce:	e7ef      	b.n	36b0 <TEE_BigIntComputeFMM+0x58>
/home/aom1/Work/Linux/target/STM32MP1-DK2/bootloader/optee-os-custom/lib/libutee/tee_api_arith_mpi.c:853 (discriminator 2)
    36d0:	4630      	mov	r0, r6
    36d2:	f000 fc47 	bl	3f64 <mbedtls_mpi_free>
/home/aom1/Work/Linux/target/STM32MP1-DK2/bootloader/optee-os-custom/lib/libutee/tee_api_arith_mpi.c:854 (discriminator 2)
    36d6:	4648      	mov	r0, r9
    36d8:	f000 fc44 	bl	3f64 <mbedtls_mpi_free>
/home/aom1/Work/Linux/target/STM32MP1-DK2/bootloader/optee-os-custom/lib/libutee/tee_api_arith_mpi.c:855 (discriminator 2)
    36dc:	4640      	mov	r0, r8
    36de:	f000 fc41 	bl	3f64 <mbedtls_mpi_free>
/home/aom1/Work/Linux/target/STM32MP1-DK2/bootloader/optee-os-custom/lib/libutee/tee_api_arith_mpi.c:856 (discriminator 2)
    36e2:	4638      	mov	r0, r7
    36e4:	f000 fc3e 	bl	3f64 <mbedtls_mpi_free>
/home/aom1/Work/Linux/target/STM32MP1-DK2/bootloader/optee-os-custom/lib/libutee/tee_api_arith_mpi.c:857 (discriminator 2)
    36e8:	4629      	mov	r1, r5
    36ea:	4620      	mov	r0, r4
    36ec:	f7fe ff78 	bl	25e0 <copy_mpi_to_bigint>
    36f0:	4602      	mov	r2, r0
    36f2:	b120      	cbz	r0, 36fe <TEE_BigIntComputeFMM+0xa6>
/home/aom1/Work/Linux/target/STM32MP1-DK2/bootloader/optee-os-custom/lib/libutee/tee_api_arith_mpi.c:857 (discriminator 1)
    36f4:	4807      	ldr	r0, [pc, #28]	; (3714 <TEE_BigIntComputeFMM+0xbc>)
    36f6:	f240 3159 	movw	r1, #857	; 0x359
    36fa:	4478      	add	r0, pc
    36fc:	e7d8      	b.n	36b0 <TEE_BigIntComputeFMM+0x58>
/home/aom1/Work/Linux/target/STM32MP1-DK2/bootloader/optee-os-custom/lib/libutee/tee_api_arith_mpi.c:858 (discriminator 2)
    36fe:	4620      	mov	r0, r4
    3700:	f000 fc30 	bl	3f64 <mbedtls_mpi_free>
/home/aom1/Work/Linux/target/STM32MP1-DK2/bootloader/optee-os-custom/lib/libutee/tee_api_arith_mpi.c:859 (discriminator 2)
    3704:	b011      	add	sp, #68	; 0x44
    3706:	e8bd 83f0 	ldmia.w	sp!, {r4, r5, r6, r7, r8, r9, pc}
    370a:	bf00      	nop
    370c:	0000414c 	.word	0x0000414c
    3710:	0000412e 	.word	0x0000412e
    3714:	00004100 	.word	0x00004100

00003718 <__utee_tcb_init>:
__utee_tcb_init():
/home/aom1/Work/Linux/target/STM32MP1-DK2/bootloader/optee-os-custom/lib/libutee/arch/arm/tcb.c:87
    3718:	4b53      	ldr	r3, [pc, #332]	; (3868 <__utee_tcb_init+0x150>)
/home/aom1/Work/Linux/target/STM32MP1-DK2/bootloader/optee-os-custom/lib/libutee/arch/arm/tcb.c:96
    371a:	4a54      	ldr	r2, [pc, #336]	; (386c <__utee_tcb_init+0x154>)
/home/aom1/Work/Linux/target/STM32MP1-DK2/bootloader/optee-os-custom/lib/libutee/arch/arm/tcb.c:87
    371c:	447b      	add	r3, pc
    371e:	e92d 4ff0 	stmdb	sp!, {r4, r5, r6, r7, r8, r9, sl, fp, lr}
    3722:	b087      	sub	sp, #28
/home/aom1/Work/Linux/target/STM32MP1-DK2/bootloader/optee-os-custom/lib/libutee/arch/arm/tcb.c:96
    3724:	f853 8002 	ldr.w	r8, [r3, r2]
    3728:	2200      	movs	r2, #0
/home/aom1/Work/Linux/target/STM32MP1-DK2/bootloader/optee-os-custom/lib/libutee/arch/arm/tcb.c:90
    372a:	4617      	mov	r7, r2
/home/aom1/Work/Linux/target/STM32MP1-DK2/bootloader/optee-os-custom/lib/libutee/arch/arm/tcb.c:96
    372c:	f8b8 5004 	ldrh.w	r5, [r8, #4]
    3730:	f8d8 1008 	ldr.w	r1, [r8, #8]
/home/aom1/Work/Linux/target/STM32MP1-DK2/bootloader/optee-os-custom/lib/libutee/arch/arm/tcb.c:96 (discriminator 1)
    3734:	4295      	cmp	r5, r2
    3736:	d810      	bhi.n	375a <__utee_tcb_init+0x42>
/home/aom1/Work/Linux/target/STM32MP1-DK2/bootloader/optee-os-custom/lib/libutee/arch/arm/tcb.c:108
    3738:	4c4d      	ldr	r4, [pc, #308]	; (3870 <__utee_tcb_init+0x158>)
    373a:	447c      	add	r4, pc
    373c:	6823      	ldr	r3, [r4, #0]
    373e:	42bb      	cmp	r3, r7
    3740:	9303      	str	r3, [sp, #12]
    3742:	d91d      	bls.n	3780 <__utee_tcb_init+0x68>
/home/aom1/Work/Linux/target/STM32MP1-DK2/bootloader/optee-os-custom/lib/libutee/arch/arm/tcb.c:108 (discriminator 1)
    3744:	4b4b      	ldr	r3, [pc, #300]	; (3874 <__utee_tcb_init+0x15c>)
    3746:	226c      	movs	r2, #108	; 0x6c
    3748:	494b      	ldr	r1, [pc, #300]	; (3878 <__utee_tcb_init+0x160>)
    374a:	484c      	ldr	r0, [pc, #304]	; (387c <__utee_tcb_init+0x164>)
    374c:	447b      	add	r3, pc
    374e:	4479      	add	r1, pc
    3750:	4478      	add	r0, pc
    3752:	f000 f8ff 	bl	3954 <_assert_log>
    3756:	f000 f911 	bl	397c <_assert_break>
/home/aom1/Work/Linux/target/STM32MP1-DK2/bootloader/optee-os-custom/lib/libutee/arch/arm/tcb.c:98
    375a:	898e      	ldrh	r6, [r1, #12]
    375c:	2300      	movs	r3, #0
/home/aom1/Work/Linux/target/STM32MP1-DK2/bootloader/optee-os-custom/lib/libutee/arch/arm/tcb.c:98 (discriminator 1)
    375e:	429e      	cmp	r6, r3
    3760:	d909      	bls.n	3776 <__utee_tcb_init+0x5e>
/home/aom1/Work/Linux/target/STM32MP1-DK2/bootloader/optee-os-custom/lib/libutee/arch/arm/tcb.c:99
    3762:	688c      	ldr	r4, [r1, #8]
    3764:	0158      	lsls	r0, r3, #5
    3766:	eb04 1c43 	add.w	ip, r4, r3, lsl #5
/home/aom1/Work/Linux/target/STM32MP1-DK2/bootloader/optee-os-custom/lib/libutee/arch/arm/tcb.c:100
    376a:	5820      	ldr	r0, [r4, r0]
    376c:	2807      	cmp	r0, #7
    376e:	d105      	bne.n	377c <__utee_tcb_init+0x64>
/home/aom1/Work/Linux/target/STM32MP1-DK2/bootloader/optee-os-custom/lib/libutee/arch/arm/tcb.c:101
    3770:	f8dc 3014 	ldr.w	r3, [ip, #20]
    3774:	441f      	add	r7, r3
/home/aom1/Work/Linux/target/STM32MP1-DK2/bootloader/optee-os-custom/lib/libutee/arch/arm/tcb.c:96 (discriminator 2)
    3776:	3201      	adds	r2, #1
    3778:	3128      	adds	r1, #40	; 0x28
    377a:	e7db      	b.n	3734 <__utee_tcb_init+0x1c>
/home/aom1/Work/Linux/target/STM32MP1-DK2/bootloader/optee-os-custom/lib/libutee/arch/arm/tcb.c:98 (discriminator 2)
    377c:	3301      	adds	r3, #1
    377e:	e7ee      	b.n	375e <__utee_tcb_init+0x46>
/home/aom1/Work/Linux/target/STM32MP1-DK2/bootloader/optee-os-custom/lib/libutee/arch/arm/tcb.c:110 (discriminator 2)
    3780:	d040      	beq.n	3804 <__utee_tcb_init+0xec>
/home/aom1/Work/Linux/target/STM32MP1-DK2/bootloader/optee-os-custom/lib/libutee/arch/arm/tcb.c:114
    3782:	6860      	ldr	r0, [r4, #4]
    3784:	f107 0608 	add.w	r6, r7, #8
    3788:	4631      	mov	r1, r6
    378a:	f003 f9ef 	bl	6b6c <realloc>
    378e:	6060      	str	r0, [r4, #4]
    3790:	4605      	mov	r5, r0
/home/aom1/Work/Linux/target/STM32MP1-DK2/bootloader/optee-os-custom/lib/libutee/arch/arm/tcb.c:115
    3792:	b960      	cbnz	r0, 37ae <__utee_tcb_init+0x96>
/home/aom1/Work/Linux/target/STM32MP1-DK2/bootloader/optee-os-custom/lib/libutee/arch/arm/tcb.c:116
    3794:	4b3a      	ldr	r3, [pc, #232]	; (3880 <__utee_tcb_init+0x168>)
    3796:	2174      	movs	r1, #116	; 0x74
    3798:	483a      	ldr	r0, [pc, #232]	; (3884 <__utee_tcb_init+0x16c>)
    379a:	447b      	add	r3, pc
    379c:	9300      	str	r3, [sp, #0]
    379e:	2301      	movs	r3, #1
    37a0:	4478      	add	r0, pc
    37a2:	461a      	mov	r2, r3
    37a4:	9601      	str	r6, [sp, #4]
/home/aom1/Work/Linux/target/STM32MP1-DK2/bootloader/optee-os-custom/lib/libutee/arch/arm/tcb.c:124
    37a6:	f7fc fee1 	bl	56c <trace_printf>
/home/aom1/Work/Linux/target/STM32MP1-DK2/bootloader/optee-os-custom/lib/libutee/arch/arm/tcb.c:125
    37aa:	f7fe fec5 	bl	2538 <abort>
/home/aom1/Work/Linux/target/STM32MP1-DK2/bootloader/optee-os-custom/lib/libutee/arch/arm/tcb.c:121
    37ae:	f8b8 4004 	ldrh.w	r4, [r8, #4]
/home/aom1/Work/Linux/target/STM32MP1-DK2/bootloader/optee-os-custom/lib/libutee/arch/arm/tcb.c:122
    37b2:	6800      	ldr	r0, [r0, #0]
/home/aom1/Work/Linux/target/STM32MP1-DK2/bootloader/optee-os-custom/lib/libutee/arch/arm/tcb.c:121
    37b4:	3402      	adds	r4, #2
    37b6:	00a4      	lsls	r4, r4, #2
/home/aom1/Work/Linux/target/STM32MP1-DK2/bootloader/optee-os-custom/lib/libutee/arch/arm/tcb.c:122
    37b8:	4621      	mov	r1, r4
    37ba:	f003 f9d7 	bl	6b6c <realloc>
    37be:	6028      	str	r0, [r5, #0]
/home/aom1/Work/Linux/target/STM32MP1-DK2/bootloader/optee-os-custom/lib/libutee/arch/arm/tcb.c:123
    37c0:	2800      	cmp	r0, #0
    37c2:	d14c      	bne.n	385e <__utee_tcb_init+0x146>
/home/aom1/Work/Linux/target/STM32MP1-DK2/bootloader/optee-os-custom/lib/libutee/arch/arm/tcb.c:124
    37c4:	4b30      	ldr	r3, [pc, #192]	; (3888 <__utee_tcb_init+0x170>)
    37c6:	217c      	movs	r1, #124	; 0x7c
    37c8:	4830      	ldr	r0, [pc, #192]	; (388c <__utee_tcb_init+0x174>)
    37ca:	447b      	add	r3, pc
    37cc:	9300      	str	r3, [sp, #0]
    37ce:	2301      	movs	r3, #1
    37d0:	4478      	add	r0, pc
    37d2:	461a      	mov	r2, r3
    37d4:	9401      	str	r4, [sp, #4]
    37d6:	e7e6      	b.n	37a6 <__utee_tcb_init+0x8e>
/home/aom1/Work/Linux/target/STM32MP1-DK2/bootloader/optee-os-custom/lib/libutee/arch/arm/tcb.c:131
    37d8:	f8d8 3008 	ldr.w	r3, [r8, #8]
    37dc:	2228      	movs	r2, #40	; 0x28
/home/aom1/Work/Linux/target/STM32MP1-DK2/bootloader/optee-os-custom/lib/libutee/arch/arm/tcb.c:132
    37de:	f04f 0a00 	mov.w	sl, #0
/home/aom1/Work/Linux/target/STM32MP1-DK2/bootloader/optee-os-custom/lib/libutee/arch/arm/tcb.c:131
    37e2:	fb02 3304 	mla	r3, r2, r4, r3
/home/aom1/Work/Linux/target/STM32MP1-DK2/bootloader/optee-os-custom/lib/libutee/arch/arm/tcb.c:132
    37e6:	3401      	adds	r4, #1
/home/aom1/Work/Linux/target/STM32MP1-DK2/bootloader/optee-os-custom/lib/libutee/arch/arm/tcb.c:140
    37e8:	00a2      	lsls	r2, r4, #2
    37ea:	9204      	str	r2, [sp, #16]
/home/aom1/Work/Linux/target/STM32MP1-DK2/bootloader/optee-os-custom/lib/libutee/arch/arm/tcb.c:132 (discriminator 1)
    37ec:	899a      	ldrh	r2, [r3, #12]
    37ee:	4552      	cmp	r2, sl
    37f0:	d80b      	bhi.n	380a <__utee_tcb_init+0xf2>
/home/aom1/Work/Linux/target/STM32MP1-DK2/bootloader/optee-os-custom/lib/libutee/arch/arm/tcb.c:130 (discriminator 1)
    37f2:	f8b8 3004 	ldrh.w	r3, [r8, #4]
    37f6:	429c      	cmp	r4, r3
    37f8:	d3ee      	bcc.n	37d8 <__utee_tcb_init+0xc0>
/home/aom1/Work/Linux/target/STM32MP1-DK2/bootloader/optee-os-custom/lib/libutee/arch/arm/tcb.c:151
    37fa:	682b      	ldr	r3, [r5, #0]
    37fc:	601c      	str	r4, [r3, #0]
/home/aom1/Work/Linux/target/STM32MP1-DK2/bootloader/optee-os-custom/lib/libutee/arch/arm/tcb.c:153
    37fe:	4b24      	ldr	r3, [pc, #144]	; (3890 <__utee_tcb_init+0x178>)
    3800:	447b      	add	r3, pc
    3802:	601f      	str	r7, [r3, #0]
/home/aom1/Work/Linux/target/STM32MP1-DK2/bootloader/optee-os-custom/lib/libutee/arch/arm/tcb.c:161
    3804:	b007      	add	sp, #28
    3806:	e8bd 8ff0 	ldmia.w	sp!, {r4, r5, r6, r7, r8, r9, sl, fp, pc}
/home/aom1/Work/Linux/target/STM32MP1-DK2/bootloader/optee-os-custom/lib/libutee/arch/arm/tcb.c:133
    380a:	6899      	ldr	r1, [r3, #8]
    380c:	ea4f 124a 	mov.w	r2, sl, lsl #5
    3810:	eb01 164a 	add.w	r6, r1, sl, lsl #5
/home/aom1/Work/Linux/target/STM32MP1-DK2/bootloader/optee-os-custom/lib/libutee/arch/arm/tcb.c:134
    3814:	588a      	ldr	r2, [r1, r2]
    3816:	2a07      	cmp	r2, #7
    3818:	d11e      	bne.n	3858 <__utee_tcb_init+0x140>
/home/aom1/Work/Linux/target/STM32MP1-DK2/bootloader/optee-os-custom/lib/libutee/arch/arm/tcb.c:136
    381a:	6972      	ldr	r2, [r6, #20]
    381c:	9903      	ldr	r1, [sp, #12]
    381e:	444a      	add	r2, r9
    3820:	4291      	cmp	r1, r2
    3822:	d2e6      	bcs.n	37f2 <__utee_tcb_init+0xda>
/home/aom1/Work/Linux/target/STM32MP1-DK2/bootloader/optee-os-custom/lib/libutee/arch/arm/tcb.c:140
    3824:	682a      	ldr	r2, [r5, #0]
    3826:	9904      	ldr	r1, [sp, #16]
    3828:	eb0b 0c09 	add.w	ip, fp, r9
/home/aom1/Work/Linux/target/STM32MP1-DK2/bootloader/optee-os-custom/lib/libutee/arch/arm/tcb.c:142
    382c:	6818      	ldr	r0, [r3, #0]
/home/aom1/Work/Linux/target/STM32MP1-DK2/bootloader/optee-os-custom/lib/libutee/arch/arm/tcb.c:140
    382e:	f842 c001 	str.w	ip, [r2, r1]
/home/aom1/Work/Linux/target/STM32MP1-DK2/bootloader/optee-os-custom/lib/libutee/arch/arm/tcb.c:143
    3832:	68b1      	ldr	r1, [r6, #8]
/home/aom1/Work/Linux/target/STM32MP1-DK2/bootloader/optee-os-custom/lib/libutee/arch/arm/tcb.c:142
    3834:	6932      	ldr	r2, [r6, #16]
    3836:	4401      	add	r1, r0
    3838:	4660      	mov	r0, ip
    383a:	9305      	str	r3, [sp, #20]
    383c:	f003 fa7e 	bl	6d3c <memcpy>
/home/aom1/Work/Linux/target/STM32MP1-DK2/bootloader/optee-os-custom/lib/libutee/arch/arm/tcb.c:146
    3840:	6932      	ldr	r2, [r6, #16]
    3842:	6971      	ldr	r1, [r6, #20]
    3844:	eb02 0009 	add.w	r0, r2, r9
    3848:	4458      	add	r0, fp
    384a:	1a8a      	subs	r2, r1, r2
    384c:	2100      	movs	r1, #0
    384e:	f003 fb60 	bl	6f12 <memset>
/home/aom1/Work/Linux/target/STM32MP1-DK2/bootloader/optee-os-custom/lib/libutee/arch/arm/tcb.c:148
    3852:	6972      	ldr	r2, [r6, #20]
    3854:	9b05      	ldr	r3, [sp, #20]
    3856:	4491      	add	r9, r2
/home/aom1/Work/Linux/target/STM32MP1-DK2/bootloader/optee-os-custom/lib/libutee/arch/arm/tcb.c:132 (discriminator 2)
    3858:	f10a 0a01 	add.w	sl, sl, #1
    385c:	e7c6      	b.n	37ec <__utee_tcb_init+0xd4>
    385e:	2400      	movs	r4, #0
/home/aom1/Work/Linux/target/STM32MP1-DK2/bootloader/optee-os-custom/lib/libutee/arch/arm/tcb.c:140
    3860:	f105 0b08 	add.w	fp, r5, #8
/home/aom1/Work/Linux/target/STM32MP1-DK2/bootloader/optee-os-custom/lib/libutee/arch/arm/tcb.c:129
    3864:	46a1      	mov	r9, r4
    3866:	e7c4      	b.n	37f2 <__utee_tcb_init+0xda>
    3868:	00005968 	.word	0x00005968
    386c:	00000034 	.word	0x00000034
    3870:	00008b92 	.word	0x00008b92
    3874:	00004281 	.word	0x00004281
    3878:	000041e9 	.word	0x000041e9
    387c:	00004202 	.word	0x00004202
    3880:	000041d0 	.word	0x000041d0
    3884:	0000422d 	.word	0x0000422d
    3888:	000041c2 	.word	0x000041c2
    388c:	000041fd 	.word	0x000041fd
    3890:	00008acc 	.word	0x00008acc

00003894 <__tls_get_addr>:
__tls_get_addr():
/home/aom1/Work/Linux/target/STM32MP1-DK2/bootloader/optee-os-custom/lib/libutee/arch/arm/tcb.c:172
    3894:	4b04      	ldr	r3, [pc, #16]	; (38a8 <__tls_get_addr+0x14>)
    3896:	6802      	ldr	r2, [r0, #0]
    3898:	447b      	add	r3, pc
    389a:	6840      	ldr	r0, [r0, #4]
    389c:	685b      	ldr	r3, [r3, #4]
    389e:	681b      	ldr	r3, [r3, #0]
    38a0:	f853 2022 	ldr.w	r2, [r3, r2, lsl #2]
/home/aom1/Work/Linux/target/STM32MP1-DK2/bootloader/optee-os-custom/lib/libutee/arch/arm/tcb.c:173
    38a4:	4410      	add	r0, r2
    38a6:	4770      	bx	lr
    38a8:	00008a34 	.word	0x00008a34

000038ac <dl_iterate_phdr>:
dl_iterate_phdr():
/home/aom1/Work/Linux/target/STM32MP1-DK2/bootloader/optee-os-custom/lib/libutee/arch/arm/tcb.c:177
    38ac:	e92d 4ff7 	stmdb	sp!, {r0, r1, r2, r4, r5, r6, r7, r8, r9, sl, fp, lr}
    38b0:	4606      	mov	r6, r0
    38b2:	f8df 808c 	ldr.w	r8, [pc, #140]	; 3940 <dl_iterate_phdr+0x94>
    38b6:	460f      	mov	r7, r1
/home/aom1/Work/Linux/target/STM32MP1-DK2/bootloader/optee-os-custom/lib/libutee/arch/arm/tcb.c:190
    38b8:	2001      	movs	r0, #1
    38ba:	2128      	movs	r1, #40	; 0x28
/home/aom1/Work/Linux/target/STM32MP1-DK2/bootloader/optee-os-custom/lib/libutee/arch/arm/tcb.c:177
    38bc:	44f8      	add	r8, pc
/home/aom1/Work/Linux/target/STM32MP1-DK2/bootloader/optee-os-custom/lib/libutee/arch/arm/tcb.c:190
    38be:	f003 f945 	bl	6b4c <calloc>
/home/aom1/Work/Linux/target/STM32MP1-DK2/bootloader/optee-os-custom/lib/libutee/arch/arm/tcb.c:191
    38c2:	4604      	mov	r4, r0
    38c4:	bb80      	cbnz	r0, 3928 <dl_iterate_phdr+0x7c>
/home/aom1/Work/Linux/target/STM32MP1-DK2/bootloader/optee-os-custom/lib/libutee/arch/arm/tcb.c:192
    38c6:	4b1f      	ldr	r3, [pc, #124]	; (3944 <dl_iterate_phdr+0x98>)
    38c8:	21c0      	movs	r1, #192	; 0xc0
    38ca:	481f      	ldr	r0, [pc, #124]	; (3948 <dl_iterate_phdr+0x9c>)
    38cc:	447b      	add	r3, pc
    38ce:	4478      	add	r0, pc
    38d0:	9300      	str	r3, [sp, #0]
    38d2:	2301      	movs	r3, #1
    38d4:	461a      	mov	r2, r3
    38d6:	3010      	adds	r0, #16
    38d8:	f7fc fe48 	bl	56c <trace_printf>
/home/aom1/Work/Linux/target/STM32MP1-DK2/bootloader/optee-os-custom/lib/libutee/arch/arm/tcb.c:193
    38dc:	f7fe fe2c 	bl	2538 <abort>
/home/aom1/Work/Linux/target/STM32MP1-DK2/bootloader/optee-os-custom/lib/libutee/arch/arm/tcb.c:197
    38e0:	f8d8 1008 	ldr.w	r1, [r8, #8]
    38e4:	2228      	movs	r2, #40	; 0x28
    38e6:	4620      	mov	r0, r4
    38e8:	fb09 110b 	mla	r1, r9, fp, r1
    38ec:	f003 fa26 	bl	6d3c <memcpy>
/home/aom1/Work/Linux/target/STM32MP1-DK2/bootloader/optee-os-custom/lib/libutee/arch/arm/tcb.c:198
    38f0:	2300      	movs	r3, #0
    38f2:	6263      	str	r3, [r4, #36]	; 0x24
/home/aom1/Work/Linux/target/STM32MP1-DK2/bootloader/optee-os-custom/lib/libutee/arch/arm/tcb.c:199
    38f4:	6a23      	ldr	r3, [r4, #32]
/home/aom1/Work/Linux/target/STM32MP1-DK2/bootloader/optee-os-custom/lib/libutee/arch/arm/tcb.c:200
    38f6:	b12b      	cbz	r3, 3904 <dl_iterate_phdr+0x58>
/home/aom1/Work/Linux/target/STM32MP1-DK2/bootloader/optee-os-custom/lib/libutee/arch/arm/tcb.c:201
    38f8:	f8da 2004 	ldr.w	r2, [sl, #4]
    38fc:	6812      	ldr	r2, [r2, #0]
    38fe:	f852 3023 	ldr.w	r3, [r2, r3, lsl #2]
    3902:	6263      	str	r3, [r4, #36]	; 0x24
/home/aom1/Work/Linux/target/STM32MP1-DK2/bootloader/optee-os-custom/lib/libutee/arch/arm/tcb.c:202 (discriminator 2)
    3904:	463a      	mov	r2, r7
    3906:	2128      	movs	r1, #40	; 0x28
    3908:	4620      	mov	r0, r4
/home/aom1/Work/Linux/target/STM32MP1-DK2/bootloader/optee-os-custom/lib/libutee/arch/arm/tcb.c:196 (discriminator 2)
    390a:	f10b 0b01 	add.w	fp, fp, #1
/home/aom1/Work/Linux/target/STM32MP1-DK2/bootloader/optee-os-custom/lib/libutee/arch/arm/tcb.c:202 (discriminator 2)
    390e:	47b0      	blx	r6
    3910:	4605      	mov	r5, r0
/home/aom1/Work/Linux/target/STM32MP1-DK2/bootloader/optee-os-custom/lib/libutee/arch/arm/tcb.c:196 (discriminator 1)
    3912:	f8b8 3004 	ldrh.w	r3, [r8, #4]
    3916:	455b      	cmp	r3, fp
    3918:	d8e2      	bhi.n	38e0 <dl_iterate_phdr+0x34>
/home/aom1/Work/Linux/target/STM32MP1-DK2/bootloader/optee-os-custom/lib/libutee/arch/arm/tcb.c:205
    391a:	4620      	mov	r0, r4
    391c:	f003 f944 	bl	6ba8 <free>
/home/aom1/Work/Linux/target/STM32MP1-DK2/bootloader/optee-os-custom/lib/libutee/arch/arm/tcb.c:207
    3920:	4628      	mov	r0, r5
    3922:	b003      	add	sp, #12
    3924:	e8bd 8ff0 	ldmia.w	sp!, {r4, r5, r6, r7, r8, r9, sl, fp, pc}
/home/aom1/Work/Linux/target/STM32MP1-DK2/bootloader/optee-os-custom/lib/libutee/arch/arm/tcb.c:196
    3928:	4b08      	ldr	r3, [pc, #32]	; (394c <dl_iterate_phdr+0xa0>)
/home/aom1/Work/Linux/target/STM32MP1-DK2/bootloader/optee-os-custom/lib/libutee/arch/arm/tcb.c:181
    392a:	2500      	movs	r5, #0
/home/aom1/Work/Linux/target/STM32MP1-DK2/bootloader/optee-os-custom/lib/libutee/arch/arm/tcb.c:201
    392c:	f8df a020 	ldr.w	sl, [pc, #32]	; 3950 <dl_iterate_phdr+0xa4>
/home/aom1/Work/Linux/target/STM32MP1-DK2/bootloader/optee-os-custom/lib/libutee/arch/arm/tcb.c:196
    3930:	46ab      	mov	fp, r5
    3932:	f858 8003 	ldr.w	r8, [r8, r3]
/home/aom1/Work/Linux/target/STM32MP1-DK2/bootloader/optee-os-custom/lib/libutee/arch/arm/tcb.c:197
    3936:	f04f 0928 	mov.w	r9, #40	; 0x28
/home/aom1/Work/Linux/target/STM32MP1-DK2/bootloader/optee-os-custom/lib/libutee/arch/arm/tcb.c:201
    393a:	44fa      	add	sl, pc
    393c:	e7e9      	b.n	3912 <dl_iterate_phdr+0x66>
    393e:	bf00      	nop
    3940:	000057c8 	.word	0x000057c8
    3944:	000040e2 	.word	0x000040e2
    3948:	000040ff 	.word	0x000040ff
    394c:	00000034 	.word	0x00000034
    3950:	00008992 	.word	0x00008992

00003954 <_assert_log>:
_assert_log():
/home/aom1/Work/Linux/target/STM32MP1-DK2/bootloader/optee-os-custom/lib/libutee/assert.c:17
    3954:	b57f      	push	{r0, r1, r2, r3, r4, r5, r6, lr}
/home/aom1/Work/Linux/target/STM32MP1-DK2/bootloader/optee-os-custom/lib/libutee/assert.c:18
    3956:	9304      	str	r3, [sp, #16]
    3958:	4b07      	ldr	r3, [pc, #28]	; (3978 <_assert_log+0x24>)
    395a:	9102      	str	r1, [sp, #8]
    395c:	2100      	movs	r1, #0
    395e:	447b      	add	r3, pc
    3960:	9300      	str	r3, [sp, #0]
    3962:	2301      	movs	r3, #1
    3964:	9203      	str	r2, [sp, #12]
    3966:	461a      	mov	r2, r3
    3968:	9001      	str	r0, [sp, #4]
    396a:	4608      	mov	r0, r1
    396c:	f7fc fdfe 	bl	56c <trace_printf>
/home/aom1/Work/Linux/target/STM32MP1-DK2/bootloader/optee-os-custom/lib/libutee/assert.c:20
    3970:	b007      	add	sp, #28
    3972:	f85d fb04 	ldr.w	pc, [sp], #4
    3976:	bf00      	nop
    3978:	0000408f 	.word	0x0000408f

0000397c <_assert_break>:
_assert_break():
/home/aom1/Work/Linux/target/STM32MP1-DK2/bootloader/optee-os-custom/lib/libutee/assert.c:24
    397c:	4802      	ldr	r0, [pc, #8]	; (3988 <_assert_break+0xc>)
/home/aom1/Work/Linux/target/STM32MP1-DK2/bootloader/optee-os-custom/lib/libutee/assert.c:23
    397e:	b508      	push	{r3, lr}
/home/aom1/Work/Linux/target/STM32MP1-DK2/bootloader/optee-os-custom/lib/libutee/assert.c:24
    3980:	f7fe e944 	blx	1c0c <_utee_panic>
/home/aom1/Work/Linux/target/STM32MP1-DK2/bootloader/optee-os-custom/lib/libutee/assert.c:26 (discriminator 1)
    3984:	e7fe      	b.n	3984 <_assert_break+0x8>
    3986:	bf00      	nop
    3988:	ffff0000 	.word	0xffff0000

0000398c <mpi_safe_cond_assign>:
mpi_safe_cond_assign():
/home/aom1/Work/Linux/target/STM32MP1-DK2/bootloader/optee-os-custom/lib/libmbedtls/mbedtls/library/bignum.c:358
    398c:	b5f0      	push	{r4, r5, r6, r7, lr}
    398e:	3904      	subs	r1, #4
/home/aom1/Work/Linux/target/STM32MP1-DK2/bootloader/optee-os-custom/lib/libmbedtls/mbedtls/library/bignum.c:369
    3990:	425f      	negs	r7, r3
/home/aom1/Work/Linux/target/STM32MP1-DK2/bootloader/optee-os-custom/lib/libmbedtls/mbedtls/library/bignum.c:375
    3992:	2500      	movs	r5, #0
/home/aom1/Work/Linux/target/STM32MP1-DK2/bootloader/optee-os-custom/lib/libmbedtls/mbedtls/library/bignum.c:376
    3994:	3b01      	subs	r3, #1
/home/aom1/Work/Linux/target/STM32MP1-DK2/bootloader/optee-os-custom/lib/libmbedtls/mbedtls/library/bignum.c:375 (discriminator 1)
    3996:	4285      	cmp	r5, r0
    3998:	d100      	bne.n	399c <mpi_safe_cond_assign+0x10>
/home/aom1/Work/Linux/target/STM32MP1-DK2/bootloader/optee-os-custom/lib/libmbedtls/mbedtls/library/bignum.c:377
    399a:	bdf0      	pop	{r4, r5, r6, r7, pc}
/home/aom1/Work/Linux/target/STM32MP1-DK2/bootloader/optee-os-custom/lib/libmbedtls/mbedtls/library/bignum.c:376 (discriminator 3)
    399c:	f852 6025 	ldr.w	r6, [r2, r5, lsl #2]
/home/aom1/Work/Linux/target/STM32MP1-DK2/bootloader/optee-os-custom/lib/libmbedtls/mbedtls/library/bignum.c:375 (discriminator 3)
    39a0:	3501      	adds	r5, #1
/home/aom1/Work/Linux/target/STM32MP1-DK2/bootloader/optee-os-custom/lib/libmbedtls/mbedtls/library/bignum.c:376 (discriminator 3)
    39a2:	f851 4f04 	ldr.w	r4, [r1, #4]!
    39a6:	403e      	ands	r6, r7
    39a8:	401c      	ands	r4, r3
    39aa:	4334      	orrs	r4, r6
    39ac:	600c      	str	r4, [r1, #0]
/home/aom1/Work/Linux/target/STM32MP1-DK2/bootloader/optee-os-custom/lib/libmbedtls/mbedtls/library/bignum.c:375 (discriminator 3)
    39ae:	e7f2      	b.n	3996 <mpi_safe_cond_assign+0xa>

000039b0 <mpi_get_digit>:
mpi_get_digit():
/home/aom1/Work/Linux/target/STM32MP1-DK2/bootloader/optee-os-custom/lib/libmbedtls/mbedtls/library/bignum.c:607
    39b0:	f1a2 0330 	sub.w	r3, r2, #48	; 0x30
/home/aom1/Work/Linux/target/STM32MP1-DK2/bootloader/optee-os-custom/lib/libmbedtls/mbedtls/library/bignum.c:604
    39b4:	b510      	push	{r4, lr}
/home/aom1/Work/Linux/target/STM32MP1-DK2/bootloader/optee-os-custom/lib/libmbedtls/mbedtls/library/bignum.c:607
    39b6:	b2dc      	uxtb	r4, r3
    39b8:	2c09      	cmp	r4, #9
    39ba:	d807      	bhi.n	39cc <mpi_get_digit+0x1c>
/home/aom1/Work/Linux/target/STM32MP1-DK2/bootloader/optee-os-custom/lib/libmbedtls/mbedtls/library/bignum.c:607 (discriminator 1)
    39bc:	6003      	str	r3, [r0, #0]
/home/aom1/Work/Linux/target/STM32MP1-DK2/bootloader/optee-os-custom/lib/libmbedtls/mbedtls/library/bignum.c:611
    39be:	6803      	ldr	r3, [r0, #0]
/home/aom1/Work/Linux/target/STM32MP1-DK2/bootloader/optee-os-custom/lib/libmbedtls/mbedtls/library/bignum.c:612
    39c0:	428b      	cmp	r3, r1
/home/aom1/Work/Linux/target/STM32MP1-DK2/bootloader/optee-os-custom/lib/libmbedtls/mbedtls/library/bignum.c:615
    39c2:	bf2c      	ite	cs
    39c4:	f06f 0005 	mvncs.w	r0, #5
    39c8:	2000      	movcc	r0, #0
    39ca:	bd10      	pop	{r4, pc}
/home/aom1/Work/Linux/target/STM32MP1-DK2/bootloader/optee-os-custom/lib/libmbedtls/mbedtls/library/bignum.c:608
    39cc:	f1a2 0341 	sub.w	r3, r2, #65	; 0x41
    39d0:	2b05      	cmp	r3, #5
    39d2:	d802      	bhi.n	39da <mpi_get_digit+0x2a>
/home/aom1/Work/Linux/target/STM32MP1-DK2/bootloader/optee-os-custom/lib/libmbedtls/mbedtls/library/bignum.c:608 (discriminator 1)
    39d4:	3a37      	subs	r2, #55	; 0x37
/home/aom1/Work/Linux/target/STM32MP1-DK2/bootloader/optee-os-custom/lib/libmbedtls/mbedtls/library/bignum.c:609 (discriminator 1)
    39d6:	6002      	str	r2, [r0, #0]
    39d8:	e7f1      	b.n	39be <mpi_get_digit+0xe>
/home/aom1/Work/Linux/target/STM32MP1-DK2/bootloader/optee-os-custom/lib/libmbedtls/mbedtls/library/bignum.c:605
    39da:	23ff      	movs	r3, #255	; 0xff
    39dc:	6003      	str	r3, [r0, #0]
/home/aom1/Work/Linux/target/STM32MP1-DK2/bootloader/optee-os-custom/lib/libmbedtls/mbedtls/library/bignum.c:609
    39de:	f1a2 0361 	sub.w	r3, r2, #97	; 0x61
    39e2:	2b05      	cmp	r3, #5
    39e4:	d8eb      	bhi.n	39be <mpi_get_digit+0xe>
/home/aom1/Work/Linux/target/STM32MP1-DK2/bootloader/optee-os-custom/lib/libmbedtls/mbedtls/library/bignum.c:609 (discriminator 1)
    39e6:	3a57      	subs	r2, #87	; 0x57
    39e8:	e7f5      	b.n	39d6 <mpi_get_digit+0x26>

000039ea <mpi_mul_hlp>:
mpi_mul_hlp():
/home/aom1/Work/Linux/target/STM32MP1-DK2/bootloader/optee-os-custom/lib/libmbedtls/mbedtls/library/bignum.c:1696
    39ea:	b5f0      	push	{r4, r5, r6, r7, lr}
/home/aom1/Work/Linux/target/STM32MP1-DK2/bootloader/optee-os-custom/lib/libmbedtls/mbedtls/library/bignum.c:1714
    39ec:	4684      	mov	ip, r0
/home/aom1/Work/Linux/target/STM32MP1-DK2/bootloader/optee-os-custom/lib/libmbedtls/mbedtls/library/bignum.c:1696
    39ee:	4617      	mov	r7, r2
    39f0:	460e      	mov	r6, r1
    39f2:	4614      	mov	r4, r2
/home/aom1/Work/Linux/target/STM32MP1-DK2/bootloader/optee-os-custom/lib/libmbedtls/mbedtls/library/bignum.c:1697
    39f4:	2500      	movs	r5, #0
/home/aom1/Work/Linux/target/STM32MP1-DK2/bootloader/optee-os-custom/lib/libmbedtls/mbedtls/library/bignum.c:1714 (discriminator 1)
    39f6:	f1bc 0f0f 	cmp.w	ip, #15
    39fa:	f106 0640 	add.w	r6, r6, #64	; 0x40
    39fe:	f104 0440 	add.w	r4, r4, #64	; 0x40
    3a02:	f200 808d 	bhi.w	3b20 <mpi_mul_hlp+0x136>
    3a06:	0904      	lsrs	r4, r0, #4
    3a08:	f06f 020f 	mvn.w	r2, #15
    3a0c:	fb02 0004 	mla	r0, r2, r4, r0
    3a10:	ea4f 1c84 	mov.w	ip, r4, lsl #6
    3a14:	eb01 1684 	add.w	r6, r1, r4, lsl #6
/home/aom1/Work/Linux/target/STM32MP1-DK2/bootloader/optee-os-custom/lib/libmbedtls/mbedtls/library/bignum.c:1729
    3a18:	2807      	cmp	r0, #7
    3a1a:	eb07 1484 	add.w	r4, r7, r4, lsl #6
    3a1e:	d972      	bls.n	3b06 <mpi_mul_hlp+0x11c>
/home/aom1/Work/Linux/target/STM32MP1-DK2/bootloader/optee-os-custom/lib/libmbedtls/mbedtls/library/bignum.c:1732
    3a20:	f851 100c 	ldr.w	r1, [r1, ip]
/home/aom1/Work/Linux/target/STM32MP1-DK2/bootloader/optee-os-custom/lib/libmbedtls/mbedtls/library/bignum.c:1729
    3a24:	3808      	subs	r0, #8
/home/aom1/Work/Linux/target/STM32MP1-DK2/bootloader/optee-os-custom/lib/libmbedtls/mbedtls/library/bignum.c:1736
    3a26:	3420      	adds	r4, #32
    3a28:	3620      	adds	r6, #32
/home/aom1/Work/Linux/target/STM32MP1-DK2/bootloader/optee-os-custom/lib/libmbedtls/mbedtls/library/bignum.c:1732
    3a2a:	fba3 1201 	umull	r1, r2, r3, r1
    3a2e:	1869      	adds	r1, r5, r1
    3a30:	f857 500c 	ldr.w	r5, [r7, ip]
    3a34:	f142 0200 	adc.w	r2, r2, #0
    3a38:	1949      	adds	r1, r1, r5
    3a3a:	f847 100c 	str.w	r1, [r7, ip]
    3a3e:	f856 1c1c 	ldr.w	r1, [r6, #-28]
    3a42:	f142 0200 	adc.w	r2, r2, #0
    3a46:	fba3 5101 	umull	r5, r1, r3, r1
    3a4a:	1952      	adds	r2, r2, r5
    3a4c:	f854 5c1c 	ldr.w	r5, [r4, #-28]
    3a50:	f141 0100 	adc.w	r1, r1, #0
    3a54:	1952      	adds	r2, r2, r5
    3a56:	f844 2c1c 	str.w	r2, [r4, #-28]
/home/aom1/Work/Linux/target/STM32MP1-DK2/bootloader/optee-os-custom/lib/libmbedtls/mbedtls/library/bignum.c:1733
    3a5a:	f856 2c18 	ldr.w	r2, [r6, #-24]
/home/aom1/Work/Linux/target/STM32MP1-DK2/bootloader/optee-os-custom/lib/libmbedtls/mbedtls/library/bignum.c:1732
    3a5e:	f141 0100 	adc.w	r1, r1, #0
/home/aom1/Work/Linux/target/STM32MP1-DK2/bootloader/optee-os-custom/lib/libmbedtls/mbedtls/library/bignum.c:1733
    3a62:	fba3 5202 	umull	r5, r2, r3, r2
    3a66:	1949      	adds	r1, r1, r5
    3a68:	f854 5c18 	ldr.w	r5, [r4, #-24]
    3a6c:	f142 0200 	adc.w	r2, r2, #0
    3a70:	1949      	adds	r1, r1, r5
    3a72:	f844 1c18 	str.w	r1, [r4, #-24]
    3a76:	f856 1c14 	ldr.w	r1, [r6, #-20]
    3a7a:	f142 0200 	adc.w	r2, r2, #0
    3a7e:	fba3 5101 	umull	r5, r1, r3, r1
    3a82:	1952      	adds	r2, r2, r5
    3a84:	f854 5c14 	ldr.w	r5, [r4, #-20]
    3a88:	f141 0100 	adc.w	r1, r1, #0
    3a8c:	1952      	adds	r2, r2, r5
    3a8e:	f844 2c14 	str.w	r2, [r4, #-20]
/home/aom1/Work/Linux/target/STM32MP1-DK2/bootloader/optee-os-custom/lib/libmbedtls/mbedtls/library/bignum.c:1735
    3a92:	f856 2c10 	ldr.w	r2, [r6, #-16]
/home/aom1/Work/Linux/target/STM32MP1-DK2/bootloader/optee-os-custom/lib/libmbedtls/mbedtls/library/bignum.c:1733
    3a96:	f141 0100 	adc.w	r1, r1, #0
/home/aom1/Work/Linux/target/STM32MP1-DK2/bootloader/optee-os-custom/lib/libmbedtls/mbedtls/library/bignum.c:1735
    3a9a:	fba3 5202 	umull	r5, r2, r3, r2
    3a9e:	1949      	adds	r1, r1, r5
    3aa0:	f854 5c10 	ldr.w	r5, [r4, #-16]
    3aa4:	f142 0200 	adc.w	r2, r2, #0
    3aa8:	1949      	adds	r1, r1, r5
    3aaa:	f844 1c10 	str.w	r1, [r4, #-16]
    3aae:	f856 1c0c 	ldr.w	r1, [r6, #-12]
    3ab2:	f142 0200 	adc.w	r2, r2, #0
    3ab6:	fba3 5101 	umull	r5, r1, r3, r1
    3aba:	1952      	adds	r2, r2, r5
    3abc:	f854 5c0c 	ldr.w	r5, [r4, #-12]
    3ac0:	f141 0100 	adc.w	r1, r1, #0
    3ac4:	1952      	adds	r2, r2, r5
    3ac6:	f844 2c0c 	str.w	r2, [r4, #-12]
/home/aom1/Work/Linux/target/STM32MP1-DK2/bootloader/optee-os-custom/lib/libmbedtls/mbedtls/library/bignum.c:1736
    3aca:	f856 2c08 	ldr.w	r2, [r6, #-8]
/home/aom1/Work/Linux/target/STM32MP1-DK2/bootloader/optee-os-custom/lib/libmbedtls/mbedtls/library/bignum.c:1735
    3ace:	f141 0100 	adc.w	r1, r1, #0
/home/aom1/Work/Linux/target/STM32MP1-DK2/bootloader/optee-os-custom/lib/libmbedtls/mbedtls/library/bignum.c:1736
    3ad2:	fba3 5202 	umull	r5, r2, r3, r2
    3ad6:	1949      	adds	r1, r1, r5
    3ad8:	f854 5c08 	ldr.w	r5, [r4, #-8]
    3adc:	f142 0200 	adc.w	r2, r2, #0
    3ae0:	1949      	adds	r1, r1, r5
    3ae2:	f844 1c08 	str.w	r1, [r4, #-8]
    3ae6:	f856 1c04 	ldr.w	r1, [r6, #-4]
    3aea:	f142 0200 	adc.w	r2, r2, #0
    3aee:	fba3 1501 	umull	r1, r5, r3, r1
    3af2:	1852      	adds	r2, r2, r1
    3af4:	f854 1c04 	ldr.w	r1, [r4, #-4]
    3af8:	f145 0500 	adc.w	r5, r5, #0
    3afc:	1852      	adds	r2, r2, r1
    3afe:	f145 0500 	adc.w	r5, r5, #0
    3b02:	f844 2c04 	str.w	r2, [r4, #-4]
/home/aom1/Work/Linux/target/STM32MP1-DK2/bootloader/optee-os-custom/lib/libmbedtls/mbedtls/library/bignum.c:1729
    3b06:	ea4f 0c80 	mov.w	ip, r0, lsl #2
/home/aom1/Work/Linux/target/STM32MP1-DK2/bootloader/optee-os-custom/lib/libmbedtls/mbedtls/library/bignum.c:1736 (discriminator 1)
    3b0a:	4627      	mov	r7, r4
    3b0c:	eb06 0080 	add.w	r0, r6, r0, lsl #2
/home/aom1/Work/Linux/target/STM32MP1-DK2/bootloader/optee-os-custom/lib/libmbedtls/mbedtls/library/bignum.c:1740 (discriminator 1)
    3b10:	42b0      	cmp	r0, r6
    3b12:	f040 8106 	bne.w	3d22 <mpi_mul_hlp+0x338>
    3b16:	4464      	add	r4, ip
/home/aom1/Work/Linux/target/STM32MP1-DK2/bootloader/optee-os-custom/lib/libmbedtls/mbedtls/library/bignum.c:1750
    3b18:	2d00      	cmp	r5, #0
    3b1a:	f040 8110 	bne.w	3d3e <mpi_mul_hlp+0x354>
/home/aom1/Work/Linux/target/STM32MP1-DK2/bootloader/optee-os-custom/lib/libmbedtls/mbedtls/library/bignum.c:1754
    3b1e:	bdf0      	pop	{r4, r5, r6, r7, pc}
/home/aom1/Work/Linux/target/STM32MP1-DK2/bootloader/optee-os-custom/lib/libmbedtls/mbedtls/library/bignum.c:1717 (discriminator 2)
    3b20:	f856 2c40 	ldr.w	r2, [r6, #-64]
/home/aom1/Work/Linux/target/STM32MP1-DK2/bootloader/optee-os-custom/lib/libmbedtls/mbedtls/library/bignum.c:1714 (discriminator 2)
    3b24:	f1ac 0c10 	sub.w	ip, ip, #16
/home/aom1/Work/Linux/target/STM32MP1-DK2/bootloader/optee-os-custom/lib/libmbedtls/mbedtls/library/bignum.c:1717 (discriminator 2)
    3b28:	fba3 e202 	umull	lr, r2, r3, r2
    3b2c:	eb15 0e0e 	adds.w	lr, r5, lr
    3b30:	f854 5c40 	ldr.w	r5, [r4, #-64]
    3b34:	f142 0200 	adc.w	r2, r2, #0
    3b38:	eb15 050e 	adds.w	r5, r5, lr
    3b3c:	f844 5c40 	str.w	r5, [r4, #-64]
    3b40:	f856 5c3c 	ldr.w	r5, [r6, #-60]
    3b44:	f142 0200 	adc.w	r2, r2, #0
    3b48:	fba3 e505 	umull	lr, r5, r3, r5
    3b4c:	eb12 0e0e 	adds.w	lr, r2, lr
    3b50:	f854 2c3c 	ldr.w	r2, [r4, #-60]
    3b54:	f145 0500 	adc.w	r5, r5, #0
    3b58:	eb12 020e 	adds.w	r2, r2, lr
    3b5c:	f844 2c3c 	str.w	r2, [r4, #-60]
/home/aom1/Work/Linux/target/STM32MP1-DK2/bootloader/optee-os-custom/lib/libmbedtls/mbedtls/library/bignum.c:1718 (discriminator 2)
    3b60:	f856 2c38 	ldr.w	r2, [r6, #-56]
/home/aom1/Work/Linux/target/STM32MP1-DK2/bootloader/optee-os-custom/lib/libmbedtls/mbedtls/library/bignum.c:1717 (discriminator 2)
    3b64:	f145 0500 	adc.w	r5, r5, #0
/home/aom1/Work/Linux/target/STM32MP1-DK2/bootloader/optee-os-custom/lib/libmbedtls/mbedtls/library/bignum.c:1718 (discriminator 2)
    3b68:	fba3 e202 	umull	lr, r2, r3, r2
    3b6c:	eb15 0e0e 	adds.w	lr, r5, lr
    3b70:	f854 5c38 	ldr.w	r5, [r4, #-56]
    3b74:	f142 0200 	adc.w	r2, r2, #0
    3b78:	eb15 050e 	adds.w	r5, r5, lr
    3b7c:	f844 5c38 	str.w	r5, [r4, #-56]
    3b80:	f856 5c34 	ldr.w	r5, [r6, #-52]
    3b84:	f142 0200 	adc.w	r2, r2, #0
    3b88:	fba3 e505 	umull	lr, r5, r3, r5
    3b8c:	eb12 0e0e 	adds.w	lr, r2, lr
    3b90:	f854 2c34 	ldr.w	r2, [r4, #-52]
    3b94:	f145 0500 	adc.w	r5, r5, #0
    3b98:	eb12 020e 	adds.w	r2, r2, lr
    3b9c:	f844 2c34 	str.w	r2, [r4, #-52]
/home/aom1/Work/Linux/target/STM32MP1-DK2/bootloader/optee-os-custom/lib/libmbedtls/mbedtls/library/bignum.c:1719 (discriminator 2)
    3ba0:	f856 2c30 	ldr.w	r2, [r6, #-48]
/home/aom1/Work/Linux/target/STM32MP1-DK2/bootloader/optee-os-custom/lib/libmbedtls/mbedtls/library/bignum.c:1718 (discriminator 2)
    3ba4:	f145 0500 	adc.w	r5, r5, #0
/home/aom1/Work/Linux/target/STM32MP1-DK2/bootloader/optee-os-custom/lib/libmbedtls/mbedtls/library/bignum.c:1719 (discriminator 2)
    3ba8:	fba3 e202 	umull	lr, r2, r3, r2
    3bac:	eb15 0e0e 	adds.w	lr, r5, lr
    3bb0:	f854 5c30 	ldr.w	r5, [r4, #-48]
    3bb4:	f142 0200 	adc.w	r2, r2, #0
    3bb8:	eb15 050e 	adds.w	r5, r5, lr
    3bbc:	f844 5c30 	str.w	r5, [r4, #-48]
    3bc0:	f856 5c2c 	ldr.w	r5, [r6, #-44]
    3bc4:	f142 0200 	adc.w	r2, r2, #0
    3bc8:	fba3 e505 	umull	lr, r5, r3, r5
    3bcc:	eb12 0e0e 	adds.w	lr, r2, lr
    3bd0:	f854 2c2c 	ldr.w	r2, [r4, #-44]
    3bd4:	f145 0500 	adc.w	r5, r5, #0
    3bd8:	eb12 020e 	adds.w	r2, r2, lr
    3bdc:	f844 2c2c 	str.w	r2, [r4, #-44]
/home/aom1/Work/Linux/target/STM32MP1-DK2/bootloader/optee-os-custom/lib/libmbedtls/mbedtls/library/bignum.c:1720 (discriminator 2)
    3be0:	f856 2c28 	ldr.w	r2, [r6, #-40]
/home/aom1/Work/Linux/target/STM32MP1-DK2/bootloader/optee-os-custom/lib/libmbedtls/mbedtls/library/bignum.c:1719 (discriminator 2)
    3be4:	f145 0500 	adc.w	r5, r5, #0
/home/aom1/Work/Linux/target/STM32MP1-DK2/bootloader/optee-os-custom/lib/libmbedtls/mbedtls/library/bignum.c:1720 (discriminator 2)
    3be8:	fba3 e202 	umull	lr, r2, r3, r2
    3bec:	eb15 0e0e 	adds.w	lr, r5, lr
    3bf0:	f854 5c28 	ldr.w	r5, [r4, #-40]
    3bf4:	f142 0200 	adc.w	r2, r2, #0
    3bf8:	eb15 050e 	adds.w	r5, r5, lr
    3bfc:	f844 5c28 	str.w	r5, [r4, #-40]
    3c00:	f856 5c24 	ldr.w	r5, [r6, #-36]
    3c04:	f142 0200 	adc.w	r2, r2, #0
    3c08:	fba3 e505 	umull	lr, r5, r3, r5
    3c0c:	eb12 0e0e 	adds.w	lr, r2, lr
    3c10:	f854 2c24 	ldr.w	r2, [r4, #-36]
    3c14:	f145 0500 	adc.w	r5, r5, #0
    3c18:	eb12 020e 	adds.w	r2, r2, lr
    3c1c:	f844 2c24 	str.w	r2, [r4, #-36]
/home/aom1/Work/Linux/target/STM32MP1-DK2/bootloader/optee-os-custom/lib/libmbedtls/mbedtls/library/bignum.c:1722 (discriminator 2)
    3c20:	f856 2c20 	ldr.w	r2, [r6, #-32]
/home/aom1/Work/Linux/target/STM32MP1-DK2/bootloader/optee-os-custom/lib/libmbedtls/mbedtls/library/bignum.c:1720 (discriminator 2)
    3c24:	f145 0500 	adc.w	r5, r5, #0
/home/aom1/Work/Linux/target/STM32MP1-DK2/bootloader/optee-os-custom/lib/libmbedtls/mbedtls/library/bignum.c:1722 (discriminator 2)
    3c28:	fba3 e202 	umull	lr, r2, r3, r2
    3c2c:	eb15 0e0e 	adds.w	lr, r5, lr
    3c30:	f854 5c20 	ldr.w	r5, [r4, #-32]
    3c34:	f142 0200 	adc.w	r2, r2, #0
    3c38:	eb15 050e 	adds.w	r5, r5, lr
    3c3c:	f844 5c20 	str.w	r5, [r4, #-32]
    3c40:	f856 5c1c 	ldr.w	r5, [r6, #-28]
    3c44:	f142 0200 	adc.w	r2, r2, #0
    3c48:	fba3 e505 	umull	lr, r5, r3, r5
    3c4c:	eb12 0e0e 	adds.w	lr, r2, lr
    3c50:	f854 2c1c 	ldr.w	r2, [r4, #-28]
    3c54:	f145 0500 	adc.w	r5, r5, #0
    3c58:	eb12 020e 	adds.w	r2, r2, lr
    3c5c:	f844 2c1c 	str.w	r2, [r4, #-28]
/home/aom1/Work/Linux/target/STM32MP1-DK2/bootloader/optee-os-custom/lib/libmbedtls/mbedtls/library/bignum.c:1723 (discriminator 2)
    3c60:	f856 2c18 	ldr.w	r2, [r6, #-24]
/home/aom1/Work/Linux/target/STM32MP1-DK2/bootloader/optee-os-custom/lib/libmbedtls/mbedtls/library/bignum.c:1722 (discriminator 2)
    3c64:	f145 0500 	adc.w	r5, r5, #0
/home/aom1/Work/Linux/target/STM32MP1-DK2/bootloader/optee-os-custom/lib/libmbedtls/mbedtls/library/bignum.c:1723 (discriminator 2)
    3c68:	fba3 e202 	umull	lr, r2, r3, r2
    3c6c:	eb15 0e0e 	adds.w	lr, r5, lr
    3c70:	f854 5c18 	ldr.w	r5, [r4, #-24]
    3c74:	f142 0200 	adc.w	r2, r2, #0
    3c78:	eb15 050e 	adds.w	r5, r5, lr
    3c7c:	f844 5c18 	str.w	r5, [r4, #-24]
    3c80:	f856 5c14 	ldr.w	r5, [r6, #-20]
    3c84:	f142 0200 	adc.w	r2, r2, #0
    3c88:	fba3 e505 	umull	lr, r5, r3, r5
    3c8c:	eb12 0e0e 	adds.w	lr, r2, lr
    3c90:	f854 2c14 	ldr.w	r2, [r4, #-20]
    3c94:	f145 0500 	adc.w	r5, r5, #0
    3c98:	eb12 020e 	adds.w	r2, r2, lr
    3c9c:	f844 2c14 	str.w	r2, [r4, #-20]
/home/aom1/Work/Linux/target/STM32MP1-DK2/bootloader/optee-os-custom/lib/libmbedtls/mbedtls/library/bignum.c:1724 (discriminator 2)
    3ca0:	f856 2c10 	ldr.w	r2, [r6, #-16]
/home/aom1/Work/Linux/target/STM32MP1-DK2/bootloader/optee-os-custom/lib/libmbedtls/mbedtls/library/bignum.c:1723 (discriminator 2)
    3ca4:	f145 0500 	adc.w	r5, r5, #0
/home/aom1/Work/Linux/target/STM32MP1-DK2/bootloader/optee-os-custom/lib/libmbedtls/mbedtls/library/bignum.c:1724 (discriminator 2)
    3ca8:	fba3 e202 	umull	lr, r2, r3, r2
    3cac:	eb15 0e0e 	adds.w	lr, r5, lr
    3cb0:	f854 5c10 	ldr.w	r5, [r4, #-16]
    3cb4:	f142 0200 	adc.w	r2, r2, #0
    3cb8:	eb15 050e 	adds.w	r5, r5, lr
    3cbc:	f844 5c10 	str.w	r5, [r4, #-16]
    3cc0:	f856 5c0c 	ldr.w	r5, [r6, #-12]
    3cc4:	f142 0200 	adc.w	r2, r2, #0
    3cc8:	fba3 e505 	umull	lr, r5, r3, r5
    3ccc:	eb12 0e0e 	adds.w	lr, r2, lr
    3cd0:	f854 2c0c 	ldr.w	r2, [r4, #-12]
    3cd4:	f145 0500 	adc.w	r5, r5, #0
    3cd8:	eb12 020e 	adds.w	r2, r2, lr
    3cdc:	f844 2c0c 	str.w	r2, [r4, #-12]
/home/aom1/Work/Linux/target/STM32MP1-DK2/bootloader/optee-os-custom/lib/libmbedtls/mbedtls/library/bignum.c:1725 (discriminator 2)
    3ce0:	f856 2c08 	ldr.w	r2, [r6, #-8]
/home/aom1/Work/Linux/target/STM32MP1-DK2/bootloader/optee-os-custom/lib/libmbedtls/mbedtls/library/bignum.c:1724 (discriminator 2)
    3ce4:	f145 0500 	adc.w	r5, r5, #0
/home/aom1/Work/Linux/target/STM32MP1-DK2/bootloader/optee-os-custom/lib/libmbedtls/mbedtls/library/bignum.c:1725 (discriminator 2)
    3ce8:	fba3 e202 	umull	lr, r2, r3, r2
    3cec:	eb15 0e0e 	adds.w	lr, r5, lr
    3cf0:	f854 5c08 	ldr.w	r5, [r4, #-8]
    3cf4:	f142 0200 	adc.w	r2, r2, #0
    3cf8:	eb15 050e 	adds.w	r5, r5, lr
    3cfc:	f844 5c08 	str.w	r5, [r4, #-8]
    3d00:	f856 5c04 	ldr.w	r5, [r6, #-4]
    3d04:	f142 0200 	adc.w	r2, r2, #0
    3d08:	fba3 5e05 	umull	r5, lr, r3, r5
    3d0c:	1952      	adds	r2, r2, r5
    3d0e:	f854 5c04 	ldr.w	r5, [r4, #-4]
    3d12:	f14e 0e00 	adc.w	lr, lr, #0
    3d16:	18aa      	adds	r2, r5, r2
    3d18:	f14e 0500 	adc.w	r5, lr, #0
    3d1c:	f844 2c04 	str.w	r2, [r4, #-4]
/home/aom1/Work/Linux/target/STM32MP1-DK2/bootloader/optee-os-custom/lib/libmbedtls/mbedtls/library/bignum.c:1714 (discriminator 2)
    3d20:	e669      	b.n	39f6 <mpi_mul_hlp+0xc>
/home/aom1/Work/Linux/target/STM32MP1-DK2/bootloader/optee-os-custom/lib/libmbedtls/mbedtls/library/bignum.c:1743 (discriminator 2)
    3d22:	f856 2b04 	ldr.w	r2, [r6], #4
    3d26:	fba3 2102 	umull	r2, r1, r3, r2
    3d2a:	18aa      	adds	r2, r5, r2
    3d2c:	f141 0500 	adc.w	r5, r1, #0
    3d30:	6839      	ldr	r1, [r7, #0]
    3d32:	1889      	adds	r1, r1, r2
    3d34:	f145 0500 	adc.w	r5, r5, #0
    3d38:	f847 1b04 	str.w	r1, [r7], #4
/home/aom1/Work/Linux/target/STM32MP1-DK2/bootloader/optee-os-custom/lib/libmbedtls/mbedtls/library/bignum.c:1740 (discriminator 2)
    3d3c:	e6e8      	b.n	3b10 <mpi_mul_hlp+0x126>
/home/aom1/Work/Linux/target/STM32MP1-DK2/bootloader/optee-os-custom/lib/libmbedtls/mbedtls/library/bignum.c:1752
    3d3e:	6823      	ldr	r3, [r4, #0]
    3d40:	195b      	adds	r3, r3, r5
    3d42:	f844 3b04 	str.w	r3, [r4], #4
    3d46:	bf2c      	ite	cs
    3d48:	2501      	movcs	r5, #1
    3d4a:	2500      	movcc	r5, #0
    3d4c:	e6e4      	b.n	3b18 <mpi_mul_hlp+0x12e>

00003d4e <mpi_montmul>:
mpi_montmul():
/home/aom1/Work/Linux/target/STM32MP1-DK2/bootloader/optee-os-custom/lib/libmbedtls/mbedtls/library/bignum.c:2220
    3d4e:	e92d 4ff0 	stmdb	sp!, {r4, r5, r6, r7, r8, r9, sl, fp, lr}
    3d52:	b085      	sub	sp, #20
    3d54:	4617      	mov	r7, r2
    3d56:	468a      	mov	sl, r1
    3d58:	9c0e      	ldr	r4, [sp, #56]	; 0x38
/home/aom1/Work/Linux/target/STM32MP1-DK2/bootloader/optee-os-custom/lib/libmbedtls/mbedtls/library/bignum.c:2224
    3d5a:	2100      	movs	r1, #0
/home/aom1/Work/Linux/target/STM32MP1-DK2/bootloader/optee-os-custom/lib/libmbedtls/mbedtls/library/bignum.c:2220
    3d5c:	9000      	str	r0, [sp, #0]
/home/aom1/Work/Linux/target/STM32MP1-DK2/bootloader/optee-os-custom/lib/libmbedtls/mbedtls/library/bignum.c:2230
    3d5e:	f04f 0800 	mov.w	r8, #0
/home/aom1/Work/Linux/target/STM32MP1-DK2/bootloader/optee-os-custom/lib/libmbedtls/mbedtls/library/bignum.c:2224
    3d62:	6862      	ldr	r2, [r4, #4]
    3d64:	68a0      	ldr	r0, [r4, #8]
    3d66:	0092      	lsls	r2, r2, #2
/home/aom1/Work/Linux/target/STM32MP1-DK2/bootloader/optee-os-custom/lib/libmbedtls/mbedtls/library/bignum.c:2220
    3d68:	9303      	str	r3, [sp, #12]
/home/aom1/Work/Linux/target/STM32MP1-DK2/bootloader/optee-os-custom/lib/libmbedtls/mbedtls/library/bignum.c:2224
    3d6a:	f003 f8d2 	bl	6f12 <memset>
/home/aom1/Work/Linux/target/STM32MP1-DK2/bootloader/optee-os-custom/lib/libmbedtls/mbedtls/library/bignum.c:2227
    3d6e:	687e      	ldr	r6, [r7, #4]
/home/aom1/Work/Linux/target/STM32MP1-DK2/bootloader/optee-os-custom/lib/libmbedtls/mbedtls/library/bignum.c:2228
    3d70:	f8da 3004 	ldr.w	r3, [sl, #4]
/home/aom1/Work/Linux/target/STM32MP1-DK2/bootloader/optee-os-custom/lib/libmbedtls/mbedtls/library/bignum.c:2226
    3d74:	68a5      	ldr	r5, [r4, #8]
/home/aom1/Work/Linux/target/STM32MP1-DK2/bootloader/optee-os-custom/lib/libmbedtls/mbedtls/library/bignum.c:2241
    3d76:	1c74      	adds	r4, r6, #1
/home/aom1/Work/Linux/target/STM32MP1-DK2/bootloader/optee-os-custom/lib/libmbedtls/mbedtls/library/bignum.c:2228
    3d78:	42b3      	cmp	r3, r6
/home/aom1/Work/Linux/target/STM32MP1-DK2/bootloader/optee-os-custom/lib/libmbedtls/mbedtls/library/bignum.c:2241
    3d7a:	ea4f 0484 	mov.w	r4, r4, lsl #2
/home/aom1/Work/Linux/target/STM32MP1-DK2/bootloader/optee-os-custom/lib/libmbedtls/mbedtls/library/bignum.c:2226
    3d7e:	46a9      	mov	r9, r5
/home/aom1/Work/Linux/target/STM32MP1-DK2/bootloader/optee-os-custom/lib/libmbedtls/mbedtls/library/bignum.c:2228
    3d80:	bf28      	it	cs
    3d82:	4633      	movcs	r3, r6
    3d84:	9301      	str	r3, [sp, #4]
/home/aom1/Work/Linux/target/STM32MP1-DK2/bootloader/optee-os-custom/lib/libmbedtls/mbedtls/library/bignum.c:2235 (discriminator 1)
    3d86:	9b00      	ldr	r3, [sp, #0]
/home/aom1/Work/Linux/target/STM32MP1-DK2/bootloader/optee-os-custom/lib/libmbedtls/mbedtls/library/bignum.c:2230 (discriminator 1)
    3d88:	45b0      	cmp	r8, r6
/home/aom1/Work/Linux/target/STM32MP1-DK2/bootloader/optee-os-custom/lib/libmbedtls/mbedtls/library/bignum.c:2235 (discriminator 1)
    3d8a:	6898      	ldr	r0, [r3, #8]
/home/aom1/Work/Linux/target/STM32MP1-DK2/bootloader/optee-os-custom/lib/libmbedtls/mbedtls/library/bignum.c:2230 (discriminator 1)
    3d8c:	d11b      	bne.n	3dc6 <mpi_montmul+0x78>
    3d8e:	3c04      	subs	r4, #4
    3d90:	4425      	add	r5, r4
/home/aom1/Work/Linux/target/STM32MP1-DK2/bootloader/optee-os-custom/lib/libmbedtls/mbedtls/library/bignum.c:2250
    3d92:	4622      	mov	r2, r4
    3d94:	4629      	mov	r1, r5
    3d96:	f002 ffd1 	bl	6d3c <memcpy>
/home/aom1/Work/Linux/target/STM32MP1-DK2/bootloader/optee-os-custom/lib/libmbedtls/mbedtls/library/bignum.c:2254
    3d9a:	592b      	ldr	r3, [r5, r4]
mpi_sub_hlp():
/home/aom1/Work/Linux/target/STM32MP1-DK2/bootloader/optee-os-custom/lib/libmbedtls/mbedtls/library/bignum.c:1496
    3d9c:	2200      	movs	r2, #0
mpi_montmul():
/home/aom1/Work/Linux/target/STM32MP1-DK2/bootloader/optee-os-custom/lib/libmbedtls/mbedtls/library/bignum.c:2255
    3d9e:	f8d7 e008 	ldr.w	lr, [r7, #8]
    3da2:	1f28      	subs	r0, r5, #4
/home/aom1/Work/Linux/target/STM32MP1-DK2/bootloader/optee-os-custom/lib/libmbedtls/mbedtls/library/bignum.c:2254
    3da4:	3301      	adds	r3, #1
    3da6:	512b      	str	r3, [r5, r4]
mpi_sub_hlp():
/home/aom1/Work/Linux/target/STM32MP1-DK2/bootloader/optee-os-custom/lib/libmbedtls/mbedtls/library/bignum.c:1498
    3da8:	4613      	mov	r3, r2
    3daa:	429e      	cmp	r6, r3
    3dac:	d12a      	bne.n	3e04 <mpi_montmul+0xb6>
mpi_montmul():
/home/aom1/Work/Linux/target/STM32MP1-DK2/bootloader/optee-os-custom/lib/libmbedtls/mbedtls/library/bignum.c:2262
    3dae:	9900      	ldr	r1, [sp, #0]
    3db0:	4630      	mov	r0, r6
/home/aom1/Work/Linux/target/STM32MP1-DK2/bootloader/optee-os-custom/lib/libmbedtls/mbedtls/library/bignum.c:2255
    3db2:	592b      	ldr	r3, [r5, r4]
/home/aom1/Work/Linux/target/STM32MP1-DK2/bootloader/optee-os-custom/lib/libmbedtls/mbedtls/library/bignum.c:2262
    3db4:	6889      	ldr	r1, [r1, #8]
/home/aom1/Work/Linux/target/STM32MP1-DK2/bootloader/optee-os-custom/lib/libmbedtls/mbedtls/library/bignum.c:2255
    3db6:	1a9b      	subs	r3, r3, r2
/home/aom1/Work/Linux/target/STM32MP1-DK2/bootloader/optee-os-custom/lib/libmbedtls/mbedtls/library/bignum.c:2262
    3db8:	462a      	mov	r2, r5
/home/aom1/Work/Linux/target/STM32MP1-DK2/bootloader/optee-os-custom/lib/libmbedtls/mbedtls/library/bignum.c:2255
    3dba:	512b      	str	r3, [r5, r4]
/home/aom1/Work/Linux/target/STM32MP1-DK2/bootloader/optee-os-custom/lib/libmbedtls/mbedtls/library/bignum.c:2262
    3dbc:	b2db      	uxtb	r3, r3
/home/aom1/Work/Linux/target/STM32MP1-DK2/bootloader/optee-os-custom/lib/libmbedtls/mbedtls/library/bignum.c:2263
    3dbe:	b005      	add	sp, #20
    3dc0:	e8bd 4ff0 	ldmia.w	sp!, {r4, r5, r6, r7, r8, r9, sl, fp, lr}
/home/aom1/Work/Linux/target/STM32MP1-DK2/bootloader/optee-os-custom/lib/libmbedtls/mbedtls/library/bignum.c:2262
    3dc4:	e5e2      	b.n	398c <mpi_safe_cond_assign>
/home/aom1/Work/Linux/target/STM32MP1-DK2/bootloader/optee-os-custom/lib/libmbedtls/mbedtls/library/bignum.c:2236 (discriminator 3)
    3dc6:	f8da 1008 	ldr.w	r1, [sl, #8]
/home/aom1/Work/Linux/target/STM32MP1-DK2/bootloader/optee-os-custom/lib/libmbedtls/mbedtls/library/bignum.c:2235 (discriminator 3)
    3dca:	f850 b028 	ldr.w	fp, [r0, r8, lsl #2]
/home/aom1/Work/Linux/target/STM32MP1-DK2/bootloader/optee-os-custom/lib/libmbedtls/mbedtls/library/bignum.c:2230 (discriminator 3)
    3dce:	f108 0801 	add.w	r8, r8, #1
/home/aom1/Work/Linux/target/STM32MP1-DK2/bootloader/optee-os-custom/lib/libmbedtls/mbedtls/library/bignum.c:2236 (discriminator 3)
    3dd2:	6808      	ldr	r0, [r1, #0]
    3dd4:	f8d9 3000 	ldr.w	r3, [r9]
    3dd8:	9a03      	ldr	r2, [sp, #12]
    3dda:	fb00 330b 	mla	r3, r0, fp, r3
/home/aom1/Work/Linux/target/STM32MP1-DK2/bootloader/optee-os-custom/lib/libmbedtls/mbedtls/library/bignum.c:2238 (discriminator 3)
    3dde:	9801      	ldr	r0, [sp, #4]
/home/aom1/Work/Linux/target/STM32MP1-DK2/bootloader/optee-os-custom/lib/libmbedtls/mbedtls/library/bignum.c:2236 (discriminator 3)
    3de0:	4353      	muls	r3, r2
/home/aom1/Work/Linux/target/STM32MP1-DK2/bootloader/optee-os-custom/lib/libmbedtls/mbedtls/library/bignum.c:2238 (discriminator 3)
    3de2:	464a      	mov	r2, r9
/home/aom1/Work/Linux/target/STM32MP1-DK2/bootloader/optee-os-custom/lib/libmbedtls/mbedtls/library/bignum.c:2236 (discriminator 3)
    3de4:	9302      	str	r3, [sp, #8]
/home/aom1/Work/Linux/target/STM32MP1-DK2/bootloader/optee-os-custom/lib/libmbedtls/mbedtls/library/bignum.c:2238 (discriminator 3)
    3de6:	465b      	mov	r3, fp
    3de8:	f7ff fdff 	bl	39ea <mpi_mul_hlp>
/home/aom1/Work/Linux/target/STM32MP1-DK2/bootloader/optee-os-custom/lib/libmbedtls/mbedtls/library/bignum.c:2239 (discriminator 3)
    3dec:	9b02      	ldr	r3, [sp, #8]
    3dee:	464a      	mov	r2, r9
    3df0:	68b9      	ldr	r1, [r7, #8]
    3df2:	4630      	mov	r0, r6
    3df4:	f7ff fdf9 	bl	39ea <mpi_mul_hlp>
/home/aom1/Work/Linux/target/STM32MP1-DK2/bootloader/optee-os-custom/lib/libmbedtls/mbedtls/library/bignum.c:2241 (discriminator 3)
    3df8:	f849 bb04 	str.w	fp, [r9], #4
    3dfc:	2300      	movs	r3, #0
    3dfe:	f849 3004 	str.w	r3, [r9, r4]
/home/aom1/Work/Linux/target/STM32MP1-DK2/bootloader/optee-os-custom/lib/libmbedtls/mbedtls/library/bignum.c:2230 (discriminator 3)
    3e02:	e7c0      	b.n	3d86 <mpi_montmul+0x38>
mpi_sub_hlp():
/home/aom1/Work/Linux/target/STM32MP1-DK2/bootloader/optee-os-custom/lib/libmbedtls/mbedtls/library/bignum.c:1500
    3e04:	f850 cf04 	ldr.w	ip, [r0, #4]!
/home/aom1/Work/Linux/target/STM32MP1-DK2/bootloader/optee-os-custom/lib/libmbedtls/mbedtls/library/bignum.c:1501
    3e08:	f85e 7023 	ldr.w	r7, [lr, r3, lsl #2]
/home/aom1/Work/Linux/target/STM32MP1-DK2/bootloader/optee-os-custom/lib/libmbedtls/mbedtls/library/bignum.c:1498
    3e0c:	3301      	adds	r3, #1
/home/aom1/Work/Linux/target/STM32MP1-DK2/bootloader/optee-os-custom/lib/libmbedtls/mbedtls/library/bignum.c:1500
    3e0e:	ebac 0102 	sub.w	r1, ip, r2
/home/aom1/Work/Linux/target/STM32MP1-DK2/bootloader/optee-os-custom/lib/libmbedtls/mbedtls/library/bignum.c:1501
    3e12:	42b9      	cmp	r1, r7
    3e14:	eba1 0107 	sub.w	r1, r1, r7
    3e18:	bf28      	it	cs
    3e1a:	f04f 0800 	movcs.w	r8, #0
    3e1e:	6001      	str	r1, [r0, #0]
    3e20:	bf38      	it	cc
    3e22:	f04f 0801 	movcc.w	r8, #1
    3e26:	4594      	cmp	ip, r2
    3e28:	bf2c      	ite	cs
    3e2a:	4642      	movcs	r2, r8
    3e2c:	f108 0201 	addcc.w	r2, r8, #1
/home/aom1/Work/Linux/target/STM32MP1-DK2/bootloader/optee-os-custom/lib/libmbedtls/mbedtls/library/bignum.c:1498
    3e30:	e7bb      	b.n	3daa <mpi_montmul+0x5c>

00003e32 <mpi_montred>:
mpi_montred():
/home/aom1/Work/Linux/target/STM32MP1-DK2/bootloader/optee-os-custom/lib/libmbedtls/mbedtls/library/bignum.c:2278
    3e32:	b510      	push	{r4, lr}
    3e34:	b086      	sub	sp, #24
/home/aom1/Work/Linux/target/STM32MP1-DK2/bootloader/optee-os-custom/lib/libmbedtls/mbedtls/library/bignum.c:2279
    3e36:	2401      	movs	r4, #1
    3e38:	9402      	str	r4, [sp, #8]
/home/aom1/Work/Linux/target/STM32MP1-DK2/bootloader/optee-os-custom/lib/libmbedtls/mbedtls/library/bignum.c:2282
    3e3a:	f8ad 400c 	strh.w	r4, [sp, #12]
    3e3e:	9404      	str	r4, [sp, #16]
/home/aom1/Work/Linux/target/STM32MP1-DK2/bootloader/optee-os-custom/lib/libmbedtls/mbedtls/library/bignum.c:2283
    3e40:	ac02      	add	r4, sp, #8
/home/aom1/Work/Linux/target/STM32MP1-DK2/bootloader/optee-os-custom/lib/libmbedtls/mbedtls/library/bignum.c:2285
    3e42:	9300      	str	r3, [sp, #0]
    3e44:	4613      	mov	r3, r2
/home/aom1/Work/Linux/target/STM32MP1-DK2/bootloader/optee-os-custom/lib/libmbedtls/mbedtls/library/bignum.c:2283
    3e46:	9405      	str	r4, [sp, #20]
/home/aom1/Work/Linux/target/STM32MP1-DK2/bootloader/optee-os-custom/lib/libmbedtls/mbedtls/library/bignum.c:2285
    3e48:	460a      	mov	r2, r1
    3e4a:	a903      	add	r1, sp, #12
    3e4c:	f7ff ff7f 	bl	3d4e <mpi_montmul>
/home/aom1/Work/Linux/target/STM32MP1-DK2/bootloader/optee-os-custom/lib/libmbedtls/mbedtls/library/bignum.c:2286
    3e50:	b006      	add	sp, #24
    3e52:	bd10      	pop	{r4, pc}

00003e54 <mpi_montg_init.isra.0>:
mpi_montg_init():
/home/aom1/Work/Linux/target/STM32MP1-DK2/bootloader/optee-os-custom/lib/libmbedtls/mbedtls/library/bignum.c:2177
    3e54:	b510      	push	{r4, lr}
/home/aom1/Work/Linux/target/STM32MP1-DK2/bootloader/optee-os-custom/lib/libmbedtls/mbedtls/library/bignum.c:2183
    3e56:	2203      	movs	r2, #3
/home/aom1/Work/Linux/target/STM32MP1-DK2/bootloader/optee-os-custom/lib/libmbedtls/mbedtls/library/bignum.c:2179
    3e58:	680c      	ldr	r4, [r1, #0]
/home/aom1/Work/Linux/target/STM32MP1-DK2/bootloader/optee-os-custom/lib/libmbedtls/mbedtls/library/bignum.c:2183
    3e5a:	1ca3      	adds	r3, r4, #2
    3e5c:	005b      	lsls	r3, r3, #1
    3e5e:	f003 0308 	and.w	r3, r3, #8
    3e62:	4423      	add	r3, r4
/home/aom1/Work/Linux/target/STM32MP1-DK2/bootloader/optee-os-custom/lib/libmbedtls/mbedtls/library/bignum.c:2186
    3e64:	fb03 f104 	mul.w	r1, r3, r4
/home/aom1/Work/Linux/target/STM32MP1-DK2/bootloader/optee-os-custom/lib/libmbedtls/mbedtls/library/bignum.c:2185
    3e68:	3a01      	subs	r2, #1
/home/aom1/Work/Linux/target/STM32MP1-DK2/bootloader/optee-os-custom/lib/libmbedtls/mbedtls/library/bignum.c:2186
    3e6a:	f1c1 0102 	rsb	r1, r1, #2
    3e6e:	fb01 f303 	mul.w	r3, r1, r3
/home/aom1/Work/Linux/target/STM32MP1-DK2/bootloader/optee-os-custom/lib/libmbedtls/mbedtls/library/bignum.c:2185
    3e72:	d1f7      	bne.n	3e64 <mpi_montg_init.isra.0+0x10>
/home/aom1/Work/Linux/target/STM32MP1-DK2/bootloader/optee-os-custom/lib/libmbedtls/mbedtls/library/bignum.c:2188
    3e74:	425b      	negs	r3, r3
    3e76:	6003      	str	r3, [r0, #0]
/home/aom1/Work/Linux/target/STM32MP1-DK2/bootloader/optee-os-custom/lib/libmbedtls/mbedtls/library/bignum.c:2189
    3e78:	bd10      	pop	{r4, pc}

00003e7a <mpi_bigendian_to_host.part.0>:
mpi_bigendian_to_host():
/home/aom1/Work/Linux/target/STM32MP1-DK2/bootloader/optee-os-custom/lib/libmbedtls/mbedtls/library/bignum.c:974
    3e7a:	f101 4380 	add.w	r3, r1, #1073741824	; 0x40000000
    3e7e:	3b01      	subs	r3, #1
/home/aom1/Work/Linux/target/STM32MP1-DK2/bootloader/optee-os-custom/lib/libmbedtls/mbedtls/library/bignum.c:958
    3e80:	b573      	push	{r0, r1, r4, r5, r6, lr}
/home/aom1/Work/Linux/target/STM32MP1-DK2/bootloader/optee-os-custom/lib/libmbedtls/mbedtls/library/bignum.c:974
    3e82:	eb00 0383 	add.w	r3, r0, r3, lsl #2
/home/aom1/Work/Linux/target/STM32MP1-DK2/bootloader/optee-os-custom/lib/libmbedtls/mbedtls/library/bignum.c:975
    3e86:	4283      	cmp	r3, r0
    3e88:	d201      	bcs.n	3e8e <mpi_bigendian_to_host.part.0+0x14>
/home/aom1/Work/Linux/target/STM32MP1-DK2/bootloader/optee-os-custom/lib/libmbedtls/mbedtls/library/bignum.c:985
    3e8a:	b002      	add	sp, #8
    3e8c:	bd70      	pop	{r4, r5, r6, pc}
mpi_uint_bigendian_to_host():
/home/aom1/Work/Linux/target/STM32MP1-DK2/bootloader/optee-os-custom/lib/libmbedtls/mbedtls/library/bignum.c:955
    3e8e:	6802      	ldr	r2, [r0, #0]
mpi_uint_bigendian_to_host_c():
/home/aom1/Work/Linux/target/STM32MP1-DK2/bootloader/optee-os-custom/lib/libmbedtls/mbedtls/library/bignum.c:904
    3e90:	2500      	movs	r5, #0
    3e92:	9201      	str	r2, [sp, #4]
mpi_bigendian_to_host():
/home/aom1/Work/Linux/target/STM32MP1-DK2/bootloader/optee-os-custom/lib/libmbedtls/mbedtls/library/bignum.c:981
    3e94:	2204      	movs	r2, #4
mpi_uint_bigendian_to_host_c():
/home/aom1/Work/Linux/target/STM32MP1-DK2/bootloader/optee-os-custom/lib/libmbedtls/mbedtls/library/bignum.c:906
    3e96:	eb0d 0102 	add.w	r1, sp, r2
    3e9a:	460c      	mov	r4, r1
/home/aom1/Work/Linux/target/STM32MP1-DK2/bootloader/optee-os-custom/lib/libmbedtls/mbedtls/library/bignum.c:909
    3e9c:	f811 6b01 	ldrb.w	r6, [r1], #1
/home/aom1/Work/Linux/target/STM32MP1-DK2/bootloader/optee-os-custom/lib/libmbedtls/mbedtls/library/bignum.c:906
    3ea0:	3a01      	subs	r2, #1
    3ea2:	f012 02ff 	ands.w	r2, r2, #255	; 0xff
/home/aom1/Work/Linux/target/STM32MP1-DK2/bootloader/optee-os-custom/lib/libmbedtls/mbedtls/library/bignum.c:909
    3ea6:	ea46 2505 	orr.w	r5, r6, r5, lsl #8
/home/aom1/Work/Linux/target/STM32MP1-DK2/bootloader/optee-os-custom/lib/libmbedtls/mbedtls/library/bignum.c:906
    3eaa:	d1f7      	bne.n	3e9c <mpi_bigendian_to_host.part.0+0x22>
mpi_uint_bigendian_to_host():
/home/aom1/Work/Linux/target/STM32MP1-DK2/bootloader/optee-os-custom/lib/libmbedtls/mbedtls/library/bignum.c:955
    3eac:	6819      	ldr	r1, [r3, #0]
    3eae:	9101      	str	r1, [sp, #4]
mpi_bigendian_to_host():
/home/aom1/Work/Linux/target/STM32MP1-DK2/bootloader/optee-os-custom/lib/libmbedtls/mbedtls/library/bignum.c:982
    3eb0:	2104      	movs	r1, #4
mpi_uint_bigendian_to_host_c():
/home/aom1/Work/Linux/target/STM32MP1-DK2/bootloader/optee-os-custom/lib/libmbedtls/mbedtls/library/bignum.c:909
    3eb2:	f814 6b01 	ldrb.w	r6, [r4], #1
/home/aom1/Work/Linux/target/STM32MP1-DK2/bootloader/optee-os-custom/lib/libmbedtls/mbedtls/library/bignum.c:906
    3eb6:	3901      	subs	r1, #1
    3eb8:	f011 01ff 	ands.w	r1, r1, #255	; 0xff
/home/aom1/Work/Linux/target/STM32MP1-DK2/bootloader/optee-os-custom/lib/libmbedtls/mbedtls/library/bignum.c:909
    3ebc:	ea46 2202 	orr.w	r2, r6, r2, lsl #8
/home/aom1/Work/Linux/target/STM32MP1-DK2/bootloader/optee-os-custom/lib/libmbedtls/mbedtls/library/bignum.c:906
    3ec0:	d1f7      	bne.n	3eb2 <mpi_bigendian_to_host.part.0+0x38>
mpi_bigendian_to_host():
/home/aom1/Work/Linux/target/STM32MP1-DK2/bootloader/optee-os-custom/lib/libmbedtls/mbedtls/library/bignum.c:982
    3ec2:	f840 2b04 	str.w	r2, [r0], #4
/home/aom1/Work/Linux/target/STM32MP1-DK2/bootloader/optee-os-custom/lib/libmbedtls/mbedtls/library/bignum.c:983
    3ec6:	f843 5904 	str.w	r5, [r3], #-4
/home/aom1/Work/Linux/target/STM32MP1-DK2/bootloader/optee-os-custom/lib/libmbedtls/mbedtls/library/bignum.c:976
    3eca:	e7dc      	b.n	3e86 <mpi_bigendian_to_host.part.0+0xc>

00003ecc <mpi_fill_random_internal>:
mpi_fill_random_internal():
/home/aom1/Work/Linux/target/STM32MP1-DK2/bootloader/optee-os-custom/lib/libmbedtls/mbedtls/library/bignum.c:2733
    3ecc:	e92d 47f0 	stmdb	sp!, {r4, r5, r6, r7, r8, r9, sl, lr}
/home/aom1/Work/Linux/target/STM32MP1-DK2/bootloader/optee-os-custom/lib/libmbedtls/mbedtls/library/bignum.c:2735
    3ed0:	f011 0403 	ands.w	r4, r1, #3
    3ed4:	bf18      	it	ne
    3ed6:	2401      	movne	r4, #1
/home/aom1/Work/Linux/target/STM32MP1-DK2/bootloader/optee-os-custom/lib/libmbedtls/mbedtls/library/bignum.c:2733
    3ed8:	4698      	mov	r8, r3
/home/aom1/Work/Linux/target/STM32MP1-DK2/bootloader/optee-os-custom/lib/libmbedtls/mbedtls/library/bignum.c:2738
    3eda:	6843      	ldr	r3, [r0, #4]
/home/aom1/Work/Linux/target/STM32MP1-DK2/bootloader/optee-os-custom/lib/libmbedtls/mbedtls/library/bignum.c:2733
    3edc:	4605      	mov	r5, r0
/home/aom1/Work/Linux/target/STM32MP1-DK2/bootloader/optee-os-custom/lib/libmbedtls/mbedtls/library/bignum.c:2735
    3ede:	eb04 0491 	add.w	r4, r4, r1, lsr #2
/home/aom1/Work/Linux/target/STM32MP1-DK2/bootloader/optee-os-custom/lib/libmbedtls/mbedtls/library/bignum.c:2733
    3ee2:	460e      	mov	r6, r1
/home/aom1/Work/Linux/target/STM32MP1-DK2/bootloader/optee-os-custom/lib/libmbedtls/mbedtls/library/bignum.c:2738
    3ee4:	42a3      	cmp	r3, r4
/home/aom1/Work/Linux/target/STM32MP1-DK2/bootloader/optee-os-custom/lib/libmbedtls/mbedtls/library/bignum.c:2733
    3ee6:	4617      	mov	r7, r2
/home/aom1/Work/Linux/target/STM32MP1-DK2/bootloader/optee-os-custom/lib/libmbedtls/mbedtls/library/bignum.c:2736
    3ee8:	ea4f 0a84 	mov.w	sl, r4, lsl #2
    3eec:	ebc1 0984 	rsb	r9, r1, r4, lsl #2
/home/aom1/Work/Linux/target/STM32MP1-DK2/bootloader/optee-os-custom/lib/libmbedtls/mbedtls/library/bignum.c:2738
    3ef0:	d31b      	bcc.n	3f2a <mpi_fill_random_internal+0x5e>
/home/aom1/Work/Linux/target/STM32MP1-DK2/bootloader/optee-os-custom/lib/libmbedtls/mbedtls/library/bignum.c:2741
    3ef2:	6880      	ldr	r0, [r0, #8]
    3ef4:	464a      	mov	r2, r9
    3ef6:	2100      	movs	r1, #0
    3ef8:	f003 f80b 	bl	6f12 <memset>
/home/aom1/Work/Linux/target/STM32MP1-DK2/bootloader/optee-os-custom/lib/libmbedtls/mbedtls/library/bignum.c:2742
    3efc:	686a      	ldr	r2, [r5, #4]
    3efe:	2100      	movs	r1, #0
    3f00:	68a8      	ldr	r0, [r5, #8]
    3f02:	1b12      	subs	r2, r2, r4
    3f04:	4450      	add	r0, sl
    3f06:	0092      	lsls	r2, r2, #2
    3f08:	f003 f803 	bl	6f12 <memset>
/home/aom1/Work/Linux/target/STM32MP1-DK2/bootloader/optee-os-custom/lib/libmbedtls/mbedtls/library/bignum.c:2743
    3f0c:	68a9      	ldr	r1, [r5, #8]
    3f0e:	4632      	mov	r2, r6
    3f10:	4640      	mov	r0, r8
    3f12:	4449      	add	r1, r9
    3f14:	47b8      	blx	r7
    3f16:	4606      	mov	r6, r0
    3f18:	b920      	cbnz	r0, 3f24 <mpi_fill_random_internal+0x58>
mpi_bigendian_to_host():
/home/aom1/Work/Linux/target/STM32MP1-DK2/bootloader/optee-os-custom/lib/libmbedtls/mbedtls/library/bignum.c:962 (discriminator 2)
    3f1a:	b11c      	cbz	r4, 3f24 <mpi_fill_random_internal+0x58>
    3f1c:	68a8      	ldr	r0, [r5, #8]
    3f1e:	4621      	mov	r1, r4
    3f20:	f7ff ffab 	bl	3e7a <mpi_bigendian_to_host.part.0>
mpi_fill_random_internal():
/home/aom1/Work/Linux/target/STM32MP1-DK2/bootloader/optee-os-custom/lib/libmbedtls/mbedtls/library/bignum.c:2748
    3f24:	4630      	mov	r0, r6
    3f26:	e8bd 87f0 	ldmia.w	sp!, {r4, r5, r6, r7, r8, r9, sl, pc}
/home/aom1/Work/Linux/target/STM32MP1-DK2/bootloader/optee-os-custom/lib/libmbedtls/mbedtls/library/bignum.c:2739
    3f2a:	f06f 0603 	mvn.w	r6, #3
    3f2e:	e7f9      	b.n	3f24 <mpi_fill_random_internal+0x58>

00003f30 <mbedtls_mpi_init>:
mpi_init():
/home/aom1/Work/Linux/target/STM32MP1-DK2/bootloader/optee-os-custom/lib/libmbedtls/mbedtls/library/bignum.c:93
    3f30:	2301      	movs	r3, #1
    3f32:	6003      	str	r3, [r0, #0]
/home/aom1/Work/Linux/target/STM32MP1-DK2/bootloader/optee-os-custom/lib/libmbedtls/mbedtls/library/bignum.c:95
    3f34:	2300      	movs	r3, #0
    3f36:	6043      	str	r3, [r0, #4]
/home/aom1/Work/Linux/target/STM32MP1-DK2/bootloader/optee-os-custom/lib/libmbedtls/mbedtls/library/bignum.c:96
    3f38:	6083      	str	r3, [r0, #8]
mbedtls_mpi_init():
/home/aom1/Work/Linux/target/STM32MP1-DK2/bootloader/optee-os-custom/lib/libmbedtls/mbedtls/library/bignum.c:102
    3f3a:	4770      	bx	lr

00003f3c <mbedtls_mpi_init_mempool>:
mbedtls_mpi_init_mempool():
/home/aom1/Work/Linux/target/STM32MP1-DK2/bootloader/optee-os-custom/lib/libmbedtls/mbedtls/library/bignum.c:105
    3f3c:	4b07      	ldr	r3, [pc, #28]	; (3f5c <mbedtls_mpi_init_mempool+0x20>)
/home/aom1/Work/Linux/target/STM32MP1-DK2/bootloader/optee-os-custom/lib/libmbedtls/mbedtls/library/bignum.c:106
    3f3e:	4a08      	ldr	r2, [pc, #32]	; (3f60 <mbedtls_mpi_init_mempool+0x24>)
/home/aom1/Work/Linux/target/STM32MP1-DK2/bootloader/optee-os-custom/lib/libmbedtls/mbedtls/library/bignum.c:105
    3f40:	447b      	add	r3, pc
/home/aom1/Work/Linux/target/STM32MP1-DK2/bootloader/optee-os-custom/lib/libmbedtls/mbedtls/library/bignum.c:106
    3f42:	589b      	ldr	r3, [r3, r2]
mpi_init():
/home/aom1/Work/Linux/target/STM32MP1-DK2/bootloader/optee-os-custom/lib/libmbedtls/mbedtls/library/bignum.c:93
    3f44:	2201      	movs	r2, #1
mbedtls_mpi_init_mempool():
/home/aom1/Work/Linux/target/STM32MP1-DK2/bootloader/optee-os-custom/lib/libmbedtls/mbedtls/library/bignum.c:106
    3f46:	681b      	ldr	r3, [r3, #0]
mpi_init():
/home/aom1/Work/Linux/target/STM32MP1-DK2/bootloader/optee-os-custom/lib/libmbedtls/mbedtls/library/bignum.c:93
    3f48:	8002      	strh	r2, [r0, #0]
mbedtls_mpi_init_mempool():
/home/aom1/Work/Linux/target/STM32MP1-DK2/bootloader/optee-os-custom/lib/libmbedtls/mbedtls/library/bignum.c:106
    3f4a:	3b00      	subs	r3, #0
    3f4c:	bf18      	it	ne
    3f4e:	2301      	movne	r3, #1
mpi_init():
/home/aom1/Work/Linux/target/STM32MP1-DK2/bootloader/optee-os-custom/lib/libmbedtls/mbedtls/library/bignum.c:94
    3f50:	8043      	strh	r3, [r0, #2]
/home/aom1/Work/Linux/target/STM32MP1-DK2/bootloader/optee-os-custom/lib/libmbedtls/mbedtls/library/bignum.c:95
    3f52:	2300      	movs	r3, #0
    3f54:	6043      	str	r3, [r0, #4]
/home/aom1/Work/Linux/target/STM32MP1-DK2/bootloader/optee-os-custom/lib/libmbedtls/mbedtls/library/bignum.c:96
    3f56:	6083      	str	r3, [r0, #8]
mbedtls_mpi_init_mempool():
/home/aom1/Work/Linux/target/STM32MP1-DK2/bootloader/optee-os-custom/lib/libmbedtls/mbedtls/library/bignum.c:107
    3f58:	4770      	bx	lr
    3f5a:	bf00      	nop
    3f5c:	00005144 	.word	0x00005144
    3f60:	0000003c 	.word	0x0000003c

00003f64 <mbedtls_mpi_free>:
mbedtls_mpi_free():
/home/aom1/Work/Linux/target/STM32MP1-DK2/bootloader/optee-os-custom/lib/libmbedtls/mbedtls/library/bignum.c:113
    3f64:	b538      	push	{r3, r4, r5, lr}
/home/aom1/Work/Linux/target/STM32MP1-DK2/bootloader/optee-os-custom/lib/libmbedtls/mbedtls/library/bignum.c:114
    3f66:	4604      	mov	r4, r0
/home/aom1/Work/Linux/target/STM32MP1-DK2/bootloader/optee-os-custom/lib/libmbedtls/mbedtls/library/bignum.c:113
    3f68:	4d0d      	ldr	r5, [pc, #52]	; (3fa0 <mbedtls_mpi_free+0x3c>)
    3f6a:	447d      	add	r5, pc
/home/aom1/Work/Linux/target/STM32MP1-DK2/bootloader/optee-os-custom/lib/libmbedtls/mbedtls/library/bignum.c:114
    3f6c:	b198      	cbz	r0, 3f96 <mbedtls_mpi_free+0x32>
/home/aom1/Work/Linux/target/STM32MP1-DK2/bootloader/optee-os-custom/lib/libmbedtls/mbedtls/library/bignum.c:117
    3f6e:	6880      	ldr	r0, [r0, #8]
    3f70:	b160      	cbz	r0, 3f8c <mbedtls_mpi_free+0x28>
mbedtls_mpi_zeroize():
/home/aom1/Work/Linux/target/STM32MP1-DK2/bootloader/optee-os-custom/lib/libmbedtls/mbedtls/library/bignum.c:83
    3f72:	6861      	ldr	r1, [r4, #4]
    3f74:	0089      	lsls	r1, r1, #2
    3f76:	f002 f9ff 	bl	6378 <mbedtls_platform_zeroize>
mbedtls_mpi_free():
/home/aom1/Work/Linux/target/STM32MP1-DK2/bootloader/optee-os-custom/lib/libmbedtls/mbedtls/library/bignum.c:120
    3f7a:	f9b4 3002 	ldrsh.w	r3, [r4, #2]
    3f7e:	b15b      	cbz	r3, 3f98 <mbedtls_mpi_free+0x34>
/home/aom1/Work/Linux/target/STM32MP1-DK2/bootloader/optee-os-custom/lib/libmbedtls/mbedtls/library/bignum.c:121
    3f80:	4b08      	ldr	r3, [pc, #32]	; (3fa4 <mbedtls_mpi_free+0x40>)
    3f82:	68a1      	ldr	r1, [r4, #8]
    3f84:	58eb      	ldr	r3, [r5, r3]
    3f86:	6818      	ldr	r0, [r3, #0]
    3f88:	f002 ffb6 	bl	6ef8 <mempool_free>
/home/aom1/Work/Linux/target/STM32MP1-DK2/bootloader/optee-os-custom/lib/libmbedtls/mbedtls/library/bignum.c:126
    3f8c:	2301      	movs	r3, #1
    3f8e:	8023      	strh	r3, [r4, #0]
/home/aom1/Work/Linux/target/STM32MP1-DK2/bootloader/optee-os-custom/lib/libmbedtls/mbedtls/library/bignum.c:127
    3f90:	2300      	movs	r3, #0
    3f92:	6063      	str	r3, [r4, #4]
/home/aom1/Work/Linux/target/STM32MP1-DK2/bootloader/optee-os-custom/lib/libmbedtls/mbedtls/library/bignum.c:128
    3f94:	60a3      	str	r3, [r4, #8]
/home/aom1/Work/Linux/target/STM32MP1-DK2/bootloader/optee-os-custom/lib/libmbedtls/mbedtls/library/bignum.c:129
    3f96:	bd38      	pop	{r3, r4, r5, pc}
/home/aom1/Work/Linux/target/STM32MP1-DK2/bootloader/optee-os-custom/lib/libmbedtls/mbedtls/library/bignum.c:123
    3f98:	68a0      	ldr	r0, [r4, #8]
    3f9a:	f002 fe05 	bl	6ba8 <free>
    3f9e:	e7f5      	b.n	3f8c <mbedtls_mpi_free+0x28>
    3fa0:	0000511a 	.word	0x0000511a
    3fa4:	0000003c 	.word	0x0000003c

00003fa8 <mbedtls_mpi_grow>:
mbedtls_mpi_grow():
/home/aom1/Work/Linux/target/STM32MP1-DK2/bootloader/optee-os-custom/lib/libmbedtls/mbedtls/library/bignum.c:139
    3fa8:	f242 7310 	movw	r3, #10000	; 0x2710
/home/aom1/Work/Linux/target/STM32MP1-DK2/bootloader/optee-os-custom/lib/libmbedtls/mbedtls/library/bignum.c:135
    3fac:	e92d 41f0 	stmdb	sp!, {r4, r5, r6, r7, r8, lr}
    3fb0:	4604      	mov	r4, r0
    3fb2:	4f21      	ldr	r7, [pc, #132]	; (4038 <mbedtls_mpi_grow+0x90>)
    3fb4:	460e      	mov	r6, r1
/home/aom1/Work/Linux/target/STM32MP1-DK2/bootloader/optee-os-custom/lib/libmbedtls/mbedtls/library/bignum.c:139
    3fb6:	4299      	cmp	r1, r3
/home/aom1/Work/Linux/target/STM32MP1-DK2/bootloader/optee-os-custom/lib/libmbedtls/mbedtls/library/bignum.c:135
    3fb8:	447f      	add	r7, pc
/home/aom1/Work/Linux/target/STM32MP1-DK2/bootloader/optee-os-custom/lib/libmbedtls/mbedtls/library/bignum.c:139
    3fba:	d903      	bls.n	3fc4 <mbedtls_mpi_grow+0x1c>
/home/aom1/Work/Linux/target/STM32MP1-DK2/bootloader/optee-os-custom/lib/libmbedtls/mbedtls/library/bignum.c:140
    3fbc:	f06f 000f 	mvn.w	r0, #15
/home/aom1/Work/Linux/target/STM32MP1-DK2/bootloader/optee-os-custom/lib/libmbedtls/mbedtls/library/bignum.c:173
    3fc0:	e8bd 81f0 	ldmia.w	sp!, {r4, r5, r6, r7, r8, pc}
/home/aom1/Work/Linux/target/STM32MP1-DK2/bootloader/optee-os-custom/lib/libmbedtls/mbedtls/library/bignum.c:142
    3fc4:	6843      	ldr	r3, [r0, #4]
    3fc6:	428b      	cmp	r3, r1
    3fc8:	d228      	bcs.n	401c <mbedtls_mpi_grow+0x74>
/home/aom1/Work/Linux/target/STM32MP1-DK2/bootloader/optee-os-custom/lib/libmbedtls/mbedtls/library/bignum.c:144
    3fca:	f9b0 3002 	ldrsh.w	r3, [r0, #2]
    3fce:	b33b      	cbz	r3, 4020 <mbedtls_mpi_grow+0x78>
/home/aom1/Work/Linux/target/STM32MP1-DK2/bootloader/optee-os-custom/lib/libmbedtls/mbedtls/library/bignum.c:146
    3fd0:	4b1a      	ldr	r3, [pc, #104]	; (403c <mbedtls_mpi_grow+0x94>)
    3fd2:	ea4f 0881 	mov.w	r8, r1, lsl #2
    3fd6:	58fb      	ldr	r3, [r7, r3]
    3fd8:	4641      	mov	r1, r8
    3fda:	6818      	ldr	r0, [r3, #0]
    3fdc:	f002 ff5c 	bl	6e98 <mempool_alloc>
/home/aom1/Work/Linux/target/STM32MP1-DK2/bootloader/optee-os-custom/lib/libmbedtls/mbedtls/library/bignum.c:147
    3fe0:	4605      	mov	r5, r0
    3fe2:	2800      	cmp	r0, #0
    3fe4:	d0ea      	beq.n	3fbc <mbedtls_mpi_grow+0x14>
/home/aom1/Work/Linux/target/STM32MP1-DK2/bootloader/optee-os-custom/lib/libmbedtls/mbedtls/library/bignum.c:149
    3fe6:	4642      	mov	r2, r8
    3fe8:	2100      	movs	r1, #0
    3fea:	f002 ff92 	bl	6f12 <memset>
/home/aom1/Work/Linux/target/STM32MP1-DK2/bootloader/optee-os-custom/lib/libmbedtls/mbedtls/library/bignum.c:158
    3fee:	68a1      	ldr	r1, [r4, #8]
    3ff0:	b191      	cbz	r1, 4018 <mbedtls_mpi_grow+0x70>
/home/aom1/Work/Linux/target/STM32MP1-DK2/bootloader/optee-os-custom/lib/libmbedtls/mbedtls/library/bignum.c:160
    3ff2:	6862      	ldr	r2, [r4, #4]
    3ff4:	4628      	mov	r0, r5
    3ff6:	0092      	lsls	r2, r2, #2
    3ff8:	f002 fea0 	bl	6d3c <memcpy>
mbedtls_mpi_zeroize():
/home/aom1/Work/Linux/target/STM32MP1-DK2/bootloader/optee-os-custom/lib/libmbedtls/mbedtls/library/bignum.c:83
    3ffc:	6861      	ldr	r1, [r4, #4]
    3ffe:	68a0      	ldr	r0, [r4, #8]
    4000:	0089      	lsls	r1, r1, #2
    4002:	f002 f9b9 	bl	6378 <mbedtls_platform_zeroize>
mbedtls_mpi_grow():
/home/aom1/Work/Linux/target/STM32MP1-DK2/bootloader/optee-os-custom/lib/libmbedtls/mbedtls/library/bignum.c:162
    4006:	f9b4 3002 	ldrsh.w	r3, [r4, #2]
    400a:	b18b      	cbz	r3, 4030 <mbedtls_mpi_grow+0x88>
/home/aom1/Work/Linux/target/STM32MP1-DK2/bootloader/optee-os-custom/lib/libmbedtls/mbedtls/library/bignum.c:163
    400c:	4b0b      	ldr	r3, [pc, #44]	; (403c <mbedtls_mpi_grow+0x94>)
    400e:	68a1      	ldr	r1, [r4, #8]
    4010:	58fb      	ldr	r3, [r7, r3]
    4012:	6818      	ldr	r0, [r3, #0]
    4014:	f002 ff70 	bl	6ef8 <mempool_free>
/home/aom1/Work/Linux/target/STM32MP1-DK2/bootloader/optee-os-custom/lib/libmbedtls/mbedtls/library/bignum.c:168
    4018:	6066      	str	r6, [r4, #4]
/home/aom1/Work/Linux/target/STM32MP1-DK2/bootloader/optee-os-custom/lib/libmbedtls/mbedtls/library/bignum.c:169
    401a:	60a5      	str	r5, [r4, #8]
/home/aom1/Work/Linux/target/STM32MP1-DK2/bootloader/optee-os-custom/lib/libmbedtls/mbedtls/library/bignum.c:172
    401c:	2000      	movs	r0, #0
    401e:	e7cf      	b.n	3fc0 <mbedtls_mpi_grow+0x18>
/home/aom1/Work/Linux/target/STM32MP1-DK2/bootloader/optee-os-custom/lib/libmbedtls/mbedtls/library/bignum.c:153
    4020:	2104      	movs	r1, #4
    4022:	4630      	mov	r0, r6
    4024:	f002 fd92 	bl	6b4c <calloc>
/home/aom1/Work/Linux/target/STM32MP1-DK2/bootloader/optee-os-custom/lib/libmbedtls/mbedtls/library/bignum.c:154
    4028:	4605      	mov	r5, r0
    402a:	2800      	cmp	r0, #0
    402c:	d1df      	bne.n	3fee <mbedtls_mpi_grow+0x46>
    402e:	e7c5      	b.n	3fbc <mbedtls_mpi_grow+0x14>
/home/aom1/Work/Linux/target/STM32MP1-DK2/bootloader/optee-os-custom/lib/libmbedtls/mbedtls/library/bignum.c:165
    4030:	68a0      	ldr	r0, [r4, #8]
    4032:	f002 fdb9 	bl	6ba8 <free>
    4036:	e7ef      	b.n	4018 <mbedtls_mpi_grow+0x70>
    4038:	000050cc 	.word	0x000050cc
    403c:	0000003c 	.word	0x0000003c

00004040 <mbedtls_mpi_resize_clear>:
mbedtls_mpi_resize_clear():
/home/aom1/Work/Linux/target/STM32MP1-DK2/bootloader/optee-os-custom/lib/libmbedtls/mbedtls/library/bignum.c:233
    4040:	b538      	push	{r3, r4, r5, lr}
    4042:	4604      	mov	r4, r0
/home/aom1/Work/Linux/target/STM32MP1-DK2/bootloader/optee-os-custom/lib/libmbedtls/mbedtls/library/bignum.c:234
    4044:	460d      	mov	r5, r1
    4046:	b919      	cbnz	r1, 4050 <mbedtls_mpi_resize_clear+0x10>
/home/aom1/Work/Linux/target/STM32MP1-DK2/bootloader/optee-os-custom/lib/libmbedtls/mbedtls/library/bignum.c:236
    4048:	f7ff ff8c 	bl	3f64 <mbedtls_mpi_free>
/home/aom1/Work/Linux/target/STM32MP1-DK2/bootloader/optee-os-custom/lib/libmbedtls/mbedtls/library/bignum.c:250
    404c:	2000      	movs	r0, #0
    404e:	bd38      	pop	{r3, r4, r5, pc}
/home/aom1/Work/Linux/target/STM32MP1-DK2/bootloader/optee-os-custom/lib/libmbedtls/mbedtls/library/bignum.c:239
    4050:	6842      	ldr	r2, [r0, #4]
    4052:	428a      	cmp	r2, r1
    4054:	d107      	bne.n	4066 <mbedtls_mpi_resize_clear+0x26>
/home/aom1/Work/Linux/target/STM32MP1-DK2/bootloader/optee-os-custom/lib/libmbedtls/mbedtls/library/bignum.c:241
    4056:	0092      	lsls	r2, r2, #2
    4058:	2100      	movs	r1, #0
    405a:	6880      	ldr	r0, [r0, #8]
    405c:	f002 ff59 	bl	6f12 <memset>
/home/aom1/Work/Linux/target/STM32MP1-DK2/bootloader/optee-os-custom/lib/libmbedtls/mbedtls/library/bignum.c:242
    4060:	2301      	movs	r3, #1
    4062:	8023      	strh	r3, [r4, #0]
/home/aom1/Work/Linux/target/STM32MP1-DK2/bootloader/optee-os-custom/lib/libmbedtls/mbedtls/library/bignum.c:243
    4064:	e7f2      	b.n	404c <mbedtls_mpi_resize_clear+0xc>
/home/aom1/Work/Linux/target/STM32MP1-DK2/bootloader/optee-os-custom/lib/libmbedtls/mbedtls/library/bignum.c:247
    4066:	f7ff ff7d 	bl	3f64 <mbedtls_mpi_free>
/home/aom1/Work/Linux/target/STM32MP1-DK2/bootloader/optee-os-custom/lib/libmbedtls/mbedtls/library/bignum.c:248
    406a:	4629      	mov	r1, r5
    406c:	4620      	mov	r0, r4
/home/aom1/Work/Linux/target/STM32MP1-DK2/bootloader/optee-os-custom/lib/libmbedtls/mbedtls/library/bignum.c:250
    406e:	e8bd 4038 	ldmia.w	sp!, {r3, r4, r5, lr}
/home/aom1/Work/Linux/target/STM32MP1-DK2/bootloader/optee-os-custom/lib/libmbedtls/mbedtls/library/bignum.c:248
    4072:	f7ff bf99 	b.w	3fa8 <mbedtls_mpi_grow>

00004076 <mbedtls_mpi_shrink>:
mbedtls_mpi_shrink():
/home/aom1/Work/Linux/target/STM32MP1-DK2/bootloader/optee-os-custom/lib/libmbedtls/mbedtls/library/bignum.c:185
    4076:	f242 7310 	movw	r3, #10000	; 0x2710
/home/aom1/Work/Linux/target/STM32MP1-DK2/bootloader/optee-os-custom/lib/libmbedtls/mbedtls/library/bignum.c:180
    407a:	460a      	mov	r2, r1
    407c:	e92d 41f0 	stmdb	sp!, {r4, r5, r6, r7, r8, lr}
    4080:	4605      	mov	r5, r0
    4082:	4f28      	ldr	r7, [pc, #160]	; (4124 <mbedtls_mpi_shrink+0xae>)
/home/aom1/Work/Linux/target/STM32MP1-DK2/bootloader/optee-os-custom/lib/libmbedtls/mbedtls/library/bignum.c:185
    4084:	4299      	cmp	r1, r3
/home/aom1/Work/Linux/target/STM32MP1-DK2/bootloader/optee-os-custom/lib/libmbedtls/mbedtls/library/bignum.c:180
    4086:	447f      	add	r7, pc
/home/aom1/Work/Linux/target/STM32MP1-DK2/bootloader/optee-os-custom/lib/libmbedtls/mbedtls/library/bignum.c:185
    4088:	d903      	bls.n	4092 <mbedtls_mpi_shrink+0x1c>
/home/aom1/Work/Linux/target/STM32MP1-DK2/bootloader/optee-os-custom/lib/libmbedtls/mbedtls/library/bignum.c:186
    408a:	f06f 000f 	mvn.w	r0, #15
/home/aom1/Work/Linux/target/STM32MP1-DK2/bootloader/optee-os-custom/lib/libmbedtls/mbedtls/library/bignum.c:229
    408e:	e8bd 81f0 	ldmia.w	sp!, {r4, r5, r6, r7, r8, pc}
/home/aom1/Work/Linux/target/STM32MP1-DK2/bootloader/optee-os-custom/lib/libmbedtls/mbedtls/library/bignum.c:189
    4092:	6843      	ldr	r3, [r0, #4]
    4094:	428b      	cmp	r3, r1
    4096:	d807      	bhi.n	40a8 <mbedtls_mpi_shrink+0x32>
/home/aom1/Work/Linux/target/STM32MP1-DK2/bootloader/optee-os-custom/lib/libmbedtls/mbedtls/library/bignum.c:229
    4098:	e8bd 41f0 	ldmia.w	sp!, {r4, r5, r6, r7, r8, lr}
/home/aom1/Work/Linux/target/STM32MP1-DK2/bootloader/optee-os-custom/lib/libmbedtls/mbedtls/library/bignum.c:190
    409c:	f7ff bf84 	b.w	3fa8 <mbedtls_mpi_grow>
/home/aom1/Work/Linux/target/STM32MP1-DK2/bootloader/optee-os-custom/lib/libmbedtls/mbedtls/library/bignum.c:194
    40a0:	68a9      	ldr	r1, [r5, #8]
    40a2:	f851 1023 	ldr.w	r1, [r1, r3, lsl #2]
    40a6:	b911      	cbnz	r1, 40ae <mbedtls_mpi_shrink+0x38>
/home/aom1/Work/Linux/target/STM32MP1-DK2/bootloader/optee-os-custom/lib/libmbedtls/mbedtls/library/bignum.c:193 (discriminator 2)
    40a8:	3b01      	subs	r3, #1
    40aa:	2b00      	cmp	r3, #0
    40ac:	d1f8      	bne.n	40a0 <mbedtls_mpi_shrink+0x2a>
/home/aom1/Work/Linux/target/STM32MP1-DK2/bootloader/optee-os-custom/lib/libmbedtls/mbedtls/library/bignum.c:196
    40ae:	1c5c      	adds	r4, r3, #1
/home/aom1/Work/Linux/target/STM32MP1-DK2/bootloader/optee-os-custom/lib/libmbedtls/mbedtls/library/bignum.c:201
    40b0:	f9b5 3002 	ldrsh.w	r3, [r5, #2]
    40b4:	4294      	cmp	r4, r2
    40b6:	bf38      	it	cc
    40b8:	4614      	movcc	r4, r2
    40ba:	b333      	cbz	r3, 410a <mbedtls_mpi_shrink+0x94>
/home/aom1/Work/Linux/target/STM32MP1-DK2/bootloader/optee-os-custom/lib/libmbedtls/mbedtls/library/bignum.c:203
    40bc:	4b1a      	ldr	r3, [pc, #104]	; (4128 <mbedtls_mpi_shrink+0xb2>)
    40be:	ea4f 0884 	mov.w	r8, r4, lsl #2
    40c2:	58fb      	ldr	r3, [r7, r3]
    40c4:	4641      	mov	r1, r8
    40c6:	6818      	ldr	r0, [r3, #0]
    40c8:	f002 fee6 	bl	6e98 <mempool_alloc>
/home/aom1/Work/Linux/target/STM32MP1-DK2/bootloader/optee-os-custom/lib/libmbedtls/mbedtls/library/bignum.c:204
    40cc:	4606      	mov	r6, r0
    40ce:	2800      	cmp	r0, #0
    40d0:	d0db      	beq.n	408a <mbedtls_mpi_shrink+0x14>
/home/aom1/Work/Linux/target/STM32MP1-DK2/bootloader/optee-os-custom/lib/libmbedtls/mbedtls/library/bignum.c:206
    40d2:	4642      	mov	r2, r8
    40d4:	2100      	movs	r1, #0
    40d6:	f002 ff1c 	bl	6f12 <memset>
/home/aom1/Work/Linux/target/STM32MP1-DK2/bootloader/optee-os-custom/lib/libmbedtls/mbedtls/library/bignum.c:215
    40da:	68a9      	ldr	r1, [r5, #8]
    40dc:	b189      	cbz	r1, 4102 <mbedtls_mpi_shrink+0x8c>
/home/aom1/Work/Linux/target/STM32MP1-DK2/bootloader/optee-os-custom/lib/libmbedtls/mbedtls/library/bignum.c:217
    40de:	00a2      	lsls	r2, r4, #2
    40e0:	4630      	mov	r0, r6
    40e2:	f002 fe2b 	bl	6d3c <memcpy>
mbedtls_mpi_zeroize():
/home/aom1/Work/Linux/target/STM32MP1-DK2/bootloader/optee-os-custom/lib/libmbedtls/mbedtls/library/bignum.c:83
    40e6:	6869      	ldr	r1, [r5, #4]
    40e8:	68a8      	ldr	r0, [r5, #8]
    40ea:	0089      	lsls	r1, r1, #2
    40ec:	f002 f944 	bl	6378 <mbedtls_platform_zeroize>
mbedtls_mpi_shrink():
/home/aom1/Work/Linux/target/STM32MP1-DK2/bootloader/optee-os-custom/lib/libmbedtls/mbedtls/library/bignum.c:219
    40f0:	f9b5 3002 	ldrsh.w	r3, [r5, #2]
    40f4:	b18b      	cbz	r3, 411a <mbedtls_mpi_shrink+0xa4>
/home/aom1/Work/Linux/target/STM32MP1-DK2/bootloader/optee-os-custom/lib/libmbedtls/mbedtls/library/bignum.c:220
    40f6:	4b0c      	ldr	r3, [pc, #48]	; (4128 <mbedtls_mpi_shrink+0xb2>)
    40f8:	68a9      	ldr	r1, [r5, #8]
    40fa:	58fb      	ldr	r3, [r7, r3]
    40fc:	6818      	ldr	r0, [r3, #0]
    40fe:	f002 fefb 	bl	6ef8 <mempool_free>
/home/aom1/Work/Linux/target/STM32MP1-DK2/bootloader/optee-os-custom/lib/libmbedtls/mbedtls/library/bignum.c:225
    4102:	606c      	str	r4, [r5, #4]
/home/aom1/Work/Linux/target/STM32MP1-DK2/bootloader/optee-os-custom/lib/libmbedtls/mbedtls/library/bignum.c:228
    4104:	2000      	movs	r0, #0
/home/aom1/Work/Linux/target/STM32MP1-DK2/bootloader/optee-os-custom/lib/libmbedtls/mbedtls/library/bignum.c:226
    4106:	60ae      	str	r6, [r5, #8]
/home/aom1/Work/Linux/target/STM32MP1-DK2/bootloader/optee-os-custom/lib/libmbedtls/mbedtls/library/bignum.c:228
    4108:	e7c1      	b.n	408e <mbedtls_mpi_shrink+0x18>
/home/aom1/Work/Linux/target/STM32MP1-DK2/bootloader/optee-os-custom/lib/libmbedtls/mbedtls/library/bignum.c:210
    410a:	2104      	movs	r1, #4
    410c:	4620      	mov	r0, r4
    410e:	f002 fd1d 	bl	6b4c <calloc>
/home/aom1/Work/Linux/target/STM32MP1-DK2/bootloader/optee-os-custom/lib/libmbedtls/mbedtls/library/bignum.c:211
    4112:	4606      	mov	r6, r0
    4114:	2800      	cmp	r0, #0
    4116:	d1e0      	bne.n	40da <mbedtls_mpi_shrink+0x64>
    4118:	e7b7      	b.n	408a <mbedtls_mpi_shrink+0x14>
/home/aom1/Work/Linux/target/STM32MP1-DK2/bootloader/optee-os-custom/lib/libmbedtls/mbedtls/library/bignum.c:222
    411a:	68a8      	ldr	r0, [r5, #8]
    411c:	f002 fd44 	bl	6ba8 <free>
    4120:	e7ef      	b.n	4102 <mbedtls_mpi_shrink+0x8c>
    4122:	bf00      	nop
    4124:	00004ffe 	.word	0x00004ffe
    4128:	0000003c 	.word	0x0000003c

0000412c <mbedtls_mpi_copy>:
mbedtls_mpi_copy():
/home/aom1/Work/Linux/target/STM32MP1-DK2/bootloader/optee-os-custom/lib/libmbedtls/mbedtls/library/bignum.c:268
    412c:	4288      	cmp	r0, r1
/home/aom1/Work/Linux/target/STM32MP1-DK2/bootloader/optee-os-custom/lib/libmbedtls/mbedtls/library/bignum.c:262
    412e:	b570      	push	{r4, r5, r6, lr}
    4130:	4605      	mov	r5, r0
    4132:	460e      	mov	r6, r1
/home/aom1/Work/Linux/target/STM32MP1-DK2/bootloader/optee-os-custom/lib/libmbedtls/mbedtls/library/bignum.c:268
    4134:	d00a      	beq.n	414c <mbedtls_mpi_copy+0x20>
/home/aom1/Work/Linux/target/STM32MP1-DK2/bootloader/optee-os-custom/lib/libmbedtls/mbedtls/library/bignum.c:271
    4136:	684c      	ldr	r4, [r1, #4]
/home/aom1/Work/Linux/target/STM32MP1-DK2/bootloader/optee-os-custom/lib/libmbedtls/mbedtls/library/bignum.c:273
    4138:	6840      	ldr	r0, [r0, #4]
/home/aom1/Work/Linux/target/STM32MP1-DK2/bootloader/optee-os-custom/lib/libmbedtls/mbedtls/library/bignum.c:271
    413a:	b96c      	cbnz	r4, 4158 <mbedtls_mpi_copy+0x2c>
/home/aom1/Work/Linux/target/STM32MP1-DK2/bootloader/optee-os-custom/lib/libmbedtls/mbedtls/library/bignum.c:273
    413c:	b1d0      	cbz	r0, 4174 <mbedtls_mpi_copy+0x48>
/home/aom1/Work/Linux/target/STM32MP1-DK2/bootloader/optee-os-custom/lib/libmbedtls/mbedtls/library/bignum.c:275
    413e:	2301      	movs	r3, #1
/home/aom1/Work/Linux/target/STM32MP1-DK2/bootloader/optee-os-custom/lib/libmbedtls/mbedtls/library/bignum.c:276
    4140:	4621      	mov	r1, r4
    4142:	0082      	lsls	r2, r0, #2
/home/aom1/Work/Linux/target/STM32MP1-DK2/bootloader/optee-os-custom/lib/libmbedtls/mbedtls/library/bignum.c:275
    4144:	802b      	strh	r3, [r5, #0]
/home/aom1/Work/Linux/target/STM32MP1-DK2/bootloader/optee-os-custom/lib/libmbedtls/mbedtls/library/bignum.c:276
    4146:	68a8      	ldr	r0, [r5, #8]
    4148:	f002 fee3 	bl	6f12 <memset>
/home/aom1/Work/Linux/target/STM32MP1-DK2/bootloader/optee-os-custom/lib/libmbedtls/mbedtls/library/bignum.c:269
    414c:	2000      	movs	r0, #0
    414e:	e011      	b.n	4174 <mbedtls_mpi_copy+0x48>
/home/aom1/Work/Linux/target/STM32MP1-DK2/bootloader/optee-os-custom/lib/libmbedtls/mbedtls/library/bignum.c:282
    4150:	68b3      	ldr	r3, [r6, #8]
    4152:	f853 3024 	ldr.w	r3, [r3, r4, lsl #2]
    4156:	b913      	cbnz	r3, 415e <mbedtls_mpi_copy+0x32>
/home/aom1/Work/Linux/target/STM32MP1-DK2/bootloader/optee-os-custom/lib/libmbedtls/mbedtls/library/bignum.c:281 (discriminator 2)
    4158:	3c01      	subs	r4, #1
    415a:	2c00      	cmp	r4, #0
    415c:	d1f8      	bne.n	4150 <mbedtls_mpi_copy+0x24>
/home/aom1/Work/Linux/target/STM32MP1-DK2/bootloader/optee-os-custom/lib/libmbedtls/mbedtls/library/bignum.c:286
    415e:	f9b6 3000 	ldrsh.w	r3, [r6]
/home/aom1/Work/Linux/target/STM32MP1-DK2/bootloader/optee-os-custom/lib/libmbedtls/mbedtls/library/bignum.c:284
    4162:	3401      	adds	r4, #1
/home/aom1/Work/Linux/target/STM32MP1-DK2/bootloader/optee-os-custom/lib/libmbedtls/mbedtls/library/bignum.c:288
    4164:	4284      	cmp	r4, r0
/home/aom1/Work/Linux/target/STM32MP1-DK2/bootloader/optee-os-custom/lib/libmbedtls/mbedtls/library/bignum.c:286
    4166:	802b      	strh	r3, [r5, #0]
/home/aom1/Work/Linux/target/STM32MP1-DK2/bootloader/optee-os-custom/lib/libmbedtls/mbedtls/library/bignum.c:288
    4168:	d905      	bls.n	4176 <mbedtls_mpi_copy+0x4a>
/home/aom1/Work/Linux/target/STM32MP1-DK2/bootloader/optee-os-custom/lib/libmbedtls/mbedtls/library/bignum.c:290
    416a:	4621      	mov	r1, r4
    416c:	4628      	mov	r0, r5
    416e:	f7ff ff1b 	bl	3fa8 <mbedtls_mpi_grow>
    4172:	b140      	cbz	r0, 4186 <mbedtls_mpi_copy+0x5a>
/home/aom1/Work/Linux/target/STM32MP1-DK2/bootloader/optee-os-custom/lib/libmbedtls/mbedtls/library/bignum.c:302
    4174:	bd70      	pop	{r4, r5, r6, pc}
/home/aom1/Work/Linux/target/STM32MP1-DK2/bootloader/optee-os-custom/lib/libmbedtls/mbedtls/library/bignum.c:294
    4176:	1b02      	subs	r2, r0, r4
    4178:	2100      	movs	r1, #0
    417a:	68a8      	ldr	r0, [r5, #8]
    417c:	0092      	lsls	r2, r2, #2
    417e:	eb00 0084 	add.w	r0, r0, r4, lsl #2
    4182:	f002 fec6 	bl	6f12 <memset>
/home/aom1/Work/Linux/target/STM32MP1-DK2/bootloader/optee-os-custom/lib/libmbedtls/mbedtls/library/bignum.c:297
    4186:	00a2      	lsls	r2, r4, #2
    4188:	68b1      	ldr	r1, [r6, #8]
    418a:	68a8      	ldr	r0, [r5, #8]
    418c:	f002 fdd6 	bl	6d3c <memcpy>
    4190:	e7dc      	b.n	414c <mbedtls_mpi_copy+0x20>

00004192 <mbedtls_mpi_swap>:
mbedtls_mpi_swap():
/home/aom1/Work/Linux/target/STM32MP1-DK2/bootloader/optee-os-custom/lib/libmbedtls/mbedtls/library/bignum.c:308
    4192:	b5f0      	push	{r4, r5, r6, r7, lr}
    4194:	b085      	sub	sp, #20
/home/aom1/Work/Linux/target/STM32MP1-DK2/bootloader/optee-os-custom/lib/libmbedtls/mbedtls/library/bignum.c:313
    4196:	270c      	movs	r7, #12
    4198:	ad01      	add	r5, sp, #4
/home/aom1/Work/Linux/target/STM32MP1-DK2/bootloader/optee-os-custom/lib/libmbedtls/mbedtls/library/bignum.c:308
    419a:	460c      	mov	r4, r1
    419c:	4606      	mov	r6, r0
/home/aom1/Work/Linux/target/STM32MP1-DK2/bootloader/optee-os-custom/lib/libmbedtls/mbedtls/library/bignum.c:313
    419e:	463a      	mov	r2, r7
    41a0:	4601      	mov	r1, r0
    41a2:	4628      	mov	r0, r5
    41a4:	f002 fdca 	bl	6d3c <memcpy>
/home/aom1/Work/Linux/target/STM32MP1-DK2/bootloader/optee-os-custom/lib/libmbedtls/mbedtls/library/bignum.c:314
    41a8:	463a      	mov	r2, r7
    41aa:	4621      	mov	r1, r4
    41ac:	4630      	mov	r0, r6
    41ae:	f002 fdc5 	bl	6d3c <memcpy>
/home/aom1/Work/Linux/target/STM32MP1-DK2/bootloader/optee-os-custom/lib/libmbedtls/mbedtls/library/bignum.c:315
    41b2:	463a      	mov	r2, r7
    41b4:	4629      	mov	r1, r5
    41b6:	4620      	mov	r0, r4
    41b8:	f002 fdc0 	bl	6d3c <memcpy>
/home/aom1/Work/Linux/target/STM32MP1-DK2/bootloader/optee-os-custom/lib/libmbedtls/mbedtls/library/bignum.c:316
    41bc:	b005      	add	sp, #20
    41be:	bdf0      	pop	{r4, r5, r6, r7, pc}

000041c0 <mbedtls_mpi_safe_cond_assign>:
mbedtls_mpi_safe_cond_assign():
/home/aom1/Work/Linux/target/STM32MP1-DK2/bootloader/optee-os-custom/lib/libmbedtls/mbedtls/library/bignum.c:385
    41c0:	e92d 41f0 	stmdb	sp!, {r4, r5, r6, r7, r8, lr}
    41c4:	460d      	mov	r5, r1
/home/aom1/Work/Linux/target/STM32MP1-DK2/bootloader/optee-os-custom/lib/libmbedtls/mbedtls/library/bignum.c:408
    41c6:	6849      	ldr	r1, [r1, #4]
/home/aom1/Work/Linux/target/STM32MP1-DK2/bootloader/optee-os-custom/lib/libmbedtls/mbedtls/library/bignum.c:385
    41c8:	4606      	mov	r6, r0
    41ca:	4614      	mov	r4, r2
/home/aom1/Work/Linux/target/STM32MP1-DK2/bootloader/optee-os-custom/lib/libmbedtls/mbedtls/library/bignum.c:408
    41cc:	f7ff feec 	bl	3fa8 <mbedtls_mpi_grow>
    41d0:	4607      	mov	r7, r0
    41d2:	b9f0      	cbnz	r0, 4212 <mbedtls_mpi_safe_cond_assign+0x52>
/home/aom1/Work/Linux/target/STM32MP1-DK2/bootloader/optee-os-custom/lib/libmbedtls/mbedtls/library/bignum.c:410 (discriminator 2)
    41d4:	f9b6 2000 	ldrsh.w	r2, [r6]
/home/aom1/Work/Linux/target/STM32MP1-DK2/bootloader/optee-os-custom/lib/libmbedtls/mbedtls/library/bignum.c:400 (discriminator 2)
    41d8:	4263      	negs	r3, r4
    41da:	431c      	orrs	r4, r3
/home/aom1/Work/Linux/target/STM32MP1-DK2/bootloader/optee-os-custom/lib/libmbedtls/mbedtls/library/bignum.c:410 (discriminator 2)
    41dc:	f9b5 3000 	ldrsh.w	r3, [r5]
mpi_safe_cond_select_sign():
/home/aom1/Work/Linux/target/STM32MP1-DK2/bootloader/optee-os-custom/lib/libmbedtls/mbedtls/library/bignum.c:335 (discriminator 2)
    41e0:	3201      	adds	r2, #1
mbedtls_mpi_safe_cond_assign():
/home/aom1/Work/Linux/target/STM32MP1-DK2/bootloader/optee-os-custom/lib/libmbedtls/mbedtls/library/bignum.c:400 (discriminator 2)
    41e2:	f3c4 14c0 	ubfx	r4, r4, #7, #1
/home/aom1/Work/Linux/target/STM32MP1-DK2/bootloader/optee-os-custom/lib/libmbedtls/mbedtls/library/bignum.c:412 (discriminator 2)
    41e6:	f8d6 8008 	ldr.w	r8, [r6, #8]
mpi_safe_cond_select_sign():
/home/aom1/Work/Linux/target/STM32MP1-DK2/bootloader/optee-os-custom/lib/libmbedtls/mbedtls/library/bignum.c:336 (discriminator 2)
    41ea:	3301      	adds	r3, #1
/home/aom1/Work/Linux/target/STM32MP1-DK2/bootloader/optee-os-custom/lib/libmbedtls/mbedtls/library/bignum.c:345 (discriminator 2)
    41ec:	4053      	eors	r3, r2
    41ee:	ea03 0344 	and.w	r3, r3, r4, lsl #1
mbedtls_mpi_safe_cond_assign():
/home/aom1/Work/Linux/target/STM32MP1-DK2/bootloader/optee-os-custom/lib/libmbedtls/mbedtls/library/bignum.c:412 (discriminator 2)
    41f2:	4641      	mov	r1, r8
mpi_safe_cond_select_sign():
/home/aom1/Work/Linux/target/STM32MP1-DK2/bootloader/optee-os-custom/lib/libmbedtls/mbedtls/library/bignum.c:345 (discriminator 2)
    41f4:	4053      	eors	r3, r2
mbedtls_mpi_safe_cond_assign():
/home/aom1/Work/Linux/target/STM32MP1-DK2/bootloader/optee-os-custom/lib/libmbedtls/mbedtls/library/bignum.c:412 (discriminator 2)
    41f6:	6868      	ldr	r0, [r5, #4]
mpi_safe_cond_select_sign():
/home/aom1/Work/Linux/target/STM32MP1-DK2/bootloader/optee-os-custom/lib/libmbedtls/mbedtls/library/bignum.c:345 (discriminator 2)
    41f8:	3b01      	subs	r3, #1
mbedtls_mpi_safe_cond_assign():
/home/aom1/Work/Linux/target/STM32MP1-DK2/bootloader/optee-os-custom/lib/libmbedtls/mbedtls/library/bignum.c:410 (discriminator 2)
    41fa:	8033      	strh	r3, [r6, #0]
/home/aom1/Work/Linux/target/STM32MP1-DK2/bootloader/optee-os-custom/lib/libmbedtls/mbedtls/library/bignum.c:412 (discriminator 2)
    41fc:	4623      	mov	r3, r4
    41fe:	68aa      	ldr	r2, [r5, #8]
/home/aom1/Work/Linux/target/STM32MP1-DK2/bootloader/optee-os-custom/lib/libmbedtls/mbedtls/library/bignum.c:415 (discriminator 2)
    4200:	3c01      	subs	r4, #1
/home/aom1/Work/Linux/target/STM32MP1-DK2/bootloader/optee-os-custom/lib/libmbedtls/mbedtls/library/bignum.c:412 (discriminator 2)
    4202:	f7ff fbc3 	bl	398c <mpi_safe_cond_assign>
/home/aom1/Work/Linux/target/STM32MP1-DK2/bootloader/optee-os-custom/lib/libmbedtls/mbedtls/library/bignum.c:414 (discriminator 2)
    4206:	686b      	ldr	r3, [r5, #4]
    4208:	eb08 0183 	add.w	r1, r8, r3, lsl #2
/home/aom1/Work/Linux/target/STM32MP1-DK2/bootloader/optee-os-custom/lib/libmbedtls/mbedtls/library/bignum.c:414 (discriminator 1)
    420c:	6872      	ldr	r2, [r6, #4]
    420e:	429a      	cmp	r2, r3
    4210:	d802      	bhi.n	4218 <mbedtls_mpi_safe_cond_assign+0x58>
/home/aom1/Work/Linux/target/STM32MP1-DK2/bootloader/optee-os-custom/lib/libmbedtls/mbedtls/library/bignum.c:419
    4212:	4638      	mov	r0, r7
    4214:	e8bd 81f0 	ldmia.w	sp!, {r4, r5, r6, r7, r8, pc}
/home/aom1/Work/Linux/target/STM32MP1-DK2/bootloader/optee-os-custom/lib/libmbedtls/mbedtls/library/bignum.c:415 (discriminator 3)
    4218:	680a      	ldr	r2, [r1, #0]
/home/aom1/Work/Linux/target/STM32MP1-DK2/bootloader/optee-os-custom/lib/libmbedtls/mbedtls/library/bignum.c:414 (discriminator 3)
    421a:	3301      	adds	r3, #1
/home/aom1/Work/Linux/target/STM32MP1-DK2/bootloader/optee-os-custom/lib/libmbedtls/mbedtls/library/bignum.c:415 (discriminator 3)
    421c:	4022      	ands	r2, r4
    421e:	f841 2b04 	str.w	r2, [r1], #4
/home/aom1/Work/Linux/target/STM32MP1-DK2/bootloader/optee-os-custom/lib/libmbedtls/mbedtls/library/bignum.c:414 (discriminator 3)
    4222:	e7f3      	b.n	420c <mbedtls_mpi_safe_cond_assign+0x4c>

00004224 <mbedtls_mpi_safe_cond_swap>:
mbedtls_mpi_safe_cond_swap():
/home/aom1/Work/Linux/target/STM32MP1-DK2/bootloader/optee-os-custom/lib/libmbedtls/mbedtls/library/bignum.c:436
    4224:	4288      	cmp	r0, r1
/home/aom1/Work/Linux/target/STM32MP1-DK2/bootloader/optee-os-custom/lib/libmbedtls/mbedtls/library/bignum.c:428
    4226:	b5f8      	push	{r3, r4, r5, r6, r7, lr}
    4228:	4605      	mov	r5, r0
    422a:	460c      	mov	r4, r1
    422c:	4616      	mov	r6, r2
/home/aom1/Work/Linux/target/STM32MP1-DK2/bootloader/optee-os-custom/lib/libmbedtls/mbedtls/library/bignum.c:436
    422e:	d101      	bne.n	4234 <mbedtls_mpi_safe_cond_swap+0x10>
/home/aom1/Work/Linux/target/STM32MP1-DK2/bootloader/optee-os-custom/lib/libmbedtls/mbedtls/library/bignum.c:437
    4230:	2000      	movs	r0, #0
/home/aom1/Work/Linux/target/STM32MP1-DK2/bootloader/optee-os-custom/lib/libmbedtls/mbedtls/library/bignum.c:472
    4232:	bdf8      	pop	{r3, r4, r5, r6, r7, pc}
/home/aom1/Work/Linux/target/STM32MP1-DK2/bootloader/optee-os-custom/lib/libmbedtls/mbedtls/library/bignum.c:455
    4234:	6849      	ldr	r1, [r1, #4]
    4236:	f7ff feb7 	bl	3fa8 <mbedtls_mpi_grow>
    423a:	2800      	cmp	r0, #0
    423c:	d1f9      	bne.n	4232 <mbedtls_mpi_safe_cond_swap+0xe>
/home/aom1/Work/Linux/target/STM32MP1-DK2/bootloader/optee-os-custom/lib/libmbedtls/mbedtls/library/bignum.c:456 (discriminator 2)
    423e:	6869      	ldr	r1, [r5, #4]
    4240:	4620      	mov	r0, r4
    4242:	f7ff feb1 	bl	3fa8 <mbedtls_mpi_grow>
    4246:	2800      	cmp	r0, #0
    4248:	d1f3      	bne.n	4232 <mbedtls_mpi_safe_cond_swap+0xe>
/home/aom1/Work/Linux/target/STM32MP1-DK2/bootloader/optee-os-custom/lib/libmbedtls/mbedtls/library/bignum.c:459 (discriminator 2)
    424a:	f9b4 2000 	ldrsh.w	r2, [r4]
/home/aom1/Work/Linux/target/STM32MP1-DK2/bootloader/optee-os-custom/lib/libmbedtls/mbedtls/library/bignum.c:447 (discriminator 2)
    424e:	4273      	negs	r3, r6
    4250:	ea46 0103 	orr.w	r1, r6, r3
/home/aom1/Work/Linux/target/STM32MP1-DK2/bootloader/optee-os-custom/lib/libmbedtls/mbedtls/library/bignum.c:458 (discriminator 2)
    4254:	f9b5 3000 	ldrsh.w	r3, [r5]
mpi_safe_cond_select_sign():
/home/aom1/Work/Linux/target/STM32MP1-DK2/bootloader/optee-os-custom/lib/libmbedtls/mbedtls/library/bignum.c:336 (discriminator 2)
    4258:	3201      	adds	r2, #1
mbedtls_mpi_safe_cond_swap():
/home/aom1/Work/Linux/target/STM32MP1-DK2/bootloader/optee-os-custom/lib/libmbedtls/mbedtls/library/bignum.c:449 (discriminator 2)
    425a:	f3c1 16c0 	ubfx	r6, r1, #7, #1
    425e:	f341 11c0 	sbfx	r1, r1, #7, #1
mpi_safe_cond_select_sign():
/home/aom1/Work/Linux/target/STM32MP1-DK2/bootloader/optee-os-custom/lib/libmbedtls/mbedtls/library/bignum.c:335 (discriminator 2)
    4262:	3301      	adds	r3, #1
/home/aom1/Work/Linux/target/STM32MP1-DK2/bootloader/optee-os-custom/lib/libmbedtls/mbedtls/library/bignum.c:345 (discriminator 2)
    4264:	405a      	eors	r2, r3
    4266:	ea02 0246 	and.w	r2, r2, r6, lsl #1
    426a:	405a      	eors	r2, r3
    426c:	3a01      	subs	r2, #1
mbedtls_mpi_safe_cond_swap():
/home/aom1/Work/Linux/target/STM32MP1-DK2/bootloader/optee-os-custom/lib/libmbedtls/mbedtls/library/bignum.c:459 (discriminator 2)
    426e:	802a      	strh	r2, [r5, #0]
/home/aom1/Work/Linux/target/STM32MP1-DK2/bootloader/optee-os-custom/lib/libmbedtls/mbedtls/library/bignum.c:460 (discriminator 2)
    4270:	f9b4 2000 	ldrsh.w	r2, [r4]
mpi_safe_cond_select_sign():
/home/aom1/Work/Linux/target/STM32MP1-DK2/bootloader/optee-os-custom/lib/libmbedtls/mbedtls/library/bignum.c:335 (discriminator 2)
    4274:	3201      	adds	r2, #1
/home/aom1/Work/Linux/target/STM32MP1-DK2/bootloader/optee-os-custom/lib/libmbedtls/mbedtls/library/bignum.c:345 (discriminator 2)
    4276:	4053      	eors	r3, r2
    4278:	ea03 0346 	and.w	r3, r3, r6, lsl #1
mbedtls_mpi_safe_cond_swap():
/home/aom1/Work/Linux/target/STM32MP1-DK2/bootloader/optee-os-custom/lib/libmbedtls/mbedtls/library/bignum.c:466 (discriminator 2)
    427c:	3e01      	subs	r6, #1
mpi_safe_cond_select_sign():
/home/aom1/Work/Linux/target/STM32MP1-DK2/bootloader/optee-os-custom/lib/libmbedtls/mbedtls/library/bignum.c:345 (discriminator 2)
    427e:	4053      	eors	r3, r2
    4280:	3b01      	subs	r3, #1
mbedtls_mpi_safe_cond_swap():
/home/aom1/Work/Linux/target/STM32MP1-DK2/bootloader/optee-os-custom/lib/libmbedtls/mbedtls/library/bignum.c:460 (discriminator 2)
    4282:	8023      	strh	r3, [r4, #0]
/home/aom1/Work/Linux/target/STM32MP1-DK2/bootloader/optee-os-custom/lib/libmbedtls/mbedtls/library/bignum.c:463 (discriminator 1)
    4284:	686b      	ldr	r3, [r5, #4]
    4286:	4283      	cmp	r3, r0
    4288:	d9d2      	bls.n	4230 <mbedtls_mpi_safe_cond_swap+0xc>
/home/aom1/Work/Linux/target/STM32MP1-DK2/bootloader/optee-os-custom/lib/libmbedtls/mbedtls/library/bignum.c:466 (discriminator 3)
    428a:	68a7      	ldr	r7, [r4, #8]
/home/aom1/Work/Linux/target/STM32MP1-DK2/bootloader/optee-os-custom/lib/libmbedtls/mbedtls/library/bignum.c:465 (discriminator 3)
    428c:	f8d5 c008 	ldr.w	ip, [r5, #8]
/home/aom1/Work/Linux/target/STM32MP1-DK2/bootloader/optee-os-custom/lib/libmbedtls/mbedtls/library/bignum.c:466 (discriminator 3)
    4290:	f857 3020 	ldr.w	r3, [r7, r0, lsl #2]
/home/aom1/Work/Linux/target/STM32MP1-DK2/bootloader/optee-os-custom/lib/libmbedtls/mbedtls/library/bignum.c:465 (discriminator 3)
    4294:	f85c 2020 	ldr.w	r2, [ip, r0, lsl #2]
/home/aom1/Work/Linux/target/STM32MP1-DK2/bootloader/optee-os-custom/lib/libmbedtls/mbedtls/library/bignum.c:466 (discriminator 3)
    4298:	400b      	ands	r3, r1
    429a:	ea06 0e02 	and.w	lr, r6, r2
/home/aom1/Work/Linux/target/STM32MP1-DK2/bootloader/optee-os-custom/lib/libmbedtls/mbedtls/library/bignum.c:467 (discriminator 3)
    429e:	400a      	ands	r2, r1
/home/aom1/Work/Linux/target/STM32MP1-DK2/bootloader/optee-os-custom/lib/libmbedtls/mbedtls/library/bignum.c:466 (discriminator 3)
    42a0:	ea43 030e 	orr.w	r3, r3, lr
    42a4:	f84c 3020 	str.w	r3, [ip, r0, lsl #2]
/home/aom1/Work/Linux/target/STM32MP1-DK2/bootloader/optee-os-custom/lib/libmbedtls/mbedtls/library/bignum.c:467 (discriminator 3)
    42a8:	f857 3020 	ldr.w	r3, [r7, r0, lsl #2]
    42ac:	4033      	ands	r3, r6
    42ae:	4313      	orrs	r3, r2
    42b0:	f847 3020 	str.w	r3, [r7, r0, lsl #2]
/home/aom1/Work/Linux/target/STM32MP1-DK2/bootloader/optee-os-custom/lib/libmbedtls/mbedtls/library/bignum.c:463 (discriminator 3)
    42b4:	3001      	adds	r0, #1
    42b6:	e7e5      	b.n	4284 <mbedtls_mpi_safe_cond_swap+0x60>

000042b8 <mbedtls_mpi_lset>:
mbedtls_mpi_lset():
/home/aom1/Work/Linux/target/STM32MP1-DK2/bootloader/optee-os-custom/lib/libmbedtls/mbedtls/library/bignum.c:478
    42b8:	b570      	push	{r4, r5, r6, lr}
    42ba:	460e      	mov	r6, r1
/home/aom1/Work/Linux/target/STM32MP1-DK2/bootloader/optee-os-custom/lib/libmbedtls/mbedtls/library/bignum.c:482
    42bc:	2101      	movs	r1, #1
/home/aom1/Work/Linux/target/STM32MP1-DK2/bootloader/optee-os-custom/lib/libmbedtls/mbedtls/library/bignum.c:478
    42be:	4604      	mov	r4, r0
/home/aom1/Work/Linux/target/STM32MP1-DK2/bootloader/optee-os-custom/lib/libmbedtls/mbedtls/library/bignum.c:482
    42c0:	f7ff fe72 	bl	3fa8 <mbedtls_mpi_grow>
    42c4:	4605      	mov	r5, r0
    42c6:	b988      	cbnz	r0, 42ec <mbedtls_mpi_lset+0x34>
/home/aom1/Work/Linux/target/STM32MP1-DK2/bootloader/optee-os-custom/lib/libmbedtls/mbedtls/library/bignum.c:483
    42c8:	6862      	ldr	r2, [r4, #4]
    42ca:	4601      	mov	r1, r0
    42cc:	68a0      	ldr	r0, [r4, #8]
    42ce:	0092      	lsls	r2, r2, #2
    42d0:	f002 fe1f 	bl	6f12 <memset>
/home/aom1/Work/Linux/target/STM32MP1-DK2/bootloader/optee-os-custom/lib/libmbedtls/mbedtls/library/bignum.c:485
    42d4:	68a3      	ldr	r3, [r4, #8]
/home/aom1/Work/Linux/target/STM32MP1-DK2/bootloader/optee-os-custom/lib/libmbedtls/mbedtls/library/bignum.c:486
    42d6:	2e00      	cmp	r6, #0
/home/aom1/Work/Linux/target/STM32MP1-DK2/bootloader/optee-os-custom/lib/libmbedtls/mbedtls/library/bignum.c:485
    42d8:	ea86 72e6 	eor.w	r2, r6, r6, asr #31
    42dc:	eba2 72e6 	sub.w	r2, r2, r6, asr #31
    42e0:	601a      	str	r2, [r3, #0]
/home/aom1/Work/Linux/target/STM32MP1-DK2/bootloader/optee-os-custom/lib/libmbedtls/mbedtls/library/bignum.c:486
    42e2:	bfb4      	ite	lt
    42e4:	f04f 33ff 	movlt.w	r3, #4294967295	; 0xffffffff
    42e8:	2301      	movge	r3, #1
    42ea:	8023      	strh	r3, [r4, #0]
/home/aom1/Work/Linux/target/STM32MP1-DK2/bootloader/optee-os-custom/lib/libmbedtls/mbedtls/library/bignum.c:491
    42ec:	4628      	mov	r0, r5
    42ee:	bd70      	pop	{r4, r5, r6, pc}

000042f0 <mbedtls_mpi_get_bit>:
mbedtls_mpi_get_bit():
/home/aom1/Work/Linux/target/STM32MP1-DK2/bootloader/optee-os-custom/lib/libmbedtls/mbedtls/library/bignum.c:500
    42f0:	6843      	ldr	r3, [r0, #4]
    42f2:	ebb1 1f43 	cmp.w	r1, r3, lsl #5
/home/aom1/Work/Linux/target/STM32MP1-DK2/bootloader/optee-os-custom/lib/libmbedtls/mbedtls/library/bignum.c:503
    42f6:	bf3f      	itttt	cc
    42f8:	094a      	lsrcc	r2, r1, #5
    42fa:	f001 011f 	andcc.w	r1, r1, #31
    42fe:	6883      	ldrcc	r3, [r0, #8]
    4300:	f853 0022 	ldrcc.w	r0, [r3, r2, lsl #2]
    4304:	bf3a      	itte	cc
    4306:	40c8      	lsrcc	r0, r1
    4308:	f000 0001 	andcc.w	r0, r0, #1
/home/aom1/Work/Linux/target/STM32MP1-DK2/bootloader/optee-os-custom/lib/libmbedtls/mbedtls/library/bignum.c:501
    430c:	2000      	movcs	r0, #0
/home/aom1/Work/Linux/target/STM32MP1-DK2/bootloader/optee-os-custom/lib/libmbedtls/mbedtls/library/bignum.c:504
    430e:	4770      	bx	lr

00004310 <mbedtls_mpi_set_bit>:
mbedtls_mpi_set_bit():
/home/aom1/Work/Linux/target/STM32MP1-DK2/bootloader/optee-os-custom/lib/libmbedtls/mbedtls/library/bignum.c:520
    4310:	2a01      	cmp	r2, #1
/home/aom1/Work/Linux/target/STM32MP1-DK2/bootloader/optee-os-custom/lib/libmbedtls/mbedtls/library/bignum.c:514
    4312:	b5f8      	push	{r3, r4, r5, r6, r7, lr}
    4314:	4607      	mov	r7, r0
    4316:	460c      	mov	r4, r1
    4318:	4615      	mov	r5, r2
/home/aom1/Work/Linux/target/STM32MP1-DK2/bootloader/optee-os-custom/lib/libmbedtls/mbedtls/library/bignum.c:516
    431a:	ea4f 1651 	mov.w	r6, r1, lsr #5
/home/aom1/Work/Linux/target/STM32MP1-DK2/bootloader/optee-os-custom/lib/libmbedtls/mbedtls/library/bignum.c:520
    431e:	d81a      	bhi.n	4356 <mbedtls_mpi_set_bit+0x46>
/home/aom1/Work/Linux/target/STM32MP1-DK2/bootloader/optee-os-custom/lib/libmbedtls/mbedtls/library/bignum.c:523
    4320:	6843      	ldr	r3, [r0, #4]
    4322:	ebb1 1f43 	cmp.w	r1, r3, lsl #5
    4326:	d20f      	bcs.n	4348 <mbedtls_mpi_set_bit+0x38>
/home/aom1/Work/Linux/target/STM32MP1-DK2/bootloader/optee-os-custom/lib/libmbedtls/mbedtls/library/bignum.c:531
    4328:	68b9      	ldr	r1, [r7, #8]
/home/aom1/Work/Linux/target/STM32MP1-DK2/bootloader/optee-os-custom/lib/libmbedtls/mbedtls/library/bignum.c:517
    432a:	f004 041f 	and.w	r4, r4, #31
/home/aom1/Work/Linux/target/STM32MP1-DK2/bootloader/optee-os-custom/lib/libmbedtls/mbedtls/library/bignum.c:531
    432e:	2201      	movs	r2, #1
/home/aom1/Work/Linux/target/STM32MP1-DK2/bootloader/optee-os-custom/lib/libmbedtls/mbedtls/library/bignum.c:532
    4330:	2000      	movs	r0, #0
/home/aom1/Work/Linux/target/STM32MP1-DK2/bootloader/optee-os-custom/lib/libmbedtls/mbedtls/library/bignum.c:531
    4332:	f851 3026 	ldr.w	r3, [r1, r6, lsl #2]
    4336:	40a2      	lsls	r2, r4
    4338:	ea23 0302 	bic.w	r3, r3, r2
/home/aom1/Work/Linux/target/STM32MP1-DK2/bootloader/optee-os-custom/lib/libmbedtls/mbedtls/library/bignum.c:532
    433c:	fa05 f404 	lsl.w	r4, r5, r4
    4340:	4323      	orrs	r3, r4
    4342:	f841 3026 	str.w	r3, [r1, r6, lsl #2]
/home/aom1/Work/Linux/target/STM32MP1-DK2/bootloader/optee-os-custom/lib/libmbedtls/mbedtls/library/bignum.c:537
    4346:	bdf8      	pop	{r3, r4, r5, r6, r7, pc}
/home/aom1/Work/Linux/target/STM32MP1-DK2/bootloader/optee-os-custom/lib/libmbedtls/mbedtls/library/bignum.c:525
    4348:	b142      	cbz	r2, 435c <mbedtls_mpi_set_bit+0x4c>
/home/aom1/Work/Linux/target/STM32MP1-DK2/bootloader/optee-os-custom/lib/libmbedtls/mbedtls/library/bignum.c:528
    434a:	1c71      	adds	r1, r6, #1
    434c:	f7ff fe2c 	bl	3fa8 <mbedtls_mpi_grow>
    4350:	2800      	cmp	r0, #0
    4352:	d0e9      	beq.n	4328 <mbedtls_mpi_set_bit+0x18>
    4354:	e7f7      	b.n	4346 <mbedtls_mpi_set_bit+0x36>
/home/aom1/Work/Linux/target/STM32MP1-DK2/bootloader/optee-os-custom/lib/libmbedtls/mbedtls/library/bignum.c:521
    4356:	f06f 0003 	mvn.w	r0, #3
    435a:	e7f4      	b.n	4346 <mbedtls_mpi_set_bit+0x36>
/home/aom1/Work/Linux/target/STM32MP1-DK2/bootloader/optee-os-custom/lib/libmbedtls/mbedtls/library/bignum.c:526
    435c:	4610      	mov	r0, r2
    435e:	e7f2      	b.n	4346 <mbedtls_mpi_set_bit+0x36>

00004360 <mbedtls_mpi_lsb>:
mbedtls_mpi_lsb():
/home/aom1/Work/Linux/target/STM32MP1-DK2/bootloader/optee-os-custom/lib/libmbedtls/mbedtls/library/bignum.c:544
    4360:	2100      	movs	r1, #0
/home/aom1/Work/Linux/target/STM32MP1-DK2/bootloader/optee-os-custom/lib/libmbedtls/mbedtls/library/bignum.c:543
    4362:	b5f0      	push	{r4, r5, r6, r7, lr}
/home/aom1/Work/Linux/target/STM32MP1-DK2/bootloader/optee-os-custom/lib/libmbedtls/mbedtls/library/bignum.c:547
    4364:	460a      	mov	r2, r1
    4366:	6845      	ldr	r5, [r0, #4]
/home/aom1/Work/Linux/target/STM32MP1-DK2/bootloader/optee-os-custom/lib/libmbedtls/mbedtls/library/bignum.c:543
    4368:	4604      	mov	r4, r0
/home/aom1/Work/Linux/target/STM32MP1-DK2/bootloader/optee-os-custom/lib/libmbedtls/mbedtls/library/bignum.c:547 (discriminator 1)
    436a:	4295      	cmp	r5, r2
    436c:	d101      	bne.n	4372 <mbedtls_mpi_lsb+0x12>
/home/aom1/Work/Linux/target/STM32MP1-DK2/bootloader/optee-os-custom/lib/libmbedtls/mbedtls/library/bignum.c:552
    436e:	2000      	movs	r0, #0
/home/aom1/Work/Linux/target/STM32MP1-DK2/bootloader/optee-os-custom/lib/libmbedtls/mbedtls/library/bignum.c:553
    4370:	bdf0      	pop	{r4, r5, r6, r7, pc}
/home/aom1/Work/Linux/target/STM32MP1-DK2/bootloader/optee-os-custom/lib/libmbedtls/mbedtls/library/bignum.c:549
    4372:	68a3      	ldr	r3, [r4, #8]
    4374:	f853 6022 	ldr.w	r6, [r3, r2, lsl #2]
/home/aom1/Work/Linux/target/STM32MP1-DK2/bootloader/optee-os-custom/lib/libmbedtls/mbedtls/library/bignum.c:548
    4378:	2300      	movs	r3, #0
/home/aom1/Work/Linux/target/STM32MP1-DK2/bootloader/optee-os-custom/lib/libmbedtls/mbedtls/library/bignum.c:549
    437a:	fa26 f703 	lsr.w	r7, r6, r3
    437e:	07ff      	lsls	r7, r7, #31
    4380:	eb01 0003 	add.w	r0, r1, r3
    4384:	d4f4      	bmi.n	4370 <mbedtls_mpi_lsb+0x10>
/home/aom1/Work/Linux/target/STM32MP1-DK2/bootloader/optee-os-custom/lib/libmbedtls/mbedtls/library/bignum.c:548 (discriminator 2)
    4386:	3301      	adds	r3, #1
    4388:	18c8      	adds	r0, r1, r3
    438a:	2b20      	cmp	r3, #32
    438c:	d1f5      	bne.n	437a <mbedtls_mpi_lsb+0x1a>
/home/aom1/Work/Linux/target/STM32MP1-DK2/bootloader/optee-os-custom/lib/libmbedtls/mbedtls/library/bignum.c:547 (discriminator 2)
    438e:	3201      	adds	r2, #1
/home/aom1/Work/Linux/target/STM32MP1-DK2/bootloader/optee-os-custom/lib/libmbedtls/mbedtls/library/bignum.c:548 (discriminator 2)
    4390:	4601      	mov	r1, r0
    4392:	e7ea      	b.n	436a <mbedtls_mpi_lsb+0xa>

00004394 <mbedtls_mpi_bitlen>:
mbedtls_mpi_bitlen():
/home/aom1/Work/Linux/target/STM32MP1-DK2/bootloader/optee-os-custom/lib/libmbedtls/mbedtls/library/bignum.c:577
    4394:	4602      	mov	r2, r0
/home/aom1/Work/Linux/target/STM32MP1-DK2/bootloader/optee-os-custom/lib/libmbedtls/mbedtls/library/bignum.c:580
    4396:	6840      	ldr	r0, [r0, #4]
    4398:	b180      	cbz	r0, 43bc <mbedtls_mpi_bitlen+0x28>
/home/aom1/Work/Linux/target/STM32MP1-DK2/bootloader/optee-os-custom/lib/libmbedtls/mbedtls/library/bignum.c:584
    439a:	6892      	ldr	r2, [r2, #8]
/home/aom1/Work/Linux/target/STM32MP1-DK2/bootloader/optee-os-custom/lib/libmbedtls/mbedtls/library/bignum.c:583
    439c:	1e43      	subs	r3, r0, #1
/home/aom1/Work/Linux/target/STM32MP1-DK2/bootloader/optee-os-custom/lib/libmbedtls/mbedtls/library/bignum.c:583 (discriminator 1)
    439e:	b973      	cbnz	r3, 43be <mbedtls_mpi_bitlen+0x2a>
/home/aom1/Work/Linux/target/STM32MP1-DK2/bootloader/optee-os-custom/lib/libmbedtls/mbedtls/library/bignum.c:587
    43a0:	f852 1023 	ldr.w	r1, [r2, r3, lsl #2]
mbedtls_clz():
/home/aom1/Work/Linux/target/STM32MP1-DK2/bootloader/optee-os-custom/lib/libmbedtls/mbedtls/library/bignum.c:563
    43a4:	2000      	movs	r0, #0
/home/aom1/Work/Linux/target/STM32MP1-DK2/bootloader/optee-os-custom/lib/libmbedtls/mbedtls/library/bignum.c:561
    43a6:	f04f 4200 	mov.w	r2, #2147483648	; 0x80000000
/home/aom1/Work/Linux/target/STM32MP1-DK2/bootloader/optee-os-custom/lib/libmbedtls/mbedtls/library/bignum.c:565
    43aa:	4211      	tst	r1, r2
    43ac:	d103      	bne.n	43b6 <mbedtls_mpi_bitlen+0x22>
/home/aom1/Work/Linux/target/STM32MP1-DK2/bootloader/optee-os-custom/lib/libmbedtls/mbedtls/library/bignum.c:567
    43ae:	0852      	lsrs	r2, r2, #1
/home/aom1/Work/Linux/target/STM32MP1-DK2/bootloader/optee-os-custom/lib/libmbedtls/mbedtls/library/bignum.c:563
    43b0:	3001      	adds	r0, #1
    43b2:	2820      	cmp	r0, #32
    43b4:	d1f9      	bne.n	43aa <mbedtls_mpi_bitlen+0x16>
mbedtls_mpi_bitlen():
/home/aom1/Work/Linux/target/STM32MP1-DK2/bootloader/optee-os-custom/lib/libmbedtls/mbedtls/library/bignum.c:589
    43b6:	3301      	adds	r3, #1
    43b8:	ebc0 1043 	rsb	r0, r0, r3, lsl #5
/home/aom1/Work/Linux/target/STM32MP1-DK2/bootloader/optee-os-custom/lib/libmbedtls/mbedtls/library/bignum.c:590
    43bc:	4770      	bx	lr
/home/aom1/Work/Linux/target/STM32MP1-DK2/bootloader/optee-os-custom/lib/libmbedtls/mbedtls/library/bignum.c:584
    43be:	f852 1023 	ldr.w	r1, [r2, r3, lsl #2]
    43c2:	2900      	cmp	r1, #0
    43c4:	d1ec      	bne.n	43a0 <mbedtls_mpi_bitlen+0xc>
/home/aom1/Work/Linux/target/STM32MP1-DK2/bootloader/optee-os-custom/lib/libmbedtls/mbedtls/library/bignum.c:583 (discriminator 2)
    43c6:	3b01      	subs	r3, #1
    43c8:	e7e9      	b.n	439e <mbedtls_mpi_bitlen+0xa>

000043ca <mbedtls_mpi_size>:
mbedtls_mpi_size():
/home/aom1/Work/Linux/target/STM32MP1-DK2/bootloader/optee-os-custom/lib/libmbedtls/mbedtls/library/bignum.c:596
    43ca:	b508      	push	{r3, lr}
/home/aom1/Work/Linux/target/STM32MP1-DK2/bootloader/optee-os-custom/lib/libmbedtls/mbedtls/library/bignum.c:597
    43cc:	f7ff ffe2 	bl	4394 <mbedtls_mpi_bitlen>
    43d0:	3007      	adds	r0, #7
/home/aom1/Work/Linux/target/STM32MP1-DK2/bootloader/optee-os-custom/lib/libmbedtls/mbedtls/library/bignum.c:598
    43d2:	08c0      	lsrs	r0, r0, #3
    43d4:	bd08      	pop	{r3, pc}

000043d6 <mbedtls_mpi_read_binary_le>:
mbedtls_mpi_read_binary_le():
/home/aom1/Work/Linux/target/STM32MP1-DK2/bootloader/optee-os-custom/lib/libmbedtls/mbedtls/library/bignum.c:992
    43d6:	b5f8      	push	{r3, r4, r5, r6, r7, lr}
    43d8:	460e      	mov	r6, r1
/home/aom1/Work/Linux/target/STM32MP1-DK2/bootloader/optee-os-custom/lib/libmbedtls/mbedtls/library/bignum.c:995
    43da:	f012 0103 	ands.w	r1, r2, #3
/home/aom1/Work/Linux/target/STM32MP1-DK2/bootloader/optee-os-custom/lib/libmbedtls/mbedtls/library/bignum.c:992
    43de:	4605      	mov	r5, r0
/home/aom1/Work/Linux/target/STM32MP1-DK2/bootloader/optee-os-custom/lib/libmbedtls/mbedtls/library/bignum.c:995
    43e0:	bf18      	it	ne
    43e2:	2101      	movne	r1, #1
/home/aom1/Work/Linux/target/STM32MP1-DK2/bootloader/optee-os-custom/lib/libmbedtls/mbedtls/library/bignum.c:992
    43e4:	4614      	mov	r4, r2
/home/aom1/Work/Linux/target/STM32MP1-DK2/bootloader/optee-os-custom/lib/libmbedtls/mbedtls/library/bignum.c:998
    43e6:	eb01 0192 	add.w	r1, r1, r2, lsr #2
    43ea:	f7ff fe29 	bl	4040 <mbedtls_mpi_resize_clear>
    43ee:	b190      	cbz	r0, 4416 <mbedtls_mpi_read_binary_le+0x40>
/home/aom1/Work/Linux/target/STM32MP1-DK2/bootloader/optee-os-custom/lib/libmbedtls/mbedtls/library/bignum.c:1011
    43f0:	bdf8      	pop	{r3, r4, r5, r6, r7, pc}
/home/aom1/Work/Linux/target/STM32MP1-DK2/bootloader/optee-os-custom/lib/libmbedtls/mbedtls/library/bignum.c:1001 (discriminator 3)
    43f2:	00da      	lsls	r2, r3, #3
    43f4:	f023 0703 	bic.w	r7, r3, #3
    43f8:	f002 0218 	and.w	r2, r2, #24
    43fc:	5cf1      	ldrb	r1, [r6, r3]
/home/aom1/Work/Linux/target/STM32MP1-DK2/bootloader/optee-os-custom/lib/libmbedtls/mbedtls/library/bignum.c:1000 (discriminator 3)
    43fe:	3301      	adds	r3, #1
/home/aom1/Work/Linux/target/STM32MP1-DK2/bootloader/optee-os-custom/lib/libmbedtls/mbedtls/library/bignum.c:1001 (discriminator 3)
    4400:	f8d5 c008 	ldr.w	ip, [r5, #8]
    4404:	4091      	lsls	r1, r2
    4406:	f85c 2007 	ldr.w	r2, [ip, r7]
    440a:	430a      	orrs	r2, r1
    440c:	f84c 2007 	str.w	r2, [ip, r7]
/home/aom1/Work/Linux/target/STM32MP1-DK2/bootloader/optee-os-custom/lib/libmbedtls/mbedtls/library/bignum.c:1000 (discriminator 1)
    4410:	42a3      	cmp	r3, r4
    4412:	d1ee      	bne.n	43f2 <mbedtls_mpi_read_binary_le+0x1c>
/home/aom1/Work/Linux/target/STM32MP1-DK2/bootloader/optee-os-custom/lib/libmbedtls/mbedtls/library/bignum.c:1003
    4414:	e7ec      	b.n	43f0 <mbedtls_mpi_read_binary_le+0x1a>
/home/aom1/Work/Linux/target/STM32MP1-DK2/bootloader/optee-os-custom/lib/libmbedtls/mbedtls/library/bignum.c:1000
    4416:	4603      	mov	r3, r0
    4418:	e7fa      	b.n	4410 <mbedtls_mpi_read_binary_le+0x3a>

0000441a <mbedtls_mpi_read_binary>:
mbedtls_mpi_read_binary():
/home/aom1/Work/Linux/target/STM32MP1-DK2/bootloader/optee-os-custom/lib/libmbedtls/mbedtls/library/bignum.c:1017
    441a:	e92d 41f0 	stmdb	sp!, {r4, r5, r6, r7, r8, lr}
/home/aom1/Work/Linux/target/STM32MP1-DK2/bootloader/optee-os-custom/lib/libmbedtls/mbedtls/library/bignum.c:1019
    441e:	f012 0403 	ands.w	r4, r2, #3
    4422:	bf18      	it	ne
    4424:	2401      	movne	r4, #1
/home/aom1/Work/Linux/target/STM32MP1-DK2/bootloader/optee-os-custom/lib/libmbedtls/mbedtls/library/bignum.c:1017
    4426:	4688      	mov	r8, r1
/home/aom1/Work/Linux/target/STM32MP1-DK2/bootloader/optee-os-custom/lib/libmbedtls/mbedtls/library/bignum.c:1019
    4428:	eb04 0492 	add.w	r4, r4, r2, lsr #2
/home/aom1/Work/Linux/target/STM32MP1-DK2/bootloader/optee-os-custom/lib/libmbedtls/mbedtls/library/bignum.c:1017
    442c:	4607      	mov	r7, r0
/home/aom1/Work/Linux/target/STM32MP1-DK2/bootloader/optee-os-custom/lib/libmbedtls/mbedtls/library/bignum.c:1027
    442e:	4621      	mov	r1, r4
/home/aom1/Work/Linux/target/STM32MP1-DK2/bootloader/optee-os-custom/lib/libmbedtls/mbedtls/library/bignum.c:1017
    4430:	4615      	mov	r5, r2
/home/aom1/Work/Linux/target/STM32MP1-DK2/bootloader/optee-os-custom/lib/libmbedtls/mbedtls/library/bignum.c:1027
    4432:	f7ff fe05 	bl	4040 <mbedtls_mpi_resize_clear>
    4436:	4606      	mov	r6, r0
    4438:	b968      	cbnz	r0, 4456 <mbedtls_mpi_read_binary+0x3c>
/home/aom1/Work/Linux/target/STM32MP1-DK2/bootloader/optee-os-custom/lib/libmbedtls/mbedtls/library/bignum.c:1031 (discriminator 2)
    443a:	b165      	cbz	r5, 4456 <mbedtls_mpi_read_binary+0x3c>
/home/aom1/Work/Linux/target/STM32MP1-DK2/bootloader/optee-os-custom/lib/libmbedtls/mbedtls/library/bignum.c:1034
    443c:	68bb      	ldr	r3, [r7, #8]
    443e:	462a      	mov	r2, r5
/home/aom1/Work/Linux/target/STM32MP1-DK2/bootloader/optee-os-custom/lib/libmbedtls/mbedtls/library/bignum.c:1020
    4440:	ebc5 0084 	rsb	r0, r5, r4, lsl #2
/home/aom1/Work/Linux/target/STM32MP1-DK2/bootloader/optee-os-custom/lib/libmbedtls/mbedtls/library/bignum.c:1034
    4444:	4641      	mov	r1, r8
    4446:	4418      	add	r0, r3
    4448:	f002 fc78 	bl	6d3c <memcpy>
/home/aom1/Work/Linux/target/STM32MP1-DK2/bootloader/optee-os-custom/lib/libmbedtls/mbedtls/library/bignum.c:1036
    444c:	68b8      	ldr	r0, [r7, #8]
mpi_bigendian_to_host():
/home/aom1/Work/Linux/target/STM32MP1-DK2/bootloader/optee-os-custom/lib/libmbedtls/mbedtls/library/bignum.c:962
    444e:	b114      	cbz	r4, 4456 <mbedtls_mpi_read_binary+0x3c>
    4450:	4621      	mov	r1, r4
    4452:	f7ff fd12 	bl	3e7a <mpi_bigendian_to_host.part.0>
mbedtls_mpi_read_binary():
/home/aom1/Work/Linux/target/STM32MP1-DK2/bootloader/optee-os-custom/lib/libmbedtls/mbedtls/library/bignum.c:1047
    4456:	4630      	mov	r0, r6
    4458:	e8bd 81f0 	ldmia.w	sp!, {r4, r5, r6, r7, r8, pc}

0000445c <mbedtls_mpi_write_binary_le>:
mbedtls_mpi_write_binary_le():
/home/aom1/Work/Linux/target/STM32MP1-DK2/bootloader/optee-os-custom/lib/libmbedtls/mbedtls/library/bignum.c:1054
    445c:	b5f8      	push	{r3, r4, r5, r6, r7, lr}
    445e:	460e      	mov	r6, r1
/home/aom1/Work/Linux/target/STM32MP1-DK2/bootloader/optee-os-custom/lib/libmbedtls/mbedtls/library/bignum.c:1055
    4460:	6843      	ldr	r3, [r0, #4]
/home/aom1/Work/Linux/target/STM32MP1-DK2/bootloader/optee-os-custom/lib/libmbedtls/mbedtls/library/bignum.c:1059
    4462:	ebb2 0f83 	cmp.w	r2, r3, lsl #2
/home/aom1/Work/Linux/target/STM32MP1-DK2/bootloader/optee-os-custom/lib/libmbedtls/mbedtls/library/bignum.c:1055
    4466:	ea4f 0483 	mov.w	r4, r3, lsl #2
/home/aom1/Work/Linux/target/STM32MP1-DK2/bootloader/optee-os-custom/lib/libmbedtls/mbedtls/library/bignum.c:1059
    446a:	d81b      	bhi.n	44a4 <mbedtls_mpi_write_binary_le+0x48>
    446c:	4613      	mov	r3, r2
/home/aom1/Work/Linux/target/STM32MP1-DK2/bootloader/optee-os-custom/lib/libmbedtls/mbedtls/library/bignum.c:1069 (discriminator 1)
    446e:	42a3      	cmp	r3, r4
    4470:	d10c      	bne.n	448c <mbedtls_mpi_write_binary_le+0x30>
    4472:	4617      	mov	r7, r2
/home/aom1/Work/Linux/target/STM32MP1-DK2/bootloader/optee-os-custom/lib/libmbedtls/mbedtls/library/bignum.c:1076
    4474:	2300      	movs	r3, #0
/home/aom1/Work/Linux/target/STM32MP1-DK2/bootloader/optee-os-custom/lib/libmbedtls/mbedtls/library/bignum.c:1076 (discriminator 1)
    4476:	429f      	cmp	r7, r3
    4478:	d116      	bne.n	44a8 <mbedtls_mpi_write_binary_le+0x4c>
/home/aom1/Work/Linux/target/STM32MP1-DK2/bootloader/optee-os-custom/lib/libmbedtls/mbedtls/library/bignum.c:1079
    447a:	4294      	cmp	r4, r2
    447c:	d204      	bcs.n	4488 <mbedtls_mpi_write_binary_le+0x2c>
/home/aom1/Work/Linux/target/STM32MP1-DK2/bootloader/optee-os-custom/lib/libmbedtls/mbedtls/library/bignum.c:1082
    447e:	1b12      	subs	r2, r2, r4
    4480:	2100      	movs	r1, #0
    4482:	1930      	adds	r0, r6, r4
    4484:	f002 fd45 	bl	6f12 <memset>
/home/aom1/Work/Linux/target/STM32MP1-DK2/bootloader/optee-os-custom/lib/libmbedtls/mbedtls/library/bignum.c:1085
    4488:	2000      	movs	r0, #0
    448a:	e01b      	b.n	44c4 <mbedtls_mpi_write_binary_le+0x68>
/home/aom1/Work/Linux/target/STM32MP1-DK2/bootloader/optee-os-custom/lib/libmbedtls/mbedtls/library/bignum.c:1071
    448c:	f023 0703 	bic.w	r7, r3, #3
    4490:	f003 0103 	and.w	r1, r3, #3
    4494:	6885      	ldr	r5, [r0, #8]
    4496:	00c9      	lsls	r1, r1, #3
    4498:	59ed      	ldr	r5, [r5, r7]
    449a:	40cd      	lsrs	r5, r1
    449c:	b2ed      	uxtb	r5, r5
    449e:	b97d      	cbnz	r5, 44c0 <mbedtls_mpi_write_binary_le+0x64>
/home/aom1/Work/Linux/target/STM32MP1-DK2/bootloader/optee-os-custom/lib/libmbedtls/mbedtls/library/bignum.c:1069 (discriminator 2)
    44a0:	3301      	adds	r3, #1
    44a2:	e7e4      	b.n	446e <mbedtls_mpi_write_binary_le+0x12>
    44a4:	4627      	mov	r7, r4
    44a6:	e7e5      	b.n	4474 <mbedtls_mpi_write_binary_le+0x18>
/home/aom1/Work/Linux/target/STM32MP1-DK2/bootloader/optee-os-custom/lib/libmbedtls/mbedtls/library/bignum.c:1077 (discriminator 3)
    44a8:	f023 0c03 	bic.w	ip, r3, #3
    44ac:	f003 0503 	and.w	r5, r3, #3
    44b0:	6881      	ldr	r1, [r0, #8]
    44b2:	00ed      	lsls	r5, r5, #3
    44b4:	f851 100c 	ldr.w	r1, [r1, ip]
    44b8:	40e9      	lsrs	r1, r5
    44ba:	54f1      	strb	r1, [r6, r3]
/home/aom1/Work/Linux/target/STM32MP1-DK2/bootloader/optee-os-custom/lib/libmbedtls/mbedtls/library/bignum.c:1076 (discriminator 3)
    44bc:	3301      	adds	r3, #1
    44be:	e7da      	b.n	4476 <mbedtls_mpi_write_binary_le+0x1a>
/home/aom1/Work/Linux/target/STM32MP1-DK2/bootloader/optee-os-custom/lib/libmbedtls/mbedtls/library/bignum.c:1072
    44c0:	f06f 0007 	mvn.w	r0, #7
/home/aom1/Work/Linux/target/STM32MP1-DK2/bootloader/optee-os-custom/lib/libmbedtls/mbedtls/library/bignum.c:1086
    44c4:	bdf8      	pop	{r3, r4, r5, r6, r7, pc}

000044c6 <mbedtls_mpi_write_binary>:
mbedtls_mpi_write_binary():
/home/aom1/Work/Linux/target/STM32MP1-DK2/bootloader/optee-os-custom/lib/libmbedtls/mbedtls/library/bignum.c:1093
    44c6:	b5f8      	push	{r3, r4, r5, r6, r7, lr}
    44c8:	4604      	mov	r4, r0
    44ca:	4608      	mov	r0, r1
/home/aom1/Work/Linux/target/STM32MP1-DK2/bootloader/optee-os-custom/lib/libmbedtls/mbedtls/library/bignum.c:1102
    44cc:	6863      	ldr	r3, [r4, #4]
/home/aom1/Work/Linux/target/STM32MP1-DK2/bootloader/optee-os-custom/lib/libmbedtls/mbedtls/library/bignum.c:1104
    44ce:	ebb2 0f83 	cmp.w	r2, r3, lsl #2
/home/aom1/Work/Linux/target/STM32MP1-DK2/bootloader/optee-os-custom/lib/libmbedtls/mbedtls/library/bignum.c:1102
    44d2:	ea4f 0583 	mov.w	r5, r3, lsl #2
/home/aom1/Work/Linux/target/STM32MP1-DK2/bootloader/optee-os-custom/lib/libmbedtls/mbedtls/library/bignum.c:1104
    44d6:	d91a      	bls.n	450e <mbedtls_mpi_write_binary+0x48>
/home/aom1/Work/Linux/target/STM32MP1-DK2/bootloader/optee-os-custom/lib/libmbedtls/mbedtls/library/bignum.c:1112
    44d8:	1b52      	subs	r2, r2, r5
    44da:	188e      	adds	r6, r1, r2
/home/aom1/Work/Linux/target/STM32MP1-DK2/bootloader/optee-os-custom/lib/libmbedtls/mbedtls/library/bignum.c:1113
    44dc:	2100      	movs	r1, #0
    44de:	f002 fd18 	bl	6f12 <memset>
/home/aom1/Work/Linux/target/STM32MP1-DK2/bootloader/optee-os-custom/lib/libmbedtls/mbedtls/library/bignum.c:1112
    44e2:	4630      	mov	r0, r6
    44e4:	462a      	mov	r2, r5
/home/aom1/Work/Linux/target/STM32MP1-DK2/bootloader/optee-os-custom/lib/libmbedtls/mbedtls/library/bignum.c:1128
    44e6:	1883      	adds	r3, r0, r2
    44e8:	2100      	movs	r1, #0
/home/aom1/Work/Linux/target/STM32MP1-DK2/bootloader/optee-os-custom/lib/libmbedtls/mbedtls/library/bignum.c:1128 (discriminator 1)
    44ea:	428a      	cmp	r2, r1
    44ec:	d111      	bne.n	4512 <mbedtls_mpi_write_binary+0x4c>
/home/aom1/Work/Linux/target/STM32MP1-DK2/bootloader/optee-os-custom/lib/libmbedtls/mbedtls/library/bignum.c:1131
    44ee:	2000      	movs	r0, #0
/home/aom1/Work/Linux/target/STM32MP1-DK2/bootloader/optee-os-custom/lib/libmbedtls/mbedtls/library/bignum.c:1132
    44f0:	bdf8      	pop	{r3, r4, r5, r6, r7, pc}
/home/aom1/Work/Linux/target/STM32MP1-DK2/bootloader/optee-os-custom/lib/libmbedtls/mbedtls/library/bignum.c:1123
    44f2:	f023 0703 	bic.w	r7, r3, #3
    44f6:	f003 0603 	and.w	r6, r3, #3
    44fa:	68a1      	ldr	r1, [r4, #8]
    44fc:	00f6      	lsls	r6, r6, #3
    44fe:	59c9      	ldr	r1, [r1, r7]
    4500:	40f1      	lsrs	r1, r6
    4502:	b2c9      	uxtb	r1, r1
    4504:	b989      	cbnz	r1, 452a <mbedtls_mpi_write_binary+0x64>
/home/aom1/Work/Linux/target/STM32MP1-DK2/bootloader/optee-os-custom/lib/libmbedtls/mbedtls/library/bignum.c:1121 (discriminator 2)
    4506:	3301      	adds	r3, #1
/home/aom1/Work/Linux/target/STM32MP1-DK2/bootloader/optee-os-custom/lib/libmbedtls/mbedtls/library/bignum.c:1121 (discriminator 1)
    4508:	42ab      	cmp	r3, r5
    450a:	d1f2      	bne.n	44f2 <mbedtls_mpi_write_binary+0x2c>
    450c:	e7eb      	b.n	44e6 <mbedtls_mpi_write_binary+0x20>
    450e:	4613      	mov	r3, r2
    4510:	e7fa      	b.n	4508 <mbedtls_mpi_write_binary+0x42>
/home/aom1/Work/Linux/target/STM32MP1-DK2/bootloader/optee-os-custom/lib/libmbedtls/mbedtls/library/bignum.c:1129 (discriminator 3)
    4512:	f021 0003 	bic.w	r0, r1, #3
    4516:	f001 0503 	and.w	r5, r1, #3
    451a:	68a6      	ldr	r6, [r4, #8]
/home/aom1/Work/Linux/target/STM32MP1-DK2/bootloader/optee-os-custom/lib/libmbedtls/mbedtls/library/bignum.c:1128 (discriminator 3)
    451c:	3101      	adds	r1, #1
/home/aom1/Work/Linux/target/STM32MP1-DK2/bootloader/optee-os-custom/lib/libmbedtls/mbedtls/library/bignum.c:1129 (discriminator 3)
    451e:	00ed      	lsls	r5, r5, #3
    4520:	5830      	ldr	r0, [r6, r0]
    4522:	40e8      	lsrs	r0, r5
    4524:	f803 0d01 	strb.w	r0, [r3, #-1]!
/home/aom1/Work/Linux/target/STM32MP1-DK2/bootloader/optee-os-custom/lib/libmbedtls/mbedtls/library/bignum.c:1128 (discriminator 3)
    4528:	e7df      	b.n	44ea <mbedtls_mpi_write_binary+0x24>
/home/aom1/Work/Linux/target/STM32MP1-DK2/bootloader/optee-os-custom/lib/libmbedtls/mbedtls/library/bignum.c:1124
    452a:	f06f 0007 	mvn.w	r0, #7
    452e:	e7df      	b.n	44f0 <mbedtls_mpi_write_binary+0x2a>

00004530 <mbedtls_mpi_shift_l>:
mbedtls_mpi_shift_l():
/home/aom1/Work/Linux/target/STM32MP1-DK2/bootloader/optee-os-custom/lib/libmbedtls/mbedtls/library/bignum.c:1138
    4530:	b5f8      	push	{r3, r4, r5, r6, r7, lr}
    4532:	4605      	mov	r5, r0
    4534:	460e      	mov	r6, r1
/home/aom1/Work/Linux/target/STM32MP1-DK2/bootloader/optee-os-custom/lib/libmbedtls/mbedtls/library/bignum.c:1145
    4536:	f001 071f 	and.w	r7, r1, #31
/home/aom1/Work/Linux/target/STM32MP1-DK2/bootloader/optee-os-custom/lib/libmbedtls/mbedtls/library/bignum.c:1144
    453a:	094c      	lsrs	r4, r1, #5
/home/aom1/Work/Linux/target/STM32MP1-DK2/bootloader/optee-os-custom/lib/libmbedtls/mbedtls/library/bignum.c:1147
    453c:	f7ff ff2a 	bl	4394 <mbedtls_mpi_bitlen>
/home/aom1/Work/Linux/target/STM32MP1-DK2/bootloader/optee-os-custom/lib/libmbedtls/mbedtls/library/bignum.c:1149
    4540:	686b      	ldr	r3, [r5, #4]
/home/aom1/Work/Linux/target/STM32MP1-DK2/bootloader/optee-os-custom/lib/libmbedtls/mbedtls/library/bignum.c:1147
    4542:	4430      	add	r0, r6
/home/aom1/Work/Linux/target/STM32MP1-DK2/bootloader/optee-os-custom/lib/libmbedtls/mbedtls/library/bignum.c:1149
    4544:	ebb0 1f43 	cmp.w	r0, r3, lsl #5
    4548:	d805      	bhi.n	4556 <mbedtls_mpi_shift_l+0x26>
/home/aom1/Work/Linux/target/STM32MP1-DK2/bootloader/optee-os-custom/lib/libmbedtls/mbedtls/library/bignum.c:1157
    454a:	2e1f      	cmp	r6, #31
    454c:	d80f      	bhi.n	456e <mbedtls_mpi_shift_l+0x3e>
/home/aom1/Work/Linux/target/STM32MP1-DK2/bootloader/optee-os-custom/lib/libmbedtls/mbedtls/library/bignum.c:1169
    454e:	2f00      	cmp	r7, #0
    4550:	d13c      	bne.n	45cc <mbedtls_mpi_shift_l+0x9c>
/home/aom1/Work/Linux/target/STM32MP1-DK2/bootloader/optee-os-custom/lib/libmbedtls/mbedtls/library/bignum.c:1152
    4552:	2000      	movs	r0, #0
    4554:	e00a      	b.n	456c <mbedtls_mpi_shift_l+0x3c>
/home/aom1/Work/Linux/target/STM32MP1-DK2/bootloader/optee-os-custom/lib/libmbedtls/mbedtls/library/bignum.c:1150
    4556:	f010 011f 	ands.w	r1, r0, #31
    455a:	bf18      	it	ne
    455c:	2101      	movne	r1, #1
    455e:	eb01 1150 	add.w	r1, r1, r0, lsr #5
    4562:	4628      	mov	r0, r5
    4564:	f7ff fd20 	bl	3fa8 <mbedtls_mpi_grow>
    4568:	2800      	cmp	r0, #0
    456a:	d0ee      	beq.n	454a <mbedtls_mpi_shift_l+0x1a>
/home/aom1/Work/Linux/target/STM32MP1-DK2/bootloader/optee-os-custom/lib/libmbedtls/mbedtls/library/bignum.c:1183
    456c:	bdf8      	pop	{r3, r4, r5, r6, r7, pc}
/home/aom1/Work/Linux/target/STM32MP1-DK2/bootloader/optee-os-custom/lib/libmbedtls/mbedtls/library/bignum.c:1159
    456e:	686b      	ldr	r3, [r5, #4]
    4570:	f06f 0003 	mvn.w	r0, #3
    4574:	009a      	lsls	r2, r3, #2
    4576:	4619      	mov	r1, r3
    4578:	4360      	muls	r0, r4
/home/aom1/Work/Linux/target/STM32MP1-DK2/bootloader/optee-os-custom/lib/libmbedtls/mbedtls/library/bignum.c:1159 (discriminator 1)
    457a:	42a1      	cmp	r1, r4
    457c:	f1a2 0204 	sub.w	r2, r2, #4
    4580:	d80c      	bhi.n	459c <mbedtls_mpi_shift_l+0x6c>
    4582:	1ae2      	subs	r2, r4, r3
    4584:	429c      	cmp	r4, r3
    4586:	bf88      	it	hi
    4588:	2200      	movhi	r2, #0
    458a:	4413      	add	r3, r2
/home/aom1/Work/Linux/target/STM32MP1-DK2/bootloader/optee-os-custom/lib/libmbedtls/mbedtls/library/bignum.c:1163
    458c:	2200      	movs	r2, #0
    458e:	009b      	lsls	r3, r3, #2
/home/aom1/Work/Linux/target/STM32MP1-DK2/bootloader/optee-os-custom/lib/libmbedtls/mbedtls/library/bignum.c:1162 (discriminator 1)
    4590:	3b04      	subs	r3, #4
    4592:	1d19      	adds	r1, r3, #4
    4594:	d0db      	beq.n	454e <mbedtls_mpi_shift_l+0x1e>
/home/aom1/Work/Linux/target/STM32MP1-DK2/bootloader/optee-os-custom/lib/libmbedtls/mbedtls/library/bignum.c:1163 (discriminator 2)
    4596:	68a9      	ldr	r1, [r5, #8]
    4598:	50ca      	str	r2, [r1, r3]
/home/aom1/Work/Linux/target/STM32MP1-DK2/bootloader/optee-os-custom/lib/libmbedtls/mbedtls/library/bignum.c:1162 (discriminator 2)
    459a:	e7f9      	b.n	4590 <mbedtls_mpi_shift_l+0x60>
/home/aom1/Work/Linux/target/STM32MP1-DK2/bootloader/optee-os-custom/lib/libmbedtls/mbedtls/library/bignum.c:1160 (discriminator 3)
    459c:	68ae      	ldr	r6, [r5, #8]
/home/aom1/Work/Linux/target/STM32MP1-DK2/bootloader/optee-os-custom/lib/libmbedtls/mbedtls/library/bignum.c:1159 (discriminator 3)
    459e:	3901      	subs	r1, #1
/home/aom1/Work/Linux/target/STM32MP1-DK2/bootloader/optee-os-custom/lib/libmbedtls/mbedtls/library/bignum.c:1160 (discriminator 3)
    45a0:	eb06 0c02 	add.w	ip, r6, r2
    45a4:	f85c c000 	ldr.w	ip, [ip, r0]
    45a8:	f846 c002 	str.w	ip, [r6, r2]
/home/aom1/Work/Linux/target/STM32MP1-DK2/bootloader/optee-os-custom/lib/libmbedtls/mbedtls/library/bignum.c:1159 (discriminator 3)
    45ac:	e7e5      	b.n	457a <mbedtls_mpi_shift_l+0x4a>
/home/aom1/Work/Linux/target/STM32MP1-DK2/bootloader/optee-os-custom/lib/libmbedtls/mbedtls/library/bignum.c:1173 (discriminator 3)
    45ae:	68a8      	ldr	r0, [r5, #8]
    45b0:	f850 1024 	ldr.w	r1, [r0, r4, lsl #2]
/home/aom1/Work/Linux/target/STM32MP1-DK2/bootloader/optee-os-custom/lib/libmbedtls/mbedtls/library/bignum.c:1174 (discriminator 3)
    45b4:	fa01 f307 	lsl.w	r3, r1, r7
/home/aom1/Work/Linux/target/STM32MP1-DK2/bootloader/optee-os-custom/lib/libmbedtls/mbedtls/library/bignum.c:1175 (discriminator 3)
    45b8:	4313      	orrs	r3, r2
    45ba:	f840 3024 	str.w	r3, [r0, r4, lsl #2]
/home/aom1/Work/Linux/target/STM32MP1-DK2/bootloader/optee-os-custom/lib/libmbedtls/mbedtls/library/bignum.c:1171 (discriminator 3)
    45be:	3401      	adds	r4, #1
/home/aom1/Work/Linux/target/STM32MP1-DK2/bootloader/optee-os-custom/lib/libmbedtls/mbedtls/library/bignum.c:1176 (discriminator 3)
    45c0:	fa21 f206 	lsr.w	r2, r1, r6
/home/aom1/Work/Linux/target/STM32MP1-DK2/bootloader/optee-os-custom/lib/libmbedtls/mbedtls/library/bignum.c:1171 (discriminator 1)
    45c4:	686b      	ldr	r3, [r5, #4]
    45c6:	42a3      	cmp	r3, r4
    45c8:	d8f1      	bhi.n	45ae <mbedtls_mpi_shift_l+0x7e>
    45ca:	e7c2      	b.n	4552 <mbedtls_mpi_shift_l+0x22>
/home/aom1/Work/Linux/target/STM32MP1-DK2/bootloader/optee-os-custom/lib/libmbedtls/mbedtls/library/bignum.c:1141
    45cc:	2200      	movs	r2, #0
/home/aom1/Work/Linux/target/STM32MP1-DK2/bootloader/optee-os-custom/lib/libmbedtls/mbedtls/library/bignum.c:1173
    45ce:	f1c7 0620 	rsb	r6, r7, #32
    45d2:	e7f7      	b.n	45c4 <mbedtls_mpi_shift_l+0x94>

000045d4 <mbedtls_mpi_shift_r>:
mbedtls_mpi_shift_r():
/home/aom1/Work/Linux/target/STM32MP1-DK2/bootloader/optee-os-custom/lib/libmbedtls/mbedtls/library/bignum.c:1197
    45d4:	6843      	ldr	r3, [r0, #4]
/home/aom1/Work/Linux/target/STM32MP1-DK2/bootloader/optee-os-custom/lib/libmbedtls/mbedtls/library/bignum.c:1195
    45d6:	f001 021f 	and.w	r2, r1, #31
/home/aom1/Work/Linux/target/STM32MP1-DK2/bootloader/optee-os-custom/lib/libmbedtls/mbedtls/library/bignum.c:1189
    45da:	b4f0      	push	{r4, r5, r6, r7}
/home/aom1/Work/Linux/target/STM32MP1-DK2/bootloader/optee-os-custom/lib/libmbedtls/mbedtls/library/bignum.c:1194
    45dc:	094c      	lsrs	r4, r1, #5
/home/aom1/Work/Linux/target/STM32MP1-DK2/bootloader/optee-os-custom/lib/libmbedtls/mbedtls/library/bignum.c:1197
    45de:	42a3      	cmp	r3, r4
    45e0:	d301      	bcc.n	45e6 <mbedtls_mpi_shift_r+0x12>
/home/aom1/Work/Linux/target/STM32MP1-DK2/bootloader/optee-os-custom/lib/libmbedtls/mbedtls/library/bignum.c:1197 (discriminator 1)
    45e2:	d104      	bne.n	45ee <mbedtls_mpi_shift_r+0x1a>
/home/aom1/Work/Linux/target/STM32MP1-DK2/bootloader/optee-os-custom/lib/libmbedtls/mbedtls/library/bignum.c:1197 (discriminator 2)
    45e4:	b36a      	cbz	r2, 4642 <mbedtls_mpi_shift_r+0x6e>
/home/aom1/Work/Linux/target/STM32MP1-DK2/bootloader/optee-os-custom/lib/libmbedtls/mbedtls/library/bignum.c:1227
    45e6:	bcf0      	pop	{r4, r5, r6, r7}
/home/aom1/Work/Linux/target/STM32MP1-DK2/bootloader/optee-os-custom/lib/libmbedtls/mbedtls/library/bignum.c:1198
    45e8:	2100      	movs	r1, #0
    45ea:	f7ff be65 	b.w	42b8 <mbedtls_mpi_lset>
/home/aom1/Work/Linux/target/STM32MP1-DK2/bootloader/optee-os-custom/lib/libmbedtls/mbedtls/library/bignum.c:1203
    45ee:	291f      	cmp	r1, #31
    45f0:	d829      	bhi.n	4646 <mbedtls_mpi_shift_r+0x72>
/home/aom1/Work/Linux/target/STM32MP1-DK2/bootloader/optee-os-custom/lib/libmbedtls/mbedtls/library/bignum.c:1215
    45f2:	b9aa      	cbnz	r2, 4620 <mbedtls_mpi_shift_r+0x4c>
/home/aom1/Work/Linux/target/STM32MP1-DK2/bootloader/optee-os-custom/lib/libmbedtls/mbedtls/library/bignum.c:1227
    45f4:	2000      	movs	r0, #0
    45f6:	bcf0      	pop	{r4, r5, r6, r7}
    45f8:	4770      	bx	lr
/home/aom1/Work/Linux/target/STM32MP1-DK2/bootloader/optee-os-custom/lib/libmbedtls/mbedtls/library/bignum.c:1206 (discriminator 3)
    45fa:	6885      	ldr	r5, [r0, #8]
    45fc:	586e      	ldr	r6, [r5, r1]
    45fe:	3104      	adds	r1, #4
    4600:	f845 6023 	str.w	r6, [r5, r3, lsl #2]
/home/aom1/Work/Linux/target/STM32MP1-DK2/bootloader/optee-os-custom/lib/libmbedtls/mbedtls/library/bignum.c:1205 (discriminator 3)
    4604:	3301      	adds	r3, #1
/home/aom1/Work/Linux/target/STM32MP1-DK2/bootloader/optee-os-custom/lib/libmbedtls/mbedtls/library/bignum.c:1205 (discriminator 1)
    4606:	6845      	ldr	r5, [r0, #4]
    4608:	1b2d      	subs	r5, r5, r4
    460a:	429d      	cmp	r5, r3
    460c:	d8f5      	bhi.n	45fa <mbedtls_mpi_shift_r+0x26>
/home/aom1/Work/Linux/target/STM32MP1-DK2/bootloader/optee-os-custom/lib/libmbedtls/mbedtls/library/bignum.c:1209
    460e:	2400      	movs	r4, #0
/home/aom1/Work/Linux/target/STM32MP1-DK2/bootloader/optee-os-custom/lib/libmbedtls/mbedtls/library/bignum.c:1208 (discriminator 1)
    4610:	6841      	ldr	r1, [r0, #4]
    4612:	4299      	cmp	r1, r3
    4614:	d9ed      	bls.n	45f2 <mbedtls_mpi_shift_r+0x1e>
/home/aom1/Work/Linux/target/STM32MP1-DK2/bootloader/optee-os-custom/lib/libmbedtls/mbedtls/library/bignum.c:1209 (discriminator 2)
    4616:	6881      	ldr	r1, [r0, #8]
    4618:	f841 4023 	str.w	r4, [r1, r3, lsl #2]
/home/aom1/Work/Linux/target/STM32MP1-DK2/bootloader/optee-os-custom/lib/libmbedtls/mbedtls/library/bignum.c:1208 (discriminator 2)
    461c:	3301      	adds	r3, #1
    461e:	e7f7      	b.n	4610 <mbedtls_mpi_shift_r+0x3c>
/home/aom1/Work/Linux/target/STM32MP1-DK2/bootloader/optee-os-custom/lib/libmbedtls/mbedtls/library/bignum.c:1217
    4620:	6843      	ldr	r3, [r0, #4]
/home/aom1/Work/Linux/target/STM32MP1-DK2/bootloader/optee-os-custom/lib/libmbedtls/mbedtls/library/bignum.c:1191
    4622:	2400      	movs	r4, #0
/home/aom1/Work/Linux/target/STM32MP1-DK2/bootloader/optee-os-custom/lib/libmbedtls/mbedtls/library/bignum.c:1219
    4624:	f1c2 0720 	rsb	r7, r2, #32
/home/aom1/Work/Linux/target/STM32MP1-DK2/bootloader/optee-os-custom/lib/libmbedtls/mbedtls/library/bignum.c:1217 (discriminator 1)
    4628:	3b01      	subs	r3, #1
    462a:	d3e3      	bcc.n	45f4 <mbedtls_mpi_shift_r+0x20>
/home/aom1/Work/Linux/target/STM32MP1-DK2/bootloader/optee-os-custom/lib/libmbedtls/mbedtls/library/bignum.c:1219 (discriminator 3)
    462c:	6886      	ldr	r6, [r0, #8]
    462e:	f856 5023 	ldr.w	r5, [r6, r3, lsl #2]
/home/aom1/Work/Linux/target/STM32MP1-DK2/bootloader/optee-os-custom/lib/libmbedtls/mbedtls/library/bignum.c:1220 (discriminator 3)
    4632:	fa25 f102 	lsr.w	r1, r5, r2
/home/aom1/Work/Linux/target/STM32MP1-DK2/bootloader/optee-os-custom/lib/libmbedtls/mbedtls/library/bignum.c:1221 (discriminator 3)
    4636:	4321      	orrs	r1, r4
    4638:	f846 1023 	str.w	r1, [r6, r3, lsl #2]
/home/aom1/Work/Linux/target/STM32MP1-DK2/bootloader/optee-os-custom/lib/libmbedtls/mbedtls/library/bignum.c:1222 (discriminator 3)
    463c:	fa05 f407 	lsl.w	r4, r5, r7
    4640:	e7f2      	b.n	4628 <mbedtls_mpi_shift_r+0x54>
/home/aom1/Work/Linux/target/STM32MP1-DK2/bootloader/optee-os-custom/lib/libmbedtls/mbedtls/library/bignum.c:1203
    4642:	291f      	cmp	r1, #31
    4644:	d9d6      	bls.n	45f4 <mbedtls_mpi_shift_r+0x20>
    4646:	00a1      	lsls	r1, r4, #2
/home/aom1/Work/Linux/target/STM32MP1-DK2/bootloader/optee-os-custom/lib/libmbedtls/mbedtls/library/bignum.c:1189 (discriminator 1)
    4648:	2300      	movs	r3, #0
    464a:	e7dc      	b.n	4606 <mbedtls_mpi_shift_r+0x32>

0000464c <mbedtls_mpi_cmp_abs>:
mbedtls_mpi_cmp_abs():
/home/aom1/Work/Linux/target/STM32MP1-DK2/bootloader/optee-os-custom/lib/libmbedtls/mbedtls/library/bignum.c:1238
    464c:	6843      	ldr	r3, [r0, #4]
/home/aom1/Work/Linux/target/STM32MP1-DK2/bootloader/optee-os-custom/lib/libmbedtls/mbedtls/library/bignum.c:1233
    464e:	b530      	push	{r4, r5, lr}
/home/aom1/Work/Linux/target/STM32MP1-DK2/bootloader/optee-os-custom/lib/libmbedtls/mbedtls/library/bignum.c:1238 (discriminator 1)
    4650:	b92b      	cbnz	r3, 465e <mbedtls_mpi_cmp_abs+0x12>
/home/aom1/Work/Linux/target/STM32MP1-DK2/bootloader/optee-os-custom/lib/libmbedtls/mbedtls/library/bignum.c:1242
    4652:	684a      	ldr	r2, [r1, #4]
/home/aom1/Work/Linux/target/STM32MP1-DK2/bootloader/optee-os-custom/lib/libmbedtls/mbedtls/library/bignum.c:1242 (discriminator 1)
    4654:	b962      	cbnz	r2, 4670 <mbedtls_mpi_cmp_abs+0x24>
/home/aom1/Work/Linux/target/STM32MP1-DK2/bootloader/optee-os-custom/lib/libmbedtls/mbedtls/library/bignum.c:1246
    4656:	1e18      	subs	r0, r3, #0
    4658:	bf18      	it	ne
    465a:	2001      	movne	r0, #1
/home/aom1/Work/Linux/target/STM32MP1-DK2/bootloader/optee-os-custom/lib/libmbedtls/mbedtls/library/bignum.c:1259
    465c:	bd30      	pop	{r4, r5, pc}
/home/aom1/Work/Linux/target/STM32MP1-DK2/bootloader/optee-os-custom/lib/libmbedtls/mbedtls/library/bignum.c:1239
    465e:	6882      	ldr	r2, [r0, #8]
    4660:	eb02 0283 	add.w	r2, r2, r3, lsl #2
    4664:	f852 2c04 	ldr.w	r2, [r2, #-4]
    4668:	2a00      	cmp	r2, #0
    466a:	d1f2      	bne.n	4652 <mbedtls_mpi_cmp_abs+0x6>
/home/aom1/Work/Linux/target/STM32MP1-DK2/bootloader/optee-os-custom/lib/libmbedtls/mbedtls/library/bignum.c:1238 (discriminator 2)
    466c:	3b01      	subs	r3, #1
    466e:	e7ef      	b.n	4650 <mbedtls_mpi_cmp_abs+0x4>
/home/aom1/Work/Linux/target/STM32MP1-DK2/bootloader/optee-os-custom/lib/libmbedtls/mbedtls/library/bignum.c:1243
    4670:	688c      	ldr	r4, [r1, #8]
    4672:	eb04 0582 	add.w	r5, r4, r2, lsl #2
    4676:	f855 5c04 	ldr.w	r5, [r5, #-4]
    467a:	b90d      	cbnz	r5, 4680 <mbedtls_mpi_cmp_abs+0x34>
/home/aom1/Work/Linux/target/STM32MP1-DK2/bootloader/optee-os-custom/lib/libmbedtls/mbedtls/library/bignum.c:1242 (discriminator 2)
    467c:	3a01      	subs	r2, #1
    467e:	e7e9      	b.n	4654 <mbedtls_mpi_cmp_abs+0x8>
/home/aom1/Work/Linux/target/STM32MP1-DK2/bootloader/optee-os-custom/lib/libmbedtls/mbedtls/library/bignum.c:1249
    4680:	4293      	cmp	r3, r2
    4682:	d812      	bhi.n	46aa <mbedtls_mpi_cmp_abs+0x5e>
/home/aom1/Work/Linux/target/STM32MP1-DK2/bootloader/optee-os-custom/lib/libmbedtls/mbedtls/library/bignum.c:1250
    4684:	d30e      	bcc.n	46a4 <mbedtls_mpi_cmp_abs+0x58>
    4686:	3b01      	subs	r3, #1
/home/aom1/Work/Linux/target/STM32MP1-DK2/bootloader/optee-os-custom/lib/libmbedtls/mbedtls/library/bignum.c:1252 (discriminator 1)
    4688:	1c5a      	adds	r2, r3, #1
    468a:	d101      	bne.n	4690 <mbedtls_mpi_cmp_abs+0x44>
/home/aom1/Work/Linux/target/STM32MP1-DK2/bootloader/optee-os-custom/lib/libmbedtls/mbedtls/library/bignum.c:1247
    468c:	2000      	movs	r0, #0
    468e:	e7e5      	b.n	465c <mbedtls_mpi_cmp_abs+0x10>
/home/aom1/Work/Linux/target/STM32MP1-DK2/bootloader/optee-os-custom/lib/libmbedtls/mbedtls/library/bignum.c:1254
    4690:	6882      	ldr	r2, [r0, #8]
    4692:	f852 1023 	ldr.w	r1, [r2, r3, lsl #2]
    4696:	f854 2023 	ldr.w	r2, [r4, r3, lsl #2]
    469a:	4291      	cmp	r1, r2
    469c:	d805      	bhi.n	46aa <mbedtls_mpi_cmp_abs+0x5e>
/home/aom1/Work/Linux/target/STM32MP1-DK2/bootloader/optee-os-custom/lib/libmbedtls/mbedtls/library/bignum.c:1255
    469e:	f103 33ff 	add.w	r3, r3, #4294967295	; 0xffffffff
    46a2:	d2f1      	bcs.n	4688 <mbedtls_mpi_cmp_abs+0x3c>
/home/aom1/Work/Linux/target/STM32MP1-DK2/bootloader/optee-os-custom/lib/libmbedtls/mbedtls/library/bignum.c:1250
    46a4:	f04f 30ff 	mov.w	r0, #4294967295	; 0xffffffff
    46a8:	e7d8      	b.n	465c <mbedtls_mpi_cmp_abs+0x10>
/home/aom1/Work/Linux/target/STM32MP1-DK2/bootloader/optee-os-custom/lib/libmbedtls/mbedtls/library/bignum.c:1249
    46aa:	2001      	movs	r0, #1
    46ac:	e7d6      	b.n	465c <mbedtls_mpi_cmp_abs+0x10>

000046ae <mbedtls_mpi_cmp_mpi>:
mbedtls_mpi_cmp_mpi():
/home/aom1/Work/Linux/target/STM32MP1-DK2/bootloader/optee-os-custom/lib/libmbedtls/mbedtls/library/bignum.c:1265
    46ae:	4603      	mov	r3, r0
/home/aom1/Work/Linux/target/STM32MP1-DK2/bootloader/optee-os-custom/lib/libmbedtls/mbedtls/library/bignum.c:1270
    46b0:	6840      	ldr	r0, [r0, #4]
/home/aom1/Work/Linux/target/STM32MP1-DK2/bootloader/optee-os-custom/lib/libmbedtls/mbedtls/library/bignum.c:1265
    46b2:	b530      	push	{r4, r5, lr}
/home/aom1/Work/Linux/target/STM32MP1-DK2/bootloader/optee-os-custom/lib/libmbedtls/mbedtls/library/bignum.c:1270 (discriminator 1)
    46b4:	b928      	cbnz	r0, 46c2 <mbedtls_mpi_cmp_mpi+0x14>
/home/aom1/Work/Linux/target/STM32MP1-DK2/bootloader/optee-os-custom/lib/libmbedtls/mbedtls/library/bignum.c:1274
    46b6:	684a      	ldr	r2, [r1, #4]
/home/aom1/Work/Linux/target/STM32MP1-DK2/bootloader/optee-os-custom/lib/libmbedtls/mbedtls/library/bignum.c:1274 (discriminator 1)
    46b8:	b962      	cbnz	r2, 46d4 <mbedtls_mpi_cmp_mpi+0x26>
/home/aom1/Work/Linux/target/STM32MP1-DK2/bootloader/optee-os-custom/lib/libmbedtls/mbedtls/library/bignum.c:1278
    46ba:	b108      	cbz	r0, 46c0 <mbedtls_mpi_cmp_mpi+0x12>
/home/aom1/Work/Linux/target/STM32MP1-DK2/bootloader/optee-os-custom/lib/libmbedtls/mbedtls/library/bignum.c:1281 (discriminator 1)
    46bc:	f9b3 0000 	ldrsh.w	r0, [r3]
/home/aom1/Work/Linux/target/STM32MP1-DK2/bootloader/optee-os-custom/lib/libmbedtls/mbedtls/library/bignum.c:1294
    46c0:	bd30      	pop	{r4, r5, pc}
/home/aom1/Work/Linux/target/STM32MP1-DK2/bootloader/optee-os-custom/lib/libmbedtls/mbedtls/library/bignum.c:1271
    46c2:	689a      	ldr	r2, [r3, #8]
    46c4:	eb02 0280 	add.w	r2, r2, r0, lsl #2
    46c8:	f852 2c04 	ldr.w	r2, [r2, #-4]
    46cc:	2a00      	cmp	r2, #0
    46ce:	d1f2      	bne.n	46b6 <mbedtls_mpi_cmp_mpi+0x8>
/home/aom1/Work/Linux/target/STM32MP1-DK2/bootloader/optee-os-custom/lib/libmbedtls/mbedtls/library/bignum.c:1270 (discriminator 2)
    46d0:	3801      	subs	r0, #1
    46d2:	e7ef      	b.n	46b4 <mbedtls_mpi_cmp_mpi+0x6>
/home/aom1/Work/Linux/target/STM32MP1-DK2/bootloader/optee-os-custom/lib/libmbedtls/mbedtls/library/bignum.c:1275
    46d4:	688c      	ldr	r4, [r1, #8]
    46d6:	eb04 0582 	add.w	r5, r4, r2, lsl #2
    46da:	f855 5c04 	ldr.w	r5, [r5, #-4]
    46de:	b90d      	cbnz	r5, 46e4 <mbedtls_mpi_cmp_mpi+0x36>
/home/aom1/Work/Linux/target/STM32MP1-DK2/bootloader/optee-os-custom/lib/libmbedtls/mbedtls/library/bignum.c:1274 (discriminator 2)
    46e0:	3a01      	subs	r2, #1
    46e2:	e7e9      	b.n	46b8 <mbedtls_mpi_cmp_mpi+0xa>
/home/aom1/Work/Linux/target/STM32MP1-DK2/bootloader/optee-os-custom/lib/libmbedtls/mbedtls/library/bignum.c:1281
    46e4:	4290      	cmp	r0, r2
    46e6:	d8e9      	bhi.n	46bc <mbedtls_mpi_cmp_mpi+0xe>
/home/aom1/Work/Linux/target/STM32MP1-DK2/bootloader/optee-os-custom/lib/libmbedtls/mbedtls/library/bignum.c:1282
    46e8:	f9b1 1000 	ldrsh.w	r1, [r1]
    46ec:	d201      	bcs.n	46f2 <mbedtls_mpi_cmp_mpi+0x44>
/home/aom1/Work/Linux/target/STM32MP1-DK2/bootloader/optee-os-custom/lib/libmbedtls/mbedtls/library/bignum.c:1282 (discriminator 1)
    46ee:	4248      	negs	r0, r1
    46f0:	e7e6      	b.n	46c0 <mbedtls_mpi_cmp_mpi+0x12>
/home/aom1/Work/Linux/target/STM32MP1-DK2/bootloader/optee-os-custom/lib/libmbedtls/mbedtls/library/bignum.c:1284
    46f2:	f9b3 2000 	ldrsh.w	r2, [r3]
    46f6:	2a00      	cmp	r2, #0
    46f8:	dd03      	ble.n	4702 <mbedtls_mpi_cmp_mpi+0x54>
/home/aom1/Work/Linux/target/STM32MP1-DK2/bootloader/optee-os-custom/lib/libmbedtls/mbedtls/library/bignum.c:1284 (discriminator 1)
    46fa:	2900      	cmp	r1, #0
    46fc:	da15      	bge.n	472a <mbedtls_mpi_cmp_mpi+0x7c>
/home/aom1/Work/Linux/target/STM32MP1-DK2/bootloader/optee-os-custom/lib/libmbedtls/mbedtls/library/bignum.c:1284
    46fe:	2001      	movs	r0, #1
    4700:	e7de      	b.n	46c0 <mbedtls_mpi_cmp_mpi+0x12>
/home/aom1/Work/Linux/target/STM32MP1-DK2/bootloader/optee-os-custom/lib/libmbedtls/mbedtls/library/bignum.c:1285
    4702:	2900      	cmp	r1, #0
    4704:	dd11      	ble.n	472a <mbedtls_mpi_cmp_mpi+0x7c>
/home/aom1/Work/Linux/target/STM32MP1-DK2/bootloader/optee-os-custom/lib/libmbedtls/mbedtls/library/bignum.c:1285 (discriminator 1)
    4706:	b182      	cbz	r2, 472a <mbedtls_mpi_cmp_mpi+0x7c>
/home/aom1/Work/Linux/target/STM32MP1-DK2/bootloader/optee-os-custom/lib/libmbedtls/mbedtls/library/bignum.c:1285
    4708:	f04f 30ff 	mov.w	r0, #4294967295	; 0xffffffff
    470c:	e7d8      	b.n	46c0 <mbedtls_mpi_cmp_mpi+0x12>
/home/aom1/Work/Linux/target/STM32MP1-DK2/bootloader/optee-os-custom/lib/libmbedtls/mbedtls/library/bignum.c:1289
    470e:	6899      	ldr	r1, [r3, #8]
    4710:	f851 5020 	ldr.w	r5, [r1, r0, lsl #2]
    4714:	f854 1020 	ldr.w	r1, [r4, r0, lsl #2]
    4718:	428d      	cmp	r5, r1
    471a:	d901      	bls.n	4720 <mbedtls_mpi_cmp_mpi+0x72>
/home/aom1/Work/Linux/target/STM32MP1-DK2/bootloader/optee-os-custom/lib/libmbedtls/mbedtls/library/bignum.c:1289 (discriminator 1)
    471c:	4610      	mov	r0, r2
    471e:	e7cf      	b.n	46c0 <mbedtls_mpi_cmp_mpi+0x12>
/home/aom1/Work/Linux/target/STM32MP1-DK2/bootloader/optee-os-custom/lib/libmbedtls/mbedtls/library/bignum.c:1290
    4720:	f100 30ff 	add.w	r0, r0, #4294967295	; 0xffffffff
    4724:	d202      	bcs.n	472c <mbedtls_mpi_cmp_mpi+0x7e>
/home/aom1/Work/Linux/target/STM32MP1-DK2/bootloader/optee-os-custom/lib/libmbedtls/mbedtls/library/bignum.c:1290 (discriminator 1)
    4726:	4250      	negs	r0, r2
    4728:	e7ca      	b.n	46c0 <mbedtls_mpi_cmp_mpi+0x12>
    472a:	3801      	subs	r0, #1
/home/aom1/Work/Linux/target/STM32MP1-DK2/bootloader/optee-os-custom/lib/libmbedtls/mbedtls/library/bignum.c:1287 (discriminator 1)
    472c:	1c41      	adds	r1, r0, #1
    472e:	d1ee      	bne.n	470e <mbedtls_mpi_cmp_mpi+0x60>
/home/aom1/Work/Linux/target/STM32MP1-DK2/bootloader/optee-os-custom/lib/libmbedtls/mbedtls/library/bignum.c:1279
    4730:	2000      	movs	r0, #0
    4732:	e7c5      	b.n	46c0 <mbedtls_mpi_cmp_mpi+0x12>

00004734 <mbedtls_mpi_lt_mpi_ct>:
mbedtls_mpi_lt_mpi_ct():
/home/aom1/Work/Linux/target/STM32MP1-DK2/bootloader/optee-os-custom/lib/libmbedtls/mbedtls/library/bignum.c:1345
    4734:	684b      	ldr	r3, [r1, #4]
/home/aom1/Work/Linux/target/STM32MP1-DK2/bootloader/optee-os-custom/lib/libmbedtls/mbedtls/library/bignum.c:1336
    4736:	e92d 43f0 	stmdb	sp!, {r4, r5, r6, r7, r8, r9, lr}
/home/aom1/Work/Linux/target/STM32MP1-DK2/bootloader/optee-os-custom/lib/libmbedtls/mbedtls/library/bignum.c:1345
    473a:	6844      	ldr	r4, [r0, #4]
    473c:	429c      	cmp	r4, r3
    473e:	d147      	bne.n	47d0 <mbedtls_mpi_lt_mpi_ct+0x9c>
/home/aom1/Work/Linux/target/STM32MP1-DK2/bootloader/optee-os-custom/lib/libmbedtls/mbedtls/library/bignum.c:1352
    4740:	8804      	ldrh	r4, [r0, #0]
/home/aom1/Work/Linux/target/STM32MP1-DK2/bootloader/optee-os-custom/lib/libmbedtls/mbedtls/library/bignum.c:1353
    4742:	880b      	ldrh	r3, [r1, #0]
/home/aom1/Work/Linux/target/STM32MP1-DK2/bootloader/optee-os-custom/lib/libmbedtls/mbedtls/library/bignum.c:1352
    4744:	f3c4 0640 	ubfx	r6, r4, #1, #1
/home/aom1/Work/Linux/target/STM32MP1-DK2/bootloader/optee-os-custom/lib/libmbedtls/mbedtls/library/bignum.c:1360
    4748:	405c      	eors	r4, r3
/home/aom1/Work/Linux/target/STM32MP1-DK2/bootloader/optee-os-custom/lib/libmbedtls/mbedtls/library/bignum.c:1390
    474a:	f1c6 0c01 	rsb	ip, r6, #1
/home/aom1/Work/Linux/target/STM32MP1-DK2/bootloader/optee-os-custom/lib/libmbedtls/mbedtls/library/bignum.c:1360
    474e:	f3c4 0340 	ubfx	r3, r4, #1, #1
/home/aom1/Work/Linux/target/STM32MP1-DK2/bootloader/optee-os-custom/lib/libmbedtls/mbedtls/library/bignum.c:1361
    4752:	ea06 0454 	and.w	r4, r6, r4, lsr #1
    4756:	6014      	str	r4, [r2, #0]
/home/aom1/Work/Linux/target/STM32MP1-DK2/bootloader/optee-os-custom/lib/libmbedtls/mbedtls/library/bignum.c:1369
    4758:	6845      	ldr	r5, [r0, #4]
/home/aom1/Work/Linux/target/STM32MP1-DK2/bootloader/optee-os-custom/lib/libmbedtls/mbedtls/library/bignum.c:1369 (discriminator 1)
    475a:	3d01      	subs	r5, #1
    475c:	d202      	bcs.n	4764 <mbedtls_mpi_lt_mpi_ct+0x30>
/home/aom1/Work/Linux/target/STM32MP1-DK2/bootloader/optee-os-custom/lib/libmbedtls/mbedtls/library/bignum.c:1394
    475e:	2000      	movs	r0, #0
/home/aom1/Work/Linux/target/STM32MP1-DK2/bootloader/optee-os-custom/lib/libmbedtls/mbedtls/library/bignum.c:1395
    4760:	e8bd 83f0 	ldmia.w	sp!, {r4, r5, r6, r7, r8, r9, pc}
/home/aom1/Work/Linux/target/STM32MP1-DK2/bootloader/optee-os-custom/lib/libmbedtls/mbedtls/library/bignum.c:1378 (discriminator 3)
    4764:	f8d0 8008 	ldr.w	r8, [r0, #8]
    4768:	f8d1 e008 	ldr.w	lr, [r1, #8]
    476c:	f858 7025 	ldr.w	r7, [r8, r5, lsl #2]
    4770:	f85e 4025 	ldr.w	r4, [lr, r5, lsl #2]
ct_lt_mpi_uint():
/home/aom1/Work/Linux/target/STM32MP1-DK2/bootloader/optee-os-custom/lib/libmbedtls/mbedtls/library/bignum.c:1317 (discriminator 3)
    4774:	eba4 0907 	sub.w	r9, r4, r7
/home/aom1/Work/Linux/target/STM32MP1-DK2/bootloader/optee-os-custom/lib/libmbedtls/mbedtls/library/bignum.c:1312 (discriminator 3)
    4778:	407c      	eors	r4, r7
/home/aom1/Work/Linux/target/STM32MP1-DK2/bootloader/optee-os-custom/lib/libmbedtls/mbedtls/library/bignum.c:1323 (discriminator 3)
    477a:	ea87 0709 	eor.w	r7, r7, r9
    477e:	403c      	ands	r4, r7
mbedtls_mpi_lt_mpi_ct():
/home/aom1/Work/Linux/target/STM32MP1-DK2/bootloader/optee-os-custom/lib/libmbedtls/mbedtls/library/bignum.c:1379 (discriminator 3)
    4780:	f1c3 0701 	rsb	r7, r3, #1
ct_lt_mpi_uint():
/home/aom1/Work/Linux/target/STM32MP1-DK2/bootloader/optee-os-custom/lib/libmbedtls/mbedtls/library/bignum.c:1323 (discriminator 3)
    4784:	ea84 0409 	eor.w	r4, r4, r9
mbedtls_mpi_lt_mpi_ct():
/home/aom1/Work/Linux/target/STM32MP1-DK2/bootloader/optee-os-custom/lib/libmbedtls/mbedtls/library/bignum.c:1379 (discriminator 3)
    4788:	ea06 79d4 	and.w	r9, r6, r4, lsr #31
    478c:	ea07 0909 	and.w	r9, r7, r9
    4790:	6817      	ldr	r7, [r2, #0]
/home/aom1/Work/Linux/target/STM32MP1-DK2/bootloader/optee-os-custom/lib/libmbedtls/mbedtls/library/bignum.c:1380 (discriminator 3)
    4792:	ea43 74d4 	orr.w	r4, r3, r4, lsr #31
/home/aom1/Work/Linux/target/STM32MP1-DK2/bootloader/optee-os-custom/lib/libmbedtls/mbedtls/library/bignum.c:1379 (discriminator 3)
    4796:	ea49 0707 	orr.w	r7, r9, r7
    479a:	6017      	str	r7, [r2, #0]
/home/aom1/Work/Linux/target/STM32MP1-DK2/bootloader/optee-os-custom/lib/libmbedtls/mbedtls/library/bignum.c:1389 (discriminator 3)
    479c:	f85e e025 	ldr.w	lr, [lr, r5, lsl #2]
    47a0:	f858 3025 	ldr.w	r3, [r8, r5, lsl #2]
ct_lt_mpi_uint():
/home/aom1/Work/Linux/target/STM32MP1-DK2/bootloader/optee-os-custom/lib/libmbedtls/mbedtls/library/bignum.c:1317 (discriminator 3)
    47a4:	eba3 080e 	sub.w	r8, r3, lr
/home/aom1/Work/Linux/target/STM32MP1-DK2/bootloader/optee-os-custom/lib/libmbedtls/mbedtls/library/bignum.c:1312 (discriminator 3)
    47a8:	ea83 030e 	eor.w	r3, r3, lr
/home/aom1/Work/Linux/target/STM32MP1-DK2/bootloader/optee-os-custom/lib/libmbedtls/mbedtls/library/bignum.c:1323 (discriminator 3)
    47ac:	ea8e 0e08 	eor.w	lr, lr, r8
    47b0:	ea03 030e 	and.w	r3, r3, lr
    47b4:	ea83 0308 	eor.w	r3, r3, r8
mbedtls_mpi_lt_mpi_ct():
/home/aom1/Work/Linux/target/STM32MP1-DK2/bootloader/optee-os-custom/lib/libmbedtls/mbedtls/library/bignum.c:1390 (discriminator 3)
    47b8:	f1c4 0801 	rsb	r8, r4, #1
    47bc:	ea0c 7ed3 	and.w	lr, ip, r3, lsr #31
    47c0:	ea0e 0e08 	and.w	lr, lr, r8
    47c4:	ea4e 0707 	orr.w	r7, lr, r7
/home/aom1/Work/Linux/target/STM32MP1-DK2/bootloader/optee-os-custom/lib/libmbedtls/mbedtls/library/bignum.c:1391 (discriminator 3)
    47c8:	ea44 73d3 	orr.w	r3, r4, r3, lsr #31
/home/aom1/Work/Linux/target/STM32MP1-DK2/bootloader/optee-os-custom/lib/libmbedtls/mbedtls/library/bignum.c:1390 (discriminator 3)
    47cc:	6017      	str	r7, [r2, #0]
/home/aom1/Work/Linux/target/STM32MP1-DK2/bootloader/optee-os-custom/lib/libmbedtls/mbedtls/library/bignum.c:1369 (discriminator 3)
    47ce:	e7c4      	b.n	475a <mbedtls_mpi_lt_mpi_ct+0x26>
/home/aom1/Work/Linux/target/STM32MP1-DK2/bootloader/optee-os-custom/lib/libmbedtls/mbedtls/library/bignum.c:1346
    47d0:	f06f 0003 	mvn.w	r0, #3
    47d4:	e7c4      	b.n	4760 <mbedtls_mpi_lt_mpi_ct+0x2c>

000047d6 <mbedtls_mpi_cmp_int>:
mbedtls_mpi_cmp_int():
/home/aom1/Work/Linux/target/STM32MP1-DK2/bootloader/optee-os-custom/lib/libmbedtls/mbedtls/library/bignum.c:1401
    47d6:	b51f      	push	{r0, r1, r2, r3, r4, lr}
/home/aom1/Work/Linux/target/STM32MP1-DK2/bootloader/optee-os-custom/lib/libmbedtls/mbedtls/library/bignum.c:1407
    47d8:	2900      	cmp	r1, #0
/home/aom1/Work/Linux/target/STM32MP1-DK2/bootloader/optee-os-custom/lib/libmbedtls/mbedtls/library/bignum.c:1406
    47da:	ea81 73e1 	eor.w	r3, r1, r1, asr #31
    47de:	eba3 73e1 	sub.w	r3, r3, r1, asr #31
/home/aom1/Work/Linux/target/STM32MP1-DK2/bootloader/optee-os-custom/lib/libmbedtls/mbedtls/library/bignum.c:1411
    47e2:	a901      	add	r1, sp, #4
/home/aom1/Work/Linux/target/STM32MP1-DK2/bootloader/optee-os-custom/lib/libmbedtls/mbedtls/library/bignum.c:1406
    47e4:	9300      	str	r3, [sp, #0]
/home/aom1/Work/Linux/target/STM32MP1-DK2/bootloader/optee-os-custom/lib/libmbedtls/mbedtls/library/bignum.c:1407
    47e6:	bfb4      	ite	lt
    47e8:	f04f 33ff 	movlt.w	r3, #4294967295	; 0xffffffff
    47ec:	2301      	movge	r3, #1
    47ee:	f8ad 3004 	strh.w	r3, [sp, #4]
/home/aom1/Work/Linux/target/STM32MP1-DK2/bootloader/optee-os-custom/lib/libmbedtls/mbedtls/library/bignum.c:1408
    47f2:	2301      	movs	r3, #1
    47f4:	9302      	str	r3, [sp, #8]
/home/aom1/Work/Linux/target/STM32MP1-DK2/bootloader/optee-os-custom/lib/libmbedtls/mbedtls/library/bignum.c:1409
    47f6:	466b      	mov	r3, sp
    47f8:	9303      	str	r3, [sp, #12]
/home/aom1/Work/Linux/target/STM32MP1-DK2/bootloader/optee-os-custom/lib/libmbedtls/mbedtls/library/bignum.c:1411
    47fa:	f7ff ff58 	bl	46ae <mbedtls_mpi_cmp_mpi>
/home/aom1/Work/Linux/target/STM32MP1-DK2/bootloader/optee-os-custom/lib/libmbedtls/mbedtls/library/bignum.c:1412
    47fe:	b005      	add	sp, #20
    4800:	f85d fb04 	ldr.w	pc, [sp], #4

00004804 <mbedtls_mpi_add_abs>:
mbedtls_mpi_add_abs():
/home/aom1/Work/Linux/target/STM32MP1-DK2/bootloader/optee-os-custom/lib/libmbedtls/mbedtls/library/bignum.c:1426
    4804:	4290      	cmp	r0, r2
/home/aom1/Work/Linux/target/STM32MP1-DK2/bootloader/optee-os-custom/lib/libmbedtls/mbedtls/library/bignum.c:1418
    4806:	e92d 41f0 	stmdb	sp!, {r4, r5, r6, r7, r8, lr}
    480a:	4606      	mov	r6, r0
    480c:	460f      	mov	r7, r1
    480e:	4615      	mov	r5, r2
/home/aom1/Work/Linux/target/STM32MP1-DK2/bootloader/optee-os-custom/lib/libmbedtls/mbedtls/library/bignum.c:1426
    4810:	d002      	beq.n	4818 <mbedtls_mpi_add_abs+0x14>
/home/aom1/Work/Linux/target/STM32MP1-DK2/bootloader/optee-os-custom/lib/libmbedtls/mbedtls/library/bignum.c:1431
    4812:	4288      	cmp	r0, r1
    4814:	d129      	bne.n	486a <mbedtls_mpi_add_abs+0x66>
/home/aom1/Work/Linux/target/STM32MP1-DK2/bootloader/optee-os-custom/lib/libmbedtls/mbedtls/library/bignum.c:1418
    4816:	462f      	mov	r7, r5
/home/aom1/Work/Linux/target/STM32MP1-DK2/bootloader/optee-os-custom/lib/libmbedtls/mbedtls/library/bignum.c:1439 (discriminator 2)
    4818:	687d      	ldr	r5, [r7, #4]
/home/aom1/Work/Linux/target/STM32MP1-DK2/bootloader/optee-os-custom/lib/libmbedtls/mbedtls/library/bignum.c:1437 (discriminator 2)
    481a:	2301      	movs	r3, #1
    481c:	8033      	strh	r3, [r6, #0]
/home/aom1/Work/Linux/target/STM32MP1-DK2/bootloader/optee-os-custom/lib/libmbedtls/mbedtls/library/bignum.c:1439 (discriminator 1)
    481e:	bb65      	cbnz	r5, 487a <mbedtls_mpi_add_abs+0x76>
/home/aom1/Work/Linux/target/STM32MP1-DK2/bootloader/optee-os-custom/lib/libmbedtls/mbedtls/library/bignum.c:1443
    4820:	4629      	mov	r1, r5
    4822:	4630      	mov	r0, r6
    4824:	f7ff fbc0 	bl	3fa8 <mbedtls_mpi_grow>
    4828:	4604      	mov	r4, r0
    482a:	bb18      	cbnz	r0, 4874 <mbedtls_mpi_add_abs+0x70>
/home/aom1/Work/Linux/target/STM32MP1-DK2/bootloader/optee-os-custom/lib/libmbedtls/mbedtls/library/bignum.c:1445 (discriminator 2)
    482c:	68b3      	ldr	r3, [r6, #8]
    482e:	68b9      	ldr	r1, [r7, #8]
    4830:	4607      	mov	r7, r0
    4832:	469c      	mov	ip, r3
/home/aom1/Work/Linux/target/STM32MP1-DK2/bootloader/optee-os-custom/lib/libmbedtls/mbedtls/library/bignum.c:1450 (discriminator 1)
    4834:	4285      	cmp	r5, r0
    4836:	d129      	bne.n	488c <mbedtls_mpi_add_abs+0x88>
    4838:	eb03 0385 	add.w	r3, r3, r5, lsl #2
/home/aom1/Work/Linux/target/STM32MP1-DK2/bootloader/optee-os-custom/lib/libmbedtls/mbedtls/library/bignum.c:1457
    483c:	b1d7      	cbz	r7, 4874 <mbedtls_mpi_add_abs+0x70>
/home/aom1/Work/Linux/target/STM32MP1-DK2/bootloader/optee-os-custom/lib/libmbedtls/mbedtls/library/bignum.c:1459
    483e:	6872      	ldr	r2, [r6, #4]
    4840:	f105 0801 	add.w	r8, r5, #1
    4844:	42aa      	cmp	r2, r5
    4846:	d807      	bhi.n	4858 <mbedtls_mpi_add_abs+0x54>
/home/aom1/Work/Linux/target/STM32MP1-DK2/bootloader/optee-os-custom/lib/libmbedtls/mbedtls/library/bignum.c:1461
    4848:	4641      	mov	r1, r8
    484a:	4630      	mov	r0, r6
    484c:	f7ff fbac 	bl	3fa8 <mbedtls_mpi_grow>
    4850:	bb68      	cbnz	r0, 48ae <mbedtls_mpi_add_abs+0xaa>
/home/aom1/Work/Linux/target/STM32MP1-DK2/bootloader/optee-os-custom/lib/libmbedtls/mbedtls/library/bignum.c:1462 (discriminator 2)
    4852:	68b3      	ldr	r3, [r6, #8]
    4854:	eb03 0385 	add.w	r3, r3, r5, lsl #2
/home/aom1/Work/Linux/target/STM32MP1-DK2/bootloader/optee-os-custom/lib/libmbedtls/mbedtls/library/bignum.c:1465
    4858:	681a      	ldr	r2, [r3, #0]
    485a:	4645      	mov	r5, r8
    485c:	19d2      	adds	r2, r2, r7
    485e:	f843 2b04 	str.w	r2, [r3], #4
    4862:	bf2c      	ite	cs
    4864:	2701      	movcs	r7, #1
    4866:	2700      	movcc	r7, #0
    4868:	e7e8      	b.n	483c <mbedtls_mpi_add_abs+0x38>
/home/aom1/Work/Linux/target/STM32MP1-DK2/bootloader/optee-os-custom/lib/libmbedtls/mbedtls/library/bignum.c:1432
    486a:	f7ff fc5f 	bl	412c <mbedtls_mpi_copy>
    486e:	4604      	mov	r4, r0
    4870:	2800      	cmp	r0, #0
    4872:	d0d0      	beq.n	4816 <mbedtls_mpi_add_abs+0x12>
/home/aom1/Work/Linux/target/STM32MP1-DK2/bootloader/optee-os-custom/lib/libmbedtls/mbedtls/library/bignum.c:1471
    4874:	4620      	mov	r0, r4
    4876:	e8bd 81f0 	ldmia.w	sp!, {r4, r5, r6, r7, r8, pc}
/home/aom1/Work/Linux/target/STM32MP1-DK2/bootloader/optee-os-custom/lib/libmbedtls/mbedtls/library/bignum.c:1440
    487a:	68bb      	ldr	r3, [r7, #8]
    487c:	eb03 0385 	add.w	r3, r3, r5, lsl #2
    4880:	f853 3c04 	ldr.w	r3, [r3, #-4]
    4884:	2b00      	cmp	r3, #0
    4886:	d1cb      	bne.n	4820 <mbedtls_mpi_add_abs+0x1c>
/home/aom1/Work/Linux/target/STM32MP1-DK2/bootloader/optee-os-custom/lib/libmbedtls/mbedtls/library/bignum.c:1439 (discriminator 2)
    4888:	3d01      	subs	r5, #1
    488a:	e7c8      	b.n	481e <mbedtls_mpi_add_abs+0x1a>
/home/aom1/Work/Linux/target/STM32MP1-DK2/bootloader/optee-os-custom/lib/libmbedtls/mbedtls/library/bignum.c:1453 (discriminator 3)
    488c:	f8dc 2000 	ldr.w	r2, [ip]
    4890:	19d2      	adds	r2, r2, r7
    4892:	f851 7020 	ldr.w	r7, [r1, r0, lsl #2]
    4896:	bf2c      	ite	cs
    4898:	f04f 0e01 	movcs.w	lr, #1
    489c:	f04f 0e00 	movcc.w	lr, #0
/home/aom1/Work/Linux/target/STM32MP1-DK2/bootloader/optee-os-custom/lib/libmbedtls/mbedtls/library/bignum.c:1450 (discriminator 3)
    48a0:	3001      	adds	r0, #1
    48a2:	19d2      	adds	r2, r2, r7
/home/aom1/Work/Linux/target/STM32MP1-DK2/bootloader/optee-os-custom/lib/libmbedtls/mbedtls/library/bignum.c:1454 (discriminator 3)
    48a4:	f14e 0700 	adc.w	r7, lr, #0
    48a8:	f84c 2b04 	str.w	r2, [ip], #4
/home/aom1/Work/Linux/target/STM32MP1-DK2/bootloader/optee-os-custom/lib/libmbedtls/mbedtls/library/bignum.c:1450 (discriminator 3)
    48ac:	e7c2      	b.n	4834 <mbedtls_mpi_add_abs+0x30>
/home/aom1/Work/Linux/target/STM32MP1-DK2/bootloader/optee-os-custom/lib/libmbedtls/mbedtls/library/bignum.c:1470
    48ae:	4604      	mov	r4, r0
    48b0:	e7e0      	b.n	4874 <mbedtls_mpi_add_abs+0x70>

000048b2 <mbedtls_mpi_sub_abs>:
mbedtls_mpi_sub_abs():
/home/aom1/Work/Linux/target/STM32MP1-DK2/bootloader/optee-os-custom/lib/libmbedtls/mbedtls/library/bignum.c:1511
    48b2:	e92d 43f8 	stmdb	sp!, {r3, r4, r5, r6, r7, r8, r9, lr}
    48b6:	4605      	mov	r5, r0
/home/aom1/Work/Linux/target/STM32MP1-DK2/bootloader/optee-os-custom/lib/libmbedtls/mbedtls/library/bignum.c:1519
    48b8:	6854      	ldr	r4, [r2, #4]
/home/aom1/Work/Linux/target/STM32MP1-DK2/bootloader/optee-os-custom/lib/libmbedtls/mbedtls/library/bignum.c:1511
    48ba:	460e      	mov	r6, r1
    48bc:	4690      	mov	r8, r2
/home/aom1/Work/Linux/target/STM32MP1-DK2/bootloader/optee-os-custom/lib/libmbedtls/mbedtls/library/bignum.c:1519 (discriminator 1)
    48be:	b93c      	cbnz	r4, 48d0 <mbedtls_mpi_sub_abs+0x1e>
/home/aom1/Work/Linux/target/STM32MP1-DK2/bootloader/optee-os-custom/lib/libmbedtls/mbedtls/library/bignum.c:1522
    48c0:	6871      	ldr	r1, [r6, #4]
    48c2:	42a1      	cmp	r1, r4
    48c4:	d20e      	bcs.n	48e4 <mbedtls_mpi_sub_abs+0x32>
/home/aom1/Work/Linux/target/STM32MP1-DK2/bootloader/optee-os-custom/lib/libmbedtls/mbedtls/library/bignum.c:1525
    48c6:	f06f 0709 	mvn.w	r7, #9
/home/aom1/Work/Linux/target/STM32MP1-DK2/bootloader/optee-os-custom/lib/libmbedtls/mbedtls/library/bignum.c:1560
    48ca:	4638      	mov	r0, r7
    48cc:	e8bd 83f8 	ldmia.w	sp!, {r3, r4, r5, r6, r7, r8, r9, pc}
/home/aom1/Work/Linux/target/STM32MP1-DK2/bootloader/optee-os-custom/lib/libmbedtls/mbedtls/library/bignum.c:1520
    48d0:	f8d8 3008 	ldr.w	r3, [r8, #8]
    48d4:	eb03 0384 	add.w	r3, r3, r4, lsl #2
    48d8:	f853 3c04 	ldr.w	r3, [r3, #-4]
    48dc:	2b00      	cmp	r3, #0
    48de:	d1ef      	bne.n	48c0 <mbedtls_mpi_sub_abs+0xe>
/home/aom1/Work/Linux/target/STM32MP1-DK2/bootloader/optee-os-custom/lib/libmbedtls/mbedtls/library/bignum.c:1519 (discriminator 2)
    48e0:	3c01      	subs	r4, #1
    48e2:	e7ec      	b.n	48be <mbedtls_mpi_sub_abs+0xc>
/home/aom1/Work/Linux/target/STM32MP1-DK2/bootloader/optee-os-custom/lib/libmbedtls/mbedtls/library/bignum.c:1529
    48e4:	4628      	mov	r0, r5
    48e6:	f7ff fb5f 	bl	3fa8 <mbedtls_mpi_grow>
    48ea:	4607      	mov	r7, r0
    48ec:	2800      	cmp	r0, #0
    48ee:	d1ec      	bne.n	48ca <mbedtls_mpi_sub_abs+0x18>
/home/aom1/Work/Linux/target/STM32MP1-DK2/bootloader/optee-os-custom/lib/libmbedtls/mbedtls/library/bignum.c:1534 (discriminator 2)
    48f0:	6872      	ldr	r2, [r6, #4]
    48f2:	42a2      	cmp	r2, r4
    48f4:	d909      	bls.n	490a <mbedtls_mpi_sub_abs+0x58>
/home/aom1/Work/Linux/target/STM32MP1-DK2/bootloader/optee-os-custom/lib/libmbedtls/mbedtls/library/bignum.c:1535
    48f6:	68a8      	ldr	r0, [r5, #8]
    48f8:	1b12      	subs	r2, r2, r4
    48fa:	68b1      	ldr	r1, [r6, #8]
    48fc:	0092      	lsls	r2, r2, #2
    48fe:	eb01 0184 	add.w	r1, r1, r4, lsl #2
    4902:	eb00 0084 	add.w	r0, r0, r4, lsl #2
    4906:	f002 fa19 	bl	6d3c <memcpy>
/home/aom1/Work/Linux/target/STM32MP1-DK2/bootloader/optee-os-custom/lib/libmbedtls/mbedtls/library/bignum.c:1536
    490a:	686a      	ldr	r2, [r5, #4]
    490c:	6870      	ldr	r0, [r6, #4]
    490e:	4282      	cmp	r2, r0
    4910:	d907      	bls.n	4922 <mbedtls_mpi_sub_abs+0x70>
/home/aom1/Work/Linux/target/STM32MP1-DK2/bootloader/optee-os-custom/lib/libmbedtls/mbedtls/library/bignum.c:1537
    4912:	1a12      	subs	r2, r2, r0
    4914:	2100      	movs	r1, #0
    4916:	68ab      	ldr	r3, [r5, #8]
    4918:	0092      	lsls	r2, r2, #2
    491a:	eb03 0080 	add.w	r0, r3, r0, lsl #2
    491e:	f002 faf8 	bl	6f12 <memset>
/home/aom1/Work/Linux/target/STM32MP1-DK2/bootloader/optee-os-custom/lib/libmbedtls/mbedtls/library/bignum.c:1539
    4922:	68a9      	ldr	r1, [r5, #8]
mpi_sub_hlp():
/home/aom1/Work/Linux/target/STM32MP1-DK2/bootloader/optee-os-custom/lib/libmbedtls/mbedtls/library/bignum.c:1496
    4924:	2200      	movs	r2, #0
mbedtls_mpi_sub_abs():
/home/aom1/Work/Linux/target/STM32MP1-DK2/bootloader/optee-os-custom/lib/libmbedtls/mbedtls/library/bignum.c:1539
    4926:	f8d6 e008 	ldr.w	lr, [r6, #8]
mpi_sub_hlp():
/home/aom1/Work/Linux/target/STM32MP1-DK2/bootloader/optee-os-custom/lib/libmbedtls/mbedtls/library/bignum.c:1498
    492a:	4613      	mov	r3, r2
mbedtls_mpi_sub_abs():
/home/aom1/Work/Linux/target/STM32MP1-DK2/bootloader/optee-os-custom/lib/libmbedtls/mbedtls/library/bignum.c:1539
    492c:	f8d8 8008 	ldr.w	r8, [r8, #8]
mpi_sub_hlp():
/home/aom1/Work/Linux/target/STM32MP1-DK2/bootloader/optee-os-custom/lib/libmbedtls/mbedtls/library/bignum.c:1498
    4930:	429c      	cmp	r4, r3
    4932:	d111      	bne.n	4958 <mbedtls_mpi_sub_abs+0xa6>
mbedtls_mpi_sub_abs():
/home/aom1/Work/Linux/target/STM32MP1-DK2/bootloader/optee-os-custom/lib/libmbedtls/mbedtls/library/bignum.c:1540
    4934:	b16a      	cbz	r2, 4952 <mbedtls_mpi_sub_abs+0xa0>
    4936:	eb01 0384 	add.w	r3, r1, r4, lsl #2
/home/aom1/Work/Linux/target/STM32MP1-DK2/bootloader/optee-os-custom/lib/libmbedtls/mbedtls/library/bignum.c:1544
    493a:	f04f 30ff 	mov.w	r0, #4294967295	; 0xffffffff
/home/aom1/Work/Linux/target/STM32MP1-DK2/bootloader/optee-os-custom/lib/libmbedtls/mbedtls/library/bignum.c:1543 (discriminator 1)
    493e:	686a      	ldr	r2, [r5, #4]
    4940:	42a2      	cmp	r2, r4
    4942:	d925      	bls.n	4990 <mbedtls_mpi_sub_abs+0xde>
/home/aom1/Work/Linux/target/STM32MP1-DK2/bootloader/optee-os-custom/lib/libmbedtls/mbedtls/library/bignum.c:1543 (discriminator 2)
    4944:	681a      	ldr	r2, [r3, #0]
    4946:	b1fa      	cbz	r2, 4988 <mbedtls_mpi_sub_abs+0xd6>
/home/aom1/Work/Linux/target/STM32MP1-DK2/bootloader/optee-os-custom/lib/libmbedtls/mbedtls/library/bignum.c:1552
    4948:	f851 3024 	ldr.w	r3, [r1, r4, lsl #2]
    494c:	3b01      	subs	r3, #1
    494e:	f841 3024 	str.w	r3, [r1, r4, lsl #2]
/home/aom1/Work/Linux/target/STM32MP1-DK2/bootloader/optee-os-custom/lib/libmbedtls/mbedtls/library/bignum.c:1556
    4952:	2301      	movs	r3, #1
    4954:	802b      	strh	r3, [r5, #0]
/home/aom1/Work/Linux/target/STM32MP1-DK2/bootloader/optee-os-custom/lib/libmbedtls/mbedtls/library/bignum.c:1559
    4956:	e7b8      	b.n	48ca <mbedtls_mpi_sub_abs+0x18>
mpi_sub_hlp():
/home/aom1/Work/Linux/target/STM32MP1-DK2/bootloader/optee-os-custom/lib/libmbedtls/mbedtls/library/bignum.c:1500
    4958:	f85e c023 	ldr.w	ip, [lr, r3, lsl #2]
/home/aom1/Work/Linux/target/STM32MP1-DK2/bootloader/optee-os-custom/lib/libmbedtls/mbedtls/library/bignum.c:1501
    495c:	f858 6023 	ldr.w	r6, [r8, r3, lsl #2]
/home/aom1/Work/Linux/target/STM32MP1-DK2/bootloader/optee-os-custom/lib/libmbedtls/mbedtls/library/bignum.c:1500
    4960:	ebac 0002 	sub.w	r0, ip, r2
/home/aom1/Work/Linux/target/STM32MP1-DK2/bootloader/optee-os-custom/lib/libmbedtls/mbedtls/library/bignum.c:1501
    4964:	42b0      	cmp	r0, r6
    4966:	eba0 0006 	sub.w	r0, r0, r6
    496a:	bf28      	it	cs
    496c:	f04f 0900 	movcs.w	r9, #0
    4970:	f841 0023 	str.w	r0, [r1, r3, lsl #2]
    4974:	bf38      	it	cc
    4976:	f04f 0901 	movcc.w	r9, #1
/home/aom1/Work/Linux/target/STM32MP1-DK2/bootloader/optee-os-custom/lib/libmbedtls/mbedtls/library/bignum.c:1498
    497a:	3301      	adds	r3, #1
/home/aom1/Work/Linux/target/STM32MP1-DK2/bootloader/optee-os-custom/lib/libmbedtls/mbedtls/library/bignum.c:1501
    497c:	4594      	cmp	ip, r2
    497e:	bf2c      	ite	cs
    4980:	464a      	movcs	r2, r9
    4982:	f109 0201 	addcc.w	r2, r9, #1
/home/aom1/Work/Linux/target/STM32MP1-DK2/bootloader/optee-os-custom/lib/libmbedtls/mbedtls/library/bignum.c:1498
    4986:	e7d3      	b.n	4930 <mbedtls_mpi_sub_abs+0x7e>
mbedtls_mpi_sub_abs():
/home/aom1/Work/Linux/target/STM32MP1-DK2/bootloader/optee-os-custom/lib/libmbedtls/mbedtls/library/bignum.c:1544 (discriminator 3)
    4988:	f843 0b04 	str.w	r0, [r3], #4
/home/aom1/Work/Linux/target/STM32MP1-DK2/bootloader/optee-os-custom/lib/libmbedtls/mbedtls/library/bignum.c:1543 (discriminator 3)
    498c:	3401      	adds	r4, #1
    498e:	e7d6      	b.n	493e <mbedtls_mpi_sub_abs+0x8c>
/home/aom1/Work/Linux/target/STM32MP1-DK2/bootloader/optee-os-custom/lib/libmbedtls/mbedtls/library/bignum.c:1547
    4990:	d1da      	bne.n	4948 <mbedtls_mpi_sub_abs+0x96>
    4992:	e798      	b.n	48c6 <mbedtls_mpi_sub_abs+0x14>

00004994 <mbedtls_mpi_add_mpi>:
mbedtls_mpi_add_mpi():
/home/aom1/Work/Linux/target/STM32MP1-DK2/bootloader/optee-os-custom/lib/libmbedtls/mbedtls/library/bignum.c:1566
    4994:	b5f8      	push	{r3, r4, r5, r6, r7, lr}
    4996:	4604      	mov	r4, r0
/home/aom1/Work/Linux/target/STM32MP1-DK2/bootloader/optee-os-custom/lib/libmbedtls/mbedtls/library/bignum.c:1572
    4998:	f9b1 5000 	ldrsh.w	r5, [r1]
/home/aom1/Work/Linux/target/STM32MP1-DK2/bootloader/optee-os-custom/lib/libmbedtls/mbedtls/library/bignum.c:1566
    499c:	460f      	mov	r7, r1
/home/aom1/Work/Linux/target/STM32MP1-DK2/bootloader/optee-os-custom/lib/libmbedtls/mbedtls/library/bignum.c:1573
    499e:	f9b2 3000 	ldrsh.w	r3, [r2]
/home/aom1/Work/Linux/target/STM32MP1-DK2/bootloader/optee-os-custom/lib/libmbedtls/mbedtls/library/bignum.c:1566
    49a2:	4616      	mov	r6, r2
/home/aom1/Work/Linux/target/STM32MP1-DK2/bootloader/optee-os-custom/lib/libmbedtls/mbedtls/library/bignum.c:1573
    49a4:	436b      	muls	r3, r5
    49a6:	d516      	bpl.n	49d6 <mbedtls_mpi_add_mpi+0x42>
/home/aom1/Work/Linux/target/STM32MP1-DK2/bootloader/optee-os-custom/lib/libmbedtls/mbedtls/library/bignum.c:1575
    49a8:	4611      	mov	r1, r2
    49aa:	4638      	mov	r0, r7
    49ac:	f7ff fe4e 	bl	464c <mbedtls_mpi_cmp_abs>
    49b0:	2800      	cmp	r0, #0
    49b2:	db06      	blt.n	49c2 <mbedtls_mpi_add_mpi+0x2e>
/home/aom1/Work/Linux/target/STM32MP1-DK2/bootloader/optee-os-custom/lib/libmbedtls/mbedtls/library/bignum.c:1577
    49b4:	4632      	mov	r2, r6
    49b6:	4639      	mov	r1, r7
    49b8:	4620      	mov	r0, r4
    49ba:	f7ff ff7a 	bl	48b2 <mbedtls_mpi_sub_abs>
/home/aom1/Work/Linux/target/STM32MP1-DK2/bootloader/optee-os-custom/lib/libmbedtls/mbedtls/library/bignum.c:1588
    49be:	b140      	cbz	r0, 49d2 <mbedtls_mpi_add_mpi+0x3e>
/home/aom1/Work/Linux/target/STM32MP1-DK2/bootloader/optee-os-custom/lib/libmbedtls/mbedtls/library/bignum.c:1595
    49c0:	bdf8      	pop	{r3, r4, r5, r6, r7, pc}
/home/aom1/Work/Linux/target/STM32MP1-DK2/bootloader/optee-os-custom/lib/libmbedtls/mbedtls/library/bignum.c:1582
    49c2:	463a      	mov	r2, r7
    49c4:	4631      	mov	r1, r6
    49c6:	4620      	mov	r0, r4
    49c8:	f7ff ff73 	bl	48b2 <mbedtls_mpi_sub_abs>
    49cc:	2800      	cmp	r0, #0
    49ce:	d1f7      	bne.n	49c0 <mbedtls_mpi_add_mpi+0x2c>
/home/aom1/Work/Linux/target/STM32MP1-DK2/bootloader/optee-os-custom/lib/libmbedtls/mbedtls/library/bignum.c:1583 (discriminator 2)
    49d0:	426d      	negs	r5, r5
/home/aom1/Work/Linux/target/STM32MP1-DK2/bootloader/optee-os-custom/lib/libmbedtls/mbedtls/library/bignum.c:1589 (discriminator 2)
    49d2:	8025      	strh	r5, [r4, #0]
/home/aom1/Work/Linux/target/STM32MP1-DK2/bootloader/optee-os-custom/lib/libmbedtls/mbedtls/library/bignum.c:1594 (discriminator 2)
    49d4:	e7f4      	b.n	49c0 <mbedtls_mpi_add_mpi+0x2c>
/home/aom1/Work/Linux/target/STM32MP1-DK2/bootloader/optee-os-custom/lib/libmbedtls/mbedtls/library/bignum.c:1588
    49d6:	f7ff ff15 	bl	4804 <mbedtls_mpi_add_abs>
    49da:	e7f0      	b.n	49be <mbedtls_mpi_add_mpi+0x2a>

000049dc <mbedtls_mpi_sub_mpi>:
mbedtls_mpi_sub_mpi():
/home/aom1/Work/Linux/target/STM32MP1-DK2/bootloader/optee-os-custom/lib/libmbedtls/mbedtls/library/bignum.c:1601
    49dc:	b5f8      	push	{r3, r4, r5, r6, r7, lr}
    49de:	4604      	mov	r4, r0
/home/aom1/Work/Linux/target/STM32MP1-DK2/bootloader/optee-os-custom/lib/libmbedtls/mbedtls/library/bignum.c:1607
    49e0:	f9b1 5000 	ldrsh.w	r5, [r1]
/home/aom1/Work/Linux/target/STM32MP1-DK2/bootloader/optee-os-custom/lib/libmbedtls/mbedtls/library/bignum.c:1601
    49e4:	460f      	mov	r7, r1
/home/aom1/Work/Linux/target/STM32MP1-DK2/bootloader/optee-os-custom/lib/libmbedtls/mbedtls/library/bignum.c:1608
    49e6:	8813      	ldrh	r3, [r2, #0]
/home/aom1/Work/Linux/target/STM32MP1-DK2/bootloader/optee-os-custom/lib/libmbedtls/mbedtls/library/bignum.c:1601
    49e8:	4616      	mov	r6, r2
/home/aom1/Work/Linux/target/STM32MP1-DK2/bootloader/optee-os-custom/lib/libmbedtls/mbedtls/library/bignum.c:1608
    49ea:	fb13 f305 	smulbb	r3, r3, r5
    49ee:	2b00      	cmp	r3, #0
    49f0:	dd16      	ble.n	4a20 <mbedtls_mpi_sub_mpi+0x44>
/home/aom1/Work/Linux/target/STM32MP1-DK2/bootloader/optee-os-custom/lib/libmbedtls/mbedtls/library/bignum.c:1610
    49f2:	4611      	mov	r1, r2
    49f4:	4638      	mov	r0, r7
    49f6:	f7ff fe29 	bl	464c <mbedtls_mpi_cmp_abs>
    49fa:	2800      	cmp	r0, #0
    49fc:	db06      	blt.n	4a0c <mbedtls_mpi_sub_mpi+0x30>
/home/aom1/Work/Linux/target/STM32MP1-DK2/bootloader/optee-os-custom/lib/libmbedtls/mbedtls/library/bignum.c:1612
    49fe:	4632      	mov	r2, r6
    4a00:	4639      	mov	r1, r7
    4a02:	4620      	mov	r0, r4
    4a04:	f7ff ff55 	bl	48b2 <mbedtls_mpi_sub_abs>
/home/aom1/Work/Linux/target/STM32MP1-DK2/bootloader/optee-os-custom/lib/libmbedtls/mbedtls/library/bignum.c:1623
    4a08:	b140      	cbz	r0, 4a1c <mbedtls_mpi_sub_mpi+0x40>
/home/aom1/Work/Linux/target/STM32MP1-DK2/bootloader/optee-os-custom/lib/libmbedtls/mbedtls/library/bignum.c:1630
    4a0a:	bdf8      	pop	{r3, r4, r5, r6, r7, pc}
/home/aom1/Work/Linux/target/STM32MP1-DK2/bootloader/optee-os-custom/lib/libmbedtls/mbedtls/library/bignum.c:1617
    4a0c:	463a      	mov	r2, r7
    4a0e:	4631      	mov	r1, r6
    4a10:	4620      	mov	r0, r4
    4a12:	f7ff ff4e 	bl	48b2 <mbedtls_mpi_sub_abs>
    4a16:	2800      	cmp	r0, #0
    4a18:	d1f7      	bne.n	4a0a <mbedtls_mpi_sub_mpi+0x2e>
/home/aom1/Work/Linux/target/STM32MP1-DK2/bootloader/optee-os-custom/lib/libmbedtls/mbedtls/library/bignum.c:1618 (discriminator 2)
    4a1a:	426d      	negs	r5, r5
/home/aom1/Work/Linux/target/STM32MP1-DK2/bootloader/optee-os-custom/lib/libmbedtls/mbedtls/library/bignum.c:1624 (discriminator 2)
    4a1c:	8025      	strh	r5, [r4, #0]
/home/aom1/Work/Linux/target/STM32MP1-DK2/bootloader/optee-os-custom/lib/libmbedtls/mbedtls/library/bignum.c:1629 (discriminator 2)
    4a1e:	e7f4      	b.n	4a0a <mbedtls_mpi_sub_mpi+0x2e>
/home/aom1/Work/Linux/target/STM32MP1-DK2/bootloader/optee-os-custom/lib/libmbedtls/mbedtls/library/bignum.c:1623
    4a20:	f7ff fef0 	bl	4804 <mbedtls_mpi_add_abs>
    4a24:	e7f0      	b.n	4a08 <mbedtls_mpi_sub_mpi+0x2c>

00004a26 <mbedtls_mpi_add_int>:
mbedtls_mpi_add_int():
/home/aom1/Work/Linux/target/STM32MP1-DK2/bootloader/optee-os-custom/lib/libmbedtls/mbedtls/library/bignum.c:1636
    4a26:	b51f      	push	{r0, r1, r2, r3, r4, lr}
/home/aom1/Work/Linux/target/STM32MP1-DK2/bootloader/optee-os-custom/lib/libmbedtls/mbedtls/library/bignum.c:1643
    4a28:	2a00      	cmp	r2, #0
/home/aom1/Work/Linux/target/STM32MP1-DK2/bootloader/optee-os-custom/lib/libmbedtls/mbedtls/library/bignum.c:1642
    4a2a:	ea82 73e2 	eor.w	r3, r2, r2, asr #31
    4a2e:	eba3 73e2 	sub.w	r3, r3, r2, asr #31
/home/aom1/Work/Linux/target/STM32MP1-DK2/bootloader/optee-os-custom/lib/libmbedtls/mbedtls/library/bignum.c:1647
    4a32:	aa01      	add	r2, sp, #4
/home/aom1/Work/Linux/target/STM32MP1-DK2/bootloader/optee-os-custom/lib/libmbedtls/mbedtls/library/bignum.c:1642
    4a34:	9300      	str	r3, [sp, #0]
/home/aom1/Work/Linux/target/STM32MP1-DK2/bootloader/optee-os-custom/lib/libmbedtls/mbedtls/library/bignum.c:1643
    4a36:	bfb4      	ite	lt
    4a38:	f04f 33ff 	movlt.w	r3, #4294967295	; 0xffffffff
    4a3c:	2301      	movge	r3, #1
    4a3e:	f8ad 3004 	strh.w	r3, [sp, #4]
/home/aom1/Work/Linux/target/STM32MP1-DK2/bootloader/optee-os-custom/lib/libmbedtls/mbedtls/library/bignum.c:1644
    4a42:	2301      	movs	r3, #1
    4a44:	9302      	str	r3, [sp, #8]
/home/aom1/Work/Linux/target/STM32MP1-DK2/bootloader/optee-os-custom/lib/libmbedtls/mbedtls/library/bignum.c:1645
    4a46:	466b      	mov	r3, sp
    4a48:	9303      	str	r3, [sp, #12]
/home/aom1/Work/Linux/target/STM32MP1-DK2/bootloader/optee-os-custom/lib/libmbedtls/mbedtls/library/bignum.c:1647
    4a4a:	f7ff ffa3 	bl	4994 <mbedtls_mpi_add_mpi>
/home/aom1/Work/Linux/target/STM32MP1-DK2/bootloader/optee-os-custom/lib/libmbedtls/mbedtls/library/bignum.c:1648
    4a4e:	b005      	add	sp, #20
    4a50:	f85d fb04 	ldr.w	pc, [sp], #4

00004a54 <mbedtls_mpi_sub_int>:
mbedtls_mpi_sub_int():
/home/aom1/Work/Linux/target/STM32MP1-DK2/bootloader/optee-os-custom/lib/libmbedtls/mbedtls/library/bignum.c:1654
    4a54:	b51f      	push	{r0, r1, r2, r3, r4, lr}
/home/aom1/Work/Linux/target/STM32MP1-DK2/bootloader/optee-os-custom/lib/libmbedtls/mbedtls/library/bignum.c:1661
    4a56:	2a00      	cmp	r2, #0
/home/aom1/Work/Linux/target/STM32MP1-DK2/bootloader/optee-os-custom/lib/libmbedtls/mbedtls/library/bignum.c:1660
    4a58:	ea82 73e2 	eor.w	r3, r2, r2, asr #31
    4a5c:	eba3 73e2 	sub.w	r3, r3, r2, asr #31
/home/aom1/Work/Linux/target/STM32MP1-DK2/bootloader/optee-os-custom/lib/libmbedtls/mbedtls/library/bignum.c:1665
    4a60:	aa01      	add	r2, sp, #4
/home/aom1/Work/Linux/target/STM32MP1-DK2/bootloader/optee-os-custom/lib/libmbedtls/mbedtls/library/bignum.c:1660
    4a62:	9300      	str	r3, [sp, #0]
/home/aom1/Work/Linux/target/STM32MP1-DK2/bootloader/optee-os-custom/lib/libmbedtls/mbedtls/library/bignum.c:1661
    4a64:	bfb4      	ite	lt
    4a66:	f04f 33ff 	movlt.w	r3, #4294967295	; 0xffffffff
    4a6a:	2301      	movge	r3, #1
    4a6c:	f8ad 3004 	strh.w	r3, [sp, #4]
/home/aom1/Work/Linux/target/STM32MP1-DK2/bootloader/optee-os-custom/lib/libmbedtls/mbedtls/library/bignum.c:1662
    4a70:	2301      	movs	r3, #1
    4a72:	9302      	str	r3, [sp, #8]
/home/aom1/Work/Linux/target/STM32MP1-DK2/bootloader/optee-os-custom/lib/libmbedtls/mbedtls/library/bignum.c:1663
    4a74:	466b      	mov	r3, sp
    4a76:	9303      	str	r3, [sp, #12]
/home/aom1/Work/Linux/target/STM32MP1-DK2/bootloader/optee-os-custom/lib/libmbedtls/mbedtls/library/bignum.c:1665
    4a78:	f7ff ffb0 	bl	49dc <mbedtls_mpi_sub_mpi>
/home/aom1/Work/Linux/target/STM32MP1-DK2/bootloader/optee-os-custom/lib/libmbedtls/mbedtls/library/bignum.c:1666
    4a7c:	b005      	add	sp, #20
    4a7e:	f85d fb04 	ldr.w	pc, [sp], #4

00004a82 <mbedtls_mpi_mul_mpi>:
mbedtls_mpi_mul_mpi():
/home/aom1/Work/Linux/target/STM32MP1-DK2/bootloader/optee-os-custom/lib/libmbedtls/mbedtls/library/bignum.c:1760
    4a82:	e92d 4ff0 	stmdb	sp!, {r4, r5, r6, r7, r8, r9, sl, fp, lr}
    4a86:	b089      	sub	sp, #36	; 0x24
/home/aom1/Work/Linux/target/STM32MP1-DK2/bootloader/optee-os-custom/lib/libmbedtls/mbedtls/library/bignum.c:1769
    4a88:	f10d 0a08 	add.w	sl, sp, #8
/home/aom1/Work/Linux/target/STM32MP1-DK2/bootloader/optee-os-custom/lib/libmbedtls/mbedtls/library/bignum.c:1760
    4a8c:	4606      	mov	r6, r0
/home/aom1/Work/Linux/target/STM32MP1-DK2/bootloader/optee-os-custom/lib/libmbedtls/mbedtls/library/bignum.c:1769
    4a8e:	f10d 0b14 	add.w	fp, sp, #20
    4a92:	4650      	mov	r0, sl
/home/aom1/Work/Linux/target/STM32MP1-DK2/bootloader/optee-os-custom/lib/libmbedtls/mbedtls/library/bignum.c:1760
    4a94:	4688      	mov	r8, r1
    4a96:	4617      	mov	r7, r2
/home/aom1/Work/Linux/target/STM32MP1-DK2/bootloader/optee-os-custom/lib/libmbedtls/mbedtls/library/bignum.c:1769
    4a98:	f7ff fa50 	bl	3f3c <mbedtls_mpi_init_mempool>
    4a9c:	4658      	mov	r0, fp
    4a9e:	f7ff fa4d 	bl	3f3c <mbedtls_mpi_init_mempool>
/home/aom1/Work/Linux/target/STM32MP1-DK2/bootloader/optee-os-custom/lib/libmbedtls/mbedtls/library/bignum.c:1771
    4aa2:	4546      	cmp	r6, r8
    4aa4:	d106      	bne.n	4ab4 <mbedtls_mpi_mul_mpi+0x32>
/home/aom1/Work/Linux/target/STM32MP1-DK2/bootloader/optee-os-custom/lib/libmbedtls/mbedtls/library/bignum.c:1771 (discriminator 1)
    4aa6:	4631      	mov	r1, r6
    4aa8:	4650      	mov	r0, sl
    4aaa:	f7ff fb3f 	bl	412c <mbedtls_mpi_copy>
    4aae:	4604      	mov	r4, r0
    4ab0:	bb38      	cbnz	r0, 4b02 <mbedtls_mpi_mul_mpi+0x80>
/home/aom1/Work/Linux/target/STM32MP1-DK2/bootloader/optee-os-custom/lib/libmbedtls/mbedtls/library/bignum.c:1771
    4ab2:	46d0      	mov	r8, sl
/home/aom1/Work/Linux/target/STM32MP1-DK2/bootloader/optee-os-custom/lib/libmbedtls/mbedtls/library/bignum.c:1772
    4ab4:	42be      	cmp	r6, r7
    4ab6:	d106      	bne.n	4ac6 <mbedtls_mpi_mul_mpi+0x44>
/home/aom1/Work/Linux/target/STM32MP1-DK2/bootloader/optee-os-custom/lib/libmbedtls/mbedtls/library/bignum.c:1772 (discriminator 1)
    4ab8:	4631      	mov	r1, r6
    4aba:	4658      	mov	r0, fp
    4abc:	f7ff fb36 	bl	412c <mbedtls_mpi_copy>
    4ac0:	4604      	mov	r4, r0
    4ac2:	b9f0      	cbnz	r0, 4b02 <mbedtls_mpi_mul_mpi+0x80>
/home/aom1/Work/Linux/target/STM32MP1-DK2/bootloader/optee-os-custom/lib/libmbedtls/mbedtls/library/bignum.c:1772
    4ac4:	465f      	mov	r7, fp
/home/aom1/Work/Linux/target/STM32MP1-DK2/bootloader/optee-os-custom/lib/libmbedtls/mbedtls/library/bignum.c:1774
    4ac6:	f8d8 9004 	ldr.w	r9, [r8, #4]
/home/aom1/Work/Linux/target/STM32MP1-DK2/bootloader/optee-os-custom/lib/libmbedtls/mbedtls/library/bignum.c:1774 (discriminator 1)
    4aca:	f1b9 0f00 	cmp.w	r9, #0
    4ace:	d122      	bne.n	4b16 <mbedtls_mpi_mul_mpi+0x94>
/home/aom1/Work/Linux/target/STM32MP1-DK2/bootloader/optee-os-custom/lib/libmbedtls/mbedtls/library/bignum.c:1778
    4ad0:	2301      	movs	r3, #1
/home/aom1/Work/Linux/target/STM32MP1-DK2/bootloader/optee-os-custom/lib/libmbedtls/mbedtls/library/bignum.c:1780
    4ad2:	687d      	ldr	r5, [r7, #4]
/home/aom1/Work/Linux/target/STM32MP1-DK2/bootloader/optee-os-custom/lib/libmbedtls/mbedtls/library/bignum.c:1764
    4ad4:	9301      	str	r3, [sp, #4]
/home/aom1/Work/Linux/target/STM32MP1-DK2/bootloader/optee-os-custom/lib/libmbedtls/mbedtls/library/bignum.c:1780 (discriminator 1)
    4ad6:	bb55      	cbnz	r5, 4b2e <mbedtls_mpi_mul_mpi+0xac>
/home/aom1/Work/Linux/target/STM32MP1-DK2/bootloader/optee-os-custom/lib/libmbedtls/mbedtls/library/bignum.c:1784
    4ad8:	2301      	movs	r3, #1
    4ada:	9301      	str	r3, [sp, #4]
/home/aom1/Work/Linux/target/STM32MP1-DK2/bootloader/optee-os-custom/lib/libmbedtls/mbedtls/library/bignum.c:1786
    4adc:	eb09 0105 	add.w	r1, r9, r5
    4ae0:	4630      	mov	r0, r6
    4ae2:	f7ff fa61 	bl	3fa8 <mbedtls_mpi_grow>
    4ae6:	4604      	mov	r4, r0
    4ae8:	b958      	cbnz	r0, 4b02 <mbedtls_mpi_mul_mpi+0x80>
/home/aom1/Work/Linux/target/STM32MP1-DK2/bootloader/optee-os-custom/lib/libmbedtls/mbedtls/library/bignum.c:1787 (discriminator 2)
    4aea:	4601      	mov	r1, r0
    4aec:	4630      	mov	r0, r6
    4aee:	f7ff fbe3 	bl	42b8 <mbedtls_mpi_lset>
    4af2:	4604      	mov	r4, r0
    4af4:	b928      	cbnz	r0, 4b02 <mbedtls_mpi_mul_mpi+0x80>
/home/aom1/Work/Linux/target/STM32MP1-DK2/bootloader/optee-os-custom/lib/libmbedtls/mbedtls/library/bignum.c:1789 (discriminator 2)
    4af6:	3d01      	subs	r5, #1
    4af8:	d222      	bcs.n	4b40 <mbedtls_mpi_mul_mpi+0xbe>
/home/aom1/Work/Linux/target/STM32MP1-DK2/bootloader/optee-os-custom/lib/libmbedtls/mbedtls/library/bignum.c:1796
    4afa:	9b01      	ldr	r3, [sp, #4]
    4afc:	b363      	cbz	r3, 4b58 <mbedtls_mpi_mul_mpi+0xd6>
/home/aom1/Work/Linux/target/STM32MP1-DK2/bootloader/optee-os-custom/lib/libmbedtls/mbedtls/library/bignum.c:1797
    4afe:	2301      	movs	r3, #1
    4b00:	8033      	strh	r3, [r6, #0]
/home/aom1/Work/Linux/target/STM32MP1-DK2/bootloader/optee-os-custom/lib/libmbedtls/mbedtls/library/bignum.c:1803
    4b02:	4658      	mov	r0, fp
    4b04:	f7ff fa2e 	bl	3f64 <mbedtls_mpi_free>
    4b08:	4650      	mov	r0, sl
    4b0a:	f7ff fa2b 	bl	3f64 <mbedtls_mpi_free>
/home/aom1/Work/Linux/target/STM32MP1-DK2/bootloader/optee-os-custom/lib/libmbedtls/mbedtls/library/bignum.c:1806
    4b0e:	4620      	mov	r0, r4
    4b10:	b009      	add	sp, #36	; 0x24
    4b12:	e8bd 8ff0 	ldmia.w	sp!, {r4, r5, r6, r7, r8, r9, sl, fp, pc}
/home/aom1/Work/Linux/target/STM32MP1-DK2/bootloader/optee-os-custom/lib/libmbedtls/mbedtls/library/bignum.c:1775
    4b16:	f8d8 3008 	ldr.w	r3, [r8, #8]
    4b1a:	eb03 0389 	add.w	r3, r3, r9, lsl #2
    4b1e:	f853 3c04 	ldr.w	r3, [r3, #-4]
    4b22:	b913      	cbnz	r3, 4b2a <mbedtls_mpi_mul_mpi+0xa8>
/home/aom1/Work/Linux/target/STM32MP1-DK2/bootloader/optee-os-custom/lib/libmbedtls/mbedtls/library/bignum.c:1774 (discriminator 2)
    4b24:	f109 39ff 	add.w	r9, r9, #4294967295	; 0xffffffff
    4b28:	e7cf      	b.n	4aca <mbedtls_mpi_mul_mpi+0x48>
/home/aom1/Work/Linux/target/STM32MP1-DK2/bootloader/optee-os-custom/lib/libmbedtls/mbedtls/library/bignum.c:1764
    4b2a:	2300      	movs	r3, #0
    4b2c:	e7d1      	b.n	4ad2 <mbedtls_mpi_mul_mpi+0x50>
/home/aom1/Work/Linux/target/STM32MP1-DK2/bootloader/optee-os-custom/lib/libmbedtls/mbedtls/library/bignum.c:1781
    4b2e:	68bb      	ldr	r3, [r7, #8]
    4b30:	eb03 0385 	add.w	r3, r3, r5, lsl #2
    4b34:	f853 3c04 	ldr.w	r3, [r3, #-4]
    4b38:	2b00      	cmp	r3, #0
    4b3a:	d1cf      	bne.n	4adc <mbedtls_mpi_mul_mpi+0x5a>
/home/aom1/Work/Linux/target/STM32MP1-DK2/bootloader/optee-os-custom/lib/libmbedtls/mbedtls/library/bignum.c:1780 (discriminator 2)
    4b3c:	3d01      	subs	r5, #1
    4b3e:	e7ca      	b.n	4ad6 <mbedtls_mpi_mul_mpi+0x54>
/home/aom1/Work/Linux/target/STM32MP1-DK2/bootloader/optee-os-custom/lib/libmbedtls/mbedtls/library/bignum.c:1790 (discriminator 2)
    4b40:	68bb      	ldr	r3, [r7, #8]
    4b42:	4648      	mov	r0, r9
    4b44:	68b2      	ldr	r2, [r6, #8]
    4b46:	f853 3025 	ldr.w	r3, [r3, r5, lsl #2]
    4b4a:	eb02 0285 	add.w	r2, r2, r5, lsl #2
    4b4e:	f8d8 1008 	ldr.w	r1, [r8, #8]
    4b52:	f7fe ff4a 	bl	39ea <mpi_mul_hlp>
    4b56:	e7ce      	b.n	4af6 <mbedtls_mpi_mul_mpi+0x74>
/home/aom1/Work/Linux/target/STM32MP1-DK2/bootloader/optee-os-custom/lib/libmbedtls/mbedtls/library/bignum.c:1799
    4b58:	f8b8 3000 	ldrh.w	r3, [r8]
    4b5c:	883a      	ldrh	r2, [r7, #0]
/home/aom1/Work/Linux/target/STM32MP1-DK2/bootloader/optee-os-custom/lib/libmbedtls/mbedtls/library/bignum.c:1787
    4b5e:	9c01      	ldr	r4, [sp, #4]
/home/aom1/Work/Linux/target/STM32MP1-DK2/bootloader/optee-os-custom/lib/libmbedtls/mbedtls/library/bignum.c:1799
    4b60:	fb13 f302 	smulbb	r3, r3, r2
    4b64:	8033      	strh	r3, [r6, #0]
    4b66:	e7cc      	b.n	4b02 <mbedtls_mpi_mul_mpi+0x80>

00004b68 <mbedtls_mpi_mul_int>:
mbedtls_mpi_mul_int():
/home/aom1/Work/Linux/target/STM32MP1-DK2/bootloader/optee-os-custom/lib/libmbedtls/mbedtls/library/bignum.c:1812
    4b68:	e92d 41f0 	stmdb	sp!, {r4, r5, r6, r7, r8, lr}
    4b6c:	4605      	mov	r5, r0
/home/aom1/Work/Linux/target/STM32MP1-DK2/bootloader/optee-os-custom/lib/libmbedtls/mbedtls/library/bignum.c:1817
    4b6e:	684e      	ldr	r6, [r1, #4]
/home/aom1/Work/Linux/target/STM32MP1-DK2/bootloader/optee-os-custom/lib/libmbedtls/mbedtls/library/bignum.c:1812
    4b70:	460f      	mov	r7, r1
    4b72:	4690      	mov	r8, r2
/home/aom1/Work/Linux/target/STM32MP1-DK2/bootloader/optee-os-custom/lib/libmbedtls/mbedtls/library/bignum.c:1818
    4b74:	b146      	cbz	r6, 4b88 <mbedtls_mpi_mul_int+0x20>
/home/aom1/Work/Linux/target/STM32MP1-DK2/bootloader/optee-os-custom/lib/libmbedtls/mbedtls/library/bignum.c:1818 (discriminator 1)
    4b76:	68bb      	ldr	r3, [r7, #8]
    4b78:	eb03 0386 	add.w	r3, r3, r6, lsl #2
    4b7c:	f853 3c04 	ldr.w	r3, [r3, #-4]
    4b80:	b143      	cbz	r3, 4b94 <mbedtls_mpi_mul_int+0x2c>
/home/aom1/Work/Linux/target/STM32MP1-DK2/bootloader/optee-os-custom/lib/libmbedtls/mbedtls/library/bignum.c:1823
    4b82:	f1b8 0f00 	cmp.w	r8, #0
    4b86:	d107      	bne.n	4b98 <mbedtls_mpi_mul_int+0x30>
/home/aom1/Work/Linux/target/STM32MP1-DK2/bootloader/optee-os-custom/lib/libmbedtls/mbedtls/library/bignum.c:1825
    4b88:	4628      	mov	r0, r5
    4b8a:	2100      	movs	r1, #0
/home/aom1/Work/Linux/target/STM32MP1-DK2/bootloader/optee-os-custom/lib/libmbedtls/mbedtls/library/bignum.c:1844
    4b8c:	e8bd 41f0 	ldmia.w	sp!, {r4, r5, r6, r7, r8, lr}
/home/aom1/Work/Linux/target/STM32MP1-DK2/bootloader/optee-os-custom/lib/libmbedtls/mbedtls/library/bignum.c:1825
    4b90:	f7ff bb92 	b.w	42b8 <mbedtls_mpi_lset>
/home/aom1/Work/Linux/target/STM32MP1-DK2/bootloader/optee-os-custom/lib/libmbedtls/mbedtls/library/bignum.c:1819
    4b94:	3e01      	subs	r6, #1
    4b96:	e7ed      	b.n	4b74 <mbedtls_mpi_mul_int+0xc>
/home/aom1/Work/Linux/target/STM32MP1-DK2/bootloader/optee-os-custom/lib/libmbedtls/mbedtls/library/bignum.c:1838
    4b98:	1c71      	adds	r1, r6, #1
    4b9a:	4628      	mov	r0, r5
    4b9c:	f7ff fa04 	bl	3fa8 <mbedtls_mpi_grow>
    4ba0:	4604      	mov	r4, r0
    4ba2:	b960      	cbnz	r0, 4bbe <mbedtls_mpi_mul_int+0x56>
/home/aom1/Work/Linux/target/STM32MP1-DK2/bootloader/optee-os-custom/lib/libmbedtls/mbedtls/library/bignum.c:1839 (discriminator 2)
    4ba4:	4639      	mov	r1, r7
    4ba6:	4628      	mov	r0, r5
    4ba8:	f7ff fac0 	bl	412c <mbedtls_mpi_copy>
    4bac:	4604      	mov	r4, r0
    4bae:	b930      	cbnz	r0, 4bbe <mbedtls_mpi_mul_int+0x56>
/home/aom1/Work/Linux/target/STM32MP1-DK2/bootloader/optee-os-custom/lib/libmbedtls/mbedtls/library/bignum.c:1840 (discriminator 2)
    4bb0:	68aa      	ldr	r2, [r5, #8]
    4bb2:	f108 33ff 	add.w	r3, r8, #4294967295	; 0xffffffff
    4bb6:	68b9      	ldr	r1, [r7, #8]
    4bb8:	4630      	mov	r0, r6
    4bba:	f7fe ff16 	bl	39ea <mpi_mul_hlp>
/home/aom1/Work/Linux/target/STM32MP1-DK2/bootloader/optee-os-custom/lib/libmbedtls/mbedtls/library/bignum.c:1844
    4bbe:	4620      	mov	r0, r4
    4bc0:	e8bd 81f0 	ldmia.w	sp!, {r4, r5, r6, r7, r8, pc}

00004bc4 <mbedtls_mpi_read_string>:
mbedtls_mpi_read_string():
/home/aom1/Work/Linux/target/STM32MP1-DK2/bootloader/optee-os-custom/lib/libmbedtls/mbedtls/library/bignum.c:630
    4bc4:	1e8b      	subs	r3, r1, #2
    4bc6:	2b0e      	cmp	r3, #14
/home/aom1/Work/Linux/target/STM32MP1-DK2/bootloader/optee-os-custom/lib/libmbedtls/mbedtls/library/bignum.c:621
    4bc8:	e92d 4ff0 	stmdb	sp!, {r4, r5, r6, r7, r8, r9, sl, fp, lr}
    4bcc:	4606      	mov	r6, r0
    4bce:	b085      	sub	sp, #20
    4bd0:	4688      	mov	r8, r1
    4bd2:	4615      	mov	r5, r2
/home/aom1/Work/Linux/target/STM32MP1-DK2/bootloader/optee-os-custom/lib/libmbedtls/mbedtls/library/bignum.c:630
    4bd4:	d905      	bls.n	4be2 <mbedtls_mpi_read_string+0x1e>
/home/aom1/Work/Linux/target/STM32MP1-DK2/bootloader/optee-os-custom/lib/libmbedtls/mbedtls/library/bignum.c:631
    4bd6:	f06f 0403 	mvn.w	r4, #3
/home/aom1/Work/Linux/target/STM32MP1-DK2/bootloader/optee-os-custom/lib/libmbedtls/mbedtls/library/bignum.c:685
    4bda:	4620      	mov	r0, r4
    4bdc:	b005      	add	sp, #20
    4bde:	e8bd 8ff0 	ldmia.w	sp!, {r4, r5, r6, r7, r8, r9, sl, fp, pc}
/home/aom1/Work/Linux/target/STM32MP1-DK2/bootloader/optee-os-custom/lib/libmbedtls/mbedtls/library/bignum.c:633
    4be2:	f10d 0904 	add.w	r9, sp, #4
    4be6:	4648      	mov	r0, r9
    4be8:	f7ff f9a8 	bl	3f3c <mbedtls_mpi_init_mempool>
/home/aom1/Work/Linux/target/STM32MP1-DK2/bootloader/optee-os-custom/lib/libmbedtls/mbedtls/library/bignum.c:635
    4bec:	782c      	ldrb	r4, [r5, #0]
    4bee:	b91c      	cbnz	r4, 4bf8 <mbedtls_mpi_read_string+0x34>
/home/aom1/Work/Linux/target/STM32MP1-DK2/bootloader/optee-os-custom/lib/libmbedtls/mbedtls/library/bignum.c:637
    4bf0:	4630      	mov	r0, r6
/home/aom1/Work/Linux/target/STM32MP1-DK2/bootloader/optee-os-custom/lib/libmbedtls/mbedtls/library/bignum.c:682
    4bf2:	f7ff f9b7 	bl	3f64 <mbedtls_mpi_free>
/home/aom1/Work/Linux/target/STM32MP1-DK2/bootloader/optee-os-custom/lib/libmbedtls/mbedtls/library/bignum.c:684
    4bf6:	e7f0      	b.n	4bda <mbedtls_mpi_read_string+0x16>
/home/aom1/Work/Linux/target/STM32MP1-DK2/bootloader/optee-os-custom/lib/libmbedtls/mbedtls/library/bignum.c:641
    4bf8:	2c2d      	cmp	r4, #45	; 0x2d
/home/aom1/Work/Linux/target/STM32MP1-DK2/bootloader/optee-os-custom/lib/libmbedtls/mbedtls/library/bignum.c:643
    4bfa:	bf04      	itt	eq
    4bfc:	3501      	addeq	r5, #1
/home/aom1/Work/Linux/target/STM32MP1-DK2/bootloader/optee-os-custom/lib/libmbedtls/mbedtls/library/bignum.c:644
    4bfe:	f04f 3aff 	moveq.w	sl, #4294967295	; 0xffffffff
/home/aom1/Work/Linux/target/STM32MP1-DK2/bootloader/optee-os-custom/lib/libmbedtls/mbedtls/library/bignum.c:647
    4c02:	4628      	mov	r0, r5
/home/aom1/Work/Linux/target/STM32MP1-DK2/bootloader/optee-os-custom/lib/libmbedtls/mbedtls/library/bignum.c:624
    4c04:	bf18      	it	ne
    4c06:	f04f 0a01 	movne.w	sl, #1
/home/aom1/Work/Linux/target/STM32MP1-DK2/bootloader/optee-os-custom/lib/libmbedtls/mbedtls/library/bignum.c:647
    4c0a:	f002 f998 	bl	6f3e <strlen>
/home/aom1/Work/Linux/target/STM32MP1-DK2/bootloader/optee-os-custom/lib/libmbedtls/mbedtls/library/bignum.c:649
    4c0e:	f1b8 0f10 	cmp.w	r8, #16
/home/aom1/Work/Linux/target/STM32MP1-DK2/bootloader/optee-os-custom/lib/libmbedtls/mbedtls/library/bignum.c:647
    4c12:	4607      	mov	r7, r0
/home/aom1/Work/Linux/target/STM32MP1-DK2/bootloader/optee-os-custom/lib/libmbedtls/mbedtls/library/bignum.c:649
    4c14:	d141      	bne.n	4c9a <mbedtls_mpi_read_string+0xd6>
/home/aom1/Work/Linux/target/STM32MP1-DK2/bootloader/optee-os-custom/lib/libmbedtls/mbedtls/library/bignum.c:651
    4c16:	f1b0 4f80 	cmp.w	r0, #1073741824	; 0x40000000
    4c1a:	d2dc      	bcs.n	4bd6 <mbedtls_mpi_read_string+0x12>
/home/aom1/Work/Linux/target/STM32MP1-DK2/bootloader/optee-os-custom/lib/libmbedtls/mbedtls/library/bignum.c:654
    4c1c:	0083      	lsls	r3, r0, #2
/home/aom1/Work/Linux/target/STM32MP1-DK2/bootloader/optee-os-custom/lib/libmbedtls/mbedtls/library/bignum.c:656
    4c1e:	4630      	mov	r0, r6
/home/aom1/Work/Linux/target/STM32MP1-DK2/bootloader/optee-os-custom/lib/libmbedtls/mbedtls/library/bignum.c:654
    4c20:	f013 0f1c 	tst.w	r3, #28
    4c24:	bf14      	ite	ne
    4c26:	2101      	movne	r1, #1
    4c28:	2100      	moveq	r1, #0
/home/aom1/Work/Linux/target/STM32MP1-DK2/bootloader/optee-os-custom/lib/libmbedtls/mbedtls/library/bignum.c:656
    4c2a:	eb01 1153 	add.w	r1, r1, r3, lsr #5
    4c2e:	f7ff f9bb 	bl	3fa8 <mbedtls_mpi_grow>
    4c32:	4604      	mov	r4, r0
    4c34:	2800      	cmp	r0, #0
    4c36:	d151      	bne.n	4cdc <mbedtls_mpi_read_string+0x118>
/home/aom1/Work/Linux/target/STM32MP1-DK2/bootloader/optee-os-custom/lib/libmbedtls/mbedtls/library/bignum.c:657 (discriminator 2)
    4c38:	4601      	mov	r1, r0
    4c3a:	4630      	mov	r0, r6
    4c3c:	f7ff fb3c 	bl	42b8 <mbedtls_mpi_lset>
    4c40:	4604      	mov	r4, r0
    4c42:	2800      	cmp	r0, #0
    4c44:	d14a      	bne.n	4cdc <mbedtls_mpi_read_string+0x118>
    4c46:	443d      	add	r5, r7
/home/aom1/Work/Linux/target/STM32MP1-DK2/bootloader/optee-os-custom/lib/libmbedtls/mbedtls/library/bignum.c:659
    4c48:	4680      	mov	r8, r0
/home/aom1/Work/Linux/target/STM32MP1-DK2/bootloader/optee-os-custom/lib/libmbedtls/mbedtls/library/bignum.c:661
    4c4a:	46eb      	mov	fp, sp
/home/aom1/Work/Linux/target/STM32MP1-DK2/bootloader/optee-os-custom/lib/libmbedtls/mbedtls/library/bignum.c:659 (discriminator 2)
    4c4c:	45b8      	cmp	r8, r7
    4c4e:	d10a      	bne.n	4c66 <mbedtls_mpi_read_string+0xa2>
/home/aom1/Work/Linux/target/STM32MP1-DK2/bootloader/optee-os-custom/lib/libmbedtls/mbedtls/library/bignum.c:677
    4c50:	f1ba 3fff 	cmp.w	sl, #4294967295	; 0xffffffff
    4c54:	d105      	bne.n	4c62 <mbedtls_mpi_read_string+0x9e>
/home/aom1/Work/Linux/target/STM32MP1-DK2/bootloader/optee-os-custom/lib/libmbedtls/mbedtls/library/bignum.c:677 (discriminator 1)
    4c56:	4630      	mov	r0, r6
    4c58:	f7ff fb9c 	bl	4394 <mbedtls_mpi_bitlen>
    4c5c:	b108      	cbz	r0, 4c62 <mbedtls_mpi_read_string+0x9e>
/home/aom1/Work/Linux/target/STM32MP1-DK2/bootloader/optee-os-custom/lib/libmbedtls/mbedtls/library/bignum.c:678
    4c5e:	f8a6 a000 	strh.w	sl, [r6]
    4c62:	2400      	movs	r4, #0
    4c64:	e03a      	b.n	4cdc <mbedtls_mpi_read_string+0x118>
/home/aom1/Work/Linux/target/STM32MP1-DK2/bootloader/optee-os-custom/lib/libmbedtls/mbedtls/library/bignum.c:661
    4c66:	f815 2d01 	ldrb.w	r2, [r5, #-1]!
    4c6a:	2110      	movs	r1, #16
    4c6c:	4658      	mov	r0, fp
    4c6e:	f7fe fe9f 	bl	39b0 <mpi_get_digit>
    4c72:	4604      	mov	r4, r0
    4c74:	bb90      	cbnz	r0, 4cdc <mbedtls_mpi_read_string+0x118>
/home/aom1/Work/Linux/target/STM32MP1-DK2/bootloader/optee-os-custom/lib/libmbedtls/mbedtls/library/bignum.c:662 (discriminator 2)
    4c76:	ea4f 0288 	mov.w	r2, r8, lsl #2
    4c7a:	ea4f 00d8 	mov.w	r0, r8, lsr #3
    4c7e:	f002 021c 	and.w	r2, r2, #28
    4c82:	68b1      	ldr	r1, [r6, #8]
/home/aom1/Work/Linux/target/STM32MP1-DK2/bootloader/optee-os-custom/lib/libmbedtls/mbedtls/library/bignum.c:659 (discriminator 2)
    4c84:	f108 0801 	add.w	r8, r8, #1
/home/aom1/Work/Linux/target/STM32MP1-DK2/bootloader/optee-os-custom/lib/libmbedtls/mbedtls/library/bignum.c:662 (discriminator 2)
    4c88:	9b00      	ldr	r3, [sp, #0]
    4c8a:	fa03 f202 	lsl.w	r2, r3, r2
    4c8e:	f851 3020 	ldr.w	r3, [r1, r0, lsl #2]
    4c92:	4313      	orrs	r3, r2
    4c94:	f841 3020 	str.w	r3, [r1, r0, lsl #2]
/home/aom1/Work/Linux/target/STM32MP1-DK2/bootloader/optee-os-custom/lib/libmbedtls/mbedtls/library/bignum.c:659 (discriminator 2)
    4c98:	e7d8      	b.n	4c4c <mbedtls_mpi_read_string+0x88>
/home/aom1/Work/Linux/target/STM32MP1-DK2/bootloader/optee-os-custom/lib/libmbedtls/mbedtls/library/bignum.c:667
    4c9a:	2100      	movs	r1, #0
    4c9c:	4630      	mov	r0, r6
    4c9e:	f7ff fb0b 	bl	42b8 <mbedtls_mpi_lset>
    4ca2:	4604      	mov	r4, r0
    4ca4:	b9d0      	cbnz	r0, 4cdc <mbedtls_mpi_read_string+0x118>
    4ca6:	442f      	add	r7, r5
/home/aom1/Work/Linux/target/STM32MP1-DK2/bootloader/optee-os-custom/lib/libmbedtls/mbedtls/library/bignum.c:671
    4ca8:	46eb      	mov	fp, sp
/home/aom1/Work/Linux/target/STM32MP1-DK2/bootloader/optee-os-custom/lib/libmbedtls/mbedtls/library/bignum.c:669 (discriminator 2)
    4caa:	42af      	cmp	r7, r5
    4cac:	d0d0      	beq.n	4c50 <mbedtls_mpi_read_string+0x8c>
/home/aom1/Work/Linux/target/STM32MP1-DK2/bootloader/optee-os-custom/lib/libmbedtls/mbedtls/library/bignum.c:671
    4cae:	f815 2b01 	ldrb.w	r2, [r5], #1
    4cb2:	4641      	mov	r1, r8
    4cb4:	4658      	mov	r0, fp
    4cb6:	f7fe fe7b 	bl	39b0 <mpi_get_digit>
    4cba:	4604      	mov	r4, r0
    4cbc:	b970      	cbnz	r0, 4cdc <mbedtls_mpi_read_string+0x118>
/home/aom1/Work/Linux/target/STM32MP1-DK2/bootloader/optee-os-custom/lib/libmbedtls/mbedtls/library/bignum.c:672 (discriminator 2)
    4cbe:	4642      	mov	r2, r8
    4cc0:	4631      	mov	r1, r6
    4cc2:	4648      	mov	r0, r9
    4cc4:	f7ff ff50 	bl	4b68 <mbedtls_mpi_mul_int>
    4cc8:	4604      	mov	r4, r0
    4cca:	b938      	cbnz	r0, 4cdc <mbedtls_mpi_read_string+0x118>
/home/aom1/Work/Linux/target/STM32MP1-DK2/bootloader/optee-os-custom/lib/libmbedtls/mbedtls/library/bignum.c:673 (discriminator 2)
    4ccc:	9a00      	ldr	r2, [sp, #0]
    4cce:	4649      	mov	r1, r9
    4cd0:	4630      	mov	r0, r6
    4cd2:	f7ff fea8 	bl	4a26 <mbedtls_mpi_add_int>
    4cd6:	4604      	mov	r4, r0
    4cd8:	2800      	cmp	r0, #0
    4cda:	d0e6      	beq.n	4caa <mbedtls_mpi_read_string+0xe6>
/home/aom1/Work/Linux/target/STM32MP1-DK2/bootloader/optee-os-custom/lib/libmbedtls/mbedtls/library/bignum.c:682
    4cdc:	4648      	mov	r0, r9
    4cde:	e788      	b.n	4bf2 <mbedtls_mpi_read_string+0x2e>

00004ce0 <mbedtls_mpi_div_mpi>:
mbedtls_mpi_div_mpi():
/home/aom1/Work/Linux/target/STM32MP1-DK2/bootloader/optee-os-custom/lib/libmbedtls/mbedtls/library/bignum.c:1947
    4ce0:	e92d 4ff0 	stmdb	sp!, {r4, r5, r6, r7, r8, r9, sl, fp, lr}
    4ce4:	b09b      	sub	sp, #108	; 0x6c
    4ce6:	460f      	mov	r7, r1
/home/aom1/Work/Linux/target/STM32MP1-DK2/bootloader/optee-os-custom/lib/libmbedtls/mbedtls/library/bignum.c:1955
    4ce8:	2100      	movs	r1, #0
/home/aom1/Work/Linux/target/STM32MP1-DK2/bootloader/optee-os-custom/lib/libmbedtls/mbedtls/library/bignum.c:1947
    4cea:	9001      	str	r0, [sp, #4]
/home/aom1/Work/Linux/target/STM32MP1-DK2/bootloader/optee-os-custom/lib/libmbedtls/mbedtls/library/bignum.c:1955
    4cec:	4618      	mov	r0, r3
/home/aom1/Work/Linux/target/STM32MP1-DK2/bootloader/optee-os-custom/lib/libmbedtls/mbedtls/library/bignum.c:1947
    4cee:	9304      	str	r3, [sp, #16]
    4cf0:	4616      	mov	r6, r2
/home/aom1/Work/Linux/target/STM32MP1-DK2/bootloader/optee-os-custom/lib/libmbedtls/mbedtls/library/bignum.c:1955
    4cf2:	f7ff fd70 	bl	47d6 <mbedtls_mpi_cmp_int>
    4cf6:	2800      	cmp	r0, #0
    4cf8:	f000 81a1 	beq.w	503e <mbedtls_mpi_div_mpi+0x35e>
/home/aom1/Work/Linux/target/STM32MP1-DK2/bootloader/optee-os-custom/lib/libmbedtls/mbedtls/library/bignum.c:1958
    4cfc:	f10d 0920 	add.w	r9, sp, #32
    4d00:	f10d 082c 	add.w	r8, sp, #44	; 0x2c
    4d04:	4648      	mov	r0, r9
/home/aom1/Work/Linux/target/STM32MP1-DK2/bootloader/optee-os-custom/lib/libmbedtls/mbedtls/library/bignum.c:1959
    4d06:	ad0e      	add	r5, sp, #56	; 0x38
    4d08:	f10d 0b44 	add.w	fp, sp, #68	; 0x44
/home/aom1/Work/Linux/target/STM32MP1-DK2/bootloader/optee-os-custom/lib/libmbedtls/mbedtls/library/bignum.c:1958
    4d0c:	f7ff f916 	bl	3f3c <mbedtls_mpi_init_mempool>
    4d10:	4640      	mov	r0, r8
/home/aom1/Work/Linux/target/STM32MP1-DK2/bootloader/optee-os-custom/lib/libmbedtls/mbedtls/library/bignum.c:1967
    4d12:	f04f 0a01 	mov.w	sl, #1
/home/aom1/Work/Linux/target/STM32MP1-DK2/bootloader/optee-os-custom/lib/libmbedtls/mbedtls/library/bignum.c:1958
    4d16:	f7ff f911 	bl	3f3c <mbedtls_mpi_init_mempool>
/home/aom1/Work/Linux/target/STM32MP1-DK2/bootloader/optee-os-custom/lib/libmbedtls/mbedtls/library/bignum.c:1959
    4d1a:	4628      	mov	r0, r5
    4d1c:	f7ff f90e 	bl	3f3c <mbedtls_mpi_init_mempool>
    4d20:	4658      	mov	r0, fp
    4d22:	f7ff f90b 	bl	3f3c <mbedtls_mpi_init_mempool>
/home/aom1/Work/Linux/target/STM32MP1-DK2/bootloader/optee-os-custom/lib/libmbedtls/mbedtls/library/bignum.c:1971
    4d26:	9904      	ldr	r1, [sp, #16]
/home/aom1/Work/Linux/target/STM32MP1-DK2/bootloader/optee-os-custom/lib/libmbedtls/mbedtls/library/bignum.c:1968
    4d28:	2303      	movs	r3, #3
    4d2a:	9315      	str	r3, [sp, #84]	; 0x54
/home/aom1/Work/Linux/target/STM32MP1-DK2/bootloader/optee-os-custom/lib/libmbedtls/mbedtls/library/bignum.c:1971
    4d2c:	4630      	mov	r0, r6
/home/aom1/Work/Linux/target/STM32MP1-DK2/bootloader/optee-os-custom/lib/libmbedtls/mbedtls/library/bignum.c:1967
    4d2e:	f8ad a050 	strh.w	sl, [sp, #80]	; 0x50
/home/aom1/Work/Linux/target/STM32MP1-DK2/bootloader/optee-os-custom/lib/libmbedtls/mbedtls/library/bignum.c:1969
    4d32:	ab17      	add	r3, sp, #92	; 0x5c
    4d34:	9316      	str	r3, [sp, #88]	; 0x58
/home/aom1/Work/Linux/target/STM32MP1-DK2/bootloader/optee-os-custom/lib/libmbedtls/mbedtls/library/bignum.c:1971
    4d36:	f7ff fc89 	bl	464c <mbedtls_mpi_cmp_abs>
    4d3a:	2800      	cmp	r0, #0
    4d3c:	da27      	bge.n	4d8e <mbedtls_mpi_div_mpi+0xae>
/home/aom1/Work/Linux/target/STM32MP1-DK2/bootloader/optee-os-custom/lib/libmbedtls/mbedtls/library/bignum.c:1973
    4d3e:	9b01      	ldr	r3, [sp, #4]
    4d40:	b92b      	cbnz	r3, 4d4e <mbedtls_mpi_div_mpi+0x6e>
/home/aom1/Work/Linux/target/STM32MP1-DK2/bootloader/optee-os-custom/lib/libmbedtls/mbedtls/library/bignum.c:1974
    4d42:	b9e7      	cbnz	r7, 4d7e <mbedtls_mpi_div_mpi+0x9e>
/home/aom1/Work/Linux/target/STM32MP1-DK2/bootloader/optee-os-custom/lib/libmbedtls/mbedtls/library/bignum.c:1975
    4d44:	2400      	movs	r4, #0
/home/aom1/Work/Linux/target/STM32MP1-DK2/bootloader/optee-os-custom/lib/libmbedtls/mbedtls/library/bignum.c:2068
    4d46:	4620      	mov	r0, r4
    4d48:	b01b      	add	sp, #108	; 0x6c
    4d4a:	e8bd 8ff0 	ldmia.w	sp!, {r4, r5, r6, r7, r8, r9, sl, fp, pc}
/home/aom1/Work/Linux/target/STM32MP1-DK2/bootloader/optee-os-custom/lib/libmbedtls/mbedtls/library/bignum.c:1973 (discriminator 1)
    4d4e:	9801      	ldr	r0, [sp, #4]
    4d50:	2100      	movs	r1, #0
    4d52:	f7ff fab1 	bl	42b8 <mbedtls_mpi_lset>
    4d56:	4604      	mov	r4, r0
    4d58:	2800      	cmp	r0, #0
    4d5a:	d0f2      	beq.n	4d42 <mbedtls_mpi_div_mpi+0x62>
/home/aom1/Work/Linux/target/STM32MP1-DK2/bootloader/optee-os-custom/lib/libmbedtls/mbedtls/library/bignum.c:2063
    4d5c:	a808      	add	r0, sp, #32
    4d5e:	f7ff f901 	bl	3f64 <mbedtls_mpi_free>
    4d62:	a80b      	add	r0, sp, #44	; 0x2c
    4d64:	f7ff f8fe 	bl	3f64 <mbedtls_mpi_free>
    4d68:	a80e      	add	r0, sp, #56	; 0x38
    4d6a:	f7ff f8fb 	bl	3f64 <mbedtls_mpi_free>
/home/aom1/Work/Linux/target/STM32MP1-DK2/bootloader/optee-os-custom/lib/libmbedtls/mbedtls/library/bignum.c:2064
    4d6e:	a811      	add	r0, sp, #68	; 0x44
    4d70:	f7ff f8f8 	bl	3f64 <mbedtls_mpi_free>
/home/aom1/Work/Linux/target/STM32MP1-DK2/bootloader/optee-os-custom/lib/libmbedtls/mbedtls/library/bignum.c:2065
    4d74:	210c      	movs	r1, #12
    4d76:	a817      	add	r0, sp, #92	; 0x5c
    4d78:	f001 fafe 	bl	6378 <mbedtls_platform_zeroize>
/home/aom1/Work/Linux/target/STM32MP1-DK2/bootloader/optee-os-custom/lib/libmbedtls/mbedtls/library/bignum.c:2067
    4d7c:	e7e3      	b.n	4d46 <mbedtls_mpi_div_mpi+0x66>
/home/aom1/Work/Linux/target/STM32MP1-DK2/bootloader/optee-os-custom/lib/libmbedtls/mbedtls/library/bignum.c:1974 (discriminator 1)
    4d7e:	4631      	mov	r1, r6
    4d80:	4638      	mov	r0, r7
    4d82:	f7ff f9d3 	bl	412c <mbedtls_mpi_copy>
    4d86:	4604      	mov	r4, r0
    4d88:	2800      	cmp	r0, #0
    4d8a:	d1e7      	bne.n	4d5c <mbedtls_mpi_div_mpi+0x7c>
    4d8c:	e7da      	b.n	4d44 <mbedtls_mpi_div_mpi+0x64>
/home/aom1/Work/Linux/target/STM32MP1-DK2/bootloader/optee-os-custom/lib/libmbedtls/mbedtls/library/bignum.c:1978
    4d8e:	4631      	mov	r1, r6
    4d90:	4648      	mov	r0, r9
    4d92:	f7ff f9cb 	bl	412c <mbedtls_mpi_copy>
    4d96:	4604      	mov	r4, r0
    4d98:	2800      	cmp	r0, #0
    4d9a:	d1df      	bne.n	4d5c <mbedtls_mpi_div_mpi+0x7c>
/home/aom1/Work/Linux/target/STM32MP1-DK2/bootloader/optee-os-custom/lib/libmbedtls/mbedtls/library/bignum.c:1979 (discriminator 2)
    4d9c:	9904      	ldr	r1, [sp, #16]
    4d9e:	4640      	mov	r0, r8
    4da0:	f7ff f9c4 	bl	412c <mbedtls_mpi_copy>
    4da4:	4604      	mov	r4, r0
    4da6:	2800      	cmp	r0, #0
    4da8:	d1d8      	bne.n	4d5c <mbedtls_mpi_div_mpi+0x7c>
/home/aom1/Work/Linux/target/STM32MP1-DK2/bootloader/optee-os-custom/lib/libmbedtls/mbedtls/library/bignum.c:1982 (discriminator 2)
    4daa:	6871      	ldr	r1, [r6, #4]
    4dac:	4628      	mov	r0, r5
/home/aom1/Work/Linux/target/STM32MP1-DK2/bootloader/optee-os-custom/lib/libmbedtls/mbedtls/library/bignum.c:1980 (discriminator 2)
    4dae:	f8ad a02c 	strh.w	sl, [sp, #44]	; 0x2c
    4db2:	f8ad a020 	strh.w	sl, [sp, #32]
/home/aom1/Work/Linux/target/STM32MP1-DK2/bootloader/optee-os-custom/lib/libmbedtls/mbedtls/library/bignum.c:1982 (discriminator 2)
    4db6:	3102      	adds	r1, #2
    4db8:	f7ff f8f6 	bl	3fa8 <mbedtls_mpi_grow>
    4dbc:	4604      	mov	r4, r0
    4dbe:	2800      	cmp	r0, #0
    4dc0:	d1cc      	bne.n	4d5c <mbedtls_mpi_div_mpi+0x7c>
/home/aom1/Work/Linux/target/STM32MP1-DK2/bootloader/optee-os-custom/lib/libmbedtls/mbedtls/library/bignum.c:1983 (discriminator 2)
    4dc2:	4601      	mov	r1, r0
    4dc4:	4628      	mov	r0, r5
    4dc6:	f7ff fa77 	bl	42b8 <mbedtls_mpi_lset>
    4dca:	4604      	mov	r4, r0
    4dcc:	2800      	cmp	r0, #0
    4dce:	d1c5      	bne.n	4d5c <mbedtls_mpi_div_mpi+0x7c>
/home/aom1/Work/Linux/target/STM32MP1-DK2/bootloader/optee-os-custom/lib/libmbedtls/mbedtls/library/bignum.c:1984 (discriminator 2)
    4dd0:	6871      	ldr	r1, [r6, #4]
    4dd2:	4658      	mov	r0, fp
    4dd4:	3102      	adds	r1, #2
    4dd6:	f7ff f8e7 	bl	3fa8 <mbedtls_mpi_grow>
    4dda:	4604      	mov	r4, r0
    4ddc:	2800      	cmp	r0, #0
    4dde:	d1bd      	bne.n	4d5c <mbedtls_mpi_div_mpi+0x7c>
/home/aom1/Work/Linux/target/STM32MP1-DK2/bootloader/optee-os-custom/lib/libmbedtls/mbedtls/library/bignum.c:1986 (discriminator 2)
    4de0:	4640      	mov	r0, r8
    4de2:	f7ff fad7 	bl	4394 <mbedtls_mpi_bitlen>
    4de6:	f000 001f 	and.w	r0, r0, #31
/home/aom1/Work/Linux/target/STM32MP1-DK2/bootloader/optee-os-custom/lib/libmbedtls/mbedtls/library/bignum.c:1987 (discriminator 2)
    4dea:	281f      	cmp	r0, #31
    4dec:	d074      	beq.n	4ed8 <mbedtls_mpi_div_mpi+0x1f8>
/home/aom1/Work/Linux/target/STM32MP1-DK2/bootloader/optee-os-custom/lib/libmbedtls/mbedtls/library/bignum.c:1989
    4dee:	f1c0 031f 	rsb	r3, r0, #31
/home/aom1/Work/Linux/target/STM32MP1-DK2/bootloader/optee-os-custom/lib/libmbedtls/mbedtls/library/bignum.c:1990
    4df2:	4648      	mov	r0, r9
/home/aom1/Work/Linux/target/STM32MP1-DK2/bootloader/optee-os-custom/lib/libmbedtls/mbedtls/library/bignum.c:1989
    4df4:	9302      	str	r3, [sp, #8]
/home/aom1/Work/Linux/target/STM32MP1-DK2/bootloader/optee-os-custom/lib/libmbedtls/mbedtls/library/bignum.c:1990
    4df6:	4619      	mov	r1, r3
    4df8:	f7ff fb9a 	bl	4530 <mbedtls_mpi_shift_l>
    4dfc:	4604      	mov	r4, r0
    4dfe:	2800      	cmp	r0, #0
    4e00:	d1ac      	bne.n	4d5c <mbedtls_mpi_div_mpi+0x7c>
/home/aom1/Work/Linux/target/STM32MP1-DK2/bootloader/optee-os-custom/lib/libmbedtls/mbedtls/library/bignum.c:1991 (discriminator 2)
    4e02:	9902      	ldr	r1, [sp, #8]
    4e04:	4640      	mov	r0, r8
    4e06:	f7ff fb93 	bl	4530 <mbedtls_mpi_shift_l>
    4e0a:	4604      	mov	r4, r0
    4e0c:	2800      	cmp	r0, #0
    4e0e:	d1a5      	bne.n	4d5c <mbedtls_mpi_div_mpi+0x7c>
/home/aom1/Work/Linux/target/STM32MP1-DK2/bootloader/optee-os-custom/lib/libmbedtls/mbedtls/library/bignum.c:1995
    4e10:	9d09      	ldr	r5, [sp, #36]	; 0x24
/home/aom1/Work/Linux/target/STM32MP1-DK2/bootloader/optee-os-custom/lib/libmbedtls/mbedtls/library/bignum.c:1997
    4e12:	4640      	mov	r0, r8
/home/aom1/Work/Linux/target/STM32MP1-DK2/bootloader/optee-os-custom/lib/libmbedtls/mbedtls/library/bignum.c:1996
    4e14:	f8dd a030 	ldr.w	sl, [sp, #48]	; 0x30
/home/aom1/Work/Linux/target/STM32MP1-DK2/bootloader/optee-os-custom/lib/libmbedtls/mbedtls/library/bignum.c:1997
    4e18:	eba5 030a 	sub.w	r3, r5, sl
    4e1c:	9300      	str	r3, [sp, #0]
    4e1e:	ea4f 1b43 	mov.w	fp, r3, lsl #5
    4e22:	4659      	mov	r1, fp
    4e24:	f7ff fb84 	bl	4530 <mbedtls_mpi_shift_l>
    4e28:	4604      	mov	r4, r0
    4e2a:	2800      	cmp	r0, #0
    4e2c:	d196      	bne.n	4d5c <mbedtls_mpi_div_mpi+0x7c>
/home/aom1/Work/Linux/target/STM32MP1-DK2/bootloader/optee-os-custom/lib/libmbedtls/mbedtls/library/bignum.c:2001
    4e2e:	9b00      	ldr	r3, [sp, #0]
    4e30:	009b      	lsls	r3, r3, #2
    4e32:	9300      	str	r3, [sp, #0]
/home/aom1/Work/Linux/target/STM32MP1-DK2/bootloader/optee-os-custom/lib/libmbedtls/mbedtls/library/bignum.c:1999 (discriminator 2)
    4e34:	4641      	mov	r1, r8
    4e36:	4648      	mov	r0, r9
    4e38:	f7ff fc39 	bl	46ae <mbedtls_mpi_cmp_mpi>
    4e3c:	9b00      	ldr	r3, [sp, #0]
    4e3e:	2800      	cmp	r0, #0
    4e40:	da4c      	bge.n	4edc <mbedtls_mpi_div_mpi+0x1fc>
/home/aom1/Work/Linux/target/STM32MP1-DK2/bootloader/optee-os-custom/lib/libmbedtls/mbedtls/library/bignum.c:2004
    4e42:	4659      	mov	r1, fp
    4e44:	4640      	mov	r0, r8
    4e46:	f7ff fbc5 	bl	45d4 <mbedtls_mpi_shift_r>
    4e4a:	4604      	mov	r4, r0
    4e4c:	2800      	cmp	r0, #0
    4e4e:	d185      	bne.n	4d5c <mbedtls_mpi_div_mpi+0x7c>
/home/aom1/Work/Linux/target/STM32MP1-DK2/bootloader/optee-os-custom/lib/libmbedtls/mbedtls/library/bignum.c:1995
    4e50:	1e6b      	subs	r3, r5, #1
    4e52:	f105 4580 	add.w	r5, r5, #1073741824	; 0x40000000
    4e56:	9300      	str	r3, [sp, #0]
/home/aom1/Work/Linux/target/STM32MP1-DK2/bootloader/optee-os-custom/lib/libmbedtls/mbedtls/library/bignum.c:1996
    4e58:	f10a 33ff 	add.w	r3, sl, #4294967295	; 0xffffffff
    4e5c:	9303      	str	r3, [sp, #12]
    4e5e:	3d01      	subs	r5, #1
/home/aom1/Work/Linux/target/STM32MP1-DK2/bootloader/optee-os-custom/lib/libmbedtls/mbedtls/library/bignum.c:2008
    4e60:	009b      	lsls	r3, r3, #2
    4e62:	9305      	str	r3, [sp, #20]
/home/aom1/Work/Linux/target/STM32MP1-DK2/bootloader/optee-os-custom/lib/libmbedtls/mbedtls/library/bignum.c:2026
    4e64:	f10a 4380 	add.w	r3, sl, #1073741824	; 0x40000000
    4e68:	eba5 050a 	sub.w	r5, r5, sl
    4e6c:	3b02      	subs	r3, #2
    4e6e:	00ad      	lsls	r5, r5, #2
    4e70:	009b      	lsls	r3, r3, #2
    4e72:	9306      	str	r3, [sp, #24]
/home/aom1/Work/Linux/target/STM32MP1-DK2/bootloader/optee-os-custom/lib/libmbedtls/mbedtls/library/bignum.c:2030
    4e74:	ab14      	add	r3, sp, #80	; 0x50
    4e76:	9307      	str	r3, [sp, #28]
/home/aom1/Work/Linux/target/STM32MP1-DK2/bootloader/optee-os-custom/lib/libmbedtls/mbedtls/library/bignum.c:2006 (discriminator 1)
    4e78:	9b00      	ldr	r3, [sp, #0]
    4e7a:	9a03      	ldr	r2, [sp, #12]
    4e7c:	4293      	cmp	r3, r2
    4e7e:	d83c      	bhi.n	4efa <mbedtls_mpi_div_mpi+0x21a>
/home/aom1/Work/Linux/target/STM32MP1-DK2/bootloader/optee-os-custom/lib/libmbedtls/mbedtls/library/bignum.c:2045
    4e80:	9b01      	ldr	r3, [sp, #4]
    4e82:	b15b      	cbz	r3, 4e9c <mbedtls_mpi_div_mpi+0x1bc>
/home/aom1/Work/Linux/target/STM32MP1-DK2/bootloader/optee-os-custom/lib/libmbedtls/mbedtls/library/bignum.c:2047
    4e84:	a90e      	add	r1, sp, #56	; 0x38
    4e86:	4618      	mov	r0, r3
    4e88:	f7ff f950 	bl	412c <mbedtls_mpi_copy>
    4e8c:	bb10      	cbnz	r0, 4ed4 <mbedtls_mpi_div_mpi+0x1f4>
/home/aom1/Work/Linux/target/STM32MP1-DK2/bootloader/optee-os-custom/lib/libmbedtls/mbedtls/library/bignum.c:2048 (discriminator 2)
    4e8e:	9a04      	ldr	r2, [sp, #16]
    4e90:	8833      	ldrh	r3, [r6, #0]
    4e92:	8812      	ldrh	r2, [r2, #0]
    4e94:	fb13 f302 	smulbb	r3, r3, r2
    4e98:	9a01      	ldr	r2, [sp, #4]
    4e9a:	8013      	strh	r3, [r2, #0]
/home/aom1/Work/Linux/target/STM32MP1-DK2/bootloader/optee-os-custom/lib/libmbedtls/mbedtls/library/bignum.c:2051
    4e9c:	2f00      	cmp	r7, #0
    4e9e:	f43f af5d 	beq.w	4d5c <mbedtls_mpi_div_mpi+0x7c>
/home/aom1/Work/Linux/target/STM32MP1-DK2/bootloader/optee-os-custom/lib/libmbedtls/mbedtls/library/bignum.c:2053
    4ea2:	9902      	ldr	r1, [sp, #8]
    4ea4:	ad08      	add	r5, sp, #32
    4ea6:	4628      	mov	r0, r5
    4ea8:	f7ff fb94 	bl	45d4 <mbedtls_mpi_shift_r>
    4eac:	b990      	cbnz	r0, 4ed4 <mbedtls_mpi_div_mpi+0x1f4>
/home/aom1/Work/Linux/target/STM32MP1-DK2/bootloader/optee-os-custom/lib/libmbedtls/mbedtls/library/bignum.c:2054 (discriminator 2)
    4eae:	8833      	ldrh	r3, [r6, #0]
/home/aom1/Work/Linux/target/STM32MP1-DK2/bootloader/optee-os-custom/lib/libmbedtls/mbedtls/library/bignum.c:2055 (discriminator 2)
    4eb0:	4629      	mov	r1, r5
    4eb2:	4638      	mov	r0, r7
/home/aom1/Work/Linux/target/STM32MP1-DK2/bootloader/optee-os-custom/lib/libmbedtls/mbedtls/library/bignum.c:2054 (discriminator 2)
    4eb4:	f8ad 3020 	strh.w	r3, [sp, #32]
/home/aom1/Work/Linux/target/STM32MP1-DK2/bootloader/optee-os-custom/lib/libmbedtls/mbedtls/library/bignum.c:2055 (discriminator 2)
    4eb8:	f7ff f938 	bl	412c <mbedtls_mpi_copy>
    4ebc:	4601      	mov	r1, r0
    4ebe:	2800      	cmp	r0, #0
    4ec0:	f040 80bb 	bne.w	503a <mbedtls_mpi_div_mpi+0x35a>
/home/aom1/Work/Linux/target/STM32MP1-DK2/bootloader/optee-os-custom/lib/libmbedtls/mbedtls/library/bignum.c:2057 (discriminator 2)
    4ec4:	4638      	mov	r0, r7
    4ec6:	f7ff fc86 	bl	47d6 <mbedtls_mpi_cmp_int>
    4eca:	2800      	cmp	r0, #0
    4ecc:	f47f af46 	bne.w	4d5c <mbedtls_mpi_div_mpi+0x7c>
/home/aom1/Work/Linux/target/STM32MP1-DK2/bootloader/optee-os-custom/lib/libmbedtls/mbedtls/library/bignum.c:2058
    4ed0:	2301      	movs	r3, #1
    4ed2:	803b      	strh	r3, [r7, #0]
    4ed4:	4604      	mov	r4, r0
    4ed6:	e741      	b.n	4d5c <mbedtls_mpi_div_mpi+0x7c>
/home/aom1/Work/Linux/target/STM32MP1-DK2/bootloader/optee-os-custom/lib/libmbedtls/mbedtls/library/bignum.c:1993
    4ed8:	9402      	str	r4, [sp, #8]
    4eda:	e799      	b.n	4e10 <mbedtls_mpi_div_mpi+0x130>
/home/aom1/Work/Linux/target/STM32MP1-DK2/bootloader/optee-os-custom/lib/libmbedtls/mbedtls/library/bignum.c:2001
    4edc:	9910      	ldr	r1, [sp, #64]	; 0x40
/home/aom1/Work/Linux/target/STM32MP1-DK2/bootloader/optee-os-custom/lib/libmbedtls/mbedtls/library/bignum.c:2002
    4ede:	4648      	mov	r0, r9
/home/aom1/Work/Linux/target/STM32MP1-DK2/bootloader/optee-os-custom/lib/libmbedtls/mbedtls/library/bignum.c:2001
    4ee0:	9300      	str	r3, [sp, #0]
    4ee2:	58ca      	ldr	r2, [r1, r3]
    4ee4:	3201      	adds	r2, #1
    4ee6:	50ca      	str	r2, [r1, r3]
/home/aom1/Work/Linux/target/STM32MP1-DK2/bootloader/optee-os-custom/lib/libmbedtls/mbedtls/library/bignum.c:2002
    4ee8:	4642      	mov	r2, r8
    4eea:	4649      	mov	r1, r9
    4eec:	f7ff fd76 	bl	49dc <mbedtls_mpi_sub_mpi>
    4ef0:	9b00      	ldr	r3, [sp, #0]
    4ef2:	4604      	mov	r4, r0
    4ef4:	2800      	cmp	r0, #0
    4ef6:	d09c      	beq.n	4e32 <mbedtls_mpi_div_mpi+0x152>
    4ef8:	e730      	b.n	4d5c <mbedtls_mpi_div_mpi+0x7c>
/home/aom1/Work/Linux/target/STM32MP1-DK2/bootloader/optee-os-custom/lib/libmbedtls/mbedtls/library/bignum.c:2008
    4efa:	9b00      	ldr	r3, [sp, #0]
    4efc:	f8dd 9028 	ldr.w	r9, [sp, #40]	; 0x28
    4f00:	ea4f 0a83 	mov.w	sl, r3, lsl #2
    4f04:	f859 1023 	ldr.w	r1, [r9, r3, lsl #2]
/home/aom1/Work/Linux/target/STM32MP1-DK2/bootloader/optee-os-custom/lib/libmbedtls/mbedtls/library/bignum.c:2012
    4f08:	f1aa 0b04 	sub.w	fp, sl, #4
/home/aom1/Work/Linux/target/STM32MP1-DK2/bootloader/optee-os-custom/lib/libmbedtls/mbedtls/library/bignum.c:2008
    4f0c:	9b0d      	ldr	r3, [sp, #52]	; 0x34
    4f0e:	9a05      	ldr	r2, [sp, #20]
    4f10:	589a      	ldr	r2, [r3, r2]
/home/aom1/Work/Linux/target/STM32MP1-DK2/bootloader/optee-os-custom/lib/libmbedtls/mbedtls/library/bignum.c:2009
    4f12:	9b10      	ldr	r3, [sp, #64]	; 0x40
/home/aom1/Work/Linux/target/STM32MP1-DK2/bootloader/optee-os-custom/lib/libmbedtls/mbedtls/library/bignum.c:2008
    4f14:	4291      	cmp	r1, r2
/home/aom1/Work/Linux/target/STM32MP1-DK2/bootloader/optee-os-custom/lib/libmbedtls/mbedtls/library/bignum.c:2009
    4f16:	eb03 0805 	add.w	r8, r3, r5
/home/aom1/Work/Linux/target/STM32MP1-DK2/bootloader/optee-os-custom/lib/libmbedtls/mbedtls/library/bignum.c:2008
    4f1a:	f080 8089 	bcs.w	5030 <mbedtls_mpi_div_mpi+0x350>
mbedtls_int_div_int():
/home/aom1/Work/Linux/target/STM32MP1-DK2/bootloader/optee-os-custom/lib/libmbedtls/mbedtls/library/bignum.c:1866
    4f1e:	2a00      	cmp	r2, #0
    4f20:	f000 8086 	beq.w	5030 <mbedtls_mpi_div_mpi+0x350>
/home/aom1/Work/Linux/target/STM32MP1-DK2/bootloader/optee-os-custom/lib/libmbedtls/mbedtls/library/bignum.c:1876
    4f24:	f859 000b 	ldr.w	r0, [r9, fp]
    4f28:	2300      	movs	r3, #0
    4f2a:	f7fb eeb4 	blx	c94 <__aeabi_uldivmod>
/home/aom1/Work/Linux/target/STM32MP1-DK2/bootloader/optee-os-custom/lib/libmbedtls/mbedtls/library/bignum.c:1883
    4f2e:	2900      	cmp	r1, #0
    4f30:	bf0c      	ite	eq
    4f32:	4603      	moveq	r3, r0
    4f34:	f04f 33ff 	movne.w	r3, #4294967295	; 0xffffffff
mbedtls_mpi_div_mpi():
/home/aom1/Work/Linux/target/STM32MP1-DK2/bootloader/optee-os-custom/lib/libmbedtls/mbedtls/library/bignum.c:2009
    4f38:	f8c8 3000 	str.w	r3, [r8]
/home/aom1/Work/Linux/target/STM32MP1-DK2/bootloader/optee-os-custom/lib/libmbedtls/mbedtls/library/bignum.c:2016
    4f3c:	9b00      	ldr	r3, [sp, #0]
    4f3e:	2b01      	cmp	r3, #1
    4f40:	bf16      	itet	ne
    4f42:	eb09 030a 	addne.w	r3, r9, sl
    4f46:	2200      	moveq	r2, #0
    4f48:	f853 2c08 	ldrne.w	r2, [r3, #-8]
    4f4c:	9b16      	ldr	r3, [sp, #88]	; 0x58
    4f4e:	601a      	str	r2, [r3, #0]
/home/aom1/Work/Linux/target/STM32MP1-DK2/bootloader/optee-os-custom/lib/libmbedtls/mbedtls/library/bignum.c:2017
    4f50:	f859 200b 	ldr.w	r2, [r9, fp]
    4f54:	605a      	str	r2, [r3, #4]
/home/aom1/Work/Linux/target/STM32MP1-DK2/bootloader/optee-os-custom/lib/libmbedtls/mbedtls/library/bignum.c:2018
    4f56:	f859 200a 	ldr.w	r2, [r9, sl]
    4f5a:	609a      	str	r2, [r3, #8]
/home/aom1/Work/Linux/target/STM32MP1-DK2/bootloader/optee-os-custom/lib/libmbedtls/mbedtls/library/bignum.c:2020
    4f5c:	f8d8 3000 	ldr.w	r3, [r8]
    4f60:	3301      	adds	r3, #1
    4f62:	f8c8 3000 	str.w	r3, [r8]
/home/aom1/Work/Linux/target/STM32MP1-DK2/bootloader/optee-os-custom/lib/libmbedtls/mbedtls/library/bignum.c:2025
    4f66:	f10d 0844 	add.w	r8, sp, #68	; 0x44
/home/aom1/Work/Linux/target/STM32MP1-DK2/bootloader/optee-os-custom/lib/libmbedtls/mbedtls/library/bignum.c:2023
    4f6a:	9a10      	ldr	r2, [sp, #64]	; 0x40
/home/aom1/Work/Linux/target/STM32MP1-DK2/bootloader/optee-os-custom/lib/libmbedtls/mbedtls/library/bignum.c:2025
    4f6c:	2100      	movs	r1, #0
    4f6e:	4640      	mov	r0, r8
/home/aom1/Work/Linux/target/STM32MP1-DK2/bootloader/optee-os-custom/lib/libmbedtls/mbedtls/library/bignum.c:2023
    4f70:	5953      	ldr	r3, [r2, r5]
    4f72:	3b01      	subs	r3, #1
    4f74:	5153      	str	r3, [r2, r5]
/home/aom1/Work/Linux/target/STM32MP1-DK2/bootloader/optee-os-custom/lib/libmbedtls/mbedtls/library/bignum.c:2025
    4f76:	f7ff f99f 	bl	42b8 <mbedtls_mpi_lset>
    4f7a:	2800      	cmp	r0, #0
    4f7c:	d1aa      	bne.n	4ed4 <mbedtls_mpi_div_mpi+0x1f4>
/home/aom1/Work/Linux/target/STM32MP1-DK2/bootloader/optee-os-custom/lib/libmbedtls/mbedtls/library/bignum.c:2026 (discriminator 2)
    4f7e:	9b03      	ldr	r3, [sp, #12]
    4f80:	9a0d      	ldr	r2, [sp, #52]	; 0x34
    4f82:	2b00      	cmp	r3, #0
    4f84:	d057      	beq.n	5036 <mbedtls_mpi_div_mpi+0x356>
/home/aom1/Work/Linux/target/STM32MP1-DK2/bootloader/optee-os-custom/lib/libmbedtls/mbedtls/library/bignum.c:2026 (discriminator 1)
    4f86:	9b06      	ldr	r3, [sp, #24]
    4f88:	58d1      	ldr	r1, [r2, r3]
/home/aom1/Work/Linux/target/STM32MP1-DK2/bootloader/optee-os-custom/lib/libmbedtls/mbedtls/library/bignum.c:2026 (discriminator 4)
    4f8a:	9b13      	ldr	r3, [sp, #76]	; 0x4c
/home/aom1/Work/Linux/target/STM32MP1-DK2/bootloader/optee-os-custom/lib/libmbedtls/mbedtls/library/bignum.c:2028 (discriminator 4)
    4f8c:	4640      	mov	r0, r8
/home/aom1/Work/Linux/target/STM32MP1-DK2/bootloader/optee-os-custom/lib/libmbedtls/mbedtls/library/bignum.c:2026 (discriminator 4)
    4f8e:	6019      	str	r1, [r3, #0]
/home/aom1/Work/Linux/target/STM32MP1-DK2/bootloader/optee-os-custom/lib/libmbedtls/mbedtls/library/bignum.c:2027 (discriminator 4)
    4f90:	9905      	ldr	r1, [sp, #20]
    4f92:	5852      	ldr	r2, [r2, r1]
/home/aom1/Work/Linux/target/STM32MP1-DK2/bootloader/optee-os-custom/lib/libmbedtls/mbedtls/library/bignum.c:2028 (discriminator 4)
    4f94:	4641      	mov	r1, r8
/home/aom1/Work/Linux/target/STM32MP1-DK2/bootloader/optee-os-custom/lib/libmbedtls/mbedtls/library/bignum.c:2027 (discriminator 4)
    4f96:	605a      	str	r2, [r3, #4]
/home/aom1/Work/Linux/target/STM32MP1-DK2/bootloader/optee-os-custom/lib/libmbedtls/mbedtls/library/bignum.c:2028 (discriminator 4)
    4f98:	9b10      	ldr	r3, [sp, #64]	; 0x40
    4f9a:	595a      	ldr	r2, [r3, r5]
    4f9c:	f7ff fde4 	bl	4b68 <mbedtls_mpi_mul_int>
    4fa0:	2800      	cmp	r0, #0
    4fa2:	d197      	bne.n	4ed4 <mbedtls_mpi_div_mpi+0x1f4>
/home/aom1/Work/Linux/target/STM32MP1-DK2/bootloader/optee-os-custom/lib/libmbedtls/mbedtls/library/bignum.c:2030 (discriminator 2)
    4fa4:	9907      	ldr	r1, [sp, #28]
    4fa6:	4640      	mov	r0, r8
    4fa8:	f7ff fb81 	bl	46ae <mbedtls_mpi_cmp_mpi>
    4fac:	2800      	cmp	r0, #0
    4fae:	dcdc      	bgt.n	4f6a <mbedtls_mpi_div_mpi+0x28a>
/home/aom1/Work/Linux/target/STM32MP1-DK2/bootloader/optee-os-custom/lib/libmbedtls/mbedtls/library/bignum.c:2032
    4fb0:	9b10      	ldr	r3, [sp, #64]	; 0x40
    4fb2:	f10d 0a2c 	add.w	sl, sp, #44	; 0x2c
    4fb6:	4651      	mov	r1, sl
    4fb8:	4640      	mov	r0, r8
    4fba:	595a      	ldr	r2, [r3, r5]
    4fbc:	f7ff fdd4 	bl	4b68 <mbedtls_mpi_mul_int>
    4fc0:	2800      	cmp	r0, #0
    4fc2:	d187      	bne.n	4ed4 <mbedtls_mpi_div_mpi+0x1f4>
/home/aom1/Work/Linux/target/STM32MP1-DK2/bootloader/optee-os-custom/lib/libmbedtls/mbedtls/library/bignum.c:2033 (discriminator 2)
    4fc4:	ea4f 09c5 	mov.w	r9, r5, lsl #3
    4fc8:	4640      	mov	r0, r8
    4fca:	4649      	mov	r1, r9
    4fcc:	f7ff fab0 	bl	4530 <mbedtls_mpi_shift_l>
    4fd0:	2800      	cmp	r0, #0
    4fd2:	f47f af7f 	bne.w	4ed4 <mbedtls_mpi_div_mpi+0x1f4>
/home/aom1/Work/Linux/target/STM32MP1-DK2/bootloader/optee-os-custom/lib/libmbedtls/mbedtls/library/bignum.c:2034 (discriminator 2)
    4fd6:	f10d 0b20 	add.w	fp, sp, #32
    4fda:	4642      	mov	r2, r8
    4fdc:	4659      	mov	r1, fp
    4fde:	4658      	mov	r0, fp
    4fe0:	f7ff fcfc 	bl	49dc <mbedtls_mpi_sub_mpi>
    4fe4:	4601      	mov	r1, r0
    4fe6:	bb40      	cbnz	r0, 503a <mbedtls_mpi_div_mpi+0x35a>
/home/aom1/Work/Linux/target/STM32MP1-DK2/bootloader/optee-os-custom/lib/libmbedtls/mbedtls/library/bignum.c:2036 (discriminator 2)
    4fe8:	4658      	mov	r0, fp
    4fea:	f7ff fbf4 	bl	47d6 <mbedtls_mpi_cmp_int>
    4fee:	2800      	cmp	r0, #0
    4ff0:	da19      	bge.n	5026 <mbedtls_mpi_div_mpi+0x346>
/home/aom1/Work/Linux/target/STM32MP1-DK2/bootloader/optee-os-custom/lib/libmbedtls/mbedtls/library/bignum.c:2038
    4ff2:	4651      	mov	r1, sl
    4ff4:	4640      	mov	r0, r8
    4ff6:	f7ff f899 	bl	412c <mbedtls_mpi_copy>
    4ffa:	2800      	cmp	r0, #0
    4ffc:	f47f af6a 	bne.w	4ed4 <mbedtls_mpi_div_mpi+0x1f4>
/home/aom1/Work/Linux/target/STM32MP1-DK2/bootloader/optee-os-custom/lib/libmbedtls/mbedtls/library/bignum.c:2039 (discriminator 2)
    5000:	4649      	mov	r1, r9
    5002:	4640      	mov	r0, r8
    5004:	f7ff fa94 	bl	4530 <mbedtls_mpi_shift_l>
    5008:	2800      	cmp	r0, #0
    500a:	f47f af63 	bne.w	4ed4 <mbedtls_mpi_div_mpi+0x1f4>
/home/aom1/Work/Linux/target/STM32MP1-DK2/bootloader/optee-os-custom/lib/libmbedtls/mbedtls/library/bignum.c:2040 (discriminator 2)
    500e:	4642      	mov	r2, r8
    5010:	4659      	mov	r1, fp
    5012:	4658      	mov	r0, fp
    5014:	f7ff fcbe 	bl	4994 <mbedtls_mpi_add_mpi>
    5018:	2800      	cmp	r0, #0
    501a:	f47f af5b 	bne.w	4ed4 <mbedtls_mpi_div_mpi+0x1f4>
/home/aom1/Work/Linux/target/STM32MP1-DK2/bootloader/optee-os-custom/lib/libmbedtls/mbedtls/library/bignum.c:2041 (discriminator 2)
    501e:	9a10      	ldr	r2, [sp, #64]	; 0x40
    5020:	5953      	ldr	r3, [r2, r5]
    5022:	3b01      	subs	r3, #1
    5024:	5153      	str	r3, [r2, r5]
/home/aom1/Work/Linux/target/STM32MP1-DK2/bootloader/optee-os-custom/lib/libmbedtls/mbedtls/library/bignum.c:2006 (discriminator 2)
    5026:	9b00      	ldr	r3, [sp, #0]
    5028:	3d04      	subs	r5, #4
    502a:	3b01      	subs	r3, #1
    502c:	9300      	str	r3, [sp, #0]
    502e:	e723      	b.n	4e78 <mbedtls_mpi_div_mpi+0x198>
    5030:	f04f 33ff 	mov.w	r3, #4294967295	; 0xffffffff
    5034:	e780      	b.n	4f38 <mbedtls_mpi_div_mpi+0x258>
/home/aom1/Work/Linux/target/STM32MP1-DK2/bootloader/optee-os-custom/lib/libmbedtls/mbedtls/library/bignum.c:2026
    5036:	9903      	ldr	r1, [sp, #12]
    5038:	e7a7      	b.n	4f8a <mbedtls_mpi_div_mpi+0x2aa>
    503a:	460c      	mov	r4, r1
    503c:	e68e      	b.n	4d5c <mbedtls_mpi_div_mpi+0x7c>
/home/aom1/Work/Linux/target/STM32MP1-DK2/bootloader/optee-os-custom/lib/libmbedtls/mbedtls/library/bignum.c:1956
    503e:	f06f 040b 	mvn.w	r4, #11
    5042:	e680      	b.n	4d46 <mbedtls_mpi_div_mpi+0x66>

00005044 <mbedtls_mpi_div_int>:
mbedtls_mpi_div_int():
/home/aom1/Work/Linux/target/STM32MP1-DK2/bootloader/optee-os-custom/lib/libmbedtls/mbedtls/library/bignum.c:2076
    5044:	b51f      	push	{r0, r1, r2, r3, r4, lr}
/home/aom1/Work/Linux/target/STM32MP1-DK2/bootloader/optee-os-custom/lib/libmbedtls/mbedtls/library/bignum.c:2082
    5046:	2b00      	cmp	r3, #0
/home/aom1/Work/Linux/target/STM32MP1-DK2/bootloader/optee-os-custom/lib/libmbedtls/mbedtls/library/bignum.c:2081
    5048:	ea83 74e3 	eor.w	r4, r3, r3, asr #31
    504c:	eba4 74e3 	sub.w	r4, r4, r3, asr #31
/home/aom1/Work/Linux/target/STM32MP1-DK2/bootloader/optee-os-custom/lib/libmbedtls/mbedtls/library/bignum.c:2082
    5050:	bfb8      	it	lt
    5052:	f04f 33ff 	movlt.w	r3, #4294967295	; 0xffffffff
/home/aom1/Work/Linux/target/STM32MP1-DK2/bootloader/optee-os-custom/lib/libmbedtls/mbedtls/library/bignum.c:2081
    5056:	9400      	str	r4, [sp, #0]
/home/aom1/Work/Linux/target/STM32MP1-DK2/bootloader/optee-os-custom/lib/libmbedtls/mbedtls/library/bignum.c:2082
    5058:	bfa8      	it	ge
    505a:	2301      	movge	r3, #1
    505c:	f8ad 3004 	strh.w	r3, [sp, #4]
/home/aom1/Work/Linux/target/STM32MP1-DK2/bootloader/optee-os-custom/lib/libmbedtls/mbedtls/library/bignum.c:2083
    5060:	2301      	movs	r3, #1
    5062:	9302      	str	r3, [sp, #8]
/home/aom1/Work/Linux/target/STM32MP1-DK2/bootloader/optee-os-custom/lib/libmbedtls/mbedtls/library/bignum.c:2084
    5064:	466b      	mov	r3, sp
    5066:	9303      	str	r3, [sp, #12]
/home/aom1/Work/Linux/target/STM32MP1-DK2/bootloader/optee-os-custom/lib/libmbedtls/mbedtls/library/bignum.c:2086
    5068:	ab01      	add	r3, sp, #4
    506a:	f7ff fe39 	bl	4ce0 <mbedtls_mpi_div_mpi>
/home/aom1/Work/Linux/target/STM32MP1-DK2/bootloader/optee-os-custom/lib/libmbedtls/mbedtls/library/bignum.c:2087
    506e:	b004      	add	sp, #16
    5070:	bd10      	pop	{r4, pc}

00005072 <mbedtls_mpi_mod_mpi>:
mbedtls_mpi_mod_mpi():
/home/aom1/Work/Linux/target/STM32MP1-DK2/bootloader/optee-os-custom/lib/libmbedtls/mbedtls/library/bignum.c:2093
    5072:	b570      	push	{r4, r5, r6, lr}
    5074:	4604      	mov	r4, r0
    5076:	460d      	mov	r5, r1
/home/aom1/Work/Linux/target/STM32MP1-DK2/bootloader/optee-os-custom/lib/libmbedtls/mbedtls/library/bignum.c:2099
    5078:	4610      	mov	r0, r2
    507a:	2100      	movs	r1, #0
/home/aom1/Work/Linux/target/STM32MP1-DK2/bootloader/optee-os-custom/lib/libmbedtls/mbedtls/library/bignum.c:2093
    507c:	4616      	mov	r6, r2
/home/aom1/Work/Linux/target/STM32MP1-DK2/bootloader/optee-os-custom/lib/libmbedtls/mbedtls/library/bignum.c:2099
    507e:	f7ff fbaa 	bl	47d6 <mbedtls_mpi_cmp_int>
    5082:	2800      	cmp	r0, #0
    5084:	db24      	blt.n	50d0 <mbedtls_mpi_mod_mpi+0x5e>
/home/aom1/Work/Linux/target/STM32MP1-DK2/bootloader/optee-os-custom/lib/libmbedtls/mbedtls/library/bignum.c:2102
    5086:	462a      	mov	r2, r5
    5088:	4633      	mov	r3, r6
    508a:	4621      	mov	r1, r4
    508c:	2000      	movs	r0, #0
    508e:	f7ff fe27 	bl	4ce0 <mbedtls_mpi_div_mpi>
    5092:	4605      	mov	r5, r0
    5094:	b138      	cbz	r0, 50a6 <mbedtls_mpi_mod_mpi+0x34>
/home/aom1/Work/Linux/target/STM32MP1-DK2/bootloader/optee-os-custom/lib/libmbedtls/mbedtls/library/bignum.c:2113
    5096:	4628      	mov	r0, r5
    5098:	bd70      	pop	{r4, r5, r6, pc}
/home/aom1/Work/Linux/target/STM32MP1-DK2/bootloader/optee-os-custom/lib/libmbedtls/mbedtls/library/bignum.c:2105
    509a:	4632      	mov	r2, r6
    509c:	4621      	mov	r1, r4
    509e:	4620      	mov	r0, r4
    50a0:	f7ff fc78 	bl	4994 <mbedtls_mpi_add_mpi>
    50a4:	b990      	cbnz	r0, 50cc <mbedtls_mpi_mod_mpi+0x5a>
/home/aom1/Work/Linux/target/STM32MP1-DK2/bootloader/optee-os-custom/lib/libmbedtls/mbedtls/library/bignum.c:2104
    50a6:	2100      	movs	r1, #0
    50a8:	4620      	mov	r0, r4
    50aa:	f7ff fb94 	bl	47d6 <mbedtls_mpi_cmp_int>
    50ae:	2800      	cmp	r0, #0
    50b0:	dbf3      	blt.n	509a <mbedtls_mpi_mod_mpi+0x28>
/home/aom1/Work/Linux/target/STM32MP1-DK2/bootloader/optee-os-custom/lib/libmbedtls/mbedtls/library/bignum.c:2107
    50b2:	4631      	mov	r1, r6
    50b4:	4620      	mov	r0, r4
    50b6:	f7ff fafa 	bl	46ae <mbedtls_mpi_cmp_mpi>
    50ba:	2800      	cmp	r0, #0
    50bc:	dbeb      	blt.n	5096 <mbedtls_mpi_mod_mpi+0x24>
/home/aom1/Work/Linux/target/STM32MP1-DK2/bootloader/optee-os-custom/lib/libmbedtls/mbedtls/library/bignum.c:2108
    50be:	4632      	mov	r2, r6
    50c0:	4621      	mov	r1, r4
    50c2:	4620      	mov	r0, r4
    50c4:	f7ff fc8a 	bl	49dc <mbedtls_mpi_sub_mpi>
    50c8:	2800      	cmp	r0, #0
    50ca:	d0f2      	beq.n	50b2 <mbedtls_mpi_mod_mpi+0x40>
    50cc:	4605      	mov	r5, r0
    50ce:	e7e2      	b.n	5096 <mbedtls_mpi_mod_mpi+0x24>
/home/aom1/Work/Linux/target/STM32MP1-DK2/bootloader/optee-os-custom/lib/libmbedtls/mbedtls/library/bignum.c:2100
    50d0:	f06f 0509 	mvn.w	r5, #9
    50d4:	e7df      	b.n	5096 <mbedtls_mpi_mod_mpi+0x24>

000050d6 <mbedtls_mpi_mod_int>:
mbedtls_mpi_mod_int():
/home/aom1/Work/Linux/target/STM32MP1-DK2/bootloader/optee-os-custom/lib/libmbedtls/mbedtls/library/bignum.c:2125
    50d6:	2a00      	cmp	r2, #0
/home/aom1/Work/Linux/target/STM32MP1-DK2/bootloader/optee-os-custom/lib/libmbedtls/mbedtls/library/bignum.c:2119
    50d8:	b5f0      	push	{r4, r5, r6, r7, lr}
    50da:	4606      	mov	r6, r0
/home/aom1/Work/Linux/target/STM32MP1-DK2/bootloader/optee-os-custom/lib/libmbedtls/mbedtls/library/bignum.c:2125
    50dc:	d02c      	beq.n	5138 <mbedtls_mpi_mod_int+0x62>
/home/aom1/Work/Linux/target/STM32MP1-DK2/bootloader/optee-os-custom/lib/libmbedtls/mbedtls/library/bignum.c:2128
    50de:	db2e      	blt.n	513e <mbedtls_mpi_mod_int+0x68>
/home/aom1/Work/Linux/target/STM32MP1-DK2/bootloader/optee-os-custom/lib/libmbedtls/mbedtls/library/bignum.c:2134
    50e0:	2a01      	cmp	r2, #1
    50e2:	f04f 0000 	mov.w	r0, #0
    50e6:	d101      	bne.n	50ec <mbedtls_mpi_mod_int+0x16>
/home/aom1/Work/Linux/target/STM32MP1-DK2/bootloader/optee-os-custom/lib/libmbedtls/mbedtls/library/bignum.c:2136
    50e8:	6030      	str	r0, [r6, #0]
/home/aom1/Work/Linux/target/STM32MP1-DK2/bootloader/optee-os-custom/lib/libmbedtls/mbedtls/library/bignum.c:2172
    50ea:	bdf0      	pop	{r4, r5, r6, r7, pc}
/home/aom1/Work/Linux/target/STM32MP1-DK2/bootloader/optee-os-custom/lib/libmbedtls/mbedtls/library/bignum.c:2140
    50ec:	2a02      	cmp	r2, #2
    50ee:	d105      	bne.n	50fc <mbedtls_mpi_mod_int+0x26>
/home/aom1/Work/Linux/target/STM32MP1-DK2/bootloader/optee-os-custom/lib/libmbedtls/mbedtls/library/bignum.c:2142
    50f0:	688b      	ldr	r3, [r1, #8]
    50f2:	681b      	ldr	r3, [r3, #0]
    50f4:	f003 0301 	and.w	r3, r3, #1
    50f8:	6033      	str	r3, [r6, #0]
/home/aom1/Work/Linux/target/STM32MP1-DK2/bootloader/optee-os-custom/lib/libmbedtls/mbedtls/library/bignum.c:2143
    50fa:	e7f6      	b.n	50ea <mbedtls_mpi_mod_int+0x14>
/home/aom1/Work/Linux/target/STM32MP1-DK2/bootloader/optee-os-custom/lib/libmbedtls/mbedtls/library/bignum.c:2149
    50fc:	684f      	ldr	r7, [r1, #4]
    50fe:	3f01      	subs	r7, #1
    5100:	d208      	bcs.n	5114 <mbedtls_mpi_mod_int+0x3e>
/home/aom1/Work/Linux/target/STM32MP1-DK2/bootloader/optee-os-custom/lib/libmbedtls/mbedtls/library/bignum.c:2166
    5102:	f9b1 1000 	ldrsh.w	r1, [r1]
    5106:	2900      	cmp	r1, #0
    5108:	da01      	bge.n	510e <mbedtls_mpi_mod_int+0x38>
    510a:	b100      	cbz	r0, 510e <mbedtls_mpi_mod_int+0x38>
/home/aom1/Work/Linux/target/STM32MP1-DK2/bootloader/optee-os-custom/lib/libmbedtls/mbedtls/library/bignum.c:2167
    510c:	1a10      	subs	r0, r2, r0
/home/aom1/Work/Linux/target/STM32MP1-DK2/bootloader/optee-os-custom/lib/libmbedtls/mbedtls/library/bignum.c:2169
    510e:	6030      	str	r0, [r6, #0]
    5110:	2000      	movs	r0, #0
    5112:	e7ea      	b.n	50ea <mbedtls_mpi_mod_int+0x14>
/home/aom1/Work/Linux/target/STM32MP1-DK2/bootloader/optee-os-custom/lib/libmbedtls/mbedtls/library/bignum.c:2151
    5114:	688b      	ldr	r3, [r1, #8]
    5116:	f853 4027 	ldr.w	r4, [r3, r7, lsl #2]
/home/aom1/Work/Linux/target/STM32MP1-DK2/bootloader/optee-os-custom/lib/libmbedtls/mbedtls/library/bignum.c:2152
    511a:	0c25      	lsrs	r5, r4, #16
/home/aom1/Work/Linux/target/STM32MP1-DK2/bootloader/optee-os-custom/lib/libmbedtls/mbedtls/library/bignum.c:2157
    511c:	b2a4      	uxth	r4, r4
/home/aom1/Work/Linux/target/STM32MP1-DK2/bootloader/optee-os-custom/lib/libmbedtls/mbedtls/library/bignum.c:2152
    511e:	ea45 4300 	orr.w	r3, r5, r0, lsl #16
/home/aom1/Work/Linux/target/STM32MP1-DK2/bootloader/optee-os-custom/lib/libmbedtls/mbedtls/library/bignum.c:2157
    5122:	fbb3 f0f2 	udiv	r0, r3, r2
    5126:	fb02 3310 	mls	r3, r2, r0, r3
    512a:	ea44 4403 	orr.w	r4, r4, r3, lsl #16
    512e:	fbb4 f3f2 	udiv	r3, r4, r2
    5132:	fb02 4013 	mls	r0, r2, r3, r4
/home/aom1/Work/Linux/target/STM32MP1-DK2/bootloader/optee-os-custom/lib/libmbedtls/mbedtls/library/bignum.c:2149
    5136:	e7e2      	b.n	50fe <mbedtls_mpi_mod_int+0x28>
/home/aom1/Work/Linux/target/STM32MP1-DK2/bootloader/optee-os-custom/lib/libmbedtls/mbedtls/library/bignum.c:2126
    5138:	f06f 000b 	mvn.w	r0, #11
    513c:	e7d5      	b.n	50ea <mbedtls_mpi_mod_int+0x14>
/home/aom1/Work/Linux/target/STM32MP1-DK2/bootloader/optee-os-custom/lib/libmbedtls/mbedtls/library/bignum.c:2129
    513e:	f06f 0009 	mvn.w	r0, #9
    5142:	e7d2      	b.n	50ea <mbedtls_mpi_mod_int+0x14>

00005144 <mbedtls_mpi_write_string>:
mbedtls_mpi_write_string():
/home/aom1/Work/Linux/target/STM32MP1-DK2/bootloader/optee-os-custom/lib/libmbedtls/mbedtls/library/bignum.c:731
    5144:	e92d 4ff0 	stmdb	sp!, {r4, r5, r6, r7, r8, r9, sl, fp, lr}
    5148:	461f      	mov	r7, r3
/home/aom1/Work/Linux/target/STM32MP1-DK2/bootloader/optee-os-custom/lib/libmbedtls/mbedtls/library/bignum.c:740
    514a:	1e8b      	subs	r3, r1, #2
/home/aom1/Work/Linux/target/STM32MP1-DK2/bootloader/optee-os-custom/lib/libmbedtls/mbedtls/library/bignum.c:731
    514c:	b087      	sub	sp, #28
/home/aom1/Work/Linux/target/STM32MP1-DK2/bootloader/optee-os-custom/lib/libmbedtls/mbedtls/library/bignum.c:740
    514e:	2b0e      	cmp	r3, #14
/home/aom1/Work/Linux/target/STM32MP1-DK2/bootloader/optee-os-custom/lib/libmbedtls/mbedtls/library/bignum.c:731
    5150:	4680      	mov	r8, r0
    5152:	460d      	mov	r5, r1
    5154:	4691      	mov	r9, r2
/home/aom1/Work/Linux/target/STM32MP1-DK2/bootloader/optee-os-custom/lib/libmbedtls/mbedtls/library/bignum.c:740
    5156:	f200 809e 	bhi.w	5296 <mbedtls_mpi_write_string+0x152>
/home/aom1/Work/Linux/target/STM32MP1-DK2/bootloader/optee-os-custom/lib/libmbedtls/mbedtls/library/bignum.c:743
    515a:	f7ff f91b 	bl	4394 <mbedtls_mpi_bitlen>
/home/aom1/Work/Linux/target/STM32MP1-DK2/bootloader/optee-os-custom/lib/libmbedtls/mbedtls/library/bignum.c:744
    515e:	2d03      	cmp	r5, #3
    5160:	bfc8      	it	gt
    5162:	0840      	lsrgt	r0, r0, #1
/home/aom1/Work/Linux/target/STM32MP1-DK2/bootloader/optee-os-custom/lib/libmbedtls/mbedtls/library/bignum.c:748
    5164:	2d10      	cmp	r5, #16
    5166:	bf08      	it	eq
    5168:	0840      	lsreq	r0, r0, #1
/home/aom1/Work/Linux/target/STM32MP1-DK2/bootloader/optee-os-custom/lib/libmbedtls/mbedtls/library/bignum.c:755
    516a:	3004      	adds	r0, #4
    516c:	f020 0001 	bic.w	r0, r0, #1
/home/aom1/Work/Linux/target/STM32MP1-DK2/bootloader/optee-os-custom/lib/libmbedtls/mbedtls/library/bignum.c:758
    5170:	42b8      	cmp	r0, r7
    5172:	d907      	bls.n	5184 <mbedtls_mpi_write_string+0x40>
/home/aom1/Work/Linux/target/STM32MP1-DK2/bootloader/optee-os-custom/lib/libmbedtls/mbedtls/library/bignum.c:760
    5174:	9b10      	ldr	r3, [sp, #64]	; 0x40
/home/aom1/Work/Linux/target/STM32MP1-DK2/bootloader/optee-os-custom/lib/libmbedtls/mbedtls/library/bignum.c:761
    5176:	f06f 0107 	mvn.w	r1, #7
/home/aom1/Work/Linux/target/STM32MP1-DK2/bootloader/optee-os-custom/lib/libmbedtls/mbedtls/library/bignum.c:760
    517a:	6018      	str	r0, [r3, #0]
/home/aom1/Work/Linux/target/STM32MP1-DK2/bootloader/optee-os-custom/lib/libmbedtls/mbedtls/library/bignum.c:811
    517c:	4608      	mov	r0, r1
    517e:	b007      	add	sp, #28
    5180:	e8bd 8ff0 	ldmia.w	sp!, {r4, r5, r6, r7, r8, r9, sl, fp, pc}
/home/aom1/Work/Linux/target/STM32MP1-DK2/bootloader/optee-os-custom/lib/libmbedtls/mbedtls/library/bignum.c:765
    5184:	ae03      	add	r6, sp, #12
/home/aom1/Work/Linux/target/STM32MP1-DK2/bootloader/optee-os-custom/lib/libmbedtls/mbedtls/library/bignum.c:769
    5186:	464c      	mov	r4, r9
/home/aom1/Work/Linux/target/STM32MP1-DK2/bootloader/optee-os-custom/lib/libmbedtls/mbedtls/library/bignum.c:765
    5188:	4630      	mov	r0, r6
    518a:	f7fe fed7 	bl	3f3c <mbedtls_mpi_init_mempool>
/home/aom1/Work/Linux/target/STM32MP1-DK2/bootloader/optee-os-custom/lib/libmbedtls/mbedtls/library/bignum.c:767
    518e:	f9b8 3000 	ldrsh.w	r3, [r8]
    5192:	3301      	adds	r3, #1
/home/aom1/Work/Linux/target/STM32MP1-DK2/bootloader/optee-os-custom/lib/libmbedtls/mbedtls/library/bignum.c:769
    5194:	bf02      	ittt	eq
    5196:	232d      	moveq	r3, #45	; 0x2d
/home/aom1/Work/Linux/target/STM32MP1-DK2/bootloader/optee-os-custom/lib/libmbedtls/mbedtls/library/bignum.c:770
    5198:	f107 37ff 	addeq.w	r7, r7, #4294967295	; 0xffffffff
/home/aom1/Work/Linux/target/STM32MP1-DK2/bootloader/optee-os-custom/lib/libmbedtls/mbedtls/library/bignum.c:769
    519c:	f804 3b01 	strbeq.w	r3, [r4], #1
/home/aom1/Work/Linux/target/STM32MP1-DK2/bootloader/optee-os-custom/lib/libmbedtls/mbedtls/library/bignum.c:773
    51a0:	2d10      	cmp	r5, #16
    51a2:	d137      	bne.n	5214 <mbedtls_mpi_write_string+0xd0>
/home/aom1/Work/Linux/target/STM32MP1-DK2/bootloader/optee-os-custom/lib/libmbedtls/mbedtls/library/bignum.c:787
    51a4:	f8df e0fc 	ldr.w	lr, [pc, #252]	; 52a4 <mbedtls_mpi_write_string+0x160>
/home/aom1/Work/Linux/target/STM32MP1-DK2/bootloader/optee-os-custom/lib/libmbedtls/mbedtls/library/bignum.c:778
    51a8:	2300      	movs	r3, #0
    51aa:	f8d8 1004 	ldr.w	r1, [r8, #4]
/home/aom1/Work/Linux/target/STM32MP1-DK2/bootloader/optee-os-custom/lib/libmbedtls/mbedtls/library/bignum.c:787
    51ae:	44fe      	add	lr, pc
/home/aom1/Work/Linux/target/STM32MP1-DK2/bootloader/optee-os-custom/lib/libmbedtls/mbedtls/library/bignum.c:778 (discriminator 1)
    51b0:	b961      	cbnz	r1, 51cc <mbedtls_mpi_write_string+0x88>
/home/aom1/Work/Linux/target/STM32MP1-DK2/bootloader/optee-os-custom/lib/libmbedtls/mbedtls/library/bignum.c:804 (discriminator 2)
    51b2:	9b10      	ldr	r3, [sp, #64]	; 0x40
/home/aom1/Work/Linux/target/STM32MP1-DK2/bootloader/optee-os-custom/lib/libmbedtls/mbedtls/library/bignum.c:803 (discriminator 2)
    51b4:	2100      	movs	r1, #0
    51b6:	f804 1b01 	strb.w	r1, [r4], #1
/home/aom1/Work/Linux/target/STM32MP1-DK2/bootloader/optee-os-custom/lib/libmbedtls/mbedtls/library/bignum.c:804 (discriminator 2)
    51ba:	eba4 0409 	sub.w	r4, r4, r9
    51be:	601c      	str	r4, [r3, #0]
    51c0:	9101      	str	r1, [sp, #4]
/home/aom1/Work/Linux/target/STM32MP1-DK2/bootloader/optee-os-custom/lib/libmbedtls/mbedtls/library/bignum.c:808
    51c2:	4630      	mov	r0, r6
    51c4:	f7fe fece 	bl	3f64 <mbedtls_mpi_free>
/home/aom1/Work/Linux/target/STM32MP1-DK2/bootloader/optee-os-custom/lib/libmbedtls/mbedtls/library/bignum.c:810
    51c8:	9901      	ldr	r1, [sp, #4]
    51ca:	e7d7      	b.n	517c <mbedtls_mpi_write_string+0x38>
/home/aom1/Work/Linux/target/STM32MP1-DK2/bootloader/optee-os-custom/lib/libmbedtls/mbedtls/library/bignum.c:782
    51cc:	ea4f 0c81 	mov.w	ip, r1, lsl #2
    51d0:	1d0f      	adds	r7, r1, #4
    51d2:	f1ac 0c04 	sub.w	ip, ip, #4
    51d6:	2518      	movs	r5, #24
    51d8:	f8d8 2008 	ldr.w	r2, [r8, #8]
    51dc:	f852 200c 	ldr.w	r2, [r2, ip]
    51e0:	40ea      	lsrs	r2, r5
    51e2:	b2d0      	uxtb	r0, r2
/home/aom1/Work/Linux/target/STM32MP1-DK2/bootloader/optee-os-custom/lib/libmbedtls/mbedtls/library/bignum.c:784
    51e4:	4303      	orrs	r3, r0
    51e6:	d101      	bne.n	51ec <mbedtls_mpi_write_string+0xa8>
/home/aom1/Work/Linux/target/STM32MP1-DK2/bootloader/optee-os-custom/lib/libmbedtls/mbedtls/library/bignum.c:784 (discriminator 2)
    51e8:	2f02      	cmp	r7, #2
    51ea:	d10c      	bne.n	5206 <mbedtls_mpi_write_string+0xc2>
/home/aom1/Work/Linux/target/STM32MP1-DK2/bootloader/optee-os-custom/lib/libmbedtls/mbedtls/library/bignum.c:787
    51ec:	1100      	asrs	r0, r0, #4
/home/aom1/Work/Linux/target/STM32MP1-DK2/bootloader/optee-os-custom/lib/libmbedtls/mbedtls/library/bignum.c:788
    51ee:	f002 020f 	and.w	r2, r2, #15
/home/aom1/Work/Linux/target/STM32MP1-DK2/bootloader/optee-os-custom/lib/libmbedtls/mbedtls/library/bignum.c:787
    51f2:	4623      	mov	r3, r4
    51f4:	f81e 0000 	ldrb.w	r0, [lr, r0]
/home/aom1/Work/Linux/target/STM32MP1-DK2/bootloader/optee-os-custom/lib/libmbedtls/mbedtls/library/bignum.c:788
    51f8:	f81e 2002 	ldrb.w	r2, [lr, r2]
/home/aom1/Work/Linux/target/STM32MP1-DK2/bootloader/optee-os-custom/lib/libmbedtls/mbedtls/library/bignum.c:787
    51fc:	f803 0b02 	strb.w	r0, [r3], #2
/home/aom1/Work/Linux/target/STM32MP1-DK2/bootloader/optee-os-custom/lib/libmbedtls/mbedtls/library/bignum.c:788
    5200:	7062      	strb	r2, [r4, #1]
    5202:	461c      	mov	r4, r3
/home/aom1/Work/Linux/target/STM32MP1-DK2/bootloader/optee-os-custom/lib/libmbedtls/mbedtls/library/bignum.c:789
    5204:	2301      	movs	r3, #1
/home/aom1/Work/Linux/target/STM32MP1-DK2/bootloader/optee-os-custom/lib/libmbedtls/mbedtls/library/bignum.c:780 (discriminator 1)
    5206:	3d08      	subs	r5, #8
    5208:	3f01      	subs	r7, #1
    520a:	f115 0f08 	cmn.w	r5, #8
    520e:	d1e3      	bne.n	51d8 <mbedtls_mpi_write_string+0x94>
/home/aom1/Work/Linux/target/STM32MP1-DK2/bootloader/optee-os-custom/lib/libmbedtls/mbedtls/library/bignum.c:778 (discriminator 2)
    5210:	3901      	subs	r1, #1
    5212:	e7cd      	b.n	51b0 <mbedtls_mpi_write_string+0x6c>
/home/aom1/Work/Linux/target/STM32MP1-DK2/bootloader/optee-os-custom/lib/libmbedtls/mbedtls/library/bignum.c:795
    5214:	4641      	mov	r1, r8
    5216:	4630      	mov	r0, r6
    5218:	f7fe ff88 	bl	412c <mbedtls_mpi_copy>
    521c:	4601      	mov	r1, r0
    521e:	2800      	cmp	r0, #0
    5220:	d1ce      	bne.n	51c0 <mbedtls_mpi_write_string+0x7c>
/home/aom1/Work/Linux/target/STM32MP1-DK2/bootloader/optee-os-custom/lib/libmbedtls/mbedtls/library/bignum.c:797 (discriminator 2)
    5222:	f9bd 300c 	ldrsh.w	r3, [sp, #12]
mpi_write_hlp():
/home/aom1/Work/Linux/target/STM32MP1-DK2/bootloader/optee-os-custom/lib/libmbedtls/mbedtls/library/bignum.c:696 (discriminator 2)
    5226:	eb04 0a07 	add.w	sl, r4, r7
mbedtls_mpi_write_string():
/home/aom1/Work/Linux/target/STM32MP1-DK2/bootloader/optee-os-custom/lib/libmbedtls/mbedtls/library/bignum.c:797 (discriminator 2)
    522a:	3301      	adds	r3, #1
mpi_write_hlp():
/home/aom1/Work/Linux/target/STM32MP1-DK2/bootloader/optee-os-custom/lib/libmbedtls/mbedtls/library/bignum.c:696 (discriminator 2)
    522c:	46d0      	mov	r8, sl
mbedtls_mpi_write_string():
/home/aom1/Work/Linux/target/STM32MP1-DK2/bootloader/optee-os-custom/lib/libmbedtls/mbedtls/library/bignum.c:798 (discriminator 2)
    522e:	bf04      	itt	eq
    5230:	2301      	moveq	r3, #1
    5232:	f8ad 300c 	strheq.w	r3, [sp, #12]
mpi_write_hlp():
/home/aom1/Work/Linux/target/STM32MP1-DK2/bootloader/optee-os-custom/lib/libmbedtls/mbedtls/library/bignum.c:705 (discriminator 2)
    5236:	ab02      	add	r3, sp, #8
    5238:	9301      	str	r3, [sp, #4]
/home/aom1/Work/Linux/target/STM32MP1-DK2/bootloader/optee-os-custom/lib/libmbedtls/mbedtls/library/bignum.c:700
    523a:	ebaa 0308 	sub.w	r3, sl, r8
    523e:	429f      	cmp	r7, r3
    5240:	d92c      	bls.n	529c <mbedtls_mpi_write_string+0x158>
/home/aom1/Work/Linux/target/STM32MP1-DK2/bootloader/optee-os-custom/lib/libmbedtls/mbedtls/library/bignum.c:705
    5242:	9801      	ldr	r0, [sp, #4]
    5244:	4631      	mov	r1, r6
    5246:	462a      	mov	r2, r5
    5248:	f7ff ff45 	bl	50d6 <mbedtls_mpi_mod_int>
    524c:	4601      	mov	r1, r0
    524e:	2800      	cmp	r0, #0
    5250:	d1b6      	bne.n	51c0 <mbedtls_mpi_write_string+0x7c>
/home/aom1/Work/Linux/target/STM32MP1-DK2/bootloader/optee-os-custom/lib/libmbedtls/mbedtls/library/bignum.c:706
    5252:	462b      	mov	r3, r5
    5254:	4632      	mov	r2, r6
    5256:	4630      	mov	r0, r6
    5258:	f7ff fef4 	bl	5044 <mbedtls_mpi_div_int>
    525c:	4601      	mov	r1, r0
    525e:	2800      	cmp	r0, #0
    5260:	d1ae      	bne.n	51c0 <mbedtls_mpi_write_string+0x7c>
/home/aom1/Work/Linux/target/STM32MP1-DK2/bootloader/optee-os-custom/lib/libmbedtls/mbedtls/library/bignum.c:710
    5262:	9a02      	ldr	r2, [sp, #8]
/home/aom1/Work/Linux/target/STM32MP1-DK2/bootloader/optee-os-custom/lib/libmbedtls/mbedtls/library/bignum.c:711
    5264:	f108 38ff 	add.w	r8, r8, #4294967295	; 0xffffffff
    5268:	ebaa 0b08 	sub.w	fp, sl, r8
/home/aom1/Work/Linux/target/STM32MP1-DK2/bootloader/optee-os-custom/lib/libmbedtls/mbedtls/library/bignum.c:716
    526c:	2100      	movs	r1, #0
/home/aom1/Work/Linux/target/STM32MP1-DK2/bootloader/optee-os-custom/lib/libmbedtls/mbedtls/library/bignum.c:711
    526e:	b2d3      	uxtb	r3, r2
/home/aom1/Work/Linux/target/STM32MP1-DK2/bootloader/optee-os-custom/lib/libmbedtls/mbedtls/library/bignum.c:710
    5270:	2a09      	cmp	r2, #9
/home/aom1/Work/Linux/target/STM32MP1-DK2/bootloader/optee-os-custom/lib/libmbedtls/mbedtls/library/bignum.c:711
    5272:	bf94      	ite	ls
    5274:	3330      	addls	r3, #48	; 0x30
/home/aom1/Work/Linux/target/STM32MP1-DK2/bootloader/optee-os-custom/lib/libmbedtls/mbedtls/library/bignum.c:713
    5276:	3337      	addhi	r3, #55	; 0x37
    5278:	b2db      	uxtb	r3, r3
/home/aom1/Work/Linux/target/STM32MP1-DK2/bootloader/optee-os-custom/lib/libmbedtls/mbedtls/library/bignum.c:716
    527a:	4630      	mov	r0, r6
    527c:	f888 3000 	strb.w	r3, [r8]
    5280:	f7ff faa9 	bl	47d6 <mbedtls_mpi_cmp_int>
    5284:	2800      	cmp	r0, #0
    5286:	d1d8      	bne.n	523a <mbedtls_mpi_write_string+0xf6>
/home/aom1/Work/Linux/target/STM32MP1-DK2/bootloader/optee-os-custom/lib/libmbedtls/mbedtls/library/bignum.c:718
    5288:	4620      	mov	r0, r4
    528a:	465a      	mov	r2, fp
/home/aom1/Work/Linux/target/STM32MP1-DK2/bootloader/optee-os-custom/lib/libmbedtls/mbedtls/library/bignum.c:719
    528c:	445c      	add	r4, fp
/home/aom1/Work/Linux/target/STM32MP1-DK2/bootloader/optee-os-custom/lib/libmbedtls/mbedtls/library/bignum.c:718
    528e:	4641      	mov	r1, r8
    5290:	f001 ff0e 	bl	70b0 <memmove>
/home/aom1/Work/Linux/target/STM32MP1-DK2/bootloader/optee-os-custom/lib/libmbedtls/mbedtls/library/bignum.c:719
    5294:	e78d      	b.n	51b2 <mbedtls_mpi_write_string+0x6e>
mbedtls_mpi_write_string():
/home/aom1/Work/Linux/target/STM32MP1-DK2/bootloader/optee-os-custom/lib/libmbedtls/mbedtls/library/bignum.c:741
    5296:	f06f 0103 	mvn.w	r1, #3
    529a:	e76f      	b.n	517c <mbedtls_mpi_write_string+0x38>
mpi_write_hlp():
/home/aom1/Work/Linux/target/STM32MP1-DK2/bootloader/optee-os-custom/lib/libmbedtls/mbedtls/library/bignum.c:702
    529c:	f06f 0107 	mvn.w	r1, #7
    52a0:	e78e      	b.n	51c0 <mbedtls_mpi_write_string+0x7c>
    52a2:	bf00      	nop
    52a4:	00002866 	.word	0x00002866

000052a8 <mpi_check_small_factors>:
mpi_check_small_factors():
/home/aom1/Work/Linux/target/STM32MP1-DK2/bootloader/optee-os-custom/lib/libmbedtls/mbedtls/library/bignum.c:2995
    52a8:	6883      	ldr	r3, [r0, #8]
/home/aom1/Work/Linux/target/STM32MP1-DK2/bootloader/optee-os-custom/lib/libmbedtls/mbedtls/library/bignum.c:2990
    52aa:	b5f7      	push	{r0, r1, r2, r4, r5, r6, r7, lr}
    52ac:	4604      	mov	r4, r0
/home/aom1/Work/Linux/target/STM32MP1-DK2/bootloader/optee-os-custom/lib/libmbedtls/mbedtls/library/bignum.c:2995
    52ae:	681b      	ldr	r3, [r3, #0]
    52b0:	07db      	lsls	r3, r3, #31
    52b2:	d519      	bpl.n	52e8 <mpi_check_small_factors+0x40>
    52b4:	4e0f      	ldr	r6, [pc, #60]	; (52f4 <mpi_check_small_factors+0x4c>)
/home/aom1/Work/Linux/target/STM32MP1-DK2/bootloader/optee-os-custom/lib/libmbedtls/mbedtls/library/bignum.c:3003
    52b6:	af01      	add	r7, sp, #4
    52b8:	447e      	add	r6, pc
/home/aom1/Work/Linux/target/STM32MP1-DK2/bootloader/optee-os-custom/lib/libmbedtls/mbedtls/library/bignum.c:2998
    52ba:	f856 5b04 	ldr.w	r5, [r6], #4
    52be:	2d00      	cmp	r5, #0
    52c0:	dc02      	bgt.n	52c8 <mpi_check_small_factors+0x20>
/home/aom1/Work/Linux/target/STM32MP1-DK2/bootloader/optee-os-custom/lib/libmbedtls/mbedtls/library/bignum.c:3009
    52c2:	2000      	movs	r0, #0
/home/aom1/Work/Linux/target/STM32MP1-DK2/bootloader/optee-os-custom/lib/libmbedtls/mbedtls/library/bignum.c:3011
    52c4:	b003      	add	sp, #12
    52c6:	bdf0      	pop	{r4, r5, r6, r7, pc}
/home/aom1/Work/Linux/target/STM32MP1-DK2/bootloader/optee-os-custom/lib/libmbedtls/mbedtls/library/bignum.c:3000
    52c8:	4629      	mov	r1, r5
    52ca:	4620      	mov	r0, r4
    52cc:	f7ff fa83 	bl	47d6 <mbedtls_mpi_cmp_int>
    52d0:	2800      	cmp	r0, #0
    52d2:	dd0c      	ble.n	52ee <mpi_check_small_factors+0x46>
/home/aom1/Work/Linux/target/STM32MP1-DK2/bootloader/optee-os-custom/lib/libmbedtls/mbedtls/library/bignum.c:3003
    52d4:	462a      	mov	r2, r5
    52d6:	4621      	mov	r1, r4
    52d8:	4638      	mov	r0, r7
    52da:	f7ff fefc 	bl	50d6 <mbedtls_mpi_mod_int>
    52de:	2800      	cmp	r0, #0
    52e0:	d1f0      	bne.n	52c4 <mpi_check_small_factors+0x1c>
/home/aom1/Work/Linux/target/STM32MP1-DK2/bootloader/optee-os-custom/lib/libmbedtls/mbedtls/library/bignum.c:3005
    52e2:	9b01      	ldr	r3, [sp, #4]
    52e4:	2b00      	cmp	r3, #0
    52e6:	d1e8      	bne.n	52ba <mpi_check_small_factors+0x12>
/home/aom1/Work/Linux/target/STM32MP1-DK2/bootloader/optee-os-custom/lib/libmbedtls/mbedtls/library/bignum.c:2996
    52e8:	f06f 000d 	mvn.w	r0, #13
    52ec:	e7ea      	b.n	52c4 <mpi_check_small_factors+0x1c>
/home/aom1/Work/Linux/target/STM32MP1-DK2/bootloader/optee-os-custom/lib/libmbedtls/mbedtls/library/bignum.c:3001
    52ee:	2001      	movs	r0, #1
    52f0:	e7e8      	b.n	52c4 <mpi_check_small_factors+0x1c>
    52f2:	bf00      	nop
    52f4:	00001f00 	.word	0x00001f00

000052f8 <mbedtls_mpi_montg_init>:
mbedtls_mpi_montg_init():
/home/aom1/Work/Linux/target/STM32MP1-DK2/bootloader/optee-os-custom/lib/libmbedtls/mbedtls/library/bignum.c:2193
    52f8:	6889      	ldr	r1, [r1, #8]
    52fa:	f7fe bdab 	b.w	3e54 <mpi_montg_init.isra.0>

000052fe <mbedtls_mpi_montmul>:
mbedtls_mpi_montmul():
/home/aom1/Work/Linux/target/STM32MP1-DK2/bootloader/optee-os-custom/lib/libmbedtls/mbedtls/library/bignum.c:2268
    52fe:	f7fe bd26 	b.w	3d4e <mpi_montmul>

00005302 <mbedtls_mpi_montred>:
mbedtls_mpi_montred():
/home/aom1/Work/Linux/target/STM32MP1-DK2/bootloader/optee-os-custom/lib/libmbedtls/mbedtls/library/bignum.c:2291
    5302:	f7fe bd96 	b.w	3e32 <mpi_montred>

00005306 <mbedtls_mpi_exp_mod>:
mbedtls_mpi_exp_mod():
/home/aom1/Work/Linux/target/STM32MP1-DK2/bootloader/optee-os-custom/lib/libmbedtls/mbedtls/library/bignum.c:2365
    5306:	e92d 4ff0 	stmdb	sp!, {r4, r5, r6, r7, r8, r9, sl, fp, lr}
    530a:	461d      	mov	r5, r3
    530c:	f8df 3454 	ldr.w	r3, [pc, #1108]	; 5764 <mbedtls_mpi_exp_mod+0x45e>
    5310:	b09f      	sub	sp, #124	; 0x7c
    5312:	4606      	mov	r6, r0
    5314:	460f      	mov	r7, r1
    5316:	447b      	add	r3, pc
/home/aom1/Work/Linux/target/STM32MP1-DK2/bootloader/optee-os-custom/lib/libmbedtls/mbedtls/library/bignum.c:2381
    5318:	2100      	movs	r1, #0
/home/aom1/Work/Linux/target/STM32MP1-DK2/bootloader/optee-os-custom/lib/libmbedtls/mbedtls/library/bignum.c:2365
    531a:	9206      	str	r2, [sp, #24]
/home/aom1/Work/Linux/target/STM32MP1-DK2/bootloader/optee-os-custom/lib/libmbedtls/mbedtls/library/bignum.c:2381
    531c:	4628      	mov	r0, r5
/home/aom1/Work/Linux/target/STM32MP1-DK2/bootloader/optee-os-custom/lib/libmbedtls/mbedtls/library/bignum.c:2365
    531e:	9304      	str	r3, [sp, #16]
/home/aom1/Work/Linux/target/STM32MP1-DK2/bootloader/optee-os-custom/lib/libmbedtls/mbedtls/library/bignum.c:2381
    5320:	f7ff fa59 	bl	47d6 <mbedtls_mpi_cmp_int>
    5324:	2800      	cmp	r0, #0
    5326:	dc05      	bgt.n	5334 <mbedtls_mpi_exp_mod+0x2e>
/home/aom1/Work/Linux/target/STM32MP1-DK2/bootloader/optee-os-custom/lib/libmbedtls/mbedtls/library/bignum.c:2382
    5328:	f06f 0403 	mvn.w	r4, #3
/home/aom1/Work/Linux/target/STM32MP1-DK2/bootloader/optee-os-custom/lib/libmbedtls/mbedtls/library/bignum.c:2607
    532c:	4620      	mov	r0, r4
    532e:	b01f      	add	sp, #124	; 0x7c
    5330:	e8bd 8ff0 	ldmia.w	sp!, {r4, r5, r6, r7, r8, r9, sl, fp, pc}
/home/aom1/Work/Linux/target/STM32MP1-DK2/bootloader/optee-os-custom/lib/libmbedtls/mbedtls/library/bignum.c:2381 (discriminator 1)
    5334:	68ab      	ldr	r3, [r5, #8]
    5336:	681b      	ldr	r3, [r3, #0]
    5338:	f013 0301 	ands.w	r3, r3, #1
    533c:	930b      	str	r3, [sp, #44]	; 0x2c
    533e:	d0f3      	beq.n	5328 <mbedtls_mpi_exp_mod+0x22>
/home/aom1/Work/Linux/target/STM32MP1-DK2/bootloader/optee-os-custom/lib/libmbedtls/mbedtls/library/bignum.c:2384
    5340:	9806      	ldr	r0, [sp, #24]
    5342:	2100      	movs	r1, #0
    5344:	f7ff fa47 	bl	47d6 <mbedtls_mpi_cmp_int>
    5348:	2800      	cmp	r0, #0
    534a:	dbed      	blt.n	5328 <mbedtls_mpi_exp_mod+0x22>
/home/aom1/Work/Linux/target/STM32MP1-DK2/bootloader/optee-os-custom/lib/libmbedtls/mbedtls/library/bignum.c:2387
    534c:	9806      	ldr	r0, [sp, #24]
    534e:	f7ff f821 	bl	4394 <mbedtls_mpi_bitlen>
    5352:	f5b0 5f00 	cmp.w	r0, #8192	; 0x2000
    5356:	d8e7      	bhi.n	5328 <mbedtls_mpi_exp_mod+0x22>
/home/aom1/Work/Linux/target/STM32MP1-DK2/bootloader/optee-os-custom/lib/libmbedtls/mbedtls/library/bignum.c:2388 (discriminator 1)
    5358:	4628      	mov	r0, r5
    535a:	f7ff f81b 	bl	4394 <mbedtls_mpi_bitlen>
/home/aom1/Work/Linux/target/STM32MP1-DK2/bootloader/optee-os-custom/lib/libmbedtls/mbedtls/library/bignum.c:2387 (discriminator 1)
    535e:	f5b0 5f00 	cmp.w	r0, #8192	; 0x2000
    5362:	d8e1      	bhi.n	5328 <mbedtls_mpi_exp_mod+0x22>
/home/aom1/Work/Linux/target/STM32MP1-DK2/bootloader/optee-os-custom/lib/libmbedtls/mbedtls/library/bignum.c:2394
    5364:	68a9      	ldr	r1, [r5, #8]
    5366:	a811      	add	r0, sp, #68	; 0x44
/home/aom1/Work/Linux/target/STM32MP1-DK2/bootloader/optee-os-custom/lib/libmbedtls/mbedtls/library/bignum.c:2395
    5368:	f10d 0848 	add.w	r8, sp, #72	; 0x48
/home/aom1/Work/Linux/target/STM32MP1-DK2/bootloader/optee-os-custom/lib/libmbedtls/mbedtls/library/bignum.c:2394
    536c:	f7fe fd72 	bl	3e54 <mpi_montg_init.isra.0>
/home/aom1/Work/Linux/target/STM32MP1-DK2/bootloader/optee-os-custom/lib/libmbedtls/mbedtls/library/bignum.c:2395
    5370:	f10d 0b54 	add.w	fp, sp, #84	; 0x54
    5374:	4640      	mov	r0, r8
/home/aom1/Work/Linux/target/STM32MP1-DK2/bootloader/optee-os-custom/lib/libmbedtls/mbedtls/library/bignum.c:2396
    5376:	f10d 0a6c 	add.w	sl, sp, #108	; 0x6c
/home/aom1/Work/Linux/target/STM32MP1-DK2/bootloader/optee-os-custom/lib/libmbedtls/mbedtls/library/bignum.c:2395
    537a:	f7fe fddf 	bl	3f3c <mbedtls_mpi_init_mempool>
    537e:	4658      	mov	r0, fp
    5380:	f7fe fdd6 	bl	3f30 <mbedtls_mpi_init>
/home/aom1/Work/Linux/target/STM32MP1-DK2/bootloader/optee-os-custom/lib/libmbedtls/mbedtls/library/bignum.c:2396
    5384:	4650      	mov	r0, sl
    5386:	f7fe fdd9 	bl	3f3c <mbedtls_mpi_init_mempool>
/home/aom1/Work/Linux/target/STM32MP1-DK2/bootloader/optee-os-custom/lib/libmbedtls/mbedtls/library/bignum.c:2397
    538a:	a818      	add	r0, sp, #96	; 0x60
    538c:	f7fe fdd6 	bl	3f3c <mbedtls_mpi_init_mempool>
/home/aom1/Work/Linux/target/STM32MP1-DK2/bootloader/optee-os-custom/lib/libmbedtls/mbedtls/library/bignum.c:2399
    5390:	9806      	ldr	r0, [sp, #24]
    5392:	f7fe ffff 	bl	4394 <mbedtls_mpi_bitlen>
/home/aom1/Work/Linux/target/STM32MP1-DK2/bootloader/optee-os-custom/lib/libmbedtls/mbedtls/library/bignum.c:2401
    5396:	f5b0 7f28 	cmp.w	r0, #672	; 0x2a0
    539a:	f080 8107 	bcs.w	55ac <mbedtls_mpi_exp_mod+0x2a6>
/home/aom1/Work/Linux/target/STM32MP1-DK2/bootloader/optee-os-custom/lib/libmbedtls/mbedtls/library/bignum.c:2401 (discriminator 1)
    539e:	28ef      	cmp	r0, #239	; 0xef
    53a0:	f200 8106 	bhi.w	55b0 <mbedtls_mpi_exp_mod+0x2aa>
/home/aom1/Work/Linux/target/STM32MP1-DK2/bootloader/optee-os-custom/lib/libmbedtls/mbedtls/library/bignum.c:2401 (discriminator 3)
    53a4:	284f      	cmp	r0, #79	; 0x4f
    53a6:	f200 8105 	bhi.w	55b4 <mbedtls_mpi_exp_mod+0x2ae>
/home/aom1/Work/Linux/target/STM32MP1-DK2/bootloader/optee-os-custom/lib/libmbedtls/mbedtls/library/bignum.c:2401 (discriminator 5)
    53aa:	9b0b      	ldr	r3, [sp, #44]	; 0x2c
    53ac:	2817      	cmp	r0, #23
    53ae:	bf88      	it	hi
    53b0:	2303      	movhi	r3, #3
/home/aom1/Work/Linux/target/STM32MP1-DK2/bootloader/optee-os-custom/lib/libmbedtls/mbedtls/library/bignum.c:2409
    53b2:	686a      	ldr	r2, [r5, #4]
/home/aom1/Work/Linux/target/STM32MP1-DK2/bootloader/optee-os-custom/lib/libmbedtls/mbedtls/library/bignum.c:2415
    53b4:	4630      	mov	r0, r6
/home/aom1/Work/Linux/target/STM32MP1-DK2/bootloader/optee-os-custom/lib/libmbedtls/mbedtls/library/bignum.c:2401
    53b6:	9303      	str	r3, [sp, #12]
/home/aom1/Work/Linux/target/STM32MP1-DK2/bootloader/optee-os-custom/lib/libmbedtls/mbedtls/library/bignum.c:2409
    53b8:	f102 0901 	add.w	r9, r2, #1
/home/aom1/Work/Linux/target/STM32MP1-DK2/bootloader/optee-os-custom/lib/libmbedtls/mbedtls/library/bignum.c:2415
    53bc:	4649      	mov	r1, r9
    53be:	f7fe fdf3 	bl	3fa8 <mbedtls_mpi_grow>
    53c2:	4ae9      	ldr	r2, [pc, #932]	; (5768 <mbedtls_mpi_exp_mod+0x462>)
    53c4:	4604      	mov	r4, r0
    53c6:	9b04      	ldr	r3, [sp, #16]
    53c8:	589b      	ldr	r3, [r3, r2]
    53ca:	930d      	str	r3, [sp, #52]	; 0x34
    53cc:	2800      	cmp	r0, #0
    53ce:	f040 81c1 	bne.w	5754 <mbedtls_mpi_exp_mod+0x44e>
/home/aom1/Work/Linux/target/STM32MP1-DK2/bootloader/optee-os-custom/lib/libmbedtls/mbedtls/library/bignum.c:2417 (discriminator 2)
    53d2:	ea4f 0149 	mov.w	r1, r9, lsl #1
    53d6:	4658      	mov	r0, fp
    53d8:	f7fe fde6 	bl	3fa8 <mbedtls_mpi_grow>
    53dc:	4604      	mov	r4, r0
    53de:	2800      	cmp	r0, #0
    53e0:	f040 81b8 	bne.w	5754 <mbedtls_mpi_exp_mod+0x44e>
/home/aom1/Work/Linux/target/STM32MP1-DK2/bootloader/optee-os-custom/lib/libmbedtls/mbedtls/library/bignum.c:2422 (discriminator 2)
    53e4:	f9b7 3000 	ldrsh.w	r3, [r7]
    53e8:	9309      	str	r3, [sp, #36]	; 0x24
/home/aom1/Work/Linux/target/STM32MP1-DK2/bootloader/optee-os-custom/lib/libmbedtls/mbedtls/library/bignum.c:2423 (discriminator 2)
    53ea:	3301      	adds	r3, #1
    53ec:	d10b      	bne.n	5406 <mbedtls_mpi_exp_mod+0x100>
/home/aom1/Work/Linux/target/STM32MP1-DK2/bootloader/optee-os-custom/lib/libmbedtls/mbedtls/library/bignum.c:2425
    53ee:	4639      	mov	r1, r7
    53f0:	4650      	mov	r0, sl
    53f2:	f7fe fe9b 	bl	412c <mbedtls_mpi_copy>
    53f6:	4604      	mov	r4, r0
    53f8:	2800      	cmp	r0, #0
    53fa:	f040 81ab 	bne.w	5754 <mbedtls_mpi_exp_mod+0x44e>
/home/aom1/Work/Linux/target/STM32MP1-DK2/bootloader/optee-os-custom/lib/libmbedtls/mbedtls/library/bignum.c:2427 (discriminator 2)
    53fe:	4657      	mov	r7, sl
/home/aom1/Work/Linux/target/STM32MP1-DK2/bootloader/optee-os-custom/lib/libmbedtls/mbedtls/library/bignum.c:2426 (discriminator 2)
    5400:	2301      	movs	r3, #1
    5402:	f8ad 306c 	strh.w	r3, [sp, #108]	; 0x6c
/home/aom1/Work/Linux/target/STM32MP1-DK2/bootloader/optee-os-custom/lib/libmbedtls/mbedtls/library/bignum.c:2433
    5406:	9b28      	ldr	r3, [sp, #160]	; 0xa0
    5408:	b11b      	cbz	r3, 5412 <mbedtls_mpi_exp_mod+0x10c>
/home/aom1/Work/Linux/target/STM32MP1-DK2/bootloader/optee-os-custom/lib/libmbedtls/mbedtls/library/bignum.c:2433 (discriminator 1)
    540a:	689b      	ldr	r3, [r3, #8]
    540c:	2b00      	cmp	r3, #0
    540e:	f040 80d3 	bne.w	55b8 <mbedtls_mpi_exp_mod+0x2b2>
/home/aom1/Work/Linux/target/STM32MP1-DK2/bootloader/optee-os-custom/lib/libmbedtls/mbedtls/library/bignum.c:2435
    5412:	2101      	movs	r1, #1
    5414:	4640      	mov	r0, r8
    5416:	f7fe ff4f 	bl	42b8 <mbedtls_mpi_lset>
    541a:	4604      	mov	r4, r0
    541c:	2800      	cmp	r0, #0
    541e:	f040 8199 	bne.w	5754 <mbedtls_mpi_exp_mod+0x44e>
/home/aom1/Work/Linux/target/STM32MP1-DK2/bootloader/optee-os-custom/lib/libmbedtls/mbedtls/library/bignum.c:2436 (discriminator 2)
    5422:	6869      	ldr	r1, [r5, #4]
    5424:	4640      	mov	r0, r8
    5426:	0189      	lsls	r1, r1, #6
    5428:	f7ff f882 	bl	4530 <mbedtls_mpi_shift_l>
    542c:	4604      	mov	r4, r0
    542e:	2800      	cmp	r0, #0
    5430:	f040 8190 	bne.w	5754 <mbedtls_mpi_exp_mod+0x44e>
/home/aom1/Work/Linux/target/STM32MP1-DK2/bootloader/optee-os-custom/lib/libmbedtls/mbedtls/library/bignum.c:2437 (discriminator 2)
    5434:	462a      	mov	r2, r5
    5436:	4641      	mov	r1, r8
    5438:	4640      	mov	r0, r8
    543a:	f7ff fe1a 	bl	5072 <mbedtls_mpi_mod_mpi>
    543e:	4604      	mov	r4, r0
    5440:	2800      	cmp	r0, #0
    5442:	f040 8187 	bne.w	5754 <mbedtls_mpi_exp_mod+0x44e>
/home/aom1/Work/Linux/target/STM32MP1-DK2/bootloader/optee-os-custom/lib/libmbedtls/mbedtls/library/bignum.c:2439 (discriminator 2)
    5446:	9b28      	ldr	r3, [sp, #160]	; 0xa0
    5448:	b123      	cbz	r3, 5454 <mbedtls_mpi_exp_mod+0x14e>
/home/aom1/Work/Linux/target/STM32MP1-DK2/bootloader/optee-os-custom/lib/libmbedtls/mbedtls/library/bignum.c:2440
    544a:	220c      	movs	r2, #12
    544c:	4641      	mov	r1, r8
    544e:	4618      	mov	r0, r3
/home/aom1/Work/Linux/target/STM32MP1-DK2/bootloader/optee-os-custom/lib/libmbedtls/mbedtls/library/bignum.c:2443
    5450:	f001 fc74 	bl	6d3c <memcpy>
/home/aom1/Work/Linux/target/STM32MP1-DK2/bootloader/optee-os-custom/lib/libmbedtls/mbedtls/library/bignum.c:2445
    5454:	9b0d      	ldr	r3, [sp, #52]	; 0x34
    5456:	f44f 61c0 	mov.w	r1, #1536	; 0x600
    545a:	6818      	ldr	r0, [r3, #0]
    545c:	f001 fd1c 	bl	6e98 <mempool_alloc>
/home/aom1/Work/Linux/target/STM32MP1-DK2/bootloader/optee-os-custom/lib/libmbedtls/mbedtls/library/bignum.c:2447
    5460:	4683      	mov	fp, r0
    5462:	2800      	cmp	r0, #0
    5464:	f000 8179 	beq.w	575a <mbedtls_mpi_exp_mod+0x454>
    5468:	9008      	str	r0, [sp, #32]
    546a:	4604      	mov	r4, r0
    546c:	f500 63c0 	add.w	r3, r0, #1536	; 0x600
    5470:	930c      	str	r3, [sp, #48]	; 0x30
/home/aom1/Work/Linux/target/STM32MP1-DK2/bootloader/optee-os-custom/lib/libmbedtls/mbedtls/library/bignum.c:2452 (discriminator 3)
    5472:	4620      	mov	r0, r4
/home/aom1/Work/Linux/target/STM32MP1-DK2/bootloader/optee-os-custom/lib/libmbedtls/mbedtls/library/bignum.c:2451 (discriminator 3)
    5474:	340c      	adds	r4, #12
/home/aom1/Work/Linux/target/STM32MP1-DK2/bootloader/optee-os-custom/lib/libmbedtls/mbedtls/library/bignum.c:2452 (discriminator 3)
    5476:	f7fe fd61 	bl	3f3c <mbedtls_mpi_init_mempool>
/home/aom1/Work/Linux/target/STM32MP1-DK2/bootloader/optee-os-custom/lib/libmbedtls/mbedtls/library/bignum.c:2451 (discriminator 3)
    547a:	9b0c      	ldr	r3, [sp, #48]	; 0x30
    547c:	429c      	cmp	r4, r3
    547e:	d1f8      	bne.n	5472 <mbedtls_mpi_exp_mod+0x16c>
/home/aom1/Work/Linux/target/STM32MP1-DK2/bootloader/optee-os-custom/lib/libmbedtls/mbedtls/library/bignum.c:2453
    5480:	f10b 030c 	add.w	r3, fp, #12
    5484:	4649      	mov	r1, r9
    5486:	9304      	str	r3, [sp, #16]
    5488:	4618      	mov	r0, r3
    548a:	f7fe fd8d 	bl	3fa8 <mbedtls_mpi_grow>
    548e:	4604      	mov	r4, r0
    5490:	2800      	cmp	r0, #0
    5492:	d169      	bne.n	5568 <mbedtls_mpi_exp_mod+0x262>
/home/aom1/Work/Linux/target/STM32MP1-DK2/bootloader/optee-os-custom/lib/libmbedtls/mbedtls/library/bignum.c:2458 (discriminator 2)
    5494:	4629      	mov	r1, r5
    5496:	4638      	mov	r0, r7
    5498:	f7ff f909 	bl	46ae <mbedtls_mpi_cmp_mpi>
    549c:	2800      	cmp	r0, #0
    549e:	f2c0 808f 	blt.w	55c0 <mbedtls_mpi_exp_mod+0x2ba>
/home/aom1/Work/Linux/target/STM32MP1-DK2/bootloader/optee-os-custom/lib/libmbedtls/mbedtls/library/bignum.c:2460
    54a2:	9804      	ldr	r0, [sp, #16]
    54a4:	462a      	mov	r2, r5
    54a6:	4639      	mov	r1, r7
    54a8:	f7ff fde3 	bl	5072 <mbedtls_mpi_mod_mpi>
    54ac:	4604      	mov	r4, r0
    54ae:	2800      	cmp	r0, #0
    54b0:	d15a      	bne.n	5568 <mbedtls_mpi_exp_mod+0x262>
/home/aom1/Work/Linux/target/STM32MP1-DK2/bootloader/optee-os-custom/lib/libmbedtls/mbedtls/library/bignum.c:2464 (discriminator 2)
    54b2:	6869      	ldr	r1, [r5, #4]
    54b4:	9804      	ldr	r0, [sp, #16]
    54b6:	3101      	adds	r1, #1
    54b8:	f7fe fd76 	bl	3fa8 <mbedtls_mpi_grow>
    54bc:	4604      	mov	r4, r0
    54be:	2800      	cmp	r0, #0
    54c0:	d152      	bne.n	5568 <mbedtls_mpi_exp_mod+0x262>
/home/aom1/Work/Linux/target/STM32MP1-DK2/bootloader/optee-os-custom/lib/libmbedtls/mbedtls/library/bignum.c:2471
    54c2:	f8dd 8044 	ldr.w	r8, [sp, #68]	; 0x44
    54c6:	ac12      	add	r4, sp, #72	; 0x48
    54c8:	9804      	ldr	r0, [sp, #16]
    54ca:	f10d 0a54 	add.w	sl, sp, #84	; 0x54
    54ce:	f8cd a000 	str.w	sl, [sp]
    54d2:	4621      	mov	r1, r4
    54d4:	4643      	mov	r3, r8
    54d6:	462a      	mov	r2, r5
    54d8:	f7fe fc39 	bl	3d4e <mpi_montmul>
/home/aom1/Work/Linux/target/STM32MP1-DK2/bootloader/optee-os-custom/lib/libmbedtls/mbedtls/library/bignum.c:2476
    54dc:	4621      	mov	r1, r4
    54de:	4630      	mov	r0, r6
    54e0:	f7fe fe24 	bl	412c <mbedtls_mpi_copy>
    54e4:	4604      	mov	r4, r0
    54e6:	2800      	cmp	r0, #0
    54e8:	d13e      	bne.n	5568 <mbedtls_mpi_exp_mod+0x262>
/home/aom1/Work/Linux/target/STM32MP1-DK2/bootloader/optee-os-custom/lib/libmbedtls/mbedtls/library/bignum.c:2477 (discriminator 2)
    54ea:	4653      	mov	r3, sl
    54ec:	4642      	mov	r2, r8
    54ee:	4629      	mov	r1, r5
    54f0:	4630      	mov	r0, r6
    54f2:	f7fe fc9e 	bl	3e32 <mpi_montred>
/home/aom1/Work/Linux/target/STM32MP1-DK2/bootloader/optee-os-custom/lib/libmbedtls/mbedtls/library/bignum.c:2479 (discriminator 2)
    54f6:	9b03      	ldr	r3, [sp, #12]
    54f8:	2b01      	cmp	r3, #1
    54fa:	d166      	bne.n	55ca <mbedtls_mpi_exp_mod+0x2c4>
/home/aom1/Work/Linux/target/STM32MP1-DK2/bootloader/optee-os-custom/lib/libmbedtls/mbedtls/library/bignum.c:2504
    54fc:	9b06      	ldr	r3, [sp, #24]
/home/aom1/Work/Linux/target/STM32MP1-DK2/bootloader/optee-os-custom/lib/libmbedtls/mbedtls/library/bignum.c:2508
    54fe:	f04f 0a00 	mov.w	sl, #0
/home/aom1/Work/Linux/target/STM32MP1-DK2/bootloader/optee-os-custom/lib/libmbedtls/mbedtls/library/bignum.c:2505
    5502:	f8cd a01c 	str.w	sl, [sp, #28]
/home/aom1/Work/Linux/target/STM32MP1-DK2/bootloader/optee-os-custom/lib/libmbedtls/mbedtls/library/bignum.c:2506
    5506:	4657      	mov	r7, sl
/home/aom1/Work/Linux/target/STM32MP1-DK2/bootloader/optee-os-custom/lib/libmbedtls/mbedtls/library/bignum.c:2504
    5508:	685b      	ldr	r3, [r3, #4]
/home/aom1/Work/Linux/target/STM32MP1-DK2/bootloader/optee-os-custom/lib/libmbedtls/mbedtls/library/bignum.c:2507
    550a:	46d1      	mov	r9, sl
/home/aom1/Work/Linux/target/STM32MP1-DK2/bootloader/optee-os-custom/lib/libmbedtls/mbedtls/library/bignum.c:2504
    550c:	9305      	str	r3, [sp, #20]
/home/aom1/Work/Linux/target/STM32MP1-DK2/bootloader/optee-os-custom/lib/libmbedtls/mbedtls/library/bignum.c:2555
    550e:	ab15      	add	r3, sp, #84	; 0x54
    5510:	930a      	str	r3, [sp, #40]	; 0x28
/home/aom1/Work/Linux/target/STM32MP1-DK2/bootloader/optee-os-custom/lib/libmbedtls/mbedtls/library/bignum.c:2512
    5512:	9b07      	ldr	r3, [sp, #28]
    5514:	2b00      	cmp	r3, #0
    5516:	f040 80aa 	bne.w	566e <mbedtls_mpi_exp_mod+0x368>
/home/aom1/Work/Linux/target/STM32MP1-DK2/bootloader/optee-os-custom/lib/libmbedtls/mbedtls/library/bignum.c:2514
    551a:	9b05      	ldr	r3, [sp, #20]
    551c:	2b00      	cmp	r3, #0
    551e:	f040 80a1 	bne.w	5664 <mbedtls_mpi_exp_mod+0x35e>
/home/aom1/Work/Linux/target/STM32MP1-DK2/bootloader/optee-os-custom/lib/libmbedtls/mbedtls/library/bignum.c:2578
    5522:	9a03      	ldr	r2, [sp, #12]
    5524:	2301      	movs	r3, #1
    5526:	f10d 0a54 	add.w	sl, sp, #84	; 0x54
    552a:	4093      	lsls	r3, r2
    552c:	9303      	str	r3, [sp, #12]
/home/aom1/Work/Linux/target/STM32MP1-DK2/bootloader/optee-os-custom/lib/libmbedtls/mbedtls/library/bignum.c:2572 (discriminator 1)
    552e:	9b05      	ldr	r3, [sp, #20]
    5530:	42bb      	cmp	r3, r7
    5532:	f040 80f5 	bne.w	5720 <mbedtls_mpi_exp_mod+0x41a>
/home/aom1/Work/Linux/target/STM32MP1-DK2/bootloader/optee-os-custom/lib/libmbedtls/mbedtls/library/bignum.c:2585
    5536:	4653      	mov	r3, sl
    5538:	4642      	mov	r2, r8
    553a:	4629      	mov	r1, r5
    553c:	4630      	mov	r0, r6
    553e:	f7fe fc78 	bl	3e32 <mpi_montred>
/home/aom1/Work/Linux/target/STM32MP1-DK2/bootloader/optee-os-custom/lib/libmbedtls/mbedtls/library/bignum.c:2587
    5542:	9b09      	ldr	r3, [sp, #36]	; 0x24
    5544:	3301      	adds	r3, #1
    5546:	d10f      	bne.n	5568 <mbedtls_mpi_exp_mod+0x262>
/home/aom1/Work/Linux/target/STM32MP1-DK2/bootloader/optee-os-custom/lib/libmbedtls/mbedtls/library/bignum.c:2587 (discriminator 1)
    5548:	9b06      	ldr	r3, [sp, #24]
    554a:	685b      	ldr	r3, [r3, #4]
    554c:	b163      	cbz	r3, 5568 <mbedtls_mpi_exp_mod+0x262>
/home/aom1/Work/Linux/target/STM32MP1-DK2/bootloader/optee-os-custom/lib/libmbedtls/mbedtls/library/bignum.c:2587 (discriminator 2)
    554e:	9b06      	ldr	r3, [sp, #24]
    5550:	689b      	ldr	r3, [r3, #8]
    5552:	681b      	ldr	r3, [r3, #0]
    5554:	07db      	lsls	r3, r3, #31
    5556:	d507      	bpl.n	5568 <mbedtls_mpi_exp_mod+0x262>
/home/aom1/Work/Linux/target/STM32MP1-DK2/bootloader/optee-os-custom/lib/libmbedtls/mbedtls/library/bignum.c:2589
    5558:	9b09      	ldr	r3, [sp, #36]	; 0x24
/home/aom1/Work/Linux/target/STM32MP1-DK2/bootloader/optee-os-custom/lib/libmbedtls/mbedtls/library/bignum.c:2590
    555a:	4632      	mov	r2, r6
    555c:	4629      	mov	r1, r5
    555e:	4630      	mov	r0, r6
/home/aom1/Work/Linux/target/STM32MP1-DK2/bootloader/optee-os-custom/lib/libmbedtls/mbedtls/library/bignum.c:2589
    5560:	8033      	strh	r3, [r6, #0]
/home/aom1/Work/Linux/target/STM32MP1-DK2/bootloader/optee-os-custom/lib/libmbedtls/mbedtls/library/bignum.c:2590
    5562:	f7ff fa17 	bl	4994 <mbedtls_mpi_add_mpi>
    5566:	4604      	mov	r4, r0
/home/aom1/Work/Linux/target/STM32MP1-DK2/bootloader/optee-os-custom/lib/libmbedtls/mbedtls/library/bignum.c:2597 (discriminator 3)
    5568:	9808      	ldr	r0, [sp, #32]
    556a:	f7fe fcfb 	bl	3f64 <mbedtls_mpi_free>
/home/aom1/Work/Linux/target/STM32MP1-DK2/bootloader/optee-os-custom/lib/libmbedtls/mbedtls/library/bignum.c:2596 (discriminator 3)
    556e:	9b08      	ldr	r3, [sp, #32]
    5570:	330c      	adds	r3, #12
    5572:	9308      	str	r3, [sp, #32]
    5574:	9a08      	ldr	r2, [sp, #32]
    5576:	9b0c      	ldr	r3, [sp, #48]	; 0x30
    5578:	4293      	cmp	r3, r2
    557a:	d1f5      	bne.n	5568 <mbedtls_mpi_exp_mod+0x262>
/home/aom1/Work/Linux/target/STM32MP1-DK2/bootloader/optee-os-custom/lib/libmbedtls/mbedtls/library/bignum.c:2598
    557c:	9b0d      	ldr	r3, [sp, #52]	; 0x34
    557e:	4659      	mov	r1, fp
    5580:	6818      	ldr	r0, [r3, #0]
    5582:	f001 fcb9 	bl	6ef8 <mempool_free>
/home/aom1/Work/Linux/target/STM32MP1-DK2/bootloader/optee-os-custom/lib/libmbedtls/mbedtls/library/bignum.c:2600
    5586:	a815      	add	r0, sp, #84	; 0x54
    5588:	f7fe fcec 	bl	3f64 <mbedtls_mpi_free>
    558c:	a81b      	add	r0, sp, #108	; 0x6c
    558e:	f7fe fce9 	bl	3f64 <mbedtls_mpi_free>
/home/aom1/Work/Linux/target/STM32MP1-DK2/bootloader/optee-os-custom/lib/libmbedtls/mbedtls/library/bignum.c:2601
    5592:	a818      	add	r0, sp, #96	; 0x60
    5594:	f7fe fce6 	bl	3f64 <mbedtls_mpi_free>
/home/aom1/Work/Linux/target/STM32MP1-DK2/bootloader/optee-os-custom/lib/libmbedtls/mbedtls/library/bignum.c:2603
    5598:	9b28      	ldr	r3, [sp, #160]	; 0xa0
    559a:	b11b      	cbz	r3, 55a4 <mbedtls_mpi_exp_mod+0x29e>
/home/aom1/Work/Linux/target/STM32MP1-DK2/bootloader/optee-os-custom/lib/libmbedtls/mbedtls/library/bignum.c:2603 (discriminator 1)
    559c:	689b      	ldr	r3, [r3, #8]
    559e:	2b00      	cmp	r3, #0
    55a0:	f47f aec4 	bne.w	532c <mbedtls_mpi_exp_mod+0x26>
/home/aom1/Work/Linux/target/STM32MP1-DK2/bootloader/optee-os-custom/lib/libmbedtls/mbedtls/library/bignum.c:2604
    55a4:	a812      	add	r0, sp, #72	; 0x48
    55a6:	f7fe fcdd 	bl	3f64 <mbedtls_mpi_free>
    55aa:	e6bf      	b.n	532c <mbedtls_mpi_exp_mod+0x26>
/home/aom1/Work/Linux/target/STM32MP1-DK2/bootloader/optee-os-custom/lib/libmbedtls/mbedtls/library/bignum.c:2401
    55ac:	2306      	movs	r3, #6
    55ae:	e700      	b.n	53b2 <mbedtls_mpi_exp_mod+0xac>
    55b0:	2305      	movs	r3, #5
    55b2:	e6fe      	b.n	53b2 <mbedtls_mpi_exp_mod+0xac>
    55b4:	2304      	movs	r3, #4
    55b6:	e6fc      	b.n	53b2 <mbedtls_mpi_exp_mod+0xac>
/home/aom1/Work/Linux/target/STM32MP1-DK2/bootloader/optee-os-custom/lib/libmbedtls/mbedtls/library/bignum.c:2443
    55b8:	9928      	ldr	r1, [sp, #160]	; 0xa0
    55ba:	220c      	movs	r2, #12
    55bc:	4640      	mov	r0, r8
    55be:	e747      	b.n	5450 <mbedtls_mpi_exp_mod+0x14a>
/home/aom1/Work/Linux/target/STM32MP1-DK2/bootloader/optee-os-custom/lib/libmbedtls/mbedtls/library/bignum.c:2467
    55c0:	9804      	ldr	r0, [sp, #16]
    55c2:	4639      	mov	r1, r7
    55c4:	f7fe fdb2 	bl	412c <mbedtls_mpi_copy>
    55c8:	e778      	b.n	54bc <mbedtls_mpi_exp_mod+0x1b6>
/home/aom1/Work/Linux/target/STM32MP1-DK2/bootloader/optee-os-custom/lib/libmbedtls/mbedtls/library/bignum.c:2484
    55ca:	9b03      	ldr	r3, [sp, #12]
/home/aom1/Work/Linux/target/STM32MP1-DK2/bootloader/optee-os-custom/lib/libmbedtls/mbedtls/library/bignum.c:2486
    55cc:	270c      	movs	r7, #12
    55ce:	6869      	ldr	r1, [r5, #4]
/home/aom1/Work/Linux/target/STM32MP1-DK2/bootloader/optee-os-custom/lib/libmbedtls/mbedtls/library/bignum.c:2484
    55d0:	f103 39ff 	add.w	r9, r3, #4294967295	; 0xffffffff
/home/aom1/Work/Linux/target/STM32MP1-DK2/bootloader/optee-os-custom/lib/libmbedtls/mbedtls/library/bignum.c:2486
    55d4:	3101      	adds	r1, #1
    55d6:	fa07 f709 	lsl.w	r7, r7, r9
    55da:	445f      	add	r7, fp
    55dc:	4638      	mov	r0, r7
    55de:	f7fe fce3 	bl	3fa8 <mbedtls_mpi_grow>
    55e2:	2800      	cmp	r0, #0
    55e4:	d1bf      	bne.n	5566 <mbedtls_mpi_exp_mod+0x260>
/home/aom1/Work/Linux/target/STM32MP1-DK2/bootloader/optee-os-custom/lib/libmbedtls/mbedtls/library/bignum.c:2487 (discriminator 2)
    55e6:	9904      	ldr	r1, [sp, #16]
    55e8:	4638      	mov	r0, r7
    55ea:	f7fe fd9f 	bl	412c <mbedtls_mpi_copy>
    55ee:	2800      	cmp	r0, #0
    55f0:	d1b9      	bne.n	5566 <mbedtls_mpi_exp_mod+0x260>
/home/aom1/Work/Linux/target/STM32MP1-DK2/bootloader/optee-os-custom/lib/libmbedtls/mbedtls/library/bignum.c:2489
    55f2:	9405      	str	r4, [sp, #20]
/home/aom1/Work/Linux/target/STM32MP1-DK2/bootloader/optee-os-custom/lib/libmbedtls/mbedtls/library/bignum.c:2490 (discriminator 3)
    55f4:	f8cd a000 	str.w	sl, [sp]
    55f8:	4643      	mov	r3, r8
    55fa:	462a      	mov	r2, r5
    55fc:	4639      	mov	r1, r7
    55fe:	4638      	mov	r0, r7
    5600:	f7fe fba5 	bl	3d4e <mpi_montmul>
/home/aom1/Work/Linux/target/STM32MP1-DK2/bootloader/optee-os-custom/lib/libmbedtls/mbedtls/library/bignum.c:2489 (discriminator 3)
    5604:	9b05      	ldr	r3, [sp, #20]
    5606:	3301      	adds	r3, #1
    5608:	4599      	cmp	r9, r3
    560a:	9305      	str	r3, [sp, #20]
    560c:	d8f2      	bhi.n	55f4 <mbedtls_mpi_exp_mod+0x2ee>
/home/aom1/Work/Linux/target/STM32MP1-DK2/bootloader/optee-os-custom/lib/libmbedtls/mbedtls/library/bignum.c:2495
    560e:	9a03      	ldr	r2, [sp, #12]
/home/aom1/Work/Linux/target/STM32MP1-DK2/bootloader/optee-os-custom/lib/libmbedtls/mbedtls/library/bignum.c:2484
    5610:	2301      	movs	r3, #1
    5612:	fa03 f909 	lsl.w	r9, r3, r9
/home/aom1/Work/Linux/target/STM32MP1-DK2/bootloader/optee-os-custom/lib/libmbedtls/mbedtls/library/bignum.c:2495
    5616:	4499      	add	r9, r3
    5618:	4093      	lsls	r3, r2
    561a:	9305      	str	r3, [sp, #20]
/home/aom1/Work/Linux/target/STM32MP1-DK2/bootloader/optee-os-custom/lib/libmbedtls/mbedtls/library/bignum.c:2500
    561c:	ab15      	add	r3, sp, #84	; 0x54
    561e:	9307      	str	r3, [sp, #28]
/home/aom1/Work/Linux/target/STM32MP1-DK2/bootloader/optee-os-custom/lib/libmbedtls/mbedtls/library/bignum.c:2495 (discriminator 2)
    5620:	9b05      	ldr	r3, [sp, #20]
    5622:	454b      	cmp	r3, r9
    5624:	f67f af6a 	bls.w	54fc <mbedtls_mpi_exp_mod+0x1f6>
/home/aom1/Work/Linux/target/STM32MP1-DK2/bootloader/optee-os-custom/lib/libmbedtls/mbedtls/library/bignum.c:2497
    5628:	6869      	ldr	r1, [r5, #4]
    562a:	f107 0a0c 	add.w	sl, r7, #12
    562e:	4650      	mov	r0, sl
    5630:	3101      	adds	r1, #1
    5632:	f7fe fcb9 	bl	3fa8 <mbedtls_mpi_grow>
    5636:	2800      	cmp	r0, #0
    5638:	d195      	bne.n	5566 <mbedtls_mpi_exp_mod+0x260>
/home/aom1/Work/Linux/target/STM32MP1-DK2/bootloader/optee-os-custom/lib/libmbedtls/mbedtls/library/bignum.c:2498 (discriminator 2)
    563a:	4639      	mov	r1, r7
    563c:	4650      	mov	r0, sl
    563e:	f7fe fd75 	bl	412c <mbedtls_mpi_copy>
    5642:	2800      	cmp	r0, #0
    5644:	d18f      	bne.n	5566 <mbedtls_mpi_exp_mod+0x260>
/home/aom1/Work/Linux/target/STM32MP1-DK2/bootloader/optee-os-custom/lib/libmbedtls/mbedtls/library/bignum.c:2500 (discriminator 2)
    5646:	9b07      	ldr	r3, [sp, #28]
    5648:	462a      	mov	r2, r5
    564a:	9904      	ldr	r1, [sp, #16]
    564c:	4650      	mov	r0, sl
    564e:	9300      	str	r3, [sp, #0]
    5650:	4643      	mov	r3, r8
/home/aom1/Work/Linux/target/STM32MP1-DK2/bootloader/optee-os-custom/lib/libmbedtls/mbedtls/library/bignum.c:2495 (discriminator 2)
    5652:	f109 0901 	add.w	r9, r9, #1
    5656:	4657      	mov	r7, sl
/home/aom1/Work/Linux/target/STM32MP1-DK2/bootloader/optee-os-custom/lib/libmbedtls/mbedtls/library/bignum.c:2500 (discriminator 2)
    5658:	f7fe fb79 	bl	3d4e <mpi_montmul>
/home/aom1/Work/Linux/target/STM32MP1-DK2/bootloader/optee-os-custom/lib/libmbedtls/mbedtls/library/bignum.c:2495 (discriminator 2)
    565c:	e7e0      	b.n	5620 <mbedtls_mpi_exp_mod+0x31a>
/home/aom1/Work/Linux/target/STM32MP1-DK2/bootloader/optee-os-custom/lib/libmbedtls/mbedtls/library/bignum.c:2544
    565e:	2202      	movs	r2, #2
/home/aom1/Work/Linux/target/STM32MP1-DK2/bootloader/optee-os-custom/lib/libmbedtls/mbedtls/library/bignum.c:2565
    5660:	4692      	mov	sl, r2
    5662:	e756      	b.n	5512 <mbedtls_mpi_exp_mod+0x20c>
/home/aom1/Work/Linux/target/STM32MP1-DK2/bootloader/optee-os-custom/lib/libmbedtls/mbedtls/library/bignum.c:2517
    5664:	9b05      	ldr	r3, [sp, #20]
    5666:	3b01      	subs	r3, #1
    5668:	9305      	str	r3, [sp, #20]
/home/aom1/Work/Linux/target/STM32MP1-DK2/bootloader/optee-os-custom/lib/libmbedtls/mbedtls/library/bignum.c:2519
    566a:	2320      	movs	r3, #32
    566c:	9307      	str	r3, [sp, #28]
/home/aom1/Work/Linux/target/STM32MP1-DK2/bootloader/optee-os-custom/lib/libmbedtls/mbedtls/library/bignum.c:2522
    566e:	9b07      	ldr	r3, [sp, #28]
/home/aom1/Work/Linux/target/STM32MP1-DK2/bootloader/optee-os-custom/lib/libmbedtls/mbedtls/library/bignum.c:2524
    5670:	9a05      	ldr	r2, [sp, #20]
/home/aom1/Work/Linux/target/STM32MP1-DK2/bootloader/optee-os-custom/lib/libmbedtls/mbedtls/library/bignum.c:2522
    5672:	3b01      	subs	r3, #1
    5674:	9307      	str	r3, [sp, #28]
/home/aom1/Work/Linux/target/STM32MP1-DK2/bootloader/optee-os-custom/lib/libmbedtls/mbedtls/library/bignum.c:2524
    5676:	9b06      	ldr	r3, [sp, #24]
    5678:	689b      	ldr	r3, [r3, #8]
    567a:	f853 3022 	ldr.w	r3, [r3, r2, lsl #2]
    567e:	9a07      	ldr	r2, [sp, #28]
    5680:	40d3      	lsrs	r3, r2
    5682:	f003 0301 	and.w	r3, r3, #1
/home/aom1/Work/Linux/target/STM32MP1-DK2/bootloader/optee-os-custom/lib/libmbedtls/mbedtls/library/bignum.c:2529
    5686:	ea5a 0203 	orrs.w	r2, sl, r3
    568a:	d0e9      	beq.n	5660 <mbedtls_mpi_exp_mod+0x35a>
/home/aom1/Work/Linux/target/STM32MP1-DK2/bootloader/optee-os-custom/lib/libmbedtls/mbedtls/library/bignum.c:2532
    568c:	b963      	cbnz	r3, 56a8 <mbedtls_mpi_exp_mod+0x3a2>
/home/aom1/Work/Linux/target/STM32MP1-DK2/bootloader/optee-os-custom/lib/libmbedtls/mbedtls/library/bignum.c:2532 (discriminator 1)
    568e:	f1ba 0f01 	cmp.w	sl, #1
    5692:	d109      	bne.n	56a8 <mbedtls_mpi_exp_mod+0x3a2>
/home/aom1/Work/Linux/target/STM32MP1-DK2/bootloader/optee-os-custom/lib/libmbedtls/mbedtls/library/bignum.c:2537 (discriminator 2)
    5694:	9b0a      	ldr	r3, [sp, #40]	; 0x28
    5696:	462a      	mov	r2, r5
    5698:	4631      	mov	r1, r6
    569a:	4630      	mov	r0, r6
    569c:	9300      	str	r3, [sp, #0]
    569e:	4643      	mov	r3, r8
    56a0:	f7fe fb55 	bl	3d4e <mpi_montmul>
/home/aom1/Work/Linux/target/STM32MP1-DK2/bootloader/optee-os-custom/lib/libmbedtls/mbedtls/library/bignum.c:2538 (discriminator 2)
    56a4:	4652      	mov	r2, sl
    56a6:	e7db      	b.n	5660 <mbedtls_mpi_exp_mod+0x35a>
/home/aom1/Work/Linux/target/STM32MP1-DK2/bootloader/optee-os-custom/lib/libmbedtls/mbedtls/library/bignum.c:2547
    56a8:	9a03      	ldr	r2, [sp, #12]
/home/aom1/Work/Linux/target/STM32MP1-DK2/bootloader/optee-os-custom/lib/libmbedtls/mbedtls/library/bignum.c:2546
    56aa:	3701      	adds	r7, #1
/home/aom1/Work/Linux/target/STM32MP1-DK2/bootloader/optee-os-custom/lib/libmbedtls/mbedtls/library/bignum.c:2547
    56ac:	1bd2      	subs	r2, r2, r7
    56ae:	4093      	lsls	r3, r2
    56b0:	ea49 0903 	orr.w	r9, r9, r3
/home/aom1/Work/Linux/target/STM32MP1-DK2/bootloader/optee-os-custom/lib/libmbedtls/mbedtls/library/bignum.c:2549
    56b4:	9b03      	ldr	r3, [sp, #12]
    56b6:	42bb      	cmp	r3, r7
    56b8:	d1d1      	bne.n	565e <mbedtls_mpi_exp_mod+0x358>
/home/aom1/Work/Linux/target/STM32MP1-DK2/bootloader/optee-os-custom/lib/libmbedtls/mbedtls/library/bignum.c:2554
    56ba:	f04f 0a00 	mov.w	sl, #0
/home/aom1/Work/Linux/target/STM32MP1-DK2/bootloader/optee-os-custom/lib/libmbedtls/mbedtls/library/bignum.c:2555 (discriminator 3)
    56be:	9b0a      	ldr	r3, [sp, #40]	; 0x28
    56c0:	462a      	mov	r2, r5
    56c2:	4631      	mov	r1, r6
    56c4:	4630      	mov	r0, r6
    56c6:	9300      	str	r3, [sp, #0]
/home/aom1/Work/Linux/target/STM32MP1-DK2/bootloader/optee-os-custom/lib/libmbedtls/mbedtls/library/bignum.c:2554 (discriminator 3)
    56c8:	f10a 0a01 	add.w	sl, sl, #1
/home/aom1/Work/Linux/target/STM32MP1-DK2/bootloader/optee-os-custom/lib/libmbedtls/mbedtls/library/bignum.c:2555 (discriminator 3)
    56cc:	4643      	mov	r3, r8
    56ce:	f7fe fb3e 	bl	3d4e <mpi_montmul>
/home/aom1/Work/Linux/target/STM32MP1-DK2/bootloader/optee-os-custom/lib/libmbedtls/mbedtls/library/bignum.c:2554 (discriminator 3)
    56d2:	4557      	cmp	r7, sl
    56d4:	d8f3      	bhi.n	56be <mbedtls_mpi_exp_mod+0x3b8>
/home/aom1/Work/Linux/target/STM32MP1-DK2/bootloader/optee-os-custom/lib/libmbedtls/mbedtls/library/bignum.c:2560
    56d6:	2301      	movs	r3, #1
    56d8:	40bb      	lsls	r3, r7
mpi_select():
/home/aom1/Work/Linux/target/STM32MP1-DK2/bootloader/optee-os-custom/lib/libmbedtls/mbedtls/library/bignum.c:2351
    56da:	af18      	add	r7, sp, #96	; 0x60
mbedtls_mpi_exp_mod():
/home/aom1/Work/Linux/target/STM32MP1-DK2/bootloader/optee-os-custom/lib/libmbedtls/mbedtls/library/bignum.c:2560
    56dc:	930e      	str	r3, [sp, #56]	; 0x38
mpi_select():
/home/aom1/Work/Linux/target/STM32MP1-DK2/bootloader/optee-os-custom/lib/libmbedtls/mbedtls/library/bignum.c:2349
    56de:	2300      	movs	r3, #0
mbedtls_mpi_cf_bool_eq():
/home/aom1/Work/Linux/target/STM32MP1-DK2/bootloader/optee-os-custom/lib/libmbedtls/mbedtls/library/bignum.c:2308
    56e0:	ea89 0103 	eor.w	r1, r9, r3
mpi_select():
/home/aom1/Work/Linux/target/STM32MP1-DK2/bootloader/optee-os-custom/lib/libmbedtls/mbedtls/library/bignum.c:2351
    56e4:	4638      	mov	r0, r7
    56e6:	930f      	str	r3, [sp, #60]	; 0x3c
mbedtls_mpi_cf_bool_eq():
/home/aom1/Work/Linux/target/STM32MP1-DK2/bootloader/optee-os-custom/lib/libmbedtls/mbedtls/library/bignum.c:2318
    56e8:	424a      	negs	r2, r1
    56ea:	430a      	orrs	r2, r1
mpi_select():
/home/aom1/Work/Linux/target/STM32MP1-DK2/bootloader/optee-os-custom/lib/libmbedtls/mbedtls/library/bignum.c:2351
    56ec:	210c      	movs	r1, #12
    56ee:	43d2      	mvns	r2, r2
    56f0:	fb01 b103 	mla	r1, r1, r3, fp
    56f4:	0fd2      	lsrs	r2, r2, #31
    56f6:	f7fe fd63 	bl	41c0 <mbedtls_mpi_safe_cond_assign>
    56fa:	4682      	mov	sl, r0
    56fc:	bb80      	cbnz	r0, 5760 <mbedtls_mpi_exp_mod+0x45a>
/home/aom1/Work/Linux/target/STM32MP1-DK2/bootloader/optee-os-custom/lib/libmbedtls/mbedtls/library/bignum.c:2349
    56fe:	9b0f      	ldr	r3, [sp, #60]	; 0x3c
    5700:	9a0e      	ldr	r2, [sp, #56]	; 0x38
    5702:	3301      	adds	r3, #1
    5704:	429a      	cmp	r2, r3
    5706:	d1eb      	bne.n	56e0 <mbedtls_mpi_exp_mod+0x3da>
mbedtls_mpi_exp_mod():
/home/aom1/Work/Linux/target/STM32MP1-DK2/bootloader/optee-os-custom/lib/libmbedtls/mbedtls/library/bignum.c:2561 (discriminator 2)
    5708:	9b0a      	ldr	r3, [sp, #40]	; 0x28
    570a:	462a      	mov	r2, r5
    570c:	4639      	mov	r1, r7
    570e:	4630      	mov	r0, r6
    5710:	9300      	str	r3, [sp, #0]
    5712:	4643      	mov	r3, r8
/home/aom1/Work/Linux/target/STM32MP1-DK2/bootloader/optee-os-custom/lib/libmbedtls/mbedtls/library/bignum.c:2564 (discriminator 2)
    5714:	46d1      	mov	r9, sl
/home/aom1/Work/Linux/target/STM32MP1-DK2/bootloader/optee-os-custom/lib/libmbedtls/mbedtls/library/bignum.c:2561 (discriminator 2)
    5716:	f7fe fb1a 	bl	3d4e <mpi_montmul>
/home/aom1/Work/Linux/target/STM32MP1-DK2/bootloader/optee-os-custom/lib/libmbedtls/mbedtls/library/bignum.c:2563 (discriminator 2)
    571a:	9a0b      	ldr	r2, [sp, #44]	; 0x2c
/home/aom1/Work/Linux/target/STM32MP1-DK2/bootloader/optee-os-custom/lib/libmbedtls/mbedtls/library/bignum.c:2565 (discriminator 2)
    571c:	4657      	mov	r7, sl
    571e:	e79f      	b.n	5660 <mbedtls_mpi_exp_mod+0x35a>
/home/aom1/Work/Linux/target/STM32MP1-DK2/bootloader/optee-os-custom/lib/libmbedtls/mbedtls/library/bignum.c:2574
    5720:	f8cd a000 	str.w	sl, [sp]
    5724:	4643      	mov	r3, r8
    5726:	462a      	mov	r2, r5
    5728:	4631      	mov	r1, r6
/home/aom1/Work/Linux/target/STM32MP1-DK2/bootloader/optee-os-custom/lib/libmbedtls/mbedtls/library/bignum.c:2576
    572a:	ea4f 0949 	mov.w	r9, r9, lsl #1
/home/aom1/Work/Linux/target/STM32MP1-DK2/bootloader/optee-os-custom/lib/libmbedtls/mbedtls/library/bignum.c:2574
    572e:	4630      	mov	r0, r6
    5730:	f7fe fb0d 	bl	3d4e <mpi_montmul>
/home/aom1/Work/Linux/target/STM32MP1-DK2/bootloader/optee-os-custom/lib/libmbedtls/mbedtls/library/bignum.c:2578
    5734:	9b03      	ldr	r3, [sp, #12]
    5736:	ea13 0f09 	tst.w	r3, r9
    573a:	d007      	beq.n	574c <mbedtls_mpi_exp_mod+0x446>
/home/aom1/Work/Linux/target/STM32MP1-DK2/bootloader/optee-os-custom/lib/libmbedtls/mbedtls/library/bignum.c:2579
    573c:	9904      	ldr	r1, [sp, #16]
    573e:	4643      	mov	r3, r8
    5740:	f8cd a000 	str.w	sl, [sp]
    5744:	462a      	mov	r2, r5
    5746:	4630      	mov	r0, r6
    5748:	f7fe fb01 	bl	3d4e <mpi_montmul>
/home/aom1/Work/Linux/target/STM32MP1-DK2/bootloader/optee-os-custom/lib/libmbedtls/mbedtls/library/bignum.c:2572 (discriminator 2)
    574c:	9b05      	ldr	r3, [sp, #20]
    574e:	3301      	adds	r3, #1
    5750:	9305      	str	r3, [sp, #20]
    5752:	e6ec      	b.n	552e <mbedtls_mpi_exp_mod+0x228>
/home/aom1/Work/Linux/target/STM32MP1-DK2/bootloader/optee-os-custom/lib/libmbedtls/mbedtls/library/bignum.c:2372
    5754:	f04f 0b00 	mov.w	fp, #0
    5758:	e710      	b.n	557c <mbedtls_mpi_exp_mod+0x276>
/home/aom1/Work/Linux/target/STM32MP1-DK2/bootloader/optee-os-custom/lib/libmbedtls/mbedtls/library/bignum.c:2448
    575a:	f06f 040f 	mvn.w	r4, #15
    575e:	e70d      	b.n	557c <mbedtls_mpi_exp_mod+0x276>
mpi_select():
/home/aom1/Work/Linux/target/STM32MP1-DK2/bootloader/optee-os-custom/lib/libmbedtls/mbedtls/library/bignum.c:2448
    5760:	4604      	mov	r4, r0
mbedtls_mpi_exp_mod():
/home/aom1/Work/Linux/target/STM32MP1-DK2/bootloader/optee-os-custom/lib/libmbedtls/mbedtls/library/bignum.c:2596
    5762:	e701      	b.n	5568 <mbedtls_mpi_exp_mod+0x262>
    5764:	00003d6e 	.word	0x00003d6e
    5768:	0000003c 	.word	0x0000003c

0000576c <mbedtls_mpi_gcd>:
mbedtls_mpi_gcd():
/home/aom1/Work/Linux/target/STM32MP1-DK2/bootloader/optee-os-custom/lib/libmbedtls/mbedtls/library/bignum.c:2613
    576c:	e92d 47f0 	stmdb	sp!, {r4, r5, r6, r7, r8, r9, sl, lr}
    5770:	b086      	sub	sp, #24
/home/aom1/Work/Linux/target/STM32MP1-DK2/bootloader/optee-os-custom/lib/libmbedtls/mbedtls/library/bignum.c:2622
    5772:	466e      	mov	r6, sp
/home/aom1/Work/Linux/target/STM32MP1-DK2/bootloader/optee-os-custom/lib/libmbedtls/mbedtls/library/bignum.c:2613
    5774:	4607      	mov	r7, r0
/home/aom1/Work/Linux/target/STM32MP1-DK2/bootloader/optee-os-custom/lib/libmbedtls/mbedtls/library/bignum.c:2622
    5776:	ad03      	add	r5, sp, #12
    5778:	4630      	mov	r0, r6
/home/aom1/Work/Linux/target/STM32MP1-DK2/bootloader/optee-os-custom/lib/libmbedtls/mbedtls/library/bignum.c:2613
    577a:	468a      	mov	sl, r1
    577c:	4690      	mov	r8, r2
/home/aom1/Work/Linux/target/STM32MP1-DK2/bootloader/optee-os-custom/lib/libmbedtls/mbedtls/library/bignum.c:2622
    577e:	f7fe fbdd 	bl	3f3c <mbedtls_mpi_init_mempool>
    5782:	4628      	mov	r0, r5
    5784:	f7fe fbda 	bl	3f3c <mbedtls_mpi_init_mempool>
/home/aom1/Work/Linux/target/STM32MP1-DK2/bootloader/optee-os-custom/lib/libmbedtls/mbedtls/library/bignum.c:2624
    5788:	4651      	mov	r1, sl
    578a:	4630      	mov	r0, r6
    578c:	f7fe fcce 	bl	412c <mbedtls_mpi_copy>
    5790:	4604      	mov	r4, r0
    5792:	2800      	cmp	r0, #0
    5794:	d155      	bne.n	5842 <mbedtls_mpi_gcd+0xd6>
/home/aom1/Work/Linux/target/STM32MP1-DK2/bootloader/optee-os-custom/lib/libmbedtls/mbedtls/library/bignum.c:2625 (discriminator 2)
    5796:	4641      	mov	r1, r8
    5798:	4628      	mov	r0, r5
    579a:	f7fe fcc7 	bl	412c <mbedtls_mpi_copy>
    579e:	4604      	mov	r4, r0
    57a0:	2800      	cmp	r0, #0
    57a2:	d14e      	bne.n	5842 <mbedtls_mpi_gcd+0xd6>
/home/aom1/Work/Linux/target/STM32MP1-DK2/bootloader/optee-os-custom/lib/libmbedtls/mbedtls/library/bignum.c:2627 (discriminator 2)
    57a4:	4630      	mov	r0, r6
    57a6:	f7fe fddb 	bl	4360 <mbedtls_mpi_lsb>
    57aa:	4681      	mov	r9, r0
/home/aom1/Work/Linux/target/STM32MP1-DK2/bootloader/optee-os-custom/lib/libmbedtls/mbedtls/library/bignum.c:2628 (discriminator 2)
    57ac:	4628      	mov	r0, r5
    57ae:	f7fe fdd7 	bl	4360 <mbedtls_mpi_lsb>
/home/aom1/Work/Linux/target/STM32MP1-DK2/bootloader/optee-os-custom/lib/libmbedtls/mbedtls/library/bignum.c:2634 (discriminator 2)
    57b2:	4680      	mov	r8, r0
    57b4:	b950      	cbnz	r0, 57cc <mbedtls_mpi_gcd+0x60>
/home/aom1/Work/Linux/target/STM32MP1-DK2/bootloader/optee-os-custom/lib/libmbedtls/mbedtls/library/bignum.c:2634 (discriminator 1)
    57b6:	4621      	mov	r1, r4
    57b8:	4628      	mov	r0, r5
    57ba:	f7fe fd99 	bl	42f0 <mbedtls_mpi_get_bit>
    57be:	b928      	cbnz	r0, 57cc <mbedtls_mpi_gcd+0x60>
/home/aom1/Work/Linux/target/STM32MP1-DK2/bootloader/optee-os-custom/lib/libmbedtls/mbedtls/library/bignum.c:2636
    57c0:	4651      	mov	r1, sl
/home/aom1/Work/Linux/target/STM32MP1-DK2/bootloader/optee-os-custom/lib/libmbedtls/mbedtls/library/bignum.c:2714 (discriminator 2)
    57c2:	4638      	mov	r0, r7
    57c4:	f7fe fcb2 	bl	412c <mbedtls_mpi_copy>
    57c8:	4604      	mov	r4, r0
    57ca:	e03a      	b.n	5842 <mbedtls_mpi_gcd+0xd6>
/home/aom1/Work/Linux/target/STM32MP1-DK2/bootloader/optee-os-custom/lib/libmbedtls/mbedtls/library/bignum.c:2643
    57cc:	2301      	movs	r3, #1
    57ce:	f8ad 300c 	strh.w	r3, [sp, #12]
    57d2:	f8ad 3000 	strh.w	r3, [sp]
/home/aom1/Work/Linux/target/STM32MP1-DK2/bootloader/optee-os-custom/lib/libmbedtls/mbedtls/library/bignum.c:2678 (discriminator 2)
    57d6:	2100      	movs	r1, #0
    57d8:	4630      	mov	r0, r6
    57da:	f7fe fffc 	bl	47d6 <mbedtls_mpi_cmp_int>
    57de:	b950      	cbnz	r0, 57f6 <mbedtls_mpi_gcd+0x8a>
/home/aom1/Work/Linux/target/STM32MP1-DK2/bootloader/optee-os-custom/lib/libmbedtls/mbedtls/library/bignum.c:2713
    57e0:	45c1      	cmp	r9, r8
    57e2:	4649      	mov	r1, r9
    57e4:	4628      	mov	r0, r5
    57e6:	bf28      	it	cs
    57e8:	4641      	movcs	r1, r8
    57ea:	f7fe fea1 	bl	4530 <mbedtls_mpi_shift_l>
    57ee:	4604      	mov	r4, r0
    57f0:	bb38      	cbnz	r0, 5842 <mbedtls_mpi_gcd+0xd6>
/home/aom1/Work/Linux/target/STM32MP1-DK2/bootloader/optee-os-custom/lib/libmbedtls/mbedtls/library/bignum.c:2714 (discriminator 2)
    57f2:	4629      	mov	r1, r5
    57f4:	e7e5      	b.n	57c2 <mbedtls_mpi_gcd+0x56>
/home/aom1/Work/Linux/target/STM32MP1-DK2/bootloader/optee-os-custom/lib/libmbedtls/mbedtls/library/bignum.c:2681
    57f6:	4630      	mov	r0, r6
    57f8:	f7fe fdb2 	bl	4360 <mbedtls_mpi_lsb>
    57fc:	4601      	mov	r1, r0
    57fe:	4630      	mov	r0, r6
    5800:	f7fe fee8 	bl	45d4 <mbedtls_mpi_shift_r>
    5804:	4604      	mov	r4, r0
    5806:	b9e0      	cbnz	r0, 5842 <mbedtls_mpi_gcd+0xd6>
/home/aom1/Work/Linux/target/STM32MP1-DK2/bootloader/optee-os-custom/lib/libmbedtls/mbedtls/library/bignum.c:2682 (discriminator 2)
    5808:	4628      	mov	r0, r5
    580a:	f7fe fda9 	bl	4360 <mbedtls_mpi_lsb>
    580e:	4601      	mov	r1, r0
    5810:	4628      	mov	r0, r5
    5812:	f7fe fedf 	bl	45d4 <mbedtls_mpi_shift_r>
    5816:	4604      	mov	r4, r0
    5818:	b998      	cbnz	r0, 5842 <mbedtls_mpi_gcd+0xd6>
/home/aom1/Work/Linux/target/STM32MP1-DK2/bootloader/optee-os-custom/lib/libmbedtls/mbedtls/library/bignum.c:2691 (discriminator 2)
    581a:	4629      	mov	r1, r5
    581c:	4630      	mov	r0, r6
    581e:	f7fe ff46 	bl	46ae <mbedtls_mpi_cmp_mpi>
    5822:	2800      	cmp	r0, #0
    5824:	db17      	blt.n	5856 <mbedtls_mpi_gcd+0xea>
/home/aom1/Work/Linux/target/STM32MP1-DK2/bootloader/optee-os-custom/lib/libmbedtls/mbedtls/library/bignum.c:2693
    5826:	462a      	mov	r2, r5
    5828:	4631      	mov	r1, r6
    582a:	4630      	mov	r0, r6
    582c:	f7ff f841 	bl	48b2 <mbedtls_mpi_sub_abs>
    5830:	4604      	mov	r4, r0
    5832:	b930      	cbnz	r0, 5842 <mbedtls_mpi_gcd+0xd6>
/home/aom1/Work/Linux/target/STM32MP1-DK2/bootloader/optee-os-custom/lib/libmbedtls/mbedtls/library/bignum.c:2694 (discriminator 2)
    5834:	2101      	movs	r1, #1
    5836:	4630      	mov	r0, r6
/home/aom1/Work/Linux/target/STM32MP1-DK2/bootloader/optee-os-custom/lib/libmbedtls/mbedtls/library/bignum.c:2699 (discriminator 2)
    5838:	f7fe fecc 	bl	45d4 <mbedtls_mpi_shift_r>
    583c:	4604      	mov	r4, r0
    583e:	2800      	cmp	r0, #0
    5840:	d0c9      	beq.n	57d6 <mbedtls_mpi_gcd+0x6a>
/home/aom1/Work/Linux/target/STM32MP1-DK2/bootloader/optee-os-custom/lib/libmbedtls/mbedtls/library/bignum.c:2718 (discriminator 3)
    5842:	4630      	mov	r0, r6
    5844:	f7fe fb8e 	bl	3f64 <mbedtls_mpi_free>
    5848:	4628      	mov	r0, r5
    584a:	f7fe fb8b 	bl	3f64 <mbedtls_mpi_free>
/home/aom1/Work/Linux/target/STM32MP1-DK2/bootloader/optee-os-custom/lib/libmbedtls/mbedtls/library/bignum.c:2721 (discriminator 3)
    584e:	4620      	mov	r0, r4
    5850:	b006      	add	sp, #24
    5852:	e8bd 87f0 	ldmia.w	sp!, {r4, r5, r6, r7, r8, r9, sl, pc}
/home/aom1/Work/Linux/target/STM32MP1-DK2/bootloader/optee-os-custom/lib/libmbedtls/mbedtls/library/bignum.c:2698
    5856:	4632      	mov	r2, r6
    5858:	4629      	mov	r1, r5
    585a:	4628      	mov	r0, r5
    585c:	f7ff f829 	bl	48b2 <mbedtls_mpi_sub_abs>
    5860:	4604      	mov	r4, r0
    5862:	2800      	cmp	r0, #0
    5864:	d1ed      	bne.n	5842 <mbedtls_mpi_gcd+0xd6>
/home/aom1/Work/Linux/target/STM32MP1-DK2/bootloader/optee-os-custom/lib/libmbedtls/mbedtls/library/bignum.c:2699 (discriminator 2)
    5866:	2101      	movs	r1, #1
    5868:	4628      	mov	r0, r5
    586a:	e7e5      	b.n	5838 <mbedtls_mpi_gcd+0xcc>

0000586c <mbedtls_mpi_fill_random>:
mbedtls_mpi_fill_random():
/home/aom1/Work/Linux/target/STM32MP1-DK2/bootloader/optee-os-custom/lib/libmbedtls/mbedtls/library/bignum.c:2760
    586c:	e92d 41f0 	stmdb	sp!, {r4, r5, r6, r7, r8, lr}
    5870:	460c      	mov	r4, r1
/home/aom1/Work/Linux/target/STM32MP1-DK2/bootloader/optee-os-custom/lib/libmbedtls/mbedtls/library/bignum.c:2762
    5872:	f011 0103 	ands.w	r1, r1, #3
/home/aom1/Work/Linux/target/STM32MP1-DK2/bootloader/optee-os-custom/lib/libmbedtls/mbedtls/library/bignum.c:2760
    5876:	4605      	mov	r5, r0
/home/aom1/Work/Linux/target/STM32MP1-DK2/bootloader/optee-os-custom/lib/libmbedtls/mbedtls/library/bignum.c:2762
    5878:	bf18      	it	ne
    587a:	2101      	movne	r1, #1
/home/aom1/Work/Linux/target/STM32MP1-DK2/bootloader/optee-os-custom/lib/libmbedtls/mbedtls/library/bignum.c:2760
    587c:	4616      	mov	r6, r2
/home/aom1/Work/Linux/target/STM32MP1-DK2/bootloader/optee-os-custom/lib/libmbedtls/mbedtls/library/bignum.c:2768
    587e:	eb01 0194 	add.w	r1, r1, r4, lsr #2
/home/aom1/Work/Linux/target/STM32MP1-DK2/bootloader/optee-os-custom/lib/libmbedtls/mbedtls/library/bignum.c:2760
    5882:	461f      	mov	r7, r3
/home/aom1/Work/Linux/target/STM32MP1-DK2/bootloader/optee-os-custom/lib/libmbedtls/mbedtls/library/bignum.c:2768
    5884:	f7fe fbdc 	bl	4040 <mbedtls_mpi_resize_clear>
    5888:	b940      	cbnz	r0, 589c <mbedtls_mpi_fill_random+0x30>
/home/aom1/Work/Linux/target/STM32MP1-DK2/bootloader/optee-os-custom/lib/libmbedtls/mbedtls/library/bignum.c:2769
    588a:	b13c      	cbz	r4, 589c <mbedtls_mpi_fill_random+0x30>
/home/aom1/Work/Linux/target/STM32MP1-DK2/bootloader/optee-os-custom/lib/libmbedtls/mbedtls/library/bignum.c:2772
    588c:	463b      	mov	r3, r7
    588e:	4632      	mov	r2, r6
    5890:	4621      	mov	r1, r4
    5892:	4628      	mov	r0, r5
/home/aom1/Work/Linux/target/STM32MP1-DK2/bootloader/optee-os-custom/lib/libmbedtls/mbedtls/library/bignum.c:2776
    5894:	e8bd 41f0 	ldmia.w	sp!, {r4, r5, r6, r7, r8, lr}
/home/aom1/Work/Linux/target/STM32MP1-DK2/bootloader/optee-os-custom/lib/libmbedtls/mbedtls/library/bignum.c:2772
    5898:	f7fe bb18 	b.w	3ecc <mpi_fill_random_internal>
/home/aom1/Work/Linux/target/STM32MP1-DK2/bootloader/optee-os-custom/lib/libmbedtls/mbedtls/library/bignum.c:2776
    589c:	e8bd 81f0 	ldmia.w	sp!, {r4, r5, r6, r7, r8, pc}

000058a0 <mpi_miller_rabin>:
mpi_miller_rabin():
/home/aom1/Work/Linux/target/STM32MP1-DK2/bootloader/optee-os-custom/lib/libmbedtls/mbedtls/library/bignum.c:3019
    58a0:	e92d 4ff0 	stmdb	sp!, {r4, r5, r6, r7, r8, r9, sl, fp, lr}
    58a4:	b097      	sub	sp, #92	; 0x5c
/home/aom1/Work/Linux/target/STM32MP1-DK2/bootloader/optee-os-custom/lib/libmbedtls/mbedtls/library/bignum.c:3027
    58a6:	ae07      	add	r6, sp, #28
/home/aom1/Work/Linux/target/STM32MP1-DK2/bootloader/optee-os-custom/lib/libmbedtls/mbedtls/library/bignum.c:3019
    58a8:	4607      	mov	r7, r0
    58aa:	9102      	str	r1, [sp, #8]
/home/aom1/Work/Linux/target/STM32MP1-DK2/bootloader/optee-os-custom/lib/libmbedtls/mbedtls/library/bignum.c:3027
    58ac:	4630      	mov	r0, r6
/home/aom1/Work/Linux/target/STM32MP1-DK2/bootloader/optee-os-custom/lib/libmbedtls/mbedtls/library/bignum.c:3019
    58ae:	9203      	str	r2, [sp, #12]
/home/aom1/Work/Linux/target/STM32MP1-DK2/bootloader/optee-os-custom/lib/libmbedtls/mbedtls/library/bignum.c:3027
    58b0:	f10d 0928 	add.w	r9, sp, #40	; 0x28
/home/aom1/Work/Linux/target/STM32MP1-DK2/bootloader/optee-os-custom/lib/libmbedtls/mbedtls/library/bignum.c:3019
    58b4:	9304      	str	r3, [sp, #16]
/home/aom1/Work/Linux/target/STM32MP1-DK2/bootloader/optee-os-custom/lib/libmbedtls/mbedtls/library/bignum.c:3027
    58b6:	f7fe fb41 	bl	3f3c <mbedtls_mpi_init_mempool>
    58ba:	4648      	mov	r0, r9
/home/aom1/Work/Linux/target/STM32MP1-DK2/bootloader/optee-os-custom/lib/libmbedtls/mbedtls/library/bignum.c:3028
    58bc:	ad10      	add	r5, sp, #64	; 0x40
/home/aom1/Work/Linux/target/STM32MP1-DK2/bootloader/optee-os-custom/lib/libmbedtls/mbedtls/library/bignum.c:3027
    58be:	f7fe fb3d 	bl	3f3c <mbedtls_mpi_init_mempool>
/home/aom1/Work/Linux/target/STM32MP1-DK2/bootloader/optee-os-custom/lib/libmbedtls/mbedtls/library/bignum.c:3028
    58c2:	a80d      	add	r0, sp, #52	; 0x34
    58c4:	f7fe fb3a 	bl	3f3c <mbedtls_mpi_init_mempool>
    58c8:	4628      	mov	r0, r5
    58ca:	f7fe fb37 	bl	3f3c <mbedtls_mpi_init_mempool>
/home/aom1/Work/Linux/target/STM32MP1-DK2/bootloader/optee-os-custom/lib/libmbedtls/mbedtls/library/bignum.c:3029
    58ce:	a813      	add	r0, sp, #76	; 0x4c
    58d0:	f7fe fb34 	bl	3f3c <mbedtls_mpi_init_mempool>
/home/aom1/Work/Linux/target/STM32MP1-DK2/bootloader/optee-os-custom/lib/libmbedtls/mbedtls/library/bignum.c:3035
    58d4:	2201      	movs	r2, #1
    58d6:	4639      	mov	r1, r7
    58d8:	4630      	mov	r0, r6
    58da:	f7ff f8bb 	bl	4a54 <mbedtls_mpi_sub_int>
    58de:	4604      	mov	r4, r0
    58e0:	2800      	cmp	r0, #0
    58e2:	d142      	bne.n	596a <mpi_miller_rabin+0xca>
/home/aom1/Work/Linux/target/STM32MP1-DK2/bootloader/optee-os-custom/lib/libmbedtls/mbedtls/library/bignum.c:3036 (discriminator 2)
    58e4:	4630      	mov	r0, r6
    58e6:	f7fe fd3b 	bl	4360 <mbedtls_mpi_lsb>
    58ea:	4680      	mov	r8, r0
/home/aom1/Work/Linux/target/STM32MP1-DK2/bootloader/optee-os-custom/lib/libmbedtls/mbedtls/library/bignum.c:3037 (discriminator 2)
    58ec:	4631      	mov	r1, r6
    58ee:	4648      	mov	r0, r9
    58f0:	f7fe fc1c 	bl	412c <mbedtls_mpi_copy>
    58f4:	4604      	mov	r4, r0
    58f6:	2800      	cmp	r0, #0
    58f8:	d137      	bne.n	596a <mpi_miller_rabin+0xca>
/home/aom1/Work/Linux/target/STM32MP1-DK2/bootloader/optee-os-custom/lib/libmbedtls/mbedtls/library/bignum.c:3038 (discriminator 2)
    58fa:	4641      	mov	r1, r8
    58fc:	4648      	mov	r0, r9
    58fe:	f7fe fe69 	bl	45d4 <mbedtls_mpi_shift_r>
    5902:	4604      	mov	r4, r0
    5904:	bb88      	cbnz	r0, 596a <mpi_miller_rabin+0xca>
/home/aom1/Work/Linux/target/STM32MP1-DK2/bootloader/optee-os-custom/lib/libmbedtls/mbedtls/library/bignum.c:3040
    5906:	4681      	mov	r9, r0
/home/aom1/Work/Linux/target/STM32MP1-DK2/bootloader/optee-os-custom/lib/libmbedtls/mbedtls/library/bignum.c:3040 (discriminator 1)
    5908:	9b02      	ldr	r3, [sp, #8]
    590a:	4599      	cmp	r9, r3
    590c:	d02d      	beq.n	596a <mpi_miller_rabin+0xca>
    590e:	f44f 7a97 	mov.w	sl, #302	; 0x12e
/home/aom1/Work/Linux/target/STM32MP1-DK2/bootloader/optee-os-custom/lib/libmbedtls/mbedtls/library/bignum.c:3052
    5912:	f04f 3bff 	mov.w	fp, #4294967295	; 0xffffffff
/home/aom1/Work/Linux/target/STM32MP1-DK2/bootloader/optee-os-custom/lib/libmbedtls/mbedtls/library/bignum.c:3047
    5916:	6879      	ldr	r1, [r7, #4]
    5918:	4628      	mov	r0, r5
    591a:	9b04      	ldr	r3, [sp, #16]
    591c:	9a03      	ldr	r2, [sp, #12]
    591e:	0089      	lsls	r1, r1, #2
    5920:	f7ff ffa4 	bl	586c <mbedtls_mpi_fill_random>
    5924:	2800      	cmp	r0, #0
    5926:	f040 8082 	bne.w	5a2e <mpi_miller_rabin+0x18e>
/home/aom1/Work/Linux/target/STM32MP1-DK2/bootloader/optee-os-custom/lib/libmbedtls/mbedtls/library/bignum.c:3049 (discriminator 2)
    592a:	4628      	mov	r0, r5
    592c:	f7fe fd32 	bl	4394 <mbedtls_mpi_bitlen>
    5930:	9005      	str	r0, [sp, #20]
/home/aom1/Work/Linux/target/STM32MP1-DK2/bootloader/optee-os-custom/lib/libmbedtls/mbedtls/library/bignum.c:3050 (discriminator 2)
    5932:	4630      	mov	r0, r6
    5934:	f7fe fd2e 	bl	4394 <mbedtls_mpi_bitlen>
/home/aom1/Work/Linux/target/STM32MP1-DK2/bootloader/optee-os-custom/lib/libmbedtls/mbedtls/library/bignum.c:3051 (discriminator 2)
    5938:	9b05      	ldr	r3, [sp, #20]
    593a:	4283      	cmp	r3, r0
    593c:	d910      	bls.n	5960 <mpi_miller_rabin+0xc0>
/home/aom1/Work/Linux/target/STM32MP1-DK2/bootloader/optee-os-custom/lib/libmbedtls/mbedtls/library/bignum.c:3052
    593e:	9911      	ldr	r1, [sp, #68]	; 0x44
    5940:	9b12      	ldr	r3, [sp, #72]	; 0x48
    5942:	f101 4280 	add.w	r2, r1, #1073741824	; 0x40000000
    5946:	3901      	subs	r1, #1
    5948:	3a01      	subs	r2, #1
    594a:	eba0 1041 	sub.w	r0, r0, r1, lsl #5
    594e:	f853 1022 	ldr.w	r1, [r3, r2, lsl #2]
    5952:	3801      	subs	r0, #1
    5954:	fa0b f000 	lsl.w	r0, fp, r0
    5958:	ea21 0100 	bic.w	r1, r1, r0
    595c:	f843 1022 	str.w	r1, [r3, r2, lsl #2]
/home/aom1/Work/Linux/target/STM32MP1-DK2/bootloader/optee-os-custom/lib/libmbedtls/mbedtls/library/bignum.c:3055
    5960:	f1ba 0a01 	subs.w	sl, sl, #1
    5964:	d114      	bne.n	5990 <mpi_miller_rabin+0xf0>
/home/aom1/Work/Linux/target/STM32MP1-DK2/bootloader/optee-os-custom/lib/libmbedtls/mbedtls/library/bignum.c:3056
    5966:	f06f 040d 	mvn.w	r4, #13
/home/aom1/Work/Linux/target/STM32MP1-DK2/bootloader/optee-os-custom/lib/libmbedtls/mbedtls/library/bignum.c:3099
    596a:	4630      	mov	r0, r6
    596c:	f7fe fafa 	bl	3f64 <mbedtls_mpi_free>
    5970:	a80a      	add	r0, sp, #40	; 0x28
    5972:	f7fe faf7 	bl	3f64 <mbedtls_mpi_free>
/home/aom1/Work/Linux/target/STM32MP1-DK2/bootloader/optee-os-custom/lib/libmbedtls/mbedtls/library/bignum.c:3100
    5976:	a80d      	add	r0, sp, #52	; 0x34
    5978:	f7fe faf4 	bl	3f64 <mbedtls_mpi_free>
    597c:	a810      	add	r0, sp, #64	; 0x40
    597e:	f7fe faf1 	bl	3f64 <mbedtls_mpi_free>
/home/aom1/Work/Linux/target/STM32MP1-DK2/bootloader/optee-os-custom/lib/libmbedtls/mbedtls/library/bignum.c:3101
    5982:	a813      	add	r0, sp, #76	; 0x4c
    5984:	f7fe faee 	bl	3f64 <mbedtls_mpi_free>
/home/aom1/Work/Linux/target/STM32MP1-DK2/bootloader/optee-os-custom/lib/libmbedtls/mbedtls/library/bignum.c:3104
    5988:	4620      	mov	r0, r4
    598a:	b017      	add	sp, #92	; 0x5c
    598c:	e8bd 8ff0 	ldmia.w	sp!, {r4, r5, r6, r7, r8, r9, sl, fp, pc}
/home/aom1/Work/Linux/target/STM32MP1-DK2/bootloader/optee-os-custom/lib/libmbedtls/mbedtls/library/bignum.c:3060
    5990:	4631      	mov	r1, r6
    5992:	4628      	mov	r0, r5
    5994:	f7fe fe8b 	bl	46ae <mbedtls_mpi_cmp_mpi>
    5998:	2800      	cmp	r0, #0
    599a:	dabc      	bge.n	5916 <mpi_miller_rabin+0x76>
/home/aom1/Work/Linux/target/STM32MP1-DK2/bootloader/optee-os-custom/lib/libmbedtls/mbedtls/library/bignum.c:3061 (discriminator 1)
    599c:	2101      	movs	r1, #1
    599e:	4628      	mov	r0, r5
    59a0:	f7fe ff19 	bl	47d6 <mbedtls_mpi_cmp_int>
/home/aom1/Work/Linux/target/STM32MP1-DK2/bootloader/optee-os-custom/lib/libmbedtls/mbedtls/library/bignum.c:3060 (discriminator 1)
    59a4:	2800      	cmp	r0, #0
    59a6:	ddb6      	ble.n	5916 <mpi_miller_rabin+0x76>
/home/aom1/Work/Linux/target/STM32MP1-DK2/bootloader/optee-os-custom/lib/libmbedtls/mbedtls/library/bignum.c:3066
    59a8:	ab13      	add	r3, sp, #76	; 0x4c
    59aa:	aa0a      	add	r2, sp, #40	; 0x28
    59ac:	9300      	str	r3, [sp, #0]
    59ae:	4629      	mov	r1, r5
    59b0:	463b      	mov	r3, r7
    59b2:	4628      	mov	r0, r5
    59b4:	f7ff fca7 	bl	5306 <mbedtls_mpi_exp_mod>
    59b8:	bbc8      	cbnz	r0, 5a2e <mpi_miller_rabin+0x18e>
/home/aom1/Work/Linux/target/STM32MP1-DK2/bootloader/optee-os-custom/lib/libmbedtls/mbedtls/library/bignum.c:3068 (discriminator 2)
    59ba:	4631      	mov	r1, r6
    59bc:	4628      	mov	r0, r5
    59be:	f7fe fe76 	bl	46ae <mbedtls_mpi_cmp_mpi>
    59c2:	b910      	cbnz	r0, 59ca <mpi_miller_rabin+0x12a>
/home/aom1/Work/Linux/target/STM32MP1-DK2/bootloader/optee-os-custom/lib/libmbedtls/mbedtls/library/bignum.c:3040
    59c4:	f109 0901 	add.w	r9, r9, #1
    59c8:	e79e      	b.n	5908 <mpi_miller_rabin+0x68>
/home/aom1/Work/Linux/target/STM32MP1-DK2/bootloader/optee-os-custom/lib/libmbedtls/mbedtls/library/bignum.c:3069 (discriminator 2)
    59ca:	2101      	movs	r1, #1
    59cc:	4628      	mov	r0, r5
    59ce:	f7fe ff02 	bl	47d6 <mbedtls_mpi_cmp_int>
/home/aom1/Work/Linux/target/STM32MP1-DK2/bootloader/optee-os-custom/lib/libmbedtls/mbedtls/library/bignum.c:3068 (discriminator 2)
    59d2:	2800      	cmp	r0, #0
    59d4:	d0f6      	beq.n	59c4 <mpi_miller_rabin+0x124>
/home/aom1/Work/Linux/target/STM32MP1-DK2/bootloader/optee-os-custom/lib/libmbedtls/mbedtls/library/bignum.c:3072
    59d6:	f04f 0a01 	mov.w	sl, #1
/home/aom1/Work/Linux/target/STM32MP1-DK2/bootloader/optee-os-custom/lib/libmbedtls/mbedtls/library/bignum.c:3078
    59da:	f10d 0b34 	add.w	fp, sp, #52	; 0x34
/home/aom1/Work/Linux/target/STM32MP1-DK2/bootloader/optee-os-custom/lib/libmbedtls/mbedtls/library/bignum.c:3073
    59de:	45c2      	cmp	sl, r8
    59e0:	d215      	bcs.n	5a0e <mpi_miller_rabin+0x16e>
/home/aom1/Work/Linux/target/STM32MP1-DK2/bootloader/optee-os-custom/lib/libmbedtls/mbedtls/library/bignum.c:3073 (discriminator 1)
    59e2:	4631      	mov	r1, r6
    59e4:	4628      	mov	r0, r5
    59e6:	f7fe fe62 	bl	46ae <mbedtls_mpi_cmp_mpi>
    59ea:	b180      	cbz	r0, 5a0e <mpi_miller_rabin+0x16e>
/home/aom1/Work/Linux/target/STM32MP1-DK2/bootloader/optee-os-custom/lib/libmbedtls/mbedtls/library/bignum.c:3078
    59ec:	462a      	mov	r2, r5
    59ee:	4629      	mov	r1, r5
    59f0:	4658      	mov	r0, fp
    59f2:	f7ff f846 	bl	4a82 <mbedtls_mpi_mul_mpi>
    59f6:	b9d0      	cbnz	r0, 5a2e <mpi_miller_rabin+0x18e>
/home/aom1/Work/Linux/target/STM32MP1-DK2/bootloader/optee-os-custom/lib/libmbedtls/mbedtls/library/bignum.c:3079 (discriminator 2)
    59f8:	463a      	mov	r2, r7
    59fa:	4659      	mov	r1, fp
    59fc:	4628      	mov	r0, r5
    59fe:	f7ff fb38 	bl	5072 <mbedtls_mpi_mod_mpi>
    5a02:	b9a0      	cbnz	r0, 5a2e <mpi_miller_rabin+0x18e>
/home/aom1/Work/Linux/target/STM32MP1-DK2/bootloader/optee-os-custom/lib/libmbedtls/mbedtls/library/bignum.c:3081 (discriminator 2)
    5a04:	2101      	movs	r1, #1
    5a06:	4628      	mov	r0, r5
    5a08:	f7fe fee5 	bl	47d6 <mbedtls_mpi_cmp_int>
    5a0c:	b960      	cbnz	r0, 5a28 <mpi_miller_rabin+0x188>
/home/aom1/Work/Linux/target/STM32MP1-DK2/bootloader/optee-os-custom/lib/libmbedtls/mbedtls/library/bignum.c:3090
    5a0e:	4631      	mov	r1, r6
    5a10:	4628      	mov	r0, r5
    5a12:	f7fe fe4c 	bl	46ae <mbedtls_mpi_cmp_mpi>
    5a16:	2800      	cmp	r0, #0
    5a18:	d1a5      	bne.n	5966 <mpi_miller_rabin+0xc6>
/home/aom1/Work/Linux/target/STM32MP1-DK2/bootloader/optee-os-custom/lib/libmbedtls/mbedtls/library/bignum.c:3091 (discriminator 1)
    5a1a:	2101      	movs	r1, #1
    5a1c:	4628      	mov	r0, r5
    5a1e:	f7fe feda 	bl	47d6 <mbedtls_mpi_cmp_int>
/home/aom1/Work/Linux/target/STM32MP1-DK2/bootloader/optee-os-custom/lib/libmbedtls/mbedtls/library/bignum.c:3090 (discriminator 1)
    5a22:	2800      	cmp	r0, #0
    5a24:	d1ce      	bne.n	59c4 <mpi_miller_rabin+0x124>
    5a26:	e79e      	b.n	5966 <mpi_miller_rabin+0xc6>
/home/aom1/Work/Linux/target/STM32MP1-DK2/bootloader/optee-os-custom/lib/libmbedtls/mbedtls/library/bignum.c:3084
    5a28:	f10a 0a01 	add.w	sl, sl, #1
    5a2c:	e7d7      	b.n	59de <mpi_miller_rabin+0x13e>
    5a2e:	4604      	mov	r4, r0
    5a30:	e79b      	b.n	596a <mpi_miller_rabin+0xca>

00005a32 <mbedtls_mpi_random>:
mbedtls_mpi_random():
/home/aom1/Work/Linux/target/STM32MP1-DK2/bootloader/optee-os-custom/lib/libmbedtls/mbedtls/library/bignum.c:2783
    5a32:	e92d 4ff0 	stmdb	sp!, {r4, r5, r6, r7, r8, r9, sl, fp, lr}
    5a36:	b089      	sub	sp, #36	; 0x24
    5a38:	4699      	mov	r9, r3
/home/aom1/Work/Linux/target/STM32MP1-DK2/bootloader/optee-os-custom/lib/libmbedtls/mbedtls/library/bignum.c:2786
    5a3a:	2301      	movs	r3, #1
    5a3c:	9303      	str	r3, [sp, #12]
/home/aom1/Work/Linux/target/STM32MP1-DK2/bootloader/optee-os-custom/lib/libmbedtls/mbedtls/library/bignum.c:2783
    5a3e:	468a      	mov	sl, r1
/home/aom1/Work/Linux/target/STM32MP1-DK2/bootloader/optee-os-custom/lib/libmbedtls/mbedtls/library/bignum.c:2786
    5a40:	2300      	movs	r3, #0
/home/aom1/Work/Linux/target/STM32MP1-DK2/bootloader/optee-os-custom/lib/libmbedtls/mbedtls/library/bignum.c:2783
    5a42:	4604      	mov	r4, r0
/home/aom1/Work/Linux/target/STM32MP1-DK2/bootloader/optee-os-custom/lib/libmbedtls/mbedtls/library/bignum.c:2786
    5a44:	9304      	str	r3, [sp, #16]
/home/aom1/Work/Linux/target/STM32MP1-DK2/bootloader/optee-os-custom/lib/libmbedtls/mbedtls/library/bignum.c:2787
    5a46:	4610      	mov	r0, r2
/home/aom1/Work/Linux/target/STM32MP1-DK2/bootloader/optee-os-custom/lib/libmbedtls/mbedtls/library/bignum.c:2783
    5a48:	4615      	mov	r5, r2
/home/aom1/Work/Linux/target/STM32MP1-DK2/bootloader/optee-os-custom/lib/libmbedtls/mbedtls/library/bignum.c:2787
    5a4a:	f7fe fca3 	bl	4394 <mbedtls_mpi_bitlen>
/home/aom1/Work/Linux/target/STM32MP1-DK2/bootloader/optee-os-custom/lib/libmbedtls/mbedtls/library/bignum.c:2791
    5a4e:	f1ba 0f00 	cmp.w	sl, #0
/home/aom1/Work/Linux/target/STM32MP1-DK2/bootloader/optee-os-custom/lib/libmbedtls/mbedtls/library/bignum.c:2787
    5a52:	4683      	mov	fp, r0
/home/aom1/Work/Linux/target/STM32MP1-DK2/bootloader/optee-os-custom/lib/libmbedtls/mbedtls/library/bignum.c:2788
    5a54:	f100 0607 	add.w	r6, r0, #7
/home/aom1/Work/Linux/target/STM32MP1-DK2/bootloader/optee-os-custom/lib/libmbedtls/mbedtls/library/bignum.c:2791
    5a58:	da05      	bge.n	5a66 <mbedtls_mpi_random+0x34>
/home/aom1/Work/Linux/target/STM32MP1-DK2/bootloader/optee-os-custom/lib/libmbedtls/mbedtls/library/bignum.c:2792
    5a5a:	f06f 0303 	mvn.w	r3, #3
/home/aom1/Work/Linux/target/STM32MP1-DK2/bootloader/optee-os-custom/lib/libmbedtls/mbedtls/library/bignum.c:2851
    5a5e:	4618      	mov	r0, r3
    5a60:	b009      	add	sp, #36	; 0x24
    5a62:	e8bd 8ff0 	ldmia.w	sp!, {r4, r5, r6, r7, r8, r9, sl, fp, pc}
/home/aom1/Work/Linux/target/STM32MP1-DK2/bootloader/optee-os-custom/lib/libmbedtls/mbedtls/library/bignum.c:2793
    5a66:	4651      	mov	r1, sl
    5a68:	4628      	mov	r0, r5
    5a6a:	f7fe feb4 	bl	47d6 <mbedtls_mpi_cmp_int>
    5a6e:	2800      	cmp	r0, #0
    5a70:	ddf3      	ble.n	5a5a <mbedtls_mpi_random+0x28>
/home/aom1/Work/Linux/target/STM32MP1-DK2/bootloader/optee-os-custom/lib/libmbedtls/mbedtls/library/bignum.c:2815
    5a72:	af05      	add	r7, sp, #20
/home/aom1/Work/Linux/target/STM32MP1-DK2/bootloader/optee-os-custom/lib/libmbedtls/mbedtls/library/bignum.c:2813
    5a74:	2e27      	cmp	r6, #39	; 0x27
/home/aom1/Work/Linux/target/STM32MP1-DK2/bootloader/optee-os-custom/lib/libmbedtls/mbedtls/library/bignum.c:2815
    5a76:	4638      	mov	r0, r7
/home/aom1/Work/Linux/target/STM32MP1-DK2/bootloader/optee-os-custom/lib/libmbedtls/mbedtls/library/bignum.c:2813
    5a78:	bf8c      	ite	hi
    5a7a:	f04f 081e 	movhi.w	r8, #30
    5a7e:	f04f 08fa 	movls.w	r8, #250	; 0xfa
/home/aom1/Work/Linux/target/STM32MP1-DK2/bootloader/optee-os-custom/lib/libmbedtls/mbedtls/library/bignum.c:2815
    5a82:	f7fe fa55 	bl	3f30 <mbedtls_mpi_init>
/home/aom1/Work/Linux/target/STM32MP1-DK2/bootloader/optee-os-custom/lib/libmbedtls/mbedtls/library/bignum.c:2820
    5a86:	6869      	ldr	r1, [r5, #4]
    5a88:	4620      	mov	r0, r4
    5a8a:	f7fe fad9 	bl	4040 <mbedtls_mpi_resize_clear>
    5a8e:	4603      	mov	r3, r0
    5a90:	2800      	cmp	r0, #0
    5a92:	d138      	bne.n	5b06 <mbedtls_mpi_random+0xd4>
/home/aom1/Work/Linux/target/STM32MP1-DK2/bootloader/optee-os-custom/lib/libmbedtls/mbedtls/library/bignum.c:2821 (discriminator 2)
    5a94:	6869      	ldr	r1, [r5, #4]
    5a96:	4638      	mov	r0, r7
    5a98:	f7fe fa86 	bl	3fa8 <mbedtls_mpi_grow>
    5a9c:	4603      	mov	r3, r0
    5a9e:	bb90      	cbnz	r0, 5b06 <mbedtls_mpi_random+0xd4>
/home/aom1/Work/Linux/target/STM32MP1-DK2/bootloader/optee-os-custom/lib/libmbedtls/mbedtls/library/bignum.c:2822 (discriminator 2)
    5aa0:	4651      	mov	r1, sl
    5aa2:	4638      	mov	r0, r7
    5aa4:	f7fe fc08 	bl	42b8 <mbedtls_mpi_lset>
    5aa8:	4603      	mov	r3, r0
    5aaa:	bb60      	cbnz	r0, 5b06 <mbedtls_mpi_random+0xd4>
/home/aom1/Work/Linux/target/STM32MP1-DK2/bootloader/optee-os-custom/lib/libmbedtls/mbedtls/library/bignum.c:2788
    5aac:	ea4f 0ad6 	mov.w	sl, r6, lsr #3
/home/aom1/Work/Linux/target/STM32MP1-DK2/bootloader/optee-os-custom/lib/libmbedtls/mbedtls/library/bignum.c:2835
    5ab0:	f026 0607 	bic.w	r6, r6, #7
    5ab4:	eba6 060b 	sub.w	r6, r6, fp
/home/aom1/Work/Linux/target/STM32MP1-DK2/bootloader/optee-os-custom/lib/libmbedtls/mbedtls/library/bignum.c:2843
    5ab8:	f10d 0b0c 	add.w	fp, sp, #12
/home/aom1/Work/Linux/target/STM32MP1-DK2/bootloader/optee-os-custom/lib/libmbedtls/mbedtls/library/bignum.c:2834 (discriminator 2)
    5abc:	9b12      	ldr	r3, [sp, #72]	; 0x48
    5abe:	464a      	mov	r2, r9
    5ac0:	4651      	mov	r1, sl
    5ac2:	4620      	mov	r0, r4
    5ac4:	f7fe fa02 	bl	3ecc <mpi_fill_random_internal>
    5ac8:	4603      	mov	r3, r0
    5aca:	b9e0      	cbnz	r0, 5b06 <mbedtls_mpi_random+0xd4>
/home/aom1/Work/Linux/target/STM32MP1-DK2/bootloader/optee-os-custom/lib/libmbedtls/mbedtls/library/bignum.c:2835 (discriminator 2)
    5acc:	4631      	mov	r1, r6
    5ace:	4620      	mov	r0, r4
    5ad0:	f7fe fd80 	bl	45d4 <mbedtls_mpi_shift_r>
    5ad4:	4603      	mov	r3, r0
    5ad6:	b9b0      	cbnz	r0, 5b06 <mbedtls_mpi_random+0xd4>
/home/aom1/Work/Linux/target/STM32MP1-DK2/bootloader/optee-os-custom/lib/libmbedtls/mbedtls/library/bignum.c:2837 (discriminator 2)
    5ad8:	f1b8 0801 	subs.w	r8, r8, #1
    5adc:	d019      	beq.n	5b12 <mbedtls_mpi_random+0xe0>
/home/aom1/Work/Linux/target/STM32MP1-DK2/bootloader/optee-os-custom/lib/libmbedtls/mbedtls/library/bignum.c:2843
    5ade:	465a      	mov	r2, fp
    5ae0:	4639      	mov	r1, r7
    5ae2:	4620      	mov	r0, r4
    5ae4:	f7fe fe26 	bl	4734 <mbedtls_mpi_lt_mpi_ct>
    5ae8:	4603      	mov	r3, r0
    5aea:	b960      	cbnz	r0, 5b06 <mbedtls_mpi_random+0xd4>
/home/aom1/Work/Linux/target/STM32MP1-DK2/bootloader/optee-os-custom/lib/libmbedtls/mbedtls/library/bignum.c:2844 (discriminator 2)
    5aec:	aa04      	add	r2, sp, #16
    5aee:	4629      	mov	r1, r5
    5af0:	4620      	mov	r0, r4
    5af2:	f7fe fe1f 	bl	4734 <mbedtls_mpi_lt_mpi_ct>
    5af6:	4603      	mov	r3, r0
    5af8:	b928      	cbnz	r0, 5b06 <mbedtls_mpi_random+0xd4>
/home/aom1/Work/Linux/target/STM32MP1-DK2/bootloader/optee-os-custom/lib/libmbedtls/mbedtls/library/bignum.c:2846 (discriminator 2)
    5afa:	9a03      	ldr	r2, [sp, #12]
    5afc:	2a00      	cmp	r2, #0
    5afe:	d1dd      	bne.n	5abc <mbedtls_mpi_random+0x8a>
/home/aom1/Work/Linux/target/STM32MP1-DK2/bootloader/optee-os-custom/lib/libmbedtls/mbedtls/library/bignum.c:2846 (discriminator 1)
    5b00:	9a04      	ldr	r2, [sp, #16]
    5b02:	2a00      	cmp	r2, #0
    5b04:	d0da      	beq.n	5abc <mbedtls_mpi_random+0x8a>
    5b06:	9301      	str	r3, [sp, #4]
/home/aom1/Work/Linux/target/STM32MP1-DK2/bootloader/optee-os-custom/lib/libmbedtls/mbedtls/library/bignum.c:2849
    5b08:	4638      	mov	r0, r7
    5b0a:	f7fe fa2b 	bl	3f64 <mbedtls_mpi_free>
    5b0e:	9b01      	ldr	r3, [sp, #4]
/home/aom1/Work/Linux/target/STM32MP1-DK2/bootloader/optee-os-custom/lib/libmbedtls/mbedtls/library/bignum.c:2850
    5b10:	e7a5      	b.n	5a5e <mbedtls_mpi_random+0x2c>
/home/aom1/Work/Linux/target/STM32MP1-DK2/bootloader/optee-os-custom/lib/libmbedtls/mbedtls/library/bignum.c:2839
    5b12:	f06f 030d 	mvn.w	r3, #13
    5b16:	e7f6      	b.n	5b06 <mbedtls_mpi_random+0xd4>

00005b18 <mbedtls_mpi_inv_mod>:
mbedtls_mpi_inv_mod():
/home/aom1/Work/Linux/target/STM32MP1-DK2/bootloader/optee-os-custom/lib/libmbedtls/mbedtls/library/bignum.c:2857
    5b18:	e92d 4ff0 	stmdb	sp!, {r4, r5, r6, r7, r8, r9, sl, fp, lr}
    5b1c:	b0a3      	sub	sp, #140	; 0x8c
    5b1e:	460e      	mov	r6, r1
/home/aom1/Work/Linux/target/STM32MP1-DK2/bootloader/optee-os-custom/lib/libmbedtls/mbedtls/library/bignum.c:2864
    5b20:	2101      	movs	r1, #1
/home/aom1/Work/Linux/target/STM32MP1-DK2/bootloader/optee-os-custom/lib/libmbedtls/mbedtls/library/bignum.c:2857
    5b22:	9005      	str	r0, [sp, #20]
/home/aom1/Work/Linux/target/STM32MP1-DK2/bootloader/optee-os-custom/lib/libmbedtls/mbedtls/library/bignum.c:2864
    5b24:	4610      	mov	r0, r2
/home/aom1/Work/Linux/target/STM32MP1-DK2/bootloader/optee-os-custom/lib/libmbedtls/mbedtls/library/bignum.c:2857
    5b26:	4614      	mov	r4, r2
/home/aom1/Work/Linux/target/STM32MP1-DK2/bootloader/optee-os-custom/lib/libmbedtls/mbedtls/library/bignum.c:2864
    5b28:	f7fe fe55 	bl	47d6 <mbedtls_mpi_cmp_int>
    5b2c:	2800      	cmp	r0, #0
    5b2e:	f340 8163 	ble.w	5df8 <mbedtls_mpi_inv_mod+0x2e0>
/home/aom1/Work/Linux/target/STM32MP1-DK2/bootloader/optee-os-custom/lib/libmbedtls/mbedtls/library/bignum.c:2867
    5b32:	af0a      	add	r7, sp, #40	; 0x28
    5b34:	ad0d      	add	r5, sp, #52	; 0x34
    5b36:	4638      	mov	r0, r7
/home/aom1/Work/Linux/target/STM32MP1-DK2/bootloader/optee-os-custom/lib/libmbedtls/mbedtls/library/bignum.c:2868
    5b38:	f10d 0b40 	add.w	fp, sp, #64	; 0x40
    5b3c:	f10d 0a4c 	add.w	sl, sp, #76	; 0x4c
/home/aom1/Work/Linux/target/STM32MP1-DK2/bootloader/optee-os-custom/lib/libmbedtls/mbedtls/library/bignum.c:2867
    5b40:	f7fe f9fc 	bl	3f3c <mbedtls_mpi_init_mempool>
    5b44:	4628      	mov	r0, r5
/home/aom1/Work/Linux/target/STM32MP1-DK2/bootloader/optee-os-custom/lib/libmbedtls/mbedtls/library/bignum.c:2869
    5b46:	f10d 091c 	add.w	r9, sp, #28
/home/aom1/Work/Linux/target/STM32MP1-DK2/bootloader/optee-os-custom/lib/libmbedtls/mbedtls/library/bignum.c:2867
    5b4a:	f7fe f9f7 	bl	3f3c <mbedtls_mpi_init_mempool>
/home/aom1/Work/Linux/target/STM32MP1-DK2/bootloader/optee-os-custom/lib/libmbedtls/mbedtls/library/bignum.c:2868
    5b4e:	4658      	mov	r0, fp
    5b50:	f7fe f9f4 	bl	3f3c <mbedtls_mpi_init_mempool>
    5b54:	4650      	mov	r0, sl
    5b56:	f7fe f9f1 	bl	3f3c <mbedtls_mpi_init_mempool>
/home/aom1/Work/Linux/target/STM32MP1-DK2/bootloader/optee-os-custom/lib/libmbedtls/mbedtls/library/bignum.c:2869
    5b5a:	4648      	mov	r0, r9
    5b5c:	f7fe f9ee 	bl	3f3c <mbedtls_mpi_init_mempool>
    5b60:	ab16      	add	r3, sp, #88	; 0x58
    5b62:	9301      	str	r3, [sp, #4]
    5b64:	4618      	mov	r0, r3
    5b66:	f7fe f9e9 	bl	3f3c <mbedtls_mpi_init_mempool>
/home/aom1/Work/Linux/target/STM32MP1-DK2/bootloader/optee-os-custom/lib/libmbedtls/mbedtls/library/bignum.c:2870
    5b6a:	ab19      	add	r3, sp, #100	; 0x64
    5b6c:	9302      	str	r3, [sp, #8]
    5b6e:	4618      	mov	r0, r3
    5b70:	f7fe f9e4 	bl	3f3c <mbedtls_mpi_init_mempool>
    5b74:	ab1c      	add	r3, sp, #112	; 0x70
    5b76:	9303      	str	r3, [sp, #12]
    5b78:	4618      	mov	r0, r3
    5b7a:	f7fe f9df 	bl	3f3c <mbedtls_mpi_init_mempool>
/home/aom1/Work/Linux/target/STM32MP1-DK2/bootloader/optee-os-custom/lib/libmbedtls/mbedtls/library/bignum.c:2871
    5b7e:	a81f      	add	r0, sp, #124	; 0x7c
    5b80:	f7fe f9dc 	bl	3f3c <mbedtls_mpi_init_mempool>
/home/aom1/Work/Linux/target/STM32MP1-DK2/bootloader/optee-os-custom/lib/libmbedtls/mbedtls/library/bignum.c:2873
    5b84:	4631      	mov	r1, r6
    5b86:	4622      	mov	r2, r4
    5b88:	4648      	mov	r0, r9
    5b8a:	f7ff fdef 	bl	576c <mbedtls_mpi_gcd>
    5b8e:	4601      	mov	r1, r0
    5b90:	2800      	cmp	r0, #0
    5b92:	f040 809b 	bne.w	5ccc <mbedtls_mpi_inv_mod+0x1b4>
/home/aom1/Work/Linux/target/STM32MP1-DK2/bootloader/optee-os-custom/lib/libmbedtls/mbedtls/library/bignum.c:2875 (discriminator 2)
    5b96:	2101      	movs	r1, #1
    5b98:	4648      	mov	r0, r9
    5b9a:	f7fe fe1c 	bl	47d6 <mbedtls_mpi_cmp_int>
    5b9e:	2800      	cmp	r0, #0
    5ba0:	f040 8127 	bne.w	5df2 <mbedtls_mpi_inv_mod+0x2da>
/home/aom1/Work/Linux/target/STM32MP1-DK2/bootloader/optee-os-custom/lib/libmbedtls/mbedtls/library/bignum.c:2881
    5ba4:	4631      	mov	r1, r6
    5ba6:	4622      	mov	r2, r4
    5ba8:	4638      	mov	r0, r7
    5baa:	f7ff fa62 	bl	5072 <mbedtls_mpi_mod_mpi>
    5bae:	4601      	mov	r1, r0
    5bb0:	2800      	cmp	r0, #0
    5bb2:	f040 808b 	bne.w	5ccc <mbedtls_mpi_inv_mod+0x1b4>
/home/aom1/Work/Linux/target/STM32MP1-DK2/bootloader/optee-os-custom/lib/libmbedtls/mbedtls/library/bignum.c:2882 (discriminator 2)
    5bb6:	4639      	mov	r1, r7
    5bb8:	4628      	mov	r0, r5
    5bba:	f7fe fab7 	bl	412c <mbedtls_mpi_copy>
    5bbe:	4601      	mov	r1, r0
    5bc0:	2800      	cmp	r0, #0
    5bc2:	f040 8083 	bne.w	5ccc <mbedtls_mpi_inv_mod+0x1b4>
/home/aom1/Work/Linux/target/STM32MP1-DK2/bootloader/optee-os-custom/lib/libmbedtls/mbedtls/library/bignum.c:2883 (discriminator 2)
    5bc6:	9801      	ldr	r0, [sp, #4]
    5bc8:	4621      	mov	r1, r4
    5bca:	f7fe faaf 	bl	412c <mbedtls_mpi_copy>
    5bce:	4601      	mov	r1, r0
    5bd0:	2800      	cmp	r0, #0
    5bd2:	d17b      	bne.n	5ccc <mbedtls_mpi_inv_mod+0x1b4>
/home/aom1/Work/Linux/target/STM32MP1-DK2/bootloader/optee-os-custom/lib/libmbedtls/mbedtls/library/bignum.c:2884 (discriminator 2)
    5bd4:	9802      	ldr	r0, [sp, #8]
    5bd6:	4621      	mov	r1, r4
    5bd8:	f7fe faa8 	bl	412c <mbedtls_mpi_copy>
    5bdc:	4601      	mov	r1, r0
    5bde:	2800      	cmp	r0, #0
    5be0:	d174      	bne.n	5ccc <mbedtls_mpi_inv_mod+0x1b4>
/home/aom1/Work/Linux/target/STM32MP1-DK2/bootloader/optee-os-custom/lib/libmbedtls/mbedtls/library/bignum.c:2886 (discriminator 2)
    5be2:	2101      	movs	r1, #1
    5be4:	4658      	mov	r0, fp
    5be6:	f7fe fb67 	bl	42b8 <mbedtls_mpi_lset>
    5bea:	4601      	mov	r1, r0
    5bec:	2800      	cmp	r0, #0
    5bee:	d16d      	bne.n	5ccc <mbedtls_mpi_inv_mod+0x1b4>
/home/aom1/Work/Linux/target/STM32MP1-DK2/bootloader/optee-os-custom/lib/libmbedtls/mbedtls/library/bignum.c:2887 (discriminator 2)
    5bf0:	4650      	mov	r0, sl
    5bf2:	f7fe fb61 	bl	42b8 <mbedtls_mpi_lset>
    5bf6:	4601      	mov	r1, r0
    5bf8:	2800      	cmp	r0, #0
    5bfa:	d167      	bne.n	5ccc <mbedtls_mpi_inv_mod+0x1b4>
/home/aom1/Work/Linux/target/STM32MP1-DK2/bootloader/optee-os-custom/lib/libmbedtls/mbedtls/library/bignum.c:2888 (discriminator 2)
    5bfc:	9803      	ldr	r0, [sp, #12]
    5bfe:	f7fe fb5b 	bl	42b8 <mbedtls_mpi_lset>
    5c02:	4601      	mov	r1, r0
    5c04:	2800      	cmp	r0, #0
    5c06:	d161      	bne.n	5ccc <mbedtls_mpi_inv_mod+0x1b4>
/home/aom1/Work/Linux/target/STM32MP1-DK2/bootloader/optee-os-custom/lib/libmbedtls/mbedtls/library/bignum.c:2889 (discriminator 2)
    5c08:	ae1f      	add	r6, sp, #124	; 0x7c
    5c0a:	2101      	movs	r1, #1
    5c0c:	4630      	mov	r0, r6
    5c0e:	f7fe fb53 	bl	42b8 <mbedtls_mpi_lset>
    5c12:	4601      	mov	r1, r0
    5c14:	2800      	cmp	r0, #0
    5c16:	d159      	bne.n	5ccc <mbedtls_mpi_inv_mod+0x1b4>
    5c18:	f10d 0864 	add.w	r8, sp, #100	; 0x64
/home/aom1/Work/Linux/target/STM32MP1-DK2/bootloader/optee-os-custom/lib/libmbedtls/mbedtls/library/bignum.c:2913
    5c1c:	ab16      	add	r3, sp, #88	; 0x58
    5c1e:	9304      	str	r3, [sp, #16]
/home/aom1/Work/Linux/target/STM32MP1-DK2/bootloader/optee-os-custom/lib/libmbedtls/mbedtls/library/bignum.c:2893 (discriminator 2)
    5c20:	9b0f      	ldr	r3, [sp, #60]	; 0x3c
    5c22:	681b      	ldr	r3, [r3, #0]
    5c24:	07d8      	lsls	r0, r3, #31
    5c26:	d53d      	bpl.n	5ca4 <mbedtls_mpi_inv_mod+0x18c>
/home/aom1/Work/Linux/target/STM32MP1-DK2/bootloader/optee-os-custom/lib/libmbedtls/mbedtls/library/bignum.c:2907 (discriminator 2)
    5c28:	9b1b      	ldr	r3, [sp, #108]	; 0x6c
    5c2a:	681b      	ldr	r3, [r3, #0]
    5c2c:	07db      	lsls	r3, r3, #31
    5c2e:	f140 8088 	bpl.w	5d42 <mbedtls_mpi_inv_mod+0x22a>
/home/aom1/Work/Linux/target/STM32MP1-DK2/bootloader/optee-os-custom/lib/libmbedtls/mbedtls/library/bignum.c:2921
    5c32:	4641      	mov	r1, r8
    5c34:	4628      	mov	r0, r5
    5c36:	f7fe fd3a 	bl	46ae <mbedtls_mpi_cmp_mpi>
    5c3a:	2800      	cmp	r0, #0
    5c3c:	f2c0 80b1 	blt.w	5da2 <mbedtls_mpi_inv_mod+0x28a>
/home/aom1/Work/Linux/target/STM32MP1-DK2/bootloader/optee-os-custom/lib/libmbedtls/mbedtls/library/bignum.c:2923
    5c40:	4629      	mov	r1, r5
    5c42:	4642      	mov	r2, r8
    5c44:	4628      	mov	r0, r5
    5c46:	f7fe fec9 	bl	49dc <mbedtls_mpi_sub_mpi>
    5c4a:	4601      	mov	r1, r0
    5c4c:	2800      	cmp	r0, #0
    5c4e:	d13d      	bne.n	5ccc <mbedtls_mpi_inv_mod+0x1b4>
/home/aom1/Work/Linux/target/STM32MP1-DK2/bootloader/optee-os-custom/lib/libmbedtls/mbedtls/library/bignum.c:2924 (discriminator 2)
    5c50:	a910      	add	r1, sp, #64	; 0x40
    5c52:	aa1c      	add	r2, sp, #112	; 0x70
    5c54:	4608      	mov	r0, r1
    5c56:	f7fe fec1 	bl	49dc <mbedtls_mpi_sub_mpi>
    5c5a:	4601      	mov	r1, r0
    5c5c:	2800      	cmp	r0, #0
    5c5e:	d135      	bne.n	5ccc <mbedtls_mpi_inv_mod+0x1b4>
/home/aom1/Work/Linux/target/STM32MP1-DK2/bootloader/optee-os-custom/lib/libmbedtls/mbedtls/library/bignum.c:2925 (discriminator 2)
    5c60:	a913      	add	r1, sp, #76	; 0x4c
    5c62:	4632      	mov	r2, r6
    5c64:	4608      	mov	r0, r1
    5c66:	f7fe feb9 	bl	49dc <mbedtls_mpi_sub_mpi>
    5c6a:	4601      	mov	r1, r0
    5c6c:	bb70      	cbnz	r0, 5ccc <mbedtls_mpi_inv_mod+0x1b4>
/home/aom1/Work/Linux/target/STM32MP1-DK2/bootloader/optee-os-custom/lib/libmbedtls/mbedtls/library/bignum.c:2934
    5c6e:	2100      	movs	r1, #0
    5c70:	4628      	mov	r0, r5
    5c72:	f7fe fdb0 	bl	47d6 <mbedtls_mpi_cmp_int>
    5c76:	2800      	cmp	r0, #0
    5c78:	d1d2      	bne.n	5c20 <mbedtls_mpi_inv_mod+0x108>
/home/aom1/Work/Linux/target/STM32MP1-DK2/bootloader/optee-os-custom/lib/libmbedtls/mbedtls/library/bignum.c:2936
    5c7a:	ae1c      	add	r6, sp, #112	; 0x70
/home/aom1/Work/Linux/target/STM32MP1-DK2/bootloader/optee-os-custom/lib/libmbedtls/mbedtls/library/bignum.c:2936 (discriminator 2)
    5c7c:	2100      	movs	r1, #0
    5c7e:	4630      	mov	r0, r6
    5c80:	f7fe fda9 	bl	47d6 <mbedtls_mpi_cmp_int>
    5c84:	2800      	cmp	r0, #0
    5c86:	f2c0 80a0 	blt.w	5dca <mbedtls_mpi_inv_mod+0x2b2>
/home/aom1/Work/Linux/target/STM32MP1-DK2/bootloader/optee-os-custom/lib/libmbedtls/mbedtls/library/bignum.c:2939 (discriminator 2)
    5c8a:	4621      	mov	r1, r4
    5c8c:	4630      	mov	r0, r6
    5c8e:	f7fe fd0e 	bl	46ae <mbedtls_mpi_cmp_mpi>
    5c92:	2800      	cmp	r0, #0
    5c94:	f280 80a3 	bge.w	5dde <mbedtls_mpi_inv_mod+0x2c6>
/home/aom1/Work/Linux/target/STM32MP1-DK2/bootloader/optee-os-custom/lib/libmbedtls/mbedtls/library/bignum.c:2942
    5c98:	9805      	ldr	r0, [sp, #20]
    5c9a:	4631      	mov	r1, r6
    5c9c:	f7fe fa46 	bl	412c <mbedtls_mpi_copy>
    5ca0:	4601      	mov	r1, r0
    5ca2:	e013      	b.n	5ccc <mbedtls_mpi_inv_mod+0x1b4>
/home/aom1/Work/Linux/target/STM32MP1-DK2/bootloader/optee-os-custom/lib/libmbedtls/mbedtls/library/bignum.c:2895
    5ca4:	2101      	movs	r1, #1
    5ca6:	4628      	mov	r0, r5
    5ca8:	f7fe fc94 	bl	45d4 <mbedtls_mpi_shift_r>
    5cac:	4601      	mov	r1, r0
    5cae:	b968      	cbnz	r0, 5ccc <mbedtls_mpi_inv_mod+0x1b4>
/home/aom1/Work/Linux/target/STM32MP1-DK2/bootloader/optee-os-custom/lib/libmbedtls/mbedtls/library/bignum.c:2897 (discriminator 2)
    5cb0:	9b12      	ldr	r3, [sp, #72]	; 0x48
    5cb2:	681b      	ldr	r3, [r3, #0]
    5cb4:	07da      	lsls	r2, r3, #31
    5cb6:	d42a      	bmi.n	5d0e <mbedtls_mpi_inv_mod+0x1f6>
/home/aom1/Work/Linux/target/STM32MP1-DK2/bootloader/optee-os-custom/lib/libmbedtls/mbedtls/library/bignum.c:2897 (discriminator 1)
    5cb8:	9b15      	ldr	r3, [sp, #84]	; 0x54
    5cba:	681b      	ldr	r3, [r3, #0]
    5cbc:	07db      	lsls	r3, r3, #31
    5cbe:	d426      	bmi.n	5d0e <mbedtls_mpi_inv_mod+0x1f6>
/home/aom1/Work/Linux/target/STM32MP1-DK2/bootloader/optee-os-custom/lib/libmbedtls/mbedtls/library/bignum.c:2903
    5cc0:	2101      	movs	r1, #1
    5cc2:	a810      	add	r0, sp, #64	; 0x40
    5cc4:	f7fe fc86 	bl	45d4 <mbedtls_mpi_shift_r>
    5cc8:	4601      	mov	r1, r0
    5cca:	b388      	cbz	r0, 5d30 <mbedtls_mpi_inv_mod+0x218>
    5ccc:	9104      	str	r1, [sp, #16]
/home/aom1/Work/Linux/target/STM32MP1-DK2/bootloader/optee-os-custom/lib/libmbedtls/mbedtls/library/bignum.c:2946 (discriminator 3)
    5cce:	4638      	mov	r0, r7
    5cd0:	f7fe f948 	bl	3f64 <mbedtls_mpi_free>
    5cd4:	4628      	mov	r0, r5
    5cd6:	f7fe f945 	bl	3f64 <mbedtls_mpi_free>
    5cda:	4658      	mov	r0, fp
    5cdc:	f7fe f942 	bl	3f64 <mbedtls_mpi_free>
    5ce0:	4650      	mov	r0, sl
    5ce2:	f7fe f93f 	bl	3f64 <mbedtls_mpi_free>
/home/aom1/Work/Linux/target/STM32MP1-DK2/bootloader/optee-os-custom/lib/libmbedtls/mbedtls/library/bignum.c:2947 (discriminator 3)
    5ce6:	4648      	mov	r0, r9
    5ce8:	f7fe f93c 	bl	3f64 <mbedtls_mpi_free>
    5cec:	9801      	ldr	r0, [sp, #4]
    5cee:	f7fe f939 	bl	3f64 <mbedtls_mpi_free>
    5cf2:	9802      	ldr	r0, [sp, #8]
    5cf4:	f7fe f936 	bl	3f64 <mbedtls_mpi_free>
/home/aom1/Work/Linux/target/STM32MP1-DK2/bootloader/optee-os-custom/lib/libmbedtls/mbedtls/library/bignum.c:2948 (discriminator 3)
    5cf8:	9803      	ldr	r0, [sp, #12]
    5cfa:	f7fe f933 	bl	3f64 <mbedtls_mpi_free>
    5cfe:	a81f      	add	r0, sp, #124	; 0x7c
    5d00:	f7fe f930 	bl	3f64 <mbedtls_mpi_free>
/home/aom1/Work/Linux/target/STM32MP1-DK2/bootloader/optee-os-custom/lib/libmbedtls/mbedtls/library/bignum.c:2950 (discriminator 3)
    5d04:	9904      	ldr	r1, [sp, #16]
/home/aom1/Work/Linux/target/STM32MP1-DK2/bootloader/optee-os-custom/lib/libmbedtls/mbedtls/library/bignum.c:2951
    5d06:	4608      	mov	r0, r1
    5d08:	b023      	add	sp, #140	; 0x8c
    5d0a:	e8bd 8ff0 	ldmia.w	sp!, {r4, r5, r6, r7, r8, r9, sl, fp, pc}
/home/aom1/Work/Linux/target/STM32MP1-DK2/bootloader/optee-os-custom/lib/libmbedtls/mbedtls/library/bignum.c:2899
    5d0e:	9a04      	ldr	r2, [sp, #16]
    5d10:	a910      	add	r1, sp, #64	; 0x40
    5d12:	4608      	mov	r0, r1
    5d14:	f7fe fe3e 	bl	4994 <mbedtls_mpi_add_mpi>
    5d18:	4601      	mov	r1, r0
    5d1a:	2800      	cmp	r0, #0
    5d1c:	d1d6      	bne.n	5ccc <mbedtls_mpi_inv_mod+0x1b4>
/home/aom1/Work/Linux/target/STM32MP1-DK2/bootloader/optee-os-custom/lib/libmbedtls/mbedtls/library/bignum.c:2900 (discriminator 2)
    5d1e:	a913      	add	r1, sp, #76	; 0x4c
    5d20:	463a      	mov	r2, r7
    5d22:	4608      	mov	r0, r1
    5d24:	f7fe fe5a 	bl	49dc <mbedtls_mpi_sub_mpi>
    5d28:	4601      	mov	r1, r0
    5d2a:	2800      	cmp	r0, #0
    5d2c:	d0c8      	beq.n	5cc0 <mbedtls_mpi_inv_mod+0x1a8>
    5d2e:	e7cd      	b.n	5ccc <mbedtls_mpi_inv_mod+0x1b4>
/home/aom1/Work/Linux/target/STM32MP1-DK2/bootloader/optee-os-custom/lib/libmbedtls/mbedtls/library/bignum.c:2904 (discriminator 2)
    5d30:	2101      	movs	r1, #1
    5d32:	a813      	add	r0, sp, #76	; 0x4c
    5d34:	f7fe fc4e 	bl	45d4 <mbedtls_mpi_shift_r>
    5d38:	4601      	mov	r1, r0
    5d3a:	2800      	cmp	r0, #0
    5d3c:	f43f af70 	beq.w	5c20 <mbedtls_mpi_inv_mod+0x108>
    5d40:	e7c4      	b.n	5ccc <mbedtls_mpi_inv_mod+0x1b4>
/home/aom1/Work/Linux/target/STM32MP1-DK2/bootloader/optee-os-custom/lib/libmbedtls/mbedtls/library/bignum.c:2909
    5d42:	2101      	movs	r1, #1
    5d44:	4640      	mov	r0, r8
    5d46:	f7fe fc45 	bl	45d4 <mbedtls_mpi_shift_r>
    5d4a:	4601      	mov	r1, r0
    5d4c:	2800      	cmp	r0, #0
    5d4e:	d1bd      	bne.n	5ccc <mbedtls_mpi_inv_mod+0x1b4>
/home/aom1/Work/Linux/target/STM32MP1-DK2/bootloader/optee-os-custom/lib/libmbedtls/mbedtls/library/bignum.c:2911 (discriminator 2)
    5d50:	9b1e      	ldr	r3, [sp, #120]	; 0x78
    5d52:	681b      	ldr	r3, [r3, #0]
    5d54:	07d9      	lsls	r1, r3, #31
    5d56:	d413      	bmi.n	5d80 <mbedtls_mpi_inv_mod+0x268>
/home/aom1/Work/Linux/target/STM32MP1-DK2/bootloader/optee-os-custom/lib/libmbedtls/mbedtls/library/bignum.c:2911 (discriminator 1)
    5d58:	9b21      	ldr	r3, [sp, #132]	; 0x84
    5d5a:	681b      	ldr	r3, [r3, #0]
    5d5c:	07da      	lsls	r2, r3, #31
    5d5e:	d40f      	bmi.n	5d80 <mbedtls_mpi_inv_mod+0x268>
/home/aom1/Work/Linux/target/STM32MP1-DK2/bootloader/optee-os-custom/lib/libmbedtls/mbedtls/library/bignum.c:2917
    5d60:	2101      	movs	r1, #1
    5d62:	a81c      	add	r0, sp, #112	; 0x70
    5d64:	f7fe fc36 	bl	45d4 <mbedtls_mpi_shift_r>
    5d68:	4601      	mov	r1, r0
    5d6a:	2800      	cmp	r0, #0
    5d6c:	d1ae      	bne.n	5ccc <mbedtls_mpi_inv_mod+0x1b4>
/home/aom1/Work/Linux/target/STM32MP1-DK2/bootloader/optee-os-custom/lib/libmbedtls/mbedtls/library/bignum.c:2918 (discriminator 2)
    5d6e:	2101      	movs	r1, #1
    5d70:	4630      	mov	r0, r6
    5d72:	f7fe fc2f 	bl	45d4 <mbedtls_mpi_shift_r>
    5d76:	4601      	mov	r1, r0
    5d78:	2800      	cmp	r0, #0
    5d7a:	f43f af55 	beq.w	5c28 <mbedtls_mpi_inv_mod+0x110>
    5d7e:	e7a5      	b.n	5ccc <mbedtls_mpi_inv_mod+0x1b4>
/home/aom1/Work/Linux/target/STM32MP1-DK2/bootloader/optee-os-custom/lib/libmbedtls/mbedtls/library/bignum.c:2913
    5d80:	9a04      	ldr	r2, [sp, #16]
    5d82:	a91c      	add	r1, sp, #112	; 0x70
    5d84:	4608      	mov	r0, r1
    5d86:	f7fe fe05 	bl	4994 <mbedtls_mpi_add_mpi>
    5d8a:	4601      	mov	r1, r0
    5d8c:	2800      	cmp	r0, #0
    5d8e:	d19d      	bne.n	5ccc <mbedtls_mpi_inv_mod+0x1b4>
/home/aom1/Work/Linux/target/STM32MP1-DK2/bootloader/optee-os-custom/lib/libmbedtls/mbedtls/library/bignum.c:2914 (discriminator 2)
    5d90:	4631      	mov	r1, r6
    5d92:	463a      	mov	r2, r7
    5d94:	4630      	mov	r0, r6
    5d96:	f7fe fe21 	bl	49dc <mbedtls_mpi_sub_mpi>
    5d9a:	4601      	mov	r1, r0
    5d9c:	2800      	cmp	r0, #0
    5d9e:	d0df      	beq.n	5d60 <mbedtls_mpi_inv_mod+0x248>
    5da0:	e794      	b.n	5ccc <mbedtls_mpi_inv_mod+0x1b4>
/home/aom1/Work/Linux/target/STM32MP1-DK2/bootloader/optee-os-custom/lib/libmbedtls/mbedtls/library/bignum.c:2929
    5da2:	4641      	mov	r1, r8
    5da4:	462a      	mov	r2, r5
    5da6:	4640      	mov	r0, r8
    5da8:	f7fe fe18 	bl	49dc <mbedtls_mpi_sub_mpi>
    5dac:	4601      	mov	r1, r0
    5dae:	2800      	cmp	r0, #0
    5db0:	d18c      	bne.n	5ccc <mbedtls_mpi_inv_mod+0x1b4>
/home/aom1/Work/Linux/target/STM32MP1-DK2/bootloader/optee-os-custom/lib/libmbedtls/mbedtls/library/bignum.c:2930 (discriminator 2)
    5db2:	a91c      	add	r1, sp, #112	; 0x70
    5db4:	aa10      	add	r2, sp, #64	; 0x40
    5db6:	4608      	mov	r0, r1
    5db8:	f7fe fe10 	bl	49dc <mbedtls_mpi_sub_mpi>
    5dbc:	4601      	mov	r1, r0
    5dbe:	2800      	cmp	r0, #0
    5dc0:	d184      	bne.n	5ccc <mbedtls_mpi_inv_mod+0x1b4>
/home/aom1/Work/Linux/target/STM32MP1-DK2/bootloader/optee-os-custom/lib/libmbedtls/mbedtls/library/bignum.c:2931 (discriminator 2)
    5dc2:	aa13      	add	r2, sp, #76	; 0x4c
    5dc4:	4631      	mov	r1, r6
    5dc6:	4630      	mov	r0, r6
    5dc8:	e74d      	b.n	5c66 <mbedtls_mpi_inv_mod+0x14e>
/home/aom1/Work/Linux/target/STM32MP1-DK2/bootloader/optee-os-custom/lib/libmbedtls/mbedtls/library/bignum.c:2937
    5dca:	4631      	mov	r1, r6
    5dcc:	4622      	mov	r2, r4
    5dce:	4630      	mov	r0, r6
    5dd0:	f7fe fde0 	bl	4994 <mbedtls_mpi_add_mpi>
    5dd4:	4601      	mov	r1, r0
    5dd6:	2800      	cmp	r0, #0
    5dd8:	f43f af50 	beq.w	5c7c <mbedtls_mpi_inv_mod+0x164>
    5ddc:	e776      	b.n	5ccc <mbedtls_mpi_inv_mod+0x1b4>
/home/aom1/Work/Linux/target/STM32MP1-DK2/bootloader/optee-os-custom/lib/libmbedtls/mbedtls/library/bignum.c:2940
    5dde:	4631      	mov	r1, r6
    5de0:	4622      	mov	r2, r4
    5de2:	4630      	mov	r0, r6
    5de4:	f7fe fdfa 	bl	49dc <mbedtls_mpi_sub_mpi>
    5de8:	4601      	mov	r1, r0
    5dea:	2800      	cmp	r0, #0
    5dec:	f43f af4d 	beq.w	5c8a <mbedtls_mpi_inv_mod+0x172>
    5df0:	e76c      	b.n	5ccc <mbedtls_mpi_inv_mod+0x1b4>
/home/aom1/Work/Linux/target/STM32MP1-DK2/bootloader/optee-os-custom/lib/libmbedtls/mbedtls/library/bignum.c:2877
    5df2:	f06f 010d 	mvn.w	r1, #13
    5df6:	e769      	b.n	5ccc <mbedtls_mpi_inv_mod+0x1b4>
/home/aom1/Work/Linux/target/STM32MP1-DK2/bootloader/optee-os-custom/lib/libmbedtls/mbedtls/library/bignum.c:2865
    5df8:	f06f 0103 	mvn.w	r1, #3
    5dfc:	e783      	b.n	5d06 <mbedtls_mpi_inv_mod+0x1ee>

00005dfe <mbedtls_mpi_is_prime_ext>:
mbedtls_mpi_is_prime_ext():
/home/aom1/Work/Linux/target/STM32MP1-DK2/bootloader/optee-os-custom/lib/libmbedtls/mbedtls/library/bignum.c:3112
    5dfe:	e92d 41ff 	stmdb	sp!, {r0, r1, r2, r3, r4, r5, r6, r7, r8, lr}
    5e02:	461f      	mov	r7, r3
/home/aom1/Work/Linux/target/STM32MP1-DK2/bootloader/optee-os-custom/lib/libmbedtls/mbedtls/library/bignum.c:3119
    5e04:	6843      	ldr	r3, [r0, #4]
/home/aom1/Work/Linux/target/STM32MP1-DK2/bootloader/optee-os-custom/lib/libmbedtls/mbedtls/library/bignum.c:3122
    5e06:	ac01      	add	r4, sp, #4
/home/aom1/Work/Linux/target/STM32MP1-DK2/bootloader/optee-os-custom/lib/libmbedtls/mbedtls/library/bignum.c:3112
    5e08:	460d      	mov	r5, r1
/home/aom1/Work/Linux/target/STM32MP1-DK2/bootloader/optee-os-custom/lib/libmbedtls/mbedtls/library/bignum.c:3118
    5e0a:	f04f 0801 	mov.w	r8, #1
/home/aom1/Work/Linux/target/STM32MP1-DK2/bootloader/optee-os-custom/lib/libmbedtls/mbedtls/library/bignum.c:3119
    5e0e:	9302      	str	r3, [sp, #8]
/home/aom1/Work/Linux/target/STM32MP1-DK2/bootloader/optee-os-custom/lib/libmbedtls/mbedtls/library/bignum.c:3122
    5e10:	2100      	movs	r1, #0
/home/aom1/Work/Linux/target/STM32MP1-DK2/bootloader/optee-os-custom/lib/libmbedtls/mbedtls/library/bignum.c:3120
    5e12:	6883      	ldr	r3, [r0, #8]
/home/aom1/Work/Linux/target/STM32MP1-DK2/bootloader/optee-os-custom/lib/libmbedtls/mbedtls/library/bignum.c:3122
    5e14:	4620      	mov	r0, r4
/home/aom1/Work/Linux/target/STM32MP1-DK2/bootloader/optee-os-custom/lib/libmbedtls/mbedtls/library/bignum.c:3118
    5e16:	f8ad 8004 	strh.w	r8, [sp, #4]
/home/aom1/Work/Linux/target/STM32MP1-DK2/bootloader/optee-os-custom/lib/libmbedtls/mbedtls/library/bignum.c:3112
    5e1a:	4616      	mov	r6, r2
/home/aom1/Work/Linux/target/STM32MP1-DK2/bootloader/optee-os-custom/lib/libmbedtls/mbedtls/library/bignum.c:3120
    5e1c:	9303      	str	r3, [sp, #12]
/home/aom1/Work/Linux/target/STM32MP1-DK2/bootloader/optee-os-custom/lib/libmbedtls/mbedtls/library/bignum.c:3122
    5e1e:	f7fe fcda 	bl	47d6 <mbedtls_mpi_cmp_int>
    5e22:	b920      	cbnz	r0, 5e2e <mbedtls_mpi_is_prime_ext+0x30>
/home/aom1/Work/Linux/target/STM32MP1-DK2/bootloader/optee-os-custom/lib/libmbedtls/mbedtls/library/bignum.c:3124
    5e24:	f06f 000d 	mvn.w	r0, #13
/home/aom1/Work/Linux/target/STM32MP1-DK2/bootloader/optee-os-custom/lib/libmbedtls/mbedtls/library/bignum.c:3138
    5e28:	b004      	add	sp, #16
    5e2a:	e8bd 81f0 	ldmia.w	sp!, {r4, r5, r6, r7, r8, pc}
/home/aom1/Work/Linux/target/STM32MP1-DK2/bootloader/optee-os-custom/lib/libmbedtls/mbedtls/library/bignum.c:3123 (discriminator 1)
    5e2e:	4641      	mov	r1, r8
    5e30:	4620      	mov	r0, r4
    5e32:	f7fe fcd0 	bl	47d6 <mbedtls_mpi_cmp_int>
/home/aom1/Work/Linux/target/STM32MP1-DK2/bootloader/optee-os-custom/lib/libmbedtls/mbedtls/library/bignum.c:3122 (discriminator 1)
    5e36:	2800      	cmp	r0, #0
    5e38:	d0f4      	beq.n	5e24 <mbedtls_mpi_is_prime_ext+0x26>
/home/aom1/Work/Linux/target/STM32MP1-DK2/bootloader/optee-os-custom/lib/libmbedtls/mbedtls/library/bignum.c:3126
    5e3a:	2102      	movs	r1, #2
    5e3c:	4620      	mov	r0, r4
    5e3e:	f7fe fcca 	bl	47d6 <mbedtls_mpi_cmp_int>
    5e42:	b128      	cbz	r0, 5e50 <mbedtls_mpi_is_prime_ext+0x52>
/home/aom1/Work/Linux/target/STM32MP1-DK2/bootloader/optee-os-custom/lib/libmbedtls/mbedtls/library/bignum.c:3129
    5e44:	4620      	mov	r0, r4
    5e46:	f7ff fa2f 	bl	52a8 <mpi_check_small_factors>
    5e4a:	b118      	cbz	r0, 5e54 <mbedtls_mpi_is_prime_ext+0x56>
/home/aom1/Work/Linux/target/STM32MP1-DK2/bootloader/optee-os-custom/lib/libmbedtls/mbedtls/library/bignum.c:3131
    5e4c:	2801      	cmp	r0, #1
    5e4e:	d1eb      	bne.n	5e28 <mbedtls_mpi_is_prime_ext+0x2a>
/home/aom1/Work/Linux/target/STM32MP1-DK2/bootloader/optee-os-custom/lib/libmbedtls/mbedtls/library/bignum.c:3132
    5e50:	2000      	movs	r0, #0
    5e52:	e7e9      	b.n	5e28 <mbedtls_mpi_is_prime_ext+0x2a>
/home/aom1/Work/Linux/target/STM32MP1-DK2/bootloader/optee-os-custom/lib/libmbedtls/mbedtls/library/bignum.c:3137
    5e54:	463b      	mov	r3, r7
    5e56:	4632      	mov	r2, r6
    5e58:	4629      	mov	r1, r5
    5e5a:	4620      	mov	r0, r4
    5e5c:	f7ff fd20 	bl	58a0 <mpi_miller_rabin>
    5e60:	e7e2      	b.n	5e28 <mbedtls_mpi_is_prime_ext+0x2a>

00005e62 <mbedtls_mpi_is_prime>:
mbedtls_mpi_is_prime():
/home/aom1/Work/Linux/target/STM32MP1-DK2/bootloader/optee-os-custom/lib/libmbedtls/mbedtls/library/bignum.c:3147
    5e62:	4613      	mov	r3, r2
/home/aom1/Work/Linux/target/STM32MP1-DK2/bootloader/optee-os-custom/lib/libmbedtls/mbedtls/library/bignum.c:3156
    5e64:	460a      	mov	r2, r1
    5e66:	2128      	movs	r1, #40	; 0x28
    5e68:	f7ff bfc9 	b.w	5dfe <mbedtls_mpi_is_prime_ext>

00005e6c <mbedtls_mpi_gen_prime>:
mbedtls_mpi_gen_prime():
/home/aom1/Work/Linux/target/STM32MP1-DK2/bootloader/optee-os-custom/lib/libmbedtls/mbedtls/library/bignum.c:3170
    5e6c:	e92d 4ff0 	stmdb	sp!, {r4, r5, r6, r7, r8, r9, sl, fp, lr}
    5e70:	4691      	mov	r9, r2
    5e72:	4698      	mov	r8, r3
/home/aom1/Work/Linux/target/STM32MP1-DK2/bootloader/optee-os-custom/lib/libmbedtls/mbedtls/library/bignum.c:3187
    5e74:	1eca      	subs	r2, r1, #3
    5e76:	f641 73fd 	movw	r3, #8189	; 0x1ffd
/home/aom1/Work/Linux/target/STM32MP1-DK2/bootloader/optee-os-custom/lib/libmbedtls/mbedtls/library/bignum.c:3170
    5e7a:	b087      	sub	sp, #28
/home/aom1/Work/Linux/target/STM32MP1-DK2/bootloader/optee-os-custom/lib/libmbedtls/mbedtls/library/bignum.c:3187
    5e7c:	429a      	cmp	r2, r3
/home/aom1/Work/Linux/target/STM32MP1-DK2/bootloader/optee-os-custom/lib/libmbedtls/mbedtls/library/bignum.c:3170
    5e7e:	4605      	mov	r5, r0
    5e80:	f8dd a040 	ldr.w	sl, [sp, #64]	; 0x40
    5e84:	460c      	mov	r4, r1
/home/aom1/Work/Linux/target/STM32MP1-DK2/bootloader/optee-os-custom/lib/libmbedtls/mbedtls/library/bignum.c:3187
    5e86:	f200 80f4 	bhi.w	6072 <mbedtls_mpi_gen_prime+0x206>
/home/aom1/Work/Linux/target/STM32MP1-DK2/bootloader/optee-os-custom/lib/libmbedtls/mbedtls/library/bignum.c:3190
    5e8a:	a803      	add	r0, sp, #12
    5e8c:	f7fe f856 	bl	3f3c <mbedtls_mpi_init_mempool>
/home/aom1/Work/Linux/target/STM32MP1-DK2/bootloader/optee-os-custom/lib/libmbedtls/mbedtls/library/bignum.c:3192
    5e90:	f014 071f 	ands.w	r7, r4, #31
    5e94:	bf18      	it	ne
    5e96:	2701      	movne	r7, #1
/home/aom1/Work/Linux/target/STM32MP1-DK2/bootloader/optee-os-custom/lib/libmbedtls/mbedtls/library/bignum.c:3194
    5e98:	f019 0f02 	tst.w	r9, #2
/home/aom1/Work/Linux/target/STM32MP1-DK2/bootloader/optee-os-custom/lib/libmbedtls/mbedtls/library/bignum.c:3192
    5e9c:	eb07 1754 	add.w	r7, r7, r4, lsr #5
/home/aom1/Work/Linux/target/STM32MP1-DK2/bootloader/optee-os-custom/lib/libmbedtls/mbedtls/library/bignum.c:3194
    5ea0:	f040 8094 	bne.w	5fcc <mbedtls_mpi_gen_prime+0x160>
/home/aom1/Work/Linux/target/STM32MP1-DK2/bootloader/optee-os-custom/lib/libmbedtls/mbedtls/library/bignum.c:3199
    5ea4:	f240 5313 	movw	r3, #1299	; 0x513
    5ea8:	429c      	cmp	r4, r3
    5eaa:	f200 80ac 	bhi.w	6006 <mbedtls_mpi_gen_prime+0x19a>
/home/aom1/Work/Linux/target/STM32MP1-DK2/bootloader/optee-os-custom/lib/libmbedtls/mbedtls/library/bignum.c:3199 (discriminator 1)
    5eae:	f240 3351 	movw	r3, #849	; 0x351
    5eb2:	429c      	cmp	r4, r3
    5eb4:	f200 80a9 	bhi.w	600a <mbedtls_mpi_gen_prime+0x19e>
/home/aom1/Work/Linux/target/STM32MP1-DK2/bootloader/optee-os-custom/lib/libmbedtls/mbedtls/library/bignum.c:3200
    5eb8:	f240 2389 	movw	r3, #649	; 0x289
    5ebc:	429c      	cmp	r4, r3
    5ebe:	f200 80a8 	bhi.w	6012 <mbedtls_mpi_gen_prime+0x1a6>
/home/aom1/Work/Linux/target/STM32MP1-DK2/bootloader/optee-os-custom/lib/libmbedtls/mbedtls/library/bignum.c:3200 (discriminator 1)
    5ec2:	f5b4 7faf 	cmp.w	r4, #350	; 0x15e
    5ec6:	f080 80ac 	bcs.w	6022 <mbedtls_mpi_gen_prime+0x1b6>
/home/aom1/Work/Linux/target/STM32MP1-DK2/bootloader/optee-os-custom/lib/libmbedtls/mbedtls/library/bignum.c:3201
    5eca:	2cf9      	cmp	r4, #249	; 0xf9
    5ecc:	f200 809f 	bhi.w	600e <mbedtls_mpi_gen_prime+0x1a2>
/home/aom1/Work/Linux/target/STM32MP1-DK2/bootloader/optee-os-custom/lib/libmbedtls/mbedtls/library/bignum.c:3201 (discriminator 1)
    5ed0:	2c95      	cmp	r4, #149	; 0x95
    5ed2:	bf8c      	ite	hi
    5ed4:	2612      	movhi	r6, #18
    5ed6:	261b      	movls	r6, #27
/home/aom1/Work/Linux/target/STM32MP1-DK2/bootloader/optee-os-custom/lib/libmbedtls/mbedtls/library/bignum.c:3217
    5ed8:	ea4f 0b87 	mov.w	fp, r7, lsl #2
/home/aom1/Work/Linux/target/STM32MP1-DK2/bootloader/optee-os-custom/lib/libmbedtls/mbedtls/library/bignum.c:3225
    5edc:	f009 0901 	and.w	r9, r9, #1
/home/aom1/Work/Linux/target/STM32MP1-DK2/bootloader/optee-os-custom/lib/libmbedtls/mbedtls/library/bignum.c:3219
    5ee0:	f1ab 0304 	sub.w	r3, fp, #4
    5ee4:	9300      	str	r3, [sp, #0]
/home/aom1/Work/Linux/target/STM32MP1-DK2/bootloader/optee-os-custom/lib/libmbedtls/mbedtls/library/bignum.c:3221
    5ee6:	017b      	lsls	r3, r7, #5
/home/aom1/Work/Linux/target/STM32MP1-DK2/bootloader/optee-os-custom/lib/libmbedtls/mbedtls/library/bignum.c:3222
    5ee8:	ebc4 1747 	rsb	r7, r4, r7, lsl #5
/home/aom1/Work/Linux/target/STM32MP1-DK2/bootloader/optee-os-custom/lib/libmbedtls/mbedtls/library/bignum.c:3221
    5eec:	9301      	str	r3, [sp, #4]
/home/aom1/Work/Linux/target/STM32MP1-DK2/bootloader/optee-os-custom/lib/libmbedtls/mbedtls/library/bignum.c:3217
    5eee:	4653      	mov	r3, sl
    5ef0:	4642      	mov	r2, r8
    5ef2:	4659      	mov	r1, fp
    5ef4:	4628      	mov	r0, r5
    5ef6:	f7ff fcb9 	bl	586c <mbedtls_mpi_fill_random>
    5efa:	4603      	mov	r3, r0
    5efc:	2800      	cmp	r0, #0
    5efe:	f040 809e 	bne.w	603e <mbedtls_mpi_gen_prime+0x1d2>
/home/aom1/Work/Linux/target/STM32MP1-DK2/bootloader/optee-os-custom/lib/libmbedtls/mbedtls/library/bignum.c:3219 (discriminator 2)
    5f02:	9a00      	ldr	r2, [sp, #0]
    5f04:	68ab      	ldr	r3, [r5, #8]
    5f06:	589b      	ldr	r3, [r3, r2]
    5f08:	4a5b      	ldr	r2, [pc, #364]	; (6078 <mbedtls_mpi_gen_prime+0x20c>)
    5f0a:	4293      	cmp	r3, r2
    5f0c:	d9ef      	bls.n	5eee <mbedtls_mpi_gen_prime+0x82>
/home/aom1/Work/Linux/target/STM32MP1-DK2/bootloader/optee-os-custom/lib/libmbedtls/mbedtls/library/bignum.c:3222
    5f0e:	9b01      	ldr	r3, [sp, #4]
    5f10:	429c      	cmp	r4, r3
    5f12:	f0c0 808c 	bcc.w	602e <mbedtls_mpi_gen_prime+0x1c2>
/home/aom1/Work/Linux/target/STM32MP1-DK2/bootloader/optee-os-custom/lib/libmbedtls/mbedtls/library/bignum.c:3223
    5f16:	68aa      	ldr	r2, [r5, #8]
    5f18:	6813      	ldr	r3, [r2, #0]
    5f1a:	f043 0101 	orr.w	r1, r3, #1
    5f1e:	6011      	str	r1, [r2, #0]
/home/aom1/Work/Linux/target/STM32MP1-DK2/bootloader/optee-os-custom/lib/libmbedtls/mbedtls/library/bignum.c:3225
    5f20:	f1b9 0f00 	cmp.w	r9, #0
    5f24:	f000 8094 	beq.w	6050 <mbedtls_mpi_gen_prime+0x1e4>
/home/aom1/Work/Linux/target/STM32MP1-DK2/bootloader/optee-os-custom/lib/libmbedtls/mbedtls/library/bignum.c:3240
    5f28:	f043 0303 	orr.w	r3, r3, #3
/home/aom1/Work/Linux/target/STM32MP1-DK2/bootloader/optee-os-custom/lib/libmbedtls/mbedtls/library/bignum.c:3242
    5f2c:	4629      	mov	r1, r5
/home/aom1/Work/Linux/target/STM32MP1-DK2/bootloader/optee-os-custom/lib/libmbedtls/mbedtls/library/bignum.c:3240
    5f2e:	6013      	str	r3, [r2, #0]
/home/aom1/Work/Linux/target/STM32MP1-DK2/bootloader/optee-os-custom/lib/libmbedtls/mbedtls/library/bignum.c:3242
    5f30:	a802      	add	r0, sp, #8
    5f32:	2203      	movs	r2, #3
    5f34:	f7ff f8cf 	bl	50d6 <mbedtls_mpi_mod_int>
    5f38:	4603      	mov	r3, r0
    5f3a:	2800      	cmp	r0, #0
    5f3c:	d17f      	bne.n	603e <mbedtls_mpi_gen_prime+0x1d2>
/home/aom1/Work/Linux/target/STM32MP1-DK2/bootloader/optee-os-custom/lib/libmbedtls/mbedtls/library/bignum.c:3243 (discriminator 2)
    5f3e:	9b02      	ldr	r3, [sp, #8]
    5f40:	2b00      	cmp	r3, #0
    5f42:	f040 8091 	bne.w	6068 <mbedtls_mpi_gen_prime+0x1fc>
/home/aom1/Work/Linux/target/STM32MP1-DK2/bootloader/optee-os-custom/lib/libmbedtls/mbedtls/library/bignum.c:3244
    5f46:	2208      	movs	r2, #8
    5f48:	4629      	mov	r1, r5
    5f4a:	4628      	mov	r0, r5
    5f4c:	f7fe fd6b 	bl	4a26 <mbedtls_mpi_add_int>
    5f50:	4603      	mov	r3, r0
    5f52:	2800      	cmp	r0, #0
    5f54:	d173      	bne.n	603e <mbedtls_mpi_gen_prime+0x1d2>
/home/aom1/Work/Linux/target/STM32MP1-DK2/bootloader/optee-os-custom/lib/libmbedtls/mbedtls/library/bignum.c:3249
    5f56:	ac03      	add	r4, sp, #12
    5f58:	4629      	mov	r1, r5
    5f5a:	4620      	mov	r0, r4
    5f5c:	f7fe f8e6 	bl	412c <mbedtls_mpi_copy>
    5f60:	4603      	mov	r3, r0
    5f62:	2800      	cmp	r0, #0
    5f64:	d16b      	bne.n	603e <mbedtls_mpi_gen_prime+0x1d2>
/home/aom1/Work/Linux/target/STM32MP1-DK2/bootloader/optee-os-custom/lib/libmbedtls/mbedtls/library/bignum.c:3250 (discriminator 2)
    5f66:	2101      	movs	r1, #1
    5f68:	4620      	mov	r0, r4
    5f6a:	f7fe fb33 	bl	45d4 <mbedtls_mpi_shift_r>
    5f6e:	4603      	mov	r3, r0
    5f70:	2800      	cmp	r0, #0
    5f72:	d164      	bne.n	603e <mbedtls_mpi_gen_prime+0x1d2>
/home/aom1/Work/Linux/target/STM32MP1-DK2/bootloader/optee-os-custom/lib/libmbedtls/mbedtls/library/bignum.c:3258 (discriminator 2)
    5f74:	4628      	mov	r0, r5
    5f76:	f7ff f997 	bl	52a8 <mpi_check_small_factors>
    5f7a:	4603      	mov	r3, r0
    5f7c:	b9a8      	cbnz	r0, 5faa <mbedtls_mpi_gen_prime+0x13e>
/home/aom1/Work/Linux/target/STM32MP1-DK2/bootloader/optee-os-custom/lib/libmbedtls/mbedtls/library/bignum.c:3259 (discriminator 1)
    5f7e:	4620      	mov	r0, r4
    5f80:	f7ff f992 	bl	52a8 <mpi_check_small_factors>
/home/aom1/Work/Linux/target/STM32MP1-DK2/bootloader/optee-os-custom/lib/libmbedtls/mbedtls/library/bignum.c:3258 (discriminator 1)
    5f84:	4603      	mov	r3, r0
    5f86:	b980      	cbnz	r0, 5faa <mbedtls_mpi_gen_prime+0x13e>
/home/aom1/Work/Linux/target/STM32MP1-DK2/bootloader/optee-os-custom/lib/libmbedtls/mbedtls/library/bignum.c:3260
    5f88:	4653      	mov	r3, sl
    5f8a:	4642      	mov	r2, r8
    5f8c:	4631      	mov	r1, r6
    5f8e:	4628      	mov	r0, r5
    5f90:	f7ff fc86 	bl	58a0 <mpi_miller_rabin>
/home/aom1/Work/Linux/target/STM32MP1-DK2/bootloader/optee-os-custom/lib/libmbedtls/mbedtls/library/bignum.c:3259
    5f94:	4603      	mov	r3, r0
    5f96:	b940      	cbnz	r0, 5faa <mbedtls_mpi_gen_prime+0x13e>
/home/aom1/Work/Linux/target/STM32MP1-DK2/bootloader/optee-os-custom/lib/libmbedtls/mbedtls/library/bignum.c:3262
    5f98:	4653      	mov	r3, sl
    5f9a:	4642      	mov	r2, r8
    5f9c:	4631      	mov	r1, r6
    5f9e:	4620      	mov	r0, r4
    5fa0:	f7ff fc7e 	bl	58a0 <mpi_miller_rabin>
/home/aom1/Work/Linux/target/STM32MP1-DK2/bootloader/optee-os-custom/lib/libmbedtls/mbedtls/library/bignum.c:3261
    5fa4:	4603      	mov	r3, r0
    5fa6:	2800      	cmp	r0, #0
    5fa8:	d049      	beq.n	603e <mbedtls_mpi_gen_prime+0x1d2>
/home/aom1/Work/Linux/target/STM32MP1-DK2/bootloader/optee-os-custom/lib/libmbedtls/mbedtls/library/bignum.c:3266
    5faa:	f113 0f0e 	cmn.w	r3, #14
    5fae:	d146      	bne.n	603e <mbedtls_mpi_gen_prime+0x1d2>
/home/aom1/Work/Linux/target/STM32MP1-DK2/bootloader/optee-os-custom/lib/libmbedtls/mbedtls/library/bignum.c:3274
    5fb0:	220c      	movs	r2, #12
    5fb2:	4629      	mov	r1, r5
    5fb4:	4628      	mov	r0, r5
    5fb6:	f7fe fd36 	bl	4a26 <mbedtls_mpi_add_int>
    5fba:	4603      	mov	r3, r0
    5fbc:	2800      	cmp	r0, #0
    5fbe:	d13e      	bne.n	603e <mbedtls_mpi_gen_prime+0x1d2>
/home/aom1/Work/Linux/target/STM32MP1-DK2/bootloader/optee-os-custom/lib/libmbedtls/mbedtls/library/bignum.c:3275 (discriminator 2)
    5fc0:	2206      	movs	r2, #6
    5fc2:	4621      	mov	r1, r4
    5fc4:	4620      	mov	r0, r4
    5fc6:	f7fe fd2e 	bl	4a26 <mbedtls_mpi_add_int>
    5fca:	e7d0      	b.n	5f6e <mbedtls_mpi_gen_prime+0x102>
/home/aom1/Work/Linux/target/STM32MP1-DK2/bootloader/optee-os-custom/lib/libmbedtls/mbedtls/library/bignum.c:3209
    5fcc:	f240 53a9 	movw	r3, #1449	; 0x5a9
    5fd0:	429c      	cmp	r4, r3
    5fd2:	d81e      	bhi.n	6012 <mbedtls_mpi_gen_prime+0x1a6>
/home/aom1/Work/Linux/target/STM32MP1-DK2/bootloader/optee-os-custom/lib/libmbedtls/mbedtls/library/bignum.c:3209 (discriminator 1)
    5fd4:	f240 437d 	movw	r3, #1149	; 0x47d
    5fd8:	429c      	cmp	r4, r3
    5fda:	d81c      	bhi.n	6016 <mbedtls_mpi_gen_prime+0x1aa>
/home/aom1/Work/Linux/target/STM32MP1-DK2/bootloader/optee-os-custom/lib/libmbedtls/mbedtls/library/bignum.c:3210
    5fdc:	f5b4 7f7a 	cmp.w	r4, #1000	; 0x3e8
    5fe0:	d21b      	bcs.n	601a <mbedtls_mpi_gen_prime+0x1ae>
/home/aom1/Work/Linux/target/STM32MP1-DK2/bootloader/optee-os-custom/lib/libmbedtls/mbedtls/library/bignum.c:3210 (discriminator 1)
    5fe2:	f240 3351 	movw	r3, #849	; 0x351
    5fe6:	429c      	cmp	r4, r3
    5fe8:	d819      	bhi.n	601e <mbedtls_mpi_gen_prime+0x1b2>
/home/aom1/Work/Linux/target/STM32MP1-DK2/bootloader/optee-os-custom/lib/libmbedtls/mbedtls/library/bignum.c:3211
    5fea:	f240 23ed 	movw	r3, #749	; 0x2ed
    5fee:	429c      	cmp	r4, r3
    5ff0:	d817      	bhi.n	6022 <mbedtls_mpi_gen_prime+0x1b6>
/home/aom1/Work/Linux/target/STM32MP1-DK2/bootloader/optee-os-custom/lib/libmbedtls/mbedtls/library/bignum.c:3211 (discriminator 1)
    5ff2:	f5b4 7ffa 	cmp.w	r4, #500	; 0x1f4
    5ff6:	d216      	bcs.n	6026 <mbedtls_mpi_gen_prime+0x1ba>
/home/aom1/Work/Linux/target/STM32MP1-DK2/bootloader/optee-os-custom/lib/libmbedtls/mbedtls/library/bignum.c:3212
    5ff8:	2cf9      	cmp	r4, #249	; 0xf9
    5ffa:	d816      	bhi.n	602a <mbedtls_mpi_gen_prime+0x1be>
/home/aom1/Work/Linux/target/STM32MP1-DK2/bootloader/optee-os-custom/lib/libmbedtls/mbedtls/library/bignum.c:3212 (discriminator 1)
    5ffc:	2c95      	cmp	r4, #149	; 0x95
    5ffe:	bf8c      	ite	hi
    6000:	2628      	movhi	r6, #40	; 0x28
    6002:	2633      	movls	r6, #51	; 0x33
    6004:	e768      	b.n	5ed8 <mbedtls_mpi_gen_prime+0x6c>
/home/aom1/Work/Linux/target/STM32MP1-DK2/bootloader/optee-os-custom/lib/libmbedtls/mbedtls/library/bignum.c:3199
    6006:	2602      	movs	r6, #2
    6008:	e766      	b.n	5ed8 <mbedtls_mpi_gen_prime+0x6c>
    600a:	2603      	movs	r6, #3
    600c:	e764      	b.n	5ed8 <mbedtls_mpi_gen_prime+0x6c>
/home/aom1/Work/Linux/target/STM32MP1-DK2/bootloader/optee-os-custom/lib/libmbedtls/mbedtls/library/bignum.c:3201
    600e:	260c      	movs	r6, #12
    6010:	e762      	b.n	5ed8 <mbedtls_mpi_gen_prime+0x6c>
/home/aom1/Work/Linux/target/STM32MP1-DK2/bootloader/optee-os-custom/lib/libmbedtls/mbedtls/library/bignum.c:3200
    6012:	2604      	movs	r6, #4
    6014:	e760      	b.n	5ed8 <mbedtls_mpi_gen_prime+0x6c>
/home/aom1/Work/Linux/target/STM32MP1-DK2/bootloader/optee-os-custom/lib/libmbedtls/mbedtls/library/bignum.c:3209
    6016:	2605      	movs	r6, #5
    6018:	e75e      	b.n	5ed8 <mbedtls_mpi_gen_prime+0x6c>
/home/aom1/Work/Linux/target/STM32MP1-DK2/bootloader/optee-os-custom/lib/libmbedtls/mbedtls/library/bignum.c:3210
    601a:	2606      	movs	r6, #6
    601c:	e75c      	b.n	5ed8 <mbedtls_mpi_gen_prime+0x6c>
    601e:	2607      	movs	r6, #7
    6020:	e75a      	b.n	5ed8 <mbedtls_mpi_gen_prime+0x6c>
/home/aom1/Work/Linux/target/STM32MP1-DK2/bootloader/optee-os-custom/lib/libmbedtls/mbedtls/library/bignum.c:3200
    6022:	2608      	movs	r6, #8
    6024:	e758      	b.n	5ed8 <mbedtls_mpi_gen_prime+0x6c>
/home/aom1/Work/Linux/target/STM32MP1-DK2/bootloader/optee-os-custom/lib/libmbedtls/mbedtls/library/bignum.c:3211
    6026:	260d      	movs	r6, #13
    6028:	e756      	b.n	5ed8 <mbedtls_mpi_gen_prime+0x6c>
/home/aom1/Work/Linux/target/STM32MP1-DK2/bootloader/optee-os-custom/lib/libmbedtls/mbedtls/library/bignum.c:3212
    602a:	261c      	movs	r6, #28
    602c:	e754      	b.n	5ed8 <mbedtls_mpi_gen_prime+0x6c>
/home/aom1/Work/Linux/target/STM32MP1-DK2/bootloader/optee-os-custom/lib/libmbedtls/mbedtls/library/bignum.c:3222 (discriminator 1)
    602e:	4639      	mov	r1, r7
    6030:	4628      	mov	r0, r5
    6032:	f7fe facf 	bl	45d4 <mbedtls_mpi_shift_r>
    6036:	4603      	mov	r3, r0
    6038:	2800      	cmp	r0, #0
    603a:	f43f af6c 	beq.w	5f16 <mbedtls_mpi_gen_prime+0xaa>
    603e:	9300      	str	r3, [sp, #0]
/home/aom1/Work/Linux/target/STM32MP1-DK2/bootloader/optee-os-custom/lib/libmbedtls/mbedtls/library/bignum.c:3282
    6040:	a803      	add	r0, sp, #12
    6042:	f7fd ff8f 	bl	3f64 <mbedtls_mpi_free>
/home/aom1/Work/Linux/target/STM32MP1-DK2/bootloader/optee-os-custom/lib/libmbedtls/mbedtls/library/bignum.c:3284
    6046:	9b00      	ldr	r3, [sp, #0]
/home/aom1/Work/Linux/target/STM32MP1-DK2/bootloader/optee-os-custom/lib/libmbedtls/mbedtls/library/bignum.c:3285
    6048:	4618      	mov	r0, r3
    604a:	b007      	add	sp, #28
    604c:	e8bd 8ff0 	ldmia.w	sp!, {r4, r5, r6, r7, r8, r9, sl, fp, pc}
/home/aom1/Work/Linux/target/STM32MP1-DK2/bootloader/optee-os-custom/lib/libmbedtls/mbedtls/library/bignum.c:3227
    6050:	4653      	mov	r3, sl
    6052:	4642      	mov	r2, r8
    6054:	4631      	mov	r1, r6
    6056:	4628      	mov	r0, r5
    6058:	f7ff fed1 	bl	5dfe <mbedtls_mpi_is_prime_ext>
/home/aom1/Work/Linux/target/STM32MP1-DK2/bootloader/optee-os-custom/lib/libmbedtls/mbedtls/library/bignum.c:3229
    605c:	f110 0f0e 	cmn.w	r0, #14
/home/aom1/Work/Linux/target/STM32MP1-DK2/bootloader/optee-os-custom/lib/libmbedtls/mbedtls/library/bignum.c:3227
    6060:	4603      	mov	r3, r0
/home/aom1/Work/Linux/target/STM32MP1-DK2/bootloader/optee-os-custom/lib/libmbedtls/mbedtls/library/bignum.c:3229
    6062:	f43f af44 	beq.w	5eee <mbedtls_mpi_gen_prime+0x82>
    6066:	e7ea      	b.n	603e <mbedtls_mpi_gen_prime+0x1d2>
/home/aom1/Work/Linux/target/STM32MP1-DK2/bootloader/optee-os-custom/lib/libmbedtls/mbedtls/library/bignum.c:3245
    6068:	2b01      	cmp	r3, #1
    606a:	f47f af74 	bne.w	5f56 <mbedtls_mpi_gen_prime+0xea>
/home/aom1/Work/Linux/target/STM32MP1-DK2/bootloader/optee-os-custom/lib/libmbedtls/mbedtls/library/bignum.c:3246
    606e:	2204      	movs	r2, #4
    6070:	e76a      	b.n	5f48 <mbedtls_mpi_gen_prime+0xdc>
/home/aom1/Work/Linux/target/STM32MP1-DK2/bootloader/optee-os-custom/lib/libmbedtls/mbedtls/library/bignum.c:3188
    6072:	f06f 0303 	mvn.w	r3, #3
    6076:	e7e7      	b.n	6048 <mbedtls_mpi_gen_prime+0x1dc>
    6078:	b504f333 	.word	0xb504f333

0000607c <mbedtls_mpi_self_test>:
mbedtls_mpi_self_test():
/home/aom1/Work/Linux/target/STM32MP1-DK2/bootloader/optee-os-custom/lib/libmbedtls/mbedtls/library/bignum.c:3304
    607c:	e92d 4ff0 	stmdb	sp!, {r4, r5, r6, r7, r8, r9, sl, fp, lr}
    6080:	b09b      	sub	sp, #108	; 0x6c
/home/aom1/Work/Linux/target/STM32MP1-DK2/bootloader/optee-os-custom/lib/libmbedtls/mbedtls/library/bignum.c:3308
    6082:	af05      	add	r7, sp, #20
/home/aom1/Work/Linux/target/STM32MP1-DK2/bootloader/optee-os-custom/lib/libmbedtls/mbedtls/library/bignum.c:3304
    6084:	4604      	mov	r4, r0
/home/aom1/Work/Linux/target/STM32MP1-DK2/bootloader/optee-os-custom/lib/libmbedtls/mbedtls/library/bignum.c:3308
    6086:	f10d 0b20 	add.w	fp, sp, #32
    608a:	4638      	mov	r0, r7
/home/aom1/Work/Linux/target/STM32MP1-DK2/bootloader/optee-os-custom/lib/libmbedtls/mbedtls/library/bignum.c:3309
    608c:	f10d 082c 	add.w	r8, sp, #44	; 0x2c
/home/aom1/Work/Linux/target/STM32MP1-DK2/bootloader/optee-os-custom/lib/libmbedtls/mbedtls/library/bignum.c:3308
    6090:	f7fd ff54 	bl	3f3c <mbedtls_mpi_init_mempool>
    6094:	4658      	mov	r0, fp
/home/aom1/Work/Linux/target/STM32MP1-DK2/bootloader/optee-os-custom/lib/libmbedtls/mbedtls/library/bignum.c:3309
    6096:	ad0e      	add	r5, sp, #56	; 0x38
/home/aom1/Work/Linux/target/STM32MP1-DK2/bootloader/optee-os-custom/lib/libmbedtls/mbedtls/library/bignum.c:3310
    6098:	f10d 0a44 	add.w	sl, sp, #68	; 0x44
/home/aom1/Work/Linux/target/STM32MP1-DK2/bootloader/optee-os-custom/lib/libmbedtls/mbedtls/library/bignum.c:3308
    609c:	f7fd ff4e 	bl	3f3c <mbedtls_mpi_init_mempool>
/home/aom1/Work/Linux/target/STM32MP1-DK2/bootloader/optee-os-custom/lib/libmbedtls/mbedtls/library/bignum.c:3309
    60a0:	4640      	mov	r0, r8
/home/aom1/Work/Linux/target/STM32MP1-DK2/bootloader/optee-os-custom/lib/libmbedtls/mbedtls/library/bignum.c:3310
    60a2:	ae14      	add	r6, sp, #80	; 0x50
/home/aom1/Work/Linux/target/STM32MP1-DK2/bootloader/optee-os-custom/lib/libmbedtls/mbedtls/library/bignum.c:3309
    60a4:	f7fd ff4a 	bl	3f3c <mbedtls_mpi_init_mempool>
    60a8:	4628      	mov	r0, r5
    60aa:	f7fd ff47 	bl	3f3c <mbedtls_mpi_init_mempool>
/home/aom1/Work/Linux/target/STM32MP1-DK2/bootloader/optee-os-custom/lib/libmbedtls/mbedtls/library/bignum.c:3310
    60ae:	4650      	mov	r0, sl
    60b0:	f7fd ff44 	bl	3f3c <mbedtls_mpi_init_mempool>
    60b4:	4630      	mov	r0, r6
    60b6:	f7fd ff41 	bl	3f3c <mbedtls_mpi_init_mempool>
/home/aom1/Work/Linux/target/STM32MP1-DK2/bootloader/optee-os-custom/lib/libmbedtls/mbedtls/library/bignum.c:3311
    60ba:	a817      	add	r0, sp, #92	; 0x5c
    60bc:	f7fd ff3e 	bl	3f3c <mbedtls_mpi_init_mempool>
/home/aom1/Work/Linux/target/STM32MP1-DK2/bootloader/optee-os-custom/lib/libmbedtls/mbedtls/library/bignum.c:3313
    60c0:	4a97      	ldr	r2, [pc, #604]	; (6320 <mbedtls_mpi_self_test+0x2a4>)
    60c2:	2110      	movs	r1, #16
    60c4:	4638      	mov	r0, r7
    60c6:	447a      	add	r2, pc
    60c8:	f7fe fd7c 	bl	4bc4 <mbedtls_mpi_read_string>
    60cc:	4601      	mov	r1, r0
    60ce:	2800      	cmp	r0, #0
    60d0:	f040 8122 	bne.w	6318 <mbedtls_mpi_self_test+0x29c>
/home/aom1/Work/Linux/target/STM32MP1-DK2/bootloader/optee-os-custom/lib/libmbedtls/mbedtls/library/bignum.c:3319 (discriminator 2)
    60d4:	4a93      	ldr	r2, [pc, #588]	; (6324 <mbedtls_mpi_self_test+0x2a8>)
    60d6:	2110      	movs	r1, #16
    60d8:	4658      	mov	r0, fp
    60da:	447a      	add	r2, pc
    60dc:	f7fe fd72 	bl	4bc4 <mbedtls_mpi_read_string>
    60e0:	4601      	mov	r1, r0
    60e2:	2800      	cmp	r0, #0
    60e4:	f040 8118 	bne.w	6318 <mbedtls_mpi_self_test+0x29c>
/home/aom1/Work/Linux/target/STM32MP1-DK2/bootloader/optee-os-custom/lib/libmbedtls/mbedtls/library/bignum.c:3325 (discriminator 2)
    60e8:	4a8f      	ldr	r2, [pc, #572]	; (6328 <mbedtls_mpi_self_test+0x2ac>)
    60ea:	2110      	movs	r1, #16
    60ec:	4640      	mov	r0, r8
    60ee:	447a      	add	r2, pc
    60f0:	f7fe fd68 	bl	4bc4 <mbedtls_mpi_read_string>
    60f4:	4601      	mov	r1, r0
    60f6:	2800      	cmp	r0, #0
    60f8:	f040 810e 	bne.w	6318 <mbedtls_mpi_self_test+0x29c>
/home/aom1/Work/Linux/target/STM32MP1-DK2/bootloader/optee-os-custom/lib/libmbedtls/mbedtls/library/bignum.c:3330 (discriminator 2)
    60fc:	4639      	mov	r1, r7
    60fe:	4642      	mov	r2, r8
    6100:	4628      	mov	r0, r5
    6102:	f7fe fcbe 	bl	4a82 <mbedtls_mpi_mul_mpi>
    6106:	4601      	mov	r1, r0
    6108:	2800      	cmp	r0, #0
    610a:	f040 8105 	bne.w	6318 <mbedtls_mpi_self_test+0x29c>
/home/aom1/Work/Linux/target/STM32MP1-DK2/bootloader/optee-os-custom/lib/libmbedtls/mbedtls/library/bignum.c:3332 (discriminator 2)
    610e:	4a87      	ldr	r2, [pc, #540]	; (632c <mbedtls_mpi_self_test+0x2b0>)
    6110:	2110      	movs	r1, #16
    6112:	4630      	mov	r0, r6
    6114:	447a      	add	r2, pc
    6116:	f7fe fd55 	bl	4bc4 <mbedtls_mpi_read_string>
    611a:	4601      	mov	r1, r0
    611c:	2800      	cmp	r0, #0
    611e:	f040 80fb 	bne.w	6318 <mbedtls_mpi_self_test+0x29c>
/home/aom1/Work/Linux/target/STM32MP1-DK2/bootloader/optee-os-custom/lib/libmbedtls/mbedtls/library/bignum.c:3341 (discriminator 2)
    6122:	b11c      	cbz	r4, 612c <mbedtls_mpi_self_test+0xb0>
/home/aom1/Work/Linux/target/STM32MP1-DK2/bootloader/optee-os-custom/lib/libmbedtls/mbedtls/library/bignum.c:3342
    6124:	4882      	ldr	r0, [pc, #520]	; (6330 <mbedtls_mpi_self_test+0x2b4>)
    6126:	4478      	add	r0, pc
    6128:	f7fa fdcd 	bl	cc6 <printf>
/home/aom1/Work/Linux/target/STM32MP1-DK2/bootloader/optee-os-custom/lib/libmbedtls/mbedtls/library/bignum.c:3344
    612c:	4631      	mov	r1, r6
    612e:	4628      	mov	r0, r5
    6130:	f7fe fabd 	bl	46ae <mbedtls_mpi_cmp_mpi>
    6134:	b360      	cbz	r0, 6190 <mbedtls_mpi_self_test+0x114>
/home/aom1/Work/Linux/target/STM32MP1-DK2/bootloader/optee-os-custom/lib/libmbedtls/mbedtls/library/bignum.c:3346
    6136:	bb04      	cbnz	r4, 617a <mbedtls_mpi_self_test+0xfe>
/home/aom1/Work/Linux/target/STM32MP1-DK2/bootloader/optee-os-custom/lib/libmbedtls/mbedtls/library/bignum.c:3449
    6138:	2101      	movs	r1, #1
    613a:	9103      	str	r1, [sp, #12]
/home/aom1/Work/Linux/target/STM32MP1-DK2/bootloader/optee-os-custom/lib/libmbedtls/mbedtls/library/bignum.c:3454
    613c:	4638      	mov	r0, r7
    613e:	f7fd ff11 	bl	3f64 <mbedtls_mpi_free>
    6142:	4658      	mov	r0, fp
    6144:	f7fd ff0e 	bl	3f64 <mbedtls_mpi_free>
    6148:	4640      	mov	r0, r8
    614a:	f7fd ff0b 	bl	3f64 <mbedtls_mpi_free>
    614e:	4628      	mov	r0, r5
    6150:	f7fd ff08 	bl	3f64 <mbedtls_mpi_free>
/home/aom1/Work/Linux/target/STM32MP1-DK2/bootloader/optee-os-custom/lib/libmbedtls/mbedtls/library/bignum.c:3455
    6154:	4650      	mov	r0, sl
    6156:	f7fd ff05 	bl	3f64 <mbedtls_mpi_free>
    615a:	4630      	mov	r0, r6
    615c:	f7fd ff02 	bl	3f64 <mbedtls_mpi_free>
    6160:	a817      	add	r0, sp, #92	; 0x5c
    6162:	f7fd feff 	bl	3f64 <mbedtls_mpi_free>
/home/aom1/Work/Linux/target/STM32MP1-DK2/bootloader/optee-os-custom/lib/libmbedtls/mbedtls/library/bignum.c:3457
    6166:	9903      	ldr	r1, [sp, #12]
    6168:	b11c      	cbz	r4, 6172 <mbedtls_mpi_self_test+0xf6>
/home/aom1/Work/Linux/target/STM32MP1-DK2/bootloader/optee-os-custom/lib/libmbedtls/mbedtls/library/bignum.c:3458
    616a:	200a      	movs	r0, #10
    616c:	f7fa fdda 	bl	d24 <putchar>
/home/aom1/Work/Linux/target/STM32MP1-DK2/bootloader/optee-os-custom/lib/libmbedtls/mbedtls/library/bignum.c:3460
    6170:	9903      	ldr	r1, [sp, #12]
/home/aom1/Work/Linux/target/STM32MP1-DK2/bootloader/optee-os-custom/lib/libmbedtls/mbedtls/library/bignum.c:3461
    6172:	4608      	mov	r0, r1
    6174:	b01b      	add	sp, #108	; 0x6c
    6176:	e8bd 8ff0 	ldmia.w	sp!, {r4, r5, r6, r7, r8, r9, sl, fp, pc}
/home/aom1/Work/Linux/target/STM32MP1-DK2/bootloader/optee-os-custom/lib/libmbedtls/mbedtls/library/bignum.c:3347
    617a:	486e      	ldr	r0, [pc, #440]	; (6334 <mbedtls_mpi_self_test+0x2b8>)
    617c:	4478      	add	r0, pc
    617e:	f7fa fdbf 	bl	d00 <puts>
/home/aom1/Work/Linux/target/STM32MP1-DK2/bootloader/optee-os-custom/lib/libmbedtls/mbedtls/library/bignum.c:3439
    6182:	2101      	movs	r1, #1
/home/aom1/Work/Linux/target/STM32MP1-DK2/bootloader/optee-os-custom/lib/libmbedtls/mbedtls/library/bignum.c:3452
    6184:	486c      	ldr	r0, [pc, #432]	; (6338 <mbedtls_mpi_self_test+0x2bc>)
    6186:	9103      	str	r1, [sp, #12]
    6188:	4478      	add	r0, pc
    618a:	f7fa fd9c 	bl	cc6 <printf>
    618e:	e0c1      	b.n	6314 <mbedtls_mpi_self_test+0x298>
/home/aom1/Work/Linux/target/STM32MP1-DK2/bootloader/optee-os-custom/lib/libmbedtls/mbedtls/library/bignum.c:3353
    6190:	b11c      	cbz	r4, 619a <mbedtls_mpi_self_test+0x11e>
/home/aom1/Work/Linux/target/STM32MP1-DK2/bootloader/optee-os-custom/lib/libmbedtls/mbedtls/library/bignum.c:3354
    6192:	486a      	ldr	r0, [pc, #424]	; (633c <mbedtls_mpi_self_test+0x2c0>)
    6194:	4478      	add	r0, pc
    6196:	f7fa fdb3 	bl	d00 <puts>
/home/aom1/Work/Linux/target/STM32MP1-DK2/bootloader/optee-os-custom/lib/libmbedtls/mbedtls/library/bignum.c:3356
    619a:	4651      	mov	r1, sl
    619c:	4643      	mov	r3, r8
    619e:	463a      	mov	r2, r7
    61a0:	4628      	mov	r0, r5
    61a2:	f7fe fd9d 	bl	4ce0 <mbedtls_mpi_div_mpi>
    61a6:	4601      	mov	r1, r0
    61a8:	2800      	cmp	r0, #0
    61aa:	f040 80b5 	bne.w	6318 <mbedtls_mpi_self_test+0x29c>
/home/aom1/Work/Linux/target/STM32MP1-DK2/bootloader/optee-os-custom/lib/libmbedtls/mbedtls/library/bignum.c:3358 (discriminator 2)
    61ae:	4a64      	ldr	r2, [pc, #400]	; (6340 <mbedtls_mpi_self_test+0x2c4>)
    61b0:	2110      	movs	r1, #16
    61b2:	4630      	mov	r0, r6
    61b4:	447a      	add	r2, pc
    61b6:	f7fe fd05 	bl	4bc4 <mbedtls_mpi_read_string>
    61ba:	4601      	mov	r1, r0
    61bc:	2800      	cmp	r0, #0
    61be:	f040 80ab 	bne.w	6318 <mbedtls_mpi_self_test+0x29c>
/home/aom1/Work/Linux/target/STM32MP1-DK2/bootloader/optee-os-custom/lib/libmbedtls/mbedtls/library/bignum.c:3361 (discriminator 2)
    61c2:	4a60      	ldr	r2, [pc, #384]	; (6344 <mbedtls_mpi_self_test+0x2c8>)
    61c4:	f10d 095c 	add.w	r9, sp, #92	; 0x5c
    61c8:	2110      	movs	r1, #16
    61ca:	4648      	mov	r0, r9
    61cc:	447a      	add	r2, pc
    61ce:	f7fe fcf9 	bl	4bc4 <mbedtls_mpi_read_string>
    61d2:	4601      	mov	r1, r0
    61d4:	2800      	cmp	r0, #0
    61d6:	f040 809f 	bne.w	6318 <mbedtls_mpi_self_test+0x29c>
/home/aom1/Work/Linux/target/STM32MP1-DK2/bootloader/optee-os-custom/lib/libmbedtls/mbedtls/library/bignum.c:3366 (discriminator 2)
    61da:	b11c      	cbz	r4, 61e4 <mbedtls_mpi_self_test+0x168>
/home/aom1/Work/Linux/target/STM32MP1-DK2/bootloader/optee-os-custom/lib/libmbedtls/mbedtls/library/bignum.c:3367
    61dc:	485a      	ldr	r0, [pc, #360]	; (6348 <mbedtls_mpi_self_test+0x2cc>)
    61de:	4478      	add	r0, pc
    61e0:	f7fa fd71 	bl	cc6 <printf>
/home/aom1/Work/Linux/target/STM32MP1-DK2/bootloader/optee-os-custom/lib/libmbedtls/mbedtls/library/bignum.c:3369
    61e4:	4631      	mov	r1, r6
    61e6:	4628      	mov	r0, r5
    61e8:	f7fe fa61 	bl	46ae <mbedtls_mpi_cmp_mpi>
    61ec:	2800      	cmp	r0, #0
    61ee:	d1a2      	bne.n	6136 <mbedtls_mpi_self_test+0xba>
/home/aom1/Work/Linux/target/STM32MP1-DK2/bootloader/optee-os-custom/lib/libmbedtls/mbedtls/library/bignum.c:3370 (discriminator 1)
    61f0:	4649      	mov	r1, r9
    61f2:	4650      	mov	r0, sl
    61f4:	f7fe fa5b 	bl	46ae <mbedtls_mpi_cmp_mpi>
/home/aom1/Work/Linux/target/STM32MP1-DK2/bootloader/optee-os-custom/lib/libmbedtls/mbedtls/library/bignum.c:3369 (discriminator 1)
    61f8:	2800      	cmp	r0, #0
    61fa:	d19c      	bne.n	6136 <mbedtls_mpi_self_test+0xba>
/home/aom1/Work/Linux/target/STM32MP1-DK2/bootloader/optee-os-custom/lib/libmbedtls/mbedtls/library/bignum.c:3379
    61fc:	b11c      	cbz	r4, 6206 <mbedtls_mpi_self_test+0x18a>
/home/aom1/Work/Linux/target/STM32MP1-DK2/bootloader/optee-os-custom/lib/libmbedtls/mbedtls/library/bignum.c:3380
    61fe:	4853      	ldr	r0, [pc, #332]	; (634c <mbedtls_mpi_self_test+0x2d0>)
    6200:	4478      	add	r0, pc
    6202:	f7fa fd7d 	bl	d00 <puts>
/home/aom1/Work/Linux/target/STM32MP1-DK2/bootloader/optee-os-custom/lib/libmbedtls/mbedtls/library/bignum.c:3382
    6206:	2300      	movs	r3, #0
    6208:	4639      	mov	r1, r7
    620a:	9300      	str	r3, [sp, #0]
    620c:	465a      	mov	r2, fp
    620e:	4643      	mov	r3, r8
    6210:	4628      	mov	r0, r5
    6212:	f7ff f878 	bl	5306 <mbedtls_mpi_exp_mod>
    6216:	4601      	mov	r1, r0
    6218:	2800      	cmp	r0, #0
    621a:	d17d      	bne.n	6318 <mbedtls_mpi_self_test+0x29c>
/home/aom1/Work/Linux/target/STM32MP1-DK2/bootloader/optee-os-custom/lib/libmbedtls/mbedtls/library/bignum.c:3384 (discriminator 2)
    621c:	4a4c      	ldr	r2, [pc, #304]	; (6350 <mbedtls_mpi_self_test+0x2d4>)
    621e:	2110      	movs	r1, #16
    6220:	4630      	mov	r0, r6
    6222:	447a      	add	r2, pc
    6224:	f7fe fcce 	bl	4bc4 <mbedtls_mpi_read_string>
    6228:	4601      	mov	r1, r0
    622a:	2800      	cmp	r0, #0
    622c:	d174      	bne.n	6318 <mbedtls_mpi_self_test+0x29c>
/home/aom1/Work/Linux/target/STM32MP1-DK2/bootloader/optee-os-custom/lib/libmbedtls/mbedtls/library/bignum.c:3389 (discriminator 2)
    622e:	b11c      	cbz	r4, 6238 <mbedtls_mpi_self_test+0x1bc>
/home/aom1/Work/Linux/target/STM32MP1-DK2/bootloader/optee-os-custom/lib/libmbedtls/mbedtls/library/bignum.c:3390
    6230:	4848      	ldr	r0, [pc, #288]	; (6354 <mbedtls_mpi_self_test+0x2d8>)
    6232:	4478      	add	r0, pc
    6234:	f7fa fd47 	bl	cc6 <printf>
/home/aom1/Work/Linux/target/STM32MP1-DK2/bootloader/optee-os-custom/lib/libmbedtls/mbedtls/library/bignum.c:3392
    6238:	4631      	mov	r1, r6
    623a:	4628      	mov	r0, r5
    623c:	f7fe fa37 	bl	46ae <mbedtls_mpi_cmp_mpi>
    6240:	2800      	cmp	r0, #0
    6242:	f47f af78 	bne.w	6136 <mbedtls_mpi_self_test+0xba>
/home/aom1/Work/Linux/target/STM32MP1-DK2/bootloader/optee-os-custom/lib/libmbedtls/mbedtls/library/bignum.c:3401
    6246:	b11c      	cbz	r4, 6250 <mbedtls_mpi_self_test+0x1d4>
/home/aom1/Work/Linux/target/STM32MP1-DK2/bootloader/optee-os-custom/lib/libmbedtls/mbedtls/library/bignum.c:3402
    6248:	4843      	ldr	r0, [pc, #268]	; (6358 <mbedtls_mpi_self_test+0x2dc>)
    624a:	4478      	add	r0, pc
    624c:	f7fa fd58 	bl	d00 <puts>
/home/aom1/Work/Linux/target/STM32MP1-DK2/bootloader/optee-os-custom/lib/libmbedtls/mbedtls/library/bignum.c:3404
    6250:	4639      	mov	r1, r7
    6252:	4642      	mov	r2, r8
    6254:	4628      	mov	r0, r5
    6256:	f7ff fc5f 	bl	5b18 <mbedtls_mpi_inv_mod>
    625a:	4601      	mov	r1, r0
    625c:	2800      	cmp	r0, #0
    625e:	d15b      	bne.n	6318 <mbedtls_mpi_self_test+0x29c>
/home/aom1/Work/Linux/target/STM32MP1-DK2/bootloader/optee-os-custom/lib/libmbedtls/mbedtls/library/bignum.c:3406 (discriminator 2)
    6260:	4a3e      	ldr	r2, [pc, #248]	; (635c <mbedtls_mpi_self_test+0x2e0>)
    6262:	2110      	movs	r1, #16
    6264:	4630      	mov	r0, r6
    6266:	447a      	add	r2, pc
    6268:	f7fe fcac 	bl	4bc4 <mbedtls_mpi_read_string>
    626c:	4601      	mov	r1, r0
    626e:	2800      	cmp	r0, #0
    6270:	d152      	bne.n	6318 <mbedtls_mpi_self_test+0x29c>
/home/aom1/Work/Linux/target/STM32MP1-DK2/bootloader/optee-os-custom/lib/libmbedtls/mbedtls/library/bignum.c:3411 (discriminator 2)
    6272:	b11c      	cbz	r4, 627c <mbedtls_mpi_self_test+0x200>
/home/aom1/Work/Linux/target/STM32MP1-DK2/bootloader/optee-os-custom/lib/libmbedtls/mbedtls/library/bignum.c:3412
    6274:	483a      	ldr	r0, [pc, #232]	; (6360 <mbedtls_mpi_self_test+0x2e4>)
    6276:	4478      	add	r0, pc
    6278:	f7fa fd25 	bl	cc6 <printf>
/home/aom1/Work/Linux/target/STM32MP1-DK2/bootloader/optee-os-custom/lib/libmbedtls/mbedtls/library/bignum.c:3414
    627c:	4631      	mov	r1, r6
    627e:	4628      	mov	r0, r5
    6280:	f7fe fa15 	bl	46ae <mbedtls_mpi_cmp_mpi>
    6284:	4681      	mov	r9, r0
    6286:	2800      	cmp	r0, #0
    6288:	f47f af55 	bne.w	6136 <mbedtls_mpi_self_test+0xba>
/home/aom1/Work/Linux/target/STM32MP1-DK2/bootloader/optee-os-custom/lib/libmbedtls/mbedtls/library/bignum.c:3423
    628c:	b13c      	cbz	r4, 629e <mbedtls_mpi_self_test+0x222>
/home/aom1/Work/Linux/target/STM32MP1-DK2/bootloader/optee-os-custom/lib/libmbedtls/mbedtls/library/bignum.c:3424
    628e:	4835      	ldr	r0, [pc, #212]	; (6364 <mbedtls_mpi_self_test+0x2e8>)
    6290:	4478      	add	r0, pc
    6292:	f7fa fd35 	bl	d00 <puts>
/home/aom1/Work/Linux/target/STM32MP1-DK2/bootloader/optee-os-custom/lib/libmbedtls/mbedtls/library/bignum.c:3427
    6296:	4834      	ldr	r0, [pc, #208]	; (6368 <mbedtls_mpi_self_test+0x2ec>)
    6298:	4478      	add	r0, pc
    629a:	f7fa fd14 	bl	cc6 <printf>
    629e:	4b33      	ldr	r3, [pc, #204]	; (636c <mbedtls_mpi_self_test+0x2f0>)
    62a0:	447b      	add	r3, pc
    62a2:	f503 7328 	add.w	r3, r3, #672	; 0x2a0
    62a6:	9303      	str	r3, [sp, #12]
/home/aom1/Work/Linux/target/STM32MP1-DK2/bootloader/optee-os-custom/lib/libmbedtls/mbedtls/library/bignum.c:3431
    62a8:	9b03      	ldr	r3, [sp, #12]
    62aa:	4628      	mov	r0, r5
    62ac:	6819      	ldr	r1, [r3, #0]
    62ae:	f7fe f803 	bl	42b8 <mbedtls_mpi_lset>
    62b2:	4601      	mov	r1, r0
    62b4:	bb80      	cbnz	r0, 6318 <mbedtls_mpi_self_test+0x29c>
/home/aom1/Work/Linux/target/STM32MP1-DK2/bootloader/optee-os-custom/lib/libmbedtls/mbedtls/library/bignum.c:3432 (discriminator 2)
    62b6:	9b03      	ldr	r3, [sp, #12]
    62b8:	4650      	mov	r0, sl
    62ba:	6859      	ldr	r1, [r3, #4]
    62bc:	f7fd fffc 	bl	42b8 <mbedtls_mpi_lset>
    62c0:	4601      	mov	r1, r0
    62c2:	bb48      	cbnz	r0, 6318 <mbedtls_mpi_self_test+0x29c>
/home/aom1/Work/Linux/target/STM32MP1-DK2/bootloader/optee-os-custom/lib/libmbedtls/mbedtls/library/bignum.c:3434 (discriminator 2)
    62c4:	4629      	mov	r1, r5
    62c6:	4652      	mov	r2, sl
    62c8:	4638      	mov	r0, r7
    62ca:	f7ff fa4f 	bl	576c <mbedtls_mpi_gcd>
    62ce:	4601      	mov	r1, r0
    62d0:	bb10      	cbnz	r0, 6318 <mbedtls_mpi_self_test+0x29c>
/home/aom1/Work/Linux/target/STM32MP1-DK2/bootloader/optee-os-custom/lib/libmbedtls/mbedtls/library/bignum.c:3436 (discriminator 2)
    62d2:	9b03      	ldr	r3, [sp, #12]
    62d4:	4638      	mov	r0, r7
    62d6:	6899      	ldr	r1, [r3, #8]
    62d8:	f7fe fa7d 	bl	47d6 <mbedtls_mpi_cmp_int>
    62dc:	4601      	mov	r1, r0
    62de:	b140      	cbz	r0, 62f2 <mbedtls_mpi_self_test+0x276>
/home/aom1/Work/Linux/target/STM32MP1-DK2/bootloader/optee-os-custom/lib/libmbedtls/mbedtls/library/bignum.c:3438
    62e0:	2c00      	cmp	r4, #0
    62e2:	f43f af29 	beq.w	6138 <mbedtls_mpi_self_test+0xbc>
/home/aom1/Work/Linux/target/STM32MP1-DK2/bootloader/optee-os-custom/lib/libmbedtls/mbedtls/library/bignum.c:3439
    62e6:	4822      	ldr	r0, [pc, #136]	; (6370 <mbedtls_mpi_self_test+0x2f4>)
    62e8:	4649      	mov	r1, r9
    62ea:	4478      	add	r0, pc
    62ec:	f7fa fceb 	bl	cc6 <printf>
    62f0:	e747      	b.n	6182 <mbedtls_mpi_self_test+0x106>
/home/aom1/Work/Linux/target/STM32MP1-DK2/bootloader/optee-os-custom/lib/libmbedtls/mbedtls/library/bignum.c:3429 (discriminator 2)
    62f2:	9b03      	ldr	r3, [sp, #12]
    62f4:	f109 0901 	add.w	r9, r9, #1
    62f8:	f1b9 0f03 	cmp.w	r9, #3
    62fc:	f103 030c 	add.w	r3, r3, #12
    6300:	9303      	str	r3, [sp, #12]
    6302:	d1d1      	bne.n	62a8 <mbedtls_mpi_self_test+0x22c>
/home/aom1/Work/Linux/target/STM32MP1-DK2/bootloader/optee-os-custom/lib/libmbedtls/mbedtls/library/bignum.c:3446
    6304:	2c00      	cmp	r4, #0
    6306:	f43f af18 	beq.w	613a <mbedtls_mpi_self_test+0xbe>
    630a:	9003      	str	r0, [sp, #12]
/home/aom1/Work/Linux/target/STM32MP1-DK2/bootloader/optee-os-custom/lib/libmbedtls/mbedtls/library/bignum.c:3447
    630c:	4819      	ldr	r0, [pc, #100]	; (6374 <mbedtls_mpi_self_test+0x2f8>)
    630e:	4478      	add	r0, pc
    6310:	f7fa fcf6 	bl	d00 <puts>
/home/aom1/Work/Linux/target/STM32MP1-DK2/bootloader/optee-os-custom/lib/libmbedtls/mbedtls/library/bignum.c:3452
    6314:	9903      	ldr	r1, [sp, #12]
    6316:	e710      	b.n	613a <mbedtls_mpi_self_test+0xbe>
/home/aom1/Work/Linux/target/STM32MP1-DK2/bootloader/optee-os-custom/lib/libmbedtls/mbedtls/library/bignum.c:3451
    6318:	2c00      	cmp	r4, #0
    631a:	f43f af0e 	beq.w	613a <mbedtls_mpi_self_test+0xbe>
    631e:	e731      	b.n	6184 <mbedtls_mpi_self_test+0x108>
    6320:	0000195f 	.word	0x0000195f
    6324:	000019cc 	.word	0x000019cc
    6328:	00001a39 	.word	0x00001a39
    632c:	00001a74 	.word	0x00001a74
    6330:	00001b41 	.word	0x00001b41
    6334:	0000184a 	.word	0x0000184a
    6338:	00001cbc 	.word	0x00001cbc
    633c:	00001aed 	.word	0x00001aed
    6340:	00001ad4 	.word	0x00001ad4
    6344:	00001ae0 	.word	0x00001ae0
    6348:	00001b2d 	.word	0x00001b2d
    634c:	00001a81 	.word	0x00001a81
    6350:	00001b03 	.word	0x00001b03
    6354:	00001b52 	.word	0x00001b52
    6358:	00001a37 	.word	0x00001a37
    635c:	00001b38 	.word	0x00001b38
    6360:	00001b89 	.word	0x00001b89
    6364:	000019f1 	.word	0x000019f1
    6368:	00001b81 	.word	0x00001b81
    636c:	00000f18 	.word	0x00000f18
    6370:	00001b4c 	.word	0x00001b4c
    6374:	00001973 	.word	0x00001973

00006378 <mbedtls_platform_zeroize>:
mbedtls_platform_zeroize():
/home/aom1/Work/Linux/target/STM32MP1-DK2/bootloader/optee-os-custom/lib/libmbedtls/mbedtls/library/platform_util.c:71
    6378:	460a      	mov	r2, r1
    637a:	b121      	cbz	r1, 6386 <mbedtls_platform_zeroize+0xe>
/home/aom1/Work/Linux/target/STM32MP1-DK2/bootloader/optee-os-custom/lib/libmbedtls/mbedtls/library/platform_util.c:72
    637c:	4b02      	ldr	r3, [pc, #8]	; (6388 <mbedtls_platform_zeroize+0x10>)
    637e:	2100      	movs	r1, #0
    6380:	447b      	add	r3, pc
    6382:	681b      	ldr	r3, [r3, #0]
    6384:	4718      	bx	r3
/home/aom1/Work/Linux/target/STM32MP1-DK2/bootloader/optee-os-custom/lib/libmbedtls/mbedtls/library/platform_util.c:73
    6386:	4770      	bx	lr
    6388:	00002eac 	.word	0x00002eac

0000638c <raw_malloc_return_hook>:
raw_malloc_return_hook():
/home/aom1/Work/Linux/target/STM32MP1-DK2/bootloader/optee-os-custom/lib/libutils/isoc/bget_malloc.c:211
    638c:	6913      	ldr	r3, [r2, #16]
/home/aom1/Work/Linux/target/STM32MP1-DK2/bootloader/optee-os-custom/lib/libutils/isoc/bget_malloc.c:210
    638e:	b510      	push	{r4, lr}
/home/aom1/Work/Linux/target/STM32MP1-DK2/bootloader/optee-os-custom/lib/libutils/isoc/bget_malloc.c:211
    6390:	6c94      	ldr	r4, [r2, #72]	; 0x48
    6392:	42a3      	cmp	r3, r4
/home/aom1/Work/Linux/target/STM32MP1-DK2/bootloader/optee-os-custom/lib/libutils/isoc/bget_malloc.c:212
    6394:	bf88      	it	hi
    6396:	6493      	strhi	r3, [r2, #72]	; 0x48
/home/aom1/Work/Linux/target/STM32MP1-DK2/bootloader/optee-os-custom/lib/libutils/isoc/bget_malloc.c:214
    6398:	b938      	cbnz	r0, 63aa <raw_malloc_return_hook+0x1e>
/home/aom1/Work/Linux/target/STM32MP1-DK2/bootloader/optee-os-custom/lib/libutils/isoc/bget_malloc.c:215
    639a:	6d10      	ldr	r0, [r2, #80]	; 0x50
    639c:	3001      	adds	r0, #1
    639e:	6510      	str	r0, [r2, #80]	; 0x50
/home/aom1/Work/Linux/target/STM32MP1-DK2/bootloader/optee-os-custom/lib/libutils/isoc/bget_malloc.c:217
    63a0:	6d50      	ldr	r0, [r2, #84]	; 0x54
    63a2:	4288      	cmp	r0, r1
/home/aom1/Work/Linux/target/STM32MP1-DK2/bootloader/optee-os-custom/lib/libutils/isoc/bget_malloc.c:218
    63a4:	bf3c      	itt	cc
    63a6:	6551      	strcc	r1, [r2, #84]	; 0x54
/home/aom1/Work/Linux/target/STM32MP1-DK2/bootloader/optee-os-custom/lib/libutils/isoc/bget_malloc.c:219
    63a8:	6593      	strcc	r3, [r2, #88]	; 0x58
/home/aom1/Work/Linux/target/STM32MP1-DK2/bootloader/optee-os-custom/lib/libutils/isoc/bget_malloc.c:223
    63aa:	bd10      	pop	{r4, pc}

000063ac <bget>:
bget():
/home/aom1/Work/Linux/target/STM32MP1-DK2/bootloader/optee-os-custom/lib/libutils/isoc/bget.c:625
    63ac:	2a00      	cmp	r2, #0
/home/aom1/Work/Linux/target/STM32MP1-DK2/bootloader/optee-os-custom/lib/libutils/isoc/bget.c:612
    63ae:	b5f8      	push	{r3, r4, r5, r6, r7, lr}
    63b0:	4605      	mov	r5, r0
/home/aom1/Work/Linux/target/STM32MP1-DK2/bootloader/optee-os-custom/lib/libutils/isoc/bget.c:625
    63b2:	dc0b      	bgt.n	63cc <bget+0x20>
/home/aom1/Work/Linux/target/STM32MP1-DK2/bootloader/optee-os-custom/lib/libutils/isoc/bget.c:625 (discriminator 1)
    63b4:	4b65      	ldr	r3, [pc, #404]	; (654c <bget+0x1a0>)
    63b6:	f240 2271 	movw	r2, #625	; 0x271
    63ba:	4965      	ldr	r1, [pc, #404]	; (6550 <bget+0x1a4>)
    63bc:	4865      	ldr	r0, [pc, #404]	; (6554 <bget+0x1a8>)
    63be:	447b      	add	r3, pc
    63c0:	4479      	add	r1, pc
    63c2:	4478      	add	r0, pc
/home/aom1/Work/Linux/target/STM32MP1-DK2/bootloader/optee-os-custom/lib/libutils/isoc/bget.c:690 (discriminator 1)
    63c4:	f7fd fac6 	bl	3954 <_assert_log>
    63c8:	f7fd fad8 	bl	397c <_assert_break>
/home/aom1/Work/Linux/target/STM32MP1-DK2/bootloader/optee-os-custom/lib/libutils/isoc/bget.c:628 (discriminator 2)
    63cc:	2800      	cmp	r0, #0
    63ce:	db22      	blt.n	6416 <bget+0x6a>
/home/aom1/Work/Linux/target/STM32MP1-DK2/bootloader/optee-os-custom/lib/libutils/isoc/bget.c:628 (discriminator 1)
    63d0:	d003      	beq.n	63da <bget+0x2e>
/home/aom1/Work/Linux/target/STM32MP1-DK2/bootloader/optee-os-custom/lib/libutils/isoc/bget.c:628 (discriminator 3)
    63d2:	4240      	negs	r0, r0
    63d4:	ea35 0000 	bics.w	r0, r5, r0
    63d8:	d11d      	bne.n	6416 <bget+0x6a>
/home/aom1/Work/Linux/target/STM32MP1-DK2/bootloader/optee-os-custom/lib/libutils/isoc/bget.c:630
    63da:	f011 0007 	ands.w	r0, r1, #7
    63de:	d11a      	bne.n	6416 <bget+0x6a>
/home/aom1/Work/Linux/target/STM32MP1-DK2/bootloader/optee-os-custom/lib/libutils/isoc/bget.c:640
    63e0:	2a08      	cmp	r2, #8
    63e2:	bfb8      	it	lt
    63e4:	2208      	movlt	r2, #8
    63e6:	1dd4      	adds	r4, r2, #7
    63e8:	d415      	bmi.n	6416 <bget+0x6a>
    63ea:	4294      	cmp	r4, r2
    63ec:	d313      	bcc.n	6416 <bget+0x6a>
/home/aom1/Work/Linux/target/STM32MP1-DK2/bootloader/optee-os-custom/lib/libutils/isoc/bget.c:643
    63ee:	f024 0407 	bic.w	r4, r4, #7
/home/aom1/Work/Linux/target/STM32MP1-DK2/bootloader/optee-os-custom/lib/libutils/isoc/bget.c:648
    63f2:	3408      	adds	r4, #8
    63f4:	d700      	bvc.n	63f8 <bget+0x4c>
/home/aom1/Work/Linux/target/STM32MP1-DK2/bootloader/optee-os-custom/lib/libutils/isoc/bget.c:839
    63f6:	bdf8      	pop	{r3, r4, r5, r6, r7, pc}
/home/aom1/Work/Linux/target/STM32MP1-DK2/bootloader/optee-os-custom/lib/libutils/isoc/bget.c:650
    63f8:	1864      	adds	r4, r4, r1
    63fa:	d6fc      	bvs.n	63f6 <bget+0x4a>
/home/aom1/Work/Linux/target/STM32MP1-DK2/bootloader/optee-os-custom/lib/libutils/isoc/bget.c:660
    63fc:	689a      	ldr	r2, [r3, #8]
    63fe:	2d08      	cmp	r5, #8
buf_get_pos():
/home/aom1/Work/Linux/target/STM32MP1-DK2/bootloader/optee-os-custom/lib/libutils/isoc/bget.c:599
    6400:	f8df e154 	ldr.w	lr, [pc, #340]	; 6558 <bget+0x1ac>
    6404:	bfb8      	it	lt
    6406:	2508      	movlt	r5, #8
/home/aom1/Work/Linux/target/STM32MP1-DK2/bootloader/optee-os-custom/lib/libutils/isoc/bget.c:592
    6408:	f101 0c08 	add.w	ip, r1, #8
/home/aom1/Work/Linux/target/STM32MP1-DK2/bootloader/optee-os-custom/lib/libutils/isoc/bget.c:594
    640c:	4268      	negs	r0, r5
/home/aom1/Work/Linux/target/STM32MP1-DK2/bootloader/optee-os-custom/lib/libutils/isoc/bget.c:592
    640e:	ebac 0c04 	sub.w	ip, ip, r4
bget():
/home/aom1/Work/Linux/target/STM32MP1-DK2/bootloader/optee-os-custom/lib/libutils/isoc/bget.c:684
    6412:	4293      	cmp	r3, r2
    6414:	d101      	bne.n	641a <bget+0x6e>
/home/aom1/Work/Linux/target/STM32MP1-DK2/bootloader/optee-os-custom/lib/libutils/isoc/bget.c:629
    6416:	2000      	movs	r0, #0
    6418:	e7ed      	b.n	63f6 <bget+0x4a>
buf_get_pos():
/home/aom1/Work/Linux/target/STM32MP1-DK2/bootloader/optee-os-custom/lib/libutils/isoc/bget.c:585
    641a:	6856      	ldr	r6, [r2, #4]
    641c:	42b4      	cmp	r4, r6
    641e:	f300 8093 	bgt.w	6548 <bget+0x19c>
/home/aom1/Work/Linux/target/STM32MP1-DK2/bootloader/optee-os-custom/lib/libutils/isoc/bget.c:592
    6422:	eb0c 0502 	add.w	r5, ip, r2
    6426:	4435      	add	r5, r6
/home/aom1/Work/Linux/target/STM32MP1-DK2/bootloader/optee-os-custom/lib/libutils/isoc/bget.c:595
    6428:	1857      	adds	r7, r2, r1
/home/aom1/Work/Linux/target/STM32MP1-DK2/bootloader/optee-os-custom/lib/libutils/isoc/bget.c:594
    642a:	4005      	ands	r5, r0
/home/aom1/Work/Linux/target/STM32MP1-DK2/bootloader/optee-os-custom/lib/libutils/isoc/bget.c:595
    642c:	1bed      	subs	r5, r5, r7
/home/aom1/Work/Linux/target/STM32MP1-DK2/bootloader/optee-os-custom/lib/libutils/isoc/bget.c:597
    642e:	f1b5 0708 	subs.w	r7, r5, #8
    6432:	d003      	beq.n	643c <bget+0x90>
/home/aom1/Work/Linux/target/STM32MP1-DK2/bootloader/optee-os-custom/lib/libutils/isoc/bget.c:599
    6434:	3d18      	subs	r5, #24
    6436:	4575      	cmp	r5, lr
    6438:	f200 8086 	bhi.w	6548 <bget+0x19c>
bget():
/home/aom1/Work/Linux/target/STM32MP1-DK2/bootloader/optee-os-custom/lib/libutils/isoc/bget.c:690
    643c:	5991      	ldr	r1, [r2, r6]
/home/aom1/Work/Linux/target/STM32MP1-DK2/bootloader/optee-os-custom/lib/libutils/isoc/bget.c:687
    643e:	19d0      	adds	r0, r2, r7
/home/aom1/Work/Linux/target/STM32MP1-DK2/bootloader/optee-os-custom/lib/libutils/isoc/bget.c:690
    6440:	42b1      	cmp	r1, r6
/home/aom1/Work/Linux/target/STM32MP1-DK2/bootloader/optee-os-custom/lib/libutils/isoc/bget.c:688
    6442:	eb02 0c06 	add.w	ip, r2, r6
/home/aom1/Work/Linux/target/STM32MP1-DK2/bootloader/optee-os-custom/lib/libutils/isoc/bget.c:690
    6446:	d008      	beq.n	645a <bget+0xae>
/home/aom1/Work/Linux/target/STM32MP1-DK2/bootloader/optee-os-custom/lib/libutils/isoc/bget.c:690 (discriminator 1)
    6448:	4b44      	ldr	r3, [pc, #272]	; (655c <bget+0x1b0>)
    644a:	f240 22b2 	movw	r2, #690	; 0x2b2
    644e:	4944      	ldr	r1, [pc, #272]	; (6560 <bget+0x1b4>)
    6450:	4844      	ldr	r0, [pc, #272]	; (6564 <bget+0x1b8>)
    6452:	447b      	add	r3, pc
    6454:	4479      	add	r1, pc
    6456:	4478      	add	r0, pc
    6458:	e7b4      	b.n	63c4 <bget+0x18>
/home/aom1/Work/Linux/target/STM32MP1-DK2/bootloader/optee-os-custom/lib/libutils/isoc/bget.c:696 (discriminator 2)
    645a:	2100      	movs	r1, #0
    645c:	5191      	str	r1, [r2, r6]
/home/aom1/Work/Linux/target/STM32MP1-DK2/bootloader/optee-os-custom/lib/libutils/isoc/bget.c:698 (discriminator 2)
    645e:	68d1      	ldr	r1, [r2, #12]
    6460:	688d      	ldr	r5, [r1, #8]
    6462:	4295      	cmp	r5, r2
    6464:	d008      	beq.n	6478 <bget+0xcc>
/home/aom1/Work/Linux/target/STM32MP1-DK2/bootloader/optee-os-custom/lib/libutils/isoc/bget.c:698 (discriminator 1)
    6466:	4b40      	ldr	r3, [pc, #256]	; (6568 <bget+0x1bc>)
    6468:	f240 22ba 	movw	r2, #698	; 0x2ba
    646c:	493f      	ldr	r1, [pc, #252]	; (656c <bget+0x1c0>)
    646e:	4840      	ldr	r0, [pc, #256]	; (6570 <bget+0x1c4>)
    6470:	447b      	add	r3, pc
    6472:	4479      	add	r1, pc
    6474:	4478      	add	r0, pc
    6476:	e7a5      	b.n	63c4 <bget+0x18>
/home/aom1/Work/Linux/target/STM32MP1-DK2/bootloader/optee-os-custom/lib/libutils/isoc/bget.c:699 (discriminator 2)
    6478:	f8d2 e008 	ldr.w	lr, [r2, #8]
    647c:	f8de 500c 	ldr.w	r5, [lr, #12]
    6480:	4295      	cmp	r5, r2
    6482:	d008      	beq.n	6496 <bget+0xea>
/home/aom1/Work/Linux/target/STM32MP1-DK2/bootloader/optee-os-custom/lib/libutils/isoc/bget.c:699 (discriminator 1)
    6484:	4b3b      	ldr	r3, [pc, #236]	; (6574 <bget+0x1c8>)
    6486:	f240 22bb 	movw	r2, #699	; 0x2bb
    648a:	493b      	ldr	r1, [pc, #236]	; (6578 <bget+0x1cc>)
    648c:	483b      	ldr	r0, [pc, #236]	; (657c <bget+0x1d0>)
    648e:	447b      	add	r3, pc
    6490:	4479      	add	r1, pc
    6492:	4478      	add	r0, pc
    6494:	e796      	b.n	63c4 <bget+0x18>
/home/aom1/Work/Linux/target/STM32MP1-DK2/bootloader/optee-os-custom/lib/libutils/isoc/bget.c:701 (discriminator 2)
    6496:	b98f      	cbnz	r7, 64bc <bget+0x110>
/home/aom1/Work/Linux/target/STM32MP1-DK2/bootloader/optee-os-custom/lib/libutils/isoc/bget.c:706
    6498:	f8c1 e008 	str.w	lr, [r1, #8]
/home/aom1/Work/Linux/target/STM32MP1-DK2/bootloader/optee-os-custom/lib/libutils/isoc/bget.c:707
    649c:	6897      	ldr	r7, [r2, #8]
    649e:	60f9      	str	r1, [r7, #12]
/home/aom1/Work/Linux/target/STM32MP1-DK2/bootloader/optee-os-custom/lib/libutils/isoc/bget.c:710
    64a0:	4277      	negs	r7, r6
    64a2:	6057      	str	r7, [r2, #4]
/home/aom1/Work/Linux/target/STM32MP1-DK2/bootloader/optee-os-custom/lib/libutils/isoc/bget.c:721
    64a4:	6841      	ldr	r1, [r0, #4]
    64a6:	2900      	cmp	r1, #0
    64a8:	db0c      	blt.n	64c4 <bget+0x118>
/home/aom1/Work/Linux/target/STM32MP1-DK2/bootloader/optee-os-custom/lib/libutils/isoc/bget.c:721 (discriminator 1)
    64aa:	4b35      	ldr	r3, [pc, #212]	; (6580 <bget+0x1d4>)
    64ac:	f240 22d1 	movw	r2, #721	; 0x2d1
    64b0:	4934      	ldr	r1, [pc, #208]	; (6584 <bget+0x1d8>)
    64b2:	4835      	ldr	r0, [pc, #212]	; (6588 <bget+0x1dc>)
    64b4:	447b      	add	r3, pc
    64b6:	4479      	add	r1, pc
    64b8:	4478      	add	r0, pc
    64ba:	e783      	b.n	63c4 <bget+0x18>
/home/aom1/Work/Linux/target/STM32MP1-DK2/bootloader/optee-os-custom/lib/libutils/isoc/bget.c:716
    64bc:	1bbe      	subs	r6, r7, r6
    64be:	6046      	str	r6, [r0, #4]
/home/aom1/Work/Linux/target/STM32MP1-DK2/bootloader/optee-os-custom/lib/libutils/isoc/bget.c:717
    64c0:	6007      	str	r7, [r0, #0]
/home/aom1/Work/Linux/target/STM32MP1-DK2/bootloader/optee-os-custom/lib/libutils/isoc/bget.c:718
    64c2:	e7ee      	b.n	64a2 <bget+0xf6>
/home/aom1/Work/Linux/target/STM32MP1-DK2/bootloader/optee-os-custom/lib/libutils/isoc/bget.c:727 (discriminator 2)
    64c4:	4249      	negs	r1, r1
    64c6:	1b09      	subs	r1, r1, r4
    64c8:	2910      	cmp	r1, #16
    64ca:	d934      	bls.n	6536 <bget+0x18a>
/home/aom1/Work/Linux/target/STM32MP1-DK2/bootloader/optee-os-custom/lib/libutils/isoc/bget.c:733
    64cc:	1902      	adds	r2, r0, r4
/home/aom1/Work/Linux/target/STM32MP1-DK2/bootloader/optee-os-custom/lib/libutils/isoc/bget.c:735
    64ce:	2600      	movs	r6, #0
/home/aom1/Work/Linux/target/STM32MP1-DK2/bootloader/optee-os-custom/lib/libutils/isoc/bget.c:734
    64d0:	6051      	str	r1, [r2, #4]
/home/aom1/Work/Linux/target/STM32MP1-DK2/bootloader/optee-os-custom/lib/libutils/isoc/bget.c:735
    64d2:	5106      	str	r6, [r0, r4]
/home/aom1/Work/Linux/target/STM32MP1-DK2/bootloader/optee-os-custom/lib/libutils/isoc/bget.c:736
    64d4:	6844      	ldr	r4, [r0, #4]
    64d6:	440c      	add	r4, r1
/home/aom1/Work/Linux/target/STM32MP1-DK2/bootloader/optee-os-custom/lib/libutils/isoc/bget.c:738
    64d8:	68d9      	ldr	r1, [r3, #12]
/home/aom1/Work/Linux/target/STM32MP1-DK2/bootloader/optee-os-custom/lib/libutils/isoc/bget.c:736
    64da:	6044      	str	r4, [r0, #4]
/home/aom1/Work/Linux/target/STM32MP1-DK2/bootloader/optee-os-custom/lib/libutils/isoc/bget.c:738
    64dc:	688c      	ldr	r4, [r1, #8]
    64de:	429c      	cmp	r4, r3
    64e0:	d008      	beq.n	64f4 <bget+0x148>
/home/aom1/Work/Linux/target/STM32MP1-DK2/bootloader/optee-os-custom/lib/libutils/isoc/bget.c:738 (discriminator 1)
    64e2:	4b2a      	ldr	r3, [pc, #168]	; (658c <bget+0x1e0>)
    64e4:	f240 22e2 	movw	r2, #738	; 0x2e2
    64e8:	4929      	ldr	r1, [pc, #164]	; (6590 <bget+0x1e4>)
    64ea:	482a      	ldr	r0, [pc, #168]	; (6594 <bget+0x1e8>)
    64ec:	447b      	add	r3, pc
    64ee:	4479      	add	r1, pc
    64f0:	4478      	add	r0, pc
    64f2:	e767      	b.n	63c4 <bget+0x18>
/home/aom1/Work/Linux/target/STM32MP1-DK2/bootloader/optee-os-custom/lib/libutils/isoc/bget.c:740 (discriminator 2)
    64f4:	689c      	ldr	r4, [r3, #8]
    64f6:	68e4      	ldr	r4, [r4, #12]
    64f8:	429c      	cmp	r4, r3
    64fa:	d008      	beq.n	650e <bget+0x162>
/home/aom1/Work/Linux/target/STM32MP1-DK2/bootloader/optee-os-custom/lib/libutils/isoc/bget.c:740 (discriminator 1)
    64fc:	4b26      	ldr	r3, [pc, #152]	; (6598 <bget+0x1ec>)
    64fe:	f44f 7239 	mov.w	r2, #740	; 0x2e4
    6502:	4926      	ldr	r1, [pc, #152]	; (659c <bget+0x1f0>)
    6504:	4826      	ldr	r0, [pc, #152]	; (65a0 <bget+0x1f4>)
    6506:	447b      	add	r3, pc
    6508:	4479      	add	r1, pc
    650a:	4478      	add	r0, pc
    650c:	e75a      	b.n	63c4 <bget+0x18>
/home/aom1/Work/Linux/target/STM32MP1-DK2/bootloader/optee-os-custom/lib/libutils/isoc/bget.c:743 (discriminator 2)
    650e:	60d1      	str	r1, [r2, #12]
/home/aom1/Work/Linux/target/STM32MP1-DK2/bootloader/optee-os-custom/lib/libutils/isoc/bget.c:742 (discriminator 2)
    6510:	6093      	str	r3, [r2, #8]
/home/aom1/Work/Linux/target/STM32MP1-DK2/bootloader/optee-os-custom/lib/libutils/isoc/bget.c:744 (discriminator 2)
    6512:	60da      	str	r2, [r3, #12]
/home/aom1/Work/Linux/target/STM32MP1-DK2/bootloader/optee-os-custom/lib/libutils/isoc/bget.c:745 (discriminator 2)
    6514:	68d1      	ldr	r1, [r2, #12]
    6516:	608a      	str	r2, [r1, #8]
/home/aom1/Work/Linux/target/STM32MP1-DK2/bootloader/optee-os-custom/lib/libutils/isoc/bget.c:747 (discriminator 2)
    6518:	6851      	ldr	r1, [r2, #4]
    651a:	440a      	add	r2, r1
    651c:	4594      	cmp	ip, r2
    651e:	d008      	beq.n	6532 <bget+0x186>
/home/aom1/Work/Linux/target/STM32MP1-DK2/bootloader/optee-os-custom/lib/libutils/isoc/bget.c:747 (discriminator 1)
    6520:	4b20      	ldr	r3, [pc, #128]	; (65a4 <bget+0x1f8>)
    6522:	f240 22eb 	movw	r2, #747	; 0x2eb
    6526:	4920      	ldr	r1, [pc, #128]	; (65a8 <bget+0x1fc>)
    6528:	4820      	ldr	r0, [pc, #128]	; (65ac <bget+0x200>)
    652a:	447b      	add	r3, pc
    652c:	4479      	add	r1, pc
    652e:	4478      	add	r0, pc
    6530:	e748      	b.n	63c4 <bget+0x18>
/home/aom1/Work/Linux/target/STM32MP1-DK2/bootloader/optee-os-custom/lib/libutils/isoc/bget.c:748 (discriminator 2)
    6532:	f8cc 1000 	str.w	r1, [ip]
/home/aom1/Work/Linux/target/STM32MP1-DK2/bootloader/optee-os-custom/lib/libutils/isoc/bget.c:752
    6536:	6841      	ldr	r1, [r0, #4]
/home/aom1/Work/Linux/target/STM32MP1-DK2/bootloader/optee-os-custom/lib/libutils/isoc/bget.c:755
    6538:	3008      	adds	r0, #8
/home/aom1/Work/Linux/target/STM32MP1-DK2/bootloader/optee-os-custom/lib/libutils/isoc/bget.c:752
    653a:	691a      	ldr	r2, [r3, #16]
    653c:	1a52      	subs	r2, r2, r1
    653e:	611a      	str	r2, [r3, #16]
/home/aom1/Work/Linux/target/STM32MP1-DK2/bootloader/optee-os-custom/lib/libutils/isoc/bget.c:753
    6540:	695a      	ldr	r2, [r3, #20]
    6542:	3201      	adds	r2, #1
    6544:	615a      	str	r2, [r3, #20]
/home/aom1/Work/Linux/target/STM32MP1-DK2/bootloader/optee-os-custom/lib/libutils/isoc/bget.c:757
    6546:	e756      	b.n	63f6 <bget+0x4a>
/home/aom1/Work/Linux/target/STM32MP1-DK2/bootloader/optee-os-custom/lib/libutils/isoc/bget.c:759
    6548:	6892      	ldr	r2, [r2, #8]
    654a:	e762      	b.n	6412 <bget+0x66>
    654c:	00001d65 	.word	0x00001d65
    6550:	00001aaa 	.word	0x00001aaa
    6554:	00001d36 	.word	0x00001d36
    6558:	7fffffef 	.word	0x7fffffef
    655c:	00001cd1 	.word	0x00001cd1
    6560:	00001a16 	.word	0x00001a16
    6564:	00001a2d 	.word	0x00001a2d
    6568:	00001cb3 	.word	0x00001cb3
    656c:	000019f8 	.word	0x000019f8
    6570:	00001a2f 	.word	0x00001a2f
    6574:	00001c95 	.word	0x00001c95
    6578:	000019da 	.word	0x000019da
    657c:	00001a2c 	.word	0x00001a2c
    6580:	00001c6f 	.word	0x00001c6f
    6584:	000019b4 	.word	0x000019b4
    6588:	00001a21 	.word	0x00001a21
    658c:	00001c37 	.word	0x00001c37
    6590:	0000197c 	.word	0x0000197c
    6594:	000019fc 	.word	0x000019fc
    6598:	00001c1d 	.word	0x00001c1d
    659c:	00001962 	.word	0x00001962
    65a0:	00001a1d 	.word	0x00001a1d
    65a4:	00001bf9 	.word	0x00001bf9
    65a8:	0000193e 	.word	0x0000193e
    65ac:	00001a34 	.word	0x00001a34

000065b0 <bgetz>:
bgetz():
/home/aom1/Work/Linux/target/STM32MP1-DK2/bootloader/optee-os-custom/lib/libutils/isoc/bget.c:850
    65b0:	b538      	push	{r3, r4, r5, lr}
    65b2:	4615      	mov	r5, r2
/home/aom1/Work/Linux/target/STM32MP1-DK2/bootloader/optee-os-custom/lib/libutils/isoc/bget.c:851
    65b4:	f7ff fefa 	bl	63ac <bget>
/home/aom1/Work/Linux/target/STM32MP1-DK2/bootloader/optee-os-custom/lib/libutils/isoc/bget.c:853
    65b8:	4604      	mov	r4, r0
    65ba:	b308      	cbz	r0, 6600 <bgetz+0x50>
/home/aom1/Work/Linux/target/STM32MP1-DK2/bootloader/optee-os-custom/lib/libutils/isoc/bget.c:858
    65bc:	f850 2c04 	ldr.w	r2, [r0, #-4]
/home/aom1/Work/Linux/target/STM32MP1-DK2/bootloader/optee-os-custom/lib/libutils/isoc/bget.c:859
    65c0:	b9a2      	cbnz	r2, 65ec <bgetz+0x3c>
/home/aom1/Work/Linux/target/STM32MP1-DK2/bootloader/optee-os-custom/lib/libutils/isoc/bget.c:863
    65c2:	f850 3c10 	ldr.w	r3, [r0, #-16]
    65c6:	f850 2c0c 	ldr.w	r2, [r0, #-12]
    65ca:	3b10      	subs	r3, #16
    65cc:	1a9a      	subs	r2, r3, r2
/home/aom1/Work/Linux/target/STM32MP1-DK2/bootloader/optee-os-custom/lib/libutils/isoc/bget.c:867
    65ce:	42aa      	cmp	r2, r5
    65d0:	da12      	bge.n	65f8 <bgetz+0x48>
/home/aom1/Work/Linux/target/STM32MP1-DK2/bootloader/optee-os-custom/lib/libutils/isoc/bget.c:867 (discriminator 1)
    65d2:	4b0c      	ldr	r3, [pc, #48]	; (6604 <bgetz+0x54>)
    65d4:	f240 3263 	movw	r2, #867	; 0x363
    65d8:	490b      	ldr	r1, [pc, #44]	; (6608 <bgetz+0x58>)
    65da:	480c      	ldr	r0, [pc, #48]	; (660c <bgetz+0x5c>)
    65dc:	447b      	add	r3, pc
    65de:	4479      	add	r1, pc
    65e0:	3305      	adds	r3, #5
    65e2:	4478      	add	r0, pc
    65e4:	f7fd f9b6 	bl	3954 <_assert_log>
    65e8:	f7fd f9c8 	bl	397c <_assert_break>
/home/aom1/Work/Linux/target/STM32MP1-DK2/bootloader/optee-os-custom/lib/libutils/isoc/bget.c:865
    65ec:	f1c2 22ff 	rsb	r2, r2, #4278255360	; 0xff00ff00
    65f0:	f502 027f 	add.w	r2, r2, #16711680	; 0xff0000
    65f4:	32f8      	adds	r2, #248	; 0xf8
    65f6:	e7ea      	b.n	65ce <bgetz+0x1e>
memset_unchecked():
/home/aom1/Work/Linux/target/STM32MP1-DK2/bootloader/optee-os-custom/lib/libutils/isoc/bget_malloc.c:131 (discriminator 2)
    65f8:	2100      	movs	r1, #0
    65fa:	4620      	mov	r0, r4
    65fc:	f000 fc89 	bl	6f12 <memset>
bgetz():
/home/aom1/Work/Linux/target/STM32MP1-DK2/bootloader/optee-os-custom/lib/libutils/isoc/bget.c:871
    6600:	4620      	mov	r0, r4
    6602:	bd38      	pop	{r3, r4, r5, pc}
    6604:	00001b47 	.word	0x00001b47
    6608:	0000188c 	.word	0x0000188c
    660c:	000019a6 	.word	0x000019a6

00006610 <brel>:
brel():
/home/aom1/Work/Linux/target/STM32MP1-DK2/bootloader/optee-os-custom/lib/libutils/isoc/bget.c:925
    6610:	b5f8      	push	{r3, r4, r5, r6, r7, lr}
/home/aom1/Work/Linux/target/STM32MP1-DK2/bootloader/optee-os-custom/lib/libutils/isoc/bget.c:929
    6612:	f1a0 0408 	sub.w	r4, r0, #8
/home/aom1/Work/Linux/target/STM32MP1-DK2/bootloader/optee-os-custom/lib/libutils/isoc/bget.c:931
    6616:	698b      	ldr	r3, [r1, #24]
    6618:	3301      	adds	r3, #1
    661a:	618b      	str	r3, [r1, #24]
/home/aom1/Work/Linux/target/STM32MP1-DK2/bootloader/optee-os-custom/lib/libutils/isoc/bget.c:933
    661c:	b960      	cbnz	r0, 6638 <brel+0x28>
/home/aom1/Work/Linux/target/STM32MP1-DK2/bootloader/optee-os-custom/lib/libutils/isoc/bget.c:933 (discriminator 1)
    661e:	4b5d      	ldr	r3, [pc, #372]	; (6794 <brel+0x184>)
    6620:	f240 32a5 	movw	r2, #933	; 0x3a5
    6624:	495c      	ldr	r1, [pc, #368]	; (6798 <brel+0x188>)
    6626:	485d      	ldr	r0, [pc, #372]	; (679c <brel+0x18c>)
    6628:	447b      	add	r3, pc
    662a:	4479      	add	r1, pc
    662c:	330b      	adds	r3, #11
    662e:	4478      	add	r0, pc
/home/aom1/Work/Linux/target/STM32MP1-DK2/bootloader/optee-os-custom/lib/libutils/isoc/bget.c:968 (discriminator 1)
    6630:	f7fd f990 	bl	3954 <_assert_log>
    6634:	f7fd f9a2 	bl	397c <_assert_break>
/home/aom1/Work/Linux/target/STM32MP1-DK2/bootloader/optee-os-custom/lib/libutils/isoc/bget.c:965 (discriminator 2)
    6638:	f850 3c04 	ldr.w	r3, [r0, #-4]
/home/aom1/Work/Linux/target/STM32MP1-DK2/bootloader/optee-os-custom/lib/libutils/isoc/bget.c:968 (discriminator 2)
    663c:	2b00      	cmp	r3, #0
    663e:	db09      	blt.n	6654 <brel+0x44>
/home/aom1/Work/Linux/target/STM32MP1-DK2/bootloader/optee-os-custom/lib/libutils/isoc/bget.c:968 (discriminator 1)
    6640:	4b57      	ldr	r3, [pc, #348]	; (67a0 <brel+0x190>)
    6642:	f44f 7272 	mov.w	r2, #968	; 0x3c8
    6646:	4957      	ldr	r1, [pc, #348]	; (67a4 <brel+0x194>)
    6648:	4857      	ldr	r0, [pc, #348]	; (67a8 <brel+0x198>)
    664a:	447b      	add	r3, pc
    664c:	4479      	add	r1, pc
    664e:	330b      	adds	r3, #11
    6650:	4478      	add	r0, pc
    6652:	e7ed      	b.n	6630 <brel+0x20>
/home/aom1/Work/Linux/target/STM32MP1-DK2/bootloader/optee-os-custom/lib/libutils/isoc/bget.c:974 (discriminator 2)
    6654:	1ae5      	subs	r5, r4, r3
    6656:	682d      	ldr	r5, [r5, #0]
    6658:	b14d      	cbz	r5, 666e <brel+0x5e>
/home/aom1/Work/Linux/target/STM32MP1-DK2/bootloader/optee-os-custom/lib/libutils/isoc/bget.c:974 (discriminator 1)
    665a:	4b54      	ldr	r3, [pc, #336]	; (67ac <brel+0x19c>)
    665c:	f240 32ce 	movw	r2, #974	; 0x3ce
    6660:	4953      	ldr	r1, [pc, #332]	; (67b0 <brel+0x1a0>)
    6662:	4854      	ldr	r0, [pc, #336]	; (67b4 <brel+0x1a4>)
    6664:	447b      	add	r3, pc
    6666:	4479      	add	r1, pc
    6668:	330b      	adds	r3, #11
    666a:	4478      	add	r0, pc
    666c:	e7e0      	b.n	6630 <brel+0x20>
/home/aom1/Work/Linux/target/STM32MP1-DK2/bootloader/optee-os-custom/lib/libutils/isoc/bget.c:977 (discriminator 2)
    666e:	690d      	ldr	r5, [r1, #16]
    6670:	441d      	add	r5, r3
    6672:	610d      	str	r5, [r1, #16]
/home/aom1/Work/Linux/target/STM32MP1-DK2/bootloader/optee-os-custom/lib/libutils/isoc/bget.c:978 (discriminator 2)
    6674:	2d00      	cmp	r5, #0
    6676:	da09      	bge.n	668c <brel+0x7c>
/home/aom1/Work/Linux/target/STM32MP1-DK2/bootloader/optee-os-custom/lib/libutils/isoc/bget.c:978 (discriminator 1)
    6678:	4b4f      	ldr	r3, [pc, #316]	; (67b8 <brel+0x1a8>)
    667a:	f240 32d2 	movw	r2, #978	; 0x3d2
    667e:	494f      	ldr	r1, [pc, #316]	; (67bc <brel+0x1ac>)
    6680:	484f      	ldr	r0, [pc, #316]	; (67c0 <brel+0x1b0>)
    6682:	447b      	add	r3, pc
    6684:	4479      	add	r1, pc
    6686:	330b      	adds	r3, #11
    6688:	4478      	add	r0, pc
    668a:	e7d1      	b.n	6630 <brel+0x20>
/home/aom1/Work/Linux/target/STM32MP1-DK2/bootloader/optee-os-custom/lib/libutils/isoc/bget.c:983 (discriminator 2)
    668c:	f850 5c08 	ldr.w	r5, [r0, #-8]
    6690:	b30d      	cbz	r5, 66d6 <brel+0xc6>
/home/aom1/Work/Linux/target/STM32MP1-DK2/bootloader/optee-os-custom/lib/libutils/isoc/bget.c:994
    6692:	1b64      	subs	r4, r4, r5
    6694:	6861      	ldr	r1, [r4, #4]
    6696:	428d      	cmp	r5, r1
    6698:	d009      	beq.n	66ae <brel+0x9e>
/home/aom1/Work/Linux/target/STM32MP1-DK2/bootloader/optee-os-custom/lib/libutils/isoc/bget.c:994 (discriminator 1)
    669a:	4b4a      	ldr	r3, [pc, #296]	; (67c4 <brel+0x1b4>)
    669c:	f240 32e2 	movw	r2, #994	; 0x3e2
    66a0:	4949      	ldr	r1, [pc, #292]	; (67c8 <brel+0x1b8>)
    66a2:	484a      	ldr	r0, [pc, #296]	; (67cc <brel+0x1bc>)
    66a4:	447b      	add	r3, pc
    66a6:	4479      	add	r1, pc
    66a8:	330b      	adds	r3, #11
    66aa:	4478      	add	r0, pc
    66ac:	e7c0      	b.n	6630 <brel+0x20>
/home/aom1/Work/Linux/target/STM32MP1-DK2/bootloader/optee-os-custom/lib/libutils/isoc/bget.c:996 (discriminator 2)
    66ae:	1aed      	subs	r5, r5, r3
    66b0:	6065      	str	r5, [r4, #4]
/home/aom1/Work/Linux/target/STM32MP1-DK2/bootloader/optee-os-custom/lib/libutils/isoc/bget.c:1016
    66b2:	6863      	ldr	r3, [r4, #4]
    66b4:	18e5      	adds	r5, r4, r3
/home/aom1/Work/Linux/target/STM32MP1-DK2/bootloader/optee-os-custom/lib/libutils/isoc/bget.c:1017
    66b6:	6869      	ldr	r1, [r5, #4]
    66b8:	2900      	cmp	r1, #0
    66ba:	dd52      	ble.n	6762 <brel+0x152>
/home/aom1/Work/Linux/target/STM32MP1-DK2/bootloader/optee-os-custom/lib/libutils/isoc/bget.c:1022
    66bc:	5868      	ldr	r0, [r5, r1]
    66be:	4281      	cmp	r1, r0
    66c0:	d02e      	beq.n	6720 <brel+0x110>
/home/aom1/Work/Linux/target/STM32MP1-DK2/bootloader/optee-os-custom/lib/libutils/isoc/bget.c:1022 (discriminator 1)
    66c2:	4b43      	ldr	r3, [pc, #268]	; (67d0 <brel+0x1c0>)
    66c4:	f240 32fe 	movw	r2, #1022	; 0x3fe
    66c8:	4942      	ldr	r1, [pc, #264]	; (67d4 <brel+0x1c4>)
    66ca:	4843      	ldr	r0, [pc, #268]	; (67d8 <brel+0x1c8>)
    66cc:	447b      	add	r3, pc
    66ce:	4479      	add	r1, pc
    66d0:	330b      	adds	r3, #11
    66d2:	4478      	add	r0, pc
    66d4:	e7ac      	b.n	6630 <brel+0x20>
/home/aom1/Work/Linux/target/STM32MP1-DK2/bootloader/optee-os-custom/lib/libutils/isoc/bget.c:1002
    66d6:	68ce      	ldr	r6, [r1, #12]
    66d8:	68b5      	ldr	r5, [r6, #8]
    66da:	428d      	cmp	r5, r1
    66dc:	d009      	beq.n	66f2 <brel+0xe2>
/home/aom1/Work/Linux/target/STM32MP1-DK2/bootloader/optee-os-custom/lib/libutils/isoc/bget.c:1002 (discriminator 1)
    66de:	4b3f      	ldr	r3, [pc, #252]	; (67dc <brel+0x1cc>)
    66e0:	f240 32ea 	movw	r2, #1002	; 0x3ea
    66e4:	493e      	ldr	r1, [pc, #248]	; (67e0 <brel+0x1d0>)
    66e6:	483f      	ldr	r0, [pc, #252]	; (67e4 <brel+0x1d4>)
    66e8:	447b      	add	r3, pc
    66ea:	4479      	add	r1, pc
    66ec:	330b      	adds	r3, #11
    66ee:	4478      	add	r0, pc
    66f0:	e79e      	b.n	6630 <brel+0x20>
/home/aom1/Work/Linux/target/STM32MP1-DK2/bootloader/optee-os-custom/lib/libutils/isoc/bget.c:1003 (discriminator 2)
    66f2:	68a9      	ldr	r1, [r5, #8]
    66f4:	68c9      	ldr	r1, [r1, #12]
    66f6:	428d      	cmp	r5, r1
    66f8:	d009      	beq.n	670e <brel+0xfe>
/home/aom1/Work/Linux/target/STM32MP1-DK2/bootloader/optee-os-custom/lib/libutils/isoc/bget.c:1003 (discriminator 1)
    66fa:	4b3b      	ldr	r3, [pc, #236]	; (67e8 <brel+0x1d8>)
    66fc:	f240 32eb 	movw	r2, #1003	; 0x3eb
    6700:	493a      	ldr	r1, [pc, #232]	; (67ec <brel+0x1dc>)
    6702:	483b      	ldr	r0, [pc, #236]	; (67f0 <brel+0x1e0>)
    6704:	447b      	add	r3, pc
    6706:	4479      	add	r1, pc
    6708:	330b      	adds	r3, #11
    670a:	4478      	add	r0, pc
    670c:	e790      	b.n	6630 <brel+0x20>
/home/aom1/Work/Linux/target/STM32MP1-DK2/bootloader/optee-os-custom/lib/libutils/isoc/bget.c:1005 (discriminator 2)
    670e:	e9c0 5600 	strd	r5, r6, [r0]
/home/aom1/Work/Linux/target/STM32MP1-DK2/bootloader/optee-os-custom/lib/libutils/isoc/bget.c:1006 (discriminator 2)
    6712:	60ec      	str	r4, [r5, #12]
/home/aom1/Work/Linux/target/STM32MP1-DK2/bootloader/optee-os-custom/lib/libutils/isoc/bget.c:969 (discriminator 2)
    6714:	425b      	negs	r3, r3
/home/aom1/Work/Linux/target/STM32MP1-DK2/bootloader/optee-os-custom/lib/libutils/isoc/bget.c:1007 (discriminator 2)
    6716:	6841      	ldr	r1, [r0, #4]
    6718:	608c      	str	r4, [r1, #8]
/home/aom1/Work/Linux/target/STM32MP1-DK2/bootloader/optee-os-custom/lib/libutils/isoc/bget.c:1008 (discriminator 2)
    671a:	f840 3c04 	str.w	r3, [r0, #-4]
    671e:	e7c8      	b.n	66b2 <brel+0xa2>
/home/aom1/Work/Linux/target/STM32MP1-DK2/bootloader/optee-os-custom/lib/libutils/isoc/bget.c:1023 (discriminator 2)
    6720:	68ee      	ldr	r6, [r5, #12]
    6722:	68b7      	ldr	r7, [r6, #8]
    6724:	42af      	cmp	r7, r5
    6726:	d009      	beq.n	673c <brel+0x12c>
/home/aom1/Work/Linux/target/STM32MP1-DK2/bootloader/optee-os-custom/lib/libutils/isoc/bget.c:1023 (discriminator 1)
    6728:	4b32      	ldr	r3, [pc, #200]	; (67f4 <brel+0x1e4>)
    672a:	f240 32ff 	movw	r2, #1023	; 0x3ff
    672e:	4932      	ldr	r1, [pc, #200]	; (67f8 <brel+0x1e8>)
    6730:	4832      	ldr	r0, [pc, #200]	; (67fc <brel+0x1ec>)
    6732:	447b      	add	r3, pc
    6734:	4479      	add	r1, pc
    6736:	330b      	adds	r3, #11
    6738:	4478      	add	r0, pc
    673a:	e779      	b.n	6630 <brel+0x20>
/home/aom1/Work/Linux/target/STM32MP1-DK2/bootloader/optee-os-custom/lib/libutils/isoc/bget.c:1024 (discriminator 2)
    673c:	68b8      	ldr	r0, [r7, #8]
    673e:	68c5      	ldr	r5, [r0, #12]
    6740:	42bd      	cmp	r5, r7
    6742:	d009      	beq.n	6758 <brel+0x148>
/home/aom1/Work/Linux/target/STM32MP1-DK2/bootloader/optee-os-custom/lib/libutils/isoc/bget.c:1024 (discriminator 1)
    6744:	4b2e      	ldr	r3, [pc, #184]	; (6800 <brel+0x1f0>)
    6746:	f44f 6280 	mov.w	r2, #1024	; 0x400
    674a:	492e      	ldr	r1, [pc, #184]	; (6804 <brel+0x1f4>)
    674c:	482e      	ldr	r0, [pc, #184]	; (6808 <brel+0x1f8>)
    674e:	447b      	add	r3, pc
    6750:	4479      	add	r1, pc
    6752:	330b      	adds	r3, #11
    6754:	4478      	add	r0, pc
    6756:	e76b      	b.n	6630 <brel+0x20>
/home/aom1/Work/Linux/target/STM32MP1-DK2/bootloader/optee-os-custom/lib/libutils/isoc/bget.c:1027 (discriminator 2)
    6758:	440b      	add	r3, r1
/home/aom1/Work/Linux/target/STM32MP1-DK2/bootloader/optee-os-custom/lib/libutils/isoc/bget.c:1036 (discriminator 2)
    675a:	18e5      	adds	r5, r4, r3
/home/aom1/Work/Linux/target/STM32MP1-DK2/bootloader/optee-os-custom/lib/libutils/isoc/bget.c:1025 (discriminator 2)
    675c:	60b0      	str	r0, [r6, #8]
/home/aom1/Work/Linux/target/STM32MP1-DK2/bootloader/optee-os-custom/lib/libutils/isoc/bget.c:1026 (discriminator 2)
    675e:	60c6      	str	r6, [r0, #12]
/home/aom1/Work/Linux/target/STM32MP1-DK2/bootloader/optee-os-custom/lib/libutils/isoc/bget.c:1027 (discriminator 2)
    6760:	6063      	str	r3, [r4, #4]
/home/aom1/Work/Linux/target/STM32MP1-DK2/bootloader/optee-os-custom/lib/libutils/isoc/bget.c:1038
    6762:	b132      	cbz	r2, 6772 <brel+0x162>
/home/aom1/Work/Linux/target/STM32MP1-DK2/bootloader/optee-os-custom/lib/libutils/isoc/bget.c:1040
    6764:	6862      	ldr	r2, [r4, #4]
memset_unchecked():
/home/aom1/Work/Linux/target/STM32MP1-DK2/bootloader/optee-os-custom/lib/libutils/isoc/bget_malloc.c:131
    6766:	2155      	movs	r1, #85	; 0x55
    6768:	f104 0010 	add.w	r0, r4, #16
    676c:	3a10      	subs	r2, #16
    676e:	f000 fbd0 	bl	6f12 <memset>
brel():
/home/aom1/Work/Linux/target/STM32MP1-DK2/bootloader/optee-os-custom/lib/libutils/isoc/bget.c:1042
    6772:	686b      	ldr	r3, [r5, #4]
    6774:	2b00      	cmp	r3, #0
    6776:	db09      	blt.n	678c <brel+0x17c>
/home/aom1/Work/Linux/target/STM32MP1-DK2/bootloader/optee-os-custom/lib/libutils/isoc/bget.c:1042 (discriminator 1)
    6778:	4b24      	ldr	r3, [pc, #144]	; (680c <brel+0x1fc>)
    677a:	f240 4212 	movw	r2, #1042	; 0x412
    677e:	4924      	ldr	r1, [pc, #144]	; (6810 <brel+0x200>)
    6780:	4824      	ldr	r0, [pc, #144]	; (6814 <brel+0x204>)
    6782:	447b      	add	r3, pc
    6784:	4479      	add	r1, pc
    6786:	330b      	adds	r3, #11
    6788:	4478      	add	r0, pc
    678a:	e751      	b.n	6630 <brel+0x20>
/home/aom1/Work/Linux/target/STM32MP1-DK2/bootloader/optee-os-custom/lib/libutils/isoc/bget.c:1047 (discriminator 2)
    678c:	6863      	ldr	r3, [r4, #4]
    678e:	602b      	str	r3, [r5, #0]
/home/aom1/Work/Linux/target/STM32MP1-DK2/bootloader/optee-os-custom/lib/libutils/isoc/bget.c:1075 (discriminator 2)
    6790:	bdf8      	pop	{r3, r4, r5, r6, r7, pc}
    6792:	bf00      	nop
    6794:	00001afb 	.word	0x00001afb
    6798:	00001840 	.word	0x00001840
    679c:	00001968 	.word	0x00001968
    67a0:	00001ad9 	.word	0x00001ad9
    67a4:	0000181e 	.word	0x0000181e
    67a8:	00001952 	.word	0x00001952
    67ac:	00001abf 	.word	0x00001abf
    67b0:	00001804 	.word	0x00001804
    67b4:	00001948 	.word	0x00001948
    67b8:	00001aa1 	.word	0x00001aa1
    67bc:	000017e6 	.word	0x000017e6
    67c0:	00001956 	.word	0x00001956
    67c4:	00001a7f 	.word	0x00001a7f
    67c8:	000017c4 	.word	0x000017c4
    67cc:	0000194b 	.word	0x0000194b
    67d0:	00001a57 	.word	0x00001a57
    67d4:	0000179c 	.word	0x0000179c
    67d8:	0000195c 	.word	0x0000195c
    67dc:	00001a3b 	.word	0x00001a3b
    67e0:	00001780 	.word	0x00001780
    67e4:	000017fe 	.word	0x000017fe
    67e8:	00001a1f 	.word	0x00001a1f
    67ec:	00001764 	.word	0x00001764
    67f0:	0000181d 	.word	0x0000181d
    67f4:	000019f1 	.word	0x000019f1
    67f8:	00001736 	.word	0x00001736
    67fc:	0000192f 	.word	0x0000192f
    6800:	000019d5 	.word	0x000019d5
    6804:	0000171a 	.word	0x0000171a
    6808:	00001930 	.word	0x00001930
    680c:	000019a1 	.word	0x000019a1
    6810:	000016e6 	.word	0x000016e6
    6814:	00001919 	.word	0x00001919

00006818 <bgetr>:
bgetr():
/home/aom1/Work/Linux/target/STM32MP1-DK2/bootloader/optee-os-custom/lib/libutils/isoc/bget.c:884
    6818:	e92d 41f0 	stmdb	sp!, {r4, r5, r6, r7, r8, lr}
    681c:	461e      	mov	r6, r3
    681e:	f8dd 8018 	ldr.w	r8, [sp, #24]
    6822:	4605      	mov	r5, r0
    6824:	4608      	mov	r0, r1
    6826:	4611      	mov	r1, r2
/home/aom1/Work/Linux/target/STM32MP1-DK2/bootloader/optee-os-custom/lib/libutils/isoc/bget.c:889
    6828:	4643      	mov	r3, r8
    682a:	4632      	mov	r2, r6
    682c:	f7ff fdbe 	bl	63ac <bget>
    6830:	4607      	mov	r7, r0
    6832:	b348      	cbz	r0, 6888 <bgetr+0x70>
/home/aom1/Work/Linux/target/STM32MP1-DK2/bootloader/optee-os-custom/lib/libutils/isoc/bget.c:892
    6834:	b345      	cbz	r5, 6888 <bgetr+0x70>
/home/aom1/Work/Linux/target/STM32MP1-DK2/bootloader/optee-os-custom/lib/libutils/isoc/bget.c:906
    6836:	f855 4c04 	ldr.w	r4, [r5, #-4]
    683a:	f1c4 24ff 	rsb	r4, r4, #4278255360	; 0xff00ff00
    683e:	f504 047f 	add.w	r4, r4, #16711680	; 0xff0000
    6842:	34f8      	adds	r4, #248	; 0xf8
/home/aom1/Work/Linux/target/STM32MP1-DK2/bootloader/optee-os-custom/lib/libutils/isoc/bget.c:907
    6844:	2c00      	cmp	r4, #0
    6846:	dc0c      	bgt.n	6862 <bgetr+0x4a>
/home/aom1/Work/Linux/target/STM32MP1-DK2/bootloader/optee-os-custom/lib/libutils/isoc/bget.c:907 (discriminator 1)
    6848:	4b11      	ldr	r3, [pc, #68]	; (6890 <bgetr+0x78>)
    684a:	f240 328b 	movw	r2, #907	; 0x38b
    684e:	4911      	ldr	r1, [pc, #68]	; (6894 <bgetr+0x7c>)
    6850:	4811      	ldr	r0, [pc, #68]	; (6898 <bgetr+0x80>)
    6852:	447b      	add	r3, pc
    6854:	4479      	add	r1, pc
    6856:	3310      	adds	r3, #16
    6858:	4478      	add	r0, pc
    685a:	f7fd f87b 	bl	3954 <_assert_log>
    685e:	f7fd f88d 	bl	397c <_assert_break>
/home/aom1/Work/Linux/target/STM32MP1-DK2/bootloader/optee-os-custom/lib/libutils/isoc/bget.c:908 (discriminator 2)
    6862:	42a6      	cmp	r6, r4
    6864:	4632      	mov	r2, r6
    6866:	4629      	mov	r1, r5
    6868:	bfa8      	it	ge
    686a:	4622      	movge	r2, r4
    686c:	f000 fa66 	bl	6d3c <memcpy>
/home/aom1/Work/Linux/target/STM32MP1-DK2/bootloader/optee-os-custom/lib/libutils/isoc/bget.c:912 (discriminator 2)
    6870:	42a6      	cmp	r6, r4
    6872:	dd04      	ble.n	687e <bgetr+0x66>
/home/aom1/Work/Linux/target/STM32MP1-DK2/bootloader/optee-os-custom/lib/libutils/isoc/bget.c:913
    6874:	1b32      	subs	r2, r6, r4
    6876:	2100      	movs	r1, #0
    6878:	1938      	adds	r0, r7, r4
    687a:	f000 fb4a 	bl	6f12 <memset>
/home/aom1/Work/Linux/target/STM32MP1-DK2/bootloader/optee-os-custom/lib/libutils/isoc/bget.c:915
    687e:	2200      	movs	r2, #0
    6880:	4641      	mov	r1, r8
    6882:	4628      	mov	r0, r5
    6884:	f7ff fec4 	bl	6610 <brel>
/home/aom1/Work/Linux/target/STM32MP1-DK2/bootloader/optee-os-custom/lib/libutils/isoc/bget.c:917
    6888:	4638      	mov	r0, r7
    688a:	e8bd 81f0 	ldmia.w	sp!, {r4, r5, r6, r7, r8, pc}
    688e:	bf00      	nop
    6890:	000018d1 	.word	0x000018d1
    6894:	00001616 	.word	0x00001616
    6898:	0000185a 	.word	0x0000185a

0000689c <bpool>:
bpool():
/home/aom1/Work/Linux/target/STM32MP1-DK2/bootloader/optee-os-custom/lib/libutils/isoc/bget.c:1106
    689c:	f021 0107 	bic.w	r1, r1, #7
/home/aom1/Work/Linux/target/STM32MP1-DK2/bootloader/optee-os-custom/lib/libutils/isoc/bget.c:1125
    68a0:	3908      	subs	r1, #8
/home/aom1/Work/Linux/target/STM32MP1-DK2/bootloader/optee-os-custom/lib/libutils/isoc/bget.c:1101
    68a2:	b510      	push	{r4, lr}
/home/aom1/Work/Linux/target/STM32MP1-DK2/bootloader/optee-os-custom/lib/libutils/isoc/bget.c:1125
    68a4:	d50c      	bpl.n	68c0 <bpool+0x24>
/home/aom1/Work/Linux/target/STM32MP1-DK2/bootloader/optee-os-custom/lib/libutils/isoc/bget.c:1125 (discriminator 1)
    68a6:	4b1b      	ldr	r3, [pc, #108]	; (6914 <bpool+0x78>)
    68a8:	f240 4265 	movw	r2, #1125	; 0x465
    68ac:	491a      	ldr	r1, [pc, #104]	; (6918 <bpool+0x7c>)
    68ae:	481b      	ldr	r0, [pc, #108]	; (691c <bpool+0x80>)
    68b0:	447b      	add	r3, pc
    68b2:	4479      	add	r1, pc
    68b4:	3316      	adds	r3, #22
    68b6:	4478      	add	r0, pc
/home/aom1/Work/Linux/target/STM32MP1-DK2/bootloader/optee-os-custom/lib/libutils/isoc/bget.c:1135 (discriminator 1)
    68b8:	f7fd f84c 	bl	3954 <_assert_log>
    68bc:	f7fd f85e 	bl	397c <_assert_break>
/home/aom1/Work/Linux/target/STM32MP1-DK2/bootloader/optee-os-custom/lib/libutils/isoc/bget.c:1135 (discriminator 2)
    68c0:	68d4      	ldr	r4, [r2, #12]
/home/aom1/Work/Linux/target/STM32MP1-DK2/bootloader/optee-os-custom/lib/libutils/isoc/bget.c:1131 (discriminator 2)
    68c2:	2300      	movs	r3, #0
    68c4:	6003      	str	r3, [r0, #0]
/home/aom1/Work/Linux/target/STM32MP1-DK2/bootloader/optee-os-custom/lib/libutils/isoc/bget.c:1135 (discriminator 2)
    68c6:	68a3      	ldr	r3, [r4, #8]
    68c8:	4293      	cmp	r3, r2
    68ca:	d009      	beq.n	68e0 <bpool+0x44>
/home/aom1/Work/Linux/target/STM32MP1-DK2/bootloader/optee-os-custom/lib/libutils/isoc/bget.c:1135 (discriminator 1)
    68cc:	4b14      	ldr	r3, [pc, #80]	; (6920 <bpool+0x84>)
    68ce:	f240 426f 	movw	r2, #1135	; 0x46f
    68d2:	4914      	ldr	r1, [pc, #80]	; (6924 <bpool+0x88>)
    68d4:	4814      	ldr	r0, [pc, #80]	; (6928 <bpool+0x8c>)
    68d6:	447b      	add	r3, pc
    68d8:	4479      	add	r1, pc
    68da:	3316      	adds	r3, #22
    68dc:	4478      	add	r0, pc
    68de:	e7eb      	b.n	68b8 <bpool+0x1c>
/home/aom1/Work/Linux/target/STM32MP1-DK2/bootloader/optee-os-custom/lib/libutils/isoc/bget.c:1136 (discriminator 2)
    68e0:	689a      	ldr	r2, [r3, #8]
    68e2:	68d2      	ldr	r2, [r2, #12]
    68e4:	4293      	cmp	r3, r2
    68e6:	d009      	beq.n	68fc <bpool+0x60>
/home/aom1/Work/Linux/target/STM32MP1-DK2/bootloader/optee-os-custom/lib/libutils/isoc/bget.c:1136 (discriminator 1)
    68e8:	4b10      	ldr	r3, [pc, #64]	; (692c <bpool+0x90>)
    68ea:	f44f 628e 	mov.w	r2, #1136	; 0x470
    68ee:	4910      	ldr	r1, [pc, #64]	; (6930 <bpool+0x94>)
    68f0:	4810      	ldr	r0, [pc, #64]	; (6934 <bpool+0x98>)
    68f2:	447b      	add	r3, pc
    68f4:	4479      	add	r1, pc
    68f6:	3316      	adds	r3, #22
    68f8:	4478      	add	r0, pc
    68fa:	e7dd      	b.n	68b8 <bpool+0x1c>
/home/aom1/Work/Linux/target/STM32MP1-DK2/bootloader/optee-os-custom/lib/libutils/isoc/bget.c:1137 (discriminator 2)
    68fc:	6083      	str	r3, [r0, #8]
/home/aom1/Work/Linux/target/STM32MP1-DK2/bootloader/optee-os-custom/lib/libutils/isoc/bget.c:1160 (discriminator 2)
    68fe:	f04f 4200 	mov.w	r2, #2147483648	; 0x80000000
/home/aom1/Work/Linux/target/STM32MP1-DK2/bootloader/optee-os-custom/lib/libutils/isoc/bget.c:1138 (discriminator 2)
    6902:	60c4      	str	r4, [r0, #12]
/home/aom1/Work/Linux/target/STM32MP1-DK2/bootloader/optee-os-custom/lib/libutils/isoc/bget.c:1139 (discriminator 2)
    6904:	60d8      	str	r0, [r3, #12]
/home/aom1/Work/Linux/target/STM32MP1-DK2/bootloader/optee-os-custom/lib/libutils/isoc/bget.c:1140 (discriminator 2)
    6906:	68c3      	ldr	r3, [r0, #12]
    6908:	6098      	str	r0, [r3, #8]
/home/aom1/Work/Linux/target/STM32MP1-DK2/bootloader/optee-os-custom/lib/libutils/isoc/bget.c:1156 (discriminator 2)
    690a:	1843      	adds	r3, r0, r1
/home/aom1/Work/Linux/target/STM32MP1-DK2/bootloader/optee-os-custom/lib/libutils/isoc/bget.c:1151 (discriminator 2)
    690c:	6041      	str	r1, [r0, #4]
/home/aom1/Work/Linux/target/STM32MP1-DK2/bootloader/optee-os-custom/lib/libutils/isoc/bget.c:1157 (discriminator 2)
    690e:	5041      	str	r1, [r0, r1]
/home/aom1/Work/Linux/target/STM32MP1-DK2/bootloader/optee-os-custom/lib/libutils/isoc/bget.c:1160 (discriminator 2)
    6910:	605a      	str	r2, [r3, #4]
/home/aom1/Work/Linux/target/STM32MP1-DK2/bootloader/optee-os-custom/lib/libutils/isoc/bget.c:1161 (discriminator 2)
    6912:	bd10      	pop	{r4, pc}
    6914:	00001873 	.word	0x00001873
    6918:	000015b8 	.word	0x000015b8
    691c:	00001806 	.word	0x00001806
    6920:	0000184d 	.word	0x0000184d
    6924:	00001592 	.word	0x00001592
    6928:	00001610 	.word	0x00001610
    692c:	00001831 	.word	0x00001831
    6930:	00001576 	.word	0x00001576
    6934:	0000162f 	.word	0x0000162f

00006938 <bstats>:
bstats():
/home/aom1/Work/Linux/target/STM32MP1-DK2/bootloader/optee-os-custom/lib/libutils/isoc/bget.c:1171
    6938:	b570      	push	{r4, r5, r6, lr}
    693a:	9d05      	ldr	r5, [sp, #20]
/home/aom1/Work/Linux/target/STM32MP1-DK2/bootloader/optee-os-custom/lib/libutils/isoc/bget.c:1174
    693c:	696e      	ldr	r6, [r5, #20]
/home/aom1/Work/Linux/target/STM32MP1-DK2/bootloader/optee-os-custom/lib/libutils/isoc/bget.c:1172
    693e:	68ac      	ldr	r4, [r5, #8]
/home/aom1/Work/Linux/target/STM32MP1-DK2/bootloader/optee-os-custom/lib/libutils/isoc/bget.c:1174
    6940:	601e      	str	r6, [r3, #0]
/home/aom1/Work/Linux/target/STM32MP1-DK2/bootloader/optee-os-custom/lib/libutils/isoc/bget.c:1175
    6942:	9b04      	ldr	r3, [sp, #16]
    6944:	69ae      	ldr	r6, [r5, #24]
    6946:	601e      	str	r6, [r3, #0]
/home/aom1/Work/Linux/target/STM32MP1-DK2/bootloader/optee-os-custom/lib/libutils/isoc/bget.c:1176
    6948:	692b      	ldr	r3, [r5, #16]
    694a:	6003      	str	r3, [r0, #0]
/home/aom1/Work/Linux/target/STM32MP1-DK2/bootloader/optee-os-custom/lib/libutils/isoc/bget.c:1177
    694c:	2300      	movs	r3, #0
    694e:	600b      	str	r3, [r1, #0]
/home/aom1/Work/Linux/target/STM32MP1-DK2/bootloader/optee-os-custom/lib/libutils/isoc/bget.c:1178
    6950:	f04f 33ff 	mov.w	r3, #4294967295	; 0xffffffff
    6954:	6013      	str	r3, [r2, #0]
/home/aom1/Work/Linux/target/STM32MP1-DK2/bootloader/optee-os-custom/lib/libutils/isoc/bget.c:1179
    6956:	42a5      	cmp	r5, r4
    6958:	d100      	bne.n	695c <bstats+0x24>
/home/aom1/Work/Linux/target/STM32MP1-DK2/bootloader/optee-os-custom/lib/libutils/isoc/bget.c:1187
    695a:	bd70      	pop	{r4, r5, r6, pc}
/home/aom1/Work/Linux/target/STM32MP1-DK2/bootloader/optee-os-custom/lib/libutils/isoc/bget.c:1180
    695c:	6860      	ldr	r0, [r4, #4]
    695e:	2800      	cmp	r0, #0
    6960:	dc0c      	bgt.n	697c <bstats+0x44>
/home/aom1/Work/Linux/target/STM32MP1-DK2/bootloader/optee-os-custom/lib/libutils/isoc/bget.c:1180 (discriminator 1)
    6962:	4b0b      	ldr	r3, [pc, #44]	; (6990 <bstats+0x58>)
    6964:	f240 429c 	movw	r2, #1180	; 0x49c
    6968:	490a      	ldr	r1, [pc, #40]	; (6994 <bstats+0x5c>)
    696a:	480b      	ldr	r0, [pc, #44]	; (6998 <bstats+0x60>)
    696c:	447b      	add	r3, pc
    696e:	4479      	add	r1, pc
    6970:	331c      	adds	r3, #28
    6972:	4478      	add	r0, pc
    6974:	f7fc ffee 	bl	3954 <_assert_log>
    6978:	f7fd f800 	bl	397c <_assert_break>
/home/aom1/Work/Linux/target/STM32MP1-DK2/bootloader/optee-os-custom/lib/libutils/isoc/bget.c:1181 (discriminator 2)
    697c:	680b      	ldr	r3, [r1, #0]
    697e:	4403      	add	r3, r0
    6980:	600b      	str	r3, [r1, #0]
/home/aom1/Work/Linux/target/STM32MP1-DK2/bootloader/optee-os-custom/lib/libutils/isoc/bget.c:1182 (discriminator 2)
    6982:	6863      	ldr	r3, [r4, #4]
    6984:	6810      	ldr	r0, [r2, #0]
/home/aom1/Work/Linux/target/STM32MP1-DK2/bootloader/optee-os-custom/lib/libutils/isoc/bget.c:1185 (discriminator 2)
    6986:	68a4      	ldr	r4, [r4, #8]
/home/aom1/Work/Linux/target/STM32MP1-DK2/bootloader/optee-os-custom/lib/libutils/isoc/bget.c:1182 (discriminator 2)
    6988:	4283      	cmp	r3, r0
/home/aom1/Work/Linux/target/STM32MP1-DK2/bootloader/optee-os-custom/lib/libutils/isoc/bget.c:1183 (discriminator 2)
    698a:	bfc8      	it	gt
    698c:	6013      	strgt	r3, [r2, #0]
/home/aom1/Work/Linux/target/STM32MP1-DK2/bootloader/optee-os-custom/lib/libutils/isoc/bget.c:1185 (discriminator 2)
    698e:	e7e2      	b.n	6956 <bstats+0x1e>
    6990:	000017b7 	.word	0x000017b7
    6994:	000014fc 	.word	0x000014fc
    6998:	0000177f 	.word	0x0000177f

0000699c <malloc_reset_stats>:
gen_malloc_reset_stats():
/home/aom1/Work/Linux/target/STM32MP1-DK2/bootloader/optee-os-custom/lib/libutils/isoc/bget_malloc.c:229
    699c:	4b03      	ldr	r3, [pc, #12]	; (69ac <malloc_reset_stats+0x10>)
    699e:	2200      	movs	r2, #0
    69a0:	447b      	add	r3, pc
    69a2:	649a      	str	r2, [r3, #72]	; 0x48
/home/aom1/Work/Linux/target/STM32MP1-DK2/bootloader/optee-os-custom/lib/libutils/isoc/bget_malloc.c:230
    69a4:	651a      	str	r2, [r3, #80]	; 0x50
/home/aom1/Work/Linux/target/STM32MP1-DK2/bootloader/optee-os-custom/lib/libutils/isoc/bget_malloc.c:231
    69a6:	655a      	str	r2, [r3, #84]	; 0x54
/home/aom1/Work/Linux/target/STM32MP1-DK2/bootloader/optee-os-custom/lib/libutils/isoc/bget_malloc.c:232
    69a8:	659a      	str	r2, [r3, #88]	; 0x58
malloc_reset_stats():
/home/aom1/Work/Linux/target/STM32MP1-DK2/bootloader/optee-os-custom/lib/libutils/isoc/bget_malloc.c:239
    69aa:	4770      	bx	lr
    69ac:	00002890 	.word	0x00002890

000069b0 <malloc_get_stats>:
malloc_get_stats():
/home/aom1/Work/Linux/target/STM32MP1-DK2/bootloader/optee-os-custom/lib/libutils/isoc/bget_malloc.c:252
    69b0:	b538      	push	{r3, r4, r5, lr}
memcpy_unchecked():
/home/aom1/Work/Linux/target/STM32MP1-DK2/bootloader/optee-os-custom/lib/libutils/isoc/bget_malloc.c:137
    69b2:	2238      	movs	r2, #56	; 0x38
    69b4:	4c04      	ldr	r4, [pc, #16]	; (69c8 <malloc_get_stats+0x18>)
malloc_get_stats():
/home/aom1/Work/Linux/target/STM32MP1-DK2/bootloader/optee-os-custom/lib/libutils/isoc/bget_malloc.c:252
    69b6:	4605      	mov	r5, r0
memcpy_unchecked():
/home/aom1/Work/Linux/target/STM32MP1-DK2/bootloader/optee-os-custom/lib/libutils/isoc/bget_malloc.c:137
    69b8:	447c      	add	r4, pc
    69ba:	f104 0124 	add.w	r1, r4, #36	; 0x24
    69be:	f000 f9bd 	bl	6d3c <memcpy>
gen_malloc_get_stats():
/home/aom1/Work/Linux/target/STM32MP1-DK2/bootloader/optee-os-custom/lib/libutils/isoc/bget_malloc.c:247
    69c2:	6923      	ldr	r3, [r4, #16]
    69c4:	622b      	str	r3, [r5, #32]
malloc_get_stats():
/home/aom1/Work/Linux/target/STM32MP1-DK2/bootloader/optee-os-custom/lib/libutils/isoc/bget_malloc.c:254
    69c6:	bd38      	pop	{r3, r4, r5, pc}
    69c8:	00002878 	.word	0x00002878

000069cc <raw_memalign>:
raw_memalign():
/home/aom1/Work/Linux/target/STM32MP1-DK2/bootloader/optee-os-custom/lib/libutils/isoc/bget_malloc.c:351
    69cc:	b5f8      	push	{r3, r4, r5, r6, r7, lr}
    69ce:	4606      	mov	r6, r0
    69d0:	9f06      	ldr	r7, [sp, #24]
    69d2:	461d      	mov	r5, r3
/home/aom1/Work/Linux/target/STM32MP1-DK2/bootloader/optee-os-custom/lib/libutils/isoc/bget_malloc.c:355
    69d4:	4614      	mov	r4, r2
    69d6:	b1aa      	cbz	r2, 6a04 <raw_memalign+0x38>
/home/aom1/Work/Linux/target/STM32MP1-DK2/bootloader/optee-os-custom/lib/libutils/isoc/bget_malloc.c:355 (discriminator 2)
    69d8:	4253      	negs	r3, r2
    69da:	ea03 0002 	and.w	r0, r3, r2
    69de:	439c      	bics	r4, r3
    69e0:	d114      	bne.n	6a0c <raw_memalign+0x40>
/home/aom1/Work/Linux/target/STM32MP1-DK2/bootloader/optee-os-custom/lib/libutils/isoc/bget_malloc.c:361
    69e2:	186a      	adds	r2, r5, r1
    69e4:	d410      	bmi.n	6a08 <raw_memalign+0x3c>
    69e6:	428a      	cmp	r2, r1
    69e8:	d30e      	bcc.n	6a08 <raw_memalign+0x3c>
/home/aom1/Work/Linux/target/STM32MP1-DK2/bootloader/optee-os-custom/lib/libutils/isoc/bget_malloc.c:366
    69ea:	2a00      	cmp	r2, #0
/home/aom1/Work/Linux/target/STM32MP1-DK2/bootloader/optee-os-custom/lib/libutils/isoc/bget_malloc.c:368
    69ec:	463b      	mov	r3, r7
    69ee:	bf08      	it	eq
    69f0:	2201      	moveq	r2, #1
    69f2:	4631      	mov	r1, r6
    69f4:	f7ff fcda 	bl	63ac <bget>
    69f8:	4604      	mov	r4, r0
/home/aom1/Work/Linux/target/STM32MP1-DK2/bootloader/optee-os-custom/lib/libutils/isoc/bget_malloc.c:370
    69fa:	463a      	mov	r2, r7
    69fc:	4629      	mov	r1, r5
    69fe:	4620      	mov	r0, r4
    6a00:	f7ff fcc4 	bl	638c <raw_malloc_return_hook>
/home/aom1/Work/Linux/target/STM32MP1-DK2/bootloader/optee-os-custom/lib/libutils/isoc/bget_malloc.c:373
    6a04:	4620      	mov	r0, r4
    6a06:	bdf8      	pop	{r3, r4, r5, r6, r7, pc}
/home/aom1/Work/Linux/target/STM32MP1-DK2/bootloader/optee-os-custom/lib/libutils/isoc/bget_malloc.c:352
    6a08:	2400      	movs	r4, #0
    6a0a:	e7f6      	b.n	69fa <raw_memalign+0x2e>
/home/aom1/Work/Linux/target/STM32MP1-DK2/bootloader/optee-os-custom/lib/libutils/isoc/bget_malloc.c:356
    6a0c:	2400      	movs	r4, #0
    6a0e:	e7f9      	b.n	6a04 <raw_memalign+0x38>

00006a10 <raw_malloc>:
raw_malloc():
/home/aom1/Work/Linux/target/STM32MP1-DK2/bootloader/optee-os-custom/lib/libutils/isoc/bget_malloc.c:377
    6a10:	b507      	push	{r0, r1, r2, lr}
/home/aom1/Work/Linux/target/STM32MP1-DK2/bootloader/optee-os-custom/lib/libutils/isoc/bget_malloc.c:382
    6a12:	9300      	str	r3, [sp, #0]
    6a14:	4613      	mov	r3, r2
    6a16:	2208      	movs	r2, #8
    6a18:	f7ff ffd8 	bl	69cc <raw_memalign>
/home/aom1/Work/Linux/target/STM32MP1-DK2/bootloader/optee-os-custom/lib/libutils/isoc/bget_malloc.c:383
    6a1c:	b003      	add	sp, #12
    6a1e:	f85d fb04 	ldr.w	pc, [sp], #4

00006a22 <raw_free>:
raw_free():
/home/aom1/Work/Linux/target/STM32MP1-DK2/bootloader/optee-os-custom/lib/libutils/isoc/bget_malloc.c:389
    6a22:	b108      	cbz	r0, 6a28 <raw_free+0x6>
/home/aom1/Work/Linux/target/STM32MP1-DK2/bootloader/optee-os-custom/lib/libutils/isoc/bget_malloc.c:390
    6a24:	f7ff bdf4 	b.w	6610 <brel>
/home/aom1/Work/Linux/target/STM32MP1-DK2/bootloader/optee-os-custom/lib/libutils/isoc/bget_malloc.c:391
    6a28:	4770      	bx	lr

00006a2a <raw_calloc>:
raw_calloc():
/home/aom1/Work/Linux/target/STM32MP1-DK2/bootloader/optee-os-custom/lib/libutils/isoc/bget_malloc.c:395
    6a2a:	b5f8      	push	{r3, r4, r5, r6, r7, lr}
    6a2c:	4684      	mov	ip, r0
/home/aom1/Work/Linux/target/STM32MP1-DK2/bootloader/optee-os-custom/lib/libutils/isoc/bget_malloc.c:402
    6a2e:	fba2 5403 	umull	r5, r4, r2, r3
/home/aom1/Work/Linux/target/STM32MP1-DK2/bootloader/optee-os-custom/lib/libutils/isoc/bget_malloc.c:395
    6a32:	9f06      	ldr	r7, [sp, #24]
/home/aom1/Work/Linux/target/STM32MP1-DK2/bootloader/optee-os-custom/lib/libutils/isoc/bget_malloc.c:402
    6a34:	3c00      	subs	r4, #0
    6a36:	bf18      	it	ne
    6a38:	2401      	movne	r4, #1
    6a3a:	2d00      	cmp	r5, #0
    6a3c:	db17      	blt.n	6a6e <raw_calloc+0x44>
    6a3e:	b9b4      	cbnz	r4, 6a6e <raw_calloc+0x44>
/home/aom1/Work/Linux/target/STM32MP1-DK2/bootloader/optee-os-custom/lib/libutils/isoc/bget_malloc.c:404
    6a40:	186a      	adds	r2, r5, r1
    6a42:	f102 4600 	add.w	r6, r2, #2147483648	; 0x80000000
    6a46:	428e      	cmp	r6, r1
    6a48:	bf2c      	ite	cs
    6a4a:	2000      	movcs	r0, #0
    6a4c:	2001      	movcc	r0, #1
    6a4e:	b938      	cbnz	r0, 6a60 <raw_calloc+0x36>
/home/aom1/Work/Linux/target/STM32MP1-DK2/bootloader/optee-os-custom/lib/libutils/isoc/bget_malloc.c:409
    6a50:	2a00      	cmp	r2, #0
/home/aom1/Work/Linux/target/STM32MP1-DK2/bootloader/optee-os-custom/lib/libutils/isoc/bget_malloc.c:411
    6a52:	463b      	mov	r3, r7
    6a54:	bf08      	it	eq
    6a56:	2201      	moveq	r2, #1
    6a58:	4661      	mov	r1, ip
    6a5a:	f7ff fda9 	bl	65b0 <bgetz>
    6a5e:	4604      	mov	r4, r0
/home/aom1/Work/Linux/target/STM32MP1-DK2/bootloader/optee-os-custom/lib/libutils/isoc/bget_malloc.c:413
    6a60:	4620      	mov	r0, r4
    6a62:	463a      	mov	r2, r7
    6a64:	4629      	mov	r1, r5
    6a66:	f7ff fc91 	bl	638c <raw_malloc_return_hook>
/home/aom1/Work/Linux/target/STM32MP1-DK2/bootloader/optee-os-custom/lib/libutils/isoc/bget_malloc.c:416
    6a6a:	4620      	mov	r0, r4
    6a6c:	bdf8      	pop	{r3, r4, r5, r6, r7, pc}
/home/aom1/Work/Linux/target/STM32MP1-DK2/bootloader/optee-os-custom/lib/libutils/isoc/bget_malloc.c:396
    6a6e:	2400      	movs	r4, #0
    6a70:	e7f6      	b.n	6a60 <raw_calloc+0x36>

00006a72 <raw_realloc>:
raw_realloc():
/home/aom1/Work/Linux/target/STM32MP1-DK2/bootloader/optee-os-custom/lib/libutils/isoc/bget_malloc.c:420
    6a72:	b573      	push	{r0, r1, r4, r5, r6, lr}
    6a74:	461d      	mov	r5, r3
/home/aom1/Work/Linux/target/STM32MP1-DK2/bootloader/optee-os-custom/lib/libutils/isoc/bget_malloc.c:425
    6a76:	185c      	adds	r4, r3, r1
/home/aom1/Work/Linux/target/STM32MP1-DK2/bootloader/optee-os-custom/lib/libutils/isoc/bget_malloc.c:420
    6a78:	9e06      	ldr	r6, [sp, #24]
/home/aom1/Work/Linux/target/STM32MP1-DK2/bootloader/optee-os-custom/lib/libutils/isoc/bget_malloc.c:425
    6a7a:	d409      	bmi.n	6a90 <raw_realloc+0x1e>
    6a7c:	428c      	cmp	r4, r1
    6a7e:	d307      	bcc.n	6a90 <raw_realloc+0x1e>
/home/aom1/Work/Linux/target/STM32MP1-DK2/bootloader/optee-os-custom/lib/libutils/isoc/bget_malloc.c:427
    6a80:	4414      	add	r4, r2
    6a82:	f104 4300 	add.w	r3, r4, #2147483648	; 0x80000000
    6a86:	4293      	cmp	r3, r2
    6a88:	bf2c      	ite	cs
    6a8a:	2200      	movcs	r2, #0
    6a8c:	2201      	movcc	r2, #1
    6a8e:	b10a      	cbz	r2, 6a94 <raw_realloc+0x22>
/home/aom1/Work/Linux/target/STM32MP1-DK2/bootloader/optee-os-custom/lib/libutils/isoc/bget_malloc.c:421
    6a90:	2400      	movs	r4, #0
    6a92:	e008      	b.n	6aa6 <raw_realloc+0x34>
/home/aom1/Work/Linux/target/STM32MP1-DK2/bootloader/optee-os-custom/lib/libutils/isoc/bget_malloc.c:436
    6a94:	9600      	str	r6, [sp, #0]
/home/aom1/Work/Linux/target/STM32MP1-DK2/bootloader/optee-os-custom/lib/libutils/isoc/bget_malloc.c:434
    6a96:	2c00      	cmp	r4, #0
/home/aom1/Work/Linux/target/STM32MP1-DK2/bootloader/optee-os-custom/lib/libutils/isoc/bget_malloc.c:436
    6a98:	bf14      	ite	ne
    6a9a:	4623      	movne	r3, r4
    6a9c:	2301      	moveq	r3, #1
    6a9e:	4611      	mov	r1, r2
    6aa0:	f7ff feba 	bl	6818 <bgetr>
    6aa4:	4604      	mov	r4, r0
/home/aom1/Work/Linux/target/STM32MP1-DK2/bootloader/optee-os-custom/lib/libutils/isoc/bget_malloc.c:438
    6aa6:	4620      	mov	r0, r4
    6aa8:	4632      	mov	r2, r6
    6aaa:	4629      	mov	r1, r5
    6aac:	f7ff fc6e 	bl	638c <raw_malloc_return_hook>
/home/aom1/Work/Linux/target/STM32MP1-DK2/bootloader/optee-os-custom/lib/libutils/isoc/bget_malloc.c:441
    6ab0:	4620      	mov	r0, r4
    6ab2:	b002      	add	sp, #8
    6ab4:	bd70      	pop	{r4, r5, r6, pc}

00006ab6 <gen_malloc_add_pool>:
gen_malloc_add_pool():
/home/aom1/Work/Linux/target/STM32MP1-DK2/bootloader/optee-os-custom/lib/libutils/isoc/bget_malloc.c:787
    6ab6:	b5f7      	push	{r0, r1, r2, r4, r5, r6, r7, lr}
    6ab8:	4604      	mov	r4, r0
/home/aom1/Work/Linux/target/STM32MP1-DK2/bootloader/optee-os-custom/lib/libutils/isoc/bget_malloc.c:792
    6aba:	188d      	adds	r5, r1, r2
/home/aom1/Work/Linux/target/STM32MP1-DK2/bootloader/optee-os-custom/lib/libutils/isoc/bget_malloc.c:795
    6abc:	3107      	adds	r1, #7
    6abe:	f021 0607 	bic.w	r6, r1, #7
/home/aom1/Work/Linux/target/STM32MP1-DK2/bootloader/optee-os-custom/lib/libutils/isoc/bget_malloc.c:796
    6ac2:	f025 0507 	bic.w	r5, r5, #7
/home/aom1/Work/Linux/target/STM32MP1-DK2/bootloader/optee-os-custom/lib/libutils/isoc/bget_malloc.c:798
    6ac6:	42ae      	cmp	r6, r5
    6ac8:	d82e      	bhi.n	6b28 <gen_malloc_add_pool+0x72>
/home/aom1/Work/Linux/target/STM32MP1-DK2/bootloader/optee-os-custom/lib/libutils/isoc/bget_malloc.c:798 (discriminator 1)
    6aca:	1bad      	subs	r5, r5, r6
    6acc:	2d17      	cmp	r5, #23
    6ace:	d92b      	bls.n	6b28 <gen_malloc_add_pool+0x72>
/home/aom1/Work/Linux/target/STM32MP1-DK2/bootloader/optee-os-custom/lib/libutils/isoc/bget_malloc.c:804
    6ad0:	6a03      	ldr	r3, [r0, #32]
    6ad2:	b913      	cbnz	r3, 6ada <gen_malloc_add_pool+0x24>
/home/aom1/Work/Linux/target/STM32MP1-DK2/bootloader/optee-os-custom/lib/libutils/isoc/bget_malloc.c:804 (discriminator 1)
    6ad4:	f5b5 6f80 	cmp.w	r5, #1024	; 0x400
    6ad8:	d326      	bcc.n	6b28 <gen_malloc_add_pool+0x72>
/home/aom1/Work/Linux/target/STM32MP1-DK2/bootloader/optee-os-custom/lib/libutils/isoc/bget_malloc.c:812
    6ada:	4622      	mov	r2, r4
    6adc:	4629      	mov	r1, r5
    6ade:	4630      	mov	r0, r6
    6ae0:	f7ff fedc 	bl	689c <bpool>
/home/aom1/Work/Linux/target/STM32MP1-DK2/bootloader/optee-os-custom/lib/libutils/isoc/bget_malloc.c:813
    6ae4:	6a27      	ldr	r7, [r4, #32]
realloc_unlocked():
/home/aom1/Work/Linux/target/STM32MP1-DK2/bootloader/optee-os-custom/lib/libutils/isoc/bget_malloc.c:745
    6ae6:	2200      	movs	r2, #0
    6ae8:	69e0      	ldr	r0, [r4, #28]
    6aea:	4611      	mov	r1, r2
    6aec:	9400      	str	r4, [sp, #0]
gen_malloc_add_pool():
/home/aom1/Work/Linux/target/STM32MP1-DK2/bootloader/optee-os-custom/lib/libutils/isoc/bget_malloc.c:813
    6aee:	3701      	adds	r7, #1
realloc_unlocked():
/home/aom1/Work/Linux/target/STM32MP1-DK2/bootloader/optee-os-custom/lib/libutils/isoc/bget_malloc.c:745
    6af0:	00fb      	lsls	r3, r7, #3
    6af2:	f7ff ffbe 	bl	6a72 <raw_realloc>
gen_malloc_add_pool():
/home/aom1/Work/Linux/target/STM32MP1-DK2/bootloader/optee-os-custom/lib/libutils/isoc/bget_malloc.c:815
    6af6:	b960      	cbnz	r0, 6b12 <gen_malloc_add_pool+0x5c>
/home/aom1/Work/Linux/target/STM32MP1-DK2/bootloader/optee-os-custom/lib/libutils/isoc/bget_malloc.c:815 (discriminator 1)
    6af8:	4b0c      	ldr	r3, [pc, #48]	; (6b2c <gen_malloc_add_pool+0x76>)
    6afa:	f240 322f 	movw	r2, #815	; 0x32f
    6afe:	490c      	ldr	r1, [pc, #48]	; (6b30 <gen_malloc_add_pool+0x7a>)
    6b00:	480c      	ldr	r0, [pc, #48]	; (6b34 <gen_malloc_add_pool+0x7e>)
    6b02:	447b      	add	r3, pc
    6b04:	4479      	add	r1, pc
    6b06:	3323      	adds	r3, #35	; 0x23
    6b08:	4478      	add	r0, pc
    6b0a:	f7fc ff23 	bl	3954 <_assert_log>
    6b0e:	f7fc ff35 	bl	397c <_assert_break>
/home/aom1/Work/Linux/target/STM32MP1-DK2/bootloader/optee-os-custom/lib/libutils/isoc/bget_malloc.c:817 (discriminator 2)
    6b12:	6a23      	ldr	r3, [r4, #32]
/home/aom1/Work/Linux/target/STM32MP1-DK2/bootloader/optee-os-custom/lib/libutils/isoc/bget_malloc.c:816 (discriminator 2)
    6b14:	61e0      	str	r0, [r4, #28]
/home/aom1/Work/Linux/target/STM32MP1-DK2/bootloader/optee-os-custom/lib/libutils/isoc/bget_malloc.c:817 (discriminator 2)
    6b16:	eb00 02c3 	add.w	r2, r0, r3, lsl #3
    6b1a:	f840 6033 	str.w	r6, [r0, r3, lsl #3]
/home/aom1/Work/Linux/target/STM32MP1-DK2/bootloader/optee-os-custom/lib/libutils/isoc/bget_malloc.c:820 (discriminator 2)
    6b1e:	6ce3      	ldr	r3, [r4, #76]	; 0x4c
/home/aom1/Work/Linux/target/STM32MP1-DK2/bootloader/optee-os-custom/lib/libutils/isoc/bget_malloc.c:818 (discriminator 2)
    6b20:	6055      	str	r5, [r2, #4]
/home/aom1/Work/Linux/target/STM32MP1-DK2/bootloader/optee-os-custom/lib/libutils/isoc/bget_malloc.c:820 (discriminator 2)
    6b22:	442b      	add	r3, r5
    6b24:	64e3      	str	r3, [r4, #76]	; 0x4c
/home/aom1/Work/Linux/target/STM32MP1-DK2/bootloader/optee-os-custom/lib/libutils/isoc/bget_malloc.c:822 (discriminator 2)
    6b26:	6227      	str	r7, [r4, #32]
/home/aom1/Work/Linux/target/STM32MP1-DK2/bootloader/optee-os-custom/lib/libutils/isoc/bget_malloc.c:824
    6b28:	b003      	add	sp, #12
    6b2a:	bdf0      	pop	{r4, r5, r6, r7, pc}
    6b2c:	00001621 	.word	0x00001621
    6b30:	000015fd 	.word	0x000015fd
    6b34:	00001619 	.word	0x00001619

00006b38 <malloc>:
malloc():
/home/aom1/Work/Linux/target/STM32MP1-DK2/bootloader/optee-os-custom/lib/libutils/isoc/bget_malloc.c:719
    6b38:	4b03      	ldr	r3, [pc, #12]	; (6b48 <malloc+0x10>)
    6b3a:	2100      	movs	r1, #0
/home/aom1/Work/Linux/target/STM32MP1-DK2/bootloader/optee-os-custom/lib/libutils/isoc/bget_malloc.c:715
    6b3c:	4602      	mov	r2, r0
/home/aom1/Work/Linux/target/STM32MP1-DK2/bootloader/optee-os-custom/lib/libutils/isoc/bget_malloc.c:719
    6b3e:	4608      	mov	r0, r1
    6b40:	447b      	add	r3, pc
    6b42:	f7ff bf65 	b.w	6a10 <raw_malloc>
    6b46:	bf00      	nop
    6b48:	000026f0 	.word	0x000026f0

00006b4c <calloc>:
calloc():
/home/aom1/Work/Linux/target/STM32MP1-DK2/bootloader/optee-os-custom/lib/libutils/isoc/bget_malloc.c:733
    6b4c:	b507      	push	{r0, r1, r2, lr}
    6b4e:	460b      	mov	r3, r1
/home/aom1/Work/Linux/target/STM32MP1-DK2/bootloader/optee-os-custom/lib/libutils/isoc/bget_malloc.c:737
    6b50:	4905      	ldr	r1, [pc, #20]	; (6b68 <calloc+0x1c>)
/home/aom1/Work/Linux/target/STM32MP1-DK2/bootloader/optee-os-custom/lib/libutils/isoc/bget_malloc.c:733
    6b52:	4602      	mov	r2, r0
/home/aom1/Work/Linux/target/STM32MP1-DK2/bootloader/optee-os-custom/lib/libutils/isoc/bget_malloc.c:737
    6b54:	4479      	add	r1, pc
    6b56:	9100      	str	r1, [sp, #0]
    6b58:	2100      	movs	r1, #0
    6b5a:	4608      	mov	r0, r1
    6b5c:	f7ff ff65 	bl	6a2a <raw_calloc>
/home/aom1/Work/Linux/target/STM32MP1-DK2/bootloader/optee-os-custom/lib/libutils/isoc/bget_malloc.c:740
    6b60:	b003      	add	sp, #12
    6b62:	f85d fb04 	ldr.w	pc, [sp], #4
    6b66:	bf00      	nop
    6b68:	000026dc 	.word	0x000026dc

00006b6c <realloc>:
realloc():
/home/aom1/Work/Linux/target/STM32MP1-DK2/bootloader/optee-os-custom/lib/libutils/isoc/bget_malloc.c:749
    6b6c:	b507      	push	{r0, r1, r2, lr}
    6b6e:	460b      	mov	r3, r1
realloc_unlocked():
/home/aom1/Work/Linux/target/STM32MP1-DK2/bootloader/optee-os-custom/lib/libutils/isoc/bget_malloc.c:745
    6b70:	4a04      	ldr	r2, [pc, #16]	; (6b84 <realloc+0x18>)
    6b72:	447a      	add	r2, pc
    6b74:	9200      	str	r2, [sp, #0]
    6b76:	2200      	movs	r2, #0
    6b78:	4611      	mov	r1, r2
    6b7a:	f7ff ff7a 	bl	6a72 <raw_realloc>
realloc():
/home/aom1/Work/Linux/target/STM32MP1-DK2/bootloader/optee-os-custom/lib/libutils/isoc/bget_malloc.c:756
    6b7e:	b003      	add	sp, #12
    6b80:	f85d fb04 	ldr.w	pc, [sp], #4
    6b84:	000026be 	.word	0x000026be

00006b88 <memalign>:
memalign():
/home/aom1/Work/Linux/target/STM32MP1-DK2/bootloader/optee-os-custom/lib/libutils/isoc/bget_malloc.c:759
    6b88:	b507      	push	{r0, r1, r2, lr}
    6b8a:	460b      	mov	r3, r1
/home/aom1/Work/Linux/target/STM32MP1-DK2/bootloader/optee-os-custom/lib/libutils/isoc/bget_malloc.c:763
    6b8c:	4905      	ldr	r1, [pc, #20]	; (6ba4 <memalign+0x1c>)
/home/aom1/Work/Linux/target/STM32MP1-DK2/bootloader/optee-os-custom/lib/libutils/isoc/bget_malloc.c:759
    6b8e:	4602      	mov	r2, r0
/home/aom1/Work/Linux/target/STM32MP1-DK2/bootloader/optee-os-custom/lib/libutils/isoc/bget_malloc.c:763
    6b90:	4479      	add	r1, pc
    6b92:	9100      	str	r1, [sp, #0]
    6b94:	2100      	movs	r1, #0
    6b96:	4608      	mov	r0, r1
    6b98:	f7ff ff18 	bl	69cc <raw_memalign>
/home/aom1/Work/Linux/target/STM32MP1-DK2/bootloader/optee-os-custom/lib/libutils/isoc/bget_malloc.c:766
    6b9c:	b003      	add	sp, #12
    6b9e:	f85d fb04 	ldr.w	pc, [sp], #4
    6ba2:	bf00      	nop
    6ba4:	000026a0 	.word	0x000026a0

00006ba8 <free>:
free_helper():
/home/aom1/Work/Linux/target/STM32MP1-DK2/bootloader/optee-os-custom/lib/libutils/isoc/bget_malloc.c:728
    6ba8:	4902      	ldr	r1, [pc, #8]	; (6bb4 <free+0xc>)
    6baa:	2200      	movs	r2, #0
    6bac:	4479      	add	r1, pc
    6bae:	f7ff bf38 	b.w	6a22 <raw_free>
    6bb2:	bf00      	nop
    6bb4:	00002684 	.word	0x00002684

00006bb8 <free_wipe>:
    6bb8:	4902      	ldr	r1, [pc, #8]	; (6bc4 <free_wipe+0xc>)
    6bba:	2201      	movs	r2, #1
    6bbc:	4479      	add	r1, pc
    6bbe:	f7ff bf30 	b.w	6a22 <raw_free>
    6bc2:	bf00      	nop
    6bc4:	00002674 	.word	0x00002674

00006bc8 <raw_malloc_get_ctx_size>:
raw_malloc_get_ctx_size():
/home/aom1/Work/Linux/target/STM32MP1-DK2/bootloader/optee-os-custom/lib/libutils/isoc/bget_malloc.c:896
    6bc8:	205c      	movs	r0, #92	; 0x5c
    6bca:	4770      	bx	lr

00006bcc <raw_malloc_init_ctx>:
raw_malloc_init_ctx():
/home/aom1/Work/Linux/target/STM32MP1-DK2/bootloader/optee-os-custom/lib/libutils/isoc/bget_malloc.c:899
    6bcc:	b510      	push	{r4, lr}
    6bce:	4604      	mov	r4, r0
/home/aom1/Work/Linux/target/STM32MP1-DK2/bootloader/optee-os-custom/lib/libutils/isoc/bget_malloc.c:900
    6bd0:	225c      	movs	r2, #92	; 0x5c
    6bd2:	2100      	movs	r1, #0
    6bd4:	f000 f99d 	bl	6f12 <memset>
/home/aom1/Work/Linux/target/STM32MP1-DK2/bootloader/optee-os-custom/lib/libutils/isoc/bget_malloc.c:901
    6bd8:	60a4      	str	r4, [r4, #8]
/home/aom1/Work/Linux/target/STM32MP1-DK2/bootloader/optee-os-custom/lib/libutils/isoc/bget_malloc.c:902
    6bda:	60e4      	str	r4, [r4, #12]
/home/aom1/Work/Linux/target/STM32MP1-DK2/bootloader/optee-os-custom/lib/libutils/isoc/bget_malloc.c:903
    6bdc:	bd10      	pop	{r4, pc}

00006bde <raw_malloc_add_pool>:
raw_malloc_add_pool():
/home/aom1/Work/Linux/target/STM32MP1-DK2/bootloader/optee-os-custom/lib/libutils/isoc/bget_malloc.c:907
    6bde:	e76a      	b.n	6ab6 <gen_malloc_add_pool>

00006be0 <raw_malloc_get_stats>:
raw_malloc_get_stats():
/home/aom1/Work/Linux/target/STM32MP1-DK2/bootloader/optee-os-custom/lib/libutils/isoc/bget_malloc.c:912
    6be0:	460b      	mov	r3, r1
memcpy_unchecked():
/home/aom1/Work/Linux/target/STM32MP1-DK2/bootloader/optee-os-custom/lib/libutils/isoc/bget_malloc.c:137
    6be2:	2238      	movs	r2, #56	; 0x38
raw_malloc_get_stats():
/home/aom1/Work/Linux/target/STM32MP1-DK2/bootloader/optee-os-custom/lib/libutils/isoc/bget_malloc.c:912
    6be4:	b510      	push	{r4, lr}
    6be6:	4604      	mov	r4, r0
memcpy_unchecked():
/home/aom1/Work/Linux/target/STM32MP1-DK2/bootloader/optee-os-custom/lib/libutils/isoc/bget_malloc.c:137
    6be8:	f100 0124 	add.w	r1, r0, #36	; 0x24
    6bec:	4618      	mov	r0, r3
    6bee:	f000 f8a5 	bl	6d3c <memcpy>
gen_malloc_get_stats():
/home/aom1/Work/Linux/target/STM32MP1-DK2/bootloader/optee-os-custom/lib/libutils/isoc/bget_malloc.c:247
    6bf2:	6922      	ldr	r2, [r4, #16]
    6bf4:	6202      	str	r2, [r0, #32]
raw_malloc_get_stats():
/home/aom1/Work/Linux/target/STM32MP1-DK2/bootloader/optee-os-custom/lib/libutils/isoc/bget_malloc.c:914
    6bf6:	bd10      	pop	{r4, pc}

00006bf8 <malloc_add_pool>:
malloc_add_pool():
/home/aom1/Work/Linux/target/STM32MP1-DK2/bootloader/optee-os-custom/lib/libutils/isoc/bget_malloc.c:918
    6bf8:	460a      	mov	r2, r1
/home/aom1/Work/Linux/target/STM32MP1-DK2/bootloader/optee-os-custom/lib/libutils/isoc/bget_malloc.c:919
    6bfa:	4601      	mov	r1, r0
    6bfc:	4801      	ldr	r0, [pc, #4]	; (6c04 <malloc_add_pool+0xc>)
    6bfe:	4478      	add	r0, pc
    6c00:	e759      	b.n	6ab6 <gen_malloc_add_pool>
    6c02:	bf00      	nop
    6c04:	00002632 	.word	0x00002632

00006c08 <malloc_buffer_is_within_alloced>:
gen_malloc_buffer_is_within_alloced():
/home/aom1/Work/Linux/target/STM32MP1-DK2/bootloader/optee-os-custom/lib/libutils/isoc/bget_malloc.c:839
    6c08:	1841      	adds	r1, r0, r1
malloc_buffer_is_within_alloced():
/home/aom1/Work/Linux/target/STM32MP1-DK2/bootloader/optee-os-custom/lib/libutils/isoc/bget_malloc.c:923
    6c0a:	e92d 41f0 	stmdb	sp!, {r4, r5, r6, r7, r8, lr}
gen_malloc_buffer_is_within_alloced():
/home/aom1/Work/Linux/target/STM32MP1-DK2/bootloader/optee-os-custom/lib/libutils/isoc/bget_malloc.c:839
    6c0e:	d253      	bcs.n	6cb8 <malloc_buffer_is_within_alloced+0xb0>
bpool_foreach_iterator_init():
/home/aom1/Work/Linux/target/STM32MP1-DK2/bootloader/optee-os-custom/lib/libutils/isoc/bget_malloc.c:290
    6c10:	4a2b      	ldr	r2, [pc, #172]	; (6cc0 <malloc_buffer_is_within_alloced+0xb8>)
/home/aom1/Work/Linux/target/STM32MP1-DK2/bootloader/optee-os-custom/lib/libutils/isoc/bget_malloc.c:289
    6c12:	2500      	movs	r5, #0
    6c14:	f06f 0e07 	mvn.w	lr, #7
/home/aom1/Work/Linux/target/STM32MP1-DK2/bootloader/optee-os-custom/lib/libutils/isoc/bget_malloc.c:290
    6c18:	447a      	add	r2, pc
    6c1a:	69d6      	ldr	r6, [r2, #28]
bpool_foreach():
/home/aom1/Work/Linux/target/STM32MP1-DK2/bootloader/optee-os-custom/lib/libutils/isoc/bget_malloc.c:336
    6c1c:	f8d2 c020 	ldr.w	ip, [r2, #32]
bpool_foreach_iterator_init():
/home/aom1/Work/Linux/target/STM32MP1-DK2/bootloader/optee-os-custom/lib/libutils/isoc/bget_malloc.c:290
    6c20:	6833      	ldr	r3, [r6, #0]
bpool_foreach_pool():
/home/aom1/Work/Linux/target/STM32MP1-DK2/bootloader/optee-os-custom/lib/libutils/isoc/bget_malloc.c:297
    6c22:	685a      	ldr	r2, [r3, #4]
bpool_foreach_iterator_init():
/home/aom1/Work/Linux/target/STM32MP1-DK2/bootloader/optee-os-custom/lib/libutils/isoc/bget_malloc.c:289
    6c24:	461c      	mov	r4, r3
bpool_foreach_pool():
/home/aom1/Work/Linux/target/STM32MP1-DK2/bootloader/optee-os-custom/lib/libutils/isoc/bget_malloc.c:299
    6c26:	f1b2 4f00 	cmp.w	r2, #2147483648	; 0x80000000
    6c2a:	d042      	beq.n	6cb2 <malloc_buffer_is_within_alloced+0xaa>
/home/aom1/Work/Linux/target/STM32MP1-DK2/bootloader/optee-os-custom/lib/libutils/isoc/bget_malloc.c:302
    6c2c:	2a00      	cmp	r2, #0
    6c2e:	da1e      	bge.n	6c6e <malloc_buffer_is_within_alloced+0x66>
/home/aom1/Work/Linux/target/STM32MP1-DK2/bootloader/optee-os-custom/lib/libutils/isoc/bget_malloc.c:304
    6c30:	f1c2 0800 	rsb	r8, r2, #0
/home/aom1/Work/Linux/target/STM32MP1-DK2/bootloader/optee-os-custom/lib/libutils/isoc/bget_malloc.c:306
    6c34:	2700      	movs	r7, #0
/home/aom1/Work/Linux/target/STM32MP1-DK2/bootloader/optee-os-custom/lib/libutils/isoc/bget_malloc.c:319
    6c36:	4443      	add	r3, r8
bpool_foreach():
/home/aom1/Work/Linux/target/STM32MP1-DK2/bootloader/optee-os-custom/lib/libutils/isoc/bget_malloc.c:331
    6c38:	2f00      	cmp	r7, #0
    6c3a:	d1f2      	bne.n	6c22 <malloc_buffer_is_within_alloced+0x1a>
bget_buf_size():
/home/aom1/Work/Linux/target/STM32MP1-DK2/bootloader/optee-os-custom/lib/libutils/isoc/bget_malloc.c:460
    6c3c:	ebae 0202 	sub.w	r2, lr, r2
/home/aom1/Work/Linux/target/STM32MP1-DK2/bootloader/optee-os-custom/lib/libutils/isoc/bget_malloc.c:461
    6c40:	2a00      	cmp	r2, #0
    6c42:	dc0c      	bgt.n	6c5e <malloc_buffer_is_within_alloced+0x56>
    6c44:	4b1f      	ldr	r3, [pc, #124]	; (6cc4 <malloc_buffer_is_within_alloced+0xbc>)
    6c46:	f240 12cd 	movw	r2, #461	; 0x1cd
    6c4a:	491f      	ldr	r1, [pc, #124]	; (6cc8 <malloc_buffer_is_within_alloced+0xc0>)
    6c4c:	481f      	ldr	r0, [pc, #124]	; (6ccc <malloc_buffer_is_within_alloced+0xc4>)
    6c4e:	447b      	add	r3, pc
    6c50:	4479      	add	r1, pc
    6c52:	3337      	adds	r3, #55	; 0x37
    6c54:	4478      	add	r0, pc
bpool_foreach_pool():
/home/aom1/Work/Linux/target/STM32MP1-DK2/bootloader/optee-os-custom/lib/libutils/isoc/bget_malloc.c:312
    6c56:	f7fc fe7d 	bl	3954 <_assert_log>
    6c5a:	f7fc fe8f 	bl	397c <_assert_break>
/home/aom1/Work/Linux/target/STM32MP1-DK2/bootloader/optee-os-custom/lib/libutils/isoc/bget_malloc.c:316
    6c5e:	3408      	adds	r4, #8
gen_malloc_buffer_is_within_alloced():
/home/aom1/Work/Linux/target/STM32MP1-DK2/bootloader/optee-os-custom/lib/libutils/isoc/bget_malloc.c:850
    6c60:	42a0      	cmp	r0, r4
    6c62:	d3de      	bcc.n	6c22 <malloc_buffer_is_within_alloced+0x1a>
/home/aom1/Work/Linux/target/STM32MP1-DK2/bootloader/optee-os-custom/lib/libutils/isoc/bget_malloc.c:848
    6c64:	4414      	add	r4, r2
/home/aom1/Work/Linux/target/STM32MP1-DK2/bootloader/optee-os-custom/lib/libutils/isoc/bget_malloc.c:850
    6c66:	42a1      	cmp	r1, r4
    6c68:	d8db      	bhi.n	6c22 <malloc_buffer_is_within_alloced+0x1a>
/home/aom1/Work/Linux/target/STM32MP1-DK2/bootloader/optee-os-custom/lib/libutils/isoc/bget_malloc.c:851
    6c6a:	2001      	movs	r0, #1
malloc_buffer_is_within_alloced():
/home/aom1/Work/Linux/target/STM32MP1-DK2/bootloader/optee-os-custom/lib/libutils/isoc/bget_malloc.c:924
    6c6c:	e025      	b.n	6cba <malloc_buffer_is_within_alloced+0xb2>
bpool_foreach_pool():
/home/aom1/Work/Linux/target/STM32MP1-DK2/bootloader/optee-os-custom/lib/libutils/isoc/bget_malloc.c:312
    6c6e:	68df      	ldr	r7, [r3, #12]
    6c70:	68bf      	ldr	r7, [r7, #8]
    6c72:	429f      	cmp	r7, r3
    6c74:	d009      	beq.n	6c8a <malloc_buffer_is_within_alloced+0x82>
    6c76:	4b16      	ldr	r3, [pc, #88]	; (6cd0 <malloc_buffer_is_within_alloced+0xc8>)
    6c78:	f44f 729c 	mov.w	r2, #312	; 0x138
    6c7c:	4915      	ldr	r1, [pc, #84]	; (6cd4 <malloc_buffer_is_within_alloced+0xcc>)
    6c7e:	4816      	ldr	r0, [pc, #88]	; (6cd8 <malloc_buffer_is_within_alloced+0xd0>)
    6c80:	447b      	add	r3, pc
    6c82:	4479      	add	r1, pc
    6c84:	3345      	adds	r3, #69	; 0x45
    6c86:	4478      	add	r0, pc
    6c88:	e7e5      	b.n	6c56 <malloc_buffer_is_within_alloced+0x4e>
/home/aom1/Work/Linux/target/STM32MP1-DK2/bootloader/optee-os-custom/lib/libutils/isoc/bget_malloc.c:313
    6c8a:	689f      	ldr	r7, [r3, #8]
    6c8c:	68ff      	ldr	r7, [r7, #12]
    6c8e:	429f      	cmp	r7, r3
    6c90:	d009      	beq.n	6ca6 <malloc_buffer_is_within_alloced+0x9e>
    6c92:	4b12      	ldr	r3, [pc, #72]	; (6cdc <malloc_buffer_is_within_alloced+0xd4>)
    6c94:	f240 1239 	movw	r2, #313	; 0x139
    6c98:	4911      	ldr	r1, [pc, #68]	; (6ce0 <malloc_buffer_is_within_alloced+0xd8>)
    6c9a:	4812      	ldr	r0, [pc, #72]	; (6ce4 <malloc_buffer_is_within_alloced+0xdc>)
    6c9c:	447b      	add	r3, pc
    6c9e:	4479      	add	r1, pc
    6ca0:	3345      	adds	r3, #69	; 0x45
    6ca2:	4478      	add	r0, pc
    6ca4:	e7d7      	b.n	6c56 <malloc_buffer_is_within_alloced+0x4e>
    6ca6:	4690      	mov	r8, r2
/home/aom1/Work/Linux/target/STM32MP1-DK2/bootloader/optee-os-custom/lib/libutils/isoc/bget_malloc.c:309
    6ca8:	2701      	movs	r7, #1
    6caa:	e7c4      	b.n	6c36 <malloc_buffer_is_within_alloced+0x2e>
bpool_foreach():
/home/aom1/Work/Linux/target/STM32MP1-DK2/bootloader/optee-os-custom/lib/libutils/isoc/bget_malloc.c:340
    6cac:	f856 3035 	ldr.w	r3, [r6, r5, lsl #3]
    6cb0:	e7b7      	b.n	6c22 <malloc_buffer_is_within_alloced+0x1a>
/home/aom1/Work/Linux/target/STM32MP1-DK2/bootloader/optee-os-custom/lib/libutils/isoc/bget_malloc.c:336
    6cb2:	3501      	adds	r5, #1
    6cb4:	4565      	cmp	r5, ip
    6cb6:	d3f9      	bcc.n	6cac <malloc_buffer_is_within_alloced+0xa4>
gen_malloc_buffer_is_within_alloced():
/home/aom1/Work/Linux/target/STM32MP1-DK2/bootloader/optee-os-custom/lib/libutils/isoc/bget_malloc.c:833
    6cb8:	2000      	movs	r0, #0
malloc_buffer_is_within_alloced():
/home/aom1/Work/Linux/target/STM32MP1-DK2/bootloader/optee-os-custom/lib/libutils/isoc/bget_malloc.c:925
    6cba:	e8bd 81f0 	ldmia.w	sp!, {r4, r5, r6, r7, r8, pc}
    6cbe:	bf00      	nop
    6cc0:	00002618 	.word	0x00002618
    6cc4:	000014d5 	.word	0x000014d5
    6cc8:	000014b1 	.word	0x000014b1
    6ccc:	0000145e 	.word	0x0000145e
    6cd0:	000014a3 	.word	0x000014a3
    6cd4:	0000147f 	.word	0x0000147f
    6cd8:	0000121d 	.word	0x0000121d
    6cdc:	00001487 	.word	0x00001487
    6ce0:	00001463 	.word	0x00001463
    6ce4:	0000121c 	.word	0x0000121c

00006ce8 <malloc_buffer_overlaps_heap>:
gen_malloc_buffer_overlaps_heap():
/home/aom1/Work/Linux/target/STM32MP1-DK2/bootloader/optee-os-custom/lib/libutils/isoc/bget_malloc.c:873
    6ce8:	4b13      	ldr	r3, [pc, #76]	; (6d38 <malloc_buffer_overlaps_heap+0x50>)
malloc_buffer_overlaps_heap():
/home/aom1/Work/Linux/target/STM32MP1-DK2/bootloader/optee-os-custom/lib/libutils/isoc/bget_malloc.c:928
    6cea:	b5f0      	push	{r4, r5, r6, r7, lr}
gen_malloc_buffer_overlaps_heap():
/home/aom1/Work/Linux/target/STM32MP1-DK2/bootloader/optee-os-custom/lib/libutils/isoc/bget_malloc.c:873
    6cec:	447b      	add	r3, pc
    6cee:	1841      	adds	r1, r0, r1
/home/aom1/Work/Linux/target/STM32MP1-DK2/bootloader/optee-os-custom/lib/libutils/isoc/bget_malloc.c:874
    6cf0:	69dd      	ldr	r5, [r3, #28]
    6cf2:	bf28      	it	cs
    6cf4:	2701      	movcs	r7, #1
/home/aom1/Work/Linux/target/STM32MP1-DK2/bootloader/optee-os-custom/lib/libutils/isoc/bget_malloc.c:873
    6cf6:	6a1e      	ldr	r6, [r3, #32]
    6cf8:	bf38      	it	cc
    6cfa:	2700      	movcc	r7, #0
    6cfc:	2300      	movs	r3, #0
/home/aom1/Work/Linux/target/STM32MP1-DK2/bootloader/optee-os-custom/lib/libutils/isoc/bget_malloc.c:875
    6cfe:	f105 0c04 	add.w	ip, r5, #4
/home/aom1/Work/Linux/target/STM32MP1-DK2/bootloader/optee-os-custom/lib/libutils/isoc/bget_malloc.c:873
    6d02:	42b3      	cmp	r3, r6
    6d04:	d101      	bne.n	6d0a <malloc_buffer_overlaps_heap+0x22>
/home/aom1/Work/Linux/target/STM32MP1-DK2/bootloader/optee-os-custom/lib/libutils/isoc/bget_malloc.c:868
    6d06:	2000      	movs	r0, #0
malloc_buffer_overlaps_heap():
/home/aom1/Work/Linux/target/STM32MP1-DK2/bootloader/optee-os-custom/lib/libutils/isoc/bget_malloc.c:930
    6d08:	bdf0      	pop	{r4, r5, r6, r7, pc}
gen_malloc_buffer_overlaps_heap():
/home/aom1/Work/Linux/target/STM32MP1-DK2/bootloader/optee-os-custom/lib/libutils/isoc/bget_malloc.c:874
    6d0a:	f855 4033 	ldr.w	r4, [r5, r3, lsl #3]
/home/aom1/Work/Linux/target/STM32MP1-DK2/bootloader/optee-os-custom/lib/libutils/isoc/bget_malloc.c:875
    6d0e:	f85c 2033 	ldr.w	r2, [ip, r3, lsl #3]
    6d12:	18a2      	adds	r2, r4, r2
    6d14:	bf2c      	ite	cs
    6d16:	f04f 0e01 	movcs.w	lr, #1
    6d1a:	f04f 0e00 	movcc.w	lr, #0
/home/aom1/Work/Linux/target/STM32MP1-DK2/bootloader/optee-os-custom/lib/libutils/isoc/bget_malloc.c:877
    6d1e:	b947      	cbnz	r7, 6d32 <malloc_buffer_overlaps_heap+0x4a>
    6d20:	f1be 0f00 	cmp.w	lr, #0
    6d24:	d105      	bne.n	6d32 <malloc_buffer_overlaps_heap+0x4a>
/home/aom1/Work/Linux/target/STM32MP1-DK2/bootloader/optee-os-custom/lib/libutils/isoc/bget_malloc.c:882
    6d26:	42a1      	cmp	r1, r4
    6d28:	d803      	bhi.n	6d32 <malloc_buffer_overlaps_heap+0x4a>
    6d2a:	4290      	cmp	r0, r2
    6d2c:	d301      	bcc.n	6d32 <malloc_buffer_overlaps_heap+0x4a>
/home/aom1/Work/Linux/target/STM32MP1-DK2/bootloader/optee-os-custom/lib/libutils/isoc/bget_malloc.c:873
    6d2e:	3301      	adds	r3, #1
    6d30:	e7e7      	b.n	6d02 <malloc_buffer_overlaps_heap+0x1a>
/home/aom1/Work/Linux/target/STM32MP1-DK2/bootloader/optee-os-custom/lib/libutils/isoc/bget_malloc.c:878
    6d32:	2001      	movs	r0, #1
    6d34:	e7e8      	b.n	6d08 <malloc_buffer_overlaps_heap+0x20>
    6d36:	bf00      	nop
    6d38:	00002544 	.word	0x00002544

00006d3c <memcpy>:
memcpy():
/home/aom1/Work/Linux/target/STM32MP1-DK2/bootloader/optee-os-custom/lib/libutils/isoc/newlib/memcpy.c:106
    6d3c:	2a0f      	cmp	r2, #15
    6d3e:	d956      	bls.n	6dee <memcpy+0xb2>
/home/aom1/Work/Linux/target/STM32MP1-DK2/bootloader/optee-os-custom/lib/libutils/isoc/newlib/memcpy.c:106 (discriminator 1)
    6d40:	ea40 0301 	orr.w	r3, r0, r1
    6d44:	079b      	lsls	r3, r3, #30
    6d46:	d161      	bne.n	6e0c <memcpy+0xd0>
    6d48:	f1a2 0310 	sub.w	r3, r2, #16
    6d4c:	f101 0c20 	add.w	ip, r1, #32
/home/aom1/Work/Linux/target/STM32MP1-DK2/bootloader/optee-os-custom/lib/libutils/isoc/newlib/memcpy.c:87
    6d50:	b570      	push	{r4, r5, r6, lr}
    6d52:	f101 0410 	add.w	r4, r1, #16
    6d56:	f023 060f 	bic.w	r6, r3, #15
    6d5a:	f100 0510 	add.w	r5, r0, #16
    6d5e:	44b4      	add	ip, r6
    6d60:	ea4f 1e13 	mov.w	lr, r3, lsr #4
/home/aom1/Work/Linux/target/STM32MP1-DK2/bootloader/optee-os-custom/lib/libutils/isoc/newlib/memcpy.c:112
    6d64:	f854 3c10 	ldr.w	r3, [r4, #-16]
/home/aom1/Work/Linux/target/STM32MP1-DK2/bootloader/optee-os-custom/lib/libutils/isoc/newlib/memcpy.c:111
    6d68:	3410      	adds	r4, #16
    6d6a:	4564      	cmp	r4, ip
    6d6c:	f105 0510 	add.w	r5, r5, #16
/home/aom1/Work/Linux/target/STM32MP1-DK2/bootloader/optee-os-custom/lib/libutils/isoc/newlib/memcpy.c:112
    6d70:	f845 3c20 	str.w	r3, [r5, #-32]
/home/aom1/Work/Linux/target/STM32MP1-DK2/bootloader/optee-os-custom/lib/libutils/isoc/newlib/memcpy.c:113
    6d74:	f854 3c1c 	ldr.w	r3, [r4, #-28]
    6d78:	f845 3c1c 	str.w	r3, [r5, #-28]
/home/aom1/Work/Linux/target/STM32MP1-DK2/bootloader/optee-os-custom/lib/libutils/isoc/newlib/memcpy.c:114
    6d7c:	f854 3c18 	ldr.w	r3, [r4, #-24]
    6d80:	f845 3c18 	str.w	r3, [r5, #-24]
/home/aom1/Work/Linux/target/STM32MP1-DK2/bootloader/optee-os-custom/lib/libutils/isoc/newlib/memcpy.c:115
    6d84:	f854 3c14 	ldr.w	r3, [r4, #-20]
    6d88:	f845 3c14 	str.w	r3, [r5, #-20]
/home/aom1/Work/Linux/target/STM32MP1-DK2/bootloader/optee-os-custom/lib/libutils/isoc/newlib/memcpy.c:111
    6d8c:	d1ea      	bne.n	6d64 <memcpy+0x28>
    6d8e:	f10e 0301 	add.w	r3, lr, #1
/home/aom1/Work/Linux/target/STM32MP1-DK2/bootloader/optee-os-custom/lib/libutils/isoc/newlib/memcpy.c:120
    6d92:	f012 0f0c 	tst.w	r2, #12
/home/aom1/Work/Linux/target/STM32MP1-DK2/bootloader/optee-os-custom/lib/libutils/isoc/newlib/memcpy.c:116
    6d96:	f002 040f 	and.w	r4, r2, #15
    6d9a:	ea4f 1303 	mov.w	r3, r3, lsl #4
/home/aom1/Work/Linux/target/STM32MP1-DK2/bootloader/optee-os-custom/lib/libutils/isoc/newlib/memcpy.c:120
    6d9e:	bf08      	it	eq
    6da0:	4622      	moveq	r2, r4
/home/aom1/Work/Linux/target/STM32MP1-DK2/bootloader/optee-os-custom/lib/libutils/isoc/newlib/memcpy.c:115
    6da2:	4419      	add	r1, r3
    6da4:	4403      	add	r3, r0
/home/aom1/Work/Linux/target/STM32MP1-DK2/bootloader/optee-os-custom/lib/libutils/isoc/newlib/memcpy.c:120
    6da6:	d014      	beq.n	6dd2 <memcpy+0x96>
    6da8:	f1a3 0e04 	sub.w	lr, r3, #4
/home/aom1/Work/Linux/target/STM32MP1-DK2/bootloader/optee-os-custom/lib/libutils/isoc/newlib/memcpy.c:115
    6dac:	460d      	mov	r5, r1
/home/aom1/Work/Linux/target/STM32MP1-DK2/bootloader/optee-os-custom/lib/libutils/isoc/newlib/memcpy.c:121
    6dae:	f855 6b04 	ldr.w	r6, [r5], #4
    6db2:	eba4 0c05 	sub.w	ip, r4, r5
/home/aom1/Work/Linux/target/STM32MP1-DK2/bootloader/optee-os-custom/lib/libutils/isoc/newlib/memcpy.c:120
    6db6:	448c      	add	ip, r1
/home/aom1/Work/Linux/target/STM32MP1-DK2/bootloader/optee-os-custom/lib/libutils/isoc/newlib/memcpy.c:121
    6db8:	f84e 6f04 	str.w	r6, [lr, #4]!
/home/aom1/Work/Linux/target/STM32MP1-DK2/bootloader/optee-os-custom/lib/libutils/isoc/newlib/memcpy.c:120
    6dbc:	f1bc 0f03 	cmp.w	ip, #3
    6dc0:	d8f5      	bhi.n	6dae <memcpy+0x72>
    6dc2:	3c04      	subs	r4, #4
/home/aom1/Work/Linux/target/STM32MP1-DK2/bootloader/optee-os-custom/lib/libutils/isoc/newlib/memcpy.c:122
    6dc4:	f002 0203 	and.w	r2, r2, #3
    6dc8:	f024 0403 	bic.w	r4, r4, #3
    6dcc:	3404      	adds	r4, #4
/home/aom1/Work/Linux/target/STM32MP1-DK2/bootloader/optee-os-custom/lib/libutils/isoc/newlib/memcpy.c:121
    6dce:	4423      	add	r3, r4
    6dd0:	4421      	add	r1, r4
/home/aom1/Work/Linux/target/STM32MP1-DK2/bootloader/optee-os-custom/lib/libutils/isoc/newlib/memcpy.c:130
    6dd2:	f102 3cff 	add.w	ip, r2, #4294967295	; 0xffffffff
    6dd6:	3b01      	subs	r3, #1
    6dd8:	f10c 0c01 	add.w	ip, ip, #1
    6ddc:	448c      	add	ip, r1
    6dde:	b12a      	cbz	r2, 6dec <memcpy+0xb0>
/home/aom1/Work/Linux/target/STM32MP1-DK2/bootloader/optee-os-custom/lib/libutils/isoc/newlib/memcpy.c:131
    6de0:	f811 2b01 	ldrb.w	r2, [r1], #1
/home/aom1/Work/Linux/target/STM32MP1-DK2/bootloader/optee-os-custom/lib/libutils/isoc/newlib/memcpy.c:130
    6de4:	4561      	cmp	r1, ip
/home/aom1/Work/Linux/target/STM32MP1-DK2/bootloader/optee-os-custom/lib/libutils/isoc/newlib/memcpy.c:131
    6de6:	f803 2f01 	strb.w	r2, [r3, #1]!
/home/aom1/Work/Linux/target/STM32MP1-DK2/bootloader/optee-os-custom/lib/libutils/isoc/newlib/memcpy.c:130
    6dea:	d1f9      	bne.n	6de0 <memcpy+0xa4>
/home/aom1/Work/Linux/target/STM32MP1-DK2/bootloader/optee-os-custom/lib/libutils/isoc/newlib/memcpy.c:135
    6dec:	bd70      	pop	{r4, r5, r6, pc}
/home/aom1/Work/Linux/target/STM32MP1-DK2/bootloader/optee-os-custom/lib/libutils/isoc/newlib/memcpy.c:99
    6dee:	4603      	mov	r3, r0
/home/aom1/Work/Linux/target/STM32MP1-DK2/bootloader/optee-os-custom/lib/libutils/isoc/newlib/memcpy.c:130
    6df0:	f102 3cff 	add.w	ip, r2, #4294967295	; 0xffffffff
    6df4:	b14a      	cbz	r2, 6e0a <memcpy+0xce>
    6df6:	f10c 0c01 	add.w	ip, ip, #1
    6dfa:	3b01      	subs	r3, #1
    6dfc:	448c      	add	ip, r1
/home/aom1/Work/Linux/target/STM32MP1-DK2/bootloader/optee-os-custom/lib/libutils/isoc/newlib/memcpy.c:131
    6dfe:	f811 2b01 	ldrb.w	r2, [r1], #1
/home/aom1/Work/Linux/target/STM32MP1-DK2/bootloader/optee-os-custom/lib/libutils/isoc/newlib/memcpy.c:130
    6e02:	4561      	cmp	r1, ip
/home/aom1/Work/Linux/target/STM32MP1-DK2/bootloader/optee-os-custom/lib/libutils/isoc/newlib/memcpy.c:131
    6e04:	f803 2f01 	strb.w	r2, [r3, #1]!
/home/aom1/Work/Linux/target/STM32MP1-DK2/bootloader/optee-os-custom/lib/libutils/isoc/newlib/memcpy.c:130
    6e08:	d1f9      	bne.n	6dfe <memcpy+0xc2>
/home/aom1/Work/Linux/target/STM32MP1-DK2/bootloader/optee-os-custom/lib/libutils/isoc/newlib/memcpy.c:135
    6e0a:	4770      	bx	lr
/home/aom1/Work/Linux/target/STM32MP1-DK2/bootloader/optee-os-custom/lib/libutils/isoc/newlib/memcpy.c:130
    6e0c:	f102 3cff 	add.w	ip, r2, #4294967295	; 0xffffffff
/home/aom1/Work/Linux/target/STM32MP1-DK2/bootloader/optee-os-custom/lib/libutils/isoc/newlib/memcpy.c:99
    6e10:	4603      	mov	r3, r0
    6e12:	e7f0      	b.n	6df6 <memcpy+0xba>

00006e14 <mempool_alloc_pool>:
mempool_alloc_pool():
/home/aom1/Work/Linux/target/STM32MP1-DK2/bootloader/optee-os-custom/lib/libutils/ext/mempool.c:120
    6e14:	b570      	push	{r4, r5, r6, lr}
    6e16:	4606      	mov	r6, r0
    6e18:	460c      	mov	r4, r1
/home/aom1/Work/Linux/target/STM32MP1-DK2/bootloader/optee-os-custom/lib/libutils/ext/mempool.c:121
    6e1a:	2001      	movs	r0, #1
    6e1c:	210c      	movs	r1, #12
    6e1e:	f7ff fe95 	bl	6b4c <calloc>
/home/aom1/Work/Linux/target/STM32MP1-DK2/bootloader/optee-os-custom/lib/libutils/ext/mempool.c:124
    6e22:	07b3      	lsls	r3, r6, #30
/home/aom1/Work/Linux/target/STM32MP1-DK2/bootloader/optee-os-custom/lib/libutils/ext/mempool.c:121
    6e24:	4605      	mov	r5, r0
/home/aom1/Work/Linux/target/STM32MP1-DK2/bootloader/optee-os-custom/lib/libutils/ext/mempool.c:124
    6e26:	d00a      	beq.n	6e3e <mempool_alloc_pool+0x2a>
/home/aom1/Work/Linux/target/STM32MP1-DK2/bootloader/optee-os-custom/lib/libutils/ext/mempool.c:124 (discriminator 1)
    6e28:	4b15      	ldr	r3, [pc, #84]	; (6e80 <mempool_alloc_pool+0x6c>)
    6e2a:	227c      	movs	r2, #124	; 0x7c
    6e2c:	4915      	ldr	r1, [pc, #84]	; (6e84 <mempool_alloc_pool+0x70>)
    6e2e:	4816      	ldr	r0, [pc, #88]	; (6e88 <mempool_alloc_pool+0x74>)
    6e30:	447b      	add	r3, pc
    6e32:	4479      	add	r1, pc
    6e34:	4478      	add	r0, pc
init_mpool():
/home/aom1/Work/Linux/target/STM32MP1-DK2/bootloader/optee-os-custom/lib/libutils/ext/mempool.c:84
    6e36:	f7fc fd8d 	bl	3954 <_assert_log>
    6e3a:	f7fc fd9f 	bl	397c <_assert_break>
mempool_alloc_pool():
/home/aom1/Work/Linux/target/STM32MP1-DK2/bootloader/optee-os-custom/lib/libutils/ext/mempool.c:126 (discriminator 2)
    6e3e:	b1e0      	cbz	r0, 6e7a <mempool_alloc_pool+0x66>
/home/aom1/Work/Linux/target/STM32MP1-DK2/bootloader/optee-os-custom/lib/libutils/ext/mempool.c:128
    6e40:	e9c0 4600 	strd	r4, r6, [r0]
init_mpool():
/home/aom1/Work/Linux/target/STM32MP1-DK2/bootloader/optee-os-custom/lib/libutils/ext/mempool.c:74
    6e44:	f7ff fec0 	bl	6bc8 <raw_malloc_get_ctx_size>
/home/aom1/Work/Linux/target/STM32MP1-DK2/bootloader/optee-os-custom/lib/libutils/ext/mempool.c:75
    6e48:	686b      	ldr	r3, [r5, #4]
    6e4a:	441c      	add	r4, r3
    6e4c:	1a24      	subs	r4, r4, r0
    6e4e:	f024 0407 	bic.w	r4, r4, #7
/home/aom1/Work/Linux/target/STM32MP1-DK2/bootloader/optee-os-custom/lib/libutils/ext/mempool.c:84
    6e52:	42a3      	cmp	r3, r4
    6e54:	d308      	bcc.n	6e68 <mempool_alloc_pool+0x54>
    6e56:	4b0d      	ldr	r3, [pc, #52]	; (6e8c <mempool_alloc_pool+0x78>)
    6e58:	2254      	movs	r2, #84	; 0x54
    6e5a:	490d      	ldr	r1, [pc, #52]	; (6e90 <mempool_alloc_pool+0x7c>)
    6e5c:	480d      	ldr	r0, [pc, #52]	; (6e94 <mempool_alloc_pool+0x80>)
    6e5e:	447b      	add	r3, pc
    6e60:	4479      	add	r1, pc
    6e62:	3313      	adds	r3, #19
    6e64:	4478      	add	r0, pc
    6e66:	e7e6      	b.n	6e36 <mempool_alloc_pool+0x22>
/home/aom1/Work/Linux/target/STM32MP1-DK2/bootloader/optee-os-custom/lib/libutils/ext/mempool.c:85
    6e68:	60ac      	str	r4, [r5, #8]
/home/aom1/Work/Linux/target/STM32MP1-DK2/bootloader/optee-os-custom/lib/libutils/ext/mempool.c:86
    6e6a:	4620      	mov	r0, r4
    6e6c:	f7ff feae 	bl	6bcc <raw_malloc_init_ctx>
/home/aom1/Work/Linux/target/STM32MP1-DK2/bootloader/optee-os-custom/lib/libutils/ext/mempool.c:87
    6e70:	6869      	ldr	r1, [r5, #4]
    6e72:	68a8      	ldr	r0, [r5, #8]
    6e74:	1a62      	subs	r2, r4, r1
    6e76:	f7ff feb2 	bl	6bde <raw_malloc_add_pool>
mempool_alloc_pool():
/home/aom1/Work/Linux/target/STM32MP1-DK2/bootloader/optee-os-custom/lib/libutils/ext/mempool.c:138
    6e7a:	4628      	mov	r0, r5
    6e7c:	bd70      	pop	{r4, r5, r6, pc}
    6e7e:	bf00      	nop
    6e80:	000013d4 	.word	0x000013d4
    6e84:	00001349 	.word	0x00001349
    6e88:	00001362 	.word	0x00001362
    6e8c:	000013a6 	.word	0x000013a6
    6e90:	0000131b 	.word	0x0000131b
    6e94:	00001359 	.word	0x00001359

00006e98 <mempool_alloc>:
mempool_alloc():
/home/aom1/Work/Linux/target/STM32MP1-DK2/bootloader/optee-os-custom/lib/libutils/ext/mempool.c:141
    6e98:	b537      	push	{r0, r1, r2, r4, r5, lr}
/home/aom1/Work/Linux/target/STM32MP1-DK2/bootloader/optee-os-custom/lib/libutils/ext/mempool.c:146
    6e9a:	460a      	mov	r2, r1
    6e9c:	6883      	ldr	r3, [r0, #8]
/home/aom1/Work/Linux/target/STM32MP1-DK2/bootloader/optee-os-custom/lib/libutils/ext/mempool.c:141
    6e9e:	460d      	mov	r5, r1
/home/aom1/Work/Linux/target/STM32MP1-DK2/bootloader/optee-os-custom/lib/libutils/ext/mempool.c:146
    6ea0:	2100      	movs	r1, #0
    6ea2:	4608      	mov	r0, r1
    6ea4:	f7ff fdb4 	bl	6a10 <raw_malloc>
/home/aom1/Work/Linux/target/STM32MP1-DK2/bootloader/optee-os-custom/lib/libutils/ext/mempool.c:147
    6ea8:	4604      	mov	r4, r0
    6eaa:	b958      	cbnz	r0, 6ec4 <mempool_alloc+0x2c>
/home/aom1/Work/Linux/target/STM32MP1-DK2/bootloader/optee-os-custom/lib/libutils/ext/mempool.c:161
    6eac:	4b07      	ldr	r3, [pc, #28]	; (6ecc <mempool_alloc+0x34>)
    6eae:	21a1      	movs	r1, #161	; 0xa1
    6eb0:	4807      	ldr	r0, [pc, #28]	; (6ed0 <mempool_alloc+0x38>)
    6eb2:	447b      	add	r3, pc
    6eb4:	4478      	add	r0, pc
    6eb6:	9300      	str	r3, [sp, #0]
    6eb8:	2301      	movs	r3, #1
    6eba:	9501      	str	r5, [sp, #4]
    6ebc:	461a      	mov	r2, r3
    6ebe:	301e      	adds	r0, #30
    6ec0:	f7f9 fb54 	bl	56c <trace_printf>
/home/aom1/Work/Linux/target/STM32MP1-DK2/bootloader/optee-os-custom/lib/libutils/ext/mempool.c:164
    6ec4:	4620      	mov	r0, r4
    6ec6:	b003      	add	sp, #12
    6ec8:	bd30      	pop	{r4, r5, pc}
    6eca:	bf00      	nop
    6ecc:	0000131a 	.word	0x0000131a
    6ed0:	00001350 	.word	0x00001350

00006ed4 <mempool_calloc>:
mempool_calloc():
/home/aom1/Work/Linux/target/STM32MP1-DK2/bootloader/optee-os-custom/lib/libutils/ext/mempool.c:167
    6ed4:	b570      	push	{r4, r5, r6, lr}
/home/aom1/Work/Linux/target/STM32MP1-DK2/bootloader/optee-os-custom/lib/libutils/ext/mempool.c:171
    6ed6:	fba1 5402 	umull	r5, r4, r1, r2
    6eda:	b934      	cbnz	r4, 6eea <mempool_calloc+0x16>
/home/aom1/Work/Linux/target/STM32MP1-DK2/bootloader/optee-os-custom/lib/libutils/ext/mempool.c:174
    6edc:	4629      	mov	r1, r5
    6ede:	f7ff ffdb 	bl	6e98 <mempool_alloc>
/home/aom1/Work/Linux/target/STM32MP1-DK2/bootloader/optee-os-custom/lib/libutils/ext/mempool.c:175
    6ee2:	4606      	mov	r6, r0
    6ee4:	b918      	cbnz	r0, 6eee <mempool_calloc+0x1a>
/home/aom1/Work/Linux/target/STM32MP1-DK2/bootloader/optee-os-custom/lib/libutils/ext/mempool.c:179
    6ee6:	4630      	mov	r0, r6
    6ee8:	bd70      	pop	{r4, r5, r6, pc}
/home/aom1/Work/Linux/target/STM32MP1-DK2/bootloader/optee-os-custom/lib/libutils/ext/mempool.c:172
    6eea:	2600      	movs	r6, #0
    6eec:	e7fb      	b.n	6ee6 <mempool_calloc+0x12>
/home/aom1/Work/Linux/target/STM32MP1-DK2/bootloader/optee-os-custom/lib/libutils/ext/mempool.c:176
    6eee:	462a      	mov	r2, r5
    6ef0:	4621      	mov	r1, r4
    6ef2:	f000 f80e 	bl	6f12 <memset>
    6ef6:	e7f6      	b.n	6ee6 <mempool_calloc+0x12>

00006ef8 <mempool_free>:
mempool_free():
/home/aom1/Work/Linux/target/STM32MP1-DK2/bootloader/optee-os-custom/lib/libutils/ext/mempool.c:182
    6ef8:	460b      	mov	r3, r1
/home/aom1/Work/Linux/target/STM32MP1-DK2/bootloader/optee-os-custom/lib/libutils/ext/mempool.c:183
    6efa:	2200      	movs	r2, #0
    6efc:	6881      	ldr	r1, [r0, #8]
    6efe:	4618      	mov	r0, r3
    6f00:	f7ff bd8f 	b.w	6a22 <raw_free>

00006f04 <__ta_entry_c>:
__ta_entry_c():
/home/aom1/Work/Linux/target/STM32MP1-DK2/bootloader/optee-os-custom/build/export-ta_arm32/src/user_ta_header.c:48
    6f04:	b508      	push	{r3, lr}
/home/aom1/Work/Linux/target/STM32MP1-DK2/bootloader/optee-os-custom/build/export-ta_arm32/src/user_ta_header.c:49
    6f06:	f7fb fa4b 	bl	23a0 <__utee_entry>
/home/aom1/Work/Linux/target/STM32MP1-DK2/bootloader/optee-os-custom/build/export-ta_arm32/src/user_ta_header.c:60
    6f0a:	f7fa ee8a 	blx	1c20 <_utee_return>

00006f0e <tahead_get_trace_level>:
tahead_get_trace_level():
/home/aom1/Work/Linux/target/STM32MP1-DK2/bootloader/optee-os-custom/build/export-ta_arm32/src/user_ta_header.c:154
    6f0e:	2001      	movs	r0, #1
    6f10:	4770      	bx	lr

00006f12 <memset>:
memset():
/home/aom1/Work/Linux/target/STM32MP1-DK2/bootloader/optee-os-custom/lib/libutils/isoc/newlib/memset.c:125
    6f12:	4402      	add	r2, r0
/home/aom1/Work/Linux/target/STM32MP1-DK2/bootloader/optee-os-custom/lib/libutils/isoc/newlib/memset.c:77
    6f14:	4603      	mov	r3, r0
/home/aom1/Work/Linux/target/STM32MP1-DK2/bootloader/optee-os-custom/lib/libutils/isoc/newlib/memset.c:125
    6f16:	4293      	cmp	r3, r2
    6f18:	d100      	bne.n	6f1c <memset+0xa>
/home/aom1/Work/Linux/target/STM32MP1-DK2/bootloader/optee-os-custom/lib/libutils/isoc/newlib/memset.c:129
    6f1a:	4770      	bx	lr
/home/aom1/Work/Linux/target/STM32MP1-DK2/bootloader/optee-os-custom/lib/libutils/isoc/newlib/memset.c:126
    6f1c:	f803 1b01 	strb.w	r1, [r3], #1
    6f20:	e7f9      	b.n	6f16 <memset+0x4>

00006f22 <memchr>:
memchr():
/home/aom1/Work/Linux/target/STM32MP1-DK2/bootloader/optee-os-custom/lib/libutils/isoc/newlib/memchr.c:109
    6f22:	4402      	add	r2, r0
    6f24:	b2c9      	uxtb	r1, r1
/home/aom1/Work/Linux/target/STM32MP1-DK2/bootloader/optee-os-custom/lib/libutils/isoc/newlib/memchr.c:153
    6f26:	4603      	mov	r3, r0
/home/aom1/Work/Linux/target/STM32MP1-DK2/bootloader/optee-os-custom/lib/libutils/isoc/newlib/memchr.c:107
    6f28:	b510      	push	{r4, lr}
    6f2a:	4618      	mov	r0, r3
/home/aom1/Work/Linux/target/STM32MP1-DK2/bootloader/optee-os-custom/lib/libutils/isoc/newlib/memchr.c:153
    6f2c:	4293      	cmp	r3, r2
    6f2e:	d101      	bne.n	6f34 <memchr+0x12>
/home/aom1/Work/Linux/target/STM32MP1-DK2/bootloader/optee-os-custom/lib/libutils/isoc/newlib/memchr.c:159
    6f30:	2000      	movs	r0, #0
    6f32:	e003      	b.n	6f3c <memchr+0x1a>
/home/aom1/Work/Linux/target/STM32MP1-DK2/bootloader/optee-os-custom/lib/libutils/isoc/newlib/memchr.c:154
    6f34:	7804      	ldrb	r4, [r0, #0]
    6f36:	3301      	adds	r3, #1
    6f38:	428c      	cmp	r4, r1
    6f3a:	d1f6      	bne.n	6f2a <memchr+0x8>
/home/aom1/Work/Linux/target/STM32MP1-DK2/bootloader/optee-os-custom/lib/libutils/isoc/newlib/memchr.c:160
    6f3c:	bd10      	pop	{r4, pc}

00006f3e <strlen>:
strlen():
/home/aom1/Work/Linux/target/STM32MP1-DK2/bootloader/optee-os-custom/lib/libutils/isoc/newlib/strlen.c:117
    6f3e:	4603      	mov	r3, r0
    6f40:	461a      	mov	r2, r3
    6f42:	3301      	adds	r3, #1
    6f44:	7811      	ldrb	r1, [r2, #0]
    6f46:	2900      	cmp	r1, #0
    6f48:	d1fa      	bne.n	6f40 <strlen+0x2>
/home/aom1/Work/Linux/target/STM32MP1-DK2/bootloader/optee-os-custom/lib/libutils/isoc/newlib/strlen.c:120
    6f4a:	1a10      	subs	r0, r2, r0
    6f4c:	4770      	bx	lr

00006f4e <ul_div_qr>:
ul_div_qr():
/home/aom1/Work/Linux/target/STM32MP1-DK2/bootloader/optee-os-custom/lib/libutils/isoc/arch/arm/arm32_aeabi_ldivmod.c:47
    6f4e:	468c      	mov	ip, r1
division_lqr():
/home/aom1/Work/Linux/target/STM32MP1-DK2/bootloader/optee-os-custom/lib/libutils/isoc/arch/arm/arm32_aeabi_ldivmod.c:22
    6f50:	ea52 0103 	orrs.w	r1, r2, r3
ul_div_qr():
/home/aom1/Work/Linux/target/STM32MP1-DK2/bootloader/optee-os-custom/lib/libutils/isoc/arch/arm/arm32_aeabi_ldivmod.c:47
    6f54:	b5f0      	push	{r4, r5, r6, r7, lr}
    6f56:	9d05      	ldr	r5, [sp, #20]
division_lqr():
/home/aom1/Work/Linux/target/STM32MP1-DK2/bootloader/optee-os-custom/lib/libutils/isoc/arch/arm/arm32_aeabi_ldivmod.c:22
    6f58:	d126      	bne.n	6fa8 <ul_div_qr+0x5a>
/home/aom1/Work/Linux/target/STM32MP1-DK2/bootloader/optee-os-custom/lib/libutils/isoc/arch/arm/arm32_aeabi_ldivmod.c:23
    6f5a:	ffc7 0e1f 	vmov.i8	d16, #255	; 0xff
    6f5e:	edc5 0b02 	vstr	d16, [r5, #8]
ul_div_qr():
/home/aom1/Work/Linux/target/STM32MP1-DK2/bootloader/optee-os-custom/lib/libutils/isoc/arch/arm/arm32_aeabi_ldivmod.c:52
    6f62:	692b      	ldr	r3, [r5, #16]
    6f64:	b133      	cbz	r3, 6f74 <ul_div_qr+0x26>
/home/aom1/Work/Linux/target/STM32MP1-DK2/bootloader/optee-os-custom/lib/libutils/isoc/arch/arm/arm32_aeabi_ldivmod.c:53
    6f66:	e9d5 3200 	ldrd	r3, r2, [r5]
    6f6a:	425b      	negs	r3, r3
    6f6c:	eb62 0242 	sbc.w	r2, r2, r2, lsl #1
    6f70:	e9c5 3200 	strd	r3, r2, [r5]
/home/aom1/Work/Linux/target/STM32MP1-DK2/bootloader/optee-os-custom/lib/libutils/isoc/arch/arm/arm32_aeabi_ldivmod.c:54
    6f74:	696b      	ldr	r3, [r5, #20]
    6f76:	b133      	cbz	r3, 6f86 <ul_div_qr+0x38>
/home/aom1/Work/Linux/target/STM32MP1-DK2/bootloader/optee-os-custom/lib/libutils/isoc/arch/arm/arm32_aeabi_ldivmod.c:55
    6f78:	e9d5 3202 	ldrd	r3, r2, [r5, #8]
    6f7c:	425b      	negs	r3, r3
    6f7e:	eb62 0242 	sbc.w	r2, r2, r2, lsl #1
    6f82:	e9c5 3202 	strd	r3, r2, [r5, #8]
/home/aom1/Work/Linux/target/STM32MP1-DK2/bootloader/optee-os-custom/lib/libutils/isoc/arch/arm/arm32_aeabi_ldivmod.c:56
    6f86:	bdf0      	pop	{r4, r5, r6, r7, pc}
division_lqr():
/home/aom1/Work/Linux/target/STM32MP1-DK2/bootloader/optee-os-custom/lib/libutils/isoc/arch/arm/arm32_aeabi_ldivmod.c:28
    6f88:	19b6      	adds	r6, r6, r6
    6f8a:	417f      	adcs	r7, r7
/home/aom1/Work/Linux/target/STM32MP1-DK2/bootloader/optee-os-custom/lib/libutils/isoc/arch/arm/arm32_aeabi_ldivmod.c:29
    6f8c:	1892      	adds	r2, r2, r2
    6f8e:	415b      	adcs	r3, r3
/home/aom1/Work/Linux/target/STM32MP1-DK2/bootloader/optee-os-custom/lib/libutils/isoc/arch/arm/arm32_aeabi_ldivmod.c:27
    6f90:	2b00      	cmp	r3, #0
    6f92:	daf9      	bge.n	6f88 <ul_div_qr+0x3a>
/home/aom1/Work/Linux/target/STM32MP1-DK2/bootloader/optee-os-custom/lib/libutils/isoc/arch/arm/arm32_aeabi_ldivmod.c:21
    6f94:	2400      	movs	r4, #0
    6f96:	4621      	mov	r1, r4
/home/aom1/Work/Linux/target/STM32MP1-DK2/bootloader/optee-os-custom/lib/libutils/isoc/arch/arm/arm32_aeabi_ldivmod.c:32
    6f98:	ea56 0e07 	orrs.w	lr, r6, r7
    6f9c:	d107      	bne.n	6fae <ul_div_qr+0x60>
/home/aom1/Work/Linux/target/STM32MP1-DK2/bootloader/optee-os-custom/lib/libutils/isoc/arch/arm/arm32_aeabi_ldivmod.c:41
    6f9e:	e9c5 0c02 	strd	r0, ip, [r5, #8]
/home/aom1/Work/Linux/target/STM32MP1-DK2/bootloader/optee-os-custom/lib/libutils/isoc/arch/arm/arm32_aeabi_ldivmod.c:42
    6fa2:	e9c5 4100 	strd	r4, r1, [r5]
    6fa6:	e7dc      	b.n	6f62 <ul_div_qr+0x14>
/home/aom1/Work/Linux/target/STM32MP1-DK2/bootloader/optee-os-custom/lib/libutils/isoc/arch/arm/arm32_aeabi_ldivmod.c:21
    6fa8:	2601      	movs	r6, #1
    6faa:	2700      	movs	r7, #0
    6fac:	e7f0      	b.n	6f90 <ul_div_qr+0x42>
/home/aom1/Work/Linux/target/STM32MP1-DK2/bootloader/optee-os-custom/lib/libutils/isoc/arch/arm/arm32_aeabi_ldivmod.c:33
    6fae:	1924      	adds	r4, r4, r4
    6fb0:	4149      	adcs	r1, r1
/home/aom1/Work/Linux/target/STM32MP1-DK2/bootloader/optee-os-custom/lib/libutils/isoc/arch/arm/arm32_aeabi_ldivmod.c:34
    6fb2:	4290      	cmp	r0, r2
    6fb4:	eb7c 0e03 	sbcs.w	lr, ip, r3
    6fb8:	d305      	bcc.n	6fc6 <ul_div_qr+0x78>
/home/aom1/Work/Linux/target/STM32MP1-DK2/bootloader/optee-os-custom/lib/libutils/isoc/arch/arm/arm32_aeabi_ldivmod.c:35
    6fba:	1a80      	subs	r0, r0, r2
    6fbc:	eb6c 0c03 	sbc.w	ip, ip, r3
/home/aom1/Work/Linux/target/STM32MP1-DK2/bootloader/optee-os-custom/lib/libutils/isoc/arch/arm/arm32_aeabi_ldivmod.c:36
    6fc0:	3401      	adds	r4, #1
    6fc2:	f141 0100 	adc.w	r1, r1, #0
/home/aom1/Work/Linux/target/STM32MP1-DK2/bootloader/optee-os-custom/lib/libutils/isoc/arch/arm/arm32_aeabi_ldivmod.c:38
    6fc6:	0852      	lsrs	r2, r2, #1
/home/aom1/Work/Linux/target/STM32MP1-DK2/bootloader/optee-os-custom/lib/libutils/isoc/arch/arm/arm32_aeabi_ldivmod.c:39
    6fc8:	0876      	lsrs	r6, r6, #1
/home/aom1/Work/Linux/target/STM32MP1-DK2/bootloader/optee-os-custom/lib/libutils/isoc/arch/arm/arm32_aeabi_ldivmod.c:38
    6fca:	ea42 72c3 	orr.w	r2, r2, r3, lsl #31
/home/aom1/Work/Linux/target/STM32MP1-DK2/bootloader/optee-os-custom/lib/libutils/isoc/arch/arm/arm32_aeabi_ldivmod.c:39
    6fce:	ea46 76c7 	orr.w	r6, r6, r7, lsl #31
/home/aom1/Work/Linux/target/STM32MP1-DK2/bootloader/optee-os-custom/lib/libutils/isoc/arch/arm/arm32_aeabi_ldivmod.c:38
    6fd2:	085b      	lsrs	r3, r3, #1
/home/aom1/Work/Linux/target/STM32MP1-DK2/bootloader/optee-os-custom/lib/libutils/isoc/arch/arm/arm32_aeabi_ldivmod.c:39
    6fd4:	087f      	lsrs	r7, r7, #1
    6fd6:	e7df      	b.n	6f98 <ul_div_qr+0x4a>

00006fd8 <__ul_divmod>:
__ul_divmod():
/home/aom1/Work/Linux/target/STM32MP1-DK2/bootloader/optee-os-custom/lib/libutils/isoc/arch/arm/arm32_aeabi_ldivmod.c:69
    6fd8:	efc0 0010 	vmov.i32	d16, #0	; 0x00000000
/home/aom1/Work/Linux/target/STM32MP1-DK2/bootloader/optee-os-custom/lib/libutils/isoc/arch/arm/arm32_aeabi_ldivmod.c:66
    6fdc:	b510      	push	{r4, lr}
    6fde:	b088      	sub	sp, #32
/home/aom1/Work/Linux/target/STM32MP1-DK2/bootloader/optee-os-custom/lib/libutils/isoc/arch/arm/arm32_aeabi_ldivmod.c:69
    6fe0:	ab02      	add	r3, sp, #8
/home/aom1/Work/Linux/target/STM32MP1-DK2/bootloader/optee-os-custom/lib/libutils/isoc/arch/arm/arm32_aeabi_ldivmod.c:66
    6fe2:	4604      	mov	r4, r0
/home/aom1/Work/Linux/target/STM32MP1-DK2/bootloader/optee-os-custom/lib/libutils/isoc/arch/arm/arm32_aeabi_ldivmod.c:71
    6fe4:	9300      	str	r3, [sp, #0]
    6fe6:	e9d0 2302 	ldrd	r2, r3, [r0, #8]
    6fea:	e9d0 0100 	ldrd	r0, r1, [r0]
/home/aom1/Work/Linux/target/STM32MP1-DK2/bootloader/optee-os-custom/lib/libutils/isoc/arch/arm/arm32_aeabi_ldivmod.c:69
    6fee:	edcd 0b02 	vstr	d16, [sp, #8]
    6ff2:	edcd 0b04 	vstr	d16, [sp, #16]
    6ff6:	edcd 0b06 	vstr	d16, [sp, #24]
/home/aom1/Work/Linux/target/STM32MP1-DK2/bootloader/optee-os-custom/lib/libutils/isoc/arch/arm/arm32_aeabi_ldivmod.c:71
    6ffa:	f7ff ffa8 	bl	6f4e <ul_div_qr>
/home/aom1/Work/Linux/target/STM32MP1-DK2/bootloader/optee-os-custom/lib/libutils/isoc/arch/arm/arm32_aeabi_ldivmod.c:73
    6ffe:	e9dd 2302 	ldrd	r2, r3, [sp, #8]
    7002:	e9c4 2300 	strd	r2, r3, [r4]
/home/aom1/Work/Linux/target/STM32MP1-DK2/bootloader/optee-os-custom/lib/libutils/isoc/arch/arm/arm32_aeabi_ldivmod.c:74
    7006:	e9dd 2304 	ldrd	r2, r3, [sp, #16]
    700a:	e9c4 2302 	strd	r2, r3, [r4, #8]
/home/aom1/Work/Linux/target/STM32MP1-DK2/bootloader/optee-os-custom/lib/libutils/isoc/arch/arm/arm32_aeabi_ldivmod.c:75
    700e:	b008      	add	sp, #32
    7010:	bd10      	pop	{r4, pc}

00007012 <__l_divmod>:
__l_divmod():
/home/aom1/Work/Linux/target/STM32MP1-DK2/bootloader/optee-os-custom/lib/libutils/isoc/arch/arm/arm32_aeabi_ldivmod.c:85
    7012:	b570      	push	{r4, r5, r6, lr}
    7014:	4604      	mov	r4, r0
/home/aom1/Work/Linux/target/STM32MP1-DK2/bootloader/optee-os-custom/lib/libutils/isoc/arch/arm/arm32_aeabi_ldivmod.c:88
    7016:	efc0 0010 	vmov.i32	d16, #0	; 0x00000000
/home/aom1/Work/Linux/target/STM32MP1-DK2/bootloader/optee-os-custom/lib/libutils/isoc/arch/arm/arm32_aeabi_ldivmod.c:86
    701a:	e9d0 0100 	ldrd	r0, r1, [r0]
/home/aom1/Work/Linux/target/STM32MP1-DK2/bootloader/optee-os-custom/lib/libutils/isoc/arch/arm/arm32_aeabi_ldivmod.c:85
    701e:	b088      	sub	sp, #32
/home/aom1/Work/Linux/target/STM32MP1-DK2/bootloader/optee-os-custom/lib/libutils/isoc/arch/arm/arm32_aeabi_ldivmod.c:90
    7020:	2900      	cmp	r1, #0
/home/aom1/Work/Linux/target/STM32MP1-DK2/bootloader/optee-os-custom/lib/libutils/isoc/arch/arm/arm32_aeabi_ldivmod.c:88
    7022:	ad02      	add	r5, sp, #8
    7024:	edcd 0b02 	vstr	d16, [sp, #8]
/home/aom1/Work/Linux/target/STM32MP1-DK2/bootloader/optee-os-custom/lib/libutils/isoc/arch/arm/arm32_aeabi_ldivmod.c:87
    7028:	e9d4 2302 	ldrd	r2, r3, [r4, #8]
/home/aom1/Work/Linux/target/STM32MP1-DK2/bootloader/optee-os-custom/lib/libutils/isoc/arch/arm/arm32_aeabi_ldivmod.c:88
    702c:	edc5 0b02 	vstr	d16, [r5, #8]
    7030:	edc5 0b04 	vstr	d16, [r5, #16]
/home/aom1/Work/Linux/target/STM32MP1-DK2/bootloader/optee-os-custom/lib/libutils/isoc/arch/arm/arm32_aeabi_ldivmod.c:90
    7034:	da1b      	bge.n	706e <__l_divmod+0x5c>
/home/aom1/Work/Linux/target/STM32MP1-DK2/bootloader/optee-os-custom/lib/libutils/isoc/arch/arm/arm32_aeabi_ldivmod.c:90 (discriminator 1)
    7036:	2a01      	cmp	r2, #1
    7038:	f173 0600 	sbcs.w	r6, r3, #0
    703c:	da1c      	bge.n	7078 <__l_divmod+0x66>
/home/aom1/Work/Linux/target/STM32MP1-DK2/bootloader/optee-os-custom/lib/libutils/isoc/arch/arm/arm32_aeabi_ldivmod.c:94
    703e:	4240      	negs	r0, r0
/home/aom1/Work/Linux/target/STM32MP1-DK2/bootloader/optee-os-custom/lib/libutils/isoc/arch/arm/arm32_aeabi_ldivmod.c:95
    7040:	f04f 0601 	mov.w	r6, #1
/home/aom1/Work/Linux/target/STM32MP1-DK2/bootloader/optee-os-custom/lib/libutils/isoc/arch/arm/arm32_aeabi_ldivmod.c:94
    7044:	eb61 0141 	sbc.w	r1, r1, r1, lsl #1
/home/aom1/Work/Linux/target/STM32MP1-DK2/bootloader/optee-os-custom/lib/libutils/isoc/arch/arm/arm32_aeabi_ldivmod.c:95
    7048:	9607      	str	r6, [sp, #28]
/home/aom1/Work/Linux/target/STM32MP1-DK2/bootloader/optee-os-custom/lib/libutils/isoc/arch/arm/arm32_aeabi_ldivmod.c:100
    704a:	2b00      	cmp	r3, #0
    704c:	da02      	bge.n	7054 <__l_divmod+0x42>
    704e:	4252      	negs	r2, r2
    7050:	eb63 0343 	sbc.w	r3, r3, r3, lsl #1
    7054:	9500      	str	r5, [sp, #0]
    7056:	f7ff ff7a 	bl	6f4e <ul_div_qr>
/home/aom1/Work/Linux/target/STM32MP1-DK2/bootloader/optee-os-custom/lib/libutils/isoc/arch/arm/arm32_aeabi_ldivmod.c:102
    705a:	e9dd 2302 	ldrd	r2, r3, [sp, #8]
    705e:	e9c4 2300 	strd	r2, r3, [r4]
/home/aom1/Work/Linux/target/STM32MP1-DK2/bootloader/optee-os-custom/lib/libutils/isoc/arch/arm/arm32_aeabi_ldivmod.c:103
    7062:	e9dd 2304 	ldrd	r2, r3, [sp, #16]
    7066:	e9c4 2302 	strd	r2, r3, [r4, #8]
/home/aom1/Work/Linux/target/STM32MP1-DK2/bootloader/optee-os-custom/lib/libutils/isoc/arch/arm/arm32_aeabi_ldivmod.c:104
    706a:	b008      	add	sp, #32
    706c:	bd70      	pop	{r4, r5, r6, pc}
/home/aom1/Work/Linux/target/STM32MP1-DK2/bootloader/optee-os-custom/lib/libutils/isoc/arch/arm/arm32_aeabi_ldivmod.c:90 (discriminator 3)
    706e:	ea50 0601 	orrs.w	r6, r0, r1
    7072:	d0ea      	beq.n	704a <__l_divmod+0x38>
/home/aom1/Work/Linux/target/STM32MP1-DK2/bootloader/optee-os-custom/lib/libutils/isoc/arch/arm/arm32_aeabi_ldivmod.c:91
    7074:	2b00      	cmp	r3, #0
    7076:	dae8      	bge.n	704a <__l_divmod+0x38>
/home/aom1/Work/Linux/target/STM32MP1-DK2/bootloader/optee-os-custom/lib/libutils/isoc/arch/arm/arm32_aeabi_ldivmod.c:93
    7078:	2900      	cmp	r1, #0
/home/aom1/Work/Linux/target/STM32MP1-DK2/bootloader/optee-os-custom/lib/libutils/isoc/arch/arm/arm32_aeabi_ldivmod.c:92
    707a:	f04f 0601 	mov.w	r6, #1
    707e:	9606      	str	r6, [sp, #24]
/home/aom1/Work/Linux/target/STM32MP1-DK2/bootloader/optee-os-custom/lib/libutils/isoc/arch/arm/arm32_aeabi_ldivmod.c:93
    7080:	dbdd      	blt.n	703e <__l_divmod+0x2c>
    7082:	e7e2      	b.n	704a <__l_divmod+0x38>

00007084 <snprintf>:
snprintf():
/home/aom1/Work/Linux/target/STM32MP1-DK2/bootloader/optee-os-custom/lib/libutils/isoc/snprintf.c:10
    7084:	b40c      	push	{r2, r3}
    7086:	b51f      	push	{r0, r1, r2, r3, r4, lr}
    7088:	ab06      	add	r3, sp, #24
/home/aom1/Work/Linux/target/STM32MP1-DK2/bootloader/optee-os-custom/lib/libutils/isoc/snprintf.c:15
    708a:	2400      	movs	r4, #0
/home/aom1/Work/Linux/target/STM32MP1-DK2/bootloader/optee-os-custom/lib/libutils/isoc/snprintf.c:10
    708c:	f853 2b04 	ldr.w	r2, [r3], #4
/home/aom1/Work/Linux/target/STM32MP1-DK2/bootloader/optee-os-custom/lib/libutils/isoc/snprintf.c:15
    7090:	9400      	str	r4, [sp, #0]
/home/aom1/Work/Linux/target/STM32MP1-DK2/bootloader/optee-os-custom/lib/libutils/isoc/snprintf.c:14
    7092:	9303      	str	r3, [sp, #12]
/home/aom1/Work/Linux/target/STM32MP1-DK2/bootloader/optee-os-custom/lib/libutils/isoc/snprintf.c:15
    7094:	f7f9 fa78 	bl	588 <__vsnprintf>
/home/aom1/Work/Linux/target/STM32MP1-DK2/bootloader/optee-os-custom/lib/libutils/isoc/snprintf.c:19
    7098:	b004      	add	sp, #16
    709a:	e8bd 4010 	ldmia.w	sp!, {r4, lr}
    709e:	b002      	add	sp, #8
    70a0:	4770      	bx	lr

000070a2 <vsnprintf>:
vsnprintf():
/home/aom1/Work/Linux/target/STM32MP1-DK2/bootloader/optee-os-custom/lib/libutils/isoc/snprintf.c:22
    70a2:	b513      	push	{r0, r1, r4, lr}
/home/aom1/Work/Linux/target/STM32MP1-DK2/bootloader/optee-os-custom/lib/libutils/isoc/snprintf.c:23
    70a4:	2400      	movs	r4, #0
    70a6:	9400      	str	r4, [sp, #0]
    70a8:	f7f9 fa6e 	bl	588 <__vsnprintf>
/home/aom1/Work/Linux/target/STM32MP1-DK2/bootloader/optee-os-custom/lib/libutils/isoc/snprintf.c:24
    70ac:	b002      	add	sp, #8
    70ae:	bd10      	pop	{r4, pc}

000070b0 <memmove>:
memmove():
/home/aom1/Work/Linux/target/STM32MP1-DK2/bootloader/optee-os-custom/lib/libutils/isoc/newlib/memmove.c:96
    70b0:	4288      	cmp	r0, r1
/home/aom1/Work/Linux/target/STM32MP1-DK2/bootloader/optee-os-custom/lib/libutils/isoc/newlib/memmove.c:91
    70b2:	b510      	push	{r4, lr}
    70b4:	eb01 0402 	add.w	r4, r1, r2
/home/aom1/Work/Linux/target/STM32MP1-DK2/bootloader/optee-os-custom/lib/libutils/isoc/newlib/memmove.c:96
    70b8:	d902      	bls.n	70c0 <memmove+0x10>
/home/aom1/Work/Linux/target/STM32MP1-DK2/bootloader/optee-os-custom/lib/libutils/isoc/newlib/memmove.c:96 (discriminator 1)
    70ba:	4284      	cmp	r4, r0
    70bc:	4623      	mov	r3, r4
    70be:	d807      	bhi.n	70d0 <memmove+0x20>
    70c0:	1e43      	subs	r3, r0, #1
/home/aom1/Work/Linux/target/STM32MP1-DK2/bootloader/optee-os-custom/lib/libutils/isoc/newlib/memmove.c:103
    70c2:	42a1      	cmp	r1, r4
    70c4:	d008      	beq.n	70d8 <memmove+0x28>
/home/aom1/Work/Linux/target/STM32MP1-DK2/bootloader/optee-os-custom/lib/libutils/isoc/newlib/memmove.c:104
    70c6:	f811 2b01 	ldrb.w	r2, [r1], #1
    70ca:	f803 2f01 	strb.w	r2, [r3, #1]!
    70ce:	e7f8      	b.n	70c2 <memmove+0x12>
/home/aom1/Work/Linux/target/STM32MP1-DK2/bootloader/optee-os-custom/lib/libutils/isoc/newlib/memmove.c:99
    70d0:	4402      	add	r2, r0
    70d2:	4601      	mov	r1, r0
/home/aom1/Work/Linux/target/STM32MP1-DK2/bootloader/optee-os-custom/lib/libutils/isoc/newlib/memmove.c:100
    70d4:	428a      	cmp	r2, r1
    70d6:	d100      	bne.n	70da <memmove+0x2a>
/home/aom1/Work/Linux/target/STM32MP1-DK2/bootloader/optee-os-custom/lib/libutils/isoc/newlib/memmove.c:157
    70d8:	bd10      	pop	{r4, pc}
/home/aom1/Work/Linux/target/STM32MP1-DK2/bootloader/optee-os-custom/lib/libutils/isoc/newlib/memmove.c:101
    70da:	f813 4d01 	ldrb.w	r4, [r3, #-1]!
    70de:	f802 4d01 	strb.w	r4, [r2, #-1]!
    70e2:	e7f7      	b.n	70d4 <memmove+0x24>

000070e4 <consttime_memcmp>:
consttime_memcmp():
/home/aom1/Work/Linux/target/STM32MP1-DK2/bootloader/optee-os-custom/lib/libutils/ext/consttime_memcmp.c:36
    70e4:	b5f7      	push	{r0, r1, r2, r4, r5, r6, r7, lr}
/home/aom1/Work/Linux/target/STM32MP1-DK2/bootloader/optee-os-custom/lib/libutils/ext/consttime_memcmp.c:41
    70e6:	f44f 7380 	mov.w	r3, #256	; 0x100
    70ea:	9301      	str	r3, [sp, #4]
/home/aom1/Work/Linux/target/STM32MP1-DK2/bootloader/optee-os-custom/lib/libutils/ext/consttime_memcmp.c:43
    70ec:	1e45      	subs	r5, r0, #1
    70ee:	440a      	add	r2, r1
/home/aom1/Work/Linux/target/STM32MP1-DK2/bootloader/optee-os-custom/lib/libutils/ext/consttime_memcmp.c:40
    70f0:	2000      	movs	r0, #0
/home/aom1/Work/Linux/target/STM32MP1-DK2/bootloader/optee-os-custom/lib/libutils/ext/consttime_memcmp.c:39
    70f2:	4603      	mov	r3, r0
/home/aom1/Work/Linux/target/STM32MP1-DK2/bootloader/optee-os-custom/lib/libutils/ext/consttime_memcmp.c:43 (discriminator 1)
    70f4:	4291      	cmp	r1, r2
    70f6:	d104      	bne.n	7102 <consttime_memcmp+0x1e>
/home/aom1/Work/Linux/target/STM32MP1-DK2/bootloader/optee-os-custom/lib/libutils/ext/consttime_memcmp.c:50
    70f8:	0a1b      	lsrs	r3, r3, #8
/home/aom1/Work/Linux/target/STM32MP1-DK2/bootloader/optee-os-custom/lib/libutils/ext/consttime_memcmp.c:51
    70fa:	ebc3 2010 	rsb	r0, r3, r0, lsr #8
    70fe:	b003      	add	sp, #12
    7100:	bdf0      	pop	{r4, r5, r6, r7, pc}
/home/aom1/Work/Linux/target/STM32MP1-DK2/bootloader/optee-os-custom/lib/libutils/ext/consttime_memcmp.c:45 (discriminator 2)
    7102:	f815 7f01 	ldrb.w	r7, [r5, #1]!
    7106:	f811 4b01 	ldrb.w	r4, [r1], #1
/home/aom1/Work/Linux/target/STM32MP1-DK2/bootloader/optee-os-custom/lib/libutils/ext/consttime_memcmp.c:44 (discriminator 2)
    710a:	f8dd c004 	ldr.w	ip, [sp, #4]
/home/aom1/Work/Linux/target/STM32MP1-DK2/bootloader/optee-os-custom/lib/libutils/ext/consttime_memcmp.c:45 (discriminator 2)
    710e:	1b3e      	subs	r6, r7, r4
/home/aom1/Work/Linux/target/STM32MP1-DK2/bootloader/optee-os-custom/lib/libutils/ext/consttime_memcmp.c:44 (discriminator 2)
    7110:	ea06 060c 	and.w	r6, r6, ip
    7114:	4333      	orrs	r3, r6
/home/aom1/Work/Linux/target/STM32MP1-DK2/bootloader/optee-os-custom/lib/libutils/ext/consttime_memcmp.c:46 (discriminator 2)
    7116:	9e01      	ldr	r6, [sp, #4]
/home/aom1/Work/Linux/target/STM32MP1-DK2/bootloader/optee-os-custom/lib/libutils/ext/consttime_memcmp.c:47 (discriminator 2)
    7118:	1be4      	subs	r4, r4, r7
/home/aom1/Work/Linux/target/STM32MP1-DK2/bootloader/optee-os-custom/lib/libutils/ext/consttime_memcmp.c:46 (discriminator 2)
    711a:	4034      	ands	r4, r6
    711c:	4320      	orrs	r0, r4
/home/aom1/Work/Linux/target/STM32MP1-DK2/bootloader/optee-os-custom/lib/libutils/ext/consttime_memcmp.c:48 (discriminator 2)
    711e:	9c01      	ldr	r4, [sp, #4]
    7120:	ea43 0600 	orr.w	r6, r3, r0
    7124:	ea24 0406 	bic.w	r4, r4, r6
    7128:	9401      	str	r4, [sp, #4]
/home/aom1/Work/Linux/target/STM32MP1-DK2/bootloader/optee-os-custom/lib/libutils/ext/consttime_memcmp.c:43 (discriminator 2)
    712a:	e7e3      	b.n	70f4 <consttime_memcmp+0x10>
    712c:	0000      	movs	r0, r0
	...

00007130 <___utee_cache_operation_from_thumb>:
___utee_cache_operation_from_thumb():
    7130:	4778      	bx	pc
    7132:	e7fd      	b.n	7130 <___utee_cache_operation_from_thumb>
    7134:	e59fc000 	ldr	ip, [pc]	; 713c <___utee_cache_operation_from_thumb+0xc>
    7138:	e08cf00f 	add	pc, ip, pc
    713c:	ffffaf68 	.word	0xffffaf68

00007140 <___utee_panic_from_thumb>:
___utee_panic_from_thumb():
    7140:	4778      	bx	pc
    7142:	e7fd      	b.n	7140 <___utee_panic_from_thumb>
    7144:	e59fc000 	ldr	ip, [pc]	; 714c <___utee_panic_from_thumb+0xc>
    7148:	e08cf00f 	add	pc, ip, pc
    714c:	ffffaabc 	.word	0xffffaabc

00007150 <___utee_log_from_thumb>:
___utee_log_from_thumb():
    7150:	4778      	bx	pc
    7152:	e7fd      	b.n	7150 <___utee_log_from_thumb>
    7154:	e59fc000 	ldr	ip, [pc]	; 715c <___utee_log_from_thumb+0xc>
    7158:	e08cf00f 	add	pc, ip, pc
    715c:	ffffaad4 	.word	0xffffaad4

00007160 <___utee_check_access_rights_from_thumb>:
___utee_check_access_rights_from_thumb():
    7160:	4778      	bx	pc
    7162:	e7fd      	b.n	7160 <___utee_check_access_rights_from_thumb>
    7164:	e59fc000 	ldr	ip, [pc]	; 716c <___utee_check_access_rights_from_thumb+0xc>
    7168:	e08cf00f 	add	pc, ip, pc
    716c:	ffffab70 	.word	0xffffab70
