
out/ta/pkcs11/fd02c9da-306c-48c7-a49c-bbd827ae86ee.elf:     file format elf32-littlearm
out/ta/pkcs11/fd02c9da-306c-48c7-a49c-bbd827ae86ee.elf
architecture: armv7, flags 0x00000150:
HAS_SYMS, DYNAMIC, D_PAGED
start address 0x0000b494

Program Header:
    LOAD off    0x00001000 vaddr 0x00000000 paddr 0x00000000 align 2**12
         filesz 0x0001b364 memsz 0x0001b364 flags r-x
    LOAD off    0x0001d000 vaddr 0x0001c000 paddr 0x0001c000 align 2**12
         filesz 0x00001e9c memsz 0x0000cf38 flags rw-
 DYNAMIC off    0x0001d000 vaddr 0x0001c000 paddr 0x0001c000 align 2**2
         filesz 0x00000088 memsz 0x00000088 flags rw-
   STACK off    0x00000000 vaddr 0x00000000 paddr 0x00000000 align 2**4
         filesz 0x00000000 memsz 0x00000000 flags rwx

Dynamic Section:
  HASH                 0x0001b338
  GNU_HASH             0x0001b27c
  STRTAB               0x0001b308
  SYMTAB               0x0001b2a8
  STRSZ                0x0000002e
  SYMENT               0x00000010
  DEBUG                0x00000000
  REL                  0x0001c0f0
  RELSZ                0x00000cf8
  RELENT               0x00000008
  FLAGS_1              0x08000000
  RELCOUNT             0x00000188
private flags = 0x5000400: [Version5 EABI] [hard-float ABI]

Sections:
Idx Name          Size      VMA       LMA       File off  Algn
  0 .ta_head      00000020  00000000  00000000  00001000  2**3
                  CONTENTS, ALLOC, LOAD, READONLY, DATA
  1 .text         00015a80  00000020  00000020  00001020  2**3
                  CONTENTS, ALLOC, LOAD, READONLY, CODE
  2 .rodata       000057db  00015aa0  00015aa0  00016aa0  2**2
                  CONTENTS, ALLOC, LOAD, READONLY, DATA
  3 .gnu.hash     0000002c  0001b27c  0001b27c  0001c27c  2**2
                  CONTENTS, ALLOC, LOAD, READONLY, DATA
  4 .dynsym       00000060  0001b2a8  0001b2a8  0001c2a8  2**2
                  CONTENTS, ALLOC, LOAD, READONLY, DATA
  5 .dynstr       0000002e  0001b308  0001b308  0001c308  2**0
                  CONTENTS, ALLOC, LOAD, READONLY, DATA
  6 .hash         0000002c  0001b338  0001b338  0001c338  2**2
                  CONTENTS, ALLOC, LOAD, READONLY, DATA
  7 .dynamic      00000088  0001c000  0001c000  0001d000  2**2
                  CONTENTS, ALLOC, LOAD, DATA
  8 .got          00000068  0001c088  0001c088  0001d088  2**2
                  CONTENTS, ALLOC, LOAD, DATA
  9 .rel.got      000000b8  0001cd30  0001cd30  0001dd30  2**2
                  CONTENTS, ALLOC, LOAD, READONLY, DATA
 10 .data         000010b4  0001cde8  0001cde8  0001dde8  2**2
                  CONTENTS, ALLOC, LOAD, DATA
 11 .bss          0000b09c  0001de9c  0001de9c  0001ee9c  2**2
                  ALLOC
 12 .debug_info   0003ae10  00000000  00000000  0001ee9c  2**0
                  CONTENTS, READONLY, DEBUGGING, OCTETS
 13 .debug_abbrev 0000862d  00000000  00000000  00059cac  2**0
                  CONTENTS, READONLY, DEBUGGING, OCTETS
 14 .debug_loc    0002cc52  00000000  00000000  000622d9  2**0
                  CONTENTS, READONLY, DEBUGGING, OCTETS
 15 .debug_aranges 00000928  00000000  00000000  0008ef30  2**3
                  CONTENTS, READONLY, DEBUGGING, OCTETS
 16 .debug_ranges 00001ac8  00000000  00000000  0008f858  2**3
                  CONTENTS, READONLY, DEBUGGING, OCTETS
 17 .debug_macro  0002e9eb  00000000  00000000  00091320  2**0
                  CONTENTS, READONLY, DEBUGGING, OCTETS
 18 .debug_line   0002115d  00000000  00000000  000bfd0b  2**0
                  CONTENTS, READONLY, DEBUGGING, OCTETS
 19 .debug_str    0002037d  00000000  00000000  000e0e68  2**0
                  CONTENTS, READONLY, DEBUGGING, OCTETS
 20 .comment      0000005d  00000000  00000000  001011e5  2**0
                  CONTENTS, READONLY
 21 .ARM.attributes 00000031  00000000  00000000  00101242  2**0
                  CONTENTS, READONLY
 22 .debug_frame  00004428  00000000  00000000  00101274  2**2
                  CONTENTS, READONLY, DEBUGGING, OCTETS
 23 .rel.dyn      00000c40  0001c0f0  0001c0f0  0001d0f0  2**2
                  CONTENTS, ALLOC, LOAD, READONLY, DATA
SYMBOL TABLE:
00000000 l    d  .ta_head	00000000 .ta_head
00000020 l    d  .text	00000000 .text
00015aa0 l    d  .rodata	00000000 .rodata
0001b27c l    d  .gnu.hash	00000000 .gnu.hash
0001b2a8 l    d  .dynsym	00000000 .dynsym
0001b308 l    d  .dynstr	00000000 .dynstr
0001b338 l    d  .hash	00000000 .hash
0001c000 l    d  .dynamic	00000000 .dynamic
0001c088 l    d  .got	00000000 .got
0001cd30 l    d  .rel.got	00000000 .rel.got
0001cde8 l    d  .data	00000000 .data
0001de9c l    d  .bss	00000000 .bss
00000000 l    d  .debug_info	00000000 .debug_info
00000000 l    d  .debug_abbrev	00000000 .debug_abbrev
00000000 l    d  .debug_loc	00000000 .debug_loc
00000000 l    d  .debug_aranges	00000000 .debug_aranges
00000000 l    d  .debug_ranges	00000000 .debug_ranges
00000000 l    d  .debug_macro	00000000 .debug_macro
00000000 l    d  .debug_line	00000000 .debug_line
00000000 l    d  .debug_str	00000000 .debug_str
00000000 l    d  .comment	00000000 .comment
00000000 l    d  .ARM.attributes	00000000 .ARM.attributes
00000000 l    d  .debug_frame	00000000 .debug_frame
0001c0f0 l    d  .rel.dyn	00000000 .rel.dyn
00000000 l    df *ABS*	00000000 user_ta_header.c
000163d0 l     O .rodata	00000004 __compound_literal.4
000163d4 l     O .rodata	00000004 __compound_literal.3
000163d8 l     O .rodata	00000001 __compound_literal.2
000163d9 l     O .rodata	00000001 __compound_literal.1
000163da l     O .rodata	00000001 __compound_literal.0
00000000 l    df *ABS*	00000000 tee_api.c
00000020 l     F .text	00000066 update_out_param
00000196 l     F .text	00000182 copy_param
0001a64a l     O .rodata	0000000b __func__.0
0001dee8 l     O .bss	00000004 tee_api_instance_data
00000000 l    df *ABS*	00000000 attributes.c
00000620 l     F .text	000000ac _remove_attribute.isra.0
00016760 l     O .rodata	00000009 __func__.2
00016769 l     O .rodata	00000011 __func__.1
0001677a l     O .rodata	00000013 __func__.0
00000000 l    df *ABS*	00000000 entry.c
000167aa l     O .rodata	0000001b __func__.0
00000000 l    df *ABS*	00000000 object.c
00001074 l     F .text	0000003a cleanup_volatile_obj_ref
000010ae l     F .text	00000056 get_class
00001104 l     F .text	0000002a find_ctx_add
00016833 l     O .rodata	0000000f __func__.1
00016842 l     O .rodata	00000018 __func__.0
00000000 l    df *ABS*	00000000 persistent_token.c
00001ec4 l     F .text	000000a8 do_hash
00001f6c l     F .text	00000032 get_persistent_obj_idx
00001f9e l     F .text	00000076 open_db_file
00016ab3 l     O .rodata	00000015 __func__.8
00016ac8 l     O .rodata	00000023 __func__.7
00016aeb l     O .rodata	0000001d __func__.6
00016b08 l     O .rodata	00000015 __func__.5
00016b1d l     O .rodata	00000013 __func__.4
00016b30 l     O .rodata	00000014 __func__.3
00016b44 l     O .rodata	00000022 __func__.2
00016b66 l     O .rodata	00000024 __func__.1
00016b8a l     O .rodata	00000013 __func__.0
00000000 l    df *ABS*	00000000 pkcs11_attributes.c
00002c48 l     F .text	00000090 set_mandatory_attributes
00002cd8 l     F .text	0000005c get_key_type
00002d34 l     F .text	0000011c set_mandatory_boolprops
00002e50 l     F .text	00000054 get_u32_attribute
00002ea4 l     F .text	00000054 get_certificate_type
00002ef8 l     F .text	00000058 get_class
00002f50 l     F .text	000000c8 set_optional_attributes_with_def
00003018 l     F .text	000000c0 create_storage_attributes
000030d8 l     F .text	00000080 check_attr_bval.constprop.0
00003158 l     F .text	000000d0 create_genkey_attributes
00015aa0 l     O .rodata	00000001 bool_true.13
00015aa1 l     O .rodata	00000001 bool_false.12
00015aa2 l     O .rodata	00000012 __func__.11
00015ab4 l     O .rodata	0000001a __func__.14
00015ad0 l     O .rodata	00000014 any_object_boolprops
00015ae4 l     O .rodata	00000004 any_object_opt_or_null
00015ae8 l     O .rodata	00000019 __func__.7
00015b04 l     O .rodata	00000004 any_key_boolprops
00015b08 l     O .rodata	0000000c any_key_opt_or_null
00015b14 l     O .rodata	00000004 any_key_optional
00015b18 l     O .rodata	00000030 CSWTCH.85
00015b48 l     O .rodata	00000023 __func__.17
00015b6c l     O .rodata	00000004 ec_public_key_opt_or_null
00015b70 l     O .rodata	00000004 ec_public_key_mandated
00015b74 l     O .rodata	00000004 rsa_pub_key_gen_opt_or_null
00015b78 l     O .rodata	00000004 rsa_pub_key_gen_mand
00015b7c l     O .rodata	00000008 rsa_pub_key_create_mand
00015b84 l     O .rodata	00000020 rsa_priv_key_opt_or_null
00015ba4 l     O .rodata	00000008 ec_private_key_opt_or_null
00015bac l     O .rodata	00000000 ec_private_key_mandated
00015bac l     O .rodata	00000020 __func__.16
00015bcc l     O .rodata	00000017 __func__.15
00015be3 l     O .rodata	0000001e __func__.10
00015c04 l     O .rodata	00000004 pkcs11_certificate_boolprops
00015c08 l     O .rodata	00000004 pkcs11_certificate_mandated
00015c0c l     O .rodata	00000014 pkcs11_certificate_optional
00015c20 l     O .rodata	00000004 pkcs11_x509_certificate_mandated
00015c24 l     O .rodata	00000024 pkcs11_x509_certificate_optional
00015c48 l     O .rodata	0000001d __func__.9
00015c65 l     O .rodata	0000001b __func__.8
00015c80 l     O .rodata	00000028 symm_key_boolprops
00015ca8 l     O .rodata	00000010 symm_key_opt_or_null
00015cb8 l     O .rodata	00000004 symm_key_optional
00015cbc l     O .rodata	0000001a __func__.6
00015cd8 l     O .rodata	00000014 public_key_boolprops
00015cec l     O .rodata	00000000 public_key_mandated
00015cec l     O .rodata	0000000c public_key_opt_or_null
00015cf8 l     O .rodata	0000001b __func__.5
00015d14 l     O .rodata	00000020 private_key_boolprops
00015d34 l     O .rodata	00000000 private_key_mandated
00015d34 l     O .rodata	0000000c private_key_opt_or_null
00015d40 l     O .rodata	00000027 __func__.4
00015d67 l     O .rodata	00000014 __func__.3
00015d7c l     O .rodata	0000000e CSWTCH.88
00015d8a l     O .rodata	00000026 __func__.2
00015db0 l     O .rodata	00000028 __func__.1
00015dd8 l     O .rodata	00000019 __func__.0
00000000 l    df *ABS*	00000000 pkcs11_helpers.c
00004b7c l     F .text	00000048 id2str
00015e00 l     O .rodata	00000015 unknown
00015e18 l     O .rodata	00000058 bpa.5
00015e70 l     O .rodata	00000013 __func__.4
00015e83 l     O .rodata	0000001a __func__.3
00015e9d l     O .rodata	00000002 str_unknown.0
00015e9f l     O .rodata	00000005 str_true.2
00015ea4 l     O .rodata	00000006 str_false.1
0001cde8 l     O .data	000002f4 attr_ids
0001d0dc l     O .data	00000210 string_rc
0001d2ec l     O .data	000001a8 string_ta_cmd
0001d494 l     O .data	00000018 string_slot_flags
0001d4ac l     O .data	00000090 string_token_flags
0001d53c l     O .data	00000010 string_session_flags
0001d54c l     O .data	00000028 string_session_state
0001d574 l     O .data	00000050 string_class
0001d5c4 l     O .data	00000058 string_key_type
0001d61c l     O .data	00000020 string_certificate_type
0001d63c l     O .data	00000008 string_internal_processing
0001d644 l     O .data	00000048 string_functions
00000000 l    df *ABS*	00000000 pkcs11_token.c
0000522c l     F .text	00000058 close_ck_session
00005284 l     F .text	00000018 pad_str
0000529c l     F .text	00000096 set_pin
00005332 l     F .text	000000a0 check_user_pin.isra.0
000053d2 l     F .text	000000c6 check_so_pin.isra.0
00015eac l     O .rodata	0000000d __func__.2
00015eb9 l     O .rodata	0000000d __func__.7
00015ec6 l     O .rodata	00000012 __func__.6
00015f70 l     O .rodata	00000019 __func__.5
00015f89 l     O .rodata	00000012 __func__.4
00015f9b l     O .rodata	00000012 __func__.3
00015fb0 l     O .rodata	00000010 system_uuid.1
00015fc0 l     O .rodata	0000000e __func__.0
0001d68c l     O .data	00000008 pkcs11_client_list
00000000 l    df *ABS*	00000000 processing.c
000067a8 l     F .text	00000080 get_active_session.isra.0
00018b6e l     O .rodata	00000017 __func__.1
00018b85 l     O .rodata	00000016 __func__.0
00018b9b l     O .rodata	0000001f CSWTCH.181
00000000 l    df *ABS*	00000000 processing_aes.c
00000000 l    df *ABS*	00000000 processing_asymm.c
0000785c l     F .text	00000058 get_class
000078b4 l     F .text	0000005c get_key_type
00015fd0 l     O .rodata	00000015 __func__.5
00015fe5 l     O .rodata	00000017 __func__.4
00015ffc l     O .rodata	000000f0 pkcs2tee_algo.3
000160ec l     O .rodata	0000000d __func__.2
000160f9 l     O .rodata	00000012 __func__.1
0001610b l     O .rodata	00000015 __func__.0
00000000 l    df *ABS*	00000000 processing_digest.c
00016120 l     O .rodata	00000016 __func__.3
00016136 l     O .rodata	00000017 __func__.2
00016150 l     O .rodata	00000030 pkcs2tee_algo.1
00016180 l     O .rodata	00000016 __func__.0
00000000 l    df *ABS*	00000000 processing_ec.c
0000863c l     F .text	0000004c get_curve
00018fda l     O .rodata	00000014 __func__.3
00018fee l     O .rodata	00000016 __func__.2
00019004 l     O .rodata	00000011 __func__.1
00019015 l     O .rodata	00000017 __func__.0
0001902c l     O .rodata	000001c7 secp521r1_oid_der
000191f3 l     O .rodata	0000015b secp384r1_oid_der
0001934e l     O .rodata	000000fa prime256v1_oid_der
00019448 l     O .rodata	000000e2 secp224r1_oid_der
0001952a l     O .rodata	000000ca prime192v1_oid_der
000195f4 l     O .rodata	00000007 secp521r1_name_der
000195fb l     O .rodata	00000007 secp384r1_name_der
00019602 l     O .rodata	0000000a prime256v1_name_der
0001960c l     O .rodata	00000007 secp224r1_name_der
00019613 l     O .rodata	0000000a prime192v1_name_der
0001d694 l     O .data	000000a0 ec_curve_param
00000000 l    df *ABS*	00000000 processing_rsa.c
00008c5c l     F .text	00000006 serialargs_get_u32
000196a6 l     O .rodata	0000001a __func__.3
000196c0 l     O .rodata	00000017 __func__.2
000196d7 l     O .rodata	00000017 __func__.1
000196ee l     O .rodata	00000012 __func__.0
00000000 l    df *ABS*	00000000 processing_symm.c
000096ec l     F .text	0000005c get_key_type
00009748 l     F .text	000000ac pkcs2tee_key_type
000097f4 l     F .text	00000058 input_data_size_is_valid.isra.0
00016198 l     O .rodata	00000012 __func__.3
000161ac l     O .rodata	00000040 pkcs2tee_key_type.2
000161ec l     O .rodata	00000014 __func__.10
00016200 l     O .rodata	00000017 __func__.9
00016218 l     O .rodata	000000a8 pkcs2tee_algo.8
000162c0 l     O .rodata	00000060 pkcs2tee_key_type.6
00016320 l     O .rodata	00000060 hmac_hash.4
00016380 l     O .rodata	00000013 __func__.5
00016393 l     O .rodata	0000000d __func__.7
000163a0 l     O .rodata	00000014 __func__.1
000163b4 l     O .rodata	00000016 __func__.0
00000000 l    df *ABS*	00000000 sanitize_object.c
0000a784 l     F .text	0000005c get_key_type
0000a7e0 l     F .text	00000044 read_attr_advance
00019905 l     O .rodata	0000001f __func__.1
00019924 l     O .rodata	00000013 __func__.0
00019937 l     O .rodata	00000018 __func__.3
0001994f l     O .rodata	00000017 __func__.2
00019966 l     O .rodata	00000017 __func__.4
00000000 l    df *ABS*	00000000 serializer.c
0000af20 l     F .text	0000009c alloc_and_get
000199ad l     O .rodata	00000013 __func__.0
00000000 l    df *ABS*	00000000 token_capabilities.c
0001a49d l     O .rodata	00000020 __func__.2
0001a4bd l     O .rodata	0000001a __func__.1
0001a4d7 l     O .rodata	0000001a __func__.0
0001d734 l     O .data	00000330 pkcs11_modes
00000000 l    df *ABS*	00000000 ta_entry_a32.o
00000000 l    df *ABS*	00000000 snprintf.c
00000000 l    df *ABS*	00000000 memcpy.c
00000000 l    df *ABS*	00000000 snprintk.c
0000b6a4 l     F .text	00000724 kprintf.constprop.0
0001a5d1 l     O .rodata	00000011 HEXDIGITS
0001a5e2 l     O .rodata	00000011 hexdigits
00000000 l    df *ABS*	00000000 trace.c
0001a60d l     O .rodata	00000005 lvl_strs.0
00000000 l    df *ABS*	00000000 arm32_aeabi_ldivmod_a32.o
00000000 l    df *ABS*	00000000 arm32_aeabi_ldivmod.c
0000c018 l     F .text	0000008e ul_div_qr
00000000 l    df *ABS*	00000000 assert.c
00000000 l    df *ABS*	00000000 tee_uuid_from_str.c
0000c208 l     F .text	0000004c parse_hex
00000000 l    df *ABS*	00000000 trace_ext.c
00000000 l    df *ABS*	00000000 tee_api_objects.c
00000000 l    df *ABS*	00000000 tee_api_operations.c
0000cf88 l     F .text	0000018c tee_buffer_update
00000000 l    df *ABS*	00000000 tee_api_panic.c
0000eeb0 l     F .text	00000020 check_access
0000eed4 l     F .text	0000000a check_res.constprop.0
00000000 l    df *ABS*	00000000 tee_api_property.c
0000ef8c l     F .text	00000050 propset_get
0000efdc l     F .text	00000014 is_propset_pseudo_handle
0000eff0 l     F .text	000000c0 propget_get_ext_prop
0000f0b0 l     F .text	00000124 propget_get_property
000163e4 l     O .rodata	00000004 __compound_literal.3
000163e8 l     O .rodata	00000004 __compound_literal.2
000163ec l     O .rodata	00000004 __compound_literal.1
000163f0 l     O .rodata	00000004 __compound_literal.0
00000000 l    df *ABS*	00000000 tee_system_pta.c
0000f7ec l     F .text	00000050 invoke_system_pta
000163f4 l     O .rodata	00000010 uuid.2
00016404 l     O .rodata	0000000a __func__.1
0001640e l     O .rodata	00000017 __func__.0
0001deec l     O .bss	00000004 sess.3
00000000 l    df *ABS*	00000000 utee_syscalls_a32.o
00000000 l    df *ABS*	00000000 user_ta_entry.c
0000fe98 l     F .text	0000006a _get_fn_array
0000ff02 l     F .text	0000006a _fini_iterate_phdr_cb
0000ff6c l     F .text	0000001c ta_header_get_session
0000ff88 l     F .text	00000064 to_utee_params
0000ffec l     F .text	0000003c from_utee_params
00010028 l     F .text	00000064 _init_iterate_phdr_cb
0001008c l     F .text	00000020 ta_header_save_params.part.0
000101a8 l     F .text	0000006c ta_header_remove_session
0001a757 l     O .rodata	00000016 __func__.0
0001def0 l     O .bss	00000004 _num_mod_init
0001def4 l     O .bss	00000001 init_done
0001de2c l     O .data	00000008 ta_sessions
0001de34 l     O .data	00000008 __phdr_info_head
00000000 l    df *ABS*	00000000 abort.c
00000000 l    df *ABS*	00000000 base64.c
0001a774 l     O .rodata	00000041 base64_table
00000000 l    df *ABS*	00000000 tee_api_arith_mpi.c
000105a8 l     F .text	00000020 api_panic
000105c8 l     F .text	00000020 mpi_panic
000105e8 l     F .text	00000050 get_mpi
00010638 l     F .text	00000040 copy_mpi_to_bigint
00010678 l     F .text	000000d8 bigint_binary
00010750 l     F .text	00000010 mpi_is_odd
00010760 l     F .text	00000016 rng_read
00010776 l     F .text	000004ba mpi_egcd
0001df28 l     O .bss	00003000 data.17
00010fa4 l     F .text	00000144 bigint_binary_mod
0001a86c l     O .rodata	00000008 __func__.14
0001a874 l     O .rodata	0000000e __func__.10
0001a882 l     O .rodata	00000009 __func__.2
0001a88b l     O .rodata	00000012 __func__.16
0001a89d l     O .rodata	0000000f __func__.15
0001a8ac l     O .rodata	0000001f __func__.13
0001a8cb l     O .rodata	00000019 __func__.12
0001a8e4 l     O .rodata	00000012 __func__.6
0001a8f6 l     O .rodata	00000015 __func__.11
0001a90b l     O .rodata	0000000e __func__.9
0001a919 l     O .rodata	0000000e __func__.8
0001a927 l     O .rodata	0000000e __func__.7
0001a935 l     O .rodata	00000011 __func__.5
0001a946 l     O .rodata	00000018 __func__.4
0001a95e l     O .rodata	0000001d __func__.3
0001a97b l     O .rodata	00000019 __func__.1
0001a994 l     O .rodata	00000015 __func__.0
00000000 l    df *ABS*	00000000 tcb.c
0001aa3f l     O .rodata	00000010 __func__.1
0001aa4f l     O .rodata	00000010 __func__.0
00020f28 l     O .bss	00000004 _tls_size
00020f2c l     O .bss	00000004 _tcb
00000000 l    df *ABS*	00000000 bignum.c
00011e40 l     F .text	00000024 mpi_safe_cond_assign
00011e64 l     F .text	0000003a mpi_get_digit
00011e9e l     F .text	00000364 mpi_mul_hlp
00012202 l     F .text	000000f4 mpi_montmul
000122f6 l     F .text	0000005a mpi_montred
00012350 l     F .text	00000026 mpi_montg_init.isra.0
00012376 l     F .text	00000086 mpi_bigendian_to_host.part.0
000123fc l     F .text	00000064 mpi_fill_random_internal
00012570 l     F .text	00000036 mbedtls_mpi_resize_clear
00013a1c l     F .text	00000084 mpi_check_small_factors
000140c0 l     F .text	000001d8 mpi_miller_rabin
00016428 l     O .rodata	000002a0 small_prime
000166c8 l     O .rodata	00000024 gcd_pairs
00000000 l    df *ABS*	00000000 platform_util.c
0001de3c l     O .data	00000004 memset_func
00000000 l    df *ABS*	00000000 bget_malloc.c
00014d44 l     F .text	00000020 raw_malloc_return_hook
00015472 l     F .text	00000082 gen_malloc_add_pool
0001b16e l     O .rodata	00000005 __func__.8
0001b173 l     O .rodata	00000006 __func__.7
0001b179 l     O .rodata	00000005 __func__.5
0001b17e l     O .rodata	00000006 __func__.6
0001b184 l     O .rodata	00000006 __func__.4
0001b18a l     O .rodata	00000007 __func__.3
0001b191 l     O .rodata	00000014 __func__.2
0001b1a5 l     O .rodata	0000000e __func__.1
0001b1b3 l     O .rodata	00000013 __func__.0
0001de40 l     O .data	0000005c malloc_ctx
00000000 l    df *ABS*	00000000 mempool.c
0001b24f l     O .rodata	00000013 __func__.2
0001b262 l     O .rodata	0000000b __func__.1
0001b26d l     O .rodata	0000000e __func__.0
00000000 l    df *ABS*	00000000 handle.c
00000000 l    df *ABS*	00000000 stack_check.c
00000000 l    df *ABS*	00000000 memset.c
00000000 l    df *ABS*	00000000 strchr.c
00000000 l    df *ABS*	00000000 strcmp.c
00000000 l    df *ABS*	00000000 strcpy.c
00000000 l    df *ABS*	00000000 strlen.c
00000000 l    df *ABS*	00000000 strnlen.c
00000000 l    df *ABS*	00000000 strstr.c
00000000 l    df *ABS*	00000000 consttime_memcmp.c
00000000 l    df *ABS*	00000000 memchr.c
00000000 l    df *ABS*	00000000 isxdigit.c
00000000 l    df *ABS*	00000000 tolower.c
00000000 l    df *ABS*	00000000 memmove.c
00000000 l    df *ABS*	00000000 strlcpy.c
00000000 l    df *ABS*	00000000 
0001c000 l     O *ABS*	00000000 _DYNAMIC
0001c088 l     O *ABS*	00000000 _GLOBAL_OFFSET_TABLE_
00015a60 l     F .text	00000010 ___utee_log_from_thumb
00015a70 l     F .text	00000010 ___utee_cache_operation_from_thumb
00015a80 l     F .text	00000010 ___utee_check_access_rights_from_thumb
00015a90 l     F .text	00000010 ___utee_panic_from_thumb
000006cc g     F .text	00000018 init_attributes_head
0000c3fc g     F .text	00000058 putchar
0000c824 g     F .text	000000ac TEE_PopulateTransientObject
00004ef0 g     F .text	000000f0 pkcs2tee_load_hashed_attr
0001590a g     F .text	00000010 strcpy
00002568 g     F .text	00000040 destroy_object_uuid
00011a72 g     F .text	00000004 TEE_BigIntConvertToFMM
00011674 g     F .text	00000008 TEE_BigIntSquareMod
000110e8 g     F .text	00000144 TEE_BigIntShiftRight
0001559a g     F .text	00000002 raw_malloc_add_pool
0000f928 g     F .text	000000c0 tee_invoke_supp_plugin
0000b270 g     F .text	00000084 tee_malloc_mechanism_list
00002938 g     F .text	000000d0 update_persistent_object_attributes
0000a940 g     F .text	000001a0 trace_attributes_from_api_head
000124d8 g     F .text	00000098 mbedtls_mpi_grow
0000c11c g     F .text	000000b4 __l_divmod
00002128 g     F .text	00000080 verify_pin
0000dd08 g     F .text	00000034 TEE_DigestUpdate
00005d78 g     F .text	00000084 entry_ck_close_session
000005ee g     F .text	00000020 TEE_Realloc
0000db28 g     F .text	0000012c TEE_SetOperationKey2
0000ef7a g     F .text	00000012 __utee_check_inout_annotation
000153de g     F .text	00000008 raw_free
0000c366 g     F .text	00000072 printf
00004a4c g     F .text	0000002a get_key_data_to_wrap
00002248 g     F .text	000001e4 setup_identity_auth_from_pin
00008440 g     F .text	000001fc step_digest_operation
000050d0 g     F .text	00000018 id2str_class
00004c92 g     F .text	0000000c pkcs11_attr_class_is_key
0000c8d0 g     F .text	00000022 TEE_InitRefAttribute
0000fa10 g     F .text	00000014 _utee_log
0000886c g     F .text	0000006c pkcs2tee_algo_ecdsa
000003dc g     F .text	000000e4 TEE_InvokeTACommand
0000eede g     F .text	0000002e __utee_check_outbuf_annotation
0001246c g     F .text	00000028 mbedtls_mpi_init_mempool
00000bd4 g     F .text	0000016c trace_attributes
0000fcac g     F .text	00000014 _utee_cryp_random_number_generate
00012a26 g     F .text	0000006c mbedtls_mpi_write_binary
0000c254 g     F .text	000000f8 tee_uuid_from_str
00003e4c g     F .text	00000008 object_is_modifiable
0000e4d4 g     F .text	00000158 TEE_AEEncryptFinal
00004c6a g     F .text	00000014 pkcs11_attr_has_indirect_attributes
000014a4 g     F .text	000000e4 entry_destroy_object
00001260 g     F .text	00000128 create_object
000025a8 g     F .text	0000002c get_persistent_objects_list
0000b63c g     F .text	0000000e vsnprintk
00013028 g     F .text	00000068 mbedtls_mpi_sub_int
00008358 g     F .text	000000e8 init_digest_operation
00000770 g     F .text	00000006 remove_empty_attribute
00015a00 g     F .text	00000034 memmove
0000b498 g     F .text	00000058 snprintf
00005624 g     F .text	00000016 pkcs11_deinit
00010f48 g     F .text	0000005c TEE_BigIntCmpS32
00005070 g     F .text	00000018 id2str_session_flag
0001ddec g     O .data	00000004 __stack_chk_guard
000025d4 g     F .text	000000e8 unregister_persistent_object
0000c8f2 g     F .text	00000022 TEE_InitValueAttribute
000125a6 g     F .text	000000b6 mbedtls_mpi_shrink
000011a8 g     F .text	00000098 destroy_object
0000a824 g     F .text	0000011c sanitize_consistent_class_and_type
000112e4 g     F .text	00000020 TEE_BigIntAdd
000050e8 g     F .text	00000018 id2str_key_type
00005516 g     F .text	00000006 get_session_list
0000fc0c g     F .text	00000014 _utee_cryp_obj_restrict_usage
00000776 g     F .text	000000d2 get_attribute_ptrs
000163dc g     O .rodata	00000004 ta_heap_size
0000c7c0 g     F .text	00000064 TEE_ResetTransientObject
0000b128 g     F .text	0000004c serialize
0000fd34 g     F .text	00000018 _utee_asymm_operate
00010408 g     F .text	0000000e _base64_enc_len
00013208 g     F .text	00000158 mbedtls_mpi_read_string
0000ddf4 g     F .text	00000074 TEE_CipherInit
000026bc g     F .text	000000c8 register_persistent_object
00002508 g     F .text	00000002 close_persistent_db
000042dc g     F .text	0000036c check_parent_attrs_against_processing
00007218 g     F .text	000002a8 entry_processing_key
00011324 g     F .text	000000a8 TEE_BigIntNeg
0000fdd0 g     F .text	00000014 _utee_storage_free_enum
00000020 g       .text	00000000 __text_start
00007578 g     F .text	0000024c entry_wrap_key
0000f754 g     F .text	00000098 TEE_GetNextProperty
0000cd00 g     F .text	0000002c TEE_StartPersistentObjectEnumerator
00012b36 g     F .text	00000078 mbedtls_mpi_shift_r
000093dc g     F .text	000002b8 generate_rsa_keys
000156a4 g     F .text	00000054 malloc_buffer_overlaps_heap
0000fb74 g     F .text	00000014 _utee_hash_init
00001240 g     F .text	00000020 create_token_object
0001163c g     F .text	0000001c TEE_BigIntSubMod
000147b6 g     F .text	00000246 mbedtls_mpi_gen_prime
0000f488 g     F .text	0000009c TEE_GetPropertyAsBinaryBlock
00012848 g     F .text	00000022 mbedtls_mpi_get_bit
00012978 g     F .text	00000042 mbedtls_mpi_read_binary
0000e30c g     F .text	00000070 TEE_AEInit
0000bf8c g     F .text	00000058 trace_printf
00013aa6 g     F .text	00000004 mbedtls_mpi_montmul
0000fe84 g     F .text	00000014 _utee_cache_operation
0000b500 g     F .text	000000d8 memcpy
0000ae68 g     F .text	00000008 serialargs_init
0000984c g     F .text	00000088 processing_is_tee_symm
00001b90 g     F .text	00000144 entry_set_attribute_value
00008bc4 g     F .text	00000098 ecdsa_get_input_max_byte_size
00015864 g     F .text	0000001c handle_put
00011a76 g     F .text	0000009a TEE_BigIntConvertFromFMM
0000eed0 g     F .text	00000004 TEE_Panic
00003e46 g     F .text	00000006 object_is_token
0000c000 g     F .text	00000018 __aeabi_uldivmod
0000dc54 g     F .text	000000b4 TEE_CopyOperation
0000c3d8 g     F .text	00000024 puts
00011b10 g     F .text	000000f4 TEE_BigIntComputeFMM
0001536c g     F .text	0000001c malloc_get_stats
00004bc4 g     F .text	00000054 tee2pkcs_error
0000057c g     F .text	00000016 TEE_GetREETime
0001559c g     F .text	00000018 raw_malloc_get_stats
0000cc70 g     F .text	00000068 TEE_AllocatePersistentObjectEnumerator
000159f4 g     F .text	0000000c tolower
0000aec8 g     F .text	00000058 serialargs_get
0001dd98 g     O .data	00000054 ta_props
0000e758 g     F .text	000000f0 TEE_AsymmetricEncrypt
0000ef0c g     F .text	0000001a __utee_check_instring_annotation
000154f4 g     F .text	00000014 malloc
0000aae0 g     F .text	00000388 sanitize_client_object
000158ba g     F .text	0000000a __ta_entry_c
0000f684 g     F .text	00000004 TEE_FreePropertyEnumerator
00000b0c g     F .text	000000c8 attributes_match_add_reference
00005100 g     F .text	00000014 id2str_type
00001878 g     F .text	00000020 release_session_find_obj_context
0000b4f0 g     F .text	0000000e vsnprintf
0000ca14 g     F .text	0000008c TEE_GenerateKey
0001dd94 g     O .data	00000004 trace_level
000054c4 g     F .text	0000004c get_token_id
00010edc g     F .text	0000006c TEE_BigIntCmp
000021a8 g     F .text	000000a0 setup_so_identity_auth_from_client
00004c7e g     F .text	00000014 pkcs11_class_has_type
000163cc g     O .rodata	00000004 ta_num_props
0000a5ae g     F .text	00000142 wrap_data_by_symm_enc
00008694 g     F .text	00000030 ec_params2tee_curve
0000551c g     F .text	00000018 tee_session2client
000151d4 g     F .text	00000084 bgetr
0000fd64 g     F .text	00000018 _utee_storage_obj_open
0000ae70 g     F .text	00000058 serialargs_get_ptr
0000afbc g     F .text	00000016 serialargs_alloc_and_get
00001898 g     F .text	0000008c entry_find_objects_final
000157e0 g     F .text	0000000c mempool_free
0000de68 g     F .text	00000124 TEE_CipherUpdate
0000fb88 g     F .text	00000014 _utee_hash_update
00010d38 g     F .text	0000008c TEE_BigIntConvertToOctetString
00000952 g     F .text	0000008a modify_attributes_list
0000d914 g     F .text	00000108 TEE_GetOperationInfoMultiple
000064b0 g     F .text	00000108 entry_ck_logout
000128f0 g     F .text	00000036 mbedtls_mpi_bitlen
0001122c g     F .text	00000060 TEE_BigIntGetBit
000163e0 g     O .rodata	00000003 trace_ext_prefix
0000fe0c g     F .text	00000014 _utee_storage_next_enum
00005214 g     F .text	00000018 id2str_function
000153cc g     F .text	00000012 raw_malloc
00004cca g     F .text	00000026 pkcs11_attr2boolprop_shift
00014f6c g     F .text	00000060 bgetz
0000558c g     F .text	0000006c unregister_client
000004cc g     F .text	0000000c TEE_GetInstanceData
000004fa g     F .text	0000001e TEE_Wait
000066d0 g     F .text	000000d8 entry_ck_generate_random
00013090 g     F .text	0000011c mbedtls_mpi_mul_mpi
000020b8 g     F .text	00000070 hash_pin
00000614 g     F .text	00000006 TEE_CacheFlush
0000be10 g     F .text	0000017c trace_vprintf
00000d44 g     F .text	00000004 TA_DestroyEntryPoint
0000b044 g     F .text	00000070 serialargs_alloc_get_attributes
0000242c g     F .text	000000dc verify_identity_auth
00012460 g     F .text	0000000c mbedtls_mpi_init
0000fd94 g     F .text	00000014 _utee_storage_obj_del
000128bc g     F .text	00000034 mbedtls_mpi_lsb
0000c1d0 g     F .text	00000028 _assert_log
00006c60 g     F .text	00000274 entry_generate_key_pair
0000fb4c g     F .text	00000014 _utee_cryp_state_copy
00011a6e g     F .text	00000004 TEE_BigIntFMMContextSizeInU32
00003380 g     F .text	00000ac0 create_attributes_from_template
0000f8a8 g     F .text	00000080 tee_unmap
0000e254 g     F .text	000000b8 TEE_MACCompareFinal
0000cc36 g     F .text	0000003a TEE_RenamePersistentObject
0000b1c0 g     F .text	00000084 mechanism_flags_complies_pkcs11
0000dd3c g     F .text	000000b8 TEE_DigestDoFinal
00005534 g     F .text	0000000c pkcs11_handle2session
00010c30 g     F .text	00000044 _TEE_MathAPI_Init
000006e4 g     F .text	0000008c add_attribute
00011c04 g     F .text	0000017c __utee_tcb_init
00012f30 g     F .text	00000048 mbedtls_mpi_add_mpi
000103f0 g     F .text	00000018 abort
00000848 g     F .text	0000005c get_attribute_ptr
00014298 g     F .text	00000128 mbedtls_mpi_random
00009694 g     F .text	00000058 rsa_get_input_max_byte_size
00002784 g     F .text	000001a4 load_persistent_object_attributes
000158c8 g     F .text	00000002 __stack_chk_fail
0000502c g     F .text	00000014 id2str_ta_cmd
0001de9c g     O .bss	00000004 temporary_object_list
0000ef54 g     F .text	00000012 __utee_check_out_annotation
00020f34 g     O .bss	00008000 ta_heap
0001167c g     F .text	000000f4 TEE_BigIntInvMod
0000b244 g     F .text	0000002c mechanism_is_one_shot_only
000159d8 g     F .text	0000001c isxdigit
000100ac g     F .text	000000ec __utee_call_elf_init_fn
0000900c g     F .text	000001bc pkcs2tee_algo_rsa_oaep
00000d60 g     F .text	0000000e TA_CloseSessionEntryPoint
0000b462 g     F .text	00000032 mechanism_supported_key_sizes_bytes
0000fa7c g     F .text	00000014 _utee_close_ta_session
00007910 g     F .text	00000044 processing_is_tee_asymm
0000a54c g     F .text	00000062 derive_key_by_symm_enc
0000e848 g     F .text	000000f4 TEE_AsymmetricDecrypt
0000caa0 g     F .text	000000a0 TEE_OpenPersistentObject
00012f78 g     F .text	0000004a mbedtls_mpi_sub_mpi
0000f9fc g     F .text	00000014 _utee_return
00015974 g     F .text	00000048 consttime_memcmp
0000fa24 g     F .text	00000014 __utee_panic
00011d80 g     F .text	00000018 __tls_get_addr
0001592a g     F .text	00000018 strnlen
00000d6e g     F .text	00000306 TA_InvokeCommandEntryPoint
0001dea0 g     O .bss	00000048 ck_token
00010198 g     F .text	00000010 __utee_call_elf_fini_fn
00015574 g     F .text	00000010 free_wipe
0001577c g     F .text	0000003c mempool_alloc
0000f9e8 g     F .text	00000014 _utee_panic
00015588 g     F .text	00000012 raw_malloc_init_ctx
000157b8 g     F .text	00000028 mempool_calloc
0000fe70 g     F .text	00000014 _utee_cryp_obj_generate_key
0000fe48 g     F .text	00000014 _utee_storage_obj_trunc
0000c9b0 g     F .text	00000064 TEE_CopyObjectAttributes
0001ddf0 g     O .data	0000003c tee_props
0000fad0 g     F .text	00000014 _utee_unmask_cancellation
000051dc g     F .text	00000038 id2str_proc
0001da64 g     O .data	00000330 token_mechanism
0000f654 g     F .text	00000008 TEE_ResetPropertyEnumerator
00015508 g     F .text	00000020 calloc
00005058 g     F .text	00000018 id2str_token_flag
00000592 g     F .text	00000052 TEE_Malloc
0000018c g     F .text	0000000a TEE_CheckMemoryAccessRights
0000c0a6 g     F .text	00000076 __ul_divmod
0000f524 g     F .text	00000098 TEE_GetPropertyAsUUID
0000fa38 g     F .text	00000018 _utee_get_property
00012810 g     F .text	00000038 mbedtls_mpi_lset
0000cdd0 g     F .text	0000008c TEE_ReadObjectData
0000c55c g     F .text	000000a8 TEE_GetObjectBufferAttribute
00000d48 g     F .text	00000018 TA_OpenSessionEntryPoint
00004068 g     F .text	00000274 check_created_attrs
0000d114 g     F .text	00000026 TEE_FreeOperation
00011d98 g     F .text	000000a8 dl_iterate_phdr
00004a76 g     F .text	00000106 add_missing_attribute_id
00028f38 g       .bss	00000000 __ftrace_buf_end
0001df24 g     O .bss	00000004 ta_param_types
000098d4 g     F .text	00000788 init_symm_operation
0001373c g     F .text	00000068 mbedtls_mpi_div_int
0000c454 g     F .text	0000003e __utee_from_attr
00003e5c g     F .text	00000036 check_access_attrs_against_token
0000250a g     F .text	0000005e create_object_uuid
000046f0 g     F .text	000002a8 check_attrs_against_modification
00004998 g     F .text	000000b4 set_key_data
00014714 g     F .text	00000098 mbedtls_mpi_is_prime_ext
00006148 g     F .text	000000e0 entry_ck_init_pin
000119fc g     F .text	00000064 TEE_BigIntIsProbablePrime
000131ac g     F .text	0000005c mbedtls_mpi_mul_int
0000cbfc g     F .text	00000024 TEE_CloseAndDeletePersistentObject1
00013aae g     F .text	000004aa mbedtls_mpi_exp_mod
00012720 g     F .text	0000005c mbedtls_mpi_safe_cond_assign
00004cbc g     F .text	0000000e key_type_is_asymm_key
0000f1d4 g     F .text	00000188 TEE_GetPropertyAsString
00007048 g     F .text	000001d0 entry_processing_step
00012c94 g     F .text	000000a8 mbedtls_mpi_lt_mpi_ct
0000e62c g     F .text	0000012c TEE_AEDecryptFinal
00010c74 g     F .text	00000038 TEE_BigIntInit
0000ef26 g     F .text	0000002e __utee_check_outstring_annotation
000004d8 g     F .text	00000004 TEE_MemMove
00014d30 g     F .text	00000014 mbedtls_platform_zeroize
00010cac g     F .text	0000008c TEE_BigIntConvertFromOctetString
0000fd1c g     F .text	00000018 _utee_authenc_dec_final
00012bae g     F .text	00000062 mbedtls_mpi_cmp_abs
0000fe20 g     F .text	00000014 _utee_storage_obj_read
0000e100 g     F .text	00000056 TEE_MACInit
000009dc g     F .text	00000088 get_bool
0000e93c g     F .text	000000ec TEE_AsymmetricSignDigest
000159bc g     F .text	0000001c memchr
000000ec g     F .text	00000050 TEE_UnmaskCancellation
0000c492 g     F .text	0000002a TEE_GetObjectInfo
000149fc g     F .text	00000334 mbedtls_mpi_self_test
00003e40 g     F .text	00000006 object_is_private
0000fe5c g     F .text	00000014 _utee_storage_obj_seek
0000e3c2 g     F .text	00000112 TEE_AEUpdate
0000c75c g     F .text	00000064 TEE_FreeTransientObject
0000fabc g     F .text	00000014 _utee_check_access_rights
0000563a g     F .text	00000096 set_processing_state
00012d3c g     F .text	00000064 mbedtls_mpi_cmp_int
00015942 g     F .text	00000032 strstr
000104e4 g     F .text	000000c4 _base64_dec
0000fde4 g     F .text	00000014 _utee_storage_reset_enum
0000ec2a g     F .text	0000004a rand
000050a0 g     F .text	00000030 id2str_attr
0000ef66 g     F .text	00000014 __utee_check_attr_in_annotation
0000fcec g     F .text	00000018 _utee_authenc_update_payload
00004c18 g     F .text	00000038 valid_pkcs11_attribute_id
00008da8 g     F .text	00000184 pkcs2tee_algo_rsa_pss
00006ed4 g     F .text	00000174 entry_processing_init
0000d8e4 g     F .text	00000030 TEE_GetOperationInfo
000115d0 g     F .text	00000050 TEE_BigIntMod
00013808 g     F .text	0000006c mbedtls_mpi_mod_int
00012932 g     F .text	00000046 mbedtls_mpi_read_binary_le
000114ae g     F .text	00000122 TEE_BigIntDiv
0000fc34 g     F .text	00000014 _utee_cryp_obj_alloc
00028f38 g       .bss	00000000 __ftrace_buf_start
00015a34 g     F .text	0000002a strlcpy
0000a6f0 g     F .text	00000094 unwrap_key_by_symm
0001265c g     F .text	00000066 mbedtls_mpi_copy
00005540 g     F .text	0000004c register_client
0000ec74 g     F .text	0000023c TEE_IsAlgorithmSupported
00015358 g     F .text	00000014 malloc_reset_stats
0000f5bc g     F .text	00000098 TEE_GetPropertyAsIdentity
0000bdc8 g     F .text	00000016 __vsprintf
0000575c g     F .text	00000130 entry_ck_slot_info
00001924 g     F .text	000001a4 entry_get_attribute_value
0000fb20 g     F .text	00000014 _utee_set_ta_time
0000fa90 g     F .text	00000018 _utee_invoke_ta_command
00008688 g     F .text	0000000c ec_params2tee_keysize
0000c4dc g     F .text	00000020 TEE_RestrictObjectUsage1
0000b1a0 g     F .text	00000020 mechanism_is_valid
00015528 g     F .text	0000001c realloc
000126c2 g     F .text	0000005e mbedtls_mpi_swap
000156f8 g     F .text	00000084 mempool_alloc_pool
000113cc g     F .text	000000dc TEE_BigIntMul
00003228 g     F .text	00000158 check_mechanism_against_processing
0000da1c g     F .text	00000040 TEE_ResetOperation
00015584 g     F .text	00000004 raw_malloc_get_ctx_size
00012a92 g     F .text	000000a4 mbedtls_mpi_shift_l
00004c50 g     F .text	0000001a pkcs11_attr_is_type
00006228 g     F .text	00000104 entry_ck_set_pin
00012c10 g     F .text	00000084 mbedtls_mpi_cmp_mpi
000004e0 g     F .text	00000004 TEE_MemFill
00001588 g     F .text	0000022c entry_find_objects_init
000155b4 g     F .text	00000010 malloc_add_pool
0000e156 g     F .text	0000004e TEE_MACUpdate
0000bdfc g     F .text	00000014 trace_get_level
00012da0 g     F .text	000000ae mbedtls_mpi_add_abs
0000c4fc g     F .text	00000060 TEE_RestrictObjectUsage
000088d8 g     F .text	000002ec generate_ec_keys
00011a66 g     F .text	00000008 TEE_BigIntFMMSizeInU32
0000f35c g     F .text	00000094 TEE_GetPropertyAsBool
0001542e g     F .text	00000044 raw_realloc
00011a60 g     F .text	00000004 TEE_BigIntInitFMM
0000c6d4 g     F .text	00000014 TEE_CloseObject
00001cd4 g     F .text	000001f0 entry_copy_object
0000fbb4 g     F .text	00000014 _utee_cipher_init
00005088 g     F .text	00000018 id2str_session_state
00010214 g     F .text	000001dc __utee_entry
0000f3f0 g     F .text	00000098 TEE_GetPropertyAsU32
000086c4 g     F .text	000001a8 load_tee_ec_key_attrs
00015aa0 g       .text	00000000 __text_end
00011770 g     F .text	000000b0 TEE_BigIntRelativePrime
000137a4 g     F .text	00000064 mbedtls_mpi_mod_mpi
0000fbf8 g     F .text	00000014 _utee_cryp_obj_get_info
0000512c g     F .text	000000b0 id2str_attr_value
00004648 g     F .text	000000a8 attribute_is_exportable
00015258 g     F .text	0000009c bpool
0000f65c g     F .text	00000028 TEE_AllocatePropertyEnumerator
0000fb34 g     F .text	00000018 _utee_cryp_state_alloc
0000009a g     F .text	00000052 TEE_GetCancellationFlag
00013f58 g     F .text	00000134 mbedtls_mpi_gcd
0000588c g     F .text	00000174 entry_ck_token_info
00000554 g     F .text	00000028 TEE_SetTAPersistentTime
0000b0b4 g     F .text	00000012 serialargs_remaining_bytes
00001150 g     F .text	00000014 pkcs11_object2handle
000129ba g     F .text	0000006c mbedtls_mpi_write_binary_le
000158ca g     F .text	00000010 memset
00006930 g     F .text	000001fc entry_generate_secret
00015388 g     F .text	00000044 raw_memalign
00000518 g     F .text	0000003c TEE_GetTAPersistentTime
0000bfe4 g     F .text	00000002 dhex_dump
0000cb40 g     F .text	000000bc TEE_CreatePersistentObject
0000013c g     F .text	00000050 TEE_MaskCancellation
0000e37c g     F .text	00000046 TEE_AEUpdateAAD
00005f5c g     F .text	000001ec entry_ck_token_initialize
0000ce9c g     F .text	00000038 TEE_TruncateObjectData
0000fc20 g     F .text	00000014 _utee_cryp_obj_get_attr
00002014 g     F .text	000000a4 update_persistent_db
00003efa g     F .text	0000016e check_created_attrs_against_processing
0000c4bc g     F .text	00000020 TEE_GetObjectInfo1
0000fbe0 g     F .text	00000018 _utee_cipher_final
0000bde0 g     F .text	0000001c trace_set_level
0000c604 g     F .text	000000d0 TEE_GetObjectValueAttribute
0000da5c g     F .text	000000cc TEE_SetOperationKey
000056d0 g     F .text	0000008c entry_ck_slot_list
00005498 g     F .text	0000002c get_token
0000fb60 g     F .text	00000014 _utee_cryp_state_free
000158f4 g     F .text	00000016 strcmp
0000fa64 g     F .text	00000018 _utee_open_ta_session
00010e48 g     F .text	00000094 TEE_BigIntConvertToS32
00011304 g     F .text	00000020 TEE_BigIntSub
00004fe0 g     F .text	00000034 pkcs2tee_mode
00004c9e g     F .text	0000001e key_type_is_symm_key
000158c4 g     F .text	00000004 tahead_get_trace_level
0000fdf8 g     F .text	00000014 _utee_storage_start_enum
0000ced4 g     F .text	000000b4 TEE_SeekObjectData
0000f83c g     F .text	0000006c tee_map_zi
00013aaa g     F .text	00000004 mbedtls_mpi_montred
00006b2c g     F .text	00000098 alloc_get_tee_attribute_data
00000a64 g     F .text	000000a8 attributes_match_reference
00015544 g     F .text	00000020 memalign
0000df8c g     F .text	00000174 TEE_CipherDoFinal
000077c4 g     F .text	00000098 tee_init_ctr_operation
00010dc4 g     F .text	00000084 TEE_BigIntConvertFromS32
00012fc2 g     F .text	00000066 mbedtls_mpi_add_int
00015880 g     F .text	00000016 handle_lookup
0000fd04 g     F .text	00000018 _utee_authenc_enc_final
000008a4 g     F .text	00000080 get_attribute
000155c4 g     F .text	000000e0 malloc_buffer_is_within_alloced
0000632c g     F .text	00000184 entry_ck_login
00005a00 g     F .text	000000f0 entry_ck_token_mecha_ids
0000fc48 g     F .text	00000014 _utee_cryp_obj_close
00011a64 g     F .text	00000002 TEE_BigIntInitFMMContext
0000fae4 g     F .text	00000014 _utee_mask_cancellation
0000fda8 g     F .text	00000014 _utee_storage_obj_rename
0000ccec g     F .text	00000014 TEE_ResetPersistentObjectEnumerator
0000ce5c g     F .text	00000040 TEE_WriteObjectData
000114a8 g     F .text	00000006 TEE_BigIntSquare
0000fe34 g     F .text	00000014 _utee_storage_obj_write
00000d40 g     F .text	00000004 TA_CreateEntryPoint
0000b350 g     F .text	00000112 pkcs11_mechanism_supported_key_sizes
0000b494 g     F .text	00000004 __ta_entry
0000fcd8 g     F .text	00000014 _utee_authenc_update_aad
00013aa0 g     F .text	00000006 mbedtls_mpi_montg_init
0000b64a g     F .text	0000005a snprintk
0001128c g     F .text	00000058 TEE_BigIntGetBitCount
0000fc84 g     F .text	00000014 _utee_cryp_obj_copy
00002928 g     F .text	00000010 release_persistent_object_attributes
00011658 g     F .text	0000001c TEE_BigIntMulMod
000143c0 g     F .text	00000354 mbedtls_mpi_inv_mod
0000eb04 g     F .text	00000114 TEE_DeriveKey
00005e98 g     F .text	000000c4 entry_ck_session_info
0001df04 g     O .bss	00000020 ta_params
00001164 g     F .text	00000044 cleanup_persistent_object
00013360 g     F .text	000003dc mbedtls_mpi_div_mpi
00012926 g     F .text	0000000c mbedtls_mpi_size
00014d64 g     F .text	00000208 bget
00015896 g     F .text	00000024 handle_lookup_handle
0000c6e8 g     F .text	00000074 TEE_AllocateTransientObject
00001ac8 g     F .text	000000c8 entry_get_object_size
0000f688 g     F .text	0000000a TEE_StartPropertyEnumerator
0000faf8 g     F .text	00000014 _utee_wait
0001286a g     F .text	00000052 mbedtls_mpi_set_bit
00015df4 g     O .rodata	0000000c raw_data_opt_or_null
00007954 g     F .text	000004b4 init_asymm_operation
000005e4 g     F .text	0000000a TEE_Free
00001388 g     F .text	0000011c entry_create_object
00002a08 g     F .text	00000240 init_persistent_db
000147ac g     F .text	0000000a mbedtls_mpi_is_prime
0000061a g     F .text	00000006 TEE_CacheInvalidate
00003e54 g     F .text	00000008 object_is_copyable
0000c1f8 g     F .text	00000010 _assert_break
00011620 g     F .text	0000001c TEE_BigIntAddMod
0000fb0c g     F .text	00000014 _utee_get_time
00015808 g     F .text	0000005c handle_get
0000f692 g     F .text	000000c2 TEE_GetPropertyName
0000d13a g     F .text	000007aa TEE_AllocateOperation
0000fc70 g     F .text	00000014 _utee_cryp_obj_populate
0000afd2 g     F .text	00000072 serialargs_alloc_get_one_attribute
0000ec18 g     F .text	00000012 TEE_GenerateRandom
000004dc g     F .text	00000004 TEE_MemCompare
00006bc4 g     F .text	0000009c tee2pkcs_add_attribute
0000fbc8 g     F .text	00000018 _utee_cipher_update
0000b5d8 g     F .text	00000064 __vsnprintf
00005dfc g     F .text	0000009c entry_ck_close_all_sessions
0001def8 g     O .bss	0000000c __elf_phdr_info
000091c8 g     F .text	00000214 load_tee_rsa_key_attrs
0000112e g     F .text	00000022 pkcs11_handle2object
0000ccd8 g     F .text	00000014 TEE_FreePersistentObjectEnumerator
00000318 g     F .text	000000c4 TEE_OpenTASession
000065b8 g     F .text	00000118 entry_ck_seed_random
00005af0 g     F .text	000000dc entry_ck_token_mecha_info
000157f4 g     F .text	00000014 handle_db_destroy
00008314 g     F .text	00000044 processing_is_tee_digest
0000c34c g     F .text	00000014 trace_ext_puts
000017b4 g     F .text	000000c4 entry_find_objects
0000c360 g     F .text	00000006 trace_ext_get_thread_id
0000cc20 g     F .text	00000016 TEE_CloseAndDeletePersistentObject
0000fc98 g     F .text	00000014 _utee_cryp_derive_key
00012494 g     F .text	00000044 mbedtls_mpi_free
00004cf0 g     F .text	00000200 pkcs2tee_load_attr
0000fc5c g     F .text	00000014 _utee_cryp_obj_reset
00008f2c g     F .text	000000e0 pkcs2tee_proc_params_rsa_oaep
000074c0 g     F .text	000000b8 entry_release_active_processing
0000060e g     F .text	00000006 TEE_CacheClean
0000fa50 g     F .text	00000014 _utee_get_property_name_to_index
000153e6 g     F .text	00000048 raw_calloc
00010416 g     F .text	000000ce _base64_enc
000157ec g     F .text	00000008 handle_db_init
0001277c g     F .text	00000094 mbedtls_mpi_safe_cond_swap
00005014 g     F .text	00000018 id2str_rc
0000fcc0 g     F .text	00000018 _utee_authenc_init
0000c914 g     F .text	0000009c TEE_CopyObjectAttributes1
0001591a g     F .text	00000010 strlen
00011820 g     F .text	000001dc TEE_BigIntComputeExtendedGcd
0000a05c g     F .text	000004f0 step_symm_operation
0000fdbc g     F .text	00000014 _utee_storage_alloc_enum
00006864 g     F .text	000000cc get_object_key_bit_size
000158da g     F .text	0000001a strchr
000004e4 g     F .text	00000016 TEE_GetSystemTime
0000fd4c g     F .text	00000018 _utee_asymm_verify
00000000 g     O .ta_head	00000020 ta_head
00000924 g     F .text	0000002e set_attribute
00014fcc g     F .text	00000208 brel
000055f8 g     F .text	0000002c pkcs11_init
00012e4e g     F .text	000000e2 mbedtls_mpi_sub_abs
0001408c g     F .text	00000034 mbedtls_mpi_fill_random
00005040 g     F .text	00000018 id2str_slot_flag
000004c0 g     F .text	0000000c TEE_SetInstanceData
0000faa8 g     F .text	00000014 _utee_get_cancellation_flag
00005bcc g     F .text	000001ac entry_ck_open_session
0000bfe8 g     F .text	00000018 __aeabi_ldivmod
00008d0c g     F .text	0000009c pkcs2tee_validate_rsa_pss
00013874 g     F .text	000001a8 mbedtls_mpi_write_string
00008c62 g     F .text	000000aa pkcs2tee_proc_params_rsa_pss
00003e92 g     F .text	00000068 check_created_attrs_against_token
0000cd2c g     F .text	000000a4 TEE_GetNextPersistentObject
0000b2f4 g     F .text	0000005c mechanism_supported_flags
00000086 g     F .text	00000014 TEE_CloseTASession
0000ea28 g     F .text	000000dc TEE_AsymmetricVerifyDigest
0000fd7c g     F .text	00000018 _utee_storage_obj_create
0000b0c6 g     F .text	00000062 serialargs_get_session_from_handle
00006828 g     F .text	0000003c release_active_processing
00015564 g     F .text	00000010 free
00005114 g     F .text	00000018 id2str_certificate_type
0000b174 g     F .text	0000002c mechanism_string_id
00007e08 g     F .text	0000050a step_asymm_operation
00005510 g     F .text	00000006 get_object_handle_db
000152f4 g     F .text	00000064 bstats
0000e1a4 g     F .text	000000b0 TEE_MACComputeFinal
00020f30 g     O .bss	00000004 mbedtls_mpi_mempool
0000fb9c g     F .text	00000018 _utee_hash_final



Disassembly of section .text:

00000020 <update_out_param>:
update_out_param():
/home/aom1/Work/Linux/target/STM32MP1-DK2/buildroot/buildroot/output/build/optee-os-custom/lib/libutee/tee_api.c:121
      20:	e92d 47f0 	stmdb	sp!, {r4, r5, r6, r7, r8, r9, sl, lr}
      24:	4607      	mov	r7, r0
/home/aom1/Work/Linux/target/STM32MP1-DK2/buildroot/buildroot/output/build/optee-os-custom/lib/libutee/tee_api.c:123
      26:	f8d2 a000 	ldr.w	sl, [r2]
/home/aom1/Work/Linux/target/STM32MP1-DK2/buildroot/buildroot/output/build/optee-os-custom/lib/libutee/tee_api.c:121
      2a:	4688      	mov	r8, r1
/home/aom1/Work/Linux/target/STM32MP1-DK2/buildroot/buildroot/output/build/optee-os-custom/lib/libutee/tee_api.c:125
      2c:	4614      	mov	r4, r2
      2e:	4606      	mov	r6, r0
/home/aom1/Work/Linux/target/STM32MP1-DK2/buildroot/buildroot/output/build/optee-os-custom/lib/libutee/tee_api.c:123
      30:	2500      	movs	r5, #0
/home/aom1/Work/Linux/target/STM32MP1-DK2/buildroot/buildroot/output/build/optee-os-custom/lib/libutee/tee_api.c:129
      32:	fa2a f205 	lsr.w	r2, sl, r5
/home/aom1/Work/Linux/target/STM32MP1-DK2/buildroot/buildroot/output/build/optee-os-custom/lib/libutee/tee_api.c:127
      36:	f8d4 9010 	ldr.w	r9, [r4, #16]
/home/aom1/Work/Linux/target/STM32MP1-DK2/buildroot/buildroot/output/build/optee-os-custom/lib/libutee/tee_api.c:129
      3a:	f012 0f0c 	tst.w	r2, #12
      3e:	f002 030f 	and.w	r3, r2, #15
      42:	d108      	bne.n	56 <update_out_param+0x36>
      44:	f012 0f0e 	tst.w	r2, #14
      48:	d008      	beq.n	5c <update_out_param+0x3c>
/home/aom1/Work/Linux/target/STM32MP1-DK2/buildroot/buildroot/output/build/optee-os-custom/lib/libutee/tee_api.c:126
      4a:	68a3      	ldr	r3, [r4, #8]
      4c:	f847 3015 	str.w	r3, [r7, r5, lsl #1]
/home/aom1/Work/Linux/target/STM32MP1-DK2/buildroot/buildroot/output/build/optee-os-custom/lib/libutee/tee_api.c:140
      50:	f8c6 9004 	str.w	r9, [r6, #4]
/home/aom1/Work/Linux/target/STM32MP1-DK2/buildroot/buildroot/output/build/optee-os-custom/lib/libutee/tee_api.c:141
      54:	e002      	b.n	5c <update_out_param+0x3c>
/home/aom1/Work/Linux/target/STM32MP1-DK2/buildroot/buildroot/output/build/optee-os-custom/lib/libutee/tee_api.c:129
      56:	3b06      	subs	r3, #6
      58:	2b01      	cmp	r3, #1
      5a:	d907      	bls.n	6c <update_out_param+0x4c>
/home/aom1/Work/Linux/target/STM32MP1-DK2/buildroot/buildroot/output/build/optee-os-custom/lib/libutee/tee_api.c:125 (discriminator 2)
      5c:	3504      	adds	r5, #4
      5e:	3410      	adds	r4, #16
      60:	2d10      	cmp	r5, #16
      62:	f106 0608 	add.w	r6, r6, #8
      66:	d1e4      	bne.n	32 <update_out_param+0x12>
/home/aom1/Work/Linux/target/STM32MP1-DK2/buildroot/buildroot/output/build/optee-os-custom/lib/libutee/tee_api.c:146
      68:	e8bd 87f0 	ldmia.w	sp!, {r4, r5, r6, r7, r8, r9, sl, pc}
/home/aom1/Work/Linux/target/STM32MP1-DK2/buildroot/buildroot/output/build/optee-os-custom/lib/libutee/tee_api.c:137
      6c:	f858 1005 	ldr.w	r1, [r8, r5]
      70:	2900      	cmp	r1, #0
      72:	d0ed      	beq.n	50 <update_out_param+0x30>
/home/aom1/Work/Linux/target/STM32MP1-DK2/buildroot/buildroot/output/build/optee-os-custom/lib/libutee/tee_api.c:139
      74:	6872      	ldr	r2, [r6, #4]
/home/aom1/Work/Linux/target/STM32MP1-DK2/buildroot/buildroot/output/build/optee-os-custom/lib/libutee/tee_api.c:138
      76:	f857 0015 	ldr.w	r0, [r7, r5, lsl #1]
      7a:	454a      	cmp	r2, r9
      7c:	bf28      	it	cs
      7e:	464a      	movcs	r2, r9
      80:	f00b fa3e 	bl	b500 <memcpy>
      84:	e7e4      	b.n	50 <update_out_param+0x30>

00000086 <TEE_CloseTASession>:
TEE_CloseTASession():
/home/aom1/Work/Linux/target/STM32MP1-DK2/buildroot/buildroot/output/build/optee-os-custom/lib/libutee/tee_api.c:195
      86:	b508      	push	{r3, lr}
/home/aom1/Work/Linux/target/STM32MP1-DK2/buildroot/buildroot/output/build/optee-os-custom/lib/libutee/tee_api.c:196
      88:	b130      	cbz	r0, 98 <TEE_CloseTASession+0x12>
/home/aom1/Work/Linux/target/STM32MP1-DK2/buildroot/buildroot/output/build/optee-os-custom/lib/libutee/tee_api.c:197
      8a:	f00f ecf8 	blx	fa7c <_utee_close_ta_session>
/home/aom1/Work/Linux/target/STM32MP1-DK2/buildroot/buildroot/output/build/optee-os-custom/lib/libutee/tee_api.c:199
      8e:	b118      	cbz	r0, 98 <TEE_CloseTASession+0x12>
/home/aom1/Work/Linux/target/STM32MP1-DK2/buildroot/buildroot/output/build/optee-os-custom/lib/libutee/tee_api.c:202
      90:	e8bd 4008 	ldmia.w	sp!, {r3, lr}
/home/aom1/Work/Linux/target/STM32MP1-DK2/buildroot/buildroot/output/build/optee-os-custom/lib/libutee/tee_api.c:200
      94:	f00e bf1c 	b.w	eed0 <TEE_Panic>
/home/aom1/Work/Linux/target/STM32MP1-DK2/buildroot/buildroot/output/build/optee-os-custom/lib/libutee/tee_api.c:202
      98:	bd08      	pop	{r3, pc}

0000009a <TEE_GetCancellationFlag>:
TEE_GetCancellationFlag():
/home/aom1/Work/Linux/target/STM32MP1-DK2/buildroot/buildroot/output/build/optee-os-custom/lib/libutee/tee_api.c:257
      9a:	b507      	push	{r0, r1, r2, lr}
/home/aom1/Work/Linux/target/STM32MP1-DK2/buildroot/buildroot/output/build/optee-os-custom/lib/libutee/tee_api.c:259
      9c:	4668      	mov	r0, sp
/home/aom1/Work/Linux/target/STM32MP1-DK2/buildroot/buildroot/output/build/optee-os-custom/lib/libutee/tee_api.c:257
      9e:	4a10      	ldr	r2, [pc, #64]	; (e0 <TEE_GetCancellationFlag+0x46>)
      a0:	4b10      	ldr	r3, [pc, #64]	; (e4 <TEE_GetCancellationFlag+0x4a>)
      a2:	447a      	add	r2, pc
      a4:	58d3      	ldr	r3, [r2, r3]
      a6:	681b      	ldr	r3, [r3, #0]
      a8:	9301      	str	r3, [sp, #4]
      aa:	f04f 0300 	mov.w	r3, #0
/home/aom1/Work/Linux/target/STM32MP1-DK2/buildroot/buildroot/output/build/optee-os-custom/lib/libutee/tee_api.c:259
      ae:	f00f ecfc 	blx	faa8 <_utee_get_cancellation_flag>
/home/aom1/Work/Linux/target/STM32MP1-DK2/buildroot/buildroot/output/build/optee-os-custom/lib/libutee/tee_api.c:261
      b2:	b108      	cbz	r0, b8 <TEE_GetCancellationFlag+0x1e>
/home/aom1/Work/Linux/target/STM32MP1-DK2/buildroot/buildroot/output/build/optee-os-custom/lib/libutee/tee_api.c:262
      b4:	2300      	movs	r3, #0
      b6:	9300      	str	r3, [sp, #0]
/home/aom1/Work/Linux/target/STM32MP1-DK2/buildroot/buildroot/output/build/optee-os-custom/lib/libutee/tee_api.c:257
      b8:	4a0b      	ldr	r2, [pc, #44]	; (e8 <TEE_GetCancellationFlag+0x4e>)
/home/aom1/Work/Linux/target/STM32MP1-DK2/buildroot/buildroot/output/build/optee-os-custom/lib/libutee/tee_api.c:264
      ba:	4b0a      	ldr	r3, [pc, #40]	; (e4 <TEE_GetCancellationFlag+0x4a>)
/home/aom1/Work/Linux/target/STM32MP1-DK2/buildroot/buildroot/output/build/optee-os-custom/lib/libutee/tee_api.c:257
      bc:	447a      	add	r2, pc
/home/aom1/Work/Linux/target/STM32MP1-DK2/buildroot/buildroot/output/build/optee-os-custom/lib/libutee/tee_api.c:263
      be:	9800      	ldr	r0, [sp, #0]
/home/aom1/Work/Linux/target/STM32MP1-DK2/buildroot/buildroot/output/build/optee-os-custom/lib/libutee/tee_api.c:264
      c0:	58d3      	ldr	r3, [r2, r3]
/home/aom1/Work/Linux/target/STM32MP1-DK2/buildroot/buildroot/output/build/optee-os-custom/lib/libutee/tee_api.c:263
      c2:	3800      	subs	r0, #0
      c4:	bf18      	it	ne
      c6:	2001      	movne	r0, #1
/home/aom1/Work/Linux/target/STM32MP1-DK2/buildroot/buildroot/output/build/optee-os-custom/lib/libutee/tee_api.c:264
      c8:	681a      	ldr	r2, [r3, #0]
      ca:	9b01      	ldr	r3, [sp, #4]
      cc:	405a      	eors	r2, r3
      ce:	f04f 0300 	mov.w	r3, #0
      d2:	d001      	beq.n	d8 <TEE_GetCancellationFlag+0x3e>
      d4:	f015 fbf8 	bl	158c8 <__stack_chk_fail>
      d8:	b003      	add	sp, #12
      da:	f85d fb04 	ldr.w	pc, [sp], #4
      de:	bf00      	nop
      e0:	0001bfe2 	.word	0x0001bfe2
      e4:	0000000c 	.word	0x0000000c
      e8:	0001bfc8 	.word	0x0001bfc8

000000ec <TEE_UnmaskCancellation>:
TEE_UnmaskCancellation():
/home/aom1/Work/Linux/target/STM32MP1-DK2/buildroot/buildroot/output/build/optee-os-custom/lib/libutee/tee_api.c:267
      ec:	b507      	push	{r0, r1, r2, lr}
/home/aom1/Work/Linux/target/STM32MP1-DK2/buildroot/buildroot/output/build/optee-os-custom/lib/libutee/tee_api.c:269
      ee:	4668      	mov	r0, sp
/home/aom1/Work/Linux/target/STM32MP1-DK2/buildroot/buildroot/output/build/optee-os-custom/lib/libutee/tee_api.c:267
      f0:	4a0f      	ldr	r2, [pc, #60]	; (130 <TEE_UnmaskCancellation+0x44>)
      f2:	4b10      	ldr	r3, [pc, #64]	; (134 <TEE_UnmaskCancellation+0x48>)
      f4:	447a      	add	r2, pc
      f6:	58d3      	ldr	r3, [r2, r3]
      f8:	681b      	ldr	r3, [r3, #0]
      fa:	9301      	str	r3, [sp, #4]
      fc:	f04f 0300 	mov.w	r3, #0
/home/aom1/Work/Linux/target/STM32MP1-DK2/buildroot/buildroot/output/build/optee-os-custom/lib/libutee/tee_api.c:269
     100:	f00f ece6 	blx	fad0 <_utee_unmask_cancellation>
/home/aom1/Work/Linux/target/STM32MP1-DK2/buildroot/buildroot/output/build/optee-os-custom/lib/libutee/tee_api.c:271
     104:	b108      	cbz	r0, 10a <TEE_UnmaskCancellation+0x1e>
/home/aom1/Work/Linux/target/STM32MP1-DK2/buildroot/buildroot/output/build/optee-os-custom/lib/libutee/tee_api.c:272
     106:	f00e fee3 	bl	eed0 <TEE_Panic>
/home/aom1/Work/Linux/target/STM32MP1-DK2/buildroot/buildroot/output/build/optee-os-custom/lib/libutee/tee_api.c:267
     10a:	4a0b      	ldr	r2, [pc, #44]	; (138 <TEE_UnmaskCancellation+0x4c>)
/home/aom1/Work/Linux/target/STM32MP1-DK2/buildroot/buildroot/output/build/optee-os-custom/lib/libutee/tee_api.c:274
     10c:	4b09      	ldr	r3, [pc, #36]	; (134 <TEE_UnmaskCancellation+0x48>)
/home/aom1/Work/Linux/target/STM32MP1-DK2/buildroot/buildroot/output/build/optee-os-custom/lib/libutee/tee_api.c:267
     10e:	447a      	add	r2, pc
/home/aom1/Work/Linux/target/STM32MP1-DK2/buildroot/buildroot/output/build/optee-os-custom/lib/libutee/tee_api.c:273
     110:	9800      	ldr	r0, [sp, #0]
/home/aom1/Work/Linux/target/STM32MP1-DK2/buildroot/buildroot/output/build/optee-os-custom/lib/libutee/tee_api.c:274
     112:	58d3      	ldr	r3, [r2, r3]
/home/aom1/Work/Linux/target/STM32MP1-DK2/buildroot/buildroot/output/build/optee-os-custom/lib/libutee/tee_api.c:273
     114:	3800      	subs	r0, #0
     116:	bf18      	it	ne
     118:	2001      	movne	r0, #1
/home/aom1/Work/Linux/target/STM32MP1-DK2/buildroot/buildroot/output/build/optee-os-custom/lib/libutee/tee_api.c:274
     11a:	681a      	ldr	r2, [r3, #0]
     11c:	9b01      	ldr	r3, [sp, #4]
     11e:	405a      	eors	r2, r3
     120:	f04f 0300 	mov.w	r3, #0
     124:	d001      	beq.n	12a <TEE_UnmaskCancellation+0x3e>
     126:	f015 fbcf 	bl	158c8 <__stack_chk_fail>
     12a:	b003      	add	sp, #12
     12c:	f85d fb04 	ldr.w	pc, [sp], #4
     130:	0001bf90 	.word	0x0001bf90
     134:	0000000c 	.word	0x0000000c
     138:	0001bf76 	.word	0x0001bf76

0000013c <TEE_MaskCancellation>:
TEE_MaskCancellation():
/home/aom1/Work/Linux/target/STM32MP1-DK2/buildroot/buildroot/output/build/optee-os-custom/lib/libutee/tee_api.c:277
     13c:	b507      	push	{r0, r1, r2, lr}
/home/aom1/Work/Linux/target/STM32MP1-DK2/buildroot/buildroot/output/build/optee-os-custom/lib/libutee/tee_api.c:279
     13e:	4668      	mov	r0, sp
/home/aom1/Work/Linux/target/STM32MP1-DK2/buildroot/buildroot/output/build/optee-os-custom/lib/libutee/tee_api.c:277
     140:	4a0f      	ldr	r2, [pc, #60]	; (180 <TEE_MaskCancellation+0x44>)
     142:	4b10      	ldr	r3, [pc, #64]	; (184 <TEE_MaskCancellation+0x48>)
     144:	447a      	add	r2, pc
     146:	58d3      	ldr	r3, [r2, r3]
     148:	681b      	ldr	r3, [r3, #0]
     14a:	9301      	str	r3, [sp, #4]
     14c:	f04f 0300 	mov.w	r3, #0
/home/aom1/Work/Linux/target/STM32MP1-DK2/buildroot/buildroot/output/build/optee-os-custom/lib/libutee/tee_api.c:279
     150:	f00f ecc8 	blx	fae4 <_utee_mask_cancellation>
/home/aom1/Work/Linux/target/STM32MP1-DK2/buildroot/buildroot/output/build/optee-os-custom/lib/libutee/tee_api.c:281
     154:	b108      	cbz	r0, 15a <TEE_MaskCancellation+0x1e>
/home/aom1/Work/Linux/target/STM32MP1-DK2/buildroot/buildroot/output/build/optee-os-custom/lib/libutee/tee_api.c:282
     156:	f00e febb 	bl	eed0 <TEE_Panic>
/home/aom1/Work/Linux/target/STM32MP1-DK2/buildroot/buildroot/output/build/optee-os-custom/lib/libutee/tee_api.c:277
     15a:	4a0b      	ldr	r2, [pc, #44]	; (188 <TEE_MaskCancellation+0x4c>)
/home/aom1/Work/Linux/target/STM32MP1-DK2/buildroot/buildroot/output/build/optee-os-custom/lib/libutee/tee_api.c:284
     15c:	4b09      	ldr	r3, [pc, #36]	; (184 <TEE_MaskCancellation+0x48>)
/home/aom1/Work/Linux/target/STM32MP1-DK2/buildroot/buildroot/output/build/optee-os-custom/lib/libutee/tee_api.c:277
     15e:	447a      	add	r2, pc
/home/aom1/Work/Linux/target/STM32MP1-DK2/buildroot/buildroot/output/build/optee-os-custom/lib/libutee/tee_api.c:283
     160:	9800      	ldr	r0, [sp, #0]
/home/aom1/Work/Linux/target/STM32MP1-DK2/buildroot/buildroot/output/build/optee-os-custom/lib/libutee/tee_api.c:284
     162:	58d3      	ldr	r3, [r2, r3]
/home/aom1/Work/Linux/target/STM32MP1-DK2/buildroot/buildroot/output/build/optee-os-custom/lib/libutee/tee_api.c:283
     164:	3800      	subs	r0, #0
     166:	bf18      	it	ne
     168:	2001      	movne	r0, #1
/home/aom1/Work/Linux/target/STM32MP1-DK2/buildroot/buildroot/output/build/optee-os-custom/lib/libutee/tee_api.c:284
     16a:	681a      	ldr	r2, [r3, #0]
     16c:	9b01      	ldr	r3, [sp, #4]
     16e:	405a      	eors	r2, r3
     170:	f04f 0300 	mov.w	r3, #0
     174:	d001      	beq.n	17a <TEE_MaskCancellation+0x3e>
     176:	f015 fba7 	bl	158c8 <__stack_chk_fail>
     17a:	b003      	add	sp, #12
     17c:	f85d fb04 	ldr.w	pc, [sp], #4
     180:	0001bf40 	.word	0x0001bf40
     184:	0000000c 	.word	0x0000000c
     188:	0001bf26 	.word	0x0001bf26

0000018c <TEE_CheckMemoryAccessRights>:
TEE_CheckMemoryAccessRights():
/home/aom1/Work/Linux/target/STM32MP1-DK2/buildroot/buildroot/output/build/optee-os-custom/lib/libutee/tee_api.c:293
     18c:	b10a      	cbz	r2, 192 <TEE_CheckMemoryAccessRights+0x6>
/home/aom1/Work/Linux/target/STM32MP1-DK2/buildroot/buildroot/output/build/optee-os-custom/lib/libutee/tee_api.c:297
     18e:	f015 bc77 	b.w	15a80 <___utee_check_access_rights_from_thumb>
/home/aom1/Work/Linux/target/STM32MP1-DK2/buildroot/buildroot/output/build/optee-os-custom/lib/libutee/tee_api.c:309
     192:	4610      	mov	r0, r2
     194:	4770      	bx	lr

00000196 <copy_param>:
copy_param():
/home/aom1/Work/Linux/target/STM32MP1-DK2/buildroot/buildroot/output/build/optee-os-custom/lib/libutee/tee_api.c:29
     196:	e92d 4ff0 	stmdb	sp!, {r4, r5, r6, r7, r8, r9, sl, fp, lr}
     19a:	4617      	mov	r7, r2
     19c:	ed2d 8b02 	vpush	{d8}
     1a0:	4a5a      	ldr	r2, [pc, #360]	; (30c <copy_param+0x176>)
     1a2:	b087      	sub	sp, #28
     1a4:	4698      	mov	r8, r3
/home/aom1/Work/Linux/target/STM32MP1-DK2/buildroot/buildroot/output/build/optee-os-custom/lib/libutee/tee_api.c:34
     1a6:	2500      	movs	r5, #0
/home/aom1/Work/Linux/target/STM32MP1-DK2/buildroot/buildroot/output/build/optee-os-custom/lib/libutee/tee_api.c:29
     1a8:	e9dd 9312 	ldrd	r9, r3, [sp, #72]	; 0x48
     1ac:	447a      	add	r2, pc
     1ae:	4604      	mov	r4, r0
     1b0:	9302      	str	r3, [sp, #8]
/home/aom1/Work/Linux/target/STM32MP1-DK2/buildroot/buildroot/output/build/optee-os-custom/lib/libutee/tee_api.c:47
     1b2:	462e      	mov	r6, r5
/home/aom1/Work/Linux/target/STM32MP1-DK2/buildroot/buildroot/output/build/optee-os-custom/lib/libutee/tee_api.c:29
     1b4:	4b56      	ldr	r3, [pc, #344]	; (310 <copy_param+0x17a>)
/home/aom1/Work/Linux/target/STM32MP1-DK2/buildroot/buildroot/output/build/optee-os-custom/lib/libutee/tee_api.c:54
     1b6:	f107 0b04 	add.w	fp, r7, #4
/home/aom1/Work/Linux/target/STM32MP1-DK2/buildroot/buildroot/output/build/optee-os-custom/lib/libutee/tee_api.c:29
     1ba:	9101      	str	r1, [sp, #4]
/home/aom1/Work/Linux/target/STM32MP1-DK2/buildroot/buildroot/output/build/optee-os-custom/lib/libutee/tee_api.c:65
     1bc:	f04f 0a01 	mov.w	sl, #1
/home/aom1/Work/Linux/target/STM32MP1-DK2/buildroot/buildroot/output/build/optee-os-custom/lib/libutee/tee_api.c:29
     1c0:	58d3      	ldr	r3, [r2, r3]
     1c2:	681b      	ldr	r3, [r3, #0]
     1c4:	9305      	str	r3, [sp, #20]
     1c6:	f04f 0300 	mov.w	r3, #0
/home/aom1/Work/Linux/target/STM32MP1-DK2/buildroot/buildroot/output/build/optee-os-custom/lib/libutee/tee_api.c:48
     1ca:	462b      	mov	r3, r5
/home/aom1/Work/Linux/target/STM32MP1-DK2/buildroot/buildroot/output/build/optee-os-custom/lib/libutee/tee_api.c:45
     1cc:	f8c8 5000 	str.w	r5, [r8]
/home/aom1/Work/Linux/target/STM32MP1-DK2/buildroot/buildroot/output/build/optee-os-custom/lib/libutee/tee_api.c:34
     1d0:	9504      	str	r5, [sp, #16]
/home/aom1/Work/Linux/target/STM32MP1-DK2/buildroot/buildroot/output/build/optee-os-custom/lib/libutee/tee_api.c:46
     1d2:	f8c9 5000 	str.w	r5, [r9]
/home/aom1/Work/Linux/target/STM32MP1-DK2/buildroot/buildroot/output/build/optee-os-custom/lib/libutee/tee_api.c:48
     1d6:	9a02      	ldr	r2, [sp, #8]
/home/aom1/Work/Linux/target/STM32MP1-DK2/buildroot/buildroot/output/build/optee-os-custom/lib/libutee/tee_api.c:49
     1d8:	9901      	ldr	r1, [sp, #4]
/home/aom1/Work/Linux/target/STM32MP1-DK2/buildroot/buildroot/output/build/optee-os-custom/lib/libutee/tee_api.c:48
     1da:	f842 3026 	str.w	r3, [r2, r6, lsl #2]
/home/aom1/Work/Linux/target/STM32MP1-DK2/buildroot/buildroot/output/build/optee-os-custom/lib/libutee/tee_api.c:49
     1de:	00b2      	lsls	r2, r6, #2
     1e0:	fa21 f202 	lsr.w	r2, r1, r2
     1e4:	f002 020f 	and.w	r2, r2, #15
     1e8:	3a05      	subs	r2, #5
     1ea:	2a02      	cmp	r2, #2
     1ec:	d813      	bhi.n	216 <copy_param+0x80>
/home/aom1/Work/Linux/target/STM32MP1-DK2/buildroot/buildroot/output/build/optee-os-custom/lib/libutee/tee_api.c:53
     1ee:	f857 1036 	ldr.w	r1, [r7, r6, lsl #3]
/home/aom1/Work/Linux/target/STM32MP1-DK2/buildroot/buildroot/output/build/optee-os-custom/lib/libutee/tee_api.c:64
     1f2:	b181      	cbz	r1, 216 <copy_param+0x80>
/home/aom1/Work/Linux/target/STM32MP1-DK2/buildroot/buildroot/output/build/optee-os-custom/lib/libutee/tee_api.c:54 (discriminator 1)
     1f4:	f85b 2036 	ldr.w	r2, [fp, r6, lsl #3]
/home/aom1/Work/Linux/target/STM32MP1-DK2/buildroot/buildroot/output/build/optee-os-custom/lib/libutee/tee_api.c:64 (discriminator 1)
     1f8:	b16a      	cbz	r2, 216 <copy_param+0x80>
/home/aom1/Work/Linux/target/STM32MP1-DK2/buildroot/buildroot/output/build/optee-os-custom/lib/libutee/tee_api.c:65 (discriminator 2)
     1fa:	9203      	str	r2, [sp, #12]
     1fc:	2001      	movs	r0, #1
     1fe:	f7ff ffc5 	bl	18c <TEE_CheckMemoryAccessRights>
/home/aom1/Work/Linux/target/STM32MP1-DK2/buildroot/buildroot/output/build/optee-os-custom/lib/libutee/tee_api.c:64 (discriminator 2)
     202:	2300      	movs	r3, #0
     204:	b938      	cbnz	r0, 216 <copy_param+0x80>
/home/aom1/Work/Linux/target/STM32MP1-DK2/buildroot/buildroot/output/build/optee-os-custom/lib/libutee/tee_api.c:67
     206:	9a03      	ldr	r2, [sp, #12]
/home/aom1/Work/Linux/target/STM32MP1-DK2/buildroot/buildroot/output/build/optee-os-custom/lib/libutee/tee_api.c:66
     208:	a904      	add	r1, sp, #16
     20a:	f806 a001 	strb.w	sl, [r6, r1]
/home/aom1/Work/Linux/target/STM32MP1-DK2/buildroot/buildroot/output/build/optee-os-custom/lib/libutee/tee_api.c:67
     20e:	3207      	adds	r2, #7
     210:	f022 0207 	bic.w	r2, r2, #7
     214:	4415      	add	r5, r2
/home/aom1/Work/Linux/target/STM32MP1-DK2/buildroot/buildroot/output/build/optee-os-custom/lib/libutee/tee_api.c:47 (discriminator 2)
     216:	3601      	adds	r6, #1
     218:	2e04      	cmp	r6, #4
     21a:	d1dc      	bne.n	1d6 <copy_param+0x40>
/home/aom1/Work/Linux/target/STM32MP1-DK2/buildroot/buildroot/output/build/optee-os-custom/lib/libutee/tee_api.c:75
     21c:	b335      	cbz	r5, 26c <copy_param+0xd6>
/home/aom1/Work/Linux/target/STM32MP1-DK2/buildroot/buildroot/output/build/optee-os-custom/lib/libutee/tee_api.c:76
     21e:	4631      	mov	r1, r6
     220:	4628      	mov	r0, r5
     222:	f00f fb0b 	bl	f83c <tee_map_zi>
/home/aom1/Work/Linux/target/STM32MP1-DK2/buildroot/buildroot/output/build/optee-os-custom/lib/libutee/tee_api.c:77
     226:	4603      	mov	r3, r0
     228:	2800      	cmp	r0, #0
     22a:	d060      	beq.n	2ee <copy_param+0x158>
/home/aom1/Work/Linux/target/STM32MP1-DK2/buildroot/buildroot/output/build/optee-os-custom/lib/libutee/tee_api.c:79
     22c:	f8c8 0000 	str.w	r0, [r8]
/home/aom1/Work/Linux/target/STM32MP1-DK2/buildroot/buildroot/output/build/optee-os-custom/lib/libutee/tee_api.c:80
     230:	f8c9 5000 	str.w	r5, [r9]
/home/aom1/Work/Linux/target/STM32MP1-DK2/buildroot/buildroot/output/build/optee-os-custom/lib/libutee/tee_api.c:109
     234:	ed9f 8b32 	vldr	d8, [pc, #200]	; 300 <copy_param+0x16a>
/home/aom1/Work/Linux/target/STM32MP1-DK2/buildroot/buildroot/output/build/optee-os-custom/lib/libutee/tee_api.c:83
     238:	9a01      	ldr	r2, [sp, #4]
     23a:	2500      	movs	r5, #0
     23c:	46b8      	mov	r8, r7
/home/aom1/Work/Linux/target/STM32MP1-DK2/buildroot/buildroot/output/build/optee-os-custom/lib/libutee/tee_api.c:88
     23e:	46a9      	mov	r9, r5
/home/aom1/Work/Linux/target/STM32MP1-DK2/buildroot/buildroot/output/build/optee-os-custom/lib/libutee/tee_api.c:95
     240:	f10d 0a10 	add.w	sl, sp, #16
/home/aom1/Work/Linux/target/STM32MP1-DK2/buildroot/buildroot/output/build/optee-os-custom/lib/libutee/tee_api.c:83
     244:	e9c4 2500 	strd	r2, r5, [r4]
/home/aom1/Work/Linux/target/STM32MP1-DK2/buildroot/buildroot/output/build/optee-os-custom/lib/libutee/tee_api.c:85
     248:	9a01      	ldr	r2, [sp, #4]
     24a:	00a9      	lsls	r1, r5, #2
     24c:	fa22 f101 	lsr.w	r1, r2, r1
     250:	f001 020f 	and.w	r2, r1, #15
     254:	2a03      	cmp	r2, #3
     256:	d02a      	beq.n	2ae <copy_param+0x118>
     258:	f011 0f0c 	tst.w	r1, #12
     25c:	d108      	bne.n	270 <copy_param+0xda>
     25e:	2a01      	cmp	r2, #1
     260:	d025      	beq.n	2ae <copy_param+0x118>
/home/aom1/Work/Linux/target/STM32MP1-DK2/buildroot/buildroot/output/build/optee-os-custom/lib/libutee/tee_api.c:109
     262:	ed84 8b02 	vstr	d8, [r4, #8]
/home/aom1/Work/Linux/target/STM32MP1-DK2/buildroot/buildroot/output/build/optee-os-custom/lib/libutee/tee_api.c:110
     266:	ed84 8b04 	vstr	d8, [r4, #16]
/home/aom1/Work/Linux/target/STM32MP1-DK2/buildroot/buildroot/output/build/optee-os-custom/lib/libutee/tee_api.c:111
     26a:	e028      	b.n	2be <copy_param+0x128>
/home/aom1/Work/Linux/target/STM32MP1-DK2/buildroot/buildroot/output/build/optee-os-custom/lib/libutee/tee_api.c:31
     26c:	462b      	mov	r3, r5
     26e:	e7e1      	b.n	234 <copy_param+0x9e>
/home/aom1/Work/Linux/target/STM32MP1-DK2/buildroot/buildroot/output/build/optee-os-custom/lib/libutee/tee_api.c:85
     270:	1f51      	subs	r1, r2, #5
     272:	2902      	cmp	r1, #2
     274:	d8f5      	bhi.n	262 <copy_param+0xcc>
/home/aom1/Work/Linux/target/STM32MP1-DK2/buildroot/buildroot/output/build/optee-os-custom/lib/libutee/tee_api.c:95
     276:	f815 100a 	ldrb.w	r1, [r5, sl]
/home/aom1/Work/Linux/target/STM32MP1-DK2/buildroot/buildroot/output/build/optee-os-custom/lib/libutee/tee_api.c:94
     27a:	f8d8 b004 	ldr.w	fp, [r8, #4]
/home/aom1/Work/Linux/target/STM32MP1-DK2/buildroot/buildroot/output/build/optee-os-custom/lib/libutee/tee_api.c:95
     27e:	b391      	cbz	r1, 2e6 <copy_param+0x150>
/home/aom1/Work/Linux/target/STM32MP1-DK2/buildroot/buildroot/output/build/optee-os-custom/lib/libutee/tee_api.c:97
     280:	9902      	ldr	r1, [sp, #8]
/home/aom1/Work/Linux/target/STM32MP1-DK2/buildroot/buildroot/output/build/optee-os-custom/lib/libutee/tee_api.c:98
     282:	f10b 0607 	add.w	r6, fp, #7
     286:	f026 0607 	bic.w	r6, r6, #7
/home/aom1/Work/Linux/target/STM32MP1-DK2/buildroot/buildroot/output/build/optee-os-custom/lib/libutee/tee_api.c:99
     28a:	2a06      	cmp	r2, #6
/home/aom1/Work/Linux/target/STM32MP1-DK2/buildroot/buildroot/output/build/optee-os-custom/lib/libutee/tee_api.c:98
     28c:	441e      	add	r6, r3
/home/aom1/Work/Linux/target/STM32MP1-DK2/buildroot/buildroot/output/build/optee-os-custom/lib/libutee/tee_api.c:97
     28e:	f841 3025 	str.w	r3, [r1, r5, lsl #2]
/home/aom1/Work/Linux/target/STM32MP1-DK2/buildroot/buildroot/output/build/optee-os-custom/lib/libutee/tee_api.c:99
     292:	d006      	beq.n	2a2 <copy_param+0x10c>
/home/aom1/Work/Linux/target/STM32MP1-DK2/buildroot/buildroot/output/build/optee-os-custom/lib/libutee/tee_api.c:101
     294:	f857 1035 	ldr.w	r1, [r7, r5, lsl #3]
     298:	4618      	mov	r0, r3
     29a:	465a      	mov	r2, fp
     29c:	f00b f930 	bl	b500 <memcpy>
     2a0:	4603      	mov	r3, r0
/home/aom1/Work/Linux/target/STM32MP1-DK2/buildroot/buildroot/output/build/optee-os-custom/lib/libutee/tee_api.c:105
     2a2:	e9c4 3902 	strd	r3, r9, [r4, #8]
/home/aom1/Work/Linux/target/STM32MP1-DK2/buildroot/buildroot/output/build/optee-os-custom/lib/libutee/tee_api.c:106
     2a6:	e9c4 b904 	strd	fp, r9, [r4, #16]
/home/aom1/Work/Linux/target/STM32MP1-DK2/buildroot/buildroot/output/build/optee-os-custom/lib/libutee/tee_api.c:107
     2aa:	4633      	mov	r3, r6
     2ac:	e007      	b.n	2be <copy_param+0x128>
/home/aom1/Work/Linux/target/STM32MP1-DK2/buildroot/buildroot/output/build/optee-os-custom/lib/libutee/tee_api.c:88
     2ae:	f857 2035 	ldr.w	r2, [r7, r5, lsl #3]
     2b2:	e9c4 2902 	strd	r2, r9, [r4, #8]
/home/aom1/Work/Linux/target/STM32MP1-DK2/buildroot/buildroot/output/build/optee-os-custom/lib/libutee/tee_api.c:89
     2b6:	f8d8 2004 	ldr.w	r2, [r8, #4]
     2ba:	e9c4 2904 	strd	r2, r9, [r4, #16]
/home/aom1/Work/Linux/target/STM32MP1-DK2/buildroot/buildroot/output/build/optee-os-custom/lib/libutee/tee_api.c:84 (discriminator 2)
     2be:	3501      	adds	r5, #1
     2c0:	f108 0808 	add.w	r8, r8, #8
     2c4:	2d04      	cmp	r5, #4
     2c6:	f104 0410 	add.w	r4, r4, #16
     2ca:	d1bd      	bne.n	248 <copy_param+0xb2>
/home/aom1/Work/Linux/target/STM32MP1-DK2/buildroot/buildroot/output/build/optee-os-custom/lib/libutee/tee_api.c:115
     2cc:	2000      	movs	r0, #0
/home/aom1/Work/Linux/target/STM32MP1-DK2/buildroot/buildroot/output/build/optee-os-custom/lib/libutee/tee_api.c:29
     2ce:	4a11      	ldr	r2, [pc, #68]	; (314 <copy_param+0x17e>)
/home/aom1/Work/Linux/target/STM32MP1-DK2/buildroot/buildroot/output/build/optee-os-custom/lib/libutee/tee_api.c:116
     2d0:	4b0f      	ldr	r3, [pc, #60]	; (310 <copy_param+0x17a>)
/home/aom1/Work/Linux/target/STM32MP1-DK2/buildroot/buildroot/output/build/optee-os-custom/lib/libutee/tee_api.c:29
     2d2:	447a      	add	r2, pc
/home/aom1/Work/Linux/target/STM32MP1-DK2/buildroot/buildroot/output/build/optee-os-custom/lib/libutee/tee_api.c:116
     2d4:	58d3      	ldr	r3, [r2, r3]
     2d6:	681a      	ldr	r2, [r3, #0]
     2d8:	9b05      	ldr	r3, [sp, #20]
     2da:	405a      	eors	r2, r3
     2dc:	f04f 0300 	mov.w	r3, #0
     2e0:	d007      	beq.n	2f2 <copy_param+0x15c>
     2e2:	f015 faf1 	bl	158c8 <__stack_chk_fail>
/home/aom1/Work/Linux/target/STM32MP1-DK2/buildroot/buildroot/output/build/optee-os-custom/lib/libutee/tee_api.c:103
     2e6:	461e      	mov	r6, r3
     2e8:	f857 3035 	ldr.w	r3, [r7, r5, lsl #3]
     2ec:	e7d9      	b.n	2a2 <copy_param+0x10c>
/home/aom1/Work/Linux/target/STM32MP1-DK2/buildroot/buildroot/output/build/optee-os-custom/lib/libutee/tee_api.c:78
     2ee:	4806      	ldr	r0, [pc, #24]	; (308 <copy_param+0x172>)
     2f0:	e7ed      	b.n	2ce <copy_param+0x138>
/home/aom1/Work/Linux/target/STM32MP1-DK2/buildroot/buildroot/output/build/optee-os-custom/lib/libutee/tee_api.c:116
     2f2:	b007      	add	sp, #28
     2f4:	ecbd 8b02 	vpop	{d8}
     2f8:	e8bd 8ff0 	ldmia.w	sp!, {r4, r5, r6, r7, r8, r9, sl, fp, pc}
     2fc:	f3af 8000 	nop.w
	...
     308:	ffff000c 	.word	0xffff000c
     30c:	0001bed8 	.word	0x0001bed8
     310:	0000000c 	.word	0x0000000c
     314:	0001bdb2 	.word	0x0001bdb2

00000318 <TEE_OpenTASession>:
TEE_OpenTASession():
/home/aom1/Work/Linux/target/STM32MP1-DK2/buildroot/buildroot/output/build/optee-os-custom/lib/libutee/tee_api.c:154
     318:	e92d 4ff0 	stmdb	sp!, {r4, r5, r6, r7, r8, r9, sl, fp, lr}
     31c:	4614      	mov	r4, r2
     31e:	4a2c      	ldr	r2, [pc, #176]	; (3d0 <TEE_OpenTASession+0xb8>)
     320:	461d      	mov	r5, r3
     322:	4b2c      	ldr	r3, [pc, #176]	; (3d4 <TEE_OpenTASession+0xbc>)
     324:	b09f      	sub	sp, #124	; 0x7c
     326:	447a      	add	r2, pc
/home/aom1/Work/Linux/target/STM32MP1-DK2/buildroot/buildroot/output/build/optee-os-custom/lib/libutee/tee_api.c:160
     328:	ae06      	add	r6, sp, #24
/home/aom1/Work/Linux/target/STM32MP1-DK2/buildroot/buildroot/output/build/optee-os-custom/lib/libutee/tee_api.c:154
     32a:	4680      	mov	r8, r0
     32c:	4689      	mov	r9, r1
     32e:	58d3      	ldr	r3, [r2, r3]
/home/aom1/Work/Linux/target/STM32MP1-DK2/buildroot/buildroot/output/build/optee-os-custom/lib/libutee/tee_api.c:157
     330:	2100      	movs	r1, #0
/home/aom1/Work/Linux/target/STM32MP1-DK2/buildroot/buildroot/output/build/optee-os-custom/lib/libutee/tee_api.c:160
     332:	4630      	mov	r0, r6
     334:	2210      	movs	r2, #16
/home/aom1/Work/Linux/target/STM32MP1-DK2/buildroot/buildroot/output/build/optee-os-custom/lib/libutee/tee_api.c:154
     336:	681b      	ldr	r3, [r3, #0]
     338:	931d      	str	r3, [sp, #116]	; 0x74
     33a:	f04f 0300 	mov.w	r3, #0
     33e:	e9dd ab28 	ldrd	sl, fp, [sp, #160]	; 0xa0
/home/aom1/Work/Linux/target/STM32MP1-DK2/buildroot/buildroot/output/build/optee-os-custom/lib/libutee/tee_api.c:157
     342:	9103      	str	r1, [sp, #12]
/home/aom1/Work/Linux/target/STM32MP1-DK2/buildroot/buildroot/output/build/optee-os-custom/lib/libutee/tee_api.c:159
     344:	e9cd 1104 	strd	r1, r1, [sp, #16]
/home/aom1/Work/Linux/target/STM32MP1-DK2/buildroot/buildroot/output/build/optee-os-custom/lib/libutee/tee_api.c:160
     348:	f015 fabf 	bl	158ca <memset>
/home/aom1/Work/Linux/target/STM32MP1-DK2/buildroot/buildroot/output/build/optee-os-custom/lib/libutee/tee_api.c:162
     34c:	b11c      	cbz	r4, 356 <TEE_OpenTASession+0x3e>
/home/aom1/Work/Linux/target/STM32MP1-DK2/buildroot/buildroot/output/build/optee-os-custom/lib/libutee/tee_api.c:163
     34e:	2120      	movs	r1, #32
     350:	4628      	mov	r0, r5
     352:	f00e fe12 	bl	ef7a <__utee_check_inout_annotation>
/home/aom1/Work/Linux/target/STM32MP1-DK2/buildroot/buildroot/output/build/optee-os-custom/lib/libutee/tee_api.c:166
     356:	2104      	movs	r1, #4
     358:	4650      	mov	r0, sl
/home/aom1/Work/Linux/target/STM32MP1-DK2/buildroot/buildroot/output/build/optee-os-custom/lib/libutee/tee_api.c:168
     35a:	af0a      	add	r7, sp, #40	; 0x28
/home/aom1/Work/Linux/target/STM32MP1-DK2/buildroot/buildroot/output/build/optee-os-custom/lib/libutee/tee_api.c:166
     35c:	f00e fdfa 	bl	ef54 <__utee_check_out_annotation>
/home/aom1/Work/Linux/target/STM32MP1-DK2/buildroot/buildroot/output/build/optee-os-custom/lib/libutee/tee_api.c:168
     360:	9601      	str	r6, [sp, #4]
     362:	ab05      	add	r3, sp, #20
     364:	9300      	str	r3, [sp, #0]
     366:	4621      	mov	r1, r4
     368:	ab04      	add	r3, sp, #16
     36a:	462a      	mov	r2, r5
     36c:	4638      	mov	r0, r7
     36e:	f7ff ff12 	bl	196 <copy_param>
/home/aom1/Work/Linux/target/STM32MP1-DK2/buildroot/buildroot/output/build/optee-os-custom/lib/libutee/tee_api.c:169
     372:	4604      	mov	r4, r0
     374:	b9b0      	cbnz	r0, 3a4 <TEE_OpenTASession+0x8c>
/home/aom1/Work/Linux/target/STM32MP1-DK2/buildroot/buildroot/output/build/optee-os-custom/lib/libutee/tee_api.c:171
     376:	f8cd b000 	str.w	fp, [sp]
     37a:	ab03      	add	r3, sp, #12
     37c:	463a      	mov	r2, r7
     37e:	4649      	mov	r1, r9
     380:	4640      	mov	r0, r8
     382:	f00f eb70 	blx	fa64 <_utee_open_ta_session>
     386:	4604      	mov	r4, r0
/home/aom1/Work/Linux/target/STM32MP1-DK2/buildroot/buildroot/output/build/optee-os-custom/lib/libutee/tee_api.c:173
     388:	463a      	mov	r2, r7
     38a:	4628      	mov	r0, r5
     38c:	4631      	mov	r1, r6
     38e:	f7ff fe47 	bl	20 <update_out_param>
/home/aom1/Work/Linux/target/STM32MP1-DK2/buildroot/buildroot/output/build/optee-os-custom/lib/libutee/tee_api.c:174
     392:	9804      	ldr	r0, [sp, #16]
     394:	b128      	cbz	r0, 3a2 <TEE_OpenTASession+0x8a>
/home/aom1/Work/Linux/target/STM32MP1-DK2/buildroot/buildroot/output/build/optee-os-custom/lib/libutee/tee_api.c:175
     396:	9905      	ldr	r1, [sp, #20]
     398:	f00f fa86 	bl	f8a8 <tee_unmap>
/home/aom1/Work/Linux/target/STM32MP1-DK2/buildroot/buildroot/output/build/optee-os-custom/lib/libutee/tee_api.c:177
     39c:	b108      	cbz	r0, 3a2 <TEE_OpenTASession+0x8a>
/home/aom1/Work/Linux/target/STM32MP1-DK2/buildroot/buildroot/output/build/optee-os-custom/lib/libutee/tee_api.c:178
     39e:	f00e fd97 	bl	eed0 <TEE_Panic>
/home/aom1/Work/Linux/target/STM32MP1-DK2/buildroot/buildroot/output/build/optee-os-custom/lib/libutee/tee_api.c:187
     3a2:	b10c      	cbz	r4, 3a8 <TEE_OpenTASession+0x90>
/home/aom1/Work/Linux/target/STM32MP1-DK2/buildroot/buildroot/output/build/optee-os-custom/lib/libutee/tee_api.c:188
     3a4:	2300      	movs	r3, #0
     3a6:	9303      	str	r3, [sp, #12]
/home/aom1/Work/Linux/target/STM32MP1-DK2/buildroot/buildroot/output/build/optee-os-custom/lib/libutee/tee_api.c:190
     3a8:	9b03      	ldr	r3, [sp, #12]
/home/aom1/Work/Linux/target/STM32MP1-DK2/buildroot/buildroot/output/build/optee-os-custom/lib/libutee/tee_api.c:154
     3aa:	4a0b      	ldr	r2, [pc, #44]	; (3d8 <TEE_OpenTASession+0xc0>)
/home/aom1/Work/Linux/target/STM32MP1-DK2/buildroot/buildroot/output/build/optee-os-custom/lib/libutee/tee_api.c:190
     3ac:	f8ca 3000 	str.w	r3, [sl]
/home/aom1/Work/Linux/target/STM32MP1-DK2/buildroot/buildroot/output/build/optee-os-custom/lib/libutee/tee_api.c:154
     3b0:	447a      	add	r2, pc
/home/aom1/Work/Linux/target/STM32MP1-DK2/buildroot/buildroot/output/build/optee-os-custom/lib/libutee/tee_api.c:192
     3b2:	4b08      	ldr	r3, [pc, #32]	; (3d4 <TEE_OpenTASession+0xbc>)
     3b4:	58d3      	ldr	r3, [r2, r3]
     3b6:	681a      	ldr	r2, [r3, #0]
     3b8:	9b1d      	ldr	r3, [sp, #116]	; 0x74
     3ba:	405a      	eors	r2, r3
     3bc:	f04f 0300 	mov.w	r3, #0
     3c0:	d001      	beq.n	3c6 <TEE_OpenTASession+0xae>
     3c2:	f015 fa81 	bl	158c8 <__stack_chk_fail>
     3c6:	4620      	mov	r0, r4
     3c8:	b01f      	add	sp, #124	; 0x7c
     3ca:	e8bd 8ff0 	ldmia.w	sp!, {r4, r5, r6, r7, r8, r9, sl, fp, pc}
     3ce:	bf00      	nop
     3d0:	0001bd5e 	.word	0x0001bd5e
     3d4:	0000000c 	.word	0x0000000c
     3d8:	0001bcd4 	.word	0x0001bcd4

000003dc <TEE_InvokeTACommand>:
TEE_InvokeTACommand():
/home/aom1/Work/Linux/target/STM32MP1-DK2/buildroot/buildroot/output/build/optee-os-custom/lib/libutee/tee_api.c:209
     3dc:	e92d 4ff0 	stmdb	sp!, {r4, r5, r6, r7, r8, r9, sl, fp, lr}
     3e0:	4693      	mov	fp, r2
     3e2:	4a34      	ldr	r2, [pc, #208]	; (4b4 <TEE_InvokeTACommand+0xd8>)
     3e4:	461c      	mov	r4, r3
     3e6:	4b34      	ldr	r3, [pc, #208]	; (4b8 <TEE_InvokeTACommand+0xdc>)
     3e8:	b09f      	sub	sp, #124	; 0x7c
     3ea:	447a      	add	r2, pc
/home/aom1/Work/Linux/target/STM32MP1-DK2/buildroot/buildroot/output/build/optee-os-custom/lib/libutee/tee_api.c:215
     3ec:	af06      	add	r7, sp, #24
/home/aom1/Work/Linux/target/STM32MP1-DK2/buildroot/buildroot/output/build/optee-os-custom/lib/libutee/tee_api.c:209
     3ee:	4681      	mov	r9, r0
     3f0:	468a      	mov	sl, r1
     3f2:	58d3      	ldr	r3, [r2, r3]
/home/aom1/Work/Linux/target/STM32MP1-DK2/buildroot/buildroot/output/build/optee-os-custom/lib/libutee/tee_api.c:213
     3f4:	2100      	movs	r1, #0
/home/aom1/Work/Linux/target/STM32MP1-DK2/buildroot/buildroot/output/build/optee-os-custom/lib/libutee/tee_api.c:215
     3f6:	4638      	mov	r0, r7
     3f8:	2210      	movs	r2, #16
/home/aom1/Work/Linux/target/STM32MP1-DK2/buildroot/buildroot/output/build/optee-os-custom/lib/libutee/tee_api.c:209
     3fa:	681b      	ldr	r3, [r3, #0]
     3fc:	931d      	str	r3, [sp, #116]	; 0x74
     3fe:	f04f 0300 	mov.w	r3, #0
/home/aom1/Work/Linux/target/STM32MP1-DK2/buildroot/buildroot/output/build/optee-os-custom/lib/libutee/tee_api.c:211
     402:	2303      	movs	r3, #3
/home/aom1/Work/Linux/target/STM32MP1-DK2/buildroot/buildroot/output/build/optee-os-custom/lib/libutee/tee_api.c:209
     404:	e9dd 6528 	ldrd	r6, r5, [sp, #160]	; 0xa0
/home/aom1/Work/Linux/target/STM32MP1-DK2/buildroot/buildroot/output/build/optee-os-custom/lib/libutee/tee_api.c:211
     408:	9303      	str	r3, [sp, #12]
/home/aom1/Work/Linux/target/STM32MP1-DK2/buildroot/buildroot/output/build/optee-os-custom/lib/libutee/tee_api.c:214
     40a:	e9cd 1104 	strd	r1, r1, [sp, #16]
/home/aom1/Work/Linux/target/STM32MP1-DK2/buildroot/buildroot/output/build/optee-os-custom/lib/libutee/tee_api.c:215
     40e:	f015 fa5c 	bl	158ca <memset>
/home/aom1/Work/Linux/target/STM32MP1-DK2/buildroot/buildroot/output/build/optee-os-custom/lib/libutee/tee_api.c:217
     412:	b11c      	cbz	r4, 41c <TEE_InvokeTACommand+0x40>
/home/aom1/Work/Linux/target/STM32MP1-DK2/buildroot/buildroot/output/build/optee-os-custom/lib/libutee/tee_api.c:218
     414:	2120      	movs	r1, #32
     416:	4630      	mov	r0, r6
     418:	f00e fdaf 	bl	ef7a <__utee_check_inout_annotation>
/home/aom1/Work/Linux/target/STM32MP1-DK2/buildroot/buildroot/output/build/optee-os-custom/lib/libutee/tee_api.c:221
     41c:	b11d      	cbz	r5, 426 <TEE_InvokeTACommand+0x4a>
/home/aom1/Work/Linux/target/STM32MP1-DK2/buildroot/buildroot/output/build/optee-os-custom/lib/libutee/tee_api.c:222
     41e:	2104      	movs	r1, #4
     420:	4628      	mov	r0, r5
     422:	f00e fd97 	bl	ef54 <__utee_check_out_annotation>
/home/aom1/Work/Linux/target/STM32MP1-DK2/buildroot/buildroot/output/build/optee-os-custom/lib/libutee/tee_api.c:225
     426:	9701      	str	r7, [sp, #4]
     428:	ab05      	add	r3, sp, #20
     42a:	9300      	str	r3, [sp, #0]
     42c:	f10d 0828 	add.w	r8, sp, #40	; 0x28
     430:	4621      	mov	r1, r4
     432:	ab04      	add	r3, sp, #16
     434:	4632      	mov	r2, r6
     436:	4640      	mov	r0, r8
     438:	f7ff fead 	bl	196 <copy_param>
/home/aom1/Work/Linux/target/STM32MP1-DK2/buildroot/buildroot/output/build/optee-os-custom/lib/libutee/tee_api.c:226
     43c:	4604      	mov	r4, r0
     43e:	b9a8      	cbnz	r0, 46c <TEE_InvokeTACommand+0x90>
/home/aom1/Work/Linux/target/STM32MP1-DK2/buildroot/buildroot/output/build/optee-os-custom/lib/libutee/tee_api.c:228
     440:	ab03      	add	r3, sp, #12
     442:	465a      	mov	r2, fp
     444:	9300      	str	r3, [sp, #0]
     446:	4651      	mov	r1, sl
     448:	4643      	mov	r3, r8
     44a:	4648      	mov	r0, r9
     44c:	f00f eb20 	blx	fa90 <_utee_invoke_ta_command>
     450:	4604      	mov	r4, r0
/home/aom1/Work/Linux/target/STM32MP1-DK2/buildroot/buildroot/output/build/optee-os-custom/lib/libutee/tee_api.c:231
     452:	4642      	mov	r2, r8
     454:	4630      	mov	r0, r6
     456:	4639      	mov	r1, r7
     458:	f7ff fde2 	bl	20 <update_out_param>
/home/aom1/Work/Linux/target/STM32MP1-DK2/buildroot/buildroot/output/build/optee-os-custom/lib/libutee/tee_api.c:232
     45c:	9804      	ldr	r0, [sp, #16]
     45e:	b128      	cbz	r0, 46c <TEE_InvokeTACommand+0x90>
/home/aom1/Work/Linux/target/STM32MP1-DK2/buildroot/buildroot/output/build/optee-os-custom/lib/libutee/tee_api.c:233
     460:	9905      	ldr	r1, [sp, #20]
     462:	f00f fa21 	bl	f8a8 <tee_unmap>
/home/aom1/Work/Linux/target/STM32MP1-DK2/buildroot/buildroot/output/build/optee-os-custom/lib/libutee/tee_api.c:235
     466:	b108      	cbz	r0, 46c <TEE_InvokeTACommand+0x90>
/home/aom1/Work/Linux/target/STM32MP1-DK2/buildroot/buildroot/output/build/optee-os-custom/lib/libutee/tee_api.c:236
     468:	f00e fd32 	bl	eed0 <TEE_Panic>
/home/aom1/Work/Linux/target/STM32MP1-DK2/buildroot/buildroot/output/build/optee-os-custom/lib/libutee/tee_api.c:241
     46c:	9b03      	ldr	r3, [sp, #12]
/home/aom1/Work/Linux/target/STM32MP1-DK2/buildroot/buildroot/output/build/optee-os-custom/lib/libutee/tee_api.c:240
     46e:	b105      	cbz	r5, 472 <TEE_InvokeTACommand+0x96>
/home/aom1/Work/Linux/target/STM32MP1-DK2/buildroot/buildroot/output/build/optee-os-custom/lib/libutee/tee_api.c:241
     470:	602b      	str	r3, [r5, #0]
/home/aom1/Work/Linux/target/STM32MP1-DK2/buildroot/buildroot/output/build/optee-os-custom/lib/libutee/tee_api.c:243
     472:	2b04      	cmp	r3, #4
     474:	d009      	beq.n	48a <TEE_InvokeTACommand+0xae>
/home/aom1/Work/Linux/target/STM32MP1-DK2/buildroot/buildroot/output/build/optee-os-custom/lib/libutee/tee_api.c:246
     476:	b144      	cbz	r4, 48a <TEE_InvokeTACommand+0xae>
/home/aom1/Work/Linux/target/STM32MP1-DK2/buildroot/buildroot/output/build/optee-os-custom/lib/libutee/tee_api.c:246 (discriminator 1)
     478:	4b0c      	ldr	r3, [pc, #48]	; (4ac <TEE_InvokeTACommand+0xd0>)
     47a:	429c      	cmp	r4, r3
     47c:	d005      	beq.n	48a <TEE_InvokeTACommand+0xae>
/home/aom1/Work/Linux/target/STM32MP1-DK2/buildroot/buildroot/output/build/optee-os-custom/lib/libutee/tee_api.c:247
     47e:	4b0c      	ldr	r3, [pc, #48]	; (4b0 <TEE_InvokeTACommand+0xd4>)
     480:	429c      	cmp	r4, r3
     482:	d002      	beq.n	48a <TEE_InvokeTACommand+0xae>
/home/aom1/Work/Linux/target/STM32MP1-DK2/buildroot/buildroot/output/build/optee-os-custom/lib/libutee/tee_api.c:249
     484:	4620      	mov	r0, r4
     486:	f00e fd23 	bl	eed0 <TEE_Panic>
/home/aom1/Work/Linux/target/STM32MP1-DK2/buildroot/buildroot/output/build/optee-os-custom/lib/libutee/tee_api.c:209
     48a:	4a0c      	ldr	r2, [pc, #48]	; (4bc <TEE_InvokeTACommand+0xe0>)
/home/aom1/Work/Linux/target/STM32MP1-DK2/buildroot/buildroot/output/build/optee-os-custom/lib/libutee/tee_api.c:252
     48c:	4b0a      	ldr	r3, [pc, #40]	; (4b8 <TEE_InvokeTACommand+0xdc>)
/home/aom1/Work/Linux/target/STM32MP1-DK2/buildroot/buildroot/output/build/optee-os-custom/lib/libutee/tee_api.c:209
     48e:	447a      	add	r2, pc
/home/aom1/Work/Linux/target/STM32MP1-DK2/buildroot/buildroot/output/build/optee-os-custom/lib/libutee/tee_api.c:252
     490:	58d3      	ldr	r3, [r2, r3]
     492:	681a      	ldr	r2, [r3, #0]
     494:	9b1d      	ldr	r3, [sp, #116]	; 0x74
     496:	405a      	eors	r2, r3
     498:	f04f 0300 	mov.w	r3, #0
     49c:	d001      	beq.n	4a2 <TEE_InvokeTACommand+0xc6>
     49e:	f015 fa13 	bl	158c8 <__stack_chk_fail>
     4a2:	4620      	mov	r0, r4
     4a4:	b01f      	add	sp, #124	; 0x7c
     4a6:	e8bd 8ff0 	ldmia.w	sp!, {r4, r5, r6, r7, r8, r9, sl, fp, pc}
     4aa:	bf00      	nop
     4ac:	ffff000c 	.word	0xffff000c
     4b0:	ffff3024 	.word	0xffff3024
     4b4:	0001bc9a 	.word	0x0001bc9a
     4b8:	0000000c 	.word	0x0000000c
     4bc:	0001bbf6 	.word	0x0001bbf6

000004c0 <TEE_SetInstanceData>:
TEE_SetInstanceData():
/home/aom1/Work/Linux/target/STM32MP1-DK2/buildroot/buildroot/output/build/optee-os-custom/lib/libutee/tee_api.c:313
     4c0:	4b01      	ldr	r3, [pc, #4]	; (4c8 <TEE_SetInstanceData+0x8>)
     4c2:	447b      	add	r3, pc
     4c4:	6018      	str	r0, [r3, #0]
/home/aom1/Work/Linux/target/STM32MP1-DK2/buildroot/buildroot/output/build/optee-os-custom/lib/libutee/tee_api.c:314
     4c6:	4770      	bx	lr
     4c8:	0001da22 	.word	0x0001da22

000004cc <TEE_GetInstanceData>:
TEE_GetInstanceData():
/home/aom1/Work/Linux/target/STM32MP1-DK2/buildroot/buildroot/output/build/optee-os-custom/lib/libutee/tee_api.c:319
     4cc:	4b01      	ldr	r3, [pc, #4]	; (4d4 <TEE_GetInstanceData+0x8>)
     4ce:	447b      	add	r3, pc
     4d0:	6818      	ldr	r0, [r3, #0]
     4d2:	4770      	bx	lr
     4d4:	0001da16 	.word	0x0001da16

000004d8 <TEE_MemMove>:
TEE_MemMove():
/home/aom1/Work/Linux/target/STM32MP1-DK2/buildroot/buildroot/output/build/optee-os-custom/lib/libutee/tee_api.c:323
     4d8:	f015 ba92 	b.w	15a00 <memmove>

000004dc <TEE_MemCompare>:
TEE_MemCompare():
/home/aom1/Work/Linux/target/STM32MP1-DK2/buildroot/buildroot/output/build/optee-os-custom/lib/libutee/tee_api.c:328
     4dc:	f015 ba4a 	b.w	15974 <consttime_memcmp>

000004e0 <TEE_MemFill>:
TEE_MemFill():
/home/aom1/Work/Linux/target/STM32MP1-DK2/buildroot/buildroot/output/build/optee-os-custom/lib/libutee/tee_api.c:333
     4e0:	f015 b9f3 	b.w	158ca <memset>

000004e4 <TEE_GetSystemTime>:
TEE_GetSystemTime():
/home/aom1/Work/Linux/target/STM32MP1-DK2/buildroot/buildroot/output/build/optee-os-custom/lib/libutee/tee_api.c:339
     4e4:	4601      	mov	r1, r0
/home/aom1/Work/Linux/target/STM32MP1-DK2/buildroot/buildroot/output/build/optee-os-custom/lib/libutee/tee_api.c:340
     4e6:	2000      	movs	r0, #0
/home/aom1/Work/Linux/target/STM32MP1-DK2/buildroot/buildroot/output/build/optee-os-custom/lib/libutee/tee_api.c:339
     4e8:	b508      	push	{r3, lr}
/home/aom1/Work/Linux/target/STM32MP1-DK2/buildroot/buildroot/output/build/optee-os-custom/lib/libutee/tee_api.c:340
     4ea:	f00f eb10 	blx	fb0c <_utee_get_time>
/home/aom1/Work/Linux/target/STM32MP1-DK2/buildroot/buildroot/output/build/optee-os-custom/lib/libutee/tee_api.c:342
     4ee:	b118      	cbz	r0, 4f8 <TEE_GetSystemTime+0x14>
/home/aom1/Work/Linux/target/STM32MP1-DK2/buildroot/buildroot/output/build/optee-os-custom/lib/libutee/tee_api.c:344
     4f0:	e8bd 4008 	ldmia.w	sp!, {r3, lr}
/home/aom1/Work/Linux/target/STM32MP1-DK2/buildroot/buildroot/output/build/optee-os-custom/lib/libutee/tee_api.c:343
     4f4:	f00e bcec 	b.w	eed0 <TEE_Panic>
/home/aom1/Work/Linux/target/STM32MP1-DK2/buildroot/buildroot/output/build/optee-os-custom/lib/libutee/tee_api.c:344
     4f8:	bd08      	pop	{r3, pc}

000004fa <TEE_Wait>:
TEE_Wait():
/home/aom1/Work/Linux/target/STM32MP1-DK2/buildroot/buildroot/output/build/optee-os-custom/lib/libutee/tee_api.c:347
     4fa:	b510      	push	{r4, lr}
/home/aom1/Work/Linux/target/STM32MP1-DK2/buildroot/buildroot/output/build/optee-os-custom/lib/libutee/tee_api.c:348
     4fc:	f00f eafc 	blx	faf8 <_utee_wait>
/home/aom1/Work/Linux/target/STM32MP1-DK2/buildroot/buildroot/output/build/optee-os-custom/lib/libutee/tee_api.c:350
     500:	4604      	mov	r4, r0
     502:	b120      	cbz	r0, 50e <TEE_Wait+0x14>
/home/aom1/Work/Linux/target/STM32MP1-DK2/buildroot/buildroot/output/build/optee-os-custom/lib/libutee/tee_api.c:350 (discriminator 1)
     504:	4b03      	ldr	r3, [pc, #12]	; (514 <TEE_Wait+0x1a>)
     506:	4298      	cmp	r0, r3
     508:	d001      	beq.n	50e <TEE_Wait+0x14>
/home/aom1/Work/Linux/target/STM32MP1-DK2/buildroot/buildroot/output/build/optee-os-custom/lib/libutee/tee_api.c:351
     50a:	f00e fce1 	bl	eed0 <TEE_Panic>
/home/aom1/Work/Linux/target/STM32MP1-DK2/buildroot/buildroot/output/build/optee-os-custom/lib/libutee/tee_api.c:354
     50e:	4620      	mov	r0, r4
     510:	bd10      	pop	{r4, pc}
     512:	bf00      	nop
     514:	ffff0002 	.word	0xffff0002

00000518 <TEE_GetTAPersistentTime>:
TEE_GetTAPersistentTime():
/home/aom1/Work/Linux/target/STM32MP1-DK2/buildroot/buildroot/output/build/optee-os-custom/lib/libutee/tee_api.c:357
     518:	b538      	push	{r3, r4, r5, lr}
/home/aom1/Work/Linux/target/STM32MP1-DK2/buildroot/buildroot/output/build/optee-os-custom/lib/libutee/tee_api.c:360
     51a:	4601      	mov	r1, r0
/home/aom1/Work/Linux/target/STM32MP1-DK2/buildroot/buildroot/output/build/optee-os-custom/lib/libutee/tee_api.c:357
     51c:	4605      	mov	r5, r0
/home/aom1/Work/Linux/target/STM32MP1-DK2/buildroot/buildroot/output/build/optee-os-custom/lib/libutee/tee_api.c:360
     51e:	2001      	movs	r0, #1
     520:	f00f eaf4 	blx	fb0c <_utee_get_time>
/home/aom1/Work/Linux/target/STM32MP1-DK2/buildroot/buildroot/output/build/optee-os-custom/lib/libutee/tee_api.c:362
     524:	4604      	mov	r4, r0
     526:	b170      	cbz	r0, 546 <TEE_GetTAPersistentTime+0x2e>
/home/aom1/Work/Linux/target/STM32MP1-DK2/buildroot/buildroot/output/build/optee-os-custom/lib/libutee/tee_api.c:362 (discriminator 1)
     528:	4b08      	ldr	r3, [pc, #32]	; (54c <TEE_GetTAPersistentTime+0x34>)
     52a:	4298      	cmp	r0, r3
     52c:	d00b      	beq.n	546 <TEE_GetTAPersistentTime+0x2e>
/home/aom1/Work/Linux/target/STM32MP1-DK2/buildroot/buildroot/output/build/optee-os-custom/lib/libutee/tee_api.c:363
     52e:	2300      	movs	r3, #0
     530:	602b      	str	r3, [r5, #0]
/home/aom1/Work/Linux/target/STM32MP1-DK2/buildroot/buildroot/output/build/optee-os-custom/lib/libutee/tee_api.c:364
     532:	606b      	str	r3, [r5, #4]
/home/aom1/Work/Linux/target/STM32MP1-DK2/buildroot/buildroot/output/build/optee-os-custom/lib/libutee/tee_api.c:367
     534:	f500 4330 	add.w	r3, r0, #45056	; 0xb000
     538:	2b01      	cmp	r3, #1
     53a:	d904      	bls.n	546 <TEE_GetTAPersistentTime+0x2e>
/home/aom1/Work/Linux/target/STM32MP1-DK2/buildroot/buildroot/output/build/optee-os-custom/lib/libutee/tee_api.c:370
     53c:	4b04      	ldr	r3, [pc, #16]	; (550 <TEE_GetTAPersistentTime+0x38>)
     53e:	4298      	cmp	r0, r3
     540:	d001      	beq.n	546 <TEE_GetTAPersistentTime+0x2e>
/home/aom1/Work/Linux/target/STM32MP1-DK2/buildroot/buildroot/output/build/optee-os-custom/lib/libutee/tee_api.c:372
     542:	f00e fcc5 	bl	eed0 <TEE_Panic>
/home/aom1/Work/Linux/target/STM32MP1-DK2/buildroot/buildroot/output/build/optee-os-custom/lib/libutee/tee_api.c:375
     546:	4620      	mov	r0, r4
     548:	bd38      	pop	{r3, r4, r5, pc}
     54a:	bf00      	nop
     54c:	ffff300f 	.word	0xffff300f
     550:	ffff000c 	.word	0xffff000c

00000554 <TEE_SetTAPersistentTime>:
TEE_SetTAPersistentTime():
/home/aom1/Work/Linux/target/STM32MP1-DK2/buildroot/buildroot/output/build/optee-os-custom/lib/libutee/tee_api.c:378
     554:	b510      	push	{r4, lr}
/home/aom1/Work/Linux/target/STM32MP1-DK2/buildroot/buildroot/output/build/optee-os-custom/lib/libutee/tee_api.c:381
     556:	f00f eae4 	blx	fb20 <_utee_set_ta_time>
/home/aom1/Work/Linux/target/STM32MP1-DK2/buildroot/buildroot/output/build/optee-os-custom/lib/libutee/tee_api.c:383
     55a:	4604      	mov	r4, r0
     55c:	b138      	cbz	r0, 56e <TEE_SetTAPersistentTime+0x1a>
/home/aom1/Work/Linux/target/STM32MP1-DK2/buildroot/buildroot/output/build/optee-os-custom/lib/libutee/tee_api.c:383 (discriminator 1)
     55e:	4b05      	ldr	r3, [pc, #20]	; (574 <TEE_SetTAPersistentTime+0x20>)
     560:	4298      	cmp	r0, r3
     562:	d004      	beq.n	56e <TEE_SetTAPersistentTime+0x1a>
/home/aom1/Work/Linux/target/STM32MP1-DK2/buildroot/buildroot/output/build/optee-os-custom/lib/libutee/tee_api.c:384
     564:	4b04      	ldr	r3, [pc, #16]	; (578 <TEE_SetTAPersistentTime+0x24>)
     566:	4298      	cmp	r0, r3
     568:	d001      	beq.n	56e <TEE_SetTAPersistentTime+0x1a>
/home/aom1/Work/Linux/target/STM32MP1-DK2/buildroot/buildroot/output/build/optee-os-custom/lib/libutee/tee_api.c:386
     56a:	f00e fcb1 	bl	eed0 <TEE_Panic>
/home/aom1/Work/Linux/target/STM32MP1-DK2/buildroot/buildroot/output/build/optee-os-custom/lib/libutee/tee_api.c:389
     56e:	4620      	mov	r0, r4
     570:	bd10      	pop	{r4, pc}
     572:	bf00      	nop
     574:	ffff000c 	.word	0xffff000c
     578:	ffff3041 	.word	0xffff3041

0000057c <TEE_GetREETime>:
TEE_GetREETime():
/home/aom1/Work/Linux/target/STM32MP1-DK2/buildroot/buildroot/output/build/optee-os-custom/lib/libutee/tee_api.c:392
     57c:	4601      	mov	r1, r0
/home/aom1/Work/Linux/target/STM32MP1-DK2/buildroot/buildroot/output/build/optee-os-custom/lib/libutee/tee_api.c:393
     57e:	2002      	movs	r0, #2
/home/aom1/Work/Linux/target/STM32MP1-DK2/buildroot/buildroot/output/build/optee-os-custom/lib/libutee/tee_api.c:392
     580:	b508      	push	{r3, lr}
/home/aom1/Work/Linux/target/STM32MP1-DK2/buildroot/buildroot/output/build/optee-os-custom/lib/libutee/tee_api.c:393
     582:	f00f eac4 	blx	fb0c <_utee_get_time>
/home/aom1/Work/Linux/target/STM32MP1-DK2/buildroot/buildroot/output/build/optee-os-custom/lib/libutee/tee_api.c:395
     586:	b118      	cbz	r0, 590 <TEE_GetREETime+0x14>
/home/aom1/Work/Linux/target/STM32MP1-DK2/buildroot/buildroot/output/build/optee-os-custom/lib/libutee/tee_api.c:397
     588:	e8bd 4008 	ldmia.w	sp!, {r3, lr}
/home/aom1/Work/Linux/target/STM32MP1-DK2/buildroot/buildroot/output/build/optee-os-custom/lib/libutee/tee_api.c:396
     58c:	f00e bca0 	b.w	eed0 <TEE_Panic>
/home/aom1/Work/Linux/target/STM32MP1-DK2/buildroot/buildroot/output/build/optee-os-custom/lib/libutee/tee_api.c:397
     590:	bd08      	pop	{r3, pc}

00000592 <TEE_Malloc>:
TEE_Malloc():
/home/aom1/Work/Linux/target/STM32MP1-DK2/buildroot/buildroot/output/build/optee-os-custom/lib/libutee/tee_api.c:400
     592:	460b      	mov	r3, r1
     594:	b507      	push	{r0, r1, r2, lr}
/home/aom1/Work/Linux/target/STM32MP1-DK2/buildroot/buildroot/output/build/optee-os-custom/lib/libutee/tee_api.c:401
     596:	4601      	mov	r1, r0
     598:	b1f0      	cbz	r0, 5d8 <TEE_Malloc+0x46>
/home/aom1/Work/Linux/target/STM32MP1-DK2/buildroot/buildroot/output/build/optee-os-custom/lib/libutee/tee_api.c:404
     59a:	b92b      	cbnz	r3, 5a8 <TEE_Malloc+0x16>
/home/aom1/Work/Linux/target/STM32MP1-DK2/buildroot/buildroot/output/build/optee-os-custom/lib/libutee/tee_api.c:405
     59c:	2001      	movs	r0, #1
/home/aom1/Work/Linux/target/STM32MP1-DK2/buildroot/buildroot/output/build/optee-os-custom/lib/libutee/tee_api.c:412
     59e:	b003      	add	sp, #12
     5a0:	f85d eb04 	ldr.w	lr, [sp], #4
/home/aom1/Work/Linux/target/STM32MP1-DK2/buildroot/buildroot/output/build/optee-os-custom/lib/libutee/tee_api.c:405
     5a4:	f014 bfb0 	b.w	15508 <calloc>
/home/aom1/Work/Linux/target/STM32MP1-DK2/buildroot/buildroot/output/build/optee-os-custom/lib/libutee/tee_api.c:406
     5a8:	f1b3 4f00 	cmp.w	r3, #2147483648	; 0x80000000
     5ac:	d104      	bne.n	5b8 <TEE_Malloc+0x26>
/home/aom1/Work/Linux/target/STM32MP1-DK2/buildroot/buildroot/output/build/optee-os-custom/lib/libutee/tee_api.c:412
     5ae:	b003      	add	sp, #12
     5b0:	f85d eb04 	ldr.w	lr, [sp], #4
/home/aom1/Work/Linux/target/STM32MP1-DK2/buildroot/buildroot/output/build/optee-os-custom/lib/libutee/tee_api.c:407
     5b4:	f014 bf9e 	b.w	154f4 <malloc>
/home/aom1/Work/Linux/target/STM32MP1-DK2/buildroot/buildroot/output/build/optee-os-custom/lib/libutee/tee_api.c:409
     5b8:	9301      	str	r3, [sp, #4]
     5ba:	f240 1199 	movw	r1, #409	; 0x199
     5be:	4b07      	ldr	r3, [pc, #28]	; (5dc <TEE_Malloc+0x4a>)
     5c0:	4807      	ldr	r0, [pc, #28]	; (5e0 <TEE_Malloc+0x4e>)
     5c2:	447b      	add	r3, pc
     5c4:	9300      	str	r3, [sp, #0]
     5c6:	2301      	movs	r3, #1
     5c8:	4478      	add	r0, pc
     5ca:	461a      	mov	r2, r3
     5cc:	f00b fcde 	bl	bf8c <trace_printf>
/home/aom1/Work/Linux/target/STM32MP1-DK2/buildroot/buildroot/output/build/optee-os-custom/lib/libutee/tee_api.c:411
     5d0:	2000      	movs	r0, #0
/home/aom1/Work/Linux/target/STM32MP1-DK2/buildroot/buildroot/output/build/optee-os-custom/lib/libutee/tee_api.c:412
     5d2:	b003      	add	sp, #12
     5d4:	f85d fb04 	ldr.w	pc, [sp], #4
/home/aom1/Work/Linux/target/STM32MP1-DK2/buildroot/buildroot/output/build/optee-os-custom/lib/libutee/tee_api.c:402
     5d8:	2001      	movs	r0, #1
     5da:	e7fa      	b.n	5d2 <TEE_Malloc+0x40>
     5dc:	0001a073 	.word	0x0001a073
     5e0:	0001a07e 	.word	0x0001a07e

000005e4 <TEE_Free>:
TEE_Free():
/home/aom1/Work/Linux/target/STM32MP1-DK2/buildroot/buildroot/output/build/optee-os-custom/lib/libutee/tee_api.c:429
     5e4:	2801      	cmp	r0, #1
     5e6:	d001      	beq.n	5ec <TEE_Free+0x8>
/home/aom1/Work/Linux/target/STM32MP1-DK2/buildroot/buildroot/output/build/optee-os-custom/lib/libutee/tee_api.c:430
     5e8:	f014 bfbc 	b.w	15564 <free>
/home/aom1/Work/Linux/target/STM32MP1-DK2/buildroot/buildroot/output/build/optee-os-custom/lib/libutee/tee_api.c:431
     5ec:	4770      	bx	lr

000005ee <TEE_Realloc>:
TEE_Realloc():
/home/aom1/Work/Linux/target/STM32MP1-DK2/buildroot/buildroot/output/build/optee-os-custom/lib/libutee/tee_api.c:415
     5ee:	b508      	push	{r3, lr}
/home/aom1/Work/Linux/target/STM32MP1-DK2/buildroot/buildroot/output/build/optee-os-custom/lib/libutee/tee_api.c:416
     5f0:	b149      	cbz	r1, 606 <TEE_Realloc+0x18>
/home/aom1/Work/Linux/target/STM32MP1-DK2/buildroot/buildroot/output/build/optee-os-custom/lib/libutee/tee_api.c:421
     5f2:	2801      	cmp	r0, #1
     5f4:	d103      	bne.n	5fe <TEE_Realloc+0x10>
/home/aom1/Work/Linux/target/STM32MP1-DK2/buildroot/buildroot/output/build/optee-os-custom/lib/libutee/tee_api.c:425
     5f6:	e8bd 4008 	ldmia.w	sp!, {r3, lr}
/home/aom1/Work/Linux/target/STM32MP1-DK2/buildroot/buildroot/output/build/optee-os-custom/lib/libutee/tee_api.c:422
     5fa:	f014 bf85 	b.w	15508 <calloc>
/home/aom1/Work/Linux/target/STM32MP1-DK2/buildroot/buildroot/output/build/optee-os-custom/lib/libutee/tee_api.c:425
     5fe:	e8bd 4008 	ldmia.w	sp!, {r3, lr}
/home/aom1/Work/Linux/target/STM32MP1-DK2/buildroot/buildroot/output/build/optee-os-custom/lib/libutee/tee_api.c:424
     602:	f014 bf91 	b.w	15528 <realloc>
/home/aom1/Work/Linux/target/STM32MP1-DK2/buildroot/buildroot/output/build/optee-os-custom/lib/libutee/tee_api.c:417
     606:	f7ff ffed 	bl	5e4 <TEE_Free>
/home/aom1/Work/Linux/target/STM32MP1-DK2/buildroot/buildroot/output/build/optee-os-custom/lib/libutee/tee_api.c:425
     60a:	2001      	movs	r0, #1
     60c:	bd08      	pop	{r3, pc}

0000060e <TEE_CacheClean>:
TEE_CacheClean():
/home/aom1/Work/Linux/target/STM32MP1-DK2/buildroot/buildroot/output/build/optee-os-custom/lib/libutee/tee_api.c:436
     60e:	2200      	movs	r2, #0
     610:	f015 ba2e 	b.w	15a70 <___utee_cache_operation_from_thumb>

00000614 <TEE_CacheFlush>:
TEE_CacheFlush():
/home/aom1/Work/Linux/target/STM32MP1-DK2/buildroot/buildroot/output/build/optee-os-custom/lib/libutee/tee_api.c:440
     614:	2201      	movs	r2, #1
     616:	f015 ba2b 	b.w	15a70 <___utee_cache_operation_from_thumb>

0000061a <TEE_CacheInvalidate>:
TEE_CacheInvalidate():
/home/aom1/Work/Linux/target/STM32MP1-DK2/buildroot/buildroot/output/build/optee-os-custom/lib/libutee/tee_api.c:445
     61a:	2202      	movs	r2, #2
     61c:	f015 ba28 	b.w	15a70 <___utee_cache_operation_from_thumb>

00000620 <_remove_attribute.isra.0>:
_remove_attribute():
/home/aom1/Work/Linux/target/STM32MP1-DK2/buildroot/buildroot/output/build/optee-os-custom/ta/pkcs11/src/attributes.c:61
     620:	e92d 4ff0 	stmdb	sp!, {r4, r5, r6, r7, r8, r9, sl, fp, lr}
     624:	4690      	mov	r8, r2
     626:	4a26      	ldr	r2, [pc, #152]	; (6c0 <_remove_attribute.isra.0+0xa0>)
/home/aom1/Work/Linux/target/STM32MP1-DK2/buildroot/buildroot/output/build/optee-os-custom/ta/pkcs11/src/attributes.c:70
     628:	4604      	mov	r4, r0
/home/aom1/Work/Linux/target/STM32MP1-DK2/buildroot/buildroot/output/build/optee-os-custom/ta/pkcs11/src/attributes.c:61
     62a:	4b26      	ldr	r3, [pc, #152]	; (6c4 <_remove_attribute.isra.0+0xa4>)
     62c:	b085      	sub	sp, #20
     62e:	447a      	add	r2, pc
     630:	4605      	mov	r5, r0
/home/aom1/Work/Linux/target/STM32MP1-DK2/buildroot/buildroot/output/build/optee-os-custom/ta/pkcs11/src/attributes.c:71
     632:	f854 6b08 	ldr.w	r6, [r4], #8
/home/aom1/Work/Linux/target/STM32MP1-DK2/buildroot/buildroot/output/build/optee-os-custom/ta/pkcs11/src/attributes.c:61
     636:	460f      	mov	r7, r1
     638:	58d3      	ldr	r3, [r2, r3]
/home/aom1/Work/Linux/target/STM32MP1-DK2/buildroot/buildroot/output/build/optee-os-custom/ta/pkcs11/src/attributes.c:73
     63a:	f10d 0904 	add.w	r9, sp, #4
/home/aom1/Work/Linux/target/STM32MP1-DK2/buildroot/buildroot/output/build/optee-os-custom/ta/pkcs11/src/attributes.c:71
     63e:	4426      	add	r6, r4
/home/aom1/Work/Linux/target/STM32MP1-DK2/buildroot/buildroot/output/build/optee-os-custom/ta/pkcs11/src/attributes.c:73
     640:	f04f 0b00 	mov.w	fp, #0
/home/aom1/Work/Linux/target/STM32MP1-DK2/buildroot/buildroot/output/build/optee-os-custom/ta/pkcs11/src/attributes.c:61
     644:	681b      	ldr	r3, [r3, #0]
     646:	9303      	str	r3, [sp, #12]
     648:	f04f 0300 	mov.w	r3, #0
/home/aom1/Work/Linux/target/STM32MP1-DK2/buildroot/buildroot/output/build/optee-os-custom/ta/pkcs11/src/attributes.c:72
     64c:	42a6      	cmp	r6, r4
     64e:	d802      	bhi.n	656 <_remove_attribute.isra.0+0x36>
/home/aom1/Work/Linux/target/STM32MP1-DK2/buildroot/buildroot/output/build/optee-os-custom/ta/pkcs11/src/attributes.c:95
     650:	f04f 4000 	mov.w	r0, #2147483648	; 0x80000000
     654:	e022      	b.n	69c <_remove_attribute.isra.0+0x7c>
/home/aom1/Work/Linux/target/STM32MP1-DK2/buildroot/buildroot/output/build/optee-os-custom/ta/pkcs11/src/attributes.c:73
     656:	f8c9 b000 	str.w	fp, [r9]
/home/aom1/Work/Linux/target/STM32MP1-DK2/buildroot/buildroot/output/build/optee-os-custom/ta/pkcs11/src/attributes.c:75
     65a:	2208      	movs	r2, #8
/home/aom1/Work/Linux/target/STM32MP1-DK2/buildroot/buildroot/output/build/optee-os-custom/ta/pkcs11/src/attributes.c:73
     65c:	f8c9 b004 	str.w	fp, [r9, #4]
/home/aom1/Work/Linux/target/STM32MP1-DK2/buildroot/buildroot/output/build/optee-os-custom/ta/pkcs11/src/attributes.c:75
     660:	4621      	mov	r1, r4
     662:	4648      	mov	r0, r9
     664:	f7ff ff38 	bl	4d8 <TEE_MemMove>
/home/aom1/Work/Linux/target/STM32MP1-DK2/buildroot/buildroot/output/build/optee-os-custom/ta/pkcs11/src/attributes.c:78
     668:	9a01      	ldr	r2, [sp, #4]
/home/aom1/Work/Linux/target/STM32MP1-DK2/buildroot/buildroot/output/build/optee-os-custom/ta/pkcs11/src/attributes.c:76
     66a:	9b02      	ldr	r3, [sp, #8]
/home/aom1/Work/Linux/target/STM32MP1-DK2/buildroot/buildroot/output/build/optee-os-custom/ta/pkcs11/src/attributes.c:78
     66c:	42ba      	cmp	r2, r7
/home/aom1/Work/Linux/target/STM32MP1-DK2/buildroot/buildroot/output/build/optee-os-custom/ta/pkcs11/src/attributes.c:76
     66e:	f103 0a08 	add.w	sl, r3, #8
/home/aom1/Work/Linux/target/STM32MP1-DK2/buildroot/buildroot/output/build/optee-os-custom/ta/pkcs11/src/attributes.c:78
     672:	d001      	beq.n	678 <_remove_attribute.isra.0+0x58>
/home/aom1/Work/Linux/target/STM32MP1-DK2/buildroot/buildroot/output/build/optee-os-custom/ta/pkcs11/src/attributes.c:72
     674:	4454      	add	r4, sl
     676:	e7e9      	b.n	64c <_remove_attribute.isra.0+0x2c>
/home/aom1/Work/Linux/target/STM32MP1-DK2/buildroot/buildroot/output/build/optee-os-custom/ta/pkcs11/src/attributes.c:81
     678:	f1b8 0f00 	cmp.w	r8, #0
     67c:	d000      	beq.n	680 <_remove_attribute.isra.0+0x60>
     67e:	b9cb      	cbnz	r3, 6b4 <_remove_attribute.isra.0+0x94>
/home/aom1/Work/Linux/target/STM32MP1-DK2/buildroot/buildroot/output/build/optee-os-custom/ta/pkcs11/src/attributes.c:84
     680:	eb04 010a 	add.w	r1, r4, sl
     684:	4620      	mov	r0, r4
     686:	1a72      	subs	r2, r6, r1
     688:	f7ff ff26 	bl	4d8 <TEE_MemMove>
/home/aom1/Work/Linux/target/STM32MP1-DK2/buildroot/buildroot/output/build/optee-os-custom/ta/pkcs11/src/attributes.c:86
     68c:	686b      	ldr	r3, [r5, #4]
/home/aom1/Work/Linux/target/STM32MP1-DK2/buildroot/buildroot/output/build/optee-os-custom/ta/pkcs11/src/attributes.c:91
     68e:	2000      	movs	r0, #0
/home/aom1/Work/Linux/target/STM32MP1-DK2/buildroot/buildroot/output/build/optee-os-custom/ta/pkcs11/src/attributes.c:86
     690:	3b01      	subs	r3, #1
     692:	606b      	str	r3, [r5, #4]
/home/aom1/Work/Linux/target/STM32MP1-DK2/buildroot/buildroot/output/build/optee-os-custom/ta/pkcs11/src/attributes.c:87
     694:	682b      	ldr	r3, [r5, #0]
     696:	eba3 030a 	sub.w	r3, r3, sl
     69a:	602b      	str	r3, [r5, #0]
/home/aom1/Work/Linux/target/STM32MP1-DK2/buildroot/buildroot/output/build/optee-os-custom/ta/pkcs11/src/attributes.c:61
     69c:	4a0a      	ldr	r2, [pc, #40]	; (6c8 <_remove_attribute.isra.0+0xa8>)
/home/aom1/Work/Linux/target/STM32MP1-DK2/buildroot/buildroot/output/build/optee-os-custom/ta/pkcs11/src/attributes.c:96
     69e:	4b09      	ldr	r3, [pc, #36]	; (6c4 <_remove_attribute.isra.0+0xa4>)
/home/aom1/Work/Linux/target/STM32MP1-DK2/buildroot/buildroot/output/build/optee-os-custom/ta/pkcs11/src/attributes.c:61
     6a0:	447a      	add	r2, pc
/home/aom1/Work/Linux/target/STM32MP1-DK2/buildroot/buildroot/output/build/optee-os-custom/ta/pkcs11/src/attributes.c:96
     6a2:	58d3      	ldr	r3, [r2, r3]
     6a4:	681a      	ldr	r2, [r3, #0]
     6a6:	9b03      	ldr	r3, [sp, #12]
     6a8:	405a      	eors	r2, r3
     6aa:	f04f 0300 	mov.w	r3, #0
     6ae:	d003      	beq.n	6b8 <_remove_attribute.isra.0+0x98>
     6b0:	f015 f90a 	bl	158c8 <__stack_chk_fail>
/home/aom1/Work/Linux/target/STM32MP1-DK2/buildroot/buildroot/output/build/optee-os-custom/ta/pkcs11/src/attributes.c:82
     6b4:	2006      	movs	r0, #6
     6b6:	e7f1      	b.n	69c <_remove_attribute.isra.0+0x7c>
/home/aom1/Work/Linux/target/STM32MP1-DK2/buildroot/buildroot/output/build/optee-os-custom/ta/pkcs11/src/attributes.c:96
     6b8:	b005      	add	sp, #20
     6ba:	e8bd 8ff0 	ldmia.w	sp!, {r4, r5, r6, r7, r8, r9, sl, fp, pc}
     6be:	bf00      	nop
     6c0:	0001ba56 	.word	0x0001ba56
     6c4:	0000000c 	.word	0x0000000c
     6c8:	0001b9e4 	.word	0x0001b9e4

000006cc <init_attributes_head>:
init_attributes_head():
/home/aom1/Work/Linux/target/STM32MP1-DK2/buildroot/buildroot/output/build/optee-os-custom/ta/pkcs11/src/attributes.c:23
     6cc:	b510      	push	{r4, lr}
/home/aom1/Work/Linux/target/STM32MP1-DK2/buildroot/buildroot/output/build/optee-os-custom/ta/pkcs11/src/attributes.c:24
     6ce:	2100      	movs	r1, #0
/home/aom1/Work/Linux/target/STM32MP1-DK2/buildroot/buildroot/output/build/optee-os-custom/ta/pkcs11/src/attributes.c:23
     6d0:	4604      	mov	r4, r0
/home/aom1/Work/Linux/target/STM32MP1-DK2/buildroot/buildroot/output/build/optee-os-custom/ta/pkcs11/src/attributes.c:24
     6d2:	2008      	movs	r0, #8
     6d4:	f7ff ff5d 	bl	592 <TEE_Malloc>
     6d8:	6020      	str	r0, [r4, #0]
/home/aom1/Work/Linux/target/STM32MP1-DK2/buildroot/buildroot/output/build/optee-os-custom/ta/pkcs11/src/attributes.c:26
     6da:	2800      	cmp	r0, #0
/home/aom1/Work/Linux/target/STM32MP1-DK2/buildroot/buildroot/output/build/optee-os-custom/ta/pkcs11/src/attributes.c:29
     6dc:	bf0c      	ite	eq
     6de:	2031      	moveq	r0, #49	; 0x31
     6e0:	2000      	movne	r0, #0
     6e2:	bd10      	pop	{r4, pc}

000006e4 <add_attribute>:
add_attribute():
/home/aom1/Work/Linux/target/STM32MP1-DK2/buildroot/buildroot/output/build/optee-os-custom/ta/pkcs11/src/attributes.c:33
     6e4:	b570      	push	{r4, r5, r6, lr}
     6e6:	4616      	mov	r6, r2
     6e8:	4a1e      	ldr	r2, [pc, #120]	; (764 <add_attribute+0x80>)
     6ea:	461c      	mov	r4, r3
     6ec:	4b1e      	ldr	r3, [pc, #120]	; (768 <add_attribute+0x84>)
     6ee:	b086      	sub	sp, #24
     6f0:	447a      	add	r2, pc
     6f2:	4605      	mov	r5, r0
     6f4:	58d3      	ldr	r3, [r2, r3]
/home/aom1/Work/Linux/target/STM32MP1-DK2/buildroot/buildroot/output/build/optee-os-custom/ta/pkcs11/src/attributes.c:40
     6f6:	aa04      	add	r2, sp, #16
/home/aom1/Work/Linux/target/STM32MP1-DK2/buildroot/buildroot/output/build/optee-os-custom/ta/pkcs11/src/attributes.c:33
     6f8:	681b      	ldr	r3, [r3, #0]
     6fa:	9305      	str	r3, [sp, #20]
     6fc:	f04f 0300 	mov.w	r3, #0
/home/aom1/Work/Linux/target/STM32MP1-DK2/buildroot/buildroot/output/build/optee-os-custom/ta/pkcs11/src/attributes.c:34
     700:	6803      	ldr	r3, [r0, #0]
     702:	681b      	ldr	r3, [r3, #0]
/home/aom1/Work/Linux/target/STM32MP1-DK2/buildroot/buildroot/output/build/optee-os-custom/ta/pkcs11/src/attributes.c:39
     704:	9104      	str	r1, [sp, #16]
/home/aom1/Work/Linux/target/STM32MP1-DK2/buildroot/buildroot/output/build/optee-os-custom/ta/pkcs11/src/attributes.c:40
     706:	a903      	add	r1, sp, #12
/home/aom1/Work/Linux/target/STM32MP1-DK2/buildroot/buildroot/output/build/optee-os-custom/ta/pkcs11/src/attributes.c:34
     708:	3308      	adds	r3, #8
     70a:	9303      	str	r3, [sp, #12]
/home/aom1/Work/Linux/target/STM32MP1-DK2/buildroot/buildroot/output/build/optee-os-custom/ta/pkcs11/src/attributes.c:40
     70c:	2304      	movs	r3, #4
     70e:	e9cd 1200 	strd	r1, r2, [sp]
     712:	f00a fd09 	bl	b128 <serialize>
/home/aom1/Work/Linux/target/STM32MP1-DK2/buildroot/buildroot/output/build/optee-os-custom/ta/pkcs11/src/attributes.c:41
     716:	b9b0      	cbnz	r0, 746 <add_attribute+0x62>
/home/aom1/Work/Linux/target/STM32MP1-DK2/buildroot/buildroot/output/build/optee-os-custom/ta/pkcs11/src/attributes.c:44
     718:	9404      	str	r4, [sp, #16]
/home/aom1/Work/Linux/target/STM32MP1-DK2/buildroot/buildroot/output/build/optee-os-custom/ta/pkcs11/src/attributes.c:45
     71a:	2304      	movs	r3, #4
     71c:	e9dd 1200 	ldrd	r1, r2, [sp]
     720:	4628      	mov	r0, r5
     722:	f00a fd01 	bl	b128 <serialize>
/home/aom1/Work/Linux/target/STM32MP1-DK2/buildroot/buildroot/output/build/optee-os-custom/ta/pkcs11/src/attributes.c:46
     726:	b970      	cbnz	r0, 746 <add_attribute+0x62>
/home/aom1/Work/Linux/target/STM32MP1-DK2/buildroot/buildroot/output/build/optee-os-custom/ta/pkcs11/src/attributes.c:49
     728:	9900      	ldr	r1, [sp, #0]
     72a:	4623      	mov	r3, r4
     72c:	4632      	mov	r2, r6
     72e:	4628      	mov	r0, r5
     730:	f00a fcfa 	bl	b128 <serialize>
/home/aom1/Work/Linux/target/STM32MP1-DK2/buildroot/buildroot/output/build/optee-os-custom/ta/pkcs11/src/attributes.c:50
     734:	b938      	cbnz	r0, 746 <add_attribute+0x62>
/home/aom1/Work/Linux/target/STM32MP1-DK2/buildroot/buildroot/output/build/optee-os-custom/ta/pkcs11/src/attributes.c:55
     736:	682a      	ldr	r2, [r5, #0]
     738:	3408      	adds	r4, #8
     73a:	6813      	ldr	r3, [r2, #0]
     73c:	441c      	add	r4, r3
/home/aom1/Work/Linux/target/STM32MP1-DK2/buildroot/buildroot/output/build/optee-os-custom/ta/pkcs11/src/attributes.c:56
     73e:	6853      	ldr	r3, [r2, #4]
/home/aom1/Work/Linux/target/STM32MP1-DK2/buildroot/buildroot/output/build/optee-os-custom/ta/pkcs11/src/attributes.c:55
     740:	6014      	str	r4, [r2, #0]
/home/aom1/Work/Linux/target/STM32MP1-DK2/buildroot/buildroot/output/build/optee-os-custom/ta/pkcs11/src/attributes.c:56
     742:	3301      	adds	r3, #1
     744:	6053      	str	r3, [r2, #4]
/home/aom1/Work/Linux/target/STM32MP1-DK2/buildroot/buildroot/output/build/optee-os-custom/ta/pkcs11/src/attributes.c:33
     746:	4a09      	ldr	r2, [pc, #36]	; (76c <add_attribute+0x88>)
/home/aom1/Work/Linux/target/STM32MP1-DK2/buildroot/buildroot/output/build/optee-os-custom/ta/pkcs11/src/attributes.c:59
     748:	4b07      	ldr	r3, [pc, #28]	; (768 <add_attribute+0x84>)
/home/aom1/Work/Linux/target/STM32MP1-DK2/buildroot/buildroot/output/build/optee-os-custom/ta/pkcs11/src/attributes.c:33
     74a:	447a      	add	r2, pc
/home/aom1/Work/Linux/target/STM32MP1-DK2/buildroot/buildroot/output/build/optee-os-custom/ta/pkcs11/src/attributes.c:59
     74c:	58d3      	ldr	r3, [r2, r3]
     74e:	681a      	ldr	r2, [r3, #0]
     750:	9b05      	ldr	r3, [sp, #20]
     752:	405a      	eors	r2, r3
     754:	f04f 0300 	mov.w	r3, #0
     758:	d001      	beq.n	75e <add_attribute+0x7a>
     75a:	f015 f8b5 	bl	158c8 <__stack_chk_fail>
     75e:	b006      	add	sp, #24
     760:	bd70      	pop	{r4, r5, r6, pc}
     762:	bf00      	nop
     764:	0001b994 	.word	0x0001b994
     768:	0000000c 	.word	0x0000000c
     76c:	0001b93a 	.word	0x0001b93a

00000770 <remove_empty_attribute>:
remove_empty_attribute():
/home/aom1/Work/Linux/target/STM32MP1-DK2/buildroot/buildroot/output/build/optee-os-custom/ta/pkcs11/src/attributes.c:101
     770:	6800      	ldr	r0, [r0, #0]
     772:	2201      	movs	r2, #1
     774:	e754      	b.n	620 <_remove_attribute.isra.0>

00000776 <get_attribute_ptrs>:
get_attribute_ptrs():
/home/aom1/Work/Linux/target/STM32MP1-DK2/buildroot/buildroot/output/build/optee-os-custom/ta/pkcs11/src/attributes.c:106
     776:	e92d 4ff0 	stmdb	sp!, {r4, r5, r6, r7, r8, r9, sl, fp, lr}
     77a:	4690      	mov	r8, r2
     77c:	4a2f      	ldr	r2, [pc, #188]	; (83c <get_attribute_ptrs+0xc6>)
     77e:	b089      	sub	sp, #36	; 0x24
     780:	4699      	mov	r9, r3
/home/aom1/Work/Linux/target/STM32MP1-DK2/buildroot/buildroot/output/build/optee-os-custom/ta/pkcs11/src/attributes.c:111
     782:	2500      	movs	r5, #0
/home/aom1/Work/Linux/target/STM32MP1-DK2/buildroot/buildroot/output/build/optee-os-custom/ta/pkcs11/src/attributes.c:106
     784:	447a      	add	r2, pc
/home/aom1/Work/Linux/target/STM32MP1-DK2/buildroot/buildroot/output/build/optee-os-custom/ta/pkcs11/src/attributes.c:113
     786:	464c      	mov	r4, r9
/home/aom1/Work/Linux/target/STM32MP1-DK2/buildroot/buildroot/output/build/optee-os-custom/ta/pkcs11/src/attributes.c:106
     788:	4b2d      	ldr	r3, [pc, #180]	; (840 <get_attribute_ptrs+0xca>)
/home/aom1/Work/Linux/target/STM32MP1-DK2/buildroot/buildroot/output/build/optee-os-custom/ta/pkcs11/src/attributes.c:112
     78a:	4646      	mov	r6, r8
/home/aom1/Work/Linux/target/STM32MP1-DK2/buildroot/buildroot/output/build/optee-os-custom/ta/pkcs11/src/attributes.c:106
     78c:	9102      	str	r1, [sp, #8]
/home/aom1/Work/Linux/target/STM32MP1-DK2/buildroot/buildroot/output/build/optee-os-custom/ta/pkcs11/src/attributes.c:107
     78e:	4601      	mov	r1, r0
/home/aom1/Work/Linux/target/STM32MP1-DK2/buildroot/buildroot/output/build/optee-os-custom/ta/pkcs11/src/attributes.c:106
     790:	58d3      	ldr	r3, [r2, r3]
/home/aom1/Work/Linux/target/STM32MP1-DK2/buildroot/buildroot/output/build/optee-os-custom/ta/pkcs11/src/attributes.c:117
     792:	f10d 0a14 	add.w	sl, sp, #20
/home/aom1/Work/Linux/target/STM32MP1-DK2/buildroot/buildroot/output/build/optee-os-custom/ta/pkcs11/src/attributes.c:106
     796:	f8dd b048 	ldr.w	fp, [sp, #72]	; 0x48
     79a:	681b      	ldr	r3, [r3, #0]
     79c:	9307      	str	r3, [sp, #28]
     79e:	f04f 0300 	mov.w	r3, #0
/home/aom1/Work/Linux/target/STM32MP1-DK2/buildroot/buildroot/output/build/optee-os-custom/ta/pkcs11/src/attributes.c:108
     7a2:	f851 7b08 	ldr.w	r7, [r1], #8
/home/aom1/Work/Linux/target/STM32MP1-DK2/buildroot/buildroot/output/build/optee-os-custom/ta/pkcs11/src/attributes.c:110
     7a6:	f8db 3000 	ldr.w	r3, [fp]
/home/aom1/Work/Linux/target/STM32MP1-DK2/buildroot/buildroot/output/build/optee-os-custom/ta/pkcs11/src/attributes.c:108
     7aa:	440f      	add	r7, r1
/home/aom1/Work/Linux/target/STM32MP1-DK2/buildroot/buildroot/output/build/optee-os-custom/ta/pkcs11/src/attributes.c:110
     7ac:	9301      	str	r3, [sp, #4]
/home/aom1/Work/Linux/target/STM32MP1-DK2/buildroot/buildroot/output/build/optee-os-custom/ta/pkcs11/src/attributes.c:117
     7ae:	462b      	mov	r3, r5
/home/aom1/Work/Linux/target/STM32MP1-DK2/buildroot/buildroot/output/build/optee-os-custom/ta/pkcs11/src/attributes.c:115 (discriminator 1)
     7b0:	42b9      	cmp	r1, r7
     7b2:	d312      	bcc.n	7da <get_attribute_ptrs+0x64>
/home/aom1/Work/Linux/target/STM32MP1-DK2/buildroot/buildroot/output/build/optee-os-custom/ta/pkcs11/src/attributes.c:145
     7b4:	42b9      	cmp	r1, r7
     7b6:	d902      	bls.n	7be <get_attribute_ptrs+0x48>
/home/aom1/Work/Linux/target/STM32MP1-DK2/buildroot/buildroot/output/build/optee-os-custom/ta/pkcs11/src/attributes.c:147
     7b8:	2000      	movs	r0, #0
     7ba:	f00e fb89 	bl	eed0 <TEE_Panic>
/home/aom1/Work/Linux/target/STM32MP1-DK2/buildroot/buildroot/output/build/optee-os-custom/ta/pkcs11/src/attributes.c:106
     7be:	4a21      	ldr	r2, [pc, #132]	; (844 <get_attribute_ptrs+0xce>)
/home/aom1/Work/Linux/target/STM32MP1-DK2/buildroot/buildroot/output/build/optee-os-custom/ta/pkcs11/src/attributes.c:151
     7c0:	4b1f      	ldr	r3, [pc, #124]	; (840 <get_attribute_ptrs+0xca>)
/home/aom1/Work/Linux/target/STM32MP1-DK2/buildroot/buildroot/output/build/optee-os-custom/ta/pkcs11/src/attributes.c:106
     7c2:	447a      	add	r2, pc
/home/aom1/Work/Linux/target/STM32MP1-DK2/buildroot/buildroot/output/build/optee-os-custom/ta/pkcs11/src/attributes.c:150
     7c4:	f8cb 5000 	str.w	r5, [fp]
/home/aom1/Work/Linux/target/STM32MP1-DK2/buildroot/buildroot/output/build/optee-os-custom/ta/pkcs11/src/attributes.c:151
     7c8:	58d3      	ldr	r3, [r2, r3]
     7ca:	681a      	ldr	r2, [r3, #0]
     7cc:	9b07      	ldr	r3, [sp, #28]
     7ce:	405a      	eors	r2, r3
     7d0:	f04f 0300 	mov.w	r3, #0
     7d4:	d02f      	beq.n	836 <get_attribute_ptrs+0xc0>
     7d6:	f015 f877 	bl	158c8 <__stack_chk_fail>
/home/aom1/Work/Linux/target/STM32MP1-DK2/buildroot/buildroot/output/build/optee-os-custom/ta/pkcs11/src/attributes.c:117
     7da:	f8ca 3000 	str.w	r3, [sl]
/home/aom1/Work/Linux/target/STM32MP1-DK2/buildroot/buildroot/output/build/optee-os-custom/ta/pkcs11/src/attributes.c:119
     7de:	2208      	movs	r2, #8
/home/aom1/Work/Linux/target/STM32MP1-DK2/buildroot/buildroot/output/build/optee-os-custom/ta/pkcs11/src/attributes.c:117
     7e0:	f8ca 3004 	str.w	r3, [sl, #4]
/home/aom1/Work/Linux/target/STM32MP1-DK2/buildroot/buildroot/output/build/optee-os-custom/ta/pkcs11/src/attributes.c:119
     7e4:	4650      	mov	r0, sl
     7e6:	9103      	str	r1, [sp, #12]
     7e8:	f7ff fe76 	bl	4d8 <TEE_MemMove>
/home/aom1/Work/Linux/target/STM32MP1-DK2/buildroot/buildroot/output/build/optee-os-custom/ta/pkcs11/src/attributes.c:122
     7ec:	9b02      	ldr	r3, [sp, #8]
     7ee:	9805      	ldr	r0, [sp, #20]
/home/aom1/Work/Linux/target/STM32MP1-DK2/buildroot/buildroot/output/build/optee-os-custom/ta/pkcs11/src/attributes.c:120
     7f0:	9a06      	ldr	r2, [sp, #24]
/home/aom1/Work/Linux/target/STM32MP1-DK2/buildroot/buildroot/output/build/optee-os-custom/ta/pkcs11/src/attributes.c:122
     7f2:	4298      	cmp	r0, r3
     7f4:	f04f 0300 	mov.w	r3, #0
     7f8:	9903      	ldr	r1, [sp, #12]
/home/aom1/Work/Linux/target/STM32MP1-DK2/buildroot/buildroot/output/build/optee-os-custom/ta/pkcs11/src/attributes.c:120
     7fa:	f102 0c08 	add.w	ip, r2, #8
/home/aom1/Work/Linux/target/STM32MP1-DK2/buildroot/buildroot/output/build/optee-os-custom/ta/pkcs11/src/attributes.c:122
     7fe:	d114      	bne.n	82a <get_attribute_ptrs+0xb4>
/home/aom1/Work/Linux/target/STM32MP1-DK2/buildroot/buildroot/output/build/optee-os-custom/ta/pkcs11/src/attributes.c:127
     800:	9801      	ldr	r0, [sp, #4]
/home/aom1/Work/Linux/target/STM32MP1-DK2/buildroot/buildroot/output/build/optee-os-custom/ta/pkcs11/src/attributes.c:125
     802:	3501      	adds	r5, #1
/home/aom1/Work/Linux/target/STM32MP1-DK2/buildroot/buildroot/output/build/optee-os-custom/ta/pkcs11/src/attributes.c:127
     804:	b188      	cbz	r0, 82a <get_attribute_ptrs+0xb4>
/home/aom1/Work/Linux/target/STM32MP1-DK2/buildroot/buildroot/output/build/optee-os-custom/ta/pkcs11/src/attributes.c:130
     806:	f1b8 0f00 	cmp.w	r8, #0
     80a:	d012      	beq.n	832 <get_attribute_ptrs+0xbc>
/home/aom1/Work/Linux/target/STM32MP1-DK2/buildroot/buildroot/output/build/optee-os-custom/ta/pkcs11/src/attributes.c:132
     80c:	1d30      	adds	r0, r6, #4
/home/aom1/Work/Linux/target/STM32MP1-DK2/buildroot/buildroot/output/build/optee-os-custom/ta/pkcs11/src/attributes.c:131
     80e:	b172      	cbz	r2, 82e <get_attribute_ptrs+0xb8>
/home/aom1/Work/Linux/target/STM32MP1-DK2/buildroot/buildroot/output/build/optee-os-custom/ta/pkcs11/src/attributes.c:132
     810:	f101 0e08 	add.w	lr, r1, #8
     814:	f8c6 e000 	str.w	lr, [r6]
/home/aom1/Work/Linux/target/STM32MP1-DK2/buildroot/buildroot/output/build/optee-os-custom/ta/pkcs11/src/attributes.c:137
     818:	f1b9 0f00 	cmp.w	r9, #0
     81c:	d001      	beq.n	822 <get_attribute_ptrs+0xac>
/home/aom1/Work/Linux/target/STM32MP1-DK2/buildroot/buildroot/output/build/optee-os-custom/ta/pkcs11/src/attributes.c:138
     81e:	f844 2b04 	str.w	r2, [r4], #4
/home/aom1/Work/Linux/target/STM32MP1-DK2/buildroot/buildroot/output/build/optee-os-custom/ta/pkcs11/src/attributes.c:140
     822:	9a01      	ldr	r2, [sp, #4]
     824:	42aa      	cmp	r2, r5
     826:	d0c5      	beq.n	7b4 <get_attribute_ptrs+0x3e>
     828:	4606      	mov	r6, r0
/home/aom1/Work/Linux/target/STM32MP1-DK2/buildroot/buildroot/output/build/optee-os-custom/ta/pkcs11/src/attributes.c:115
     82a:	4461      	add	r1, ip
     82c:	e7c0      	b.n	7b0 <get_attribute_ptrs+0x3a>
/home/aom1/Work/Linux/target/STM32MP1-DK2/buildroot/buildroot/output/build/optee-os-custom/ta/pkcs11/src/attributes.c:134
     82e:	6032      	str	r2, [r6, #0]
     830:	e7f2      	b.n	818 <get_attribute_ptrs+0xa2>
     832:	4630      	mov	r0, r6
     834:	e7f0      	b.n	818 <get_attribute_ptrs+0xa2>
/home/aom1/Work/Linux/target/STM32MP1-DK2/buildroot/buildroot/output/build/optee-os-custom/ta/pkcs11/src/attributes.c:151
     836:	b009      	add	sp, #36	; 0x24
     838:	e8bd 8ff0 	ldmia.w	sp!, {r4, r5, r6, r7, r8, r9, sl, fp, pc}
     83c:	0001b900 	.word	0x0001b900
     840:	0000000c 	.word	0x0000000c
     844:	0001b8c2 	.word	0x0001b8c2

00000848 <get_attribute_ptr>:
get_attribute_ptr():
/home/aom1/Work/Linux/target/STM32MP1-DK2/buildroot/buildroot/output/build/optee-os-custom/ta/pkcs11/src/attributes.c:155
     848:	f8df c04c 	ldr.w	ip, [pc, #76]	; 898 <get_attribute_ptr+0x50>
     84c:	b51f      	push	{r0, r1, r2, r3, r4, lr}
     84e:	44fc      	add	ip, pc
     850:	4c12      	ldr	r4, [pc, #72]	; (89c <get_attribute_ptr+0x54>)
     852:	f85c 4004 	ldr.w	r4, [ip, r4]
     856:	6824      	ldr	r4, [r4, #0]
     858:	9403      	str	r4, [sp, #12]
     85a:	f04f 0400 	mov.w	r4, #0
/home/aom1/Work/Linux/target/STM32MP1-DK2/buildroot/buildroot/output/build/optee-os-custom/ta/pkcs11/src/attributes.c:156
     85e:	2401      	movs	r4, #1
     860:	9402      	str	r4, [sp, #8]
/home/aom1/Work/Linux/target/STM32MP1-DK2/buildroot/buildroot/output/build/optee-os-custom/ta/pkcs11/src/attributes.c:158
     862:	ac02      	add	r4, sp, #8
     864:	9400      	str	r4, [sp, #0]
     866:	f7ff ff86 	bl	776 <get_attribute_ptrs>
/home/aom1/Work/Linux/target/STM32MP1-DK2/buildroot/buildroot/output/build/optee-os-custom/ta/pkcs11/src/attributes.c:160
     86a:	9b02      	ldr	r3, [sp, #8]
     86c:	b17b      	cbz	r3, 88e <get_attribute_ptr+0x46>
/home/aom1/Work/Linux/target/STM32MP1-DK2/buildroot/buildroot/output/build/optee-os-custom/ta/pkcs11/src/attributes.c:164
     86e:	2b01      	cmp	r3, #1
     870:	bf0c      	ite	eq
     872:	2000      	moveq	r0, #0
     874:	2005      	movne	r0, #5
/home/aom1/Work/Linux/target/STM32MP1-DK2/buildroot/buildroot/output/build/optee-os-custom/ta/pkcs11/src/attributes.c:155
     876:	4a0a      	ldr	r2, [pc, #40]	; (8a0 <get_attribute_ptr+0x58>)
/home/aom1/Work/Linux/target/STM32MP1-DK2/buildroot/buildroot/output/build/optee-os-custom/ta/pkcs11/src/attributes.c:167
     878:	4b08      	ldr	r3, [pc, #32]	; (89c <get_attribute_ptr+0x54>)
/home/aom1/Work/Linux/target/STM32MP1-DK2/buildroot/buildroot/output/build/optee-os-custom/ta/pkcs11/src/attributes.c:155
     87a:	447a      	add	r2, pc
/home/aom1/Work/Linux/target/STM32MP1-DK2/buildroot/buildroot/output/build/optee-os-custom/ta/pkcs11/src/attributes.c:167
     87c:	58d3      	ldr	r3, [r2, r3]
     87e:	681a      	ldr	r2, [r3, #0]
     880:	9b03      	ldr	r3, [sp, #12]
     882:	405a      	eors	r2, r3
     884:	f04f 0300 	mov.w	r3, #0
     888:	d004      	beq.n	894 <get_attribute_ptr+0x4c>
     88a:	f015 f81d 	bl	158c8 <__stack_chk_fail>
/home/aom1/Work/Linux/target/STM32MP1-DK2/buildroot/buildroot/output/build/optee-os-custom/ta/pkcs11/src/attributes.c:161
     88e:	f04f 4000 	mov.w	r0, #2147483648	; 0x80000000
     892:	e7f0      	b.n	876 <get_attribute_ptr+0x2e>
/home/aom1/Work/Linux/target/STM32MP1-DK2/buildroot/buildroot/output/build/optee-os-custom/ta/pkcs11/src/attributes.c:167
     894:	b004      	add	sp, #16
     896:	bd10      	pop	{r4, pc}
     898:	0001b836 	.word	0x0001b836
     89c:	0000000c 	.word	0x0000000c
     8a0:	0001b80a 	.word	0x0001b80a

000008a4 <get_attribute>:
get_attribute():
/home/aom1/Work/Linux/target/STM32MP1-DK2/buildroot/buildroot/output/build/optee-os-custom/ta/pkcs11/src/attributes.c:171
     8a4:	b57f      	push	{r0, r1, r2, r3, r4, r5, r6, lr}
     8a6:	4616      	mov	r6, r2
     8a8:	4a1b      	ldr	r2, [pc, #108]	; (918 <get_attribute+0x74>)
     8aa:	461c      	mov	r4, r3
     8ac:	4b1b      	ldr	r3, [pc, #108]	; (91c <get_attribute+0x78>)
     8ae:	447a      	add	r2, pc
     8b0:	58d3      	ldr	r3, [r2, r3]
/home/aom1/Work/Linux/target/STM32MP1-DK2/buildroot/buildroot/output/build/optee-os-custom/ta/pkcs11/src/attributes.c:176
     8b2:	aa01      	add	r2, sp, #4
/home/aom1/Work/Linux/target/STM32MP1-DK2/buildroot/buildroot/output/build/optee-os-custom/ta/pkcs11/src/attributes.c:171
     8b4:	681b      	ldr	r3, [r3, #0]
     8b6:	9303      	str	r3, [sp, #12]
     8b8:	f04f 0300 	mov.w	r3, #0
/home/aom1/Work/Linux/target/STM32MP1-DK2/buildroot/buildroot/output/build/optee-os-custom/ta/pkcs11/src/attributes.c:173
     8bc:	2300      	movs	r3, #0
     8be:	9301      	str	r3, [sp, #4]
/home/aom1/Work/Linux/target/STM32MP1-DK2/buildroot/buildroot/output/build/optee-os-custom/ta/pkcs11/src/attributes.c:174
     8c0:	9302      	str	r3, [sp, #8]
/home/aom1/Work/Linux/target/STM32MP1-DK2/buildroot/buildroot/output/build/optee-os-custom/ta/pkcs11/src/attributes.c:176
     8c2:	ab02      	add	r3, sp, #8
     8c4:	f7ff ffc0 	bl	848 <get_attribute_ptr>
/home/aom1/Work/Linux/target/STM32MP1-DK2/buildroot/buildroot/output/build/optee-os-custom/ta/pkcs11/src/attributes.c:177
     8c8:	4605      	mov	r5, r0
     8ca:	b938      	cbnz	r0, 8dc <get_attribute+0x38>
/home/aom1/Work/Linux/target/STM32MP1-DK2/buildroot/buildroot/output/build/optee-os-custom/ta/pkcs11/src/attributes.c:180
     8cc:	b1ec      	cbz	r4, 90a <get_attribute+0x66>
/home/aom1/Work/Linux/target/STM32MP1-DK2/buildroot/buildroot/output/build/optee-os-custom/ta/pkcs11/src/attributes.c:180 (discriminator 1)
     8ce:	9b02      	ldr	r3, [sp, #8]
     8d0:	6822      	ldr	r2, [r4, #0]
     8d2:	429a      	cmp	r2, r3
     8d4:	d20e      	bcs.n	8f4 <get_attribute+0x50>
/home/aom1/Work/Linux/target/STM32MP1-DK2/buildroot/buildroot/output/build/optee-os-custom/ta/pkcs11/src/attributes.c:181
     8d6:	6023      	str	r3, [r4, #0]
/home/aom1/Work/Linux/target/STM32MP1-DK2/buildroot/buildroot/output/build/optee-os-custom/ta/pkcs11/src/attributes.c:183
     8d8:	f44f 75a8 	mov.w	r5, #336	; 0x150
/home/aom1/Work/Linux/target/STM32MP1-DK2/buildroot/buildroot/output/build/optee-os-custom/ta/pkcs11/src/attributes.c:171
     8dc:	4a10      	ldr	r2, [pc, #64]	; (920 <get_attribute+0x7c>)
/home/aom1/Work/Linux/target/STM32MP1-DK2/buildroot/buildroot/output/build/optee-os-custom/ta/pkcs11/src/attributes.c:193
     8de:	4b0f      	ldr	r3, [pc, #60]	; (91c <get_attribute+0x78>)
/home/aom1/Work/Linux/target/STM32MP1-DK2/buildroot/buildroot/output/build/optee-os-custom/ta/pkcs11/src/attributes.c:171
     8e0:	447a      	add	r2, pc
/home/aom1/Work/Linux/target/STM32MP1-DK2/buildroot/buildroot/output/build/optee-os-custom/ta/pkcs11/src/attributes.c:193
     8e2:	58d3      	ldr	r3, [r2, r3]
     8e4:	681a      	ldr	r2, [r3, #0]
     8e6:	9b03      	ldr	r3, [sp, #12]
     8e8:	405a      	eors	r2, r3
     8ea:	f04f 0300 	mov.w	r3, #0
     8ee:	d00f      	beq.n	910 <get_attribute+0x6c>
     8f0:	f014 ffea 	bl	158c8 <__stack_chk_fail>
/home/aom1/Work/Linux/target/STM32MP1-DK2/buildroot/buildroot/output/build/optee-os-custom/ta/pkcs11/src/attributes.c:186
     8f4:	b136      	cbz	r6, 904 <get_attribute+0x60>
/home/aom1/Work/Linux/target/STM32MP1-DK2/buildroot/buildroot/output/build/optee-os-custom/ta/pkcs11/src/attributes.c:187
     8f6:	9a02      	ldr	r2, [sp, #8]
     8f8:	4630      	mov	r0, r6
     8fa:	9901      	ldr	r1, [sp, #4]
     8fc:	f7ff fdec 	bl	4d8 <TEE_MemMove>
/home/aom1/Work/Linux/target/STM32MP1-DK2/buildroot/buildroot/output/build/optee-os-custom/ta/pkcs11/src/attributes.c:189
     900:	2c00      	cmp	r4, #0
     902:	d0eb      	beq.n	8dc <get_attribute+0x38>
/home/aom1/Work/Linux/target/STM32MP1-DK2/buildroot/buildroot/output/build/optee-os-custom/ta/pkcs11/src/attributes.c:190
     904:	9b02      	ldr	r3, [sp, #8]
     906:	6023      	str	r3, [r4, #0]
     908:	e7e8      	b.n	8dc <get_attribute+0x38>
/home/aom1/Work/Linux/target/STM32MP1-DK2/buildroot/buildroot/output/build/optee-os-custom/ta/pkcs11/src/attributes.c:186
     90a:	2e00      	cmp	r6, #0
     90c:	d1f3      	bne.n	8f6 <get_attribute+0x52>
     90e:	e7e5      	b.n	8dc <get_attribute+0x38>
/home/aom1/Work/Linux/target/STM32MP1-DK2/buildroot/buildroot/output/build/optee-os-custom/ta/pkcs11/src/attributes.c:193
     910:	4628      	mov	r0, r5
     912:	b004      	add	sp, #16
     914:	bd70      	pop	{r4, r5, r6, pc}
     916:	bf00      	nop
     918:	0001b7d6 	.word	0x0001b7d6
     91c:	0000000c 	.word	0x0000000c
     920:	0001b7a4 	.word	0x0001b7a4

00000924 <set_attribute>:
set_attribute():
/home/aom1/Work/Linux/target/STM32MP1-DK2/buildroot/buildroot/output/build/optee-os-custom/ta/pkcs11/src/attributes.c:197
     924:	b573      	push	{r0, r1, r4, r5, r6, lr}
     926:	4604      	mov	r4, r0
/home/aom1/Work/Linux/target/STM32MP1-DK2/buildroot/buildroot/output/build/optee-os-custom/ta/pkcs11/src/attributes.c:200
     928:	6800      	ldr	r0, [r0, #0]
/home/aom1/Work/Linux/target/STM32MP1-DK2/buildroot/buildroot/output/build/optee-os-custom/ta/pkcs11/src/attributes.c:197
     92a:	4616      	mov	r6, r2
     92c:	9301      	str	r3, [sp, #4]
/home/aom1/Work/Linux/target/STM32MP1-DK2/buildroot/buildroot/output/build/optee-os-custom/ta/pkcs11/src/attributes.c:200
     92e:	2200      	movs	r2, #0
/home/aom1/Work/Linux/target/STM32MP1-DK2/buildroot/buildroot/output/build/optee-os-custom/ta/pkcs11/src/attributes.c:197
     930:	460d      	mov	r5, r1
/home/aom1/Work/Linux/target/STM32MP1-DK2/buildroot/buildroot/output/build/optee-os-custom/ta/pkcs11/src/attributes.c:200
     932:	f7ff fe75 	bl	620 <_remove_attribute.isra.0>
/home/aom1/Work/Linux/target/STM32MP1-DK2/buildroot/buildroot/output/build/optee-os-custom/ta/pkcs11/src/attributes.c:201
     936:	f030 4300 	bics.w	r3, r0, #2147483648	; 0x80000000
     93a:	9b01      	ldr	r3, [sp, #4]
     93c:	d107      	bne.n	94e <set_attribute+0x2a>
/home/aom1/Work/Linux/target/STM32MP1-DK2/buildroot/buildroot/output/build/optee-os-custom/ta/pkcs11/src/attributes.c:204
     93e:	4632      	mov	r2, r6
     940:	4629      	mov	r1, r5
     942:	4620      	mov	r0, r4
/home/aom1/Work/Linux/target/STM32MP1-DK2/buildroot/buildroot/output/build/optee-os-custom/ta/pkcs11/src/attributes.c:205
     944:	b002      	add	sp, #8
     946:	e8bd 4070 	ldmia.w	sp!, {r4, r5, r6, lr}
/home/aom1/Work/Linux/target/STM32MP1-DK2/buildroot/buildroot/output/build/optee-os-custom/ta/pkcs11/src/attributes.c:204
     94a:	f7ff becb 	b.w	6e4 <add_attribute>
/home/aom1/Work/Linux/target/STM32MP1-DK2/buildroot/buildroot/output/build/optee-os-custom/ta/pkcs11/src/attributes.c:205
     94e:	b002      	add	sp, #8
     950:	bd70      	pop	{r4, r5, r6, pc}

00000952 <modify_attributes_list>:
modify_attributes_list():
/home/aom1/Work/Linux/target/STM32MP1-DK2/buildroot/buildroot/output/build/optee-os-custom/ta/pkcs11/src/attributes.c:209
     952:	4a1f      	ldr	r2, [pc, #124]	; (9d0 <modify_attributes_list+0x7e>)
     954:	e92d 43f0 	stmdb	sp!, {r4, r5, r6, r7, r8, r9, lr}
/home/aom1/Work/Linux/target/STM32MP1-DK2/buildroot/buildroot/output/build/optee-os-custom/ta/pkcs11/src/attributes.c:210
     958:	460c      	mov	r4, r1
/home/aom1/Work/Linux/target/STM32MP1-DK2/buildroot/buildroot/output/build/optee-os-custom/ta/pkcs11/src/attributes.c:209
     95a:	447a      	add	r2, pc
     95c:	b085      	sub	sp, #20
     95e:	4b1d      	ldr	r3, [pc, #116]	; (9d4 <modify_attributes_list+0x82>)
     960:	4606      	mov	r6, r0
/home/aom1/Work/Linux/target/STM32MP1-DK2/buildroot/buildroot/output/build/optee-os-custom/ta/pkcs11/src/attributes.c:211
     962:	f854 5b08 	ldr.w	r5, [r4], #8
     966:	f04f 0800 	mov.w	r8, #0
/home/aom1/Work/Linux/target/STM32MP1-DK2/buildroot/buildroot/output/build/optee-os-custom/ta/pkcs11/src/attributes.c:209
     96a:	58d3      	ldr	r3, [r2, r3]
/home/aom1/Work/Linux/target/STM32MP1-DK2/buildroot/buildroot/output/build/optee-os-custom/ta/pkcs11/src/attributes.c:218
     96c:	af01      	add	r7, sp, #4
/home/aom1/Work/Linux/target/STM32MP1-DK2/buildroot/buildroot/output/build/optee-os-custom/ta/pkcs11/src/attributes.c:211
     96e:	4425      	add	r5, r4
/home/aom1/Work/Linux/target/STM32MP1-DK2/buildroot/buildroot/output/build/optee-os-custom/ta/pkcs11/src/attributes.c:209
     970:	681b      	ldr	r3, [r3, #0]
     972:	9303      	str	r3, [sp, #12]
     974:	f04f 0300 	mov.w	r3, #0
/home/aom1/Work/Linux/target/STM32MP1-DK2/buildroot/buildroot/output/build/optee-os-custom/ta/pkcs11/src/attributes.c:215 (discriminator 1)
     978:	42ac      	cmp	r4, r5
     97a:	d30c      	bcc.n	996 <modify_attributes_list+0x44>
/home/aom1/Work/Linux/target/STM32MP1-DK2/buildroot/buildroot/output/build/optee-os-custom/ta/pkcs11/src/attributes.c:230
     97c:	2000      	movs	r0, #0
/home/aom1/Work/Linux/target/STM32MP1-DK2/buildroot/buildroot/output/build/optee-os-custom/ta/pkcs11/src/attributes.c:209
     97e:	4a16      	ldr	r2, [pc, #88]	; (9d8 <modify_attributes_list+0x86>)
/home/aom1/Work/Linux/target/STM32MP1-DK2/buildroot/buildroot/output/build/optee-os-custom/ta/pkcs11/src/attributes.c:231
     980:	4b14      	ldr	r3, [pc, #80]	; (9d4 <modify_attributes_list+0x82>)
/home/aom1/Work/Linux/target/STM32MP1-DK2/buildroot/buildroot/output/build/optee-os-custom/ta/pkcs11/src/attributes.c:209
     982:	447a      	add	r2, pc
/home/aom1/Work/Linux/target/STM32MP1-DK2/buildroot/buildroot/output/build/optee-os-custom/ta/pkcs11/src/attributes.c:231
     984:	58d3      	ldr	r3, [r2, r3]
     986:	681a      	ldr	r2, [r3, #0]
     988:	9b03      	ldr	r3, [sp, #12]
     98a:	405a      	eors	r2, r3
     98c:	f04f 0300 	mov.w	r3, #0
     990:	d01a      	beq.n	9c8 <modify_attributes_list+0x76>
     992:	f014 ff99 	bl	158c8 <__stack_chk_fail>
/home/aom1/Work/Linux/target/STM32MP1-DK2/buildroot/buildroot/output/build/optee-os-custom/ta/pkcs11/src/attributes.c:218
     996:	f8c7 8000 	str.w	r8, [r7]
/home/aom1/Work/Linux/target/STM32MP1-DK2/buildroot/buildroot/output/build/optee-os-custom/ta/pkcs11/src/attributes.c:220
     99a:	4621      	mov	r1, r4
/home/aom1/Work/Linux/target/STM32MP1-DK2/buildroot/buildroot/output/build/optee-os-custom/ta/pkcs11/src/attributes.c:218
     99c:	f8c7 8004 	str.w	r8, [r7, #4]
/home/aom1/Work/Linux/target/STM32MP1-DK2/buildroot/buildroot/output/build/optee-os-custom/ta/pkcs11/src/attributes.c:220
     9a0:	2208      	movs	r2, #8
     9a2:	4638      	mov	r0, r7
     9a4:	f7ff fd98 	bl	4d8 <TEE_MemMove>
/home/aom1/Work/Linux/target/STM32MP1-DK2/buildroot/buildroot/output/build/optee-os-custom/ta/pkcs11/src/attributes.c:221
     9a8:	9b02      	ldr	r3, [sp, #8]
/home/aom1/Work/Linux/target/STM32MP1-DK2/buildroot/buildroot/output/build/optee-os-custom/ta/pkcs11/src/attributes.c:223
     9aa:	9901      	ldr	r1, [sp, #4]
/home/aom1/Work/Linux/target/STM32MP1-DK2/buildroot/buildroot/output/build/optee-os-custom/ta/pkcs11/src/attributes.c:221
     9ac:	f103 0908 	add.w	r9, r3, #8
/home/aom1/Work/Linux/target/STM32MP1-DK2/buildroot/buildroot/output/build/optee-os-custom/ta/pkcs11/src/attributes.c:223
     9b0:	b143      	cbz	r3, 9c4 <modify_attributes_list+0x72>
/home/aom1/Work/Linux/target/STM32MP1-DK2/buildroot/buildroot/output/build/optee-os-custom/ta/pkcs11/src/attributes.c:223 (discriminator 1)
     9b2:	f104 0208 	add.w	r2, r4, #8
/home/aom1/Work/Linux/target/STM32MP1-DK2/buildroot/buildroot/output/build/optee-os-custom/ta/pkcs11/src/attributes.c:223 (discriminator 4)
     9b6:	4630      	mov	r0, r6
     9b8:	f7ff ffb4 	bl	924 <set_attribute>
/home/aom1/Work/Linux/target/STM32MP1-DK2/buildroot/buildroot/output/build/optee-os-custom/ta/pkcs11/src/attributes.c:226 (discriminator 4)
     9bc:	2800      	cmp	r0, #0
     9be:	d1de      	bne.n	97e <modify_attributes_list+0x2c>
/home/aom1/Work/Linux/target/STM32MP1-DK2/buildroot/buildroot/output/build/optee-os-custom/ta/pkcs11/src/attributes.c:215
     9c0:	444c      	add	r4, r9
     9c2:	e7d9      	b.n	978 <modify_attributes_list+0x26>
/home/aom1/Work/Linux/target/STM32MP1-DK2/buildroot/buildroot/output/build/optee-os-custom/ta/pkcs11/src/attributes.c:223
     9c4:	461a      	mov	r2, r3
     9c6:	e7f6      	b.n	9b6 <modify_attributes_list+0x64>
/home/aom1/Work/Linux/target/STM32MP1-DK2/buildroot/buildroot/output/build/optee-os-custom/ta/pkcs11/src/attributes.c:231
     9c8:	b005      	add	sp, #20
     9ca:	e8bd 83f0 	ldmia.w	sp!, {r4, r5, r6, r7, r8, r9, pc}
     9ce:	bf00      	nop
     9d0:	0001b72a 	.word	0x0001b72a
     9d4:	0000000c 	.word	0x0000000c
     9d8:	0001b702 	.word	0x0001b702

000009dc <get_bool>:
get_bool():
/home/aom1/Work/Linux/target/STM32MP1-DK2/buildroot/buildroot/output/build/optee-os-custom/ta/pkcs11/src/attributes.c:234
     9dc:	b51f      	push	{r0, r1, r2, r3, r4, lr}
/home/aom1/Work/Linux/target/STM32MP1-DK2/buildroot/buildroot/output/build/optee-os-custom/ta/pkcs11/src/attributes.c:236
     9de:	2400      	movs	r4, #0
/home/aom1/Work/Linux/target/STM32MP1-DK2/buildroot/buildroot/output/build/optee-os-custom/ta/pkcs11/src/attributes.c:234
     9e0:	4a1a      	ldr	r2, [pc, #104]	; (a4c <get_bool+0x70>)
     9e2:	4b1b      	ldr	r3, [pc, #108]	; (a50 <get_bool+0x74>)
     9e4:	447a      	add	r2, pc
     9e6:	58d3      	ldr	r3, [r2, r3]
/home/aom1/Work/Linux/target/STM32MP1-DK2/buildroot/buildroot/output/build/optee-os-custom/ta/pkcs11/src/attributes.c:239
     9e8:	f10d 0207 	add.w	r2, sp, #7
/home/aom1/Work/Linux/target/STM32MP1-DK2/buildroot/buildroot/output/build/optee-os-custom/ta/pkcs11/src/attributes.c:234
     9ec:	681b      	ldr	r3, [r3, #0]
     9ee:	9303      	str	r3, [sp, #12]
     9f0:	f04f 0300 	mov.w	r3, #0
/home/aom1/Work/Linux/target/STM32MP1-DK2/buildroot/buildroot/output/build/optee-os-custom/ta/pkcs11/src/attributes.c:237
     9f4:	2301      	movs	r3, #1
     9f6:	9302      	str	r3, [sp, #8]
/home/aom1/Work/Linux/target/STM32MP1-DK2/buildroot/buildroot/output/build/optee-os-custom/ta/pkcs11/src/attributes.c:239
     9f8:	ab02      	add	r3, sp, #8
/home/aom1/Work/Linux/target/STM32MP1-DK2/buildroot/buildroot/output/build/optee-os-custom/ta/pkcs11/src/attributes.c:236
     9fa:	f88d 4007 	strb.w	r4, [sp, #7]
/home/aom1/Work/Linux/target/STM32MP1-DK2/buildroot/buildroot/output/build/optee-os-custom/ta/pkcs11/src/attributes.c:239
     9fe:	f7ff ff51 	bl	8a4 <get_attribute>
/home/aom1/Work/Linux/target/STM32MP1-DK2/buildroot/buildroot/output/build/optee-os-custom/ta/pkcs11/src/attributes.c:241
     a02:	f1b0 4f00 	cmp.w	r0, #2147483648	; 0x80000000
     a06:	d01c      	beq.n	a42 <get_bool+0x66>
/home/aom1/Work/Linux/target/STM32MP1-DK2/buildroot/buildroot/output/build/optee-os-custom/ta/pkcs11/src/attributes.c:244
     a08:	b150      	cbz	r0, a20 <get_bool+0x44>
/home/aom1/Work/Linux/target/STM32MP1-DK2/buildroot/buildroot/output/build/optee-os-custom/ta/pkcs11/src/attributes.c:244 (discriminator 1)
     a0a:	4b12      	ldr	r3, [pc, #72]	; (a54 <get_bool+0x78>)
     a0c:	22f4      	movs	r2, #244	; 0xf4
     a0e:	4912      	ldr	r1, [pc, #72]	; (a58 <get_bool+0x7c>)
     a10:	4812      	ldr	r0, [pc, #72]	; (a5c <get_bool+0x80>)
     a12:	447b      	add	r3, pc
     a14:	4479      	add	r1, pc
     a16:	4478      	add	r0, pc
     a18:	f00b fbda 	bl	c1d0 <_assert_log>
     a1c:	f00b fbec 	bl	c1f8 <_assert_break>
/home/aom1/Work/Linux/target/STM32MP1-DK2/buildroot/buildroot/output/build/optee-os-custom/ta/pkcs11/src/attributes.c:245 (discriminator 2)
     a20:	f89d 0007 	ldrb.w	r0, [sp, #7]
     a24:	3800      	subs	r0, #0
     a26:	bf18      	it	ne
     a28:	2001      	movne	r0, #1
/home/aom1/Work/Linux/target/STM32MP1-DK2/buildroot/buildroot/output/build/optee-os-custom/ta/pkcs11/src/attributes.c:234
     a2a:	4a0d      	ldr	r2, [pc, #52]	; (a60 <get_bool+0x84>)
/home/aom1/Work/Linux/target/STM32MP1-DK2/buildroot/buildroot/output/build/optee-os-custom/ta/pkcs11/src/attributes.c:246
     a2c:	4b08      	ldr	r3, [pc, #32]	; (a50 <get_bool+0x74>)
/home/aom1/Work/Linux/target/STM32MP1-DK2/buildroot/buildroot/output/build/optee-os-custom/ta/pkcs11/src/attributes.c:234
     a2e:	447a      	add	r2, pc
/home/aom1/Work/Linux/target/STM32MP1-DK2/buildroot/buildroot/output/build/optee-os-custom/ta/pkcs11/src/attributes.c:246
     a30:	58d3      	ldr	r3, [r2, r3]
     a32:	681a      	ldr	r2, [r3, #0]
     a34:	9b03      	ldr	r3, [sp, #12]
     a36:	405a      	eors	r2, r3
     a38:	f04f 0300 	mov.w	r3, #0
     a3c:	d003      	beq.n	a46 <get_bool+0x6a>
     a3e:	f014 ff43 	bl	158c8 <__stack_chk_fail>
/home/aom1/Work/Linux/target/STM32MP1-DK2/buildroot/buildroot/output/build/optee-os-custom/ta/pkcs11/src/attributes.c:242
     a42:	4620      	mov	r0, r4
     a44:	e7f1      	b.n	a2a <get_bool+0x4e>
/home/aom1/Work/Linux/target/STM32MP1-DK2/buildroot/buildroot/output/build/optee-os-custom/ta/pkcs11/src/attributes.c:246
     a46:	b004      	add	sp, #16
     a48:	bd10      	pop	{r4, pc}
     a4a:	bf00      	nop
     a4c:	0001b6a0 	.word	0x0001b6a0
     a50:	0000000c 	.word	0x0000000c
     a54:	00015d4a 	.word	0x00015d4a
     a58:	00015cd4 	.word	0x00015cd4
     a5c:	00015ced 	.word	0x00015ced
     a60:	0001b656 	.word	0x0001b656

00000a64 <attributes_match_reference>:
attributes_match_reference():
/home/aom1/Work/Linux/target/STM32MP1-DK2/buildroot/buildroot/output/build/optee-os-custom/ta/pkcs11/src/attributes.c:250
     a64:	4a26      	ldr	r2, [pc, #152]	; (b00 <attributes_match_reference+0x9c>)
     a66:	4b27      	ldr	r3, [pc, #156]	; (b04 <attributes_match_reference+0xa0>)
     a68:	447a      	add	r2, pc
     a6a:	e92d 43f0 	stmdb	sp!, {r4, r5, r6, r7, r8, r9, lr}
     a6e:	b087      	sub	sp, #28
     a70:	58d3      	ldr	r3, [r2, r3]
     a72:	4680      	mov	r8, r0
     a74:	460c      	mov	r4, r1
     a76:	681b      	ldr	r3, [r3, #0]
     a78:	9305      	str	r3, [sp, #20]
     a7a:	f04f 0300 	mov.w	r3, #0
/home/aom1/Work/Linux/target/STM32MP1-DK2/buildroot/buildroot/output/build/optee-os-custom/ta/pkcs11/src/attributes.c:255
     a7e:	684b      	ldr	r3, [r1, #4]
     a80:	2b00      	cmp	r3, #0
     a82:	d038      	beq.n	af6 <attributes_match_reference+0x92>
/home/aom1/Work/Linux/target/STM32MP1-DK2/buildroot/buildroot/output/build/optee-os-custom/ta/pkcs11/src/attributes.c:260
     a84:	2500      	movs	r5, #0
/home/aom1/Work/Linux/target/STM32MP1-DK2/buildroot/buildroot/output/build/optee-os-custom/ta/pkcs11/src/attributes.c:252
     a86:	f101 0608 	add.w	r6, r1, #8
/home/aom1/Work/Linux/target/STM32MP1-DK2/buildroot/buildroot/output/build/optee-os-custom/ta/pkcs11/src/attributes.c:261
     a8a:	f10d 090c 	add.w	r9, sp, #12
     a8e:	462f      	mov	r7, r5
     a90:	f8c9 7000 	str.w	r7, [r9]
/home/aom1/Work/Linux/target/STM32MP1-DK2/buildroot/buildroot/output/build/optee-os-custom/ta/pkcs11/src/attributes.c:265
     a94:	2208      	movs	r2, #8
/home/aom1/Work/Linux/target/STM32MP1-DK2/buildroot/buildroot/output/build/optee-os-custom/ta/pkcs11/src/attributes.c:261
     a96:	f8c9 7004 	str.w	r7, [r9, #4]
/home/aom1/Work/Linux/target/STM32MP1-DK2/buildroot/buildroot/output/build/optee-os-custom/ta/pkcs11/src/attributes.c:265
     a9a:	4631      	mov	r1, r6
/home/aom1/Work/Linux/target/STM32MP1-DK2/buildroot/buildroot/output/build/optee-os-custom/ta/pkcs11/src/attributes.c:262
     a9c:	9701      	str	r7, [sp, #4]
/home/aom1/Work/Linux/target/STM32MP1-DK2/buildroot/buildroot/output/build/optee-os-custom/ta/pkcs11/src/attributes.c:265
     a9e:	4648      	mov	r0, r9
/home/aom1/Work/Linux/target/STM32MP1-DK2/buildroot/buildroot/output/build/optee-os-custom/ta/pkcs11/src/attributes.c:263
     aa0:	9702      	str	r7, [sp, #8]
/home/aom1/Work/Linux/target/STM32MP1-DK2/buildroot/buildroot/output/build/optee-os-custom/ta/pkcs11/src/attributes.c:265
     aa2:	f7ff fd19 	bl	4d8 <TEE_MemMove>
/home/aom1/Work/Linux/target/STM32MP1-DK2/buildroot/buildroot/output/build/optee-os-custom/ta/pkcs11/src/attributes.c:267
     aa6:	9903      	ldr	r1, [sp, #12]
     aa8:	ab02      	add	r3, sp, #8
     aaa:	aa01      	add	r2, sp, #4
     aac:	4640      	mov	r0, r8
     aae:	f7ff fecb 	bl	848 <get_attribute_ptr>
/home/aom1/Work/Linux/target/STM32MP1-DK2/buildroot/buildroot/output/build/optee-os-custom/ta/pkcs11/src/attributes.c:269
     ab2:	b160      	cbz	r0, ace <attributes_match_reference+0x6a>
/home/aom1/Work/Linux/target/STM32MP1-DK2/buildroot/buildroot/output/build/optee-os-custom/ta/pkcs11/src/attributes.c:271
     ab4:	2000      	movs	r0, #0
/home/aom1/Work/Linux/target/STM32MP1-DK2/buildroot/buildroot/output/build/optee-os-custom/ta/pkcs11/src/attributes.c:250
     ab6:	4a14      	ldr	r2, [pc, #80]	; (b08 <attributes_match_reference+0xa4>)
/home/aom1/Work/Linux/target/STM32MP1-DK2/buildroot/buildroot/output/build/optee-os-custom/ta/pkcs11/src/attributes.c:277
     ab8:	4b12      	ldr	r3, [pc, #72]	; (b04 <attributes_match_reference+0xa0>)
/home/aom1/Work/Linux/target/STM32MP1-DK2/buildroot/buildroot/output/build/optee-os-custom/ta/pkcs11/src/attributes.c:250
     aba:	447a      	add	r2, pc
/home/aom1/Work/Linux/target/STM32MP1-DK2/buildroot/buildroot/output/build/optee-os-custom/ta/pkcs11/src/attributes.c:277
     abc:	58d3      	ldr	r3, [r2, r3]
     abe:	681a      	ldr	r2, [r3, #0]
     ac0:	9b05      	ldr	r3, [sp, #20]
     ac2:	405a      	eors	r2, r3
     ac4:	f04f 0300 	mov.w	r3, #0
     ac8:	d017      	beq.n	afa <attributes_match_reference+0x96>
     aca:	f014 fefd 	bl	158c8 <__stack_chk_fail>
/home/aom1/Work/Linux/target/STM32MP1-DK2/buildroot/buildroot/output/build/optee-os-custom/ta/pkcs11/src/attributes.c:269 (discriminator 1)
     ace:	9901      	ldr	r1, [sp, #4]
     ad0:	2900      	cmp	r1, #0
     ad2:	d0ef      	beq.n	ab4 <attributes_match_reference+0x50>
/home/aom1/Work/Linux/target/STM32MP1-DK2/buildroot/buildroot/output/build/optee-os-custom/ta/pkcs11/src/attributes.c:269 (discriminator 2)
     ad4:	9a04      	ldr	r2, [sp, #16]
     ad6:	9b02      	ldr	r3, [sp, #8]
     ad8:	429a      	cmp	r2, r3
     ada:	d1eb      	bne.n	ab4 <attributes_match_reference+0x50>
/home/aom1/Work/Linux/target/STM32MP1-DK2/buildroot/buildroot/output/build/optee-os-custom/ta/pkcs11/src/attributes.c:270 (discriminator 3)
     adc:	f106 0008 	add.w	r0, r6, #8
     ae0:	f7ff fcfc 	bl	4dc <TEE_MemCompare>
/home/aom1/Work/Linux/target/STM32MP1-DK2/buildroot/buildroot/output/build/optee-os-custom/ta/pkcs11/src/attributes.c:269 (discriminator 3)
     ae4:	2800      	cmp	r0, #0
     ae6:	d1e5      	bne.n	ab4 <attributes_match_reference+0x50>
/home/aom1/Work/Linux/target/STM32MP1-DK2/buildroot/buildroot/output/build/optee-os-custom/ta/pkcs11/src/attributes.c:273
     ae8:	9b04      	ldr	r3, [sp, #16]
/home/aom1/Work/Linux/target/STM32MP1-DK2/buildroot/buildroot/output/build/optee-os-custom/ta/pkcs11/src/attributes.c:260
     aea:	3501      	adds	r5, #1
/home/aom1/Work/Linux/target/STM32MP1-DK2/buildroot/buildroot/output/build/optee-os-custom/ta/pkcs11/src/attributes.c:273
     aec:	3308      	adds	r3, #8
     aee:	441e      	add	r6, r3
/home/aom1/Work/Linux/target/STM32MP1-DK2/buildroot/buildroot/output/build/optee-os-custom/ta/pkcs11/src/attributes.c:260
     af0:	6863      	ldr	r3, [r4, #4]
     af2:	42ab      	cmp	r3, r5
     af4:	d8cc      	bhi.n	a90 <attributes_match_reference+0x2c>
/home/aom1/Work/Linux/target/STM32MP1-DK2/buildroot/buildroot/output/build/optee-os-custom/ta/pkcs11/src/attributes.c:257
     af6:	2001      	movs	r0, #1
     af8:	e7dd      	b.n	ab6 <attributes_match_reference+0x52>
/home/aom1/Work/Linux/target/STM32MP1-DK2/buildroot/buildroot/output/build/optee-os-custom/ta/pkcs11/src/attributes.c:277
     afa:	b007      	add	sp, #28
     afc:	e8bd 83f0 	ldmia.w	sp!, {r4, r5, r6, r7, r8, r9, pc}
     b00:	0001b61c 	.word	0x0001b61c
     b04:	0000000c 	.word	0x0000000c
     b08:	0001b5ca 	.word	0x0001b5ca

00000b0c <attributes_match_add_reference>:
attributes_match_add_reference():
/home/aom1/Work/Linux/target/STM32MP1-DK2/buildroot/buildroot/output/build/optee-os-custom/ta/pkcs11/src/attributes.c:281
     b0c:	4a2e      	ldr	r2, [pc, #184]	; (bc8 <attributes_match_add_reference+0xbc>)
     b0e:	4b2f      	ldr	r3, [pc, #188]	; (bcc <attributes_match_add_reference+0xc0>)
     b10:	447a      	add	r2, pc
     b12:	e92d 43f0 	stmdb	sp!, {r4, r5, r6, r7, r8, r9, lr}
     b16:	b087      	sub	sp, #28
     b18:	58d3      	ldr	r3, [r2, r3]
     b1a:	4607      	mov	r7, r0
     b1c:	460d      	mov	r5, r1
     b1e:	681b      	ldr	r3, [r3, #0]
     b20:	9305      	str	r3, [sp, #20]
     b22:	f04f 0300 	mov.w	r3, #0
/home/aom1/Work/Linux/target/STM32MP1-DK2/buildroot/buildroot/output/build/optee-os-custom/ta/pkcs11/src/attributes.c:286
     b26:	684b      	ldr	r3, [r1, #4]
     b28:	b963      	cbnz	r3, b44 <attributes_match_add_reference+0x38>
/home/aom1/Work/Linux/target/STM32MP1-DK2/buildroot/buildroot/output/build/optee-os-custom/ta/pkcs11/src/attributes.c:287
     b2a:	2000      	movs	r0, #0
/home/aom1/Work/Linux/target/STM32MP1-DK2/buildroot/buildroot/output/build/optee-os-custom/ta/pkcs11/src/attributes.c:281
     b2c:	4a28      	ldr	r2, [pc, #160]	; (bd0 <attributes_match_add_reference+0xc4>)
/home/aom1/Work/Linux/target/STM32MP1-DK2/buildroot/buildroot/output/build/optee-os-custom/ta/pkcs11/src/attributes.c:314
     b2e:	4b27      	ldr	r3, [pc, #156]	; (bcc <attributes_match_add_reference+0xc0>)
/home/aom1/Work/Linux/target/STM32MP1-DK2/buildroot/buildroot/output/build/optee-os-custom/ta/pkcs11/src/attributes.c:281
     b30:	447a      	add	r2, pc
/home/aom1/Work/Linux/target/STM32MP1-DK2/buildroot/buildroot/output/build/optee-os-custom/ta/pkcs11/src/attributes.c:314
     b32:	58d3      	ldr	r3, [r2, r3]
     b34:	681a      	ldr	r2, [r3, #0]
     b36:	9b05      	ldr	r3, [sp, #20]
     b38:	405a      	eors	r2, r3
     b3a:	f04f 0300 	mov.w	r3, #0
     b3e:	d03f      	beq.n	bc0 <attributes_match_add_reference+0xb4>
     b40:	f014 fec2 	bl	158c8 <__stack_chk_fail>
/home/aom1/Work/Linux/target/STM32MP1-DK2/buildroot/buildroot/output/build/optee-os-custom/ta/pkcs11/src/attributes.c:289
     b44:	2600      	movs	r6, #0
/home/aom1/Work/Linux/target/STM32MP1-DK2/buildroot/buildroot/output/build/optee-os-custom/ta/pkcs11/src/attributes.c:283
     b46:	f101 0408 	add.w	r4, r1, #8
/home/aom1/Work/Linux/target/STM32MP1-DK2/buildroot/buildroot/output/build/optee-os-custom/ta/pkcs11/src/attributes.c:290
     b4a:	f10d 090c 	add.w	r9, sp, #12
     b4e:	46b0      	mov	r8, r6
     b50:	f8c9 8000 	str.w	r8, [r9]
/home/aom1/Work/Linux/target/STM32MP1-DK2/buildroot/buildroot/output/build/optee-os-custom/ta/pkcs11/src/attributes.c:294
     b54:	2208      	movs	r2, #8
/home/aom1/Work/Linux/target/STM32MP1-DK2/buildroot/buildroot/output/build/optee-os-custom/ta/pkcs11/src/attributes.c:290
     b56:	f8c9 8004 	str.w	r8, [r9, #4]
/home/aom1/Work/Linux/target/STM32MP1-DK2/buildroot/buildroot/output/build/optee-os-custom/ta/pkcs11/src/attributes.c:294
     b5a:	4621      	mov	r1, r4
/home/aom1/Work/Linux/target/STM32MP1-DK2/buildroot/buildroot/output/build/optee-os-custom/ta/pkcs11/src/attributes.c:291
     b5c:	f8cd 8004 	str.w	r8, [sp, #4]
/home/aom1/Work/Linux/target/STM32MP1-DK2/buildroot/buildroot/output/build/optee-os-custom/ta/pkcs11/src/attributes.c:294
     b60:	4648      	mov	r0, r9
/home/aom1/Work/Linux/target/STM32MP1-DK2/buildroot/buildroot/output/build/optee-os-custom/ta/pkcs11/src/attributes.c:292
     b62:	f8cd 8008 	str.w	r8, [sp, #8]
/home/aom1/Work/Linux/target/STM32MP1-DK2/buildroot/buildroot/output/build/optee-os-custom/ta/pkcs11/src/attributes.c:294
     b66:	f7ff fcb7 	bl	4d8 <TEE_MemMove>
/home/aom1/Work/Linux/target/STM32MP1-DK2/buildroot/buildroot/output/build/optee-os-custom/ta/pkcs11/src/attributes.c:296
     b6a:	9903      	ldr	r1, [sp, #12]
     b6c:	ab02      	add	r3, sp, #8
     b6e:	6838      	ldr	r0, [r7, #0]
     b70:	aa01      	add	r2, sp, #4
     b72:	f7ff fe69 	bl	848 <get_attribute_ptr>
/home/aom1/Work/Linux/target/STM32MP1-DK2/buildroot/buildroot/output/build/optee-os-custom/ta/pkcs11/src/attributes.c:297
     b76:	f1b0 4f00 	cmp.w	r0, #2147483648	; 0x80000000
     b7a:	d110      	bne.n	b9e <attributes_match_add_reference+0x92>
/home/aom1/Work/Linux/target/STM32MP1-DK2/buildroot/buildroot/output/build/optee-os-custom/ta/pkcs11/src/attributes.c:298
     b7c:	9b04      	ldr	r3, [sp, #16]
     b7e:	f104 0208 	add.w	r2, r4, #8
     b82:	9903      	ldr	r1, [sp, #12]
     b84:	4638      	mov	r0, r7
     b86:	f7ff fdad 	bl	6e4 <add_attribute>
/home/aom1/Work/Linux/target/STM32MP1-DK2/buildroot/buildroot/output/build/optee-os-custom/ta/pkcs11/src/attributes.c:301
     b8a:	2800      	cmp	r0, #0
     b8c:	d1ce      	bne.n	b2c <attributes_match_add_reference+0x20>
/home/aom1/Work/Linux/target/STM32MP1-DK2/buildroot/buildroot/output/build/optee-os-custom/ta/pkcs11/src/attributes.c:310
     b8e:	9b04      	ldr	r3, [sp, #16]
/home/aom1/Work/Linux/target/STM32MP1-DK2/buildroot/buildroot/output/build/optee-os-custom/ta/pkcs11/src/attributes.c:289
     b90:	3601      	adds	r6, #1
/home/aom1/Work/Linux/target/STM32MP1-DK2/buildroot/buildroot/output/build/optee-os-custom/ta/pkcs11/src/attributes.c:310
     b92:	3308      	adds	r3, #8
     b94:	441c      	add	r4, r3
/home/aom1/Work/Linux/target/STM32MP1-DK2/buildroot/buildroot/output/build/optee-os-custom/ta/pkcs11/src/attributes.c:289
     b96:	686b      	ldr	r3, [r5, #4]
     b98:	42b3      	cmp	r3, r6
     b9a:	d8d9      	bhi.n	b50 <attributes_match_add_reference+0x44>
     b9c:	e7c5      	b.n	b2a <attributes_match_add_reference+0x1e>
/home/aom1/Work/Linux/target/STM32MP1-DK2/buildroot/buildroot/output/build/optee-os-custom/ta/pkcs11/src/attributes.c:304
     b9e:	b108      	cbz	r0, ba4 <attributes_match_add_reference+0x98>
/home/aom1/Work/Linux/target/STM32MP1-DK2/buildroot/buildroot/output/build/optee-os-custom/ta/pkcs11/src/attributes.c:307
     ba0:	20d1      	movs	r0, #209	; 0xd1
     ba2:	e7c3      	b.n	b2c <attributes_match_add_reference+0x20>
/home/aom1/Work/Linux/target/STM32MP1-DK2/buildroot/buildroot/output/build/optee-os-custom/ta/pkcs11/src/attributes.c:304 (discriminator 1)
     ba4:	9901      	ldr	r1, [sp, #4]
     ba6:	2900      	cmp	r1, #0
     ba8:	d0fa      	beq.n	ba0 <attributes_match_add_reference+0x94>
/home/aom1/Work/Linux/target/STM32MP1-DK2/buildroot/buildroot/output/build/optee-os-custom/ta/pkcs11/src/attributes.c:304 (discriminator 2)
     baa:	9a04      	ldr	r2, [sp, #16]
     bac:	9b02      	ldr	r3, [sp, #8]
     bae:	429a      	cmp	r2, r3
     bb0:	d1f6      	bne.n	ba0 <attributes_match_add_reference+0x94>
/home/aom1/Work/Linux/target/STM32MP1-DK2/buildroot/buildroot/output/build/optee-os-custom/ta/pkcs11/src/attributes.c:305 (discriminator 3)
     bb2:	f104 0008 	add.w	r0, r4, #8
     bb6:	f7ff fc91 	bl	4dc <TEE_MemCompare>
/home/aom1/Work/Linux/target/STM32MP1-DK2/buildroot/buildroot/output/build/optee-os-custom/ta/pkcs11/src/attributes.c:304 (discriminator 3)
     bba:	2800      	cmp	r0, #0
     bbc:	d0e7      	beq.n	b8e <attributes_match_add_reference+0x82>
     bbe:	e7ef      	b.n	ba0 <attributes_match_add_reference+0x94>
/home/aom1/Work/Linux/target/STM32MP1-DK2/buildroot/buildroot/output/build/optee-os-custom/ta/pkcs11/src/attributes.c:314
     bc0:	b007      	add	sp, #28
     bc2:	e8bd 83f0 	ldmia.w	sp!, {r4, r5, r6, r7, r8, r9, pc}
     bc6:	bf00      	nop
     bc8:	0001b574 	.word	0x0001b574
     bcc:	0000000c 	.word	0x0000000c
     bd0:	0001b554 	.word	0x0001b554

00000bd4 <trace_attributes>:
trace_attributes():
/home/aom1/Work/Linux/target/STM32MP1-DK2/buildroot/buildroot/output/build/optee-os-custom/ta/pkcs11/src/attributes.c:427
     bd4:	4a53      	ldr	r2, [pc, #332]	; (d24 <trace_attributes+0x150>)
     bd6:	4b54      	ldr	r3, [pc, #336]	; (d28 <trace_attributes+0x154>)
     bd8:	447a      	add	r2, pc
     bda:	e92d 47f0 	stmdb	sp!, {r4, r5, r6, r7, r8, r9, sl, lr}
     bde:	b08a      	sub	sp, #40	; 0x28
     be0:	58d3      	ldr	r3, [r2, r3]
     be2:	4604      	mov	r4, r0
/home/aom1/Work/Linux/target/STM32MP1-DK2/buildroot/buildroot/output/build/optee-os-custom/ta/pkcs11/src/attributes.c:428
     be4:	a804      	add	r0, sp, #16
/home/aom1/Work/Linux/target/STM32MP1-DK2/buildroot/buildroot/output/build/optee-os-custom/ta/pkcs11/src/attributes.c:431
     be6:	2208      	movs	r2, #8
/home/aom1/Work/Linux/target/STM32MP1-DK2/buildroot/buildroot/output/build/optee-os-custom/ta/pkcs11/src/attributes.c:427
     be8:	681b      	ldr	r3, [r3, #0]
     bea:	9309      	str	r3, [sp, #36]	; 0x24
     bec:	f04f 0300 	mov.w	r3, #0
/home/aom1/Work/Linux/target/STM32MP1-DK2/buildroot/buildroot/output/build/optee-os-custom/ta/pkcs11/src/attributes.c:428
     bf0:	2300      	movs	r3, #0
     bf2:	9304      	str	r3, [sp, #16]
/home/aom1/Work/Linux/target/STM32MP1-DK2/buildroot/buildroot/output/build/optee-os-custom/ta/pkcs11/src/attributes.c:427
     bf4:	460f      	mov	r7, r1
/home/aom1/Work/Linux/target/STM32MP1-DK2/buildroot/buildroot/output/build/optee-os-custom/ta/pkcs11/src/attributes.c:428
     bf6:	6043      	str	r3, [r0, #4]
/home/aom1/Work/Linux/target/STM32MP1-DK2/buildroot/buildroot/output/build/optee-os-custom/ta/pkcs11/src/attributes.c:431
     bf8:	f7ff fc6e 	bl	4d8 <TEE_MemMove>
/home/aom1/Work/Linux/target/STM32MP1-DK2/buildroot/buildroot/output/build/optee-os-custom/ta/pkcs11/src/attributes.c:433
     bfc:	9b05      	ldr	r3, [sp, #20]
     bfe:	b1b3      	cbz	r3, c2e <trace_attributes+0x5a>
/home/aom1/Work/Linux/target/STM32MP1-DK2/buildroot/buildroot/output/build/optee-os-custom/ta/pkcs11/src/attributes.c:436
     c00:	b30c      	cbz	r4, c46 <trace_attributes+0x72>
/home/aom1/Work/Linux/target/STM32MP1-DK2/buildroot/buildroot/output/build/optee-os-custom/ta/pkcs11/src/attributes.c:436 (discriminator 1)
     c02:	4620      	mov	r0, r4
     c04:	f014 fe89 	bl	1591a <strlen>
     c08:	3002      	adds	r0, #2
/home/aom1/Work/Linux/target/STM32MP1-DK2/buildroot/buildroot/output/build/optee-os-custom/ta/pkcs11/src/attributes.c:436 (discriminator 4)
     c0a:	2100      	movs	r1, #0
     c0c:	f7ff fcc1 	bl	592 <TEE_Malloc>
/home/aom1/Work/Linux/target/STM32MP1-DK2/buildroot/buildroot/output/build/optee-os-custom/ta/pkcs11/src/attributes.c:437 (discriminator 4)
     c10:	4605      	mov	r5, r0
     c12:	b9d0      	cbnz	r0, c4a <trace_attributes+0x76>
/home/aom1/Work/Linux/target/STM32MP1-DK2/buildroot/buildroot/output/build/optee-os-custom/ta/pkcs11/src/attributes.c:438
     c14:	4b45      	ldr	r3, [pc, #276]	; (d2c <trace_attributes+0x158>)
     c16:	f44f 71db 	mov.w	r1, #438	; 0x1b6
     c1a:	4845      	ldr	r0, [pc, #276]	; (d30 <trace_attributes+0x15c>)
     c1c:	447b      	add	r3, pc
     c1e:	4478      	add	r0, pc
     c20:	9300      	str	r3, [sp, #0]
     c22:	2301      	movs	r3, #1
     c24:	9401      	str	r4, [sp, #4]
     c26:	461a      	mov	r2, r3
     c28:	3009      	adds	r0, #9
     c2a:	f00b f9af 	bl	bf8c <trace_printf>
/home/aom1/Work/Linux/target/STM32MP1-DK2/buildroot/buildroot/output/build/optee-os-custom/ta/pkcs11/src/attributes.c:427
     c2e:	4a41      	ldr	r2, [pc, #260]	; (d34 <trace_attributes+0x160>)
/home/aom1/Work/Linux/target/STM32MP1-DK2/buildroot/buildroot/output/build/optee-os-custom/ta/pkcs11/src/attributes.c:456
     c30:	4b3d      	ldr	r3, [pc, #244]	; (d28 <trace_attributes+0x154>)
/home/aom1/Work/Linux/target/STM32MP1-DK2/buildroot/buildroot/output/build/optee-os-custom/ta/pkcs11/src/attributes.c:427
     c32:	447a      	add	r2, pc
/home/aom1/Work/Linux/target/STM32MP1-DK2/buildroot/buildroot/output/build/optee-os-custom/ta/pkcs11/src/attributes.c:456
     c34:	58d3      	ldr	r3, [r2, r3]
     c36:	681a      	ldr	r2, [r3, #0]
     c38:	9b09      	ldr	r3, [sp, #36]	; 0x24
     c3a:	405a      	eors	r2, r3
     c3c:	f04f 0300 	mov.w	r3, #0
     c40:	d06d      	beq.n	d1e <trace_attributes+0x14a>
     c42:	f014 fe41 	bl	158c8 <__stack_chk_fail>
/home/aom1/Work/Linux/target/STM32MP1-DK2/buildroot/buildroot/output/build/optee-os-custom/ta/pkcs11/src/attributes.c:436
     c46:	2002      	movs	r0, #2
     c48:	e7df      	b.n	c0a <trace_attributes+0x36>
/home/aom1/Work/Linux/target/STM32MP1-DK2/buildroot/buildroot/output/build/optee-os-custom/ta/pkcs11/src/attributes.c:442
     c4a:	b15c      	cbz	r4, c64 <trace_attributes+0x90>
/home/aom1/Work/Linux/target/STM32MP1-DK2/buildroot/buildroot/output/build/optee-os-custom/ta/pkcs11/src/attributes.c:443
     c4c:	4620      	mov	r0, r4
     c4e:	f014 fe64 	bl	1591a <strlen>
     c52:	4602      	mov	r2, r0
     c54:	4621      	mov	r1, r4
     c56:	4628      	mov	r0, r5
     c58:	f7ff fc3e 	bl	4d8 <TEE_MemMove>
/home/aom1/Work/Linux/target/STM32MP1-DK2/buildroot/buildroot/output/build/optee-os-custom/ta/pkcs11/src/attributes.c:449
     c5c:	4620      	mov	r0, r4
     c5e:	f014 fe5c 	bl	1591a <strlen>
     c62:	4604      	mov	r4, r0
/home/aom1/Work/Linux/target/STM32MP1-DK2/buildroot/buildroot/output/build/optee-os-custom/ta/pkcs11/src/attributes.c:449 (discriminator 4)
     c64:	237c      	movs	r3, #124	; 0x7c
__trace_attributes():
/home/aom1/Work/Linux/target/STM32MP1-DK2/buildroot/buildroot/output/build/optee-os-custom/ta/pkcs11/src/attributes.c:332 (discriminator 4)
     c66:	4628      	mov	r0, r5
trace_attributes():
/home/aom1/Work/Linux/target/STM32MP1-DK2/buildroot/buildroot/output/build/optee-os-custom/ta/pkcs11/src/attributes.c:449 (discriminator 4)
     c68:	552b      	strb	r3, [r5, r4]
/home/aom1/Work/Linux/target/STM32MP1-DK2/buildroot/buildroot/output/build/optee-os-custom/ta/pkcs11/src/attributes.c:451 (discriminator 4)
     c6a:	f8dd 9010 	ldr.w	r9, [sp, #16]
__trace_attributes():
/home/aom1/Work/Linux/target/STM32MP1-DK2/buildroot/buildroot/output/build/optee-os-custom/ta/pkcs11/src/attributes.c:332 (discriminator 4)
     c6e:	f014 fe54 	bl	1591a <strlen>
     c72:	4604      	mov	r4, r0
/home/aom1/Work/Linux/target/STM32MP1-DK2/buildroot/buildroot/output/build/optee-os-custom/ta/pkcs11/src/attributes.c:336 (discriminator 4)
     c74:	2100      	movs	r1, #0
     c76:	3005      	adds	r0, #5
     c78:	f7ff fc8b 	bl	592 <TEE_Malloc>
/home/aom1/Work/Linux/target/STM32MP1-DK2/buildroot/buildroot/output/build/optee-os-custom/ta/pkcs11/src/attributes.c:337 (discriminator 4)
     c7c:	4606      	mov	r6, r0
     c7e:	b328      	cbz	r0, ccc <trace_attributes+0xf8>
/home/aom1/Work/Linux/target/STM32MP1-DK2/buildroot/buildroot/output/build/optee-os-custom/ta/pkcs11/src/attributes.c:340
     c80:	1c62      	adds	r2, r4, #1
trace_attributes():
/home/aom1/Work/Linux/target/STM32MP1-DK2/buildroot/buildroot/output/build/optee-os-custom/ta/pkcs11/src/attributes.c:451
     c82:	f109 0908 	add.w	r9, r9, #8
__trace_attributes():
/home/aom1/Work/Linux/target/STM32MP1-DK2/buildroot/buildroot/output/build/optee-os-custom/ta/pkcs11/src/attributes.c:341
     c86:	4434      	add	r4, r6
/home/aom1/Work/Linux/target/STM32MP1-DK2/buildroot/buildroot/output/build/optee-os-custom/ta/pkcs11/src/attributes.c:340
     c88:	4629      	mov	r1, r5
trace_attributes():
/home/aom1/Work/Linux/target/STM32MP1-DK2/buildroot/buildroot/output/build/optee-os-custom/ta/pkcs11/src/attributes.c:450
     c8a:	f107 0808 	add.w	r8, r7, #8
__trace_attributes():
/home/aom1/Work/Linux/target/STM32MP1-DK2/buildroot/buildroot/output/build/optee-os-custom/ta/pkcs11/src/attributes.c:340
     c8e:	f7ff fc23 	bl	4d8 <TEE_MemMove>
trace_attributes():
/home/aom1/Work/Linux/target/STM32MP1-DK2/buildroot/buildroot/output/build/optee-os-custom/ta/pkcs11/src/attributes.c:450
     c92:	444f      	add	r7, r9
__trace_attributes():
/home/aom1/Work/Linux/target/STM32MP1-DK2/buildroot/buildroot/output/build/optee-os-custom/ta/pkcs11/src/attributes.c:341
     c94:	4620      	mov	r0, r4
     c96:	2204      	movs	r2, #4
     c98:	2120      	movs	r1, #32
/home/aom1/Work/Linux/target/STM32MP1-DK2/buildroot/buildroot/output/build/optee-os-custom/ta/pkcs11/src/attributes.c:342
     c9a:	f04f 0900 	mov.w	r9, #0
/home/aom1/Work/Linux/target/STM32MP1-DK2/buildroot/buildroot/output/build/optee-os-custom/ta/pkcs11/src/attributes.c:341
     c9e:	f7ff fc1f 	bl	4e0 <TEE_MemFill>
/home/aom1/Work/Linux/target/STM32MP1-DK2/buildroot/buildroot/output/build/optee-os-custom/ta/pkcs11/src/attributes.c:342
     ca2:	f884 9004 	strb.w	r9, [r4, #4]
/home/aom1/Work/Linux/target/STM32MP1-DK2/buildroot/buildroot/output/build/optee-os-custom/ta/pkcs11/src/attributes.c:345
     ca6:	ac06      	add	r4, sp, #24
/home/aom1/Work/Linux/target/STM32MP1-DK2/buildroot/buildroot/output/build/optee-os-custom/ta/pkcs11/src/attributes.c:344
     ca8:	4547      	cmp	r7, r8
     caa:	d813      	bhi.n	cd4 <trace_attributes+0x100>
/home/aom1/Work/Linux/target/STM32MP1-DK2/buildroot/buildroot/output/build/optee-os-custom/ta/pkcs11/src/attributes.c:420
     cac:	d00b      	beq.n	cc6 <trace_attributes+0xf2>
/home/aom1/Work/Linux/target/STM32MP1-DK2/buildroot/buildroot/output/build/optee-os-custom/ta/pkcs11/src/attributes.c:421
     cae:	4b22      	ldr	r3, [pc, #136]	; (d38 <trace_attributes+0x164>)
     cb0:	f240 11a5 	movw	r1, #421	; 0x1a5
     cb4:	4821      	ldr	r0, [pc, #132]	; (d3c <trace_attributes+0x168>)
     cb6:	447b      	add	r3, pc
     cb8:	4478      	add	r0, pc
     cba:	9300      	str	r3, [sp, #0]
     cbc:	2301      	movs	r3, #1
     cbe:	461a      	mov	r2, r3
     cc0:	301a      	adds	r0, #26
     cc2:	f00b f963 	bl	bf8c <trace_printf>
/home/aom1/Work/Linux/target/STM32MP1-DK2/buildroot/buildroot/output/build/optee-os-custom/ta/pkcs11/src/attributes.c:423
     cc6:	4630      	mov	r0, r6
     cc8:	f7ff fc8c 	bl	5e4 <TEE_Free>
trace_attributes():
/home/aom1/Work/Linux/target/STM32MP1-DK2/buildroot/buildroot/output/build/optee-os-custom/ta/pkcs11/src/attributes.c:455
     ccc:	4628      	mov	r0, r5
     cce:	f7ff fc89 	bl	5e4 <TEE_Free>
     cd2:	e7ac      	b.n	c2e <trace_attributes+0x5a>
__trace_attributes():
/home/aom1/Work/Linux/target/STM32MP1-DK2/buildroot/buildroot/output/build/optee-os-custom/ta/pkcs11/src/attributes.c:346
     cd4:	f8cd 9020 	str.w	r9, [sp, #32]
/home/aom1/Work/Linux/target/STM32MP1-DK2/buildroot/buildroot/output/build/optee-os-custom/ta/pkcs11/src/attributes.c:348
     cd8:	2208      	movs	r2, #8
     cda:	4641      	mov	r1, r8
     cdc:	4620      	mov	r0, r4
/home/aom1/Work/Linux/target/STM32MP1-DK2/buildroot/buildroot/output/build/optee-os-custom/ta/pkcs11/src/attributes.c:345
     cde:	e9c4 9900 	strd	r9, r9, [r4]
/home/aom1/Work/Linux/target/STM32MP1-DK2/buildroot/buildroot/output/build/optee-os-custom/ta/pkcs11/src/attributes.c:348
     ce2:	f7ff fbf9 	bl	4d8 <TEE_MemMove>
/home/aom1/Work/Linux/target/STM32MP1-DK2/buildroot/buildroot/output/build/optee-os-custom/ta/pkcs11/src/attributes.c:349
     ce6:	9a07      	ldr	r2, [sp, #28]
     ce8:	f108 0108 	add.w	r1, r8, #8
     cec:	9103      	str	r1, [sp, #12]
     cee:	a808      	add	r0, sp, #32
     cf0:	2a04      	cmp	r2, #4
     cf2:	bf28      	it	cs
     cf4:	2204      	movcs	r2, #4
     cf6:	f7ff fbef 	bl	4d8 <TEE_MemMove>
/home/aom1/Work/Linux/target/STM32MP1-DK2/buildroot/buildroot/output/build/optee-os-custom/ta/pkcs11/src/attributes.c:406
     cfa:	9b06      	ldr	r3, [sp, #24]
     cfc:	f46f 7104 	mvn.w	r1, #528	; 0x210
/home/aom1/Work/Linux/target/STM32MP1-DK2/buildroot/buildroot/output/build/optee-os-custom/ta/pkcs11/src/attributes.c:352
     d00:	9a07      	ldr	r2, [sp, #28]
/home/aom1/Work/Linux/target/STM32MP1-DK2/buildroot/buildroot/output/build/optee-os-custom/ta/pkcs11/src/attributes.c:406
     d02:	f103 4340 	add.w	r3, r3, #3221225472	; 0xc0000000
     d06:	440b      	add	r3, r1
     d08:	2b02      	cmp	r3, #2
/home/aom1/Work/Linux/target/STM32MP1-DK2/buildroot/buildroot/output/build/optee-os-custom/ta/pkcs11/src/attributes.c:352
     d0a:	f102 0a08 	add.w	sl, r2, #8
/home/aom1/Work/Linux/target/STM32MP1-DK2/buildroot/buildroot/output/build/optee-os-custom/ta/pkcs11/src/attributes.c:406
     d0e:	d804      	bhi.n	d1a <trace_attributes+0x146>
/home/aom1/Work/Linux/target/STM32MP1-DK2/buildroot/buildroot/output/build/optee-os-custom/ta/pkcs11/src/attributes.c:410
     d10:	9903      	ldr	r1, [sp, #12]
     d12:	b112      	cbz	r2, d1a <trace_attributes+0x146>
/home/aom1/Work/Linux/target/STM32MP1-DK2/buildroot/buildroot/output/build/optee-os-custom/ta/pkcs11/src/attributes.c:411
     d14:	4630      	mov	r0, r6
     d16:	f7ff ff5d 	bl	bd4 <trace_attributes>
/home/aom1/Work/Linux/target/STM32MP1-DK2/buildroot/buildroot/output/build/optee-os-custom/ta/pkcs11/src/attributes.c:344
     d1a:	44d0      	add	r8, sl
     d1c:	e7c4      	b.n	ca8 <trace_attributes+0xd4>
trace_attributes():
/home/aom1/Work/Linux/target/STM32MP1-DK2/buildroot/buildroot/output/build/optee-os-custom/ta/pkcs11/src/attributes.c:456
     d1e:	b00a      	add	sp, #40	; 0x28
     d20:	e8bd 87f0 	ldmia.w	sp!, {r4, r5, r6, r7, r8, r9, sl, pc}
     d24:	0001b4ac 	.word	0x0001b4ac
     d28:	0000000c 	.word	0x0000000c
     d2c:	00015afb 	.word	0x00015afb
     d30:	00015b3e 	.word	0x00015b3e
     d34:	0001b452 	.word	0x0001b452
     d38:	00015a73 	.word	0x00015a73
     d3c:	00015aa4 	.word	0x00015aa4

00000d40 <TA_CreateEntryPoint>:
TA_CreateEntryPoint():
/home/aom1/Work/Linux/target/STM32MP1-DK2/buildroot/buildroot/output/build/optee-os-custom/ta/pkcs11/src/entry.c:20
     d40:	f004 bc5a 	b.w	55f8 <pkcs11_init>

00000d44 <TA_DestroyEntryPoint>:
TA_DestroyEntryPoint():
/home/aom1/Work/Linux/target/STM32MP1-DK2/buildroot/buildroot/output/build/optee-os-custom/ta/pkcs11/src/entry.c:25
     d44:	f004 bc6e 	b.w	5624 <pkcs11_deinit>

00000d48 <TA_OpenSessionEntryPoint>:
TA_OpenSessionEntryPoint():
/home/aom1/Work/Linux/target/STM32MP1-DK2/buildroot/buildroot/output/build/optee-os-custom/ta/pkcs11/src/entry.c:31
     d48:	b510      	push	{r4, lr}
     d4a:	4614      	mov	r4, r2
/home/aom1/Work/Linux/target/STM32MP1-DK2/buildroot/buildroot/output/build/optee-os-custom/ta/pkcs11/src/entry.c:32
     d4c:	f004 fbf8 	bl	5540 <register_client>
/home/aom1/Work/Linux/target/STM32MP1-DK2/buildroot/buildroot/output/build/optee-os-custom/ta/pkcs11/src/entry.c:34
     d50:	b110      	cbz	r0, d58 <TA_OpenSessionEntryPoint+0x10>
/home/aom1/Work/Linux/target/STM32MP1-DK2/buildroot/buildroot/output/build/optee-os-custom/ta/pkcs11/src/entry.c:37
     d52:	6020      	str	r0, [r4, #0]
/home/aom1/Work/Linux/target/STM32MP1-DK2/buildroot/buildroot/output/build/optee-os-custom/ta/pkcs11/src/entry.c:39
     d54:	2000      	movs	r0, #0
/home/aom1/Work/Linux/target/STM32MP1-DK2/buildroot/buildroot/output/build/optee-os-custom/ta/pkcs11/src/entry.c:40
     d56:	bd10      	pop	{r4, pc}
/home/aom1/Work/Linux/target/STM32MP1-DK2/buildroot/buildroot/output/build/optee-os-custom/ta/pkcs11/src/entry.c:35
     d58:	4800      	ldr	r0, [pc, #0]	; (d5c <TA_OpenSessionEntryPoint+0x14>)
     d5a:	e7fc      	b.n	d56 <TA_OpenSessionEntryPoint+0xe>
     d5c:	ffff000c 	.word	0xffff000c

00000d60 <TA_CloseSessionEntryPoint>:
TA_CloseSessionEntryPoint():
/home/aom1/Work/Linux/target/STM32MP1-DK2/buildroot/buildroot/output/build/optee-os-custom/ta/pkcs11/src/entry.c:43
     d60:	b508      	push	{r3, lr}
/home/aom1/Work/Linux/target/STM32MP1-DK2/buildroot/buildroot/output/build/optee-os-custom/ta/pkcs11/src/entry.c:44
     d62:	f004 fbdb 	bl	551c <tee_session2client>
/home/aom1/Work/Linux/target/STM32MP1-DK2/buildroot/buildroot/output/build/optee-os-custom/ta/pkcs11/src/entry.c:47
     d66:	e8bd 4008 	ldmia.w	sp!, {r3, lr}
/home/aom1/Work/Linux/target/STM32MP1-DK2/buildroot/buildroot/output/build/optee-os-custom/ta/pkcs11/src/entry.c:46
     d6a:	f004 bc0f 	b.w	558c <unregister_client>

00000d6e <TA_InvokeCommandEntryPoint>:
TA_InvokeCommandEntryPoint():
/home/aom1/Work/Linux/target/STM32MP1-DK2/buildroot/buildroot/output/build/optee-os-custom/ta/pkcs11/src/entry.c:119
     d6e:	b570      	push	{r4, r5, r6, lr}
     d70:	4615      	mov	r5, r2
     d72:	4abb      	ldr	r2, [pc, #748]	; (1060 <TA_InvokeCommandEntryPoint+0x2f2>)
     d74:	461c      	mov	r4, r3
     d76:	4bbb      	ldr	r3, [pc, #748]	; (1064 <TA_InvokeCommandEntryPoint+0x2f6>)
     d78:	b088      	sub	sp, #32
     d7a:	447a      	add	r2, pc
     d7c:	460e      	mov	r6, r1
     d7e:	58d3      	ldr	r3, [r2, r3]
     d80:	681b      	ldr	r3, [r3, #0]
     d82:	9307      	str	r3, [sp, #28]
     d84:	f04f 0300 	mov.w	r3, #0
/home/aom1/Work/Linux/target/STM32MP1-DK2/buildroot/buildroot/output/build/optee-os-custom/ta/pkcs11/src/entry.c:120
     d88:	f004 fbc8 	bl	551c <tee_session2client>
/home/aom1/Work/Linux/target/STM32MP1-DK2/buildroot/buildroot/output/build/optee-os-custom/ta/pkcs11/src/entry.c:121
     d8c:	2305      	movs	r3, #5
     d8e:	9303      	str	r3, [sp, #12]
/home/aom1/Work/Linux/target/STM32MP1-DK2/buildroot/buildroot/output/build/optee-os-custom/ta/pkcs11/src/entry.c:123
     d90:	2800      	cmp	r0, #0
     d92:	f000 8156 	beq.w	1042 <TA_InvokeCommandEntryPoint+0x2d4>
/home/aom1/Work/Linux/target/STM32MP1-DK2/buildroot/buildroot/output/build/optee-os-custom/ta/pkcs11/src/entry.c:133 (discriminator 2)
     d96:	f005 030f 	and.w	r3, r5, #15
     d9a:	3b06      	subs	r3, #6
     d9c:	2b01      	cmp	r3, #1
     d9e:	f200 8152 	bhi.w	1046 <TA_InvokeCommandEntryPoint+0x2d8>
/home/aom1/Work/Linux/target/STM32MP1-DK2/buildroot/buildroot/output/build/optee-os-custom/ta/pkcs11/src/entry.c:136
     da2:	6863      	ldr	r3, [r4, #4]
     da4:	2b03      	cmp	r3, #3
     da6:	f240 814e 	bls.w	1046 <TA_InvokeCommandEntryPoint+0x2d8>
/home/aom1/Work/Linux/target/STM32MP1-DK2/buildroot/buildroot/output/build/optee-os-custom/ta/pkcs11/src/entry.c:155
     daa:	2e34      	cmp	r6, #52	; 0x34
     dac:	f200 8130 	bhi.w	1010 <TA_InvokeCommandEntryPoint+0x2a2>
     db0:	e8df f016 	tbh	[pc, r6, lsl #1]
     db4:	00580035 	.word	0x00580035
     db8:	0063005e 	.word	0x0063005e
     dbc:	006d0068 	.word	0x006d0068
     dc0:	00770072 	.word	0x00770072
     dc4:	0081007c 	.word	0x0081007c
     dc8:	008b0086 	.word	0x008b0086
     dcc:	00950090 	.word	0x00950090
     dd0:	009f009a 	.word	0x009f009a
     dd4:	00a900a4 	.word	0x00a900a4
     dd8:	00b100af 	.word	0x00b100af
     ddc:	00c100b9 	.word	0x00c100b9
     de0:	00bd00c3 	.word	0x00bd00c3
     de4:	00c500bf 	.word	0x00c500bf
     de8:	00d100c7 	.word	0x00d100c7
     dec:	00d500d3 	.word	0x00d500d3
     df0:	00c900d7 	.word	0x00c900d7
     df4:	00d900cd 	.word	0x00d900cd
     df8:	00e300de 	.word	0x00e300de
     dfc:	00f200e8 	.word	0x00f200e8
     e00:	00f700ed 	.word	0x00f700ed
     e04:	010100fc 	.word	0x010100fc
     e08:	010b0106 	.word	0x010b0106
     e0c:	01160111 	.word	0x01160111
     e10:	0118011c 	.word	0x0118011c
     e14:	011e0120 	.word	0x011e0120
     e18:	01270122 	.word	0x01270122
     e1c:	012c      	.short	0x012c
entry_ping():
/home/aom1/Work/Linux/target/STM32MP1-DK2/buildroot/buildroot/output/build/optee-os-custom/ta/pkcs11/src/entry.c:61
     e1e:	2200      	movs	r2, #0
     e20:	2101      	movs	r1, #1
     e22:	e9cd 2104 	strd	r2, r1, [sp, #16]
     e26:	9206      	str	r2, [sp, #24]
/home/aom1/Work/Linux/target/STM32MP1-DK2/buildroot/buildroot/output/build/optee-os-custom/ta/pkcs11/src/entry.c:67
     e28:	f240 6207 	movw	r2, #1543	; 0x607
     e2c:	4295      	cmp	r5, r2
     e2e:	d117      	bne.n	e60 <TA_InvokeCommandEntryPoint+0xf2>
     e30:	2b04      	cmp	r3, #4
     e32:	d115      	bne.n	e60 <TA_InvokeCommandEntryPoint+0xf2>
/home/aom1/Work/Linux/target/STM32MP1-DK2/buildroot/buildroot/output/build/optee-os-custom/ta/pkcs11/src/entry.c:68
     e34:	6962      	ldr	r2, [r4, #20]
     e36:	2a0c      	cmp	r2, #12
     e38:	d112      	bne.n	e60 <TA_InvokeCommandEntryPoint+0xf2>
/home/aom1/Work/Linux/target/STM32MP1-DK2/buildroot/buildroot/output/build/optee-os-custom/ta/pkcs11/src/entry.c:72
     e3a:	6920      	ldr	r0, [r4, #16]
     e3c:	a904      	add	r1, sp, #16
     e3e:	f7ff fb4b 	bl	4d8 <TEE_MemMove>
TA_InvokeCommandEntryPoint():
/home/aom1/Work/Linux/target/STM32MP1-DK2/buildroot/buildroot/output/build/optee-os-custom/ta/pkcs11/src/entry.c:157
     e42:	9603      	str	r6, [sp, #12]
/home/aom1/Work/Linux/target/STM32MP1-DK2/buildroot/buildroot/output/build/optee-os-custom/ta/pkcs11/src/entry.c:366
     e44:	6820      	ldr	r0, [r4, #0]
     e46:	2204      	movs	r2, #4
     e48:	a903      	add	r1, sp, #12
     e4a:	f7ff fb45 	bl	4d8 <TEE_MemMove>
/home/aom1/Work/Linux/target/STM32MP1-DK2/buildroot/buildroot/output/build/optee-os-custom/ta/pkcs11/src/entry.c:372
     e4e:	4880      	ldr	r0, [pc, #512]	; (1050 <TA_InvokeCommandEntryPoint+0x2e2>)
/home/aom1/Work/Linux/target/STM32MP1-DK2/buildroot/buildroot/output/build/optee-os-custom/ta/pkcs11/src/entry.c:367
     e50:	2304      	movs	r3, #4
     e52:	6063      	str	r3, [r4, #4]
/home/aom1/Work/Linux/target/STM32MP1-DK2/buildroot/buildroot/output/build/optee-os-custom/ta/pkcs11/src/entry.c:372
     e54:	9b03      	ldr	r3, [sp, #12]
     e56:	f5b3 7fa8 	cmp.w	r3, #336	; 0x150
     e5a:	bf18      	it	ne
     e5c:	2000      	movne	r0, #0
     e5e:	e0e4      	b.n	102a <TA_InvokeCommandEntryPoint+0x2bc>
entry_ping():
/home/aom1/Work/Linux/target/STM32MP1-DK2/buildroot/buildroot/output/build/optee-os-custom/ta/pkcs11/src/entry.c:70
     e60:	2607      	movs	r6, #7
     e62:	e7ee      	b.n	e42 <TA_InvokeCommandEntryPoint+0xd4>
TA_InvokeCommandEntryPoint():
/home/aom1/Work/Linux/target/STM32MP1-DK2/buildroot/buildroot/output/build/optee-os-custom/ta/pkcs11/src/entry.c:161
     e64:	4621      	mov	r1, r4
     e66:	4628      	mov	r0, r5
     e68:	f004 fc32 	bl	56d0 <entry_ck_slot_list>
/home/aom1/Work/Linux/target/STM32MP1-DK2/buildroot/buildroot/output/build/optee-os-custom/ta/pkcs11/src/entry.c:356
     e6c:	9003      	str	r0, [sp, #12]
/home/aom1/Work/Linux/target/STM32MP1-DK2/buildroot/buildroot/output/build/optee-os-custom/ta/pkcs11/src/entry.c:358
     e6e:	e7e9      	b.n	e44 <TA_InvokeCommandEntryPoint+0xd6>
/home/aom1/Work/Linux/target/STM32MP1-DK2/buildroot/buildroot/output/build/optee-os-custom/ta/pkcs11/src/entry.c:164
     e70:	4621      	mov	r1, r4
     e72:	4628      	mov	r0, r5
     e74:	f004 fc72 	bl	575c <entry_ck_slot_info>
     e78:	e7f8      	b.n	e6c <TA_InvokeCommandEntryPoint+0xfe>
/home/aom1/Work/Linux/target/STM32MP1-DK2/buildroot/buildroot/output/build/optee-os-custom/ta/pkcs11/src/entry.c:167
     e7a:	4621      	mov	r1, r4
     e7c:	4628      	mov	r0, r5
     e7e:	f004 fd05 	bl	588c <entry_ck_token_info>
     e82:	e7f3      	b.n	e6c <TA_InvokeCommandEntryPoint+0xfe>
/home/aom1/Work/Linux/target/STM32MP1-DK2/buildroot/buildroot/output/build/optee-os-custom/ta/pkcs11/src/entry.c:170
     e84:	4621      	mov	r1, r4
     e86:	4628      	mov	r0, r5
     e88:	f004 fdba 	bl	5a00 <entry_ck_token_mecha_ids>
     e8c:	e7ee      	b.n	e6c <TA_InvokeCommandEntryPoint+0xfe>
/home/aom1/Work/Linux/target/STM32MP1-DK2/buildroot/buildroot/output/build/optee-os-custom/ta/pkcs11/src/entry.c:173
     e8e:	4621      	mov	r1, r4
     e90:	4628      	mov	r0, r5
     e92:	f004 fe2d 	bl	5af0 <entry_ck_token_mecha_info>
     e96:	e7e9      	b.n	e6c <TA_InvokeCommandEntryPoint+0xfe>
/home/aom1/Work/Linux/target/STM32MP1-DK2/buildroot/buildroot/output/build/optee-os-custom/ta/pkcs11/src/entry.c:177
     e98:	4622      	mov	r2, r4
     e9a:	4629      	mov	r1, r5
     e9c:	f004 fe96 	bl	5bcc <entry_ck_open_session>
     ea0:	e7e4      	b.n	e6c <TA_InvokeCommandEntryPoint+0xfe>
/home/aom1/Work/Linux/target/STM32MP1-DK2/buildroot/buildroot/output/build/optee-os-custom/ta/pkcs11/src/entry.c:180
     ea2:	4622      	mov	r2, r4
     ea4:	4629      	mov	r1, r5
     ea6:	f004 ff67 	bl	5d78 <entry_ck_close_session>
     eaa:	e7df      	b.n	e6c <TA_InvokeCommandEntryPoint+0xfe>
/home/aom1/Work/Linux/target/STM32MP1-DK2/buildroot/buildroot/output/build/optee-os-custom/ta/pkcs11/src/entry.c:183
     eac:	4622      	mov	r2, r4
     eae:	4629      	mov	r1, r5
     eb0:	f004 ffa4 	bl	5dfc <entry_ck_close_all_sessions>
     eb4:	e7da      	b.n	e6c <TA_InvokeCommandEntryPoint+0xfe>
/home/aom1/Work/Linux/target/STM32MP1-DK2/buildroot/buildroot/output/build/optee-os-custom/ta/pkcs11/src/entry.c:186
     eb6:	4622      	mov	r2, r4
     eb8:	4629      	mov	r1, r5
     eba:	f004 ffed 	bl	5e98 <entry_ck_session_info>
     ebe:	e7d5      	b.n	e6c <TA_InvokeCommandEntryPoint+0xfe>
/home/aom1/Work/Linux/target/STM32MP1-DK2/buildroot/buildroot/output/build/optee-os-custom/ta/pkcs11/src/entry.c:190
     ec0:	4621      	mov	r1, r4
     ec2:	4628      	mov	r0, r5
     ec4:	f005 f84a 	bl	5f5c <entry_ck_token_initialize>
     ec8:	e7d0      	b.n	e6c <TA_InvokeCommandEntryPoint+0xfe>
/home/aom1/Work/Linux/target/STM32MP1-DK2/buildroot/buildroot/output/build/optee-os-custom/ta/pkcs11/src/entry.c:193
     eca:	4622      	mov	r2, r4
     ecc:	4629      	mov	r1, r5
     ece:	f005 f93b 	bl	6148 <entry_ck_init_pin>
     ed2:	e7cb      	b.n	e6c <TA_InvokeCommandEntryPoint+0xfe>
/home/aom1/Work/Linux/target/STM32MP1-DK2/buildroot/buildroot/output/build/optee-os-custom/ta/pkcs11/src/entry.c:196
     ed4:	4622      	mov	r2, r4
     ed6:	4629      	mov	r1, r5
     ed8:	f005 f9a6 	bl	6228 <entry_ck_set_pin>
     edc:	e7c6      	b.n	e6c <TA_InvokeCommandEntryPoint+0xfe>
/home/aom1/Work/Linux/target/STM32MP1-DK2/buildroot/buildroot/output/build/optee-os-custom/ta/pkcs11/src/entry.c:199
     ede:	4622      	mov	r2, r4
     ee0:	4629      	mov	r1, r5
     ee2:	f005 fa23 	bl	632c <entry_ck_login>
     ee6:	e7c1      	b.n	e6c <TA_InvokeCommandEntryPoint+0xfe>
/home/aom1/Work/Linux/target/STM32MP1-DK2/buildroot/buildroot/output/build/optee-os-custom/ta/pkcs11/src/entry.c:202
     ee8:	4622      	mov	r2, r4
     eea:	4629      	mov	r1, r5
     eec:	f005 fae0 	bl	64b0 <entry_ck_logout>
     ef0:	e7bc      	b.n	e6c <TA_InvokeCommandEntryPoint+0xfe>
/home/aom1/Work/Linux/target/STM32MP1-DK2/buildroot/buildroot/output/build/optee-os-custom/ta/pkcs11/src/entry.c:206
     ef2:	4622      	mov	r2, r4
     ef4:	4629      	mov	r1, r5
     ef6:	f000 fa47 	bl	1388 <entry_create_object>
     efa:	e7b7      	b.n	e6c <TA_InvokeCommandEntryPoint+0xfe>
/home/aom1/Work/Linux/target/STM32MP1-DK2/buildroot/buildroot/output/build/optee-os-custom/ta/pkcs11/src/entry.c:209
     efc:	4622      	mov	r2, r4
     efe:	4629      	mov	r1, r5
     f00:	f000 fad0 	bl	14a4 <entry_destroy_object>
     f04:	e7b2      	b.n	e6c <TA_InvokeCommandEntryPoint+0xfe>
/home/aom1/Work/Linux/target/STM32MP1-DK2/buildroot/buildroot/output/build/optee-os-custom/ta/pkcs11/src/entry.c:213
     f06:	2306      	movs	r3, #6
/home/aom1/Work/Linux/target/STM32MP1-DK2/buildroot/buildroot/output/build/optee-os-custom/ta/pkcs11/src/entry.c:326
     f08:	4622      	mov	r2, r4
     f0a:	4629      	mov	r1, r5
     f0c:	f005 ffe2 	bl	6ed4 <entry_processing_init>
     f10:	e7ac      	b.n	e6c <TA_InvokeCommandEntryPoint+0xfe>
/home/aom1/Work/Linux/target/STM32MP1-DK2/buildroot/buildroot/output/build/optee-os-custom/ta/pkcs11/src/entry.c:217
     f12:	2307      	movs	r3, #7
     f14:	e7f8      	b.n	f08 <TA_InvokeCommandEntryPoint+0x19a>
/home/aom1/Work/Linux/target/STM32MP1-DK2/buildroot/buildroot/output/build/optee-os-custom/ta/pkcs11/src/entry.c:221
     f16:	2302      	movs	r3, #2
/home/aom1/Work/Linux/target/STM32MP1-DK2/buildroot/buildroot/output/build/optee-os-custom/ta/pkcs11/src/entry.c:241
     f18:	9300      	str	r3, [sp, #0]
     f1a:	2306      	movs	r3, #6
/home/aom1/Work/Linux/target/STM32MP1-DK2/buildroot/buildroot/output/build/optee-os-custom/ta/pkcs11/src/entry.c:345
     f1c:	4622      	mov	r2, r4
     f1e:	4629      	mov	r1, r5
     f20:	f006 f892 	bl	7048 <entry_processing_step>
     f24:	e7a2      	b.n	e6c <TA_InvokeCommandEntryPoint+0xfe>
/home/aom1/Work/Linux/target/STM32MP1-DK2/buildroot/buildroot/output/build/optee-os-custom/ta/pkcs11/src/entry.c:226
     f26:	2302      	movs	r3, #2
/home/aom1/Work/Linux/target/STM32MP1-DK2/buildroot/buildroot/output/build/optee-os-custom/ta/pkcs11/src/entry.c:246
     f28:	9300      	str	r3, [sp, #0]
     f2a:	2307      	movs	r3, #7
     f2c:	e7f6      	b.n	f1c <TA_InvokeCommandEntryPoint+0x1ae>
/home/aom1/Work/Linux/target/STM32MP1-DK2/buildroot/buildroot/output/build/optee-os-custom/ta/pkcs11/src/entry.c:231
     f2e:	2301      	movs	r3, #1
     f30:	e7f2      	b.n	f18 <TA_InvokeCommandEntryPoint+0x1aa>
/home/aom1/Work/Linux/target/STM32MP1-DK2/buildroot/buildroot/output/build/optee-os-custom/ta/pkcs11/src/entry.c:236
     f32:	2301      	movs	r3, #1
     f34:	e7f8      	b.n	f28 <TA_InvokeCommandEntryPoint+0x1ba>
/home/aom1/Work/Linux/target/STM32MP1-DK2/buildroot/buildroot/output/build/optee-os-custom/ta/pkcs11/src/entry.c:241
     f36:	2304      	movs	r3, #4
     f38:	e7ee      	b.n	f18 <TA_InvokeCommandEntryPoint+0x1aa>
/home/aom1/Work/Linux/target/STM32MP1-DK2/buildroot/buildroot/output/build/optee-os-custom/ta/pkcs11/src/entry.c:246
     f3a:	2304      	movs	r3, #4
     f3c:	e7f4      	b.n	f28 <TA_InvokeCommandEntryPoint+0x1ba>
/home/aom1/Work/Linux/target/STM32MP1-DK2/buildroot/buildroot/output/build/optee-os-custom/ta/pkcs11/src/entry.c:251
     f3e:	2308      	movs	r3, #8
     f40:	e7e2      	b.n	f08 <TA_InvokeCommandEntryPoint+0x19a>
/home/aom1/Work/Linux/target/STM32MP1-DK2/buildroot/buildroot/output/build/optee-os-custom/ta/pkcs11/src/entry.c:255
     f42:	2309      	movs	r3, #9
     f44:	e7e0      	b.n	f08 <TA_InvokeCommandEntryPoint+0x19a>
/home/aom1/Work/Linux/target/STM32MP1-DK2/buildroot/buildroot/output/build/optee-os-custom/ta/pkcs11/src/entry.c:259
     f46:	2301      	movs	r3, #1
/home/aom1/Work/Linux/target/STM32MP1-DK2/buildroot/buildroot/output/build/optee-os-custom/ta/pkcs11/src/entry.c:279
     f48:	9300      	str	r3, [sp, #0]
     f4a:	2308      	movs	r3, #8
     f4c:	e7e6      	b.n	f1c <TA_InvokeCommandEntryPoint+0x1ae>
/home/aom1/Work/Linux/target/STM32MP1-DK2/buildroot/buildroot/output/build/optee-os-custom/ta/pkcs11/src/entry.c:264
     f4e:	2301      	movs	r3, #1
/home/aom1/Work/Linux/target/STM32MP1-DK2/buildroot/buildroot/output/build/optee-os-custom/ta/pkcs11/src/entry.c:284
     f50:	9300      	str	r3, [sp, #0]
     f52:	2309      	movs	r3, #9
     f54:	e7e2      	b.n	f1c <TA_InvokeCommandEntryPoint+0x1ae>
/home/aom1/Work/Linux/target/STM32MP1-DK2/buildroot/buildroot/output/build/optee-os-custom/ta/pkcs11/src/entry.c:269
     f56:	2302      	movs	r3, #2
     f58:	e7f6      	b.n	f48 <TA_InvokeCommandEntryPoint+0x1da>
/home/aom1/Work/Linux/target/STM32MP1-DK2/buildroot/buildroot/output/build/optee-os-custom/ta/pkcs11/src/entry.c:274
     f5a:	2302      	movs	r3, #2
     f5c:	e7f8      	b.n	f50 <TA_InvokeCommandEntryPoint+0x1e2>
/home/aom1/Work/Linux/target/STM32MP1-DK2/buildroot/buildroot/output/build/optee-os-custom/ta/pkcs11/src/entry.c:279
     f5e:	2304      	movs	r3, #4
     f60:	e7f2      	b.n	f48 <TA_InvokeCommandEntryPoint+0x1da>
/home/aom1/Work/Linux/target/STM32MP1-DK2/buildroot/buildroot/output/build/optee-os-custom/ta/pkcs11/src/entry.c:284
     f62:	2304      	movs	r3, #4
     f64:	e7f4      	b.n	f50 <TA_InvokeCommandEntryPoint+0x1e2>
/home/aom1/Work/Linux/target/STM32MP1-DK2/buildroot/buildroot/output/build/optee-os-custom/ta/pkcs11/src/entry.c:289
     f66:	4622      	mov	r2, r4
     f68:	4629      	mov	r1, r5
     f6a:	f005 fce1 	bl	6930 <entry_generate_secret>
     f6e:	e77d      	b.n	e6c <TA_InvokeCommandEntryPoint+0xfe>
/home/aom1/Work/Linux/target/STM32MP1-DK2/buildroot/buildroot/output/build/optee-os-custom/ta/pkcs11/src/entry.c:292
     f70:	4622      	mov	r2, r4
     f72:	4629      	mov	r1, r5
     f74:	f000 fb08 	bl	1588 <entry_find_objects_init>
     f78:	e778      	b.n	e6c <TA_InvokeCommandEntryPoint+0xfe>
/home/aom1/Work/Linux/target/STM32MP1-DK2/buildroot/buildroot/output/build/optee-os-custom/ta/pkcs11/src/entry.c:295
     f7a:	4622      	mov	r2, r4
     f7c:	4629      	mov	r1, r5
     f7e:	f000 fc19 	bl	17b4 <entry_find_objects>
     f82:	e773      	b.n	e6c <TA_InvokeCommandEntryPoint+0xfe>
/home/aom1/Work/Linux/target/STM32MP1-DK2/buildroot/buildroot/output/build/optee-os-custom/ta/pkcs11/src/entry.c:298
     f84:	4622      	mov	r2, r4
     f86:	4629      	mov	r1, r5
     f88:	f000 fc86 	bl	1898 <entry_find_objects_final>
     f8c:	e76e      	b.n	e6c <TA_InvokeCommandEntryPoint+0xfe>
/home/aom1/Work/Linux/target/STM32MP1-DK2/buildroot/buildroot/output/build/optee-os-custom/ta/pkcs11/src/entry.c:301
     f8e:	4622      	mov	r2, r4
     f90:	4629      	mov	r1, r5
     f92:	f000 fcc7 	bl	1924 <entry_get_attribute_value>
     f96:	e769      	b.n	e6c <TA_InvokeCommandEntryPoint+0xfe>
/home/aom1/Work/Linux/target/STM32MP1-DK2/buildroot/buildroot/output/build/optee-os-custom/ta/pkcs11/src/entry.c:304
     f98:	4622      	mov	r2, r4
     f9a:	4629      	mov	r1, r5
     f9c:	f000 fd94 	bl	1ac8 <entry_get_object_size>
     fa0:	e764      	b.n	e6c <TA_InvokeCommandEntryPoint+0xfe>
/home/aom1/Work/Linux/target/STM32MP1-DK2/buildroot/buildroot/output/build/optee-os-custom/ta/pkcs11/src/entry.c:307
     fa2:	4622      	mov	r2, r4
     fa4:	4629      	mov	r1, r5
     fa6:	f000 fdf3 	bl	1b90 <entry_set_attribute_value>
     faa:	e75f      	b.n	e6c <TA_InvokeCommandEntryPoint+0xfe>
/home/aom1/Work/Linux/target/STM32MP1-DK2/buildroot/buildroot/output/build/optee-os-custom/ta/pkcs11/src/entry.c:310
     fac:	4622      	mov	r2, r4
     fae:	4629      	mov	r1, r5
     fb0:	f000 fe90 	bl	1cd4 <entry_copy_object>
     fb4:	e75a      	b.n	e6c <TA_InvokeCommandEntryPoint+0xfe>
/home/aom1/Work/Linux/target/STM32MP1-DK2/buildroot/buildroot/output/build/optee-os-custom/ta/pkcs11/src/entry.c:313
     fb6:	4622      	mov	r2, r4
     fb8:	4629      	mov	r1, r5
     fba:	f005 fafd 	bl	65b8 <entry_ck_seed_random>
     fbe:	e755      	b.n	e6c <TA_InvokeCommandEntryPoint+0xfe>
/home/aom1/Work/Linux/target/STM32MP1-DK2/buildroot/buildroot/output/build/optee-os-custom/ta/pkcs11/src/entry.c:316
     fc0:	4622      	mov	r2, r4
     fc2:	4629      	mov	r1, r5
     fc4:	f005 fb84 	bl	66d0 <entry_ck_generate_random>
     fc8:	e750      	b.n	e6c <TA_InvokeCommandEntryPoint+0xfe>
/home/aom1/Work/Linux/target/STM32MP1-DK2/buildroot/buildroot/output/build/optee-os-custom/ta/pkcs11/src/entry.c:319
     fca:	2303      	movs	r3, #3
/home/aom1/Work/Linux/target/STM32MP1-DK2/buildroot/buildroot/output/build/optee-os-custom/ta/pkcs11/src/entry.c:356
     fcc:	4622      	mov	r2, r4
     fce:	4629      	mov	r1, r5
     fd0:	f006 f922 	bl	7218 <entry_processing_key>
     fd4:	e74a      	b.n	e6c <TA_InvokeCommandEntryPoint+0xfe>
/home/aom1/Work/Linux/target/STM32MP1-DK2/buildroot/buildroot/output/build/optee-os-custom/ta/pkcs11/src/entry.c:323
     fd6:	4622      	mov	r2, r4
     fd8:	4629      	mov	r1, r5
     fda:	f006 fa71 	bl	74c0 <entry_release_active_processing>
     fde:	e745      	b.n	e6c <TA_InvokeCommandEntryPoint+0xfe>
/home/aom1/Work/Linux/target/STM32MP1-DK2/buildroot/buildroot/output/build/optee-os-custom/ta/pkcs11/src/entry.c:326
     fe0:	2300      	movs	r3, #0
     fe2:	e791      	b.n	f08 <TA_InvokeCommandEntryPoint+0x19a>
/home/aom1/Work/Linux/target/STM32MP1-DK2/buildroot/buildroot/output/build/optee-os-custom/ta/pkcs11/src/entry.c:330
     fe4:	2302      	movs	r3, #2
/home/aom1/Work/Linux/target/STM32MP1-DK2/buildroot/buildroot/output/build/optee-os-custom/ta/pkcs11/src/entry.c:345
     fe6:	9300      	str	r3, [sp, #0]
     fe8:	2300      	movs	r3, #0
     fea:	e797      	b.n	f1c <TA_InvokeCommandEntryPoint+0x1ae>
/home/aom1/Work/Linux/target/STM32MP1-DK2/buildroot/buildroot/output/build/optee-os-custom/ta/pkcs11/src/entry.c:335
     fec:	2303      	movs	r3, #3
     fee:	e7fa      	b.n	fe6 <TA_InvokeCommandEntryPoint+0x278>
/home/aom1/Work/Linux/target/STM32MP1-DK2/buildroot/buildroot/output/build/optee-os-custom/ta/pkcs11/src/entry.c:340
     ff0:	2301      	movs	r3, #1
     ff2:	e7f8      	b.n	fe6 <TA_InvokeCommandEntryPoint+0x278>
/home/aom1/Work/Linux/target/STM32MP1-DK2/buildroot/buildroot/output/build/optee-os-custom/ta/pkcs11/src/entry.c:345
     ff4:	2304      	movs	r3, #4
     ff6:	e7f6      	b.n	fe6 <TA_InvokeCommandEntryPoint+0x278>
/home/aom1/Work/Linux/target/STM32MP1-DK2/buildroot/buildroot/output/build/optee-os-custom/ta/pkcs11/src/entry.c:350
     ff8:	4622      	mov	r2, r4
     ffa:	4629      	mov	r1, r5
     ffc:	f005 fe30 	bl	6c60 <entry_generate_key_pair>
    1000:	e734      	b.n	e6c <TA_InvokeCommandEntryPoint+0xfe>
/home/aom1/Work/Linux/target/STM32MP1-DK2/buildroot/buildroot/output/build/optee-os-custom/ta/pkcs11/src/entry.c:353
    1002:	4622      	mov	r2, r4
    1004:	4629      	mov	r1, r5
    1006:	f006 fab7 	bl	7578 <entry_wrap_key>
    100a:	e72f      	b.n	e6c <TA_InvokeCommandEntryPoint+0xfe>
/home/aom1/Work/Linux/target/STM32MP1-DK2/buildroot/buildroot/output/build/optee-os-custom/ta/pkcs11/src/entry.c:356
    100c:	2305      	movs	r3, #5
    100e:	e7dd      	b.n	fcc <TA_InvokeCommandEntryPoint+0x25e>
/home/aom1/Work/Linux/target/STM32MP1-DK2/buildroot/buildroot/output/build/optee-os-custom/ta/pkcs11/src/entry.c:360
    1010:	4b15      	ldr	r3, [pc, #84]	; (1068 <TA_InvokeCommandEntryPoint+0x2fa>)
    1012:	f44f 71b4 	mov.w	r1, #360	; 0x168
    1016:	4815      	ldr	r0, [pc, #84]	; (106c <TA_InvokeCommandEntryPoint+0x2fe>)
    1018:	447b      	add	r3, pc
    101a:	9300      	str	r3, [sp, #0]
    101c:	2301      	movs	r3, #1
    101e:	4478      	add	r0, pc
    1020:	461a      	mov	r2, r3
    1022:	9601      	str	r6, [sp, #4]
    1024:	f00a ffb2 	bl	bf8c <trace_printf>
/home/aom1/Work/Linux/target/STM32MP1-DK2/buildroot/buildroot/output/build/optee-os-custom/ta/pkcs11/src/entry.c:361
    1028:	480a      	ldr	r0, [pc, #40]	; (1054 <TA_InvokeCommandEntryPoint+0x2e6>)
/home/aom1/Work/Linux/target/STM32MP1-DK2/buildroot/buildroot/output/build/optee-os-custom/ta/pkcs11/src/entry.c:119
    102a:	4a11      	ldr	r2, [pc, #68]	; (1070 <TA_InvokeCommandEntryPoint+0x302>)
/home/aom1/Work/Linux/target/STM32MP1-DK2/buildroot/buildroot/output/build/optee-os-custom/ta/pkcs11/src/entry.c:373
    102c:	4b0d      	ldr	r3, [pc, #52]	; (1064 <TA_InvokeCommandEntryPoint+0x2f6>)
/home/aom1/Work/Linux/target/STM32MP1-DK2/buildroot/buildroot/output/build/optee-os-custom/ta/pkcs11/src/entry.c:119
    102e:	447a      	add	r2, pc
/home/aom1/Work/Linux/target/STM32MP1-DK2/buildroot/buildroot/output/build/optee-os-custom/ta/pkcs11/src/entry.c:373
    1030:	58d3      	ldr	r3, [r2, r3]
    1032:	681a      	ldr	r2, [r3, #0]
    1034:	9b07      	ldr	r3, [sp, #28]
    1036:	405a      	eors	r2, r3
    1038:	f04f 0300 	mov.w	r3, #0
    103c:	d005      	beq.n	104a <TA_InvokeCommandEntryPoint+0x2dc>
    103e:	f014 fc43 	bl	158c8 <__stack_chk_fail>
/home/aom1/Work/Linux/target/STM32MP1-DK2/buildroot/buildroot/output/build/optee-os-custom/ta/pkcs11/src/entry.c:124
    1042:	4805      	ldr	r0, [pc, #20]	; (1058 <TA_InvokeCommandEntryPoint+0x2ea>)
    1044:	e7f1      	b.n	102a <TA_InvokeCommandEntryPoint+0x2bc>
/home/aom1/Work/Linux/target/STM32MP1-DK2/buildroot/buildroot/output/build/optee-os-custom/ta/pkcs11/src/entry.c:140
    1046:	4805      	ldr	r0, [pc, #20]	; (105c <TA_InvokeCommandEntryPoint+0x2ee>)
    1048:	e7ef      	b.n	102a <TA_InvokeCommandEntryPoint+0x2bc>
/home/aom1/Work/Linux/target/STM32MP1-DK2/buildroot/buildroot/output/build/optee-os-custom/ta/pkcs11/src/entry.c:373
    104a:	b008      	add	sp, #32
    104c:	bd70      	pop	{r4, r5, r6, pc}
    104e:	bf00      	nop
    1050:	ffff0010 	.word	0xffff0010
    1054:	ffff000a 	.word	0xffff000a
    1058:	ffff000f 	.word	0xffff000f
    105c:	ffff0006 	.word	0xffff0006
    1060:	0001b30a 	.word	0x0001b30a
    1064:	0000000c 	.word	0x0000000c
    1068:	00015771 	.word	0x00015771
    106c:	00015788 	.word	0x00015788
    1070:	0001b056 	.word	0x0001b056

00001074 <cleanup_volatile_obj_ref>:
cleanup_volatile_obj_ref():
/home/aom1/Work/Linux/target/STM32MP1-DK2/buildroot/buildroot/output/build/optee-os-custom/ta/pkcs11/src/object.c:84
    1074:	b510      	push	{r4, lr}
/home/aom1/Work/Linux/target/STM32MP1-DK2/buildroot/buildroot/output/build/optee-os-custom/ta/pkcs11/src/object.c:85
    1076:	4604      	mov	r4, r0
    1078:	b1c0      	cbz	r0, 10ac <cleanup_volatile_obj_ref+0x38>
/home/aom1/Work/Linux/target/STM32MP1-DK2/buildroot/buildroot/output/build/optee-os-custom/ta/pkcs11/src/object.c:88
    107a:	6803      	ldr	r3, [r0, #0]
    107c:	b10b      	cbz	r3, 1082 <cleanup_volatile_obj_ref+0xe>
/home/aom1/Work/Linux/target/STM32MP1-DK2/buildroot/buildroot/output/build/optee-os-custom/ta/pkcs11/src/object.c:88 (discriminator 1)
    107e:	6842      	ldr	r2, [r0, #4]
    1080:	605a      	str	r2, [r3, #4]
/home/aom1/Work/Linux/target/STM32MP1-DK2/buildroot/buildroot/output/build/optee-os-custom/ta/pkcs11/src/object.c:88 (discriminator 3)
    1082:	6862      	ldr	r2, [r4, #4]
/home/aom1/Work/Linux/target/STM32MP1-DK2/buildroot/buildroot/output/build/optee-os-custom/ta/pkcs11/src/object.c:90 (discriminator 3)
    1084:	68e0      	ldr	r0, [r4, #12]
/home/aom1/Work/Linux/target/STM32MP1-DK2/buildroot/buildroot/output/build/optee-os-custom/ta/pkcs11/src/object.c:88 (discriminator 3)
    1086:	6013      	str	r3, [r2, #0]
/home/aom1/Work/Linux/target/STM32MP1-DK2/buildroot/buildroot/output/build/optee-os-custom/ta/pkcs11/src/object.c:90 (discriminator 3)
    1088:	b108      	cbz	r0, 108e <cleanup_volatile_obj_ref+0x1a>
/home/aom1/Work/Linux/target/STM32MP1-DK2/buildroot/buildroot/output/build/optee-os-custom/ta/pkcs11/src/object.c:91
    108a:	f00b fb67 	bl	c75c <TEE_FreeTransientObject>
/home/aom1/Work/Linux/target/STM32MP1-DK2/buildroot/buildroot/output/build/optee-os-custom/ta/pkcs11/src/object.c:93
    108e:	69e0      	ldr	r0, [r4, #28]
    1090:	b108      	cbz	r0, 1096 <cleanup_volatile_obj_ref+0x22>
/home/aom1/Work/Linux/target/STM32MP1-DK2/buildroot/buildroot/output/build/optee-os-custom/ta/pkcs11/src/object.c:94
    1092:	f00b fb1f 	bl	c6d4 <TEE_CloseObject>
/home/aom1/Work/Linux/target/STM32MP1-DK2/buildroot/buildroot/output/build/optee-os-custom/ta/pkcs11/src/object.c:96
    1096:	68a0      	ldr	r0, [r4, #8]
    1098:	f7ff faa4 	bl	5e4 <TEE_Free>
/home/aom1/Work/Linux/target/STM32MP1-DK2/buildroot/buildroot/output/build/optee-os-custom/ta/pkcs11/src/object.c:97
    109c:	69a0      	ldr	r0, [r4, #24]
    109e:	f7ff faa1 	bl	5e4 <TEE_Free>
/home/aom1/Work/Linux/target/STM32MP1-DK2/buildroot/buildroot/output/build/optee-os-custom/ta/pkcs11/src/object.c:98
    10a2:	4620      	mov	r0, r4
/home/aom1/Work/Linux/target/STM32MP1-DK2/buildroot/buildroot/output/build/optee-os-custom/ta/pkcs11/src/object.c:99
    10a4:	e8bd 4010 	ldmia.w	sp!, {r4, lr}
/home/aom1/Work/Linux/target/STM32MP1-DK2/buildroot/buildroot/output/build/optee-os-custom/ta/pkcs11/src/object.c:98
    10a8:	f7ff ba9c 	b.w	5e4 <TEE_Free>
/home/aom1/Work/Linux/target/STM32MP1-DK2/buildroot/buildroot/output/build/optee-os-custom/ta/pkcs11/src/object.c:99
    10ac:	bd10      	pop	{r4, pc}

000010ae <get_class>:
get_class():
/home/aom1/Work/Linux/target/STM32MP1-DK2/buildroot/buildroot/output/build/optee-os-custom/ta/pkcs11/src/attributes.h:237
    10ae:	b51f      	push	{r0, r1, r2, r3, r4, lr}
/home/aom1/Work/Linux/target/STM32MP1-DK2/buildroot/buildroot/output/build/optee-os-custom/ta/pkcs11/src/attributes.h:238
    10b0:	2100      	movs	r1, #0
/home/aom1/Work/Linux/target/STM32MP1-DK2/buildroot/buildroot/output/build/optee-os-custom/ta/pkcs11/src/attributes.h:237
    10b2:	4a11      	ldr	r2, [pc, #68]	; (10f8 <get_class+0x4a>)
    10b4:	4b11      	ldr	r3, [pc, #68]	; (10fc <get_class+0x4e>)
    10b6:	447a      	add	r2, pc
    10b8:	58d3      	ldr	r3, [r2, r3]
/home/aom1/Work/Linux/target/STM32MP1-DK2/buildroot/buildroot/output/build/optee-os-custom/ta/pkcs11/src/attributes.h:241
    10ba:	aa01      	add	r2, sp, #4
/home/aom1/Work/Linux/target/STM32MP1-DK2/buildroot/buildroot/output/build/optee-os-custom/ta/pkcs11/src/attributes.h:237
    10bc:	681b      	ldr	r3, [r3, #0]
    10be:	9303      	str	r3, [sp, #12]
    10c0:	f04f 0300 	mov.w	r3, #0
/home/aom1/Work/Linux/target/STM32MP1-DK2/buildroot/buildroot/output/build/optee-os-custom/ta/pkcs11/src/attributes.h:239
    10c4:	2304      	movs	r3, #4
    10c6:	9302      	str	r3, [sp, #8]
/home/aom1/Work/Linux/target/STM32MP1-DK2/buildroot/buildroot/output/build/optee-os-custom/ta/pkcs11/src/attributes.h:241
    10c8:	ab02      	add	r3, sp, #8
/home/aom1/Work/Linux/target/STM32MP1-DK2/buildroot/buildroot/output/build/optee-os-custom/ta/pkcs11/src/attributes.h:238
    10ca:	9101      	str	r1, [sp, #4]
/home/aom1/Work/Linux/target/STM32MP1-DK2/buildroot/buildroot/output/build/optee-os-custom/ta/pkcs11/src/attributes.h:241
    10cc:	f7ff fbea 	bl	8a4 <get_attribute>
    10d0:	b960      	cbnz	r0, 10ec <get_class+0x3e>
/home/aom1/Work/Linux/target/STM32MP1-DK2/buildroot/buildroot/output/build/optee-os-custom/ta/pkcs11/src/attributes.h:244
    10d2:	9801      	ldr	r0, [sp, #4]
/home/aom1/Work/Linux/target/STM32MP1-DK2/buildroot/buildroot/output/build/optee-os-custom/ta/pkcs11/src/attributes.h:237
    10d4:	4a0a      	ldr	r2, [pc, #40]	; (1100 <get_class+0x52>)
/home/aom1/Work/Linux/target/STM32MP1-DK2/buildroot/buildroot/output/build/optee-os-custom/ta/pkcs11/src/attributes.h:245
    10d6:	4b09      	ldr	r3, [pc, #36]	; (10fc <get_class+0x4e>)
/home/aom1/Work/Linux/target/STM32MP1-DK2/buildroot/buildroot/output/build/optee-os-custom/ta/pkcs11/src/attributes.h:237
    10d8:	447a      	add	r2, pc
/home/aom1/Work/Linux/target/STM32MP1-DK2/buildroot/buildroot/output/build/optee-os-custom/ta/pkcs11/src/attributes.h:245
    10da:	58d3      	ldr	r3, [r2, r3]
    10dc:	681a      	ldr	r2, [r3, #0]
    10de:	9b03      	ldr	r3, [sp, #12]
    10e0:	405a      	eors	r2, r3
    10e2:	f04f 0300 	mov.w	r3, #0
    10e6:	d004      	beq.n	10f2 <get_class+0x44>
    10e8:	f014 fbee 	bl	158c8 <__stack_chk_fail>
/home/aom1/Work/Linux/target/STM32MP1-DK2/buildroot/buildroot/output/build/optee-os-custom/ta/pkcs11/src/attributes.h:242
    10ec:	f04f 30ff 	mov.w	r0, #4294967295	; 0xffffffff
    10f0:	e7f0      	b.n	10d4 <get_class+0x26>
/home/aom1/Work/Linux/target/STM32MP1-DK2/buildroot/buildroot/output/build/optee-os-custom/ta/pkcs11/src/attributes.h:245
    10f2:	b005      	add	sp, #20
    10f4:	f85d fb04 	ldr.w	pc, [sp], #4
    10f8:	0001afce 	.word	0x0001afce
    10fc:	0000000c 	.word	0x0000000c
    1100:	0001afac 	.word	0x0001afac

00001104 <find_ctx_add>:
find_ctx_add():
/home/aom1/Work/Linux/target/STM32MP1-DK2/buildroot/buildroot/output/build/optee-os-custom/ta/pkcs11/src/object.c:473
    1104:	b538      	push	{r3, r4, r5, lr}
    1106:	460d      	mov	r5, r1
/home/aom1/Work/Linux/target/STM32MP1-DK2/buildroot/buildroot/output/build/optee-os-custom/ta/pkcs11/src/object.c:475
    1108:	6841      	ldr	r1, [r0, #4]
/home/aom1/Work/Linux/target/STM32MP1-DK2/buildroot/buildroot/output/build/optee-os-custom/ta/pkcs11/src/object.c:473
    110a:	4604      	mov	r4, r0
/home/aom1/Work/Linux/target/STM32MP1-DK2/buildroot/buildroot/output/build/optee-os-custom/ta/pkcs11/src/object.c:474
    110c:	6880      	ldr	r0, [r0, #8]
/home/aom1/Work/Linux/target/STM32MP1-DK2/buildroot/buildroot/output/build/optee-os-custom/ta/pkcs11/src/object.c:475
    110e:	3101      	adds	r1, #1
/home/aom1/Work/Linux/target/STM32MP1-DK2/buildroot/buildroot/output/build/optee-os-custom/ta/pkcs11/src/object.c:474
    1110:	0089      	lsls	r1, r1, #2
    1112:	f7ff fa6c 	bl	5ee <TEE_Realloc>
/home/aom1/Work/Linux/target/STM32MP1-DK2/buildroot/buildroot/output/build/optee-os-custom/ta/pkcs11/src/object.c:477
    1116:	b140      	cbz	r0, 112a <find_ctx_add+0x26>
/home/aom1/Work/Linux/target/STM32MP1-DK2/buildroot/buildroot/output/build/optee-os-custom/ta/pkcs11/src/object.c:482
    1118:	6863      	ldr	r3, [r4, #4]
/home/aom1/Work/Linux/target/STM32MP1-DK2/buildroot/buildroot/output/build/optee-os-custom/ta/pkcs11/src/object.c:480
    111a:	60a0      	str	r0, [r4, #8]
/home/aom1/Work/Linux/target/STM32MP1-DK2/buildroot/buildroot/output/build/optee-os-custom/ta/pkcs11/src/object.c:482
    111c:	f840 5023 	str.w	r5, [r0, r3, lsl #2]
/home/aom1/Work/Linux/target/STM32MP1-DK2/buildroot/buildroot/output/build/optee-os-custom/ta/pkcs11/src/object.c:485
    1120:	2000      	movs	r0, #0
/home/aom1/Work/Linux/target/STM32MP1-DK2/buildroot/buildroot/output/build/optee-os-custom/ta/pkcs11/src/object.c:483
    1122:	6863      	ldr	r3, [r4, #4]
    1124:	3301      	adds	r3, #1
    1126:	6063      	str	r3, [r4, #4]
/home/aom1/Work/Linux/target/STM32MP1-DK2/buildroot/buildroot/output/build/optee-os-custom/ta/pkcs11/src/object.c:486
    1128:	bd38      	pop	{r3, r4, r5, pc}
/home/aom1/Work/Linux/target/STM32MP1-DK2/buildroot/buildroot/output/build/optee-os-custom/ta/pkcs11/src/object.c:478
    112a:	2031      	movs	r0, #49	; 0x31
    112c:	e7fc      	b.n	1128 <find_ctx_add+0x24>

0000112e <pkcs11_handle2object>:
pkcs11_handle2object():
/home/aom1/Work/Linux/target/STM32MP1-DK2/buildroot/buildroot/output/build/optee-os-custom/ta/pkcs11/src/object.c:35
    112e:	b538      	push	{r3, r4, r5, lr}
    1130:	4605      	mov	r5, r0
/home/aom1/Work/Linux/target/STM32MP1-DK2/buildroot/buildroot/output/build/optee-os-custom/ta/pkcs11/src/object.c:38
    1132:	4608      	mov	r0, r1
/home/aom1/Work/Linux/target/STM32MP1-DK2/buildroot/buildroot/output/build/optee-os-custom/ta/pkcs11/src/object.c:35
    1134:	460c      	mov	r4, r1
/home/aom1/Work/Linux/target/STM32MP1-DK2/buildroot/buildroot/output/build/optee-os-custom/ta/pkcs11/src/object.c:38
    1136:	f004 f9eb 	bl	5510 <get_object_handle_db>
    113a:	4629      	mov	r1, r5
    113c:	f014 fba0 	bl	15880 <handle_lookup>
/home/aom1/Work/Linux/target/STM32MP1-DK2/buildroot/buildroot/output/build/optee-os-custom/ta/pkcs11/src/object.c:39
    1140:	b128      	cbz	r0, 114e <pkcs11_handle2object+0x20>
/home/aom1/Work/Linux/target/STM32MP1-DK2/buildroot/buildroot/output/build/optee-os-custom/ta/pkcs11/src/object.c:46
    1142:	6943      	ldr	r3, [r0, #20]
    1144:	b11b      	cbz	r3, 114e <pkcs11_handle2object+0x20>
/home/aom1/Work/Linux/target/STM32MP1-DK2/buildroot/buildroot/output/build/optee-os-custom/ta/pkcs11/src/object.c:53
    1146:	68e2      	ldr	r2, [r4, #12]
/home/aom1/Work/Linux/target/STM32MP1-DK2/buildroot/buildroot/output/build/optee-os-custom/ta/pkcs11/src/object.c:54
    1148:	4293      	cmp	r3, r2
    114a:	bf18      	it	ne
    114c:	2000      	movne	r0, #0
/home/aom1/Work/Linux/target/STM32MP1-DK2/buildroot/buildroot/output/build/optee-os-custom/ta/pkcs11/src/object.c:57
    114e:	bd38      	pop	{r3, r4, r5, pc}

00001150 <pkcs11_object2handle>:
pkcs11_object2handle():
/home/aom1/Work/Linux/target/STM32MP1-DK2/buildroot/buildroot/output/build/optee-os-custom/ta/pkcs11/src/object.c:61
    1150:	b510      	push	{r4, lr}
    1152:	4604      	mov	r4, r0
/home/aom1/Work/Linux/target/STM32MP1-DK2/buildroot/buildroot/output/build/optee-os-custom/ta/pkcs11/src/object.c:62
    1154:	4608      	mov	r0, r1
    1156:	f004 f9db 	bl	5510 <get_object_handle_db>
    115a:	4621      	mov	r1, r4
/home/aom1/Work/Linux/target/STM32MP1-DK2/buildroot/buildroot/output/build/optee-os-custom/ta/pkcs11/src/object.c:63
    115c:	e8bd 4010 	ldmia.w	sp!, {r4, lr}
/home/aom1/Work/Linux/target/STM32MP1-DK2/buildroot/buildroot/output/build/optee-os-custom/ta/pkcs11/src/object.c:62
    1160:	f014 bb99 	b.w	15896 <handle_lookup_handle>

00001164 <cleanup_persistent_object>:
cleanup_persistent_object():
/home/aom1/Work/Linux/target/STM32MP1-DK2/buildroot/buildroot/output/build/optee-os-custom/ta/pkcs11/src/object.c:104
    1164:	b537      	push	{r0, r1, r2, r4, r5, lr}
    1166:	460d      	mov	r5, r1
/home/aom1/Work/Linux/target/STM32MP1-DK2/buildroot/buildroot/output/build/optee-os-custom/ta/pkcs11/src/object.c:107
    1168:	4604      	mov	r4, r0
    116a:	b1d8      	cbz	r0, 11a4 <cleanup_persistent_object+0x40>
/home/aom1/Work/Linux/target/STM32MP1-DK2/buildroot/buildroot/output/build/optee-os-custom/ta/pkcs11/src/object.c:111
    116c:	69c0      	ldr	r0, [r0, #28]
    116e:	b108      	cbz	r0, 1174 <cleanup_persistent_object+0x10>
/home/aom1/Work/Linux/target/STM32MP1-DK2/buildroot/buildroot/output/build/optee-os-custom/ta/pkcs11/src/object.c:112
    1170:	f00b fab0 	bl	c6d4 <TEE_CloseObject>
/home/aom1/Work/Linux/target/STM32MP1-DK2/buildroot/buildroot/output/build/optee-os-custom/ta/pkcs11/src/object.c:114
    1174:	f104 031c 	add.w	r3, r4, #28
    1178:	2210      	movs	r2, #16
    117a:	9300      	str	r3, [sp, #0]
    117c:	2001      	movs	r0, #1
    117e:	69a1      	ldr	r1, [r4, #24]
    1180:	2304      	movs	r3, #4
    1182:	f00b fc8d 	bl	caa0 <TEE_OpenPersistentObject>
/home/aom1/Work/Linux/target/STM32MP1-DK2/buildroot/buildroot/output/build/optee-os-custom/ta/pkcs11/src/object.c:118
    1186:	b910      	cbnz	r0, 118e <cleanup_persistent_object+0x2a>
/home/aom1/Work/Linux/target/STM32MP1-DK2/buildroot/buildroot/output/build/optee-os-custom/ta/pkcs11/src/object.c:119
    1188:	69e0      	ldr	r0, [r4, #28]
    118a:	f00b fd37 	bl	cbfc <TEE_CloseAndDeletePersistentObject1>
/home/aom1/Work/Linux/target/STM32MP1-DK2/buildroot/buildroot/output/build/optee-os-custom/ta/pkcs11/src/object.c:121
    118e:	2300      	movs	r3, #0
/home/aom1/Work/Linux/target/STM32MP1-DK2/buildroot/buildroot/output/build/optee-os-custom/ta/pkcs11/src/object.c:122
    1190:	4628      	mov	r0, r5
/home/aom1/Work/Linux/target/STM32MP1-DK2/buildroot/buildroot/output/build/optee-os-custom/ta/pkcs11/src/object.c:121
    1192:	61e3      	str	r3, [r4, #28]
/home/aom1/Work/Linux/target/STM32MP1-DK2/buildroot/buildroot/output/build/optee-os-custom/ta/pkcs11/src/object.c:122
    1194:	4621      	mov	r1, r4
    1196:	f001 f9e7 	bl	2568 <destroy_object_uuid>
/home/aom1/Work/Linux/target/STM32MP1-DK2/buildroot/buildroot/output/build/optee-os-custom/ta/pkcs11/src/object.c:124
    119a:	4620      	mov	r0, r4
/home/aom1/Work/Linux/target/STM32MP1-DK2/buildroot/buildroot/output/build/optee-os-custom/ta/pkcs11/src/object.c:125
    119c:	b003      	add	sp, #12
    119e:	e8bd 4030 	ldmia.w	sp!, {r4, r5, lr}
/home/aom1/Work/Linux/target/STM32MP1-DK2/buildroot/buildroot/output/build/optee-os-custom/ta/pkcs11/src/object.c:124
    11a2:	e767      	b.n	1074 <cleanup_volatile_obj_ref>
/home/aom1/Work/Linux/target/STM32MP1-DK2/buildroot/buildroot/output/build/optee-os-custom/ta/pkcs11/src/object.c:125
    11a4:	b003      	add	sp, #12
    11a6:	bd30      	pop	{r4, r5, pc}

000011a8 <destroy_object>:
destroy_object():
/home/aom1/Work/Linux/target/STM32MP1-DK2/buildroot/buildroot/output/build/optee-os-custom/ta/pkcs11/src/object.c:136
    11a8:	b570      	push	{r4, r5, r6, lr}
    11aa:	4605      	mov	r5, r0
    11ac:	460c      	mov	r4, r1
/home/aom1/Work/Linux/target/STM32MP1-DK2/buildroot/buildroot/output/build/optee-os-custom/ta/pkcs11/src/object.c:143
    11ae:	4616      	mov	r6, r2
    11b0:	b172      	cbz	r2, 11d0 <destroy_object+0x28>
/home/aom1/Work/Linux/target/STM32MP1-DK2/buildroot/buildroot/output/build/optee-os-custom/ta/pkcs11/src/object.c:164
    11b2:	f004 f9ad 	bl	5510 <get_object_handle_db>
    11b6:	4606      	mov	r6, r0
    11b8:	4629      	mov	r1, r5
    11ba:	4620      	mov	r0, r4
    11bc:	f7ff ffc8 	bl	1150 <pkcs11_object2handle>
    11c0:	4601      	mov	r1, r0
    11c2:	4630      	mov	r0, r6
    11c4:	f014 fb4e 	bl	15864 <handle_put>
/home/aom1/Work/Linux/target/STM32MP1-DK2/buildroot/buildroot/output/build/optee-os-custom/ta/pkcs11/src/object.c:166
    11c8:	4620      	mov	r0, r4
/home/aom1/Work/Linux/target/STM32MP1-DK2/buildroot/buildroot/output/build/optee-os-custom/ta/pkcs11/src/object.c:168
    11ca:	e8bd 4070 	ldmia.w	sp!, {r4, r5, r6, lr}
/home/aom1/Work/Linux/target/STM32MP1-DK2/buildroot/buildroot/output/build/optee-os-custom/ta/pkcs11/src/object.c:166
    11ce:	e751      	b.n	1074 <cleanup_volatile_obj_ref>
/home/aom1/Work/Linux/target/STM32MP1-DK2/buildroot/buildroot/output/build/optee-os-custom/ta/pkcs11/src/object.c:153
    11d0:	68a0      	ldr	r0, [r4, #8]
    11d2:	2101      	movs	r1, #1
    11d4:	f7ff fc02 	bl	9dc <get_bool>
    11d8:	b350      	cbz	r0, 1230 <destroy_object+0x88>
/home/aom1/Work/Linux/target/STM32MP1-DK2/buildroot/buildroot/output/build/optee-os-custom/ta/pkcs11/src/object.c:154
    11da:	69a1      	ldr	r1, [r4, #24]
    11dc:	b951      	cbnz	r1, 11f4 <destroy_object+0x4c>
    11de:	4b15      	ldr	r3, [pc, #84]	; (1234 <destroy_object+0x8c>)
    11e0:	229a      	movs	r2, #154	; 0x9a
    11e2:	4915      	ldr	r1, [pc, #84]	; (1238 <destroy_object+0x90>)
    11e4:	4815      	ldr	r0, [pc, #84]	; (123c <destroy_object+0x94>)
    11e6:	447b      	add	r3, pc
    11e8:	4479      	add	r1, pc
    11ea:	4478      	add	r0, pc
    11ec:	f00a fff0 	bl	c1d0 <_assert_log>
    11f0:	f00b f802 	bl	c1f8 <_assert_break>
/home/aom1/Work/Linux/target/STM32MP1-DK2/buildroot/buildroot/output/build/optee-os-custom/ta/pkcs11/src/object.c:156
    11f4:	68e8      	ldr	r0, [r5, #12]
    11f6:	f001 f9ed 	bl	25d4 <unregister_persistent_object>
    11fa:	b138      	cbz	r0, 120c <destroy_object+0x64>
/home/aom1/Work/Linux/target/STM32MP1-DK2/buildroot/buildroot/output/build/optee-os-custom/ta/pkcs11/src/object.c:157
    11fc:	69a1      	ldr	r1, [r4, #24]
    11fe:	68e8      	ldr	r0, [r5, #12]
    1200:	f001 f9e8 	bl	25d4 <unregister_persistent_object>
/home/aom1/Work/Linux/target/STM32MP1-DK2/buildroot/buildroot/output/build/optee-os-custom/ta/pkcs11/src/object.c:156
    1204:	b110      	cbz	r0, 120c <destroy_object+0x64>
/home/aom1/Work/Linux/target/STM32MP1-DK2/buildroot/buildroot/output/build/optee-os-custom/ta/pkcs11/src/object.c:158
    1206:	4630      	mov	r0, r6
    1208:	f00d fe62 	bl	eed0 <TEE_Panic>
/home/aom1/Work/Linux/target/STM32MP1-DK2/buildroot/buildroot/output/build/optee-os-custom/ta/pkcs11/src/object.c:160
    120c:	4628      	mov	r0, r5
    120e:	f004 f97f 	bl	5510 <get_object_handle_db>
    1212:	4606      	mov	r6, r0
    1214:	4629      	mov	r1, r5
    1216:	4620      	mov	r0, r4
    1218:	f7ff ff9a 	bl	1150 <pkcs11_object2handle>
    121c:	4601      	mov	r1, r0
    121e:	4630      	mov	r0, r6
    1220:	f014 fb20 	bl	15864 <handle_put>
/home/aom1/Work/Linux/target/STM32MP1-DK2/buildroot/buildroot/output/build/optee-os-custom/ta/pkcs11/src/object.c:162
    1224:	68e9      	ldr	r1, [r5, #12]
    1226:	4620      	mov	r0, r4
/home/aom1/Work/Linux/target/STM32MP1-DK2/buildroot/buildroot/output/build/optee-os-custom/ta/pkcs11/src/object.c:168
    1228:	e8bd 4070 	ldmia.w	sp!, {r4, r5, r6, lr}
/home/aom1/Work/Linux/target/STM32MP1-DK2/buildroot/buildroot/output/build/optee-os-custom/ta/pkcs11/src/object.c:162
    122c:	f7ff bf9a 	b.w	1164 <cleanup_persistent_object>
/home/aom1/Work/Linux/target/STM32MP1-DK2/buildroot/buildroot/output/build/optee-os-custom/ta/pkcs11/src/object.c:164
    1230:	4628      	mov	r0, r5
    1232:	e7be      	b.n	11b2 <destroy_object+0xa>
    1234:	00015649 	.word	0x00015649
    1238:	000155d9 	.word	0x000155d9
    123c:	000157e1 	.word	0x000157e1

00001240 <create_token_object>:
create_token_object():
/home/aom1/Work/Linux/target/STM32MP1-DK2/buildroot/buildroot/output/build/optee-os-custom/ta/pkcs11/src/object.c:190
    1240:	b570      	push	{r4, r5, r6, lr}
    1242:	4606      	mov	r6, r0
    1244:	460c      	mov	r4, r1
create_obj_instance():
/home/aom1/Work/Linux/target/STM32MP1-DK2/buildroot/buildroot/output/build/optee-os-custom/ta/pkcs11/src/object.c:175
    1246:	2020      	movs	r0, #32
    1248:	2100      	movs	r1, #0
create_token_object():
/home/aom1/Work/Linux/target/STM32MP1-DK2/buildroot/buildroot/output/build/optee-os-custom/ta/pkcs11/src/object.c:190
    124a:	4615      	mov	r5, r2
create_obj_instance():
/home/aom1/Work/Linux/target/STM32MP1-DK2/buildroot/buildroot/output/build/optee-os-custom/ta/pkcs11/src/object.c:175
    124c:	f7ff f9a1 	bl	592 <TEE_Malloc>
/home/aom1/Work/Linux/target/STM32MP1-DK2/buildroot/buildroot/output/build/optee-os-custom/ta/pkcs11/src/object.c:176
    1250:	b128      	cbz	r0, 125e <create_token_object+0x1e>
/home/aom1/Work/Linux/target/STM32MP1-DK2/buildroot/buildroot/output/build/optee-os-custom/ta/pkcs11/src/object.c:181
    1252:	6086      	str	r6, [r0, #8]
/home/aom1/Work/Linux/target/STM32MP1-DK2/buildroot/buildroot/output/build/optee-os-custom/ta/pkcs11/src/object.c:179
    1254:	2300      	movs	r3, #0
    1256:	60c3      	str	r3, [r0, #12]
/home/aom1/Work/Linux/target/STM32MP1-DK2/buildroot/buildroot/output/build/optee-os-custom/ta/pkcs11/src/object.c:180
    1258:	61c3      	str	r3, [r0, #28]
/home/aom1/Work/Linux/target/STM32MP1-DK2/buildroot/buildroot/output/build/optee-os-custom/ta/pkcs11/src/object.c:182
    125a:	6145      	str	r5, [r0, #20]
create_token_object():
/home/aom1/Work/Linux/target/STM32MP1-DK2/buildroot/buildroot/output/build/optee-os-custom/ta/pkcs11/src/object.c:194
    125c:	6184      	str	r4, [r0, #24]
/home/aom1/Work/Linux/target/STM32MP1-DK2/buildroot/buildroot/output/build/optee-os-custom/ta/pkcs11/src/object.c:197
    125e:	bd70      	pop	{r4, r5, r6, pc}

00001260 <create_object>:
create_object():
/home/aom1/Work/Linux/target/STM32MP1-DK2/buildroot/buildroot/output/build/optee-os-custom/ta/pkcs11/src/object.c:208
    1260:	e92d 47ff 	stmdb	sp!, {r0, r1, r2, r3, r4, r5, r6, r7, r8, r9, sl, lr}
    1264:	4606      	mov	r6, r0
    1266:	4d46      	ldr	r5, [pc, #280]	; (1380 <create_object+0x120>)
    1268:	4688      	mov	r8, r1
create_obj_instance():
/home/aom1/Work/Linux/target/STM32MP1-DK2/buildroot/buildroot/output/build/optee-os-custom/ta/pkcs11/src/object.c:175
    126a:	2020      	movs	r0, #32
    126c:	2100      	movs	r1, #0
create_object():
/home/aom1/Work/Linux/target/STM32MP1-DK2/buildroot/buildroot/output/build/optee-os-custom/ta/pkcs11/src/object.c:208
    126e:	447d      	add	r5, pc
    1270:	4691      	mov	r9, r2
create_obj_instance():
/home/aom1/Work/Linux/target/STM32MP1-DK2/buildroot/buildroot/output/build/optee-os-custom/ta/pkcs11/src/object.c:175
    1272:	f7ff f98e 	bl	592 <TEE_Malloc>
/home/aom1/Work/Linux/target/STM32MP1-DK2/buildroot/buildroot/output/build/optee-os-custom/ta/pkcs11/src/object.c:176
    1276:	4604      	mov	r4, r0
    1278:	2800      	cmp	r0, #0
    127a:	d07f      	beq.n	137c <create_object+0x11c>
/home/aom1/Work/Linux/target/STM32MP1-DK2/buildroot/buildroot/output/build/optee-os-custom/ta/pkcs11/src/object.c:181
    127c:	f8c0 8008 	str.w	r8, [r0, #8]
/home/aom1/Work/Linux/target/STM32MP1-DK2/buildroot/buildroot/output/build/optee-os-custom/ta/pkcs11/src/object.c:179
    1280:	2300      	movs	r3, #0
    1282:	60c3      	str	r3, [r0, #12]
/home/aom1/Work/Linux/target/STM32MP1-DK2/buildroot/buildroot/output/build/optee-os-custom/ta/pkcs11/src/object.c:180
    1284:	61c3      	str	r3, [r0, #28]
/home/aom1/Work/Linux/target/STM32MP1-DK2/buildroot/buildroot/output/build/optee-os-custom/ta/pkcs11/src/object.c:182
    1286:	6143      	str	r3, [r0, #20]
create_object():
/home/aom1/Work/Linux/target/STM32MP1-DK2/buildroot/buildroot/output/build/optee-os-custom/ta/pkcs11/src/object.c:227
    1288:	4b3e      	ldr	r3, [pc, #248]	; (1384 <create_object+0x124>)
    128a:	58eb      	ldr	r3, [r5, r3]
    128c:	681a      	ldr	r2, [r3, #0]
    128e:	6002      	str	r2, [r0, #0]
    1290:	b102      	cbz	r2, 1294 <create_object+0x34>
/home/aom1/Work/Linux/target/STM32MP1-DK2/buildroot/buildroot/output/build/optee-os-custom/ta/pkcs11/src/object.c:227 (discriminator 1)
    1292:	6050      	str	r0, [r2, #4]
/home/aom1/Work/Linux/target/STM32MP1-DK2/buildroot/buildroot/output/build/optee-os-custom/ta/pkcs11/src/object.c:227 (discriminator 3)
    1294:	6063      	str	r3, [r4, #4]
/home/aom1/Work/Linux/target/STM32MP1-DK2/buildroot/buildroot/output/build/optee-os-custom/ta/pkcs11/src/object.c:230 (discriminator 3)
    1296:	4630      	mov	r0, r6
/home/aom1/Work/Linux/target/STM32MP1-DK2/buildroot/buildroot/output/build/optee-os-custom/ta/pkcs11/src/object.c:227 (discriminator 3)
    1298:	601c      	str	r4, [r3, #0]
/home/aom1/Work/Linux/target/STM32MP1-DK2/buildroot/buildroot/output/build/optee-os-custom/ta/pkcs11/src/object.c:230 (discriminator 3)
    129a:	f004 f939 	bl	5510 <get_object_handle_db>
    129e:	4621      	mov	r1, r4
    12a0:	f014 fab2 	bl	15808 <handle_get>
/home/aom1/Work/Linux/target/STM32MP1-DK2/buildroot/buildroot/output/build/optee-os-custom/ta/pkcs11/src/object.c:231 (discriminator 3)
    12a4:	4607      	mov	r7, r0
    12a6:	2800      	cmp	r0, #0
    12a8:	d062      	beq.n	1370 <create_object+0x110>
/home/aom1/Work/Linux/target/STM32MP1-DK2/buildroot/buildroot/output/build/optee-os-custom/ta/pkcs11/src/object.c:236
    12aa:	68a0      	ldr	r0, [r4, #8]
    12ac:	2101      	movs	r1, #1
    12ae:	f7ff fb95 	bl	9dc <get_bool>
    12b2:	2800      	cmp	r0, #0
    12b4:	d04e      	beq.n	1354 <create_object+0xf4>
/home/aom1/Work/Linux/target/STM32MP1-DK2/buildroot/buildroot/output/build/optee-os-custom/ta/pkcs11/src/object.c:246
    12b6:	68a3      	ldr	r3, [r4, #8]
/home/aom1/Work/Linux/target/STM32MP1-DK2/buildroot/buildroot/output/build/optee-os-custom/ta/pkcs11/src/object.c:251
    12b8:	4621      	mov	r1, r4
    12ba:	68f0      	ldr	r0, [r6, #12]
/home/aom1/Work/Linux/target/STM32MP1-DK2/buildroot/buildroot/output/build/optee-os-custom/ta/pkcs11/src/object.c:246
    12bc:	f8d3 a000 	ldr.w	sl, [r3]
/home/aom1/Work/Linux/target/STM32MP1-DK2/buildroot/buildroot/output/build/optee-os-custom/ta/pkcs11/src/object.c:251
    12c0:	f001 f923 	bl	250a <create_object_uuid>
/home/aom1/Work/Linux/target/STM32MP1-DK2/buildroot/buildroot/output/build/optee-os-custom/ta/pkcs11/src/object.c:252
    12c4:	4605      	mov	r5, r0
    12c6:	b990      	cbnz	r0, 12ee <create_object+0x8e>
/home/aom1/Work/Linux/target/STM32MP1-DK2/buildroot/buildroot/output/build/optee-os-custom/ta/pkcs11/src/object.c:255
    12c8:	f104 031c 	add.w	r3, r4, #28
    12cc:	2210      	movs	r2, #16
    12ce:	9303      	str	r3, [sp, #12]
/home/aom1/Work/Linux/target/STM32MP1-DK2/buildroot/buildroot/output/build/optee-os-custom/ta/pkcs11/src/object.c:245
    12d0:	f10a 0308 	add.w	r3, sl, #8
/home/aom1/Work/Linux/target/STM32MP1-DK2/buildroot/buildroot/output/build/optee-os-custom/ta/pkcs11/src/object.c:255
    12d4:	9302      	str	r3, [sp, #8]
    12d6:	68a3      	ldr	r3, [r4, #8]
    12d8:	9000      	str	r0, [sp, #0]
    12da:	2001      	movs	r0, #1
    12dc:	9301      	str	r3, [sp, #4]
    12de:	2307      	movs	r3, #7
    12e0:	69a1      	ldr	r1, [r4, #24]
    12e2:	f00b fc2d 	bl	cb40 <TEE_CreatePersistentObject>
/home/aom1/Work/Linux/target/STM32MP1-DK2/buildroot/buildroot/output/build/optee-os-custom/ta/pkcs11/src/object.c:261
    12e6:	b1a8      	cbz	r0, 1314 <create_object+0xb4>
/home/aom1/Work/Linux/target/STM32MP1-DK2/buildroot/buildroot/output/build/optee-os-custom/ta/pkcs11/src/object.c:262
    12e8:	f003 fc6c 	bl	4bc4 <tee2pkcs_error>
    12ec:	4605      	mov	r5, r0
/home/aom1/Work/Linux/target/STM32MP1-DK2/buildroot/buildroot/output/build/optee-os-custom/ta/pkcs11/src/object.c:288
    12ee:	2300      	movs	r3, #0
/home/aom1/Work/Linux/target/STM32MP1-DK2/buildroot/buildroot/output/build/optee-os-custom/ta/pkcs11/src/object.c:289
    12f0:	4630      	mov	r0, r6
/home/aom1/Work/Linux/target/STM32MP1-DK2/buildroot/buildroot/output/build/optee-os-custom/ta/pkcs11/src/object.c:288
    12f2:	60a3      	str	r3, [r4, #8]
/home/aom1/Work/Linux/target/STM32MP1-DK2/buildroot/buildroot/output/build/optee-os-custom/ta/pkcs11/src/object.c:289
    12f4:	f004 f90c 	bl	5510 <get_object_handle_db>
    12f8:	4639      	mov	r1, r7
    12fa:	f014 fab3 	bl	15864 <handle_put>
/home/aom1/Work/Linux/target/STM32MP1-DK2/buildroot/buildroot/output/build/optee-os-custom/ta/pkcs11/src/object.c:290
    12fe:	2101      	movs	r1, #1
    1300:	4640      	mov	r0, r8
    1302:	f7ff fb6b 	bl	9dc <get_bool>
    1306:	2800      	cmp	r0, #0
    1308:	d034      	beq.n	1374 <create_object+0x114>
/home/aom1/Work/Linux/target/STM32MP1-DK2/buildroot/buildroot/output/build/optee-os-custom/ta/pkcs11/src/object.c:291
    130a:	68f1      	ldr	r1, [r6, #12]
    130c:	4620      	mov	r0, r4
    130e:	f7ff ff29 	bl	1164 <cleanup_persistent_object>
    1312:	e01b      	b.n	134c <create_object+0xec>
/home/aom1/Work/Linux/target/STM32MP1-DK2/buildroot/buildroot/output/build/optee-os-custom/ta/pkcs11/src/object.c:266
    1314:	69a1      	ldr	r1, [r4, #24]
    1316:	68f0      	ldr	r0, [r6, #12]
    1318:	f001 f9d0 	bl	26bc <register_persistent_object>
/home/aom1/Work/Linux/target/STM32MP1-DK2/buildroot/buildroot/output/build/optee-os-custom/ta/pkcs11/src/object.c:268
    131c:	4605      	mov	r5, r0
    131e:	2800      	cmp	r0, #0
    1320:	d1e5      	bne.n	12ee <create_object+0x8e>
/home/aom1/Work/Linux/target/STM32MP1-DK2/buildroot/buildroot/output/build/optee-os-custom/ta/pkcs11/src/object.c:271
    1322:	69e0      	ldr	r0, [r4, #28]
    1324:	f00b f9d6 	bl	c6d4 <TEE_CloseObject>
/home/aom1/Work/Linux/target/STM32MP1-DK2/buildroot/buildroot/output/build/optee-os-custom/ta/pkcs11/src/object.c:275
    1328:	6823      	ldr	r3, [r4, #0]
/home/aom1/Work/Linux/target/STM32MP1-DK2/buildroot/buildroot/output/build/optee-os-custom/ta/pkcs11/src/object.c:272
    132a:	61e5      	str	r5, [r4, #28]
/home/aom1/Work/Linux/target/STM32MP1-DK2/buildroot/buildroot/output/build/optee-os-custom/ta/pkcs11/src/object.c:275
    132c:	b10b      	cbz	r3, 1332 <create_object+0xd2>
/home/aom1/Work/Linux/target/STM32MP1-DK2/buildroot/buildroot/output/build/optee-os-custom/ta/pkcs11/src/object.c:275 (discriminator 1)
    132e:	6862      	ldr	r2, [r4, #4]
    1330:	605a      	str	r2, [r3, #4]
/home/aom1/Work/Linux/target/STM32MP1-DK2/buildroot/buildroot/output/build/optee-os-custom/ta/pkcs11/src/object.c:275 (discriminator 3)
    1332:	6862      	ldr	r2, [r4, #4]
    1334:	6013      	str	r3, [r2, #0]
/home/aom1/Work/Linux/target/STM32MP1-DK2/buildroot/buildroot/output/build/optee-os-custom/ta/pkcs11/src/object.c:276 (discriminator 3)
    1336:	68f3      	ldr	r3, [r6, #12]
    1338:	68da      	ldr	r2, [r3, #12]
    133a:	6022      	str	r2, [r4, #0]
    133c:	b102      	cbz	r2, 1340 <create_object+0xe0>
/home/aom1/Work/Linux/target/STM32MP1-DK2/buildroot/buildroot/output/build/optee-os-custom/ta/pkcs11/src/object.c:276 (discriminator 1)
    133e:	6054      	str	r4, [r2, #4]
/home/aom1/Work/Linux/target/STM32MP1-DK2/buildroot/buildroot/output/build/optee-os-custom/ta/pkcs11/src/object.c:276 (discriminator 3)
    1340:	f843 4f0c 	str.w	r4, [r3, #12]!
    1344:	6063      	str	r3, [r4, #4]
/home/aom1/Work/Linux/target/STM32MP1-DK2/buildroot/buildroot/output/build/optee-os-custom/ta/pkcs11/src/object.c:283 (discriminator 4)
    1346:	f8c9 7000 	str.w	r7, [r9]
/home/aom1/Work/Linux/target/STM32MP1-DK2/buildroot/buildroot/output/build/optee-os-custom/ta/pkcs11/src/object.c:285 (discriminator 4)
    134a:	2500      	movs	r5, #0
/home/aom1/Work/Linux/target/STM32MP1-DK2/buildroot/buildroot/output/build/optee-os-custom/ta/pkcs11/src/object.c:296
    134c:	4628      	mov	r0, r5
    134e:	b004      	add	sp, #16
    1350:	e8bd 87f0 	ldmia.w	sp!, {r4, r5, r6, r7, r8, r9, sl, pc}
/home/aom1/Work/Linux/target/STM32MP1-DK2/buildroot/buildroot/output/build/optee-os-custom/ta/pkcs11/src/object.c:279
    1354:	6823      	ldr	r3, [r4, #0]
    1356:	b10b      	cbz	r3, 135c <create_object+0xfc>
/home/aom1/Work/Linux/target/STM32MP1-DK2/buildroot/buildroot/output/build/optee-os-custom/ta/pkcs11/src/object.c:279 (discriminator 1)
    1358:	6862      	ldr	r2, [r4, #4]
    135a:	605a      	str	r2, [r3, #4]
/home/aom1/Work/Linux/target/STM32MP1-DK2/buildroot/buildroot/output/build/optee-os-custom/ta/pkcs11/src/object.c:279 (discriminator 3)
    135c:	6862      	ldr	r2, [r4, #4]
    135e:	6013      	str	r3, [r2, #0]
/home/aom1/Work/Linux/target/STM32MP1-DK2/buildroot/buildroot/output/build/optee-os-custom/ta/pkcs11/src/object.c:280 (discriminator 3)
    1360:	6973      	ldr	r3, [r6, #20]
    1362:	6023      	str	r3, [r4, #0]
    1364:	b103      	cbz	r3, 1368 <create_object+0x108>
/home/aom1/Work/Linux/target/STM32MP1-DK2/buildroot/buildroot/output/build/optee-os-custom/ta/pkcs11/src/object.c:280
    1366:	605c      	str	r4, [r3, #4]
/home/aom1/Work/Linux/target/STM32MP1-DK2/buildroot/buildroot/output/build/optee-os-custom/ta/pkcs11/src/object.c:280 (discriminator 3)
    1368:	f846 4f14 	str.w	r4, [r6, #20]!
    136c:	6066      	str	r6, [r4, #4]
    136e:	e7ea      	b.n	1346 <create_object+0xe6>
/home/aom1/Work/Linux/target/STM32MP1-DK2/buildroot/buildroot/output/build/optee-os-custom/ta/pkcs11/src/object.c:232
    1370:	2531      	movs	r5, #49	; 0x31
    1372:	e7bc      	b.n	12ee <create_object+0x8e>
/home/aom1/Work/Linux/target/STM32MP1-DK2/buildroot/buildroot/output/build/optee-os-custom/ta/pkcs11/src/object.c:293
    1374:	4620      	mov	r0, r4
    1376:	f7ff fe7d 	bl	1074 <cleanup_volatile_obj_ref>
    137a:	e7e7      	b.n	134c <create_object+0xec>
/home/aom1/Work/Linux/target/STM32MP1-DK2/buildroot/buildroot/output/build/optee-os-custom/ta/pkcs11/src/object.c:225
    137c:	2531      	movs	r5, #49	; 0x31
    137e:	e7e5      	b.n	134c <create_object+0xec>
    1380:	0001ae16 	.word	0x0001ae16
    1384:	0000002c 	.word	0x0000002c

00001388 <entry_create_object>:
entry_create_object():
/home/aom1/Work/Linux/target/STM32MP1-DK2/buildroot/buildroot/output/build/optee-os-custom/ta/pkcs11/src/object.c:300
    1388:	b5f0      	push	{r4, r5, r6, r7, lr}
    138a:	4615      	mov	r5, r2
    138c:	4a42      	ldr	r2, [pc, #264]	; (1498 <entry_create_object+0x110>)
    138e:	b08d      	sub	sp, #52	; 0x34
    1390:	4b42      	ldr	r3, [pc, #264]	; (149c <entry_create_object+0x114>)
/home/aom1/Work/Linux/target/STM32MP1-DK2/buildroot/buildroot/output/build/optee-os-custom/ta/pkcs11/src/object.c:308
    1392:	ae08      	add	r6, sp, #32
/home/aom1/Work/Linux/target/STM32MP1-DK2/buildroot/buildroot/output/build/optee-os-custom/ta/pkcs11/src/object.c:300
    1394:	447a      	add	r2, pc
/home/aom1/Work/Linux/target/STM32MP1-DK2/buildroot/buildroot/output/build/optee-os-custom/ta/pkcs11/src/object.c:319
    1396:	4604      	mov	r4, r0
/home/aom1/Work/Linux/target/STM32MP1-DK2/buildroot/buildroot/output/build/optee-os-custom/ta/pkcs11/src/object.c:300
    1398:	58d3      	ldr	r3, [r2, r3]
    139a:	681b      	ldr	r3, [r3, #0]
    139c:	930b      	str	r3, [sp, #44]	; 0x2c
    139e:	f04f 0300 	mov.w	r3, #0
/home/aom1/Work/Linux/target/STM32MP1-DK2/buildroot/buildroot/output/build/optee-os-custom/ta/pkcs11/src/object.c:308
    13a2:	2300      	movs	r3, #0
    13a4:	e9cd 3308 	strd	r3, r3, [sp, #32]
    13a8:	930a      	str	r3, [sp, #40]	; 0x28
/home/aom1/Work/Linux/target/STM32MP1-DK2/buildroot/buildroot/output/build/optee-os-custom/ta/pkcs11/src/object.c:310
    13aa:	e9cd 3304 	strd	r3, r3, [sp, #16]
/home/aom1/Work/Linux/target/STM32MP1-DK2/buildroot/buildroot/output/build/optee-os-custom/ta/pkcs11/src/object.c:313
    13ae:	e9cd 3306 	strd	r3, r3, [sp, #24]
/home/aom1/Work/Linux/target/STM32MP1-DK2/buildroot/buildroot/output/build/optee-os-custom/ta/pkcs11/src/object.c:319
    13b2:	2800      	cmp	r0, #0
    13b4:	d06b      	beq.n	148e <entry_create_object+0x106>
/home/aom1/Work/Linux/target/STM32MP1-DK2/buildroot/buildroot/output/build/optee-os-custom/ta/pkcs11/src/object.c:319 (discriminator 1)
    13b6:	f240 6307 	movw	r3, #1543	; 0x607
    13ba:	4299      	cmp	r1, r3
    13bc:	d167      	bne.n	148e <entry_create_object+0x106>
/home/aom1/Work/Linux/target/STM32MP1-DK2/buildroot/buildroot/output/build/optee-os-custom/ta/pkcs11/src/object.c:319 (discriminator 2)
    13be:	696b      	ldr	r3, [r5, #20]
    13c0:	2b04      	cmp	r3, #4
    13c2:	d164      	bne.n	148e <entry_create_object+0x106>
/home/aom1/Work/Linux/target/STM32MP1-DK2/buildroot/buildroot/output/build/optee-os-custom/ta/pkcs11/src/object.c:323
    13c4:	e9d5 1200 	ldrd	r1, r2, [r5]
    13c8:	4630      	mov	r0, r6
    13ca:	f009 fd4d 	bl	ae68 <serialargs_init>
/home/aom1/Work/Linux/target/STM32MP1-DK2/buildroot/buildroot/output/build/optee-os-custom/ta/pkcs11/src/object.c:325
    13ce:	4621      	mov	r1, r4
    13d0:	aa04      	add	r2, sp, #16
    13d2:	4630      	mov	r0, r6
    13d4:	f009 fe77 	bl	b0c6 <serialargs_get_session_from_handle>
/home/aom1/Work/Linux/target/STM32MP1-DK2/buildroot/buildroot/output/build/optee-os-custom/ta/pkcs11/src/object.c:326
    13d8:	4604      	mov	r4, r0
    13da:	2800      	cmp	r0, #0
    13dc:	d149      	bne.n	1472 <entry_create_object+0xea>
/home/aom1/Work/Linux/target/STM32MP1-DK2/buildroot/buildroot/output/build/optee-os-custom/ta/pkcs11/src/object.c:329
    13de:	a906      	add	r1, sp, #24
    13e0:	4630      	mov	r0, r6
    13e2:	f009 fe2f 	bl	b044 <serialargs_alloc_get_attributes>
/home/aom1/Work/Linux/target/STM32MP1-DK2/buildroot/buildroot/output/build/optee-os-custom/ta/pkcs11/src/object.c:330
    13e6:	4604      	mov	r4, r0
    13e8:	2800      	cmp	r0, #0
    13ea:	d142      	bne.n	1472 <entry_create_object+0xea>
/home/aom1/Work/Linux/target/STM32MP1-DK2/buildroot/buildroot/output/build/optee-os-custom/ta/pkcs11/src/object.c:333
    13ec:	4630      	mov	r0, r6
    13ee:	f009 fe61 	bl	b0b4 <serialargs_remaining_bytes>
    13f2:	4606      	mov	r6, r0
    13f4:	2800      	cmp	r0, #0
    13f6:	d148      	bne.n	148a <entry_create_object+0x102>
/home/aom1/Work/Linux/target/STM32MP1-DK2/buildroot/buildroot/output/build/optee-os-custom/ta/pkcs11/src/object.c:338
    13f8:	9906      	ldr	r1, [sp, #24]
/home/aom1/Work/Linux/target/STM32MP1-DK2/buildroot/buildroot/output/build/optee-os-custom/ta/pkcs11/src/object.c:344
    13fa:	f04f 33ff 	mov.w	r3, #4294967295	; 0xffffffff
    13fe:	f04f 4700 	mov.w	r7, #2147483648	; 0x80000000
    1402:	a805      	add	r0, sp, #20
/home/aom1/Work/Linux/target/STM32MP1-DK2/buildroot/buildroot/output/build/optee-os-custom/ta/pkcs11/src/object.c:338
    1404:	680a      	ldr	r2, [r1, #0]
/home/aom1/Work/Linux/target/STM32MP1-DK2/buildroot/buildroot/output/build/optee-os-custom/ta/pkcs11/src/object.c:344
    1406:	9302      	str	r3, [sp, #8]
    1408:	230c      	movs	r3, #12
    140a:	9300      	str	r3, [sp, #0]
    140c:	3208      	adds	r2, #8
    140e:	9701      	str	r7, [sp, #4]
    1410:	4623      	mov	r3, r4
    1412:	f001 ffb5 	bl	3380 <create_attributes_from_template>
    1416:	4604      	mov	r4, r0
/home/aom1/Work/Linux/target/STM32MP1-DK2/buildroot/buildroot/output/build/optee-os-custom/ta/pkcs11/src/object.c:348
    1418:	9806      	ldr	r0, [sp, #24]
    141a:	f7ff f8e3 	bl	5e4 <TEE_Free>
/home/aom1/Work/Linux/target/STM32MP1-DK2/buildroot/buildroot/output/build/optee-os-custom/ta/pkcs11/src/object.c:349
    141e:	9606      	str	r6, [sp, #24]
/home/aom1/Work/Linux/target/STM32MP1-DK2/buildroot/buildroot/output/build/optee-os-custom/ta/pkcs11/src/object.c:350
    1420:	bb0c      	cbnz	r4, 1466 <entry_create_object+0xde>
/home/aom1/Work/Linux/target/STM32MP1-DK2/buildroot/buildroot/output/build/optee-os-custom/ta/pkcs11/src/object.c:357
    1422:	9905      	ldr	r1, [sp, #20]
    1424:	4638      	mov	r0, r7
    1426:	f002 fd68 	bl	3efa <check_created_attrs_against_processing>
/home/aom1/Work/Linux/target/STM32MP1-DK2/buildroot/buildroot/output/build/optee-os-custom/ta/pkcs11/src/object.c:359
    142a:	4604      	mov	r4, r0
    142c:	b9d8      	cbnz	r0, 1466 <entry_create_object+0xde>
/home/aom1/Work/Linux/target/STM32MP1-DK2/buildroot/buildroot/output/build/optee-os-custom/ta/pkcs11/src/object.c:362
    142e:	e9dd 0104 	ldrd	r0, r1, [sp, #16]
    1432:	f002 fd2e 	bl	3e92 <check_created_attrs_against_token>
/home/aom1/Work/Linux/target/STM32MP1-DK2/buildroot/buildroot/output/build/optee-os-custom/ta/pkcs11/src/object.c:363
    1436:	4604      	mov	r4, r0
    1438:	b9a8      	cbnz	r0, 1466 <entry_create_object+0xde>
/home/aom1/Work/Linux/target/STM32MP1-DK2/buildroot/buildroot/output/build/optee-os-custom/ta/pkcs11/src/object.c:366
    143a:	e9dd 0104 	ldrd	r0, r1, [sp, #16]
    143e:	f002 fd0d 	bl	3e5c <check_access_attrs_against_token>
/home/aom1/Work/Linux/target/STM32MP1-DK2/buildroot/buildroot/output/build/optee-os-custom/ta/pkcs11/src/object.c:367
    1442:	4604      	mov	r4, r0
    1444:	b978      	cbnz	r0, 1466 <entry_create_object+0xde>
/home/aom1/Work/Linux/target/STM32MP1-DK2/buildroot/buildroot/output/build/optee-os-custom/ta/pkcs11/src/object.c:375
    1446:	ae07      	add	r6, sp, #28
    1448:	4632      	mov	r2, r6
    144a:	e9dd 0104 	ldrd	r0, r1, [sp, #16]
    144e:	f7ff ff07 	bl	1260 <create_object>
/home/aom1/Work/Linux/target/STM32MP1-DK2/buildroot/buildroot/output/build/optee-os-custom/ta/pkcs11/src/object.c:376
    1452:	4604      	mov	r4, r0
    1454:	b938      	cbnz	r0, 1466 <entry_create_object+0xde>
/home/aom1/Work/Linux/target/STM32MP1-DK2/buildroot/buildroot/output/build/optee-os-custom/ta/pkcs11/src/object.c:386
    1456:	9005      	str	r0, [sp, #20]
/home/aom1/Work/Linux/target/STM32MP1-DK2/buildroot/buildroot/output/build/optee-os-custom/ta/pkcs11/src/object.c:388
    1458:	2204      	movs	r2, #4
    145a:	6928      	ldr	r0, [r5, #16]
    145c:	4631      	mov	r1, r6
    145e:	f7ff f83b 	bl	4d8 <TEE_MemMove>
/home/aom1/Work/Linux/target/STM32MP1-DK2/buildroot/buildroot/output/build/optee-os-custom/ta/pkcs11/src/object.c:389
    1462:	2304      	movs	r3, #4
    1464:	616b      	str	r3, [r5, #20]
/home/aom1/Work/Linux/target/STM32MP1-DK2/buildroot/buildroot/output/build/optee-os-custom/ta/pkcs11/src/object.c:395
    1466:	9806      	ldr	r0, [sp, #24]
    1468:	f7ff f8bc 	bl	5e4 <TEE_Free>
/home/aom1/Work/Linux/target/STM32MP1-DK2/buildroot/buildroot/output/build/optee-os-custom/ta/pkcs11/src/object.c:396
    146c:	9805      	ldr	r0, [sp, #20]
    146e:	f7ff f8b9 	bl	5e4 <TEE_Free>
/home/aom1/Work/Linux/target/STM32MP1-DK2/buildroot/buildroot/output/build/optee-os-custom/ta/pkcs11/src/object.c:300
    1472:	4a0b      	ldr	r2, [pc, #44]	; (14a0 <entry_create_object+0x118>)
/home/aom1/Work/Linux/target/STM32MP1-DK2/buildroot/buildroot/output/build/optee-os-custom/ta/pkcs11/src/object.c:399
    1474:	4b09      	ldr	r3, [pc, #36]	; (149c <entry_create_object+0x114>)
/home/aom1/Work/Linux/target/STM32MP1-DK2/buildroot/buildroot/output/build/optee-os-custom/ta/pkcs11/src/object.c:300
    1476:	447a      	add	r2, pc
/home/aom1/Work/Linux/target/STM32MP1-DK2/buildroot/buildroot/output/build/optee-os-custom/ta/pkcs11/src/object.c:399
    1478:	58d3      	ldr	r3, [r2, r3]
    147a:	681a      	ldr	r2, [r3, #0]
    147c:	9b0b      	ldr	r3, [sp, #44]	; 0x2c
    147e:	405a      	eors	r2, r3
    1480:	f04f 0300 	mov.w	r3, #0
    1484:	d005      	beq.n	1492 <entry_create_object+0x10a>
    1486:	f014 fa1f 	bl	158c8 <__stack_chk_fail>
/home/aom1/Work/Linux/target/STM32MP1-DK2/buildroot/buildroot/output/build/optee-os-custom/ta/pkcs11/src/object.c:334
    148a:	2407      	movs	r4, #7
    148c:	e7eb      	b.n	1466 <entry_create_object+0xde>
/home/aom1/Work/Linux/target/STM32MP1-DK2/buildroot/buildroot/output/build/optee-os-custom/ta/pkcs11/src/object.c:321
    148e:	2407      	movs	r4, #7
    1490:	e7ef      	b.n	1472 <entry_create_object+0xea>
/home/aom1/Work/Linux/target/STM32MP1-DK2/buildroot/buildroot/output/build/optee-os-custom/ta/pkcs11/src/object.c:399
    1492:	4620      	mov	r0, r4
    1494:	b00d      	add	sp, #52	; 0x34
    1496:	bdf0      	pop	{r4, r5, r6, r7, pc}
    1498:	0001acf0 	.word	0x0001acf0
    149c:	0000000c 	.word	0x0000000c
    14a0:	0001ac0e 	.word	0x0001ac0e

000014a4 <entry_destroy_object>:
entry_destroy_object():
/home/aom1/Work/Linux/target/STM32MP1-DK2/buildroot/buildroot/output/build/optee-os-custom/ta/pkcs11/src/object.c:403
    14a4:	b570      	push	{r4, r5, r6, lr}
    14a6:	4616      	mov	r6, r2
    14a8:	4a34      	ldr	r2, [pc, #208]	; (157c <entry_destroy_object+0xd8>)
    14aa:	b086      	sub	sp, #24
    14ac:	4b34      	ldr	r3, [pc, #208]	; (1580 <entry_destroy_object+0xdc>)
/home/aom1/Work/Linux/target/STM32MP1-DK2/buildroot/buildroot/output/build/optee-os-custom/ta/pkcs11/src/object.c:410
    14ae:	ad02      	add	r5, sp, #8
/home/aom1/Work/Linux/target/STM32MP1-DK2/buildroot/buildroot/output/build/optee-os-custom/ta/pkcs11/src/object.c:403
    14b0:	447a      	add	r2, pc
/home/aom1/Work/Linux/target/STM32MP1-DK2/buildroot/buildroot/output/build/optee-os-custom/ta/pkcs11/src/object.c:415
    14b2:	4604      	mov	r4, r0
/home/aom1/Work/Linux/target/STM32MP1-DK2/buildroot/buildroot/output/build/optee-os-custom/ta/pkcs11/src/object.c:403
    14b4:	58d3      	ldr	r3, [r2, r3]
    14b6:	681b      	ldr	r3, [r3, #0]
    14b8:	9305      	str	r3, [sp, #20]
    14ba:	f04f 0300 	mov.w	r3, #0
/home/aom1/Work/Linux/target/STM32MP1-DK2/buildroot/buildroot/output/build/optee-os-custom/ta/pkcs11/src/object.c:410
    14be:	2300      	movs	r3, #0
    14c0:	9302      	str	r3, [sp, #8]
    14c2:	606b      	str	r3, [r5, #4]
    14c4:	60ab      	str	r3, [r5, #8]
/home/aom1/Work/Linux/target/STM32MP1-DK2/buildroot/buildroot/output/build/optee-os-custom/ta/pkcs11/src/object.c:412
    14c6:	e9cd 3300 	strd	r3, r3, [sp]
/home/aom1/Work/Linux/target/STM32MP1-DK2/buildroot/buildroot/output/build/optee-os-custom/ta/pkcs11/src/object.c:415
    14ca:	b960      	cbnz	r0, 14e6 <entry_destroy_object+0x42>
/home/aom1/Work/Linux/target/STM32MP1-DK2/buildroot/buildroot/output/build/optee-os-custom/ta/pkcs11/src/object.c:416
    14cc:	2407      	movs	r4, #7
/home/aom1/Work/Linux/target/STM32MP1-DK2/buildroot/buildroot/output/build/optee-os-custom/ta/pkcs11/src/object.c:403
    14ce:	4a2d      	ldr	r2, [pc, #180]	; (1584 <entry_destroy_object+0xe0>)
/home/aom1/Work/Linux/target/STM32MP1-DK2/buildroot/buildroot/output/build/optee-os-custom/ta/pkcs11/src/object.c:459
