
out/ta/remoteproc/80a4c275-0a47-4905-8285-1486a9771a08.elf:     file format elf32-littlearm
out/ta/remoteproc/80a4c275-0a47-4905-8285-1486a9771a08.elf
architecture: armv7, flags 0x00000150:
HAS_SYMS, DYNAMIC, D_PAGED
start address 0x00001054

Program Header:
    LOAD off    0x00001000 vaddr 0x00000000 paddr 0x00000000 align 2**12
         filesz 0x0000bd2c memsz 0x0000bd2c flags r-x
    LOAD off    0x0000d000 vaddr 0x0000c000 paddr 0x0000c000 align 2**12
         filesz 0x000002c8 memsz 0x00004320 flags rw-
 DYNAMIC off    0x0000d000 vaddr 0x0000c000 paddr 0x0000c000 align 2**2
         filesz 0x00000088 memsz 0x00000088 flags rw-
   STACK off    0x00000000 vaddr 0x00000000 paddr 0x00000000 align 2**4
         filesz 0x00000000 memsz 0x00000000 flags rwx

Dynamic Section:
  HASH                 0x0000bd00
  GNU_HASH             0x0000bc44
  STRTAB               0x0000bcd0
  SYMTAB               0x0000bc70
  STRSZ                0x0000002e
  SYMENT               0x00000010
  DEBUG                0x00000000
  REL                  0x0000c0d4
  RELSZ                0x00000120
  RELENT               0x00000008
  FLAGS_1              0x08000000
  RELCOUNT             0x00000014
private flags = 0x5000400: [Version5 EABI] [hard-float ABI]

Sections:
Idx Name          Size      VMA       LMA       File off  Algn
  0 .ta_head      00000020  00000000  00000000  00001000  2**3
                  CONTENTS, ALLOC, LOAD, READONLY, DATA
  1 .text         0000a968  00000020  00000020  00001020  2**3
                  CONTENTS, ALLOC, LOAD, READONLY, CODE
  2 .rodata       000012bc  0000a988  0000a988  0000b988  2**2
                  CONTENTS, ALLOC, LOAD, READONLY, DATA
  3 .gnu.hash     0000002c  0000bc44  0000bc44  0000cc44  2**2
                  CONTENTS, ALLOC, LOAD, READONLY, DATA
  4 .dynsym       00000060  0000bc70  0000bc70  0000cc70  2**2
                  CONTENTS, ALLOC, LOAD, READONLY, DATA
  5 .dynstr       0000002e  0000bcd0  0000bcd0  0000ccd0  2**0
                  CONTENTS, ALLOC, LOAD, READONLY, DATA
  6 .hash         0000002c  0000bd00  0000bd00  0000cd00  2**2
                  CONTENTS, ALLOC, LOAD, READONLY, DATA
  7 .dynamic      00000088  0000c000  0000c000  0000d000  2**2
                  CONTENTS, ALLOC, LOAD, DATA
  8 .got          0000004c  0000c088  0000c088  0000d088  2**2
                  CONTENTS, ALLOC, LOAD, DATA
  9 .rel.got      00000080  0000c174  0000c174  0000d174  2**2
                  CONTENTS, ALLOC, LOAD, READONLY, DATA
 10 .data         000000d4  0000c1f4  0000c1f4  0000d1f4  2**2
                  CONTENTS, ALLOC, LOAD, DATA
 11 .bss          00004058  0000c2c8  0000c2c8  0000d2c8  2**2
                  ALLOC
 12 .debug_info   00018c73  00000000  00000000  0000d2c8  2**0
                  CONTENTS, READONLY, DEBUGGING, OCTETS
 13 .debug_abbrev 000040c9  00000000  00000000  00025f3b  2**0
                  CONTENTS, READONLY, DEBUGGING, OCTETS
 14 .debug_loc    000182ef  00000000  00000000  0002a004  2**0
                  CONTENTS, READONLY, DEBUGGING, OCTETS
 15 .debug_aranges 000005e8  00000000  00000000  000422f8  2**3
                  CONTENTS, READONLY, DEBUGGING, OCTETS
 16 .debug_ranges 00000f18  00000000  00000000  000428e0  2**3
                  CONTENTS, READONLY, DEBUGGING, OCTETS
 17 .debug_macro  0001bb17  00000000  00000000  000437f8  2**0
                  CONTENTS, READONLY, DEBUGGING, OCTETS
 18 .debug_line   0001155d  00000000  00000000  0005f30f  2**0
                  CONTENTS, READONLY, DEBUGGING, OCTETS
 19 .debug_str    0001940a  00000000  00000000  0007086c  2**0
                  CONTENTS, READONLY, DEBUGGING, OCTETS
 20 .comment      0000005d  00000000  00000000  00089c76  2**0
                  CONTENTS, READONLY
 21 .ARM.attributes 00000031  00000000  00000000  00089cd3  2**0
                  CONTENTS, READONLY
 22 .debug_frame  00002630  00000000  00000000  00089d04  2**2
                  CONTENTS, READONLY, DEBUGGING, OCTETS
 23 .rel.dyn      000000a0  0000c0d4  0000c0d4  0000d0d4  2**2
                  CONTENTS, ALLOC, LOAD, READONLY, DATA
SYMBOL TABLE:
00000000 l    d  .ta_head	00000000 .ta_head
00000020 l    d  .text	00000000 .text
0000a988 l    d  .rodata	00000000 .rodata
0000bc44 l    d  .gnu.hash	00000000 .gnu.hash
0000bc70 l    d  .dynsym	00000000 .dynsym
0000bcd0 l    d  .dynstr	00000000 .dynstr
0000bd00 l    d  .hash	00000000 .hash
0000c000 l    d  .dynamic	00000000 .dynamic
0000c088 l    d  .got	00000000 .got
0000c174 l    d  .rel.got	00000000 .rel.got
0000c1f4 l    d  .data	00000000 .data
0000c2c8 l    d  .bss	00000000 .bss
00000000 l    d  .debug_info	00000000 .debug_info
00000000 l    d  .debug_abbrev	00000000 .debug_abbrev
00000000 l    d  .debug_loc	00000000 .debug_loc
00000000 l    d  .debug_aranges	00000000 .debug_aranges
00000000 l    d  .debug_ranges	00000000 .debug_ranges
00000000 l    d  .debug_macro	00000000 .debug_macro
00000000 l    d  .debug_line	00000000 .debug_line
00000000 l    d  .debug_str	00000000 .debug_str
00000000 l    d  .comment	00000000 .comment
00000000 l    d  .ARM.attributes	00000000 .ARM.attributes
00000000 l    d  .debug_frame	00000000 .debug_frame
0000c0d4 l    d  .rel.dyn	00000000 .rel.dyn
00000000 l    df *ABS*	00000000 user_ta_header.c
0000aa3c l     O .rodata	00000004 __compound_literal.4
0000aa40 l     O .rodata	00000004 __compound_literal.3
0000aa44 l     O .rodata	00000001 __compound_literal.2
0000aa45 l     O .rodata	00000001 __compound_literal.1
0000aa46 l     O .rodata	00000001 __compound_literal.0
00000000 l    df *ABS*	00000000 tee_api.c
00000020 l     F .text	00000066 update_out_param
00000196 l     F .text	00000182 copy_param
0000b0ea l     O .rodata	0000000b __func__.0
0000c2d0 l     O .bss	00000004 tee_api_instance_data
00000000 l    df *ABS*	00000000 remoteproc_core.c
00000620 l     F .text	0000001c remoteproc_find_firmware
0000063c l     F .text	00000158 remoteproc_load_segment
0000a988 l     O .rodata	00000018 __func__.1
0000a9a0 l     O .rodata	00000010 uuid.6
0000a9b0 l     O .rodata	0000001c __func__.4
0000a9cc l     O .rodata	00000018 rproc_ta_sign_algo
0000a9e4 l     O .rodata	00000016 __func__.3
0000a9fa l     O .rodata	00000013 __func__.5
0000aa0d l     O .rodata	00000014 __func__.2
0000aa21 l     O .rodata	00000014 __func__.0
0000c2c8 l     O .bss	00000004 pta_session
0000c2cc l     O .bss	00000004 session_refcount
0000c1f4 l     O .data	00000008 firmware_head
00000000 l    df *ABS*	00000000 elf_parser.c
00000d04 l     F .text	0000003c va_in_fwm_image_range
0000af4b l     O .rodata	00000016 __func__.1
0000af61 l     O .rodata	0000000f __func__.2
0000af70 l     O .rodata	0000001a __func__.0
00000000 l    df *ABS*	00000000 ta_entry_a32.o
00000000 l    df *ABS*	00000000 memcpy.c
00000000 l    df *ABS*	00000000 trace.c
0000b053 l     O .rodata	00000005 lvl_strs.0
00000000 l    df *ABS*	00000000 snprintk.c
00001404 l     F .text	00000724 kprintf.constprop.0
0000b090 l     O .rodata	00000011 HEXDIGITS
0000b0a1 l     O .rodata	00000011 hexdigits
00000000 l    df *ABS*	00000000 arm32_aeabi_ldivmod_a32.o
00000000 l    df *ABS*	00000000 arm32_aeabi_ldivmod.c
00001b70 l     F .text	0000008e ul_div_qr
00000000 l    df *ABS*	00000000 assert.c
00000000 l    df *ABS*	00000000 trace_ext.c
00000000 l    df *ABS*	00000000 tee_api_operations.c
00001e68 l     F .text	0000018c tee_buffer_update
00000000 l    df *ABS*	00000000 tee_api_panic.c
00003d90 l     F .text	00000020 check_access
00003db4 l     F .text	0000000a check_res.constprop.0
00000000 l    df *ABS*	00000000 tee_system_pta.c
00003e6c l     F .text	00000050 invoke_system_pta
0000aa50 l     O .rodata	00000010 uuid.2
0000aa60 l     O .rodata	0000000a __func__.1
0000aa6a l     O .rodata	00000017 __func__.0
0000c2d4 l     O .bss	00000004 sess.3
00000000 l    df *ABS*	00000000 utee_syscalls_a32.o
00000000 l    df *ABS*	00000000 user_ta_entry.c
00004518 l     F .text	0000006a _get_fn_array
00004582 l     F .text	0000006a _fini_iterate_phdr_cb
000045ec l     F .text	0000001c ta_header_get_session
00004608 l     F .text	00000064 to_utee_params
0000466c l     F .text	0000003c from_utee_params
000046a8 l     F .text	00000064 _init_iterate_phdr_cb
0000470c l     F .text	00000020 ta_header_save_params.part.0
00004828 l     F .text	0000006c ta_header_remove_session
0000b163 l     O .rodata	00000016 __func__.0
0000c2d8 l     O .bss	00000004 _num_mod_init
0000c2dc l     O .bss	00000001 init_done
0000c258 l     O .data	00000008 ta_sessions
0000c260 l     O .data	00000008 __phdr_info_head
00000000 l    df *ABS*	00000000 abort.c
00000000 l    df *ABS*	00000000 tee_api_arith_mpi.c
00004a88 l     F .text	00000020 api_panic
00004aa8 l     F .text	00000020 mpi_panic
00004ac8 l     F .text	00000050 get_mpi
00004b18 l     F .text	00000040 copy_mpi_to_bigint
00004b58 l     F .text	000000d8 bigint_binary
00004c30 l     F .text	00000010 mpi_is_odd
00004c40 l     F .text	00000016 rng_read
00004c56 l     F .text	000004ba mpi_egcd
0000c310 l     O .bss	00003000 data.17
00005484 l     F .text	00000144 bigint_binary_mod
0000b237 l     O .rodata	00000008 __func__.14
0000b23f l     O .rodata	0000000e __func__.10
0000b24d l     O .rodata	00000009 __func__.2
0000b256 l     O .rodata	00000012 __func__.16
0000b268 l     O .rodata	0000000f __func__.15
0000b277 l     O .rodata	0000001f __func__.13
0000b296 l     O .rodata	00000019 __func__.12
0000b2af l     O .rodata	00000012 __func__.6
0000b2c1 l     O .rodata	00000015 __func__.11
0000b2d6 l     O .rodata	0000000e __func__.9
0000b2e4 l     O .rodata	0000000e __func__.8
0000b2f2 l     O .rodata	0000000e __func__.7
0000b300 l     O .rodata	00000011 __func__.5
0000b311 l     O .rodata	00000018 __func__.4
0000b329 l     O .rodata	0000001d __func__.3
0000b346 l     O .rodata	00000019 __func__.1
0000b35f l     O .rodata	00000015 __func__.0
00000000 l    df *ABS*	00000000 tee_api_objects.c
00000000 l    df *ABS*	00000000 tcb.c
0000b40a l     O .rodata	00000010 __func__.1
0000b41a l     O .rodata	00000010 __func__.0
0000f310 l     O .bss	00000004 _tls_size
0000f314 l     O .bss	00000004 _tcb
00000000 l    df *ABS*	00000000 bignum.c
00006e54 l     F .text	00000024 mpi_safe_cond_assign
00006e78 l     F .text	0000003a mpi_get_digit
00006eb2 l     F .text	00000364 mpi_mul_hlp
00007216 l     F .text	000000f4 mpi_montmul
0000730a l     F .text	0000005a mpi_montred
00007364 l     F .text	00000026 mpi_montg_init.isra.0
0000738a l     F .text	00000086 mpi_bigendian_to_host.part.0
00007410 l     F .text	00000064 mpi_fill_random_internal
00007584 l     F .text	00000036 mbedtls_mpi_resize_clear
00008a30 l     F .text	00000084 mpi_check_small_factors
000090d4 l     F .text	000001d8 mpi_miller_rabin
0000aa84 l     O .rodata	000002a0 small_prime
0000ad24 l     O .rodata	00000024 gcd_pairs
00000000 l    df *ABS*	00000000 platform_util.c
0000c268 l     O .data	00000004 memset_func
00000000 l    df *ABS*	00000000 bget_malloc.c
00009d58 l     F .text	00000020 raw_malloc_return_hook
0000a486 l     F .text	00000082 gen_malloc_add_pool
0000bb37 l     O .rodata	00000005 __func__.8
0000bb3c l     O .rodata	00000006 __func__.7
0000bb42 l     O .rodata	00000005 __func__.5
0000bb47 l     O .rodata	00000006 __func__.6
0000bb4d l     O .rodata	00000006 __func__.4
0000bb53 l     O .rodata	00000007 __func__.3
0000bb5a l     O .rodata	00000014 __func__.2
0000bb6e l     O .rodata	0000000e __func__.1
0000bb7c l     O .rodata	00000013 __func__.0
0000c26c l     O .data	0000005c malloc_ctx
00000000 l    df *ABS*	00000000 snprintf.c
00000000 l    df *ABS*	00000000 mempool.c
0000bc18 l     O .rodata	00000013 __func__.2
0000bc2b l     O .rodata	0000000b __func__.1
0000bc36 l     O .rodata	0000000e __func__.0
00000000 l    df *ABS*	00000000 stack_check.c
00000000 l    df *ABS*	00000000 memset.c
00000000 l    df *ABS*	00000000 strcmp.c
00000000 l    df *ABS*	00000000 memchr.c
00000000 l    df *ABS*	00000000 strlen.c
00000000 l    df *ABS*	00000000 memmove.c
00000000 l    df *ABS*	00000000 consttime_memcmp.c
00000000 l    df *ABS*	00000000 
0000c000 l     O *ABS*	00000000 _DYNAMIC
0000c088 l     O *ABS*	00000000 _GLOBAL_OFFSET_TABLE_
0000a948 l     F .text	00000010 ___utee_panic_from_thumb
0000a958 l     F .text	00000010 ___utee_log_from_thumb
0000a968 l     F .text	00000010 ___utee_cache_operation_from_thumb
0000a978 l     F .text	00000010 ___utee_check_access_rights_from_thumb
00001e10 g     F .text	00000058 putchar
000064b4 g     F .text	000000ac TEE_PopulateTransientObject
00005f52 g     F .text	00000004 TEE_BigIntConvertToFMM
00005b54 g     F .text	00000008 TEE_BigIntSquareMod
000055c8 g     F .text	00000144 TEE_BigIntShiftRight
0000a5ae g     F .text	00000002 raw_malloc_add_pool
00003fa8 g     F .text	000000c0 tee_invoke_supp_plugin
000074ec g     F .text	00000098 mbedtls_mpi_grow
00001c74 g     F .text	000000b4 __l_divmod
00002be8 g     F .text	00000034 TEE_DigestUpdate
000005ee g     F .text	00000020 TEE_Realloc
00002a08 g     F .text	0000012c TEE_SetOperationKey2
00003e5a g     F .text	00000012 __utee_check_inout_annotation
0000a3f2 g     F .text	00000008 raw_free
00001d7a g     F .text	00000072 printf
00006560 g     F .text	00000022 TEE_InitRefAttribute
00004090 g     F .text	00000014 _utee_log
000003dc g     F .text	000000e4 TEE_InvokeTACommand
00003dbe g     F .text	0000002e __utee_check_outbuf_annotation
00007480 g     F .text	00000028 mbedtls_mpi_init_mempool
0000432c g     F .text	00000014 _utee_cryp_random_number_generate
00007a3a g     F .text	0000006c mbedtls_mpi_write_binary
000033b4 g     F .text	00000158 TEE_AEEncryptFinal
00000ea0 g     F .text	000001b4 e32_parser_find_rsc_table
00000df8 g     F .text	000000a8 e32_parser_load_elf_image
0000139c g     F .text	0000000e vsnprintk
0000803c g     F .text	00000068 mbedtls_mpi_sub_int
0000a8ca g     F .text	00000034 memmove
0000a70c g     F .text	00000058 snprintf
00005428 g     F .text	0000005c TEE_BigIntCmpS32
0000c254 g     O .data	00000004 __stack_chk_guard
00006582 g     F .text	00000022 TEE_InitValueAttribute
000075ba g     F .text	000000b6 mbedtls_mpi_shrink
000057c4 g     F .text	00000020 TEE_BigIntAdd
0000428c g     F .text	00000014 _utee_cryp_obj_restrict_usage
0000aa48 g     O .rodata	00000004 ta_heap_size
00006450 g     F .text	00000064 TEE_ResetTransientObject
000043b4 g     F .text	00000018 _utee_asymm_operate
0000821c g     F .text	00000158 mbedtls_mpi_read_string
00002cd4 g     F .text	00000074 TEE_CipherInit
00000d40 g     F .text	000000b8 e32_parse_ehdr
00005804 g     F .text	000000a8 TEE_BigIntNeg
00004450 g     F .text	00000014 _utee_storage_free_enum
00000020 g       .text	00000000 __text_start
00006990 g     F .text	0000002c TEE_StartPersistentObjectEnumerator
00007b4a g     F .text	00000078 mbedtls_mpi_shift_r
0000a6b8 g     F .text	00000054 malloc_buffer_overlaps_heap
000041f4 g     F .text	00000014 _utee_hash_init
00005b1c g     F .text	0000001c TEE_BigIntSubMod
000097ca g     F .text	00000246 mbedtls_mpi_gen_prime
0000785c g     F .text	00000022 mbedtls_mpi_get_bit
0000798c g     F .text	00000042 mbedtls_mpi_read_binary
000031ec g     F .text	00000070 TEE_AEInit
000012dc g     F .text	00000058 trace_printf
00008aba g     F .text	00000004 mbedtls_mpi_montmul
00004504 g     F .text	00000014 _utee_cache_operation
00001058 g     F .text	000000d8 memcpy
00005f56 g     F .text	0000009a TEE_BigIntConvertFromFMM
00003db0 g     F .text	00000004 TEE_Panic
00001b58 g     F .text	00000018 __aeabi_uldivmod
00002b34 g     F .text	000000b4 TEE_CopyOperation
00001dec g     F .text	00000024 puts
00005ff0 g     F .text	000000f4 TEE_BigIntComputeFMM
0000a380 g     F .text	0000001c malloc_get_stats
0000057c g     F .text	00000016 TEE_GetREETime
0000a5b0 g     F .text	00000018 raw_malloc_get_stats
00006900 g     F .text	00000068 TEE_AllocatePersistentObjectEnumerator
0000c200 g     O .data	00000054 ta_props
00003638 g     F .text	000000f0 TEE_AsymmetricEncrypt
00003dec g     F .text	0000001a __utee_check_instring_annotation
0000a508 g     F .text	00000014 malloc
0000a868 g     F .text	0000000a __ta_entry_c
000066a4 g     F .text	0000008c TEE_GenerateKey
0000a764 g     F .text	0000000e vsnprintf
0000c1fc g     O .data	00000004 trace_level
000053bc g     F .text	0000006c TEE_BigIntCmp
0000aa38 g     O .rodata	00000004 ta_num_props
0000a1e8 g     F .text	00000084 bgetr
000043e4 g     F .text	00000018 _utee_storage_obj_open
0000a85c g     F .text	0000000c mempool_free
00002d48 g     F .text	00000124 TEE_CipherUpdate
00004208 g     F .text	00000014 _utee_hash_update
00005218 g     F .text	0000008c TEE_BigIntConvertToOctetString
000027f4 g     F .text	00000108 TEE_GetOperationInfoMultiple
00007904 g     F .text	00000036 mbedtls_mpi_bitlen
0000570c g     F .text	00000060 TEE_BigIntGetBit
0000aa4c g     O .rodata	00000003 trace_ext_prefix
0000448c g     F .text	00000014 _utee_storage_next_enum
0000a3e0 g     F .text	00000012 raw_malloc
00009f80 g     F .text	00000060 bgetz
000004cc g     F .text	0000000c TEE_GetInstanceData
000004fa g     F .text	0000001e TEE_Wait
000080a4 g     F .text	0000011c mbedtls_mpi_mul_mpi
00000614 g     F .text	00000006 TEE_CacheFlush
00001160 g     F .text	0000017c trace_vprintf
00000798 g     F .text	00000002 TA_DestroyEntryPoint
00007474 g     F .text	0000000c mbedtls_mpi_init
00004414 g     F .text	00000014 _utee_storage_obj_del
000078d0 g     F .text	00000034 mbedtls_mpi_lsb
00001d28 g     F .text	00000028 _assert_log
000041cc g     F .text	00000014 _utee_cryp_state_copy
00005f4e g     F .text	00000004 TEE_BigIntFMMContextSizeInU32
00003f28 g     F .text	00000080 tee_unmap
00003134 g     F .text	000000b8 TEE_MACCompareFinal
000068c6 g     F .text	0000003a TEE_RenamePersistentObject
00002c1c g     F .text	000000b8 TEE_DigestDoFinal
00005110 g     F .text	00000044 _TEE_MathAPI_Init
00006c18 g     F .text	0000017c __utee_tcb_init
00007f44 g     F .text	00000048 mbedtls_mpi_add_mpi
00004a70 g     F .text	00000018 abort
000092ac g     F .text	00000128 mbedtls_mpi_random
0000a876 g     F .text	00000002 __stack_chk_fail
00003e34 g     F .text	00000012 __utee_check_out_annotation
0000f31c g     O .bss	00001000 ta_heap
00005b5c g     F .text	000000f4 TEE_BigIntInvMod
0000472c g     F .text	000000ec __utee_call_elf_init_fn
000007dc g     F .text	00000018 TA_CloseSessionEntryPoint
000040fc g     F .text	00000014 _utee_close_ta_session
00003728 g     F .text	000000f4 TEE_AsymmetricDecrypt
00006730 g     F .text	000000a0 TEE_OpenPersistentObject
00007f8c g     F .text	0000004a mbedtls_mpi_sub_mpi
0000a8fe g     F .text	00000048 consttime_memcmp
0000407c g     F .text	00000014 _utee_return
000040a4 g     F .text	00000014 __utee_panic
00006d94 g     F .text	00000018 __tls_get_addr
000007f4 g     F .text	00000510 TA_InvokeCommandEntryPoint
00004818 g     F .text	00000010 __utee_call_elf_fini_fn
0000a588 g     F .text	00000010 free_wipe
0000a7f8 g     F .text	0000003c mempool_alloc
00004068 g     F .text	00000014 _utee_panic
0000a59c g     F .text	00000012 raw_malloc_init_ctx
0000a834 g     F .text	00000028 mempool_calloc
000044f0 g     F .text	00000014 _utee_cryp_obj_generate_key
00006640 g     F .text	00000064 TEE_CopyObjectAttributes
000044c8 g     F .text	00000014 _utee_storage_obj_trunc
00004150 g     F .text	00000014 _utee_unmask_cancellation
0000a51c g     F .text	00000020 calloc
00000592 g     F .text	00000052 TEE_Malloc
0000018c g     F .text	0000000a TEE_CheckMemoryAccessRights
00001bfe g     F .text	00000076 __ul_divmod
000040b8 g     F .text	00000018 _utee_get_property
00007824 g     F .text	00000038 mbedtls_mpi_lset
00006a60 g     F .text	0000008c TEE_ReadObjectData
000061ec g     F .text	000000a8 TEE_GetObjectBufferAttribute
0000079a g     F .text	00000042 TA_OpenSessionEntryPoint
00001ff4 g     F .text	00000026 TEE_FreeOperation
00006dac g     F .text	000000a8 dl_iterate_phdr
00010320 g       .bss	00000000 __ftrace_buf_end
0000c30c g     O .bss	00000004 ta_param_types
00008750 g     F .text	00000068 mbedtls_mpi_div_int
000060e4 g     F .text	0000003e __utee_from_attr
00009728 g     F .text	00000098 mbedtls_mpi_is_prime_ext
00005edc g     F .text	00000064 TEE_BigIntIsProbablePrime
000081c0 g     F .text	0000005c mbedtls_mpi_mul_int
0000688c g     F .text	00000024 TEE_CloseAndDeletePersistentObject1
00008ac2 g     F .text	000004aa mbedtls_mpi_exp_mod
00007734 g     F .text	0000005c mbedtls_mpi_safe_cond_assign
00007ca8 g     F .text	000000a8 mbedtls_mpi_lt_mpi_ct
0000350c g     F .text	0000012c TEE_AEDecryptFinal
00005154 g     F .text	00000038 TEE_BigIntInit
00003e06 g     F .text	0000002e __utee_check_outstring_annotation
000004d8 g     F .text	00000004 TEE_MemMove
00009d44 g     F .text	00000014 mbedtls_platform_zeroize
0000518c g     F .text	0000008c TEE_BigIntConvertFromOctetString
0000439c g     F .text	00000018 _utee_authenc_dec_final
00007bc2 g     F .text	00000062 mbedtls_mpi_cmp_abs
000044a0 g     F .text	00000014 _utee_storage_obj_read
00002fe0 g     F .text	00000056 TEE_MACInit
0000381c g     F .text	000000ec TEE_AsymmetricSignDigest
0000a89e g     F .text	0000001c memchr
000000ec g     F .text	00000050 TEE_UnmaskCancellation
00006122 g     F .text	0000002a TEE_GetObjectInfo
00009a10 g     F .text	00000334 mbedtls_mpi_self_test
000044dc g     F .text	00000014 _utee_storage_obj_seek
000032a2 g     F .text	00000112 TEE_AEUpdate
000063ec g     F .text	00000064 TEE_FreeTransientObject
0000413c g     F .text	00000014 _utee_check_access_rights
00007d50 g     F .text	00000064 mbedtls_mpi_cmp_int
00004464 g     F .text	00000014 _utee_storage_reset_enum
00003b0a g     F .text	0000004a rand
00003e46 g     F .text	00000014 __utee_check_attr_in_annotation
0000436c g     F .text	00000018 _utee_authenc_update_payload
000027c4 g     F .text	00000030 TEE_GetOperationInfo
00005ab0 g     F .text	00000050 TEE_BigIntMod
0000881c g     F .text	0000006c mbedtls_mpi_mod_int
00007946 g     F .text	00000046 mbedtls_mpi_read_binary_le
0000598e g     F .text	00000122 TEE_BigIntDiv
000042b4 g     F .text	00000014 _utee_cryp_obj_alloc
00010320 g       .bss	00000000 __ftrace_buf_start
00007670 g     F .text	00000066 mbedtls_mpi_copy
00003b54 g     F .text	0000023c TEE_IsAlgorithmSupported
0000a36c g     F .text	00000014 malloc_reset_stats
00001b28 g     F .text	00000016 __vsprintf
000041a0 g     F .text	00000014 _utee_set_ta_time
00004110 g     F .text	00000018 _utee_invoke_ta_command
0000616c g     F .text	00000020 TEE_RestrictObjectUsage1
0000a53c g     F .text	0000001c realloc
000076d6 g     F .text	0000005e mbedtls_mpi_swap
0000a774 g     F .text	00000084 mempool_alloc_pool
000058ac g     F .text	000000dc TEE_BigIntMul
000028fc g     F .text	00000040 TEE_ResetOperation
0000a598 g     F .text	00000004 raw_malloc_get_ctx_size
00007aa6 g     F .text	000000a4 mbedtls_mpi_shift_l
00007c24 g     F .text	00000084 mbedtls_mpi_cmp_mpi
000004e0 g     F .text	00000004 TEE_MemFill
0000a5c8 g     F .text	00000010 malloc_add_pool
00003036 g     F .text	0000004e TEE_MACUpdate
0000114c g     F .text	00000014 trace_get_level
00007db4 g     F .text	000000ae mbedtls_mpi_add_abs
0000618c g     F .text	00000060 TEE_RestrictObjectUsage
00005f46 g     F .text	00000008 TEE_BigIntFMMSizeInU32
0000a442 g     F .text	00000044 raw_realloc
00005f40 g     F .text	00000004 TEE_BigIntInitFMM
00006364 g     F .text	00000014 TEE_CloseObject
00004234 g     F .text	00000014 _utee_cipher_init
00004894 g     F .text	000001dc __utee_entry
0000a988 g       .text	00000000 __text_end
00005c50 g     F .text	000000b0 TEE_BigIntRelativePrime
000087b8 g     F .text	00000064 mbedtls_mpi_mod_mpi
00004278 g     F .text	00000014 _utee_cryp_obj_get_info
0000a26c g     F .text	0000009c bpool
000041b4 g     F .text	00000018 _utee_cryp_state_alloc
0000009a g     F .text	00000052 TEE_GetCancellationFlag
00008f6c g     F .text	00000134 mbedtls_mpi_gcd
00000554 g     F .text	00000028 TEE_SetTAPersistentTime
000079ce g     F .text	0000006c mbedtls_mpi_write_binary_le
0000a878 g     F .text	00000010 memset
0000a39c g     F .text	00000044 raw_memalign
00000518 g     F .text	0000003c TEE_GetTAPersistentTime
00001334 g     F .text	00000002 dhex_dump
000067d0 g     F .text	000000bc TEE_CreatePersistentObject
0000013c g     F .text	00000050 TEE_MaskCancellation
0000325c g     F .text	00000046 TEE_AEUpdateAAD
00006b2c g     F .text	00000038 TEE_TruncateObjectData
000042a0 g     F .text	00000014 _utee_cryp_obj_get_attr
0000614c g     F .text	00000020 TEE_GetObjectInfo1
00004260 g     F .text	00000018 _utee_cipher_final
00001130 g     F .text	0000001c trace_set_level
00006294 g     F .text	000000d0 TEE_GetObjectValueAttribute
0000293c g     F .text	000000cc TEE_SetOperationKey
000041e0 g     F .text	00000014 _utee_cryp_state_free
0000a888 g     F .text	00000016 strcmp
000040e4 g     F .text	00000018 _utee_open_ta_session
00005328 g     F .text	00000094 TEE_BigIntConvertToS32
000057e4 g     F .text	00000020 TEE_BigIntSub
0000a872 g     F .text	00000004 tahead_get_trace_level
00004478 g     F .text	00000014 _utee_storage_start_enum
00006b64 g     F .text	000000b4 TEE_SeekObjectData
00003ebc g     F .text	0000006c tee_map_zi
00008abe g     F .text	00000004 mbedtls_mpi_montred
0000a558 g     F .text	00000020 memalign
00002e6c g     F .text	00000174 TEE_CipherDoFinal
000052a4 g     F .text	00000084 TEE_BigIntConvertFromS32
00007fd6 g     F .text	00000066 mbedtls_mpi_add_int
00004384 g     F .text	00000018 _utee_authenc_enc_final
0000a5d8 g     F .text	000000e0 malloc_buffer_is_within_alloced
000042c8 g     F .text	00000014 _utee_cryp_obj_close
00005f44 g     F .text	00000002 TEE_BigIntInitFMMContext
00004164 g     F .text	00000014 _utee_mask_cancellation
00004428 g     F .text	00000014 _utee_storage_obj_rename
00006aec g     F .text	00000040 TEE_WriteObjectData
0000697c g     F .text	00000014 TEE_ResetPersistentObjectEnumerator
00005988 g     F .text	00000006 TEE_BigIntSquare
000044b4 g     F .text	00000014 _utee_storage_obj_write
00000794 g     F .text	00000004 TA_CreateEntryPoint
00001054 g     F .text	00000004 __ta_entry
00004358 g     F .text	00000014 _utee_authenc_update_aad
00008ab4 g     F .text	00000006 mbedtls_mpi_montg_init
000013aa g     F .text	0000005a snprintk
0000576c g     F .text	00000058 TEE_BigIntGetBitCount
00004304 g     F .text	00000014 _utee_cryp_obj_copy
00005b38 g     F .text	0000001c TEE_BigIntMulMod
000093d4 g     F .text	00000354 mbedtls_mpi_inv_mod
000039e4 g     F .text	00000114 TEE_DeriveKey
0000c2ec g     O .bss	00000020 ta_params
00008374 g     F .text	000003dc mbedtls_mpi_div_mpi
0000793a g     F .text	0000000c mbedtls_mpi_size
00009d78 g     F .text	00000208 bget
00006378 g     F .text	00000074 TEE_AllocateTransientObject
00004178 g     F .text	00000014 _utee_wait
0000787e g     F .text	00000052 mbedtls_mpi_set_bit
000005e4 g     F .text	0000000a TEE_Free
000097c0 g     F .text	0000000a mbedtls_mpi_is_prime
0000061a g     F .text	00000006 TEE_CacheInvalidate
00001d50 g     F .text	00000010 _assert_break
00005b00 g     F .text	0000001c TEE_BigIntAddMod
0000418c g     F .text	00000014 _utee_get_time
0000201a g     F .text	000007aa TEE_AllocateOperation
000042f0 g     F .text	00000014 _utee_cryp_obj_populate
00003af8 g     F .text	00000012 TEE_GenerateRandom
000004dc g     F .text	00000004 TEE_MemCompare
00004248 g     F .text	00000018 _utee_cipher_update
00001338 g     F .text	00000064 __vsnprintf
0000c2e0 g     O .bss	0000000c __elf_phdr_info
00006968 g     F .text	00000014 TEE_FreePersistentObjectEnumerator
00000318 g     F .text	000000c4 TEE_OpenTASession
00001d60 g     F .text	00000014 trace_ext_puts
00001d74 g     F .text	00000006 trace_ext_get_thread_id
000068b0 g     F .text	00000016 TEE_CloseAndDeletePersistentObject
00004318 g     F .text	00000014 _utee_cryp_derive_key
000074a8 g     F .text	00000044 mbedtls_mpi_free
000042dc g     F .text	00000014 _utee_cryp_obj_reset
0000060e g     F .text	00000006 TEE_CacheClean
000040d0 g     F .text	00000014 _utee_get_property_name_to_index
0000a3fa g     F .text	00000048 raw_calloc
00007790 g     F .text	00000094 mbedtls_mpi_safe_cond_swap
00004340 g     F .text	00000018 _utee_authenc_init
000065a4 g     F .text	0000009c TEE_CopyObjectAttributes1
0000a8ba g     F .text	00000010 strlen
00005d00 g     F .text	000001dc TEE_BigIntComputeExtendedGcd
0000443c g     F .text	00000014 _utee_storage_alloc_enum
000004e4 g     F .text	00000016 TEE_GetSystemTime
000043cc g     F .text	00000018 _utee_asymm_verify
00000000 g     O .ta_head	00000020 ta_head
00009fe0 g     F .text	00000208 brel
00007e62 g     F .text	000000e2 mbedtls_mpi_sub_abs
000090a0 g     F .text	00000034 mbedtls_mpi_fill_random
000004c0 g     F .text	0000000c TEE_SetInstanceData
00004128 g     F .text	00000014 _utee_get_cancellation_flag
00001b40 g     F .text	00000018 __aeabi_ldivmod
00008888 g     F .text	000001a8 mbedtls_mpi_write_string
000069bc g     F .text	000000a4 TEE_GetNextPersistentObject
00000086 g     F .text	00000014 TEE_CloseTASession
00003908 g     F .text	000000dc TEE_AsymmetricVerifyDigest
000043fc g     F .text	00000018 _utee_storage_obj_create
0000a578 g     F .text	00000010 free
0000a308 g     F .text	00000064 bstats
00003084 g     F .text	000000b0 TEE_MACComputeFinal
0000f318 g     O .bss	00000004 mbedtls_mpi_mempool
0000421c g     F .text	00000018 _utee_hash_final



Disassembly of section .text:

00000020 <update_out_param>:
update_out_param():
/home/aom1/Work/Linux/target/STM32MP1-DK2/buildroot/buildroot/output/build/optee-os-custom/lib/libutee/tee_api.c:121
      20:	e92d 47f0 	stmdb	sp!, {r4, r5, r6, r7, r8, r9, sl, lr}
      24:	4607      	mov	r7, r0
/home/aom1/Work/Linux/target/STM32MP1-DK2/buildroot/buildroot/output/build/optee-os-custom/lib/libutee/tee_api.c:123
      26:	f8d2 a000 	ldr.w	sl, [r2]
/home/aom1/Work/Linux/target/STM32MP1-DK2/buildroot/buildroot/output/build/optee-os-custom/lib/libutee/tee_api.c:121
      2a:	4688      	mov	r8, r1
/home/aom1/Work/Linux/target/STM32MP1-DK2/buildroot/buildroot/output/build/optee-os-custom/lib/libutee/tee_api.c:125
      2c:	4614      	mov	r4, r2
      2e:	4606      	mov	r6, r0
/home/aom1/Work/Linux/target/STM32MP1-DK2/buildroot/buildroot/output/build/optee-os-custom/lib/libutee/tee_api.c:123
      30:	2500      	movs	r5, #0
/home/aom1/Work/Linux/target/STM32MP1-DK2/buildroot/buildroot/output/build/optee-os-custom/lib/libutee/tee_api.c:129
      32:	fa2a f205 	lsr.w	r2, sl, r5
/home/aom1/Work/Linux/target/STM32MP1-DK2/buildroot/buildroot/output/build/optee-os-custom/lib/libutee/tee_api.c:127
      36:	f8d4 9010 	ldr.w	r9, [r4, #16]
/home/aom1/Work/Linux/target/STM32MP1-DK2/buildroot/buildroot/output/build/optee-os-custom/lib/libutee/tee_api.c:129
      3a:	f012 0f0c 	tst.w	r2, #12
      3e:	f002 030f 	and.w	r3, r2, #15
      42:	d108      	bne.n	56 <update_out_param+0x36>
      44:	f012 0f0e 	tst.w	r2, #14
      48:	d008      	beq.n	5c <update_out_param+0x3c>
/home/aom1/Work/Linux/target/STM32MP1-DK2/buildroot/buildroot/output/build/optee-os-custom/lib/libutee/tee_api.c:126
      4a:	68a3      	ldr	r3, [r4, #8]
      4c:	f847 3015 	str.w	r3, [r7, r5, lsl #1]
/home/aom1/Work/Linux/target/STM32MP1-DK2/buildroot/buildroot/output/build/optee-os-custom/lib/libutee/tee_api.c:140
      50:	f8c6 9004 	str.w	r9, [r6, #4]
/home/aom1/Work/Linux/target/STM32MP1-DK2/buildroot/buildroot/output/build/optee-os-custom/lib/libutee/tee_api.c:141
      54:	e002      	b.n	5c <update_out_param+0x3c>
/home/aom1/Work/Linux/target/STM32MP1-DK2/buildroot/buildroot/output/build/optee-os-custom/lib/libutee/tee_api.c:129
      56:	3b06      	subs	r3, #6
      58:	2b01      	cmp	r3, #1
      5a:	d907      	bls.n	6c <update_out_param+0x4c>
/home/aom1/Work/Linux/target/STM32MP1-DK2/buildroot/buildroot/output/build/optee-os-custom/lib/libutee/tee_api.c:125 (discriminator 2)
      5c:	3504      	adds	r5, #4
      5e:	3410      	adds	r4, #16
      60:	2d10      	cmp	r5, #16
      62:	f106 0608 	add.w	r6, r6, #8
      66:	d1e4      	bne.n	32 <update_out_param+0x12>
/home/aom1/Work/Linux/target/STM32MP1-DK2/buildroot/buildroot/output/build/optee-os-custom/lib/libutee/tee_api.c:146
      68:	e8bd 87f0 	ldmia.w	sp!, {r4, r5, r6, r7, r8, r9, sl, pc}
/home/aom1/Work/Linux/target/STM32MP1-DK2/buildroot/buildroot/output/build/optee-os-custom/lib/libutee/tee_api.c:137
      6c:	f858 1005 	ldr.w	r1, [r8, r5]
      70:	2900      	cmp	r1, #0
      72:	d0ed      	beq.n	50 <update_out_param+0x30>
/home/aom1/Work/Linux/target/STM32MP1-DK2/buildroot/buildroot/output/build/optee-os-custom/lib/libutee/tee_api.c:139
      74:	6872      	ldr	r2, [r6, #4]
/home/aom1/Work/Linux/target/STM32MP1-DK2/buildroot/buildroot/output/build/optee-os-custom/lib/libutee/tee_api.c:138
      76:	f857 0015 	ldr.w	r0, [r7, r5, lsl #1]
      7a:	454a      	cmp	r2, r9
      7c:	bf28      	it	cs
      7e:	464a      	movcs	r2, r9
      80:	f000 ffea 	bl	1058 <memcpy>
      84:	e7e4      	b.n	50 <update_out_param+0x30>

00000086 <TEE_CloseTASession>:
TEE_CloseTASession():
/home/aom1/Work/Linux/target/STM32MP1-DK2/buildroot/buildroot/output/build/optee-os-custom/lib/libutee/tee_api.c:195
      86:	b508      	push	{r3, lr}
/home/aom1/Work/Linux/target/STM32MP1-DK2/buildroot/buildroot/output/build/optee-os-custom/lib/libutee/tee_api.c:196
      88:	b130      	cbz	r0, 98 <TEE_CloseTASession+0x12>
/home/aom1/Work/Linux/target/STM32MP1-DK2/buildroot/buildroot/output/build/optee-os-custom/lib/libutee/tee_api.c:197
      8a:	f004 e838 	blx	40fc <_utee_close_ta_session>
/home/aom1/Work/Linux/target/STM32MP1-DK2/buildroot/buildroot/output/build/optee-os-custom/lib/libutee/tee_api.c:199
      8e:	b118      	cbz	r0, 98 <TEE_CloseTASession+0x12>
/home/aom1/Work/Linux/target/STM32MP1-DK2/buildroot/buildroot/output/build/optee-os-custom/lib/libutee/tee_api.c:202
      90:	e8bd 4008 	ldmia.w	sp!, {r3, lr}
/home/aom1/Work/Linux/target/STM32MP1-DK2/buildroot/buildroot/output/build/optee-os-custom/lib/libutee/tee_api.c:200
      94:	f003 be8c 	b.w	3db0 <TEE_Panic>
/home/aom1/Work/Linux/target/STM32MP1-DK2/buildroot/buildroot/output/build/optee-os-custom/lib/libutee/tee_api.c:202
      98:	bd08      	pop	{r3, pc}

0000009a <TEE_GetCancellationFlag>:
TEE_GetCancellationFlag():
/home/aom1/Work/Linux/target/STM32MP1-DK2/buildroot/buildroot/output/build/optee-os-custom/lib/libutee/tee_api.c:257
      9a:	b507      	push	{r0, r1, r2, lr}
/home/aom1/Work/Linux/target/STM32MP1-DK2/buildroot/buildroot/output/build/optee-os-custom/lib/libutee/tee_api.c:259
      9c:	4668      	mov	r0, sp
/home/aom1/Work/Linux/target/STM32MP1-DK2/buildroot/buildroot/output/build/optee-os-custom/lib/libutee/tee_api.c:257
      9e:	4a10      	ldr	r2, [pc, #64]	; (e0 <TEE_GetCancellationFlag+0x46>)
      a0:	4b10      	ldr	r3, [pc, #64]	; (e4 <TEE_GetCancellationFlag+0x4a>)
      a2:	447a      	add	r2, pc
      a4:	58d3      	ldr	r3, [r2, r3]
      a6:	681b      	ldr	r3, [r3, #0]
      a8:	9301      	str	r3, [sp, #4]
      aa:	f04f 0300 	mov.w	r3, #0
/home/aom1/Work/Linux/target/STM32MP1-DK2/buildroot/buildroot/output/build/optee-os-custom/lib/libutee/tee_api.c:259
      ae:	f004 e83c 	blx	4128 <_utee_get_cancellation_flag>
/home/aom1/Work/Linux/target/STM32MP1-DK2/buildroot/buildroot/output/build/optee-os-custom/lib/libutee/tee_api.c:261
      b2:	b108      	cbz	r0, b8 <TEE_GetCancellationFlag+0x1e>
/home/aom1/Work/Linux/target/STM32MP1-DK2/buildroot/buildroot/output/build/optee-os-custom/lib/libutee/tee_api.c:262
      b4:	2300      	movs	r3, #0
      b6:	9300      	str	r3, [sp, #0]
/home/aom1/Work/Linux/target/STM32MP1-DK2/buildroot/buildroot/output/build/optee-os-custom/lib/libutee/tee_api.c:257
      b8:	4a0b      	ldr	r2, [pc, #44]	; (e8 <TEE_GetCancellationFlag+0x4e>)
/home/aom1/Work/Linux/target/STM32MP1-DK2/buildroot/buildroot/output/build/optee-os-custom/lib/libutee/tee_api.c:264
      ba:	4b0a      	ldr	r3, [pc, #40]	; (e4 <TEE_GetCancellationFlag+0x4a>)
/home/aom1/Work/Linux/target/STM32MP1-DK2/buildroot/buildroot/output/build/optee-os-custom/lib/libutee/tee_api.c:257
      bc:	447a      	add	r2, pc
/home/aom1/Work/Linux/target/STM32MP1-DK2/buildroot/buildroot/output/build/optee-os-custom/lib/libutee/tee_api.c:263
      be:	9800      	ldr	r0, [sp, #0]
/home/aom1/Work/Linux/target/STM32MP1-DK2/buildroot/buildroot/output/build/optee-os-custom/lib/libutee/tee_api.c:264
      c0:	58d3      	ldr	r3, [r2, r3]
/home/aom1/Work/Linux/target/STM32MP1-DK2/buildroot/buildroot/output/build/optee-os-custom/lib/libutee/tee_api.c:263
      c2:	3800      	subs	r0, #0
      c4:	bf18      	it	ne
      c6:	2001      	movne	r0, #1
/home/aom1/Work/Linux/target/STM32MP1-DK2/buildroot/buildroot/output/build/optee-os-custom/lib/libutee/tee_api.c:264
      c8:	681a      	ldr	r2, [r3, #0]
      ca:	9b01      	ldr	r3, [sp, #4]
      cc:	405a      	eors	r2, r3
      ce:	f04f 0300 	mov.w	r3, #0
      d2:	d001      	beq.n	d8 <TEE_GetCancellationFlag+0x3e>
      d4:	f00a fbcf 	bl	a876 <__stack_chk_fail>
      d8:	b003      	add	sp, #12
      da:	f85d fb04 	ldr.w	pc, [sp], #4
      de:	bf00      	nop
      e0:	0000bfe2 	.word	0x0000bfe2
      e4:	0000000c 	.word	0x0000000c
      e8:	0000bfc8 	.word	0x0000bfc8

000000ec <TEE_UnmaskCancellation>:
TEE_UnmaskCancellation():
/home/aom1/Work/Linux/target/STM32MP1-DK2/buildroot/buildroot/output/build/optee-os-custom/lib/libutee/tee_api.c:267
      ec:	b507      	push	{r0, r1, r2, lr}
/home/aom1/Work/Linux/target/STM32MP1-DK2/buildroot/buildroot/output/build/optee-os-custom/lib/libutee/tee_api.c:269
      ee:	4668      	mov	r0, sp
/home/aom1/Work/Linux/target/STM32MP1-DK2/buildroot/buildroot/output/build/optee-os-custom/lib/libutee/tee_api.c:267
      f0:	4a0f      	ldr	r2, [pc, #60]	; (130 <TEE_UnmaskCancellation+0x44>)
      f2:	4b10      	ldr	r3, [pc, #64]	; (134 <TEE_UnmaskCancellation+0x48>)
      f4:	447a      	add	r2, pc
      f6:	58d3      	ldr	r3, [r2, r3]
      f8:	681b      	ldr	r3, [r3, #0]
      fa:	9301      	str	r3, [sp, #4]
      fc:	f04f 0300 	mov.w	r3, #0
/home/aom1/Work/Linux/target/STM32MP1-DK2/buildroot/buildroot/output/build/optee-os-custom/lib/libutee/tee_api.c:269
     100:	f004 e826 	blx	4150 <_utee_unmask_cancellation>
/home/aom1/Work/Linux/target/STM32MP1-DK2/buildroot/buildroot/output/build/optee-os-custom/lib/libutee/tee_api.c:271
     104:	b108      	cbz	r0, 10a <TEE_UnmaskCancellation+0x1e>
/home/aom1/Work/Linux/target/STM32MP1-DK2/buildroot/buildroot/output/build/optee-os-custom/lib/libutee/tee_api.c:272
     106:	f003 fe53 	bl	3db0 <TEE_Panic>
/home/aom1/Work/Linux/target/STM32MP1-DK2/buildroot/buildroot/output/build/optee-os-custom/lib/libutee/tee_api.c:267
     10a:	4a0b      	ldr	r2, [pc, #44]	; (138 <TEE_UnmaskCancellation+0x4c>)
/home/aom1/Work/Linux/target/STM32MP1-DK2/buildroot/buildroot/output/build/optee-os-custom/lib/libutee/tee_api.c:274
     10c:	4b09      	ldr	r3, [pc, #36]	; (134 <TEE_UnmaskCancellation+0x48>)
/home/aom1/Work/Linux/target/STM32MP1-DK2/buildroot/buildroot/output/build/optee-os-custom/lib/libutee/tee_api.c:267
     10e:	447a      	add	r2, pc
/home/aom1/Work/Linux/target/STM32MP1-DK2/buildroot/buildroot/output/build/optee-os-custom/lib/libutee/tee_api.c:273
     110:	9800      	ldr	r0, [sp, #0]
/home/aom1/Work/Linux/target/STM32MP1-DK2/buildroot/buildroot/output/build/optee-os-custom/lib/libutee/tee_api.c:274
     112:	58d3      	ldr	r3, [r2, r3]
/home/aom1/Work/Linux/target/STM32MP1-DK2/buildroot/buildroot/output/build/optee-os-custom/lib/libutee/tee_api.c:273
     114:	3800      	subs	r0, #0
     116:	bf18      	it	ne
     118:	2001      	movne	r0, #1
/home/aom1/Work/Linux/target/STM32MP1-DK2/buildroot/buildroot/output/build/optee-os-custom/lib/libutee/tee_api.c:274
     11a:	681a      	ldr	r2, [r3, #0]
     11c:	9b01      	ldr	r3, [sp, #4]
     11e:	405a      	eors	r2, r3
     120:	f04f 0300 	mov.w	r3, #0
     124:	d001      	beq.n	12a <TEE_UnmaskCancellation+0x3e>
     126:	f00a fba6 	bl	a876 <__stack_chk_fail>
     12a:	b003      	add	sp, #12
     12c:	f85d fb04 	ldr.w	pc, [sp], #4
     130:	0000bf90 	.word	0x0000bf90
     134:	0000000c 	.word	0x0000000c
     138:	0000bf76 	.word	0x0000bf76

0000013c <TEE_MaskCancellation>:
TEE_MaskCancellation():
/home/aom1/Work/Linux/target/STM32MP1-DK2/buildroot/buildroot/output/build/optee-os-custom/lib/libutee/tee_api.c:277
     13c:	b507      	push	{r0, r1, r2, lr}
/home/aom1/Work/Linux/target/STM32MP1-DK2/buildroot/buildroot/output/build/optee-os-custom/lib/libutee/tee_api.c:279
     13e:	4668      	mov	r0, sp
/home/aom1/Work/Linux/target/STM32MP1-DK2/buildroot/buildroot/output/build/optee-os-custom/lib/libutee/tee_api.c:277
     140:	4a0f      	ldr	r2, [pc, #60]	; (180 <TEE_MaskCancellation+0x44>)
     142:	4b10      	ldr	r3, [pc, #64]	; (184 <TEE_MaskCancellation+0x48>)
     144:	447a      	add	r2, pc
     146:	58d3      	ldr	r3, [r2, r3]
     148:	681b      	ldr	r3, [r3, #0]
     14a:	9301      	str	r3, [sp, #4]
     14c:	f04f 0300 	mov.w	r3, #0
/home/aom1/Work/Linux/target/STM32MP1-DK2/buildroot/buildroot/output/build/optee-os-custom/lib/libutee/tee_api.c:279
     150:	f004 e808 	blx	4164 <_utee_mask_cancellation>
/home/aom1/Work/Linux/target/STM32MP1-DK2/buildroot/buildroot/output/build/optee-os-custom/lib/libutee/tee_api.c:281
     154:	b108      	cbz	r0, 15a <TEE_MaskCancellation+0x1e>
/home/aom1/Work/Linux/target/STM32MP1-DK2/buildroot/buildroot/output/build/optee-os-custom/lib/libutee/tee_api.c:282
     156:	f003 fe2b 	bl	3db0 <TEE_Panic>
/home/aom1/Work/Linux/target/STM32MP1-DK2/buildroot/buildroot/output/build/optee-os-custom/lib/libutee/tee_api.c:277
     15a:	4a0b      	ldr	r2, [pc, #44]	; (188 <TEE_MaskCancellation+0x4c>)
/home/aom1/Work/Linux/target/STM32MP1-DK2/buildroot/buildroot/output/build/optee-os-custom/lib/libutee/tee_api.c:284
     15c:	4b09      	ldr	r3, [pc, #36]	; (184 <TEE_MaskCancellation+0x48>)
/home/aom1/Work/Linux/target/STM32MP1-DK2/buildroot/buildroot/output/build/optee-os-custom/lib/libutee/tee_api.c:277
     15e:	447a      	add	r2, pc
/home/aom1/Work/Linux/target/STM32MP1-DK2/buildroot/buildroot/output/build/optee-os-custom/lib/libutee/tee_api.c:283
     160:	9800      	ldr	r0, [sp, #0]
/home/aom1/Work/Linux/target/STM32MP1-DK2/buildroot/buildroot/output/build/optee-os-custom/lib/libutee/tee_api.c:284
     162:	58d3      	ldr	r3, [r2, r3]
/home/aom1/Work/Linux/target/STM32MP1-DK2/buildroot/buildroot/output/build/optee-os-custom/lib/libutee/tee_api.c:283
     164:	3800      	subs	r0, #0
     166:	bf18      	it	ne
     168:	2001      	movne	r0, #1
/home/aom1/Work/Linux/target/STM32MP1-DK2/buildroot/buildroot/output/build/optee-os-custom/lib/libutee/tee_api.c:284
     16a:	681a      	ldr	r2, [r3, #0]
     16c:	9b01      	ldr	r3, [sp, #4]
     16e:	405a      	eors	r2, r3
     170:	f04f 0300 	mov.w	r3, #0
     174:	d001      	beq.n	17a <TEE_MaskCancellation+0x3e>
     176:	f00a fb7e 	bl	a876 <__stack_chk_fail>
     17a:	b003      	add	sp, #12
     17c:	f85d fb04 	ldr.w	pc, [sp], #4
     180:	0000bf40 	.word	0x0000bf40
     184:	0000000c 	.word	0x0000000c
     188:	0000bf26 	.word	0x0000bf26

0000018c <TEE_CheckMemoryAccessRights>:
TEE_CheckMemoryAccessRights():
/home/aom1/Work/Linux/target/STM32MP1-DK2/buildroot/buildroot/output/build/optee-os-custom/lib/libutee/tee_api.c:293
     18c:	b10a      	cbz	r2, 192 <TEE_CheckMemoryAccessRights+0x6>
/home/aom1/Work/Linux/target/STM32MP1-DK2/buildroot/buildroot/output/build/optee-os-custom/lib/libutee/tee_api.c:297
     18e:	f00a bbf3 	b.w	a978 <___utee_check_access_rights_from_thumb>
/home/aom1/Work/Linux/target/STM32MP1-DK2/buildroot/buildroot/output/build/optee-os-custom/lib/libutee/tee_api.c:309
     192:	4610      	mov	r0, r2
     194:	4770      	bx	lr

00000196 <copy_param>:
copy_param():
/home/aom1/Work/Linux/target/STM32MP1-DK2/buildroot/buildroot/output/build/optee-os-custom/lib/libutee/tee_api.c:29
     196:	e92d 4ff0 	stmdb	sp!, {r4, r5, r6, r7, r8, r9, sl, fp, lr}
     19a:	4617      	mov	r7, r2
     19c:	ed2d 8b02 	vpush	{d8}
     1a0:	4a5a      	ldr	r2, [pc, #360]	; (30c <copy_param+0x176>)
     1a2:	b087      	sub	sp, #28
     1a4:	4698      	mov	r8, r3
/home/aom1/Work/Linux/target/STM32MP1-DK2/buildroot/buildroot/output/build/optee-os-custom/lib/libutee/tee_api.c:34
     1a6:	2500      	movs	r5, #0
/home/aom1/Work/Linux/target/STM32MP1-DK2/buildroot/buildroot/output/build/optee-os-custom/lib/libutee/tee_api.c:29
     1a8:	e9dd 9312 	ldrd	r9, r3, [sp, #72]	; 0x48
     1ac:	447a      	add	r2, pc
     1ae:	4604      	mov	r4, r0
     1b0:	9302      	str	r3, [sp, #8]
/home/aom1/Work/Linux/target/STM32MP1-DK2/buildroot/buildroot/output/build/optee-os-custom/lib/libutee/tee_api.c:47
     1b2:	462e      	mov	r6, r5
/home/aom1/Work/Linux/target/STM32MP1-DK2/buildroot/buildroot/output/build/optee-os-custom/lib/libutee/tee_api.c:29
     1b4:	4b56      	ldr	r3, [pc, #344]	; (310 <copy_param+0x17a>)
/home/aom1/Work/Linux/target/STM32MP1-DK2/buildroot/buildroot/output/build/optee-os-custom/lib/libutee/tee_api.c:54
     1b6:	f107 0b04 	add.w	fp, r7, #4
/home/aom1/Work/Linux/target/STM32MP1-DK2/buildroot/buildroot/output/build/optee-os-custom/lib/libutee/tee_api.c:29
     1ba:	9101      	str	r1, [sp, #4]
/home/aom1/Work/Linux/target/STM32MP1-DK2/buildroot/buildroot/output/build/optee-os-custom/lib/libutee/tee_api.c:65
     1bc:	f04f 0a01 	mov.w	sl, #1
/home/aom1/Work/Linux/target/STM32MP1-DK2/buildroot/buildroot/output/build/optee-os-custom/lib/libutee/tee_api.c:29
     1c0:	58d3      	ldr	r3, [r2, r3]
     1c2:	681b      	ldr	r3, [r3, #0]
     1c4:	9305      	str	r3, [sp, #20]
     1c6:	f04f 0300 	mov.w	r3, #0
/home/aom1/Work/Linux/target/STM32MP1-DK2/buildroot/buildroot/output/build/optee-os-custom/lib/libutee/tee_api.c:48
     1ca:	462b      	mov	r3, r5
/home/aom1/Work/Linux/target/STM32MP1-DK2/buildroot/buildroot/output/build/optee-os-custom/lib/libutee/tee_api.c:45
     1cc:	f8c8 5000 	str.w	r5, [r8]
/home/aom1/Work/Linux/target/STM32MP1-DK2/buildroot/buildroot/output/build/optee-os-custom/lib/libutee/tee_api.c:34
     1d0:	9504      	str	r5, [sp, #16]
/home/aom1/Work/Linux/target/STM32MP1-DK2/buildroot/buildroot/output/build/optee-os-custom/lib/libutee/tee_api.c:46
     1d2:	f8c9 5000 	str.w	r5, [r9]
/home/aom1/Work/Linux/target/STM32MP1-DK2/buildroot/buildroot/output/build/optee-os-custom/lib/libutee/tee_api.c:48
     1d6:	9a02      	ldr	r2, [sp, #8]
/home/aom1/Work/Linux/target/STM32MP1-DK2/buildroot/buildroot/output/build/optee-os-custom/lib/libutee/tee_api.c:49
     1d8:	9901      	ldr	r1, [sp, #4]
/home/aom1/Work/Linux/target/STM32MP1-DK2/buildroot/buildroot/output/build/optee-os-custom/lib/libutee/tee_api.c:48
     1da:	f842 3026 	str.w	r3, [r2, r6, lsl #2]
/home/aom1/Work/Linux/target/STM32MP1-DK2/buildroot/buildroot/output/build/optee-os-custom/lib/libutee/tee_api.c:49
     1de:	00b2      	lsls	r2, r6, #2
     1e0:	fa21 f202 	lsr.w	r2, r1, r2
     1e4:	f002 020f 	and.w	r2, r2, #15
     1e8:	3a05      	subs	r2, #5
     1ea:	2a02      	cmp	r2, #2
     1ec:	d813      	bhi.n	216 <copy_param+0x80>
/home/aom1/Work/Linux/target/STM32MP1-DK2/buildroot/buildroot/output/build/optee-os-custom/lib/libutee/tee_api.c:53
     1ee:	f857 1036 	ldr.w	r1, [r7, r6, lsl #3]
/home/aom1/Work/Linux/target/STM32MP1-DK2/buildroot/buildroot/output/build/optee-os-custom/lib/libutee/tee_api.c:64
     1f2:	b181      	cbz	r1, 216 <copy_param+0x80>
/home/aom1/Work/Linux/target/STM32MP1-DK2/buildroot/buildroot/output/build/optee-os-custom/lib/libutee/tee_api.c:54 (discriminator 1)
     1f4:	f85b 2036 	ldr.w	r2, [fp, r6, lsl #3]
/home/aom1/Work/Linux/target/STM32MP1-DK2/buildroot/buildroot/output/build/optee-os-custom/lib/libutee/tee_api.c:64 (discriminator 1)
     1f8:	b16a      	cbz	r2, 216 <copy_param+0x80>
/home/aom1/Work/Linux/target/STM32MP1-DK2/buildroot/buildroot/output/build/optee-os-custom/lib/libutee/tee_api.c:65 (discriminator 2)
     1fa:	9203      	str	r2, [sp, #12]
     1fc:	2001      	movs	r0, #1
     1fe:	f7ff ffc5 	bl	18c <TEE_CheckMemoryAccessRights>
/home/aom1/Work/Linux/target/STM32MP1-DK2/buildroot/buildroot/output/build/optee-os-custom/lib/libutee/tee_api.c:64 (discriminator 2)
     202:	2300      	movs	r3, #0
     204:	b938      	cbnz	r0, 216 <copy_param+0x80>
/home/aom1/Work/Linux/target/STM32MP1-DK2/buildroot/buildroot/output/build/optee-os-custom/lib/libutee/tee_api.c:67
     206:	9a03      	ldr	r2, [sp, #12]
/home/aom1/Work/Linux/target/STM32MP1-DK2/buildroot/buildroot/output/build/optee-os-custom/lib/libutee/tee_api.c:66
     208:	a904      	add	r1, sp, #16
     20a:	f806 a001 	strb.w	sl, [r6, r1]
/home/aom1/Work/Linux/target/STM32MP1-DK2/buildroot/buildroot/output/build/optee-os-custom/lib/libutee/tee_api.c:67
     20e:	3207      	adds	r2, #7
     210:	f022 0207 	bic.w	r2, r2, #7
     214:	4415      	add	r5, r2
/home/aom1/Work/Linux/target/STM32MP1-DK2/buildroot/buildroot/output/build/optee-os-custom/lib/libutee/tee_api.c:47 (discriminator 2)
     216:	3601      	adds	r6, #1
     218:	2e04      	cmp	r6, #4
     21a:	d1dc      	bne.n	1d6 <copy_param+0x40>
/home/aom1/Work/Linux/target/STM32MP1-DK2/buildroot/buildroot/output/build/optee-os-custom/lib/libutee/tee_api.c:75
     21c:	b335      	cbz	r5, 26c <copy_param+0xd6>
/home/aom1/Work/Linux/target/STM32MP1-DK2/buildroot/buildroot/output/build/optee-os-custom/lib/libutee/tee_api.c:76
     21e:	4631      	mov	r1, r6
     220:	4628      	mov	r0, r5
     222:	f003 fe4b 	bl	3ebc <tee_map_zi>
/home/aom1/Work/Linux/target/STM32MP1-DK2/buildroot/buildroot/output/build/optee-os-custom/lib/libutee/tee_api.c:77
     226:	4603      	mov	r3, r0
     228:	2800      	cmp	r0, #0
     22a:	d060      	beq.n	2ee <copy_param+0x158>
/home/aom1/Work/Linux/target/STM32MP1-DK2/buildroot/buildroot/output/build/optee-os-custom/lib/libutee/tee_api.c:79
     22c:	f8c8 0000 	str.w	r0, [r8]
/home/aom1/Work/Linux/target/STM32MP1-DK2/buildroot/buildroot/output/build/optee-os-custom/lib/libutee/tee_api.c:80
     230:	f8c9 5000 	str.w	r5, [r9]
/home/aom1/Work/Linux/target/STM32MP1-DK2/buildroot/buildroot/output/build/optee-os-custom/lib/libutee/tee_api.c:109
     234:	ed9f 8b32 	vldr	d8, [pc, #200]	; 300 <copy_param+0x16a>
/home/aom1/Work/Linux/target/STM32MP1-DK2/buildroot/buildroot/output/build/optee-os-custom/lib/libutee/tee_api.c:83
     238:	9a01      	ldr	r2, [sp, #4]
     23a:	2500      	movs	r5, #0
     23c:	46b8      	mov	r8, r7
/home/aom1/Work/Linux/target/STM32MP1-DK2/buildroot/buildroot/output/build/optee-os-custom/lib/libutee/tee_api.c:88
     23e:	46a9      	mov	r9, r5
/home/aom1/Work/Linux/target/STM32MP1-DK2/buildroot/buildroot/output/build/optee-os-custom/lib/libutee/tee_api.c:95
     240:	f10d 0a10 	add.w	sl, sp, #16
/home/aom1/Work/Linux/target/STM32MP1-DK2/buildroot/buildroot/output/build/optee-os-custom/lib/libutee/tee_api.c:83
     244:	e9c4 2500 	strd	r2, r5, [r4]
/home/aom1/Work/Linux/target/STM32MP1-DK2/buildroot/buildroot/output/build/optee-os-custom/lib/libutee/tee_api.c:85
     248:	9a01      	ldr	r2, [sp, #4]
     24a:	00a9      	lsls	r1, r5, #2
     24c:	fa22 f101 	lsr.w	r1, r2, r1
     250:	f001 020f 	and.w	r2, r1, #15
     254:	2a03      	cmp	r2, #3
     256:	d02a      	beq.n	2ae <copy_param+0x118>
     258:	f011 0f0c 	tst.w	r1, #12
     25c:	d108      	bne.n	270 <copy_param+0xda>
     25e:	2a01      	cmp	r2, #1
     260:	d025      	beq.n	2ae <copy_param+0x118>
/home/aom1/Work/Linux/target/STM32MP1-DK2/buildroot/buildroot/output/build/optee-os-custom/lib/libutee/tee_api.c:109
     262:	ed84 8b02 	vstr	d8, [r4, #8]
/home/aom1/Work/Linux/target/STM32MP1-DK2/buildroot/buildroot/output/build/optee-os-custom/lib/libutee/tee_api.c:110
     266:	ed84 8b04 	vstr	d8, [r4, #16]
/home/aom1/Work/Linux/target/STM32MP1-DK2/buildroot/buildroot/output/build/optee-os-custom/lib/libutee/tee_api.c:111
     26a:	e028      	b.n	2be <copy_param+0x128>
/home/aom1/Work/Linux/target/STM32MP1-DK2/buildroot/buildroot/output/build/optee-os-custom/lib/libutee/tee_api.c:31
     26c:	462b      	mov	r3, r5
     26e:	e7e1      	b.n	234 <copy_param+0x9e>
/home/aom1/Work/Linux/target/STM32MP1-DK2/buildroot/buildroot/output/build/optee-os-custom/lib/libutee/tee_api.c:85
     270:	1f51      	subs	r1, r2, #5
     272:	2902      	cmp	r1, #2
     274:	d8f5      	bhi.n	262 <copy_param+0xcc>
/home/aom1/Work/Linux/target/STM32MP1-DK2/buildroot/buildroot/output/build/optee-os-custom/lib/libutee/tee_api.c:95
     276:	f815 100a 	ldrb.w	r1, [r5, sl]
/home/aom1/Work/Linux/target/STM32MP1-DK2/buildroot/buildroot/output/build/optee-os-custom/lib/libutee/tee_api.c:94
     27a:	f8d8 b004 	ldr.w	fp, [r8, #4]
/home/aom1/Work/Linux/target/STM32MP1-DK2/buildroot/buildroot/output/build/optee-os-custom/lib/libutee/tee_api.c:95
     27e:	b391      	cbz	r1, 2e6 <copy_param+0x150>
/home/aom1/Work/Linux/target/STM32MP1-DK2/buildroot/buildroot/output/build/optee-os-custom/lib/libutee/tee_api.c:97
     280:	9902      	ldr	r1, [sp, #8]
/home/aom1/Work/Linux/target/STM32MP1-DK2/buildroot/buildroot/output/build/optee-os-custom/lib/libutee/tee_api.c:98
     282:	f10b 0607 	add.w	r6, fp, #7
     286:	f026 0607 	bic.w	r6, r6, #7
/home/aom1/Work/Linux/target/STM32MP1-DK2/buildroot/buildroot/output/build/optee-os-custom/lib/libutee/tee_api.c:99
     28a:	2a06      	cmp	r2, #6
/home/aom1/Work/Linux/target/STM32MP1-DK2/buildroot/buildroot/output/build/optee-os-custom/lib/libutee/tee_api.c:98
     28c:	441e      	add	r6, r3
/home/aom1/Work/Linux/target/STM32MP1-DK2/buildroot/buildroot/output/build/optee-os-custom/lib/libutee/tee_api.c:97
     28e:	f841 3025 	str.w	r3, [r1, r5, lsl #2]
/home/aom1/Work/Linux/target/STM32MP1-DK2/buildroot/buildroot/output/build/optee-os-custom/lib/libutee/tee_api.c:99
     292:	d006      	beq.n	2a2 <copy_param+0x10c>
/home/aom1/Work/Linux/target/STM32MP1-DK2/buildroot/buildroot/output/build/optee-os-custom/lib/libutee/tee_api.c:101
     294:	f857 1035 	ldr.w	r1, [r7, r5, lsl #3]
     298:	4618      	mov	r0, r3
     29a:	465a      	mov	r2, fp
     29c:	f000 fedc 	bl	1058 <memcpy>
     2a0:	4603      	mov	r3, r0
/home/aom1/Work/Linux/target/STM32MP1-DK2/buildroot/buildroot/output/build/optee-os-custom/lib/libutee/tee_api.c:105
     2a2:	e9c4 3902 	strd	r3, r9, [r4, #8]
/home/aom1/Work/Linux/target/STM32MP1-DK2/buildroot/buildroot/output/build/optee-os-custom/lib/libutee/tee_api.c:106
     2a6:	e9c4 b904 	strd	fp, r9, [r4, #16]
/home/aom1/Work/Linux/target/STM32MP1-DK2/buildroot/buildroot/output/build/optee-os-custom/lib/libutee/tee_api.c:107
     2aa:	4633      	mov	r3, r6
     2ac:	e007      	b.n	2be <copy_param+0x128>
/home/aom1/Work/Linux/target/STM32MP1-DK2/buildroot/buildroot/output/build/optee-os-custom/lib/libutee/tee_api.c:88
     2ae:	f857 2035 	ldr.w	r2, [r7, r5, lsl #3]
     2b2:	e9c4 2902 	strd	r2, r9, [r4, #8]
/home/aom1/Work/Linux/target/STM32MP1-DK2/buildroot/buildroot/output/build/optee-os-custom/lib/libutee/tee_api.c:89
     2b6:	f8d8 2004 	ldr.w	r2, [r8, #4]
     2ba:	e9c4 2904 	strd	r2, r9, [r4, #16]
/home/aom1/Work/Linux/target/STM32MP1-DK2/buildroot/buildroot/output/build/optee-os-custom/lib/libutee/tee_api.c:84 (discriminator 2)
     2be:	3501      	adds	r5, #1
     2c0:	f108 0808 	add.w	r8, r8, #8
     2c4:	2d04      	cmp	r5, #4
     2c6:	f104 0410 	add.w	r4, r4, #16
     2ca:	d1bd      	bne.n	248 <copy_param+0xb2>
/home/aom1/Work/Linux/target/STM32MP1-DK2/buildroot/buildroot/output/build/optee-os-custom/lib/libutee/tee_api.c:115
     2cc:	2000      	movs	r0, #0
/home/aom1/Work/Linux/target/STM32MP1-DK2/buildroot/buildroot/output/build/optee-os-custom/lib/libutee/tee_api.c:29
     2ce:	4a11      	ldr	r2, [pc, #68]	; (314 <copy_param+0x17e>)
/home/aom1/Work/Linux/target/STM32MP1-DK2/buildroot/buildroot/output/build/optee-os-custom/lib/libutee/tee_api.c:116
     2d0:	4b0f      	ldr	r3, [pc, #60]	; (310 <copy_param+0x17a>)
/home/aom1/Work/Linux/target/STM32MP1-DK2/buildroot/buildroot/output/build/optee-os-custom/lib/libutee/tee_api.c:29
     2d2:	447a      	add	r2, pc
/home/aom1/Work/Linux/target/STM32MP1-DK2/buildroot/buildroot/output/build/optee-os-custom/lib/libutee/tee_api.c:116
     2d4:	58d3      	ldr	r3, [r2, r3]
     2d6:	681a      	ldr	r2, [r3, #0]
     2d8:	9b05      	ldr	r3, [sp, #20]
     2da:	405a      	eors	r2, r3
     2dc:	f04f 0300 	mov.w	r3, #0
     2e0:	d007      	beq.n	2f2 <copy_param+0x15c>
     2e2:	f00a fac8 	bl	a876 <__stack_chk_fail>
/home/aom1/Work/Linux/target/STM32MP1-DK2/buildroot/buildroot/output/build/optee-os-custom/lib/libutee/tee_api.c:103
     2e6:	461e      	mov	r6, r3
     2e8:	f857 3035 	ldr.w	r3, [r7, r5, lsl #3]
     2ec:	e7d9      	b.n	2a2 <copy_param+0x10c>
/home/aom1/Work/Linux/target/STM32MP1-DK2/buildroot/buildroot/output/build/optee-os-custom/lib/libutee/tee_api.c:78
     2ee:	4806      	ldr	r0, [pc, #24]	; (308 <copy_param+0x172>)
     2f0:	e7ed      	b.n	2ce <copy_param+0x138>
/home/aom1/Work/Linux/target/STM32MP1-DK2/buildroot/buildroot/output/build/optee-os-custom/lib/libutee/tee_api.c:116
     2f2:	b007      	add	sp, #28
     2f4:	ecbd 8b02 	vpop	{d8}
     2f8:	e8bd 8ff0 	ldmia.w	sp!, {r4, r5, r6, r7, r8, r9, sl, fp, pc}
     2fc:	f3af 8000 	nop.w
	...
     308:	ffff000c 	.word	0xffff000c
     30c:	0000bed8 	.word	0x0000bed8
     310:	0000000c 	.word	0x0000000c
     314:	0000bdb2 	.word	0x0000bdb2

00000318 <TEE_OpenTASession>:
TEE_OpenTASession():
/home/aom1/Work/Linux/target/STM32MP1-DK2/buildroot/buildroot/output/build/optee-os-custom/lib/libutee/tee_api.c:154
     318:	e92d 4ff0 	stmdb	sp!, {r4, r5, r6, r7, r8, r9, sl, fp, lr}
     31c:	4614      	mov	r4, r2
     31e:	4a2c      	ldr	r2, [pc, #176]	; (3d0 <TEE_OpenTASession+0xb8>)
     320:	461d      	mov	r5, r3
     322:	4b2c      	ldr	r3, [pc, #176]	; (3d4 <TEE_OpenTASession+0xbc>)
     324:	b09f      	sub	sp, #124	; 0x7c
     326:	447a      	add	r2, pc
/home/aom1/Work/Linux/target/STM32MP1-DK2/buildroot/buildroot/output/build/optee-os-custom/lib/libutee/tee_api.c:160
     328:	ae06      	add	r6, sp, #24
/home/aom1/Work/Linux/target/STM32MP1-DK2/buildroot/buildroot/output/build/optee-os-custom/lib/libutee/tee_api.c:154
     32a:	4680      	mov	r8, r0
     32c:	4689      	mov	r9, r1
     32e:	58d3      	ldr	r3, [r2, r3]
/home/aom1/Work/Linux/target/STM32MP1-DK2/buildroot/buildroot/output/build/optee-os-custom/lib/libutee/tee_api.c:157
     330:	2100      	movs	r1, #0
/home/aom1/Work/Linux/target/STM32MP1-DK2/buildroot/buildroot/output/build/optee-os-custom/lib/libutee/tee_api.c:160
     332:	4630      	mov	r0, r6
     334:	2210      	movs	r2, #16
/home/aom1/Work/Linux/target/STM32MP1-DK2/buildroot/buildroot/output/build/optee-os-custom/lib/libutee/tee_api.c:154
     336:	681b      	ldr	r3, [r3, #0]
     338:	931d      	str	r3, [sp, #116]	; 0x74
     33a:	f04f 0300 	mov.w	r3, #0
     33e:	e9dd ab28 	ldrd	sl, fp, [sp, #160]	; 0xa0
/home/aom1/Work/Linux/target/STM32MP1-DK2/buildroot/buildroot/output/build/optee-os-custom/lib/libutee/tee_api.c:157
     342:	9103      	str	r1, [sp, #12]
/home/aom1/Work/Linux/target/STM32MP1-DK2/buildroot/buildroot/output/build/optee-os-custom/lib/libutee/tee_api.c:159
     344:	e9cd 1104 	strd	r1, r1, [sp, #16]
/home/aom1/Work/Linux/target/STM32MP1-DK2/buildroot/buildroot/output/build/optee-os-custom/lib/libutee/tee_api.c:160
     348:	f00a fa96 	bl	a878 <memset>
/home/aom1/Work/Linux/target/STM32MP1-DK2/buildroot/buildroot/output/build/optee-os-custom/lib/libutee/tee_api.c:162
     34c:	b11c      	cbz	r4, 356 <TEE_OpenTASession+0x3e>
/home/aom1/Work/Linux/target/STM32MP1-DK2/buildroot/buildroot/output/build/optee-os-custom/lib/libutee/tee_api.c:163
     34e:	2120      	movs	r1, #32
     350:	4628      	mov	r0, r5
     352:	f003 fd82 	bl	3e5a <__utee_check_inout_annotation>
/home/aom1/Work/Linux/target/STM32MP1-DK2/buildroot/buildroot/output/build/optee-os-custom/lib/libutee/tee_api.c:166
     356:	2104      	movs	r1, #4
     358:	4650      	mov	r0, sl
/home/aom1/Work/Linux/target/STM32MP1-DK2/buildroot/buildroot/output/build/optee-os-custom/lib/libutee/tee_api.c:168
     35a:	af0a      	add	r7, sp, #40	; 0x28
/home/aom1/Work/Linux/target/STM32MP1-DK2/buildroot/buildroot/output/build/optee-os-custom/lib/libutee/tee_api.c:166
     35c:	f003 fd6a 	bl	3e34 <__utee_check_out_annotation>
/home/aom1/Work/Linux/target/STM32MP1-DK2/buildroot/buildroot/output/build/optee-os-custom/lib/libutee/tee_api.c:168
     360:	9601      	str	r6, [sp, #4]
     362:	ab05      	add	r3, sp, #20
     364:	9300      	str	r3, [sp, #0]
     366:	4621      	mov	r1, r4
     368:	ab04      	add	r3, sp, #16
     36a:	462a      	mov	r2, r5
     36c:	4638      	mov	r0, r7
     36e:	f7ff ff12 	bl	196 <copy_param>
/home/aom1/Work/Linux/target/STM32MP1-DK2/buildroot/buildroot/output/build/optee-os-custom/lib/libutee/tee_api.c:169
     372:	4604      	mov	r4, r0
     374:	b9b0      	cbnz	r0, 3a4 <TEE_OpenTASession+0x8c>
/home/aom1/Work/Linux/target/STM32MP1-DK2/buildroot/buildroot/output/build/optee-os-custom/lib/libutee/tee_api.c:171
     376:	f8cd b000 	str.w	fp, [sp]
     37a:	ab03      	add	r3, sp, #12
     37c:	463a      	mov	r2, r7
     37e:	4649      	mov	r1, r9
     380:	4640      	mov	r0, r8
     382:	f003 eeb0 	blx	40e4 <_utee_open_ta_session>
     386:	4604      	mov	r4, r0
/home/aom1/Work/Linux/target/STM32MP1-DK2/buildroot/buildroot/output/build/optee-os-custom/lib/libutee/tee_api.c:173
     388:	463a      	mov	r2, r7
     38a:	4628      	mov	r0, r5
     38c:	4631      	mov	r1, r6
     38e:	f7ff fe47 	bl	20 <update_out_param>
/home/aom1/Work/Linux/target/STM32MP1-DK2/buildroot/buildroot/output/build/optee-os-custom/lib/libutee/tee_api.c:174
     392:	9804      	ldr	r0, [sp, #16]
     394:	b128      	cbz	r0, 3a2 <TEE_OpenTASession+0x8a>
/home/aom1/Work/Linux/target/STM32MP1-DK2/buildroot/buildroot/output/build/optee-os-custom/lib/libutee/tee_api.c:175
     396:	9905      	ldr	r1, [sp, #20]
     398:	f003 fdc6 	bl	3f28 <tee_unmap>
/home/aom1/Work/Linux/target/STM32MP1-DK2/buildroot/buildroot/output/build/optee-os-custom/lib/libutee/tee_api.c:177
     39c:	b108      	cbz	r0, 3a2 <TEE_OpenTASession+0x8a>
/home/aom1/Work/Linux/target/STM32MP1-DK2/buildroot/buildroot/output/build/optee-os-custom/lib/libutee/tee_api.c:178
     39e:	f003 fd07 	bl	3db0 <TEE_Panic>
/home/aom1/Work/Linux/target/STM32MP1-DK2/buildroot/buildroot/output/build/optee-os-custom/lib/libutee/tee_api.c:187
     3a2:	b10c      	cbz	r4, 3a8 <TEE_OpenTASession+0x90>
/home/aom1/Work/Linux/target/STM32MP1-DK2/buildroot/buildroot/output/build/optee-os-custom/lib/libutee/tee_api.c:188
     3a4:	2300      	movs	r3, #0
     3a6:	9303      	str	r3, [sp, #12]
/home/aom1/Work/Linux/target/STM32MP1-DK2/buildroot/buildroot/output/build/optee-os-custom/lib/libutee/tee_api.c:190
     3a8:	9b03      	ldr	r3, [sp, #12]
/home/aom1/Work/Linux/target/STM32MP1-DK2/buildroot/buildroot/output/build/optee-os-custom/lib/libutee/tee_api.c:154
     3aa:	4a0b      	ldr	r2, [pc, #44]	; (3d8 <TEE_OpenTASession+0xc0>)
/home/aom1/Work/Linux/target/STM32MP1-DK2/buildroot/buildroot/output/build/optee-os-custom/lib/libutee/tee_api.c:190
     3ac:	f8ca 3000 	str.w	r3, [sl]
/home/aom1/Work/Linux/target/STM32MP1-DK2/buildroot/buildroot/output/build/optee-os-custom/lib/libutee/tee_api.c:154
     3b0:	447a      	add	r2, pc
/home/aom1/Work/Linux/target/STM32MP1-DK2/buildroot/buildroot/output/build/optee-os-custom/lib/libutee/tee_api.c:192
     3b2:	4b08      	ldr	r3, [pc, #32]	; (3d4 <TEE_OpenTASession+0xbc>)
     3b4:	58d3      	ldr	r3, [r2, r3]
     3b6:	681a      	ldr	r2, [r3, #0]
     3b8:	9b1d      	ldr	r3, [sp, #116]	; 0x74
     3ba:	405a      	eors	r2, r3
     3bc:	f04f 0300 	mov.w	r3, #0
     3c0:	d001      	beq.n	3c6 <TEE_OpenTASession+0xae>
     3c2:	f00a fa58 	bl	a876 <__stack_chk_fail>
     3c6:	4620      	mov	r0, r4
     3c8:	b01f      	add	sp, #124	; 0x7c
     3ca:	e8bd 8ff0 	ldmia.w	sp!, {r4, r5, r6, r7, r8, r9, sl, fp, pc}
     3ce:	bf00      	nop
     3d0:	0000bd5e 	.word	0x0000bd5e
     3d4:	0000000c 	.word	0x0000000c
     3d8:	0000bcd4 	.word	0x0000bcd4

000003dc <TEE_InvokeTACommand>:
TEE_InvokeTACommand():
/home/aom1/Work/Linux/target/STM32MP1-DK2/buildroot/buildroot/output/build/optee-os-custom/lib/libutee/tee_api.c:209
     3dc:	e92d 4ff0 	stmdb	sp!, {r4, r5, r6, r7, r8, r9, sl, fp, lr}
     3e0:	4693      	mov	fp, r2
     3e2:	4a34      	ldr	r2, [pc, #208]	; (4b4 <TEE_InvokeTACommand+0xd8>)
     3e4:	461c      	mov	r4, r3
     3e6:	4b34      	ldr	r3, [pc, #208]	; (4b8 <TEE_InvokeTACommand+0xdc>)
     3e8:	b09f      	sub	sp, #124	; 0x7c
     3ea:	447a      	add	r2, pc
/home/aom1/Work/Linux/target/STM32MP1-DK2/buildroot/buildroot/output/build/optee-os-custom/lib/libutee/tee_api.c:215
     3ec:	af06      	add	r7, sp, #24
/home/aom1/Work/Linux/target/STM32MP1-DK2/buildroot/buildroot/output/build/optee-os-custom/lib/libutee/tee_api.c:209
     3ee:	4681      	mov	r9, r0
     3f0:	468a      	mov	sl, r1
     3f2:	58d3      	ldr	r3, [r2, r3]
/home/aom1/Work/Linux/target/STM32MP1-DK2/buildroot/buildroot/output/build/optee-os-custom/lib/libutee/tee_api.c:213
     3f4:	2100      	movs	r1, #0
/home/aom1/Work/Linux/target/STM32MP1-DK2/buildroot/buildroot/output/build/optee-os-custom/lib/libutee/tee_api.c:215
     3f6:	4638      	mov	r0, r7
     3f8:	2210      	movs	r2, #16
/home/aom1/Work/Linux/target/STM32MP1-DK2/buildroot/buildroot/output/build/optee-os-custom/lib/libutee/tee_api.c:209
     3fa:	681b      	ldr	r3, [r3, #0]
     3fc:	931d      	str	r3, [sp, #116]	; 0x74
     3fe:	f04f 0300 	mov.w	r3, #0
/home/aom1/Work/Linux/target/STM32MP1-DK2/buildroot/buildroot/output/build/optee-os-custom/lib/libutee/tee_api.c:211
     402:	2303      	movs	r3, #3
/home/aom1/Work/Linux/target/STM32MP1-DK2/buildroot/buildroot/output/build/optee-os-custom/lib/libutee/tee_api.c:209
     404:	e9dd 6528 	ldrd	r6, r5, [sp, #160]	; 0xa0
/home/aom1/Work/Linux/target/STM32MP1-DK2/buildroot/buildroot/output/build/optee-os-custom/lib/libutee/tee_api.c:211
     408:	9303      	str	r3, [sp, #12]
/home/aom1/Work/Linux/target/STM32MP1-DK2/buildroot/buildroot/output/build/optee-os-custom/lib/libutee/tee_api.c:214
     40a:	e9cd 1104 	strd	r1, r1, [sp, #16]
/home/aom1/Work/Linux/target/STM32MP1-DK2/buildroot/buildroot/output/build/optee-os-custom/lib/libutee/tee_api.c:215
     40e:	f00a fa33 	bl	a878 <memset>
/home/aom1/Work/Linux/target/STM32MP1-DK2/buildroot/buildroot/output/build/optee-os-custom/lib/libutee/tee_api.c:217
     412:	b11c      	cbz	r4, 41c <TEE_InvokeTACommand+0x40>
/home/aom1/Work/Linux/target/STM32MP1-DK2/buildroot/buildroot/output/build/optee-os-custom/lib/libutee/tee_api.c:218
     414:	2120      	movs	r1, #32
     416:	4630      	mov	r0, r6
     418:	f003 fd1f 	bl	3e5a <__utee_check_inout_annotation>
/home/aom1/Work/Linux/target/STM32MP1-DK2/buildroot/buildroot/output/build/optee-os-custom/lib/libutee/tee_api.c:221
     41c:	b11d      	cbz	r5, 426 <TEE_InvokeTACommand+0x4a>
/home/aom1/Work/Linux/target/STM32MP1-DK2/buildroot/buildroot/output/build/optee-os-custom/lib/libutee/tee_api.c:222
     41e:	2104      	movs	r1, #4
     420:	4628      	mov	r0, r5
     422:	f003 fd07 	bl	3e34 <__utee_check_out_annotation>
/home/aom1/Work/Linux/target/STM32MP1-DK2/buildroot/buildroot/output/build/optee-os-custom/lib/libutee/tee_api.c:225
     426:	9701      	str	r7, [sp, #4]
     428:	ab05      	add	r3, sp, #20
     42a:	9300      	str	r3, [sp, #0]
     42c:	f10d 0828 	add.w	r8, sp, #40	; 0x28
     430:	4621      	mov	r1, r4
     432:	ab04      	add	r3, sp, #16
     434:	4632      	mov	r2, r6
     436:	4640      	mov	r0, r8
     438:	f7ff fead 	bl	196 <copy_param>
/home/aom1/Work/Linux/target/STM32MP1-DK2/buildroot/buildroot/output/build/optee-os-custom/lib/libutee/tee_api.c:226
     43c:	4604      	mov	r4, r0
     43e:	b9a8      	cbnz	r0, 46c <TEE_InvokeTACommand+0x90>
/home/aom1/Work/Linux/target/STM32MP1-DK2/buildroot/buildroot/output/build/optee-os-custom/lib/libutee/tee_api.c:228
     440:	ab03      	add	r3, sp, #12
     442:	465a      	mov	r2, fp
     444:	9300      	str	r3, [sp, #0]
     446:	4651      	mov	r1, sl
     448:	4643      	mov	r3, r8
     44a:	4648      	mov	r0, r9
     44c:	f003 ee60 	blx	4110 <_utee_invoke_ta_command>
     450:	4604      	mov	r4, r0
/home/aom1/Work/Linux/target/STM32MP1-DK2/buildroot/buildroot/output/build/optee-os-custom/lib/libutee/tee_api.c:231
     452:	4642      	mov	r2, r8
     454:	4630      	mov	r0, r6
     456:	4639      	mov	r1, r7
     458:	f7ff fde2 	bl	20 <update_out_param>
/home/aom1/Work/Linux/target/STM32MP1-DK2/buildroot/buildroot/output/build/optee-os-custom/lib/libutee/tee_api.c:232
     45c:	9804      	ldr	r0, [sp, #16]
     45e:	b128      	cbz	r0, 46c <TEE_InvokeTACommand+0x90>
/home/aom1/Work/Linux/target/STM32MP1-DK2/buildroot/buildroot/output/build/optee-os-custom/lib/libutee/tee_api.c:233
     460:	9905      	ldr	r1, [sp, #20]
     462:	f003 fd61 	bl	3f28 <tee_unmap>
/home/aom1/Work/Linux/target/STM32MP1-DK2/buildroot/buildroot/output/build/optee-os-custom/lib/libutee/tee_api.c:235
     466:	b108      	cbz	r0, 46c <TEE_InvokeTACommand+0x90>
/home/aom1/Work/Linux/target/STM32MP1-DK2/buildroot/buildroot/output/build/optee-os-custom/lib/libutee/tee_api.c:236
     468:	f003 fca2 	bl	3db0 <TEE_Panic>
/home/aom1/Work/Linux/target/STM32MP1-DK2/buildroot/buildroot/output/build/optee-os-custom/lib/libutee/tee_api.c:241
     46c:	9b03      	ldr	r3, [sp, #12]
/home/aom1/Work/Linux/target/STM32MP1-DK2/buildroot/buildroot/output/build/optee-os-custom/lib/libutee/tee_api.c:240
     46e:	b105      	cbz	r5, 472 <TEE_InvokeTACommand+0x96>
/home/aom1/Work/Linux/target/STM32MP1-DK2/buildroot/buildroot/output/build/optee-os-custom/lib/libutee/tee_api.c:241
     470:	602b      	str	r3, [r5, #0]
/home/aom1/Work/Linux/target/STM32MP1-DK2/buildroot/buildroot/output/build/optee-os-custom/lib/libutee/tee_api.c:243
     472:	2b04      	cmp	r3, #4
     474:	d009      	beq.n	48a <TEE_InvokeTACommand+0xae>
/home/aom1/Work/Linux/target/STM32MP1-DK2/buildroot/buildroot/output/build/optee-os-custom/lib/libutee/tee_api.c:246
     476:	b144      	cbz	r4, 48a <TEE_InvokeTACommand+0xae>
/home/aom1/Work/Linux/target/STM32MP1-DK2/buildroot/buildroot/output/build/optee-os-custom/lib/libutee/tee_api.c:246 (discriminator 1)
     478:	4b0c      	ldr	r3, [pc, #48]	; (4ac <TEE_InvokeTACommand+0xd0>)
     47a:	429c      	cmp	r4, r3
     47c:	d005      	beq.n	48a <TEE_InvokeTACommand+0xae>
/home/aom1/Work/Linux/target/STM32MP1-DK2/buildroot/buildroot/output/build/optee-os-custom/lib/libutee/tee_api.c:247
     47e:	4b0c      	ldr	r3, [pc, #48]	; (4b0 <TEE_InvokeTACommand+0xd4>)
     480:	429c      	cmp	r4, r3
     482:	d002      	beq.n	48a <TEE_InvokeTACommand+0xae>
/home/aom1/Work/Linux/target/STM32MP1-DK2/buildroot/buildroot/output/build/optee-os-custom/lib/libutee/tee_api.c:249
     484:	4620      	mov	r0, r4
     486:	f003 fc93 	bl	3db0 <TEE_Panic>
/home/aom1/Work/Linux/target/STM32MP1-DK2/buildroot/buildroot/output/build/optee-os-custom/lib/libutee/tee_api.c:209
     48a:	4a0c      	ldr	r2, [pc, #48]	; (4bc <TEE_InvokeTACommand+0xe0>)
/home/aom1/Work/Linux/target/STM32MP1-DK2/buildroot/buildroot/output/build/optee-os-custom/lib/libutee/tee_api.c:252
     48c:	4b0a      	ldr	r3, [pc, #40]	; (4b8 <TEE_InvokeTACommand+0xdc>)
/home/aom1/Work/Linux/target/STM32MP1-DK2/buildroot/buildroot/output/build/optee-os-custom/lib/libutee/tee_api.c:209
     48e:	447a      	add	r2, pc
/home/aom1/Work/Linux/target/STM32MP1-DK2/buildroot/buildroot/output/build/optee-os-custom/lib/libutee/tee_api.c:252
     490:	58d3      	ldr	r3, [r2, r3]
     492:	681a      	ldr	r2, [r3, #0]
     494:	9b1d      	ldr	r3, [sp, #116]	; 0x74
     496:	405a      	eors	r2, r3
     498:	f04f 0300 	mov.w	r3, #0
     49c:	d001      	beq.n	4a2 <TEE_InvokeTACommand+0xc6>
     49e:	f00a f9ea 	bl	a876 <__stack_chk_fail>
     4a2:	4620      	mov	r0, r4
     4a4:	b01f      	add	sp, #124	; 0x7c
     4a6:	e8bd 8ff0 	ldmia.w	sp!, {r4, r5, r6, r7, r8, r9, sl, fp, pc}
     4aa:	bf00      	nop
     4ac:	ffff000c 	.word	0xffff000c
     4b0:	ffff3024 	.word	0xffff3024
     4b4:	0000bc9a 	.word	0x0000bc9a
     4b8:	0000000c 	.word	0x0000000c
     4bc:	0000bbf6 	.word	0x0000bbf6

000004c0 <TEE_SetInstanceData>:
TEE_SetInstanceData():
/home/aom1/Work/Linux/target/STM32MP1-DK2/buildroot/buildroot/output/build/optee-os-custom/lib/libutee/tee_api.c:313
     4c0:	4b01      	ldr	r3, [pc, #4]	; (4c8 <TEE_SetInstanceData+0x8>)
     4c2:	447b      	add	r3, pc
     4c4:	6018      	str	r0, [r3, #0]
/home/aom1/Work/Linux/target/STM32MP1-DK2/buildroot/buildroot/output/build/optee-os-custom/lib/libutee/tee_api.c:314
     4c6:	4770      	bx	lr
     4c8:	0000be0a 	.word	0x0000be0a

000004cc <TEE_GetInstanceData>:
TEE_GetInstanceData():
/home/aom1/Work/Linux/target/STM32MP1-DK2/buildroot/buildroot/output/build/optee-os-custom/lib/libutee/tee_api.c:319
     4cc:	4b01      	ldr	r3, [pc, #4]	; (4d4 <TEE_GetInstanceData+0x8>)
     4ce:	447b      	add	r3, pc
     4d0:	6818      	ldr	r0, [r3, #0]
     4d2:	4770      	bx	lr
     4d4:	0000bdfe 	.word	0x0000bdfe

000004d8 <TEE_MemMove>:
TEE_MemMove():
/home/aom1/Work/Linux/target/STM32MP1-DK2/buildroot/buildroot/output/build/optee-os-custom/lib/libutee/tee_api.c:323
     4d8:	f00a b9f7 	b.w	a8ca <memmove>

000004dc <TEE_MemCompare>:
TEE_MemCompare():
/home/aom1/Work/Linux/target/STM32MP1-DK2/buildroot/buildroot/output/build/optee-os-custom/lib/libutee/tee_api.c:328
     4dc:	f00a ba0f 	b.w	a8fe <consttime_memcmp>

000004e0 <TEE_MemFill>:
TEE_MemFill():
/home/aom1/Work/Linux/target/STM32MP1-DK2/buildroot/buildroot/output/build/optee-os-custom/lib/libutee/tee_api.c:333
     4e0:	f00a b9ca 	b.w	a878 <memset>

000004e4 <TEE_GetSystemTime>:
TEE_GetSystemTime():
/home/aom1/Work/Linux/target/STM32MP1-DK2/buildroot/buildroot/output/build/optee-os-custom/lib/libutee/tee_api.c:339
     4e4:	4601      	mov	r1, r0
/home/aom1/Work/Linux/target/STM32MP1-DK2/buildroot/buildroot/output/build/optee-os-custom/lib/libutee/tee_api.c:340
     4e6:	2000      	movs	r0, #0
/home/aom1/Work/Linux/target/STM32MP1-DK2/buildroot/buildroot/output/build/optee-os-custom/lib/libutee/tee_api.c:339
     4e8:	b508      	push	{r3, lr}
/home/aom1/Work/Linux/target/STM32MP1-DK2/buildroot/buildroot/output/build/optee-os-custom/lib/libutee/tee_api.c:340
     4ea:	f003 ee50 	blx	418c <_utee_get_time>
/home/aom1/Work/Linux/target/STM32MP1-DK2/buildroot/buildroot/output/build/optee-os-custom/lib/libutee/tee_api.c:342
     4ee:	b118      	cbz	r0, 4f8 <TEE_GetSystemTime+0x14>
/home/aom1/Work/Linux/target/STM32MP1-DK2/buildroot/buildroot/output/build/optee-os-custom/lib/libutee/tee_api.c:344
     4f0:	e8bd 4008 	ldmia.w	sp!, {r3, lr}
/home/aom1/Work/Linux/target/STM32MP1-DK2/buildroot/buildroot/output/build/optee-os-custom/lib/libutee/tee_api.c:343
     4f4:	f003 bc5c 	b.w	3db0 <TEE_Panic>
/home/aom1/Work/Linux/target/STM32MP1-DK2/buildroot/buildroot/output/build/optee-os-custom/lib/libutee/tee_api.c:344
     4f8:	bd08      	pop	{r3, pc}

000004fa <TEE_Wait>:
TEE_Wait():
/home/aom1/Work/Linux/target/STM32MP1-DK2/buildroot/buildroot/output/build/optee-os-custom/lib/libutee/tee_api.c:347
     4fa:	b510      	push	{r4, lr}
/home/aom1/Work/Linux/target/STM32MP1-DK2/buildroot/buildroot/output/build/optee-os-custom/lib/libutee/tee_api.c:348
     4fc:	f003 ee3c 	blx	4178 <_utee_wait>
/home/aom1/Work/Linux/target/STM32MP1-DK2/buildroot/buildroot/output/build/optee-os-custom/lib/libutee/tee_api.c:350
     500:	4604      	mov	r4, r0
     502:	b120      	cbz	r0, 50e <TEE_Wait+0x14>
/home/aom1/Work/Linux/target/STM32MP1-DK2/buildroot/buildroot/output/build/optee-os-custom/lib/libutee/tee_api.c:350 (discriminator 1)
     504:	4b03      	ldr	r3, [pc, #12]	; (514 <TEE_Wait+0x1a>)
     506:	4298      	cmp	r0, r3
     508:	d001      	beq.n	50e <TEE_Wait+0x14>
/home/aom1/Work/Linux/target/STM32MP1-DK2/buildroot/buildroot/output/build/optee-os-custom/lib/libutee/tee_api.c:351
     50a:	f003 fc51 	bl	3db0 <TEE_Panic>
/home/aom1/Work/Linux/target/STM32MP1-DK2/buildroot/buildroot/output/build/optee-os-custom/lib/libutee/tee_api.c:354
     50e:	4620      	mov	r0, r4
     510:	bd10      	pop	{r4, pc}
     512:	bf00      	nop
     514:	ffff0002 	.word	0xffff0002

00000518 <TEE_GetTAPersistentTime>:
TEE_GetTAPersistentTime():
/home/aom1/Work/Linux/target/STM32MP1-DK2/buildroot/buildroot/output/build/optee-os-custom/lib/libutee/tee_api.c:357
     518:	b538      	push	{r3, r4, r5, lr}
/home/aom1/Work/Linux/target/STM32MP1-DK2/buildroot/buildroot/output/build/optee-os-custom/lib/libutee/tee_api.c:360
     51a:	4601      	mov	r1, r0
/home/aom1/Work/Linux/target/STM32MP1-DK2/buildroot/buildroot/output/build/optee-os-custom/lib/libutee/tee_api.c:357
     51c:	4605      	mov	r5, r0
/home/aom1/Work/Linux/target/STM32MP1-DK2/buildroot/buildroot/output/build/optee-os-custom/lib/libutee/tee_api.c:360
     51e:	2001      	movs	r0, #1
     520:	f003 ee34 	blx	418c <_utee_get_time>
/home/aom1/Work/Linux/target/STM32MP1-DK2/buildroot/buildroot/output/build/optee-os-custom/lib/libutee/tee_api.c:362
     524:	4604      	mov	r4, r0
     526:	b170      	cbz	r0, 546 <TEE_GetTAPersistentTime+0x2e>
/home/aom1/Work/Linux/target/STM32MP1-DK2/buildroot/buildroot/output/build/optee-os-custom/lib/libutee/tee_api.c:362 (discriminator 1)
     528:	4b08      	ldr	r3, [pc, #32]	; (54c <TEE_GetTAPersistentTime+0x34>)
     52a:	4298      	cmp	r0, r3
     52c:	d00b      	beq.n	546 <TEE_GetTAPersistentTime+0x2e>
/home/aom1/Work/Linux/target/STM32MP1-DK2/buildroot/buildroot/output/build/optee-os-custom/lib/libutee/tee_api.c:363
     52e:	2300      	movs	r3, #0
     530:	602b      	str	r3, [r5, #0]
/home/aom1/Work/Linux/target/STM32MP1-DK2/buildroot/buildroot/output/build/optee-os-custom/lib/libutee/tee_api.c:364
     532:	606b      	str	r3, [r5, #4]
/home/aom1/Work/Linux/target/STM32MP1-DK2/buildroot/buildroot/output/build/optee-os-custom/lib/libutee/tee_api.c:367
     534:	f500 4330 	add.w	r3, r0, #45056	; 0xb000
     538:	2b01      	cmp	r3, #1
     53a:	d904      	bls.n	546 <TEE_GetTAPersistentTime+0x2e>
/home/aom1/Work/Linux/target/STM32MP1-DK2/buildroot/buildroot/output/build/optee-os-custom/lib/libutee/tee_api.c:370
     53c:	4b04      	ldr	r3, [pc, #16]	; (550 <TEE_GetTAPersistentTime+0x38>)
     53e:	4298      	cmp	r0, r3
     540:	d001      	beq.n	546 <TEE_GetTAPersistentTime+0x2e>
/home/aom1/Work/Linux/target/STM32MP1-DK2/buildroot/buildroot/output/build/optee-os-custom/lib/libutee/tee_api.c:372
     542:	f003 fc35 	bl	3db0 <TEE_Panic>
/home/aom1/Work/Linux/target/STM32MP1-DK2/buildroot/buildroot/output/build/optee-os-custom/lib/libutee/tee_api.c:375
     546:	4620      	mov	r0, r4
     548:	bd38      	pop	{r3, r4, r5, pc}
     54a:	bf00      	nop
     54c:	ffff300f 	.word	0xffff300f
     550:	ffff000c 	.word	0xffff000c

00000554 <TEE_SetTAPersistentTime>:
TEE_SetTAPersistentTime():
/home/aom1/Work/Linux/target/STM32MP1-DK2/buildroot/buildroot/output/build/optee-os-custom/lib/libutee/tee_api.c:378
     554:	b510      	push	{r4, lr}
/home/aom1/Work/Linux/target/STM32MP1-DK2/buildroot/buildroot/output/build/optee-os-custom/lib/libutee/tee_api.c:381
     556:	f003 ee24 	blx	41a0 <_utee_set_ta_time>
/home/aom1/Work/Linux/target/STM32MP1-DK2/buildroot/buildroot/output/build/optee-os-custom/lib/libutee/tee_api.c:383
     55a:	4604      	mov	r4, r0
     55c:	b138      	cbz	r0, 56e <TEE_SetTAPersistentTime+0x1a>
/home/aom1/Work/Linux/target/STM32MP1-DK2/buildroot/buildroot/output/build/optee-os-custom/lib/libutee/tee_api.c:383 (discriminator 1)
     55e:	4b05      	ldr	r3, [pc, #20]	; (574 <TEE_SetTAPersistentTime+0x20>)
     560:	4298      	cmp	r0, r3
     562:	d004      	beq.n	56e <TEE_SetTAPersistentTime+0x1a>
/home/aom1/Work/Linux/target/STM32MP1-DK2/buildroot/buildroot/output/build/optee-os-custom/lib/libutee/tee_api.c:384
     564:	4b04      	ldr	r3, [pc, #16]	; (578 <TEE_SetTAPersistentTime+0x24>)
     566:	4298      	cmp	r0, r3
     568:	d001      	beq.n	56e <TEE_SetTAPersistentTime+0x1a>
/home/aom1/Work/Linux/target/STM32MP1-DK2/buildroot/buildroot/output/build/optee-os-custom/lib/libutee/tee_api.c:386
     56a:	f003 fc21 	bl	3db0 <TEE_Panic>
/home/aom1/Work/Linux/target/STM32MP1-DK2/buildroot/buildroot/output/build/optee-os-custom/lib/libutee/tee_api.c:389
     56e:	4620      	mov	r0, r4
     570:	bd10      	pop	{r4, pc}
     572:	bf00      	nop
     574:	ffff000c 	.word	0xffff000c
     578:	ffff3041 	.word	0xffff3041

0000057c <TEE_GetREETime>:
TEE_GetREETime():
/home/aom1/Work/Linux/target/STM32MP1-DK2/buildroot/buildroot/output/build/optee-os-custom/lib/libutee/tee_api.c:392
     57c:	4601      	mov	r1, r0
/home/aom1/Work/Linux/target/STM32MP1-DK2/buildroot/buildroot/output/build/optee-os-custom/lib/libutee/tee_api.c:393
     57e:	2002      	movs	r0, #2
/home/aom1/Work/Linux/target/STM32MP1-DK2/buildroot/buildroot/output/build/optee-os-custom/lib/libutee/tee_api.c:392
     580:	b508      	push	{r3, lr}
/home/aom1/Work/Linux/target/STM32MP1-DK2/buildroot/buildroot/output/build/optee-os-custom/lib/libutee/tee_api.c:393
     582:	f003 ee04 	blx	418c <_utee_get_time>
/home/aom1/Work/Linux/target/STM32MP1-DK2/buildroot/buildroot/output/build/optee-os-custom/lib/libutee/tee_api.c:395
     586:	b118      	cbz	r0, 590 <TEE_GetREETime+0x14>
/home/aom1/Work/Linux/target/STM32MP1-DK2/buildroot/buildroot/output/build/optee-os-custom/lib/libutee/tee_api.c:397
     588:	e8bd 4008 	ldmia.w	sp!, {r3, lr}
/home/aom1/Work/Linux/target/STM32MP1-DK2/buildroot/buildroot/output/build/optee-os-custom/lib/libutee/tee_api.c:396
     58c:	f003 bc10 	b.w	3db0 <TEE_Panic>
/home/aom1/Work/Linux/target/STM32MP1-DK2/buildroot/buildroot/output/build/optee-os-custom/lib/libutee/tee_api.c:397
     590:	bd08      	pop	{r3, pc}

00000592 <TEE_Malloc>:
TEE_Malloc():
/home/aom1/Work/Linux/target/STM32MP1-DK2/buildroot/buildroot/output/build/optee-os-custom/lib/libutee/tee_api.c:400
     592:	460b      	mov	r3, r1
     594:	b507      	push	{r0, r1, r2, lr}
/home/aom1/Work/Linux/target/STM32MP1-DK2/buildroot/buildroot/output/build/optee-os-custom/lib/libutee/tee_api.c:401
     596:	4601      	mov	r1, r0
     598:	b1f0      	cbz	r0, 5d8 <TEE_Malloc+0x46>
/home/aom1/Work/Linux/target/STM32MP1-DK2/buildroot/buildroot/output/build/optee-os-custom/lib/libutee/tee_api.c:404
     59a:	b92b      	cbnz	r3, 5a8 <TEE_Malloc+0x16>
/home/aom1/Work/Linux/target/STM32MP1-DK2/buildroot/buildroot/output/build/optee-os-custom/lib/libutee/tee_api.c:405
     59c:	2001      	movs	r0, #1
/home/aom1/Work/Linux/target/STM32MP1-DK2/buildroot/buildroot/output/build/optee-os-custom/lib/libutee/tee_api.c:412
     59e:	b003      	add	sp, #12
     5a0:	f85d eb04 	ldr.w	lr, [sp], #4
/home/aom1/Work/Linux/target/STM32MP1-DK2/buildroot/buildroot/output/build/optee-os-custom/lib/libutee/tee_api.c:405
     5a4:	f009 bfba 	b.w	a51c <calloc>
/home/aom1/Work/Linux/target/STM32MP1-DK2/buildroot/buildroot/output/build/optee-os-custom/lib/libutee/tee_api.c:406
     5a8:	f1b3 4f00 	cmp.w	r3, #2147483648	; 0x80000000
     5ac:	d104      	bne.n	5b8 <TEE_Malloc+0x26>
/home/aom1/Work/Linux/target/STM32MP1-DK2/buildroot/buildroot/output/build/optee-os-custom/lib/libutee/tee_api.c:412
     5ae:	b003      	add	sp, #12
     5b0:	f85d eb04 	ldr.w	lr, [sp], #4
/home/aom1/Work/Linux/target/STM32MP1-DK2/buildroot/buildroot/output/build/optee-os-custom/lib/libutee/tee_api.c:407
     5b4:	f009 bfa8 	b.w	a508 <malloc>
/home/aom1/Work/Linux/target/STM32MP1-DK2/buildroot/buildroot/output/build/optee-os-custom/lib/libutee/tee_api.c:409
     5b8:	9301      	str	r3, [sp, #4]
     5ba:	f240 1199 	movw	r1, #409	; 0x199
     5be:	4b07      	ldr	r3, [pc, #28]	; (5dc <TEE_Malloc+0x4a>)
     5c0:	4807      	ldr	r0, [pc, #28]	; (5e0 <TEE_Malloc+0x4e>)
     5c2:	447b      	add	r3, pc
     5c4:	9300      	str	r3, [sp, #0]
     5c6:	2301      	movs	r3, #1
     5c8:	4478      	add	r0, pc
     5ca:	461a      	mov	r2, r3
     5cc:	f000 fe86 	bl	12dc <trace_printf>
/home/aom1/Work/Linux/target/STM32MP1-DK2/buildroot/buildroot/output/build/optee-os-custom/lib/libutee/tee_api.c:411
     5d0:	2000      	movs	r0, #0
/home/aom1/Work/Linux/target/STM32MP1-DK2/buildroot/buildroot/output/build/optee-os-custom/lib/libutee/tee_api.c:412
     5d2:	b003      	add	sp, #12
     5d4:	f85d fb04 	ldr.w	pc, [sp], #4
/home/aom1/Work/Linux/target/STM32MP1-DK2/buildroot/buildroot/output/build/optee-os-custom/lib/libutee/tee_api.c:402
     5d8:	2001      	movs	r0, #1
     5da:	e7fa      	b.n	5d2 <TEE_Malloc+0x40>
     5dc:	0000ab13 	.word	0x0000ab13
     5e0:	0000ab1e 	.word	0x0000ab1e

000005e4 <TEE_Free>:
TEE_Free():
/home/aom1/Work/Linux/target/STM32MP1-DK2/buildroot/buildroot/output/build/optee-os-custom/lib/libutee/tee_api.c:429
     5e4:	2801      	cmp	r0, #1
     5e6:	d001      	beq.n	5ec <TEE_Free+0x8>
/home/aom1/Work/Linux/target/STM32MP1-DK2/buildroot/buildroot/output/build/optee-os-custom/lib/libutee/tee_api.c:430
     5e8:	f009 bfc6 	b.w	a578 <free>
/home/aom1/Work/Linux/target/STM32MP1-DK2/buildroot/buildroot/output/build/optee-os-custom/lib/libutee/tee_api.c:431
     5ec:	4770      	bx	lr

000005ee <TEE_Realloc>:
TEE_Realloc():
/home/aom1/Work/Linux/target/STM32MP1-DK2/buildroot/buildroot/output/build/optee-os-custom/lib/libutee/tee_api.c:415
     5ee:	b508      	push	{r3, lr}
/home/aom1/Work/Linux/target/STM32MP1-DK2/buildroot/buildroot/output/build/optee-os-custom/lib/libutee/tee_api.c:416
     5f0:	b149      	cbz	r1, 606 <TEE_Realloc+0x18>
/home/aom1/Work/Linux/target/STM32MP1-DK2/buildroot/buildroot/output/build/optee-os-custom/lib/libutee/tee_api.c:421
     5f2:	2801      	cmp	r0, #1
     5f4:	d103      	bne.n	5fe <TEE_Realloc+0x10>
/home/aom1/Work/Linux/target/STM32MP1-DK2/buildroot/buildroot/output/build/optee-os-custom/lib/libutee/tee_api.c:425
     5f6:	e8bd 4008 	ldmia.w	sp!, {r3, lr}
/home/aom1/Work/Linux/target/STM32MP1-DK2/buildroot/buildroot/output/build/optee-os-custom/lib/libutee/tee_api.c:422
     5fa:	f009 bf8f 	b.w	a51c <calloc>
/home/aom1/Work/Linux/target/STM32MP1-DK2/buildroot/buildroot/output/build/optee-os-custom/lib/libutee/tee_api.c:425
     5fe:	e8bd 4008 	ldmia.w	sp!, {r3, lr}
/home/aom1/Work/Linux/target/STM32MP1-DK2/buildroot/buildroot/output/build/optee-os-custom/lib/libutee/tee_api.c:424
     602:	f009 bf9b 	b.w	a53c <realloc>
/home/aom1/Work/Linux/target/STM32MP1-DK2/buildroot/buildroot/output/build/optee-os-custom/lib/libutee/tee_api.c:417
     606:	f7ff ffed 	bl	5e4 <TEE_Free>
/home/aom1/Work/Linux/target/STM32MP1-DK2/buildroot/buildroot/output/build/optee-os-custom/lib/libutee/tee_api.c:425
     60a:	2001      	movs	r0, #1
     60c:	bd08      	pop	{r3, pc}

0000060e <TEE_CacheClean>:
TEE_CacheClean():
/home/aom1/Work/Linux/target/STM32MP1-DK2/buildroot/buildroot/output/build/optee-os-custom/lib/libutee/tee_api.c:436
     60e:	2200      	movs	r2, #0
     610:	f00a b9aa 	b.w	a968 <___utee_cache_operation_from_thumb>

00000614 <TEE_CacheFlush>:
TEE_CacheFlush():
/home/aom1/Work/Linux/target/STM32MP1-DK2/buildroot/buildroot/output/build/optee-os-custom/lib/libutee/tee_api.c:440
     614:	2201      	movs	r2, #1
     616:	f00a b9a7 	b.w	a968 <___utee_cache_operation_from_thumb>

0000061a <TEE_CacheInvalidate>:
TEE_CacheInvalidate():
/home/aom1/Work/Linux/target/STM32MP1-DK2/buildroot/buildroot/output/build/optee-os-custom/lib/libutee/tee_api.c:445
     61a:	2202      	movs	r2, #2
     61c:	f00a b9a4 	b.w	a968 <___utee_cache_operation_from_thumb>

00000620 <remoteproc_find_firmware>:
remoteproc_find_firmware():
/home/aom1/Work/Linux/target/STM32MP1-DK2/buildroot/buildroot/output/build/optee-os-custom/ta/remoteproc/remoteproc_core.c:157
     620:	4a05      	ldr	r2, [pc, #20]	; (638 <remoteproc_find_firmware+0x18>)
/home/aom1/Work/Linux/target/STM32MP1-DK2/buildroot/buildroot/output/build/optee-os-custom/ta/remoteproc/remoteproc_core.c:154
     622:	4603      	mov	r3, r0
/home/aom1/Work/Linux/target/STM32MP1-DK2/buildroot/buildroot/output/build/optee-os-custom/ta/remoteproc/remoteproc_core.c:157
     624:	447a      	add	r2, pc
     626:	6810      	ldr	r0, [r2, #0]
/home/aom1/Work/Linux/target/STM32MP1-DK2/buildroot/buildroot/output/build/optee-os-custom/ta/remoteproc/remoteproc_core.c:157 (discriminator 1)
     628:	b900      	cbnz	r0, 62c <remoteproc_find_firmware+0xc>
/home/aom1/Work/Linux/target/STM32MP1-DK2/buildroot/buildroot/output/build/optee-os-custom/ta/remoteproc/remoteproc_core.c:163
     62a:	4770      	bx	lr
/home/aom1/Work/Linux/target/STM32MP1-DK2/buildroot/buildroot/output/build/optee-os-custom/ta/remoteproc/remoteproc_core.c:158
     62c:	6802      	ldr	r2, [r0, #0]
     62e:	429a      	cmp	r2, r3
     630:	d0fb      	beq.n	62a <remoteproc_find_firmware+0xa>
/home/aom1/Work/Linux/target/STM32MP1-DK2/buildroot/buildroot/output/build/optee-os-custom/ta/remoteproc/remoteproc_core.c:157 (discriminator 2)
     632:	6a40      	ldr	r0, [r0, #36]	; 0x24
     634:	e7f8      	b.n	628 <remoteproc_find_firmware+0x8>
     636:	bf00      	nop
     638:	0000bbcc 	.word	0x0000bbcc

0000063c <remoteproc_load_segment>:
remoteproc_load_segment():
/home/aom1/Work/Linux/target/STM32MP1-DK2/buildroot/buildroot/output/build/optee-os-custom/ta/remoteproc/remoteproc_core.c:500
     63c:	e92d 4ff0 	stmdb	sp!, {r4, r5, r6, r7, r8, r9, sl, fp, lr}
     640:	4616      	mov	r6, r2
     642:	4a4c      	ldr	r2, [pc, #304]	; (774 <remoteproc_load_segment+0x138>)
     644:	b08d      	sub	sp, #52	; 0x34
     646:	461d      	mov	r5, r3
/home/aom1/Work/Linux/target/STM32MP1-DK2/buildroot/buildroot/output/build/optee-os-custom/ta/remoteproc/remoteproc_core.c:506
     648:	f10d 090c 	add.w	r9, sp, #12
/home/aom1/Work/Linux/target/STM32MP1-DK2/buildroot/buildroot/output/build/optee-os-custom/ta/remoteproc/remoteproc_core.c:500
     64c:	447a      	add	r2, pc
     64e:	4682      	mov	sl, r0
     650:	4b49      	ldr	r3, [pc, #292]	; (778 <remoteproc_load_segment+0x13c>)
     652:	460f      	mov	r7, r1
     654:	f8dd b058 	ldr.w	fp, [sp, #88]	; 0x58
/home/aom1/Work/Linux/target/STM32MP1-DK2/buildroot/buildroot/output/build/optee-os-custom/ta/remoteproc/remoteproc_core.c:506
     658:	2100      	movs	r1, #0
/home/aom1/Work/Linux/target/STM32MP1-DK2/buildroot/buildroot/output/build/optee-os-custom/ta/remoteproc/remoteproc_core.c:500
     65a:	58d3      	ldr	r3, [r2, r3]
/home/aom1/Work/Linux/target/STM32MP1-DK2/buildroot/buildroot/output/build/optee-os-custom/ta/remoteproc/remoteproc_core.c:506
     65c:	4648      	mov	r0, r9
     65e:	2220      	movs	r2, #32
/home/aom1/Work/Linux/target/STM32MP1-DK2/buildroot/buildroot/output/build/optee-os-custom/ta/remoteproc/remoteproc_core.c:500
     660:	681b      	ldr	r3, [r3, #0]
     662:	930b      	str	r3, [sp, #44]	; 0x2c
     664:	f04f 0300 	mov.w	r3, #0
/home/aom1/Work/Linux/target/STM32MP1-DK2/buildroot/buildroot/output/build/optee-os-custom/ta/remoteproc/remoteproc_core.c:506
     668:	f00a f906 	bl	a878 <memset>
get_segment_hash():
/home/aom1/Work/Linux/target/STM32MP1-DK2/buildroot/buildroot/output/build/optee-os-custom/ta/remoteproc/remoteproc_core.c:464
     66c:	f8db 3004 	ldr.w	r3, [fp, #4]
/home/aom1/Work/Linux/target/STM32MP1-DK2/buildroot/buildroot/output/build/optee-os-custom/ta/remoteproc/remoteproc_core.c:469
     670:	69dc      	ldr	r4, [r3, #28]
     672:	441c      	add	r4, r3
/home/aom1/Work/Linux/target/STM32MP1-DK2/buildroot/buildroot/output/build/optee-os-custom/ta/remoteproc/remoteproc_core.c:467
     674:	699b      	ldr	r3, [r3, #24]
     676:	f023 033f 	bic.w	r3, r3, #63	; 0x3f
     67a:	4423      	add	r3, r4
/home/aom1/Work/Linux/target/STM32MP1-DK2/buildroot/buildroot/output/build/optee-os-custom/ta/remoteproc/remoteproc_core.c:471
     67c:	429c      	cmp	r4, r3
     67e:	d10c      	bne.n	69a <remoteproc_load_segment+0x5e>
     680:	4c3a      	ldr	r4, [pc, #232]	; (76c <remoteproc_load_segment+0x130>)
remoteproc_load_segment():
/home/aom1/Work/Linux/target/STM32MP1-DK2/buildroot/buildroot/output/build/optee-os-custom/ta/remoteproc/remoteproc_core.c:500
     682:	4a3e      	ldr	r2, [pc, #248]	; (77c <remoteproc_load_segment+0x140>)
/home/aom1/Work/Linux/target/STM32MP1-DK2/buildroot/buildroot/output/build/optee-os-custom/ta/remoteproc/remoteproc_core.c:555
     684:	4b3c      	ldr	r3, [pc, #240]	; (778 <remoteproc_load_segment+0x13c>)
/home/aom1/Work/Linux/target/STM32MP1-DK2/buildroot/buildroot/output/build/optee-os-custom/ta/remoteproc/remoteproc_core.c:500
     686:	447a      	add	r2, pc
/home/aom1/Work/Linux/target/STM32MP1-DK2/buildroot/buildroot/output/build/optee-os-custom/ta/remoteproc/remoteproc_core.c:555
     688:	58d3      	ldr	r3, [r2, r3]
     68a:	681a      	ldr	r2, [r3, #0]
     68c:	9b0b      	ldr	r3, [sp, #44]	; 0x2c
     68e:	405a      	eors	r2, r3
     690:	f04f 0300 	mov.w	r3, #0
     694:	d065      	beq.n	762 <remoteproc_load_segment+0x126>
     696:	f00a f8ee 	bl	a876 <__stack_chk_fail>
get_segment_hash():
/home/aom1/Work/Linux/target/STM32MP1-DK2/buildroot/buildroot/output/build/optee-os-custom/ta/remoteproc/remoteproc_core.c:472
     69a:	68e2      	ldr	r2, [r4, #12]
     69c:	4296      	cmp	r6, r2
     69e:	d001      	beq.n	6a4 <remoteproc_load_segment+0x68>
/home/aom1/Work/Linux/target/STM32MP1-DK2/buildroot/buildroot/output/build/optee-os-custom/ta/remoteproc/remoteproc_core.c:471
     6a0:	3440      	adds	r4, #64	; 0x40
     6a2:	e7eb      	b.n	67c <remoteproc_load_segment+0x40>
/home/aom1/Work/Linux/target/STM32MP1-DK2/buildroot/buildroot/output/build/optee-os-custom/ta/remoteproc/remoteproc_core.c:480
     6a4:	f8d4 8000 	ldr.w	r8, [r4]
     6a8:	f1b8 0f01 	cmp.w	r8, #1
     6ac:	d157      	bne.n	75e <remoteproc_load_segment+0x122>
/home/aom1/Work/Linux/target/STM32MP1-DK2/buildroot/buildroot/output/build/optee-os-custom/ta/remoteproc/remoteproc_core.c:483
     6ae:	6923      	ldr	r3, [r4, #16]
     6b0:	429f      	cmp	r7, r3
     6b2:	d154      	bne.n	75e <remoteproc_load_segment+0x122>
     6b4:	6963      	ldr	r3, [r4, #20]
     6b6:	429d      	cmp	r5, r3
     6b8:	d151      	bne.n	75e <remoteproc_load_segment+0x122>
/home/aom1/Work/Linux/target/STM32MP1-DK2/buildroot/buildroot/output/build/optee-os-custom/ta/remoteproc/remoteproc_core.c:486
     6ba:	f8db 3008 	ldr.w	r3, [fp, #8]
     6be:	6862      	ldr	r2, [r4, #4]
     6c0:	ebaa 0303 	sub.w	r3, sl, r3
     6c4:	4293      	cmp	r3, r2
     6c6:	d14a      	bne.n	75e <remoteproc_load_segment+0x122>
remoteproc_load_segment():
/home/aom1/Work/Linux/target/STM32MP1-DK2/buildroot/buildroot/output/build/optee-os-custom/ta/remoteproc/remoteproc_core.c:522
     6c8:	f8db 3000 	ldr.w	r3, [fp]
get_segment_hash():
/home/aom1/Work/Linux/target/STM32MP1-DK2/buildroot/buildroot/output/build/optee-os-custom/ta/remoteproc/remoteproc_core.c:489
     6cc:	3420      	adds	r4, #32
remoteproc_load_segment():
/home/aom1/Work/Linux/target/STM32MP1-DK2/buildroot/buildroot/output/build/optee-os-custom/ta/remoteproc/remoteproc_core.c:523
     6ce:	f8cd a014 	str.w	sl, [sp, #20]
/home/aom1/Work/Linux/target/STM32MP1-DK2/buildroot/buildroot/output/build/optee-os-custom/ta/remoteproc/remoteproc_core.c:529
     6d2:	2203      	movs	r2, #3
     6d4:	f8df a0a8 	ldr.w	sl, [pc, #168]	; 780 <remoteproc_load_segment+0x144>
     6d8:	f04f 31ff 	mov.w	r1, #4294967295	; 0xffffffff
/home/aom1/Work/Linux/target/STM32MP1-DK2/buildroot/buildroot/output/build/optee-os-custom/ta/remoteproc/remoteproc_core.c:522
     6dc:	9303      	str	r3, [sp, #12]
/home/aom1/Work/Linux/target/STM32MP1-DK2/buildroot/buildroot/output/build/optee-os-custom/ta/remoteproc/remoteproc_core.c:527
     6de:	2320      	movs	r3, #32
/home/aom1/Work/Linux/target/STM32MP1-DK2/buildroot/buildroot/output/build/optee-os-custom/ta/remoteproc/remoteproc_core.c:529
     6e0:	44fa      	add	sl, pc
/home/aom1/Work/Linux/target/STM32MP1-DK2/buildroot/buildroot/output/build/optee-os-custom/ta/remoteproc/remoteproc_core.c:527
     6e2:	930a      	str	r3, [sp, #40]	; 0x28
/home/aom1/Work/Linux/target/STM32MP1-DK2/buildroot/buildroot/output/build/optee-os-custom/ta/remoteproc/remoteproc_core.c:529
     6e4:	2300      	movs	r3, #0
     6e6:	9301      	str	r3, [sp, #4]
     6e8:	f245 1351 	movw	r3, #20817	; 0x5151
     6ec:	f8cd 9000 	str.w	r9, [sp]
     6f0:	f8da 0000 	ldr.w	r0, [sl]
/home/aom1/Work/Linux/target/STM32MP1-DK2/buildroot/buildroot/output/build/optee-os-custom/ta/remoteproc/remoteproc_core.c:526
     6f4:	9409      	str	r4, [sp, #36]	; 0x24
/home/aom1/Work/Linux/target/STM32MP1-DK2/buildroot/buildroot/output/build/optee-os-custom/ta/remoteproc/remoteproc_core.c:524
     6f6:	9706      	str	r7, [sp, #24]
/home/aom1/Work/Linux/target/STM32MP1-DK2/buildroot/buildroot/output/build/optee-os-custom/ta/remoteproc/remoteproc_core.c:525
     6f8:	9607      	str	r6, [sp, #28]
/home/aom1/Work/Linux/target/STM32MP1-DK2/buildroot/buildroot/output/build/optee-os-custom/ta/remoteproc/remoteproc_core.c:529
     6fa:	f7ff fe6f 	bl	3dc <TEE_InvokeTACommand>
/home/aom1/Work/Linux/target/STM32MP1-DK2/buildroot/buildroot/output/build/optee-os-custom/ta/remoteproc/remoteproc_core.c:532
     6fe:	4604      	mov	r4, r0
     700:	b160      	cbz	r0, 71c <remoteproc_load_segment+0xe0>
/home/aom1/Work/Linux/target/STM32MP1-DK2/buildroot/buildroot/output/build/optee-os-custom/ta/remoteproc/remoteproc_core.c:533
     702:	4b20      	ldr	r3, [pc, #128]	; (784 <remoteproc_load_segment+0x148>)
     704:	4642      	mov	r2, r8
     706:	9001      	str	r0, [sp, #4]
     708:	f240 2115 	movw	r1, #533	; 0x215
     70c:	481e      	ldr	r0, [pc, #120]	; (788 <remoteproc_load_segment+0x14c>)
     70e:	447b      	add	r3, pc
     710:	9300      	str	r3, [sp, #0]
     712:	4643      	mov	r3, r8
     714:	4478      	add	r0, pc
/home/aom1/Work/Linux/target/STM32MP1-DK2/buildroot/buildroot/output/build/optee-os-custom/ta/remoteproc/remoteproc_core.c:551
     716:	f000 fde1 	bl	12dc <trace_printf>
     71a:	e7b2      	b.n	682 <remoteproc_load_segment+0x46>
/home/aom1/Work/Linux/target/STM32MP1-DK2/buildroot/buildroot/output/build/optee-os-custom/ta/remoteproc/remoteproc_core.c:538
     71c:	42af      	cmp	r7, r5
     71e:	d2b0      	bcs.n	682 <remoteproc_load_segment+0x46>
/home/aom1/Work/Linux/target/STM32MP1-DK2/buildroot/buildroot/output/build/optee-os-custom/ta/remoteproc/remoteproc_core.c:545
     720:	9009      	str	r0, [sp, #36]	; 0x24
/home/aom1/Work/Linux/target/STM32MP1-DK2/buildroot/buildroot/output/build/optee-os-custom/ta/remoteproc/remoteproc_core.c:547
     722:	f241 1311 	movw	r3, #4369	; 0x1111
     726:	9001      	str	r0, [sp, #4]
     728:	2204      	movs	r2, #4
     72a:	f8cd 9000 	str.w	r9, [sp]
     72e:	f04f 31ff 	mov.w	r1, #4294967295	; 0xffffffff
/home/aom1/Work/Linux/target/STM32MP1-DK2/buildroot/buildroot/output/build/optee-os-custom/ta/remoteproc/remoteproc_core.c:543
     732:	443e      	add	r6, r7
/home/aom1/Work/Linux/target/STM32MP1-DK2/buildroot/buildroot/output/build/optee-os-custom/ta/remoteproc/remoteproc_core.c:544
     734:	1bed      	subs	r5, r5, r7
/home/aom1/Work/Linux/target/STM32MP1-DK2/buildroot/buildroot/output/build/optee-os-custom/ta/remoteproc/remoteproc_core.c:547
     736:	f8da 0000 	ldr.w	r0, [sl]
/home/aom1/Work/Linux/target/STM32MP1-DK2/buildroot/buildroot/output/build/optee-os-custom/ta/remoteproc/remoteproc_core.c:543
     73a:	9605      	str	r6, [sp, #20]
/home/aom1/Work/Linux/target/STM32MP1-DK2/buildroot/buildroot/output/build/optee-os-custom/ta/remoteproc/remoteproc_core.c:544
     73c:	9507      	str	r5, [sp, #28]
/home/aom1/Work/Linux/target/STM32MP1-DK2/buildroot/buildroot/output/build/optee-os-custom/ta/remoteproc/remoteproc_core.c:547
     73e:	f7ff fe4d 	bl	3dc <TEE_InvokeTACommand>
/home/aom1/Work/Linux/target/STM32MP1-DK2/buildroot/buildroot/output/build/optee-os-custom/ta/remoteproc/remoteproc_core.c:550
     742:	4604      	mov	r4, r0
     744:	2800      	cmp	r0, #0
     746:	d09c      	beq.n	682 <remoteproc_load_segment+0x46>
/home/aom1/Work/Linux/target/STM32MP1-DK2/buildroot/buildroot/output/build/optee-os-custom/ta/remoteproc/remoteproc_core.c:551
     748:	4b10      	ldr	r3, [pc, #64]	; (78c <remoteproc_load_segment+0x150>)
     74a:	4642      	mov	r2, r8
     74c:	9001      	str	r0, [sp, #4]
     74e:	f240 2127 	movw	r1, #551	; 0x227
     752:	480f      	ldr	r0, [pc, #60]	; (790 <remoteproc_load_segment+0x154>)
     754:	447b      	add	r3, pc
     756:	9300      	str	r3, [sp, #0]
     758:	4643      	mov	r3, r8
     75a:	4478      	add	r0, pc
     75c:	e7db      	b.n	716 <remoteproc_load_segment+0xda>
get_segment_hash():
/home/aom1/Work/Linux/target/STM32MP1-DK2/buildroot/buildroot/output/build/optee-os-custom/ta/remoteproc/remoteproc_core.c:481
     75e:	4c04      	ldr	r4, [pc, #16]	; (770 <remoteproc_load_segment+0x134>)
     760:	e78f      	b.n	682 <remoteproc_load_segment+0x46>
remoteproc_load_segment():
/home/aom1/Work/Linux/target/STM32MP1-DK2/buildroot/buildroot/output/build/optee-os-custom/ta/remoteproc/remoteproc_core.c:555
     762:	4620      	mov	r0, r4
     764:	b00d      	add	sp, #52	; 0x34
     766:	e8bd 8ff0 	ldmia.w	sp!, {r4, r5, r6, r7, r8, r9, sl, fp, pc}
     76a:	bf00      	nop
     76c:	ffff000b 	.word	0xffff000b
     770:	f0100001 	.word	0xf0100001
     774:	0000ba38 	.word	0x0000ba38
     778:	0000000c 	.word	0x0000000c
     77c:	0000b9fe 	.word	0x0000b9fe
     780:	0000bbe4 	.word	0x0000bbe4
     784:	0000a636 	.word	0x0000a636
     788:	0000a270 	.word	0x0000a270
     78c:	0000a612 	.word	0x0000a612
     790:	0000a22a 	.word	0x0000a22a

00000794 <TA_CreateEntryPoint>:
TA_CreateEntryPoint():
/home/aom1/Work/Linux/target/STM32MP1-DK2/buildroot/buildroot/output/build/optee-os-custom/ta/remoteproc/remoteproc_core.c:730
     794:	2000      	movs	r0, #0
     796:	4770      	bx	lr

00000798 <TA_DestroyEntryPoint>:
TA_DestroyEntryPoint():
/home/aom1/Work/Linux/target/STM32MP1-DK2/buildroot/buildroot/output/build/optee-os-custom/ta/remoteproc/remoteproc_core.c:734
     798:	4770      	bx	lr

0000079a <TA_OpenSessionEntryPoint>:
TA_OpenSessionEntryPoint():
/home/aom1/Work/Linux/target/STM32MP1-DK2/buildroot/buildroot/output/build/optee-os-custom/ta/remoteproc/remoteproc_core.c:739
     79a:	b507      	push	{r0, r1, r2, lr}
/home/aom1/Work/Linux/target/STM32MP1-DK2/buildroot/buildroot/output/build/optee-os-custom/ta/remoteproc/remoteproc_core.c:743
     79c:	4a0c      	ldr	r2, [pc, #48]	; (7d0 <TA_OpenSessionEntryPoint+0x36>)
     79e:	447a      	add	r2, pc
     7a0:	6853      	ldr	r3, [r2, #4]
     7a2:	b143      	cbz	r3, 7b6 <TA_OpenSessionEntryPoint+0x1c>
/home/aom1/Work/Linux/target/STM32MP1-DK2/buildroot/buildroot/output/build/optee-os-custom/ta/remoteproc/remoteproc_core.c:750
     7a4:	4a0b      	ldr	r2, [pc, #44]	; (7d4 <TA_OpenSessionEntryPoint+0x3a>)
/home/aom1/Work/Linux/target/STM32MP1-DK2/buildroot/buildroot/output/build/optee-os-custom/ta/remoteproc/remoteproc_core.c:752
     7a6:	2000      	movs	r0, #0
/home/aom1/Work/Linux/target/STM32MP1-DK2/buildroot/buildroot/output/build/optee-os-custom/ta/remoteproc/remoteproc_core.c:750
     7a8:	447a      	add	r2, pc
     7aa:	6853      	ldr	r3, [r2, #4]
     7ac:	3301      	adds	r3, #1
     7ae:	6053      	str	r3, [r2, #4]
/home/aom1/Work/Linux/target/STM32MP1-DK2/buildroot/buildroot/output/build/optee-os-custom/ta/remoteproc/remoteproc_core.c:753
     7b0:	b003      	add	sp, #12
     7b2:	f85d fb04 	ldr.w	pc, [sp], #4
/home/aom1/Work/Linux/target/STM32MP1-DK2/buildroot/buildroot/output/build/optee-os-custom/ta/remoteproc/remoteproc_core.c:744
     7b6:	4808      	ldr	r0, [pc, #32]	; (7d8 <TA_OpenSessionEntryPoint+0x3e>)
     7b8:	f04f 31ff 	mov.w	r1, #4294967295	; 0xffffffff
     7bc:	e9cd 2300 	strd	r2, r3, [sp]
     7c0:	4478      	add	r0, pc
     7c2:	461a      	mov	r2, r3
     7c4:	3018      	adds	r0, #24
     7c6:	f7ff fda7 	bl	318 <TEE_OpenTASession>
/home/aom1/Work/Linux/target/STM32MP1-DK2/buildroot/buildroot/output/build/optee-os-custom/ta/remoteproc/remoteproc_core.c:746
     7ca:	2800      	cmp	r0, #0
     7cc:	d0ea      	beq.n	7a4 <TA_OpenSessionEntryPoint+0xa>
     7ce:	e7ef      	b.n	7b0 <TA_OpenSessionEntryPoint+0x16>
     7d0:	0000bb26 	.word	0x0000bb26
     7d4:	0000bb1c 	.word	0x0000bb1c
     7d8:	0000a1c4 	.word	0x0000a1c4

000007dc <TA_CloseSessionEntryPoint>:
TA_CloseSessionEntryPoint():
/home/aom1/Work/Linux/target/STM32MP1-DK2/buildroot/buildroot/output/build/optee-os-custom/ta/remoteproc/remoteproc_core.c:757
     7dc:	4a04      	ldr	r2, [pc, #16]	; (7f0 <TA_CloseSessionEntryPoint+0x14>)
     7de:	447a      	add	r2, pc
     7e0:	6853      	ldr	r3, [r2, #4]
     7e2:	3b01      	subs	r3, #1
     7e4:	6053      	str	r3, [r2, #4]
/home/aom1/Work/Linux/target/STM32MP1-DK2/buildroot/buildroot/output/build/optee-os-custom/ta/remoteproc/remoteproc_core.c:759
     7e6:	b913      	cbnz	r3, 7ee <TA_CloseSessionEntryPoint+0x12>
/home/aom1/Work/Linux/target/STM32MP1-DK2/buildroot/buildroot/output/build/optee-os-custom/ta/remoteproc/remoteproc_core.c:760
     7e8:	6810      	ldr	r0, [r2, #0]
     7ea:	f7ff bc4c 	b.w	86 <TEE_CloseTASession>
/home/aom1/Work/Linux/target/STM32MP1-DK2/buildroot/buildroot/output/build/optee-os-custom/ta/remoteproc/remoteproc_core.c:761
     7ee:	4770      	bx	lr
     7f0:	0000bae6 	.word	0x0000bae6

000007f4 <TA_InvokeCommandEntryPoint>:
TA_InvokeCommandEntryPoint():
/home/aom1/Work/Linux/target/STM32MP1-DK2/buildroot/buildroot/output/build/optee-os-custom/ta/remoteproc/remoteproc_core.c:766
     7f4:	e92d 4ff0 	stmdb	sp!, {r4, r5, r6, r7, r8, r9, sl, fp, lr}
     7f8:	4615      	mov	r5, r2
     7fa:	4abf      	ldr	r2, [pc, #764]	; (af8 <TA_InvokeCommandEntryPoint+0x304>)
     7fc:	461e      	mov	r6, r3
     7fe:	4bbf      	ldr	r3, [pc, #764]	; (afc <TA_InvokeCommandEntryPoint+0x308>)
/home/aom1/Work/Linux/target/STM32MP1-DK2/buildroot/buildroot/output/build/optee-os-custom/ta/remoteproc/remoteproc_core.c:767
     800:	3901      	subs	r1, #1
/home/aom1/Work/Linux/target/STM32MP1-DK2/buildroot/buildroot/output/build/optee-os-custom/ta/remoteproc/remoteproc_core.c:766
     802:	447a      	add	r2, pc
     804:	ed2d 8b02 	vpush	{d8}
     808:	58d3      	ldr	r3, [r2, r3]
     80a:	b091      	sub	sp, #68	; 0x44
     80c:	681b      	ldr	r3, [r3, #0]
     80e:	930f      	str	r3, [sp, #60]	; 0x3c
     810:	f04f 0300 	mov.w	r3, #0
/home/aom1/Work/Linux/target/STM32MP1-DK2/buildroot/buildroot/output/build/optee-os-custom/ta/remoteproc/remoteproc_core.c:767
     814:	2904      	cmp	r1, #4
     816:	d808      	bhi.n	82a <TA_InvokeCommandEntryPoint+0x36>
     818:	e8df f011 	tbh	[pc, r1, lsl #1]
     81c:	01f00005 	.word	0x01f00005
     820:	02370215 	.word	0x02370215
     824:	024e      	.short	0x024e
remoteproc_load_fw():
/home/aom1/Work/Linux/target/STM32MP1-DK2/buildroot/buildroot/output/build/optee-os-custom/ta/remoteproc/remoteproc_core.c:582
     826:	2d51      	cmp	r5, #81	; 0x51
     828:	d00d      	beq.n	846 <TA_InvokeCommandEntryPoint+0x52>
/home/aom1/Work/Linux/target/STM32MP1-DK2/buildroot/buildroot/output/build/optee-os-custom/ta/remoteproc/remoteproc_core.c:583
     82a:	4cad      	ldr	r4, [pc, #692]	; (ae0 <TA_InvokeCommandEntryPoint+0x2ec>)
TA_InvokeCommandEntryPoint():
/home/aom1/Work/Linux/target/STM32MP1-DK2/buildroot/buildroot/output/build/optee-os-custom/ta/remoteproc/remoteproc_core.c:766
     82c:	4ab4      	ldr	r2, [pc, #720]	; (b00 <TA_InvokeCommandEntryPoint+0x30c>)
/home/aom1/Work/Linux/target/STM32MP1-DK2/buildroot/buildroot/output/build/optee-os-custom/ta/remoteproc/remoteproc_core.c:781
     82e:	4bb3      	ldr	r3, [pc, #716]	; (afc <TA_InvokeCommandEntryPoint+0x308>)
/home/aom1/Work/Linux/target/STM32MP1-DK2/buildroot/buildroot/output/build/optee-os-custom/ta/remoteproc/remoteproc_core.c:766
     830:	447a      	add	r2, pc
/home/aom1/Work/Linux/target/STM32MP1-DK2/buildroot/buildroot/output/build/optee-os-custom/ta/remoteproc/remoteproc_core.c:781
     832:	58d3      	ldr	r3, [r2, r3]
     834:	681a      	ldr	r2, [r3, #0]
     836:	9b0f      	ldr	r3, [sp, #60]	; 0x3c
     838:	405a      	eors	r2, r3
     83a:	f04f 0300 	mov.w	r3, #0
     83e:	f000 823f 	beq.w	cc0 <TA_InvokeCommandEntryPoint+0x4cc>
     842:	f00a f818 	bl	a876 <__stack_chk_fail>
remoteproc_load_fw():
/home/aom1/Work/Linux/target/STM32MP1-DK2/buildroot/buildroot/output/build/optee-os-custom/ta/remoteproc/remoteproc_core.c:579
     846:	6834      	ldr	r4, [r6, #0]
/home/aom1/Work/Linux/target/STM32MP1-DK2/buildroot/buildroot/output/build/optee-os-custom/ta/remoteproc/remoteproc_core.c:585
     848:	4620      	mov	r0, r4
     84a:	f7ff fee9 	bl	620 <remoteproc_find_firmware>
/home/aom1/Work/Linux/target/STM32MP1-DK2/buildroot/buildroot/output/build/optee-os-custom/ta/remoteproc/remoteproc_core.c:586
     84e:	4605      	mov	r5, r0
     850:	b990      	cbnz	r0, 878 <TA_InvokeCommandEntryPoint+0x84>
remoteproc_add_firmware():
/home/aom1/Work/Linux/target/STM32MP1-DK2/buildroot/buildroot/output/build/optee-os-custom/ta/remoteproc/remoteproc_core.c:169
     852:	4601      	mov	r1, r0
     854:	202c      	movs	r0, #44	; 0x2c
     856:	f7ff fe9c 	bl	592 <TEE_Malloc>
/home/aom1/Work/Linux/target/STM32MP1-DK2/buildroot/buildroot/output/build/optee-os-custom/ta/remoteproc/remoteproc_core.c:170
     85a:	4605      	mov	r5, r0
     85c:	2800      	cmp	r0, #0
     85e:	f000 822d 	beq.w	cbc <TA_InvokeCommandEntryPoint+0x4c8>
/home/aom1/Work/Linux/target/STM32MP1-DK2/buildroot/buildroot/output/build/optee-os-custom/ta/remoteproc/remoteproc_core.c:173
     862:	6004      	str	r4, [r0, #0]
/home/aom1/Work/Linux/target/STM32MP1-DK2/buildroot/buildroot/output/build/optee-os-custom/ta/remoteproc/remoteproc_core.c:175
     864:	2300      	movs	r3, #0
     866:	6243      	str	r3, [r0, #36]	; 0x24
     868:	4ba6      	ldr	r3, [pc, #664]	; (b04 <TA_InvokeCommandEntryPoint+0x310>)
     86a:	447b      	add	r3, pc
     86c:	685a      	ldr	r2, [r3, #4]
     86e:	6282      	str	r2, [r0, #40]	; 0x28
     870:	6010      	str	r0, [r2, #0]
     872:	f100 0224 	add.w	r2, r0, #36	; 0x24
     876:	605a      	str	r2, [r3, #4]
remoteproc_load_fw():
/home/aom1/Work/Linux/target/STM32MP1-DK2/buildroot/buildroot/output/build/optee-os-custom/ta/remoteproc/remoteproc_core.c:591
     878:	69ac      	ldr	r4, [r5, #24]
     87a:	2c00      	cmp	r4, #0
     87c:	f040 8212 	bne.w	ca4 <TA_InvokeCommandEntryPoint+0x4b0>
/home/aom1/Work/Linux/target/STM32MP1-DK2/buildroot/buildroot/output/build/optee-os-custom/ta/remoteproc/remoteproc_core.c:594
     880:	f8d6 8008 	ldr.w	r8, [r6, #8]
     884:	f1b8 0f00 	cmp.w	r8, #0
     888:	d0cf      	beq.n	82a <TA_InvokeCommandEntryPoint+0x36>
     88a:	68f6      	ldr	r6, [r6, #12]
     88c:	2e00      	cmp	r6, #0
     88e:	d0cc      	beq.n	82a <TA_InvokeCommandEntryPoint+0x36>
get_rproc_pta_capabilities():
/home/aom1/Work/Linux/target/STM32MP1-DK2/buildroot/buildroot/output/build/optee-os-custom/ta/remoteproc/remoteproc_core.c:347
     890:	ab08      	add	r3, sp, #32
     892:	4621      	mov	r1, r4
     894:	221c      	movs	r2, #28
     896:	4618      	mov	r0, r3
     898:	ee08 3a10 	vmov	s16, r3
/home/aom1/Work/Linux/target/STM32MP1-DK2/buildroot/buildroot/output/build/optee-os-custom/ta/remoteproc/remoteproc_core.c:352
     89c:	f10d 0b1c 	add.w	fp, sp, #28
/home/aom1/Work/Linux/target/STM32MP1-DK2/buildroot/buildroot/output/build/optee-os-custom/ta/remoteproc/remoteproc_core.c:347
     8a0:	f009 ffea 	bl	a878 <memset>
/home/aom1/Work/Linux/target/STM32MP1-DK2/buildroot/buildroot/output/build/optee-os-custom/ta/remoteproc/remoteproc_core.c:352
     8a4:	4898      	ldr	r0, [pc, #608]	; (b08 <TA_InvokeCommandEntryPoint+0x314>)
     8a6:	2201      	movs	r2, #1
/home/aom1/Work/Linux/target/STM32MP1-DK2/buildroot/buildroot/output/build/optee-os-custom/ta/remoteproc/remoteproc_core.c:350
     8a8:	682b      	ldr	r3, [r5, #0]
/home/aom1/Work/Linux/target/STM32MP1-DK2/buildroot/buildroot/output/build/optee-os-custom/ta/remoteproc/remoteproc_core.c:352
     8aa:	f04f 31ff 	mov.w	r1, #4294967295	; 0xffffffff
     8ae:	4478      	add	r0, pc
     8b0:	9401      	str	r4, [sp, #4]
/home/aom1/Work/Linux/target/STM32MP1-DK2/buildroot/buildroot/output/build/optee-os-custom/ta/remoteproc/remoteproc_core.c:350
     8b2:	9307      	str	r3, [sp, #28]
/home/aom1/Work/Linux/target/STM32MP1-DK2/buildroot/buildroot/output/build/optee-os-custom/ta/remoteproc/remoteproc_core.c:352
     8b4:	f240 2321 	movw	r3, #545	; 0x221
     8b8:	f8cd b000 	str.w	fp, [sp]
     8bc:	6800      	ldr	r0, [r0, #0]
     8be:	f7ff fd8d 	bl	3dc <TEE_InvokeTACommand>
/home/aom1/Work/Linux/target/STM32MP1-DK2/buildroot/buildroot/output/build/optee-os-custom/ta/remoteproc/remoteproc_core.c:355
     8c2:	4604      	mov	r4, r0
     8c4:	2800      	cmp	r0, #0
     8c6:	d17c      	bne.n	9c2 <TA_InvokeCommandEntryPoint+0x1ce>
/home/aom1/Work/Linux/target/STM32MP1-DK2/buildroot/buildroot/output/build/optee-os-custom/ta/remoteproc/remoteproc_core.c:359
     8c8:	9a0b      	ldr	r2, [sp, #44]	; 0x2c
/home/aom1/Work/Linux/target/STM32MP1-DK2/buildroot/buildroot/output/build/optee-os-custom/ta/remoteproc/remoteproc_core.c:358
     8ca:	9b09      	ldr	r3, [sp, #36]	; 0x24
/home/aom1/Work/Linux/target/STM32MP1-DK2/buildroot/buildroot/output/build/optee-os-custom/ta/remoteproc/remoteproc_core.c:359
     8cc:	622a      	str	r2, [r5, #32]
remoteproc_verify_firmware():
/home/aom1/Work/Linux/target/STM32MP1-DK2/buildroot/buildroot/output/build/optee-os-custom/ta/remoteproc/remoteproc_core.c:376
     8ce:	0792      	lsls	r2, r2, #30
get_rproc_pta_capabilities():
/home/aom1/Work/Linux/target/STM32MP1-DK2/buildroot/buildroot/output/build/optee-os-custom/ta/remoteproc/remoteproc_core.c:358
     8d0:	61eb      	str	r3, [r5, #28]
remoteproc_verify_firmware():
/home/aom1/Work/Linux/target/STM32MP1-DK2/buildroot/buildroot/output/build/optee-os-custom/ta/remoteproc/remoteproc_core.c:376
     8d2:	f140 812b 	bpl.w	b2c <TA_InvokeCommandEntryPoint+0x338>
     8d6:	2b02      	cmp	r3, #2
     8d8:	f040 8128 	bne.w	b2c <TA_InvokeCommandEntryPoint+0x338>
remoteproc_save_fw_header():
/home/aom1/Work/Linux/target/STM32MP1-DK2/buildroot/buildroot/output/build/optee-os-custom/ta/remoteproc/remoteproc_core.c:240
     8dc:	2e38      	cmp	r6, #56	; 0x38
     8de:	f240 8127 	bls.w	b30 <TA_InvokeCommandEntryPoint+0x33c>
     8e2:	f8d8 0008 	ldr.w	r0, [r8, #8]
     8e6:	4286      	cmp	r6, r0
     8e8:	f240 8122 	bls.w	b30 <TA_InvokeCommandEntryPoint+0x33c>
/home/aom1/Work/Linux/target/STM32MP1-DK2/buildroot/buildroot/output/build/optee-os-custom/ta/remoteproc/remoteproc_core.c:243
     8ec:	4621      	mov	r1, r4
     8ee:	f7ff fe50 	bl	592 <TEE_Malloc>
     8f2:	6068      	str	r0, [r5, #4]
/home/aom1/Work/Linux/target/STM32MP1-DK2/buildroot/buildroot/output/build/optee-os-custom/ta/remoteproc/remoteproc_core.c:244
     8f4:	2800      	cmp	r0, #0
     8f6:	f000 811d 	beq.w	b34 <TA_InvokeCommandEntryPoint+0x340>
/home/aom1/Work/Linux/target/STM32MP1-DK2/buildroot/buildroot/output/build/optee-os-custom/ta/remoteproc/remoteproc_core.c:247
     8fa:	f8d8 2008 	ldr.w	r2, [r8, #8]
     8fe:	4641      	mov	r1, r8
     900:	f000 fbaa 	bl	1058 <memcpy>
remoteproc_verify_header():
/home/aom1/Work/Linux/target/STM32MP1-DK2/buildroot/buildroot/output/build/optee-os-custom/ta/remoteproc/remoteproc_core.c:300
     904:	686f      	ldr	r7, [r5, #4]
/home/aom1/Work/Linux/target/STM32MP1-DK2/buildroot/buildroot/output/build/optee-os-custom/ta/remoteproc/remoteproc_core.c:305
     906:	4b77      	ldr	r3, [pc, #476]	; (ae4 <TA_InvokeCommandEntryPoint+0x2f0>)
     908:	683a      	ldr	r2, [r7, #0]
     90a:	429a      	cmp	r2, r3
     90c:	d109      	bne.n	922 <TA_InvokeCommandEntryPoint+0x12e>
/home/aom1/Work/Linux/target/STM32MP1-DK2/buildroot/buildroot/output/build/optee-os-custom/ta/remoteproc/remoteproc_core.c:308
     90e:	687b      	ldr	r3, [r7, #4]
     910:	2b01      	cmp	r3, #1
     912:	d106      	bne.n	922 <TA_InvokeCommandEntryPoint+0x12e>
/home/aom1/Work/Linux/target/STM32MP1-DK2/buildroot/buildroot/output/build/optee-os-custom/ta/remoteproc/remoteproc_core.c:316
     914:	68fc      	ldr	r4, [r7, #12]
/home/aom1/Work/Linux/target/STM32MP1-DK2/buildroot/buildroot/output/build/optee-os-custom/ta/remoteproc/remoteproc_core.c:320
     916:	f114 0338 	adds.w	r3, r4, #56	; 0x38
     91a:	d202      	bcs.n	922 <TA_InvokeCommandEntryPoint+0x12e>
/home/aom1/Work/Linux/target/STM32MP1-DK2/buildroot/buildroot/output/build/optee-os-custom/ta/remoteproc/remoteproc_core.c:317
     91c:	69be      	ldr	r6, [r7, #24]
/home/aom1/Work/Linux/target/STM32MP1-DK2/buildroot/buildroot/output/build/optee-os-custom/ta/remoteproc/remoteproc_core.c:321
     91e:	199b      	adds	r3, r3, r6
     920:	d301      	bcc.n	926 <TA_InvokeCommandEntryPoint+0x132>
/home/aom1/Work/Linux/target/STM32MP1-DK2/buildroot/buildroot/output/build/optee-os-custom/ta/remoteproc/remoteproc_core.c:306
     922:	4c71      	ldr	r4, [pc, #452]	; (ae8 <TA_InvokeCommandEntryPoint+0x2f4>)
     924:	e047      	b.n	9b6 <TA_InvokeCommandEntryPoint+0x1c2>
/home/aom1/Work/Linux/target/STM32MP1-DK2/buildroot/buildroot/output/build/optee-os-custom/ta/remoteproc/remoteproc_core.c:318
     926:	6a79      	ldr	r1, [r7, #36]	; 0x24
/home/aom1/Work/Linux/target/STM32MP1-DK2/buildroot/buildroot/output/build/optee-os-custom/ta/remoteproc/remoteproc_core.c:322
     928:	185b      	adds	r3, r3, r1
     92a:	d2fa      	bcs.n	922 <TA_InvokeCommandEntryPoint+0x12e>
/home/aom1/Work/Linux/target/STM32MP1-DK2/buildroot/buildroot/output/build/optee-os-custom/ta/remoteproc/remoteproc_core.c:318
     92c:	f001 0007 	and.w	r0, r1, #7
/home/aom1/Work/Linux/target/STM32MP1-DK2/buildroot/buildroot/output/build/optee-os-custom/ta/remoteproc/remoteproc_core.c:317
     930:	f006 0207 	and.w	r2, r6, #7
/home/aom1/Work/Linux/target/STM32MP1-DK2/buildroot/buildroot/output/build/optee-os-custom/ta/remoteproc/remoteproc_core.c:316
     934:	4402      	add	r2, r0
     936:	f004 0007 	and.w	r0, r4, #7
     93a:	4402      	add	r2, r0
/home/aom1/Work/Linux/target/STM32MP1-DK2/buildroot/buildroot/output/build/optee-os-custom/ta/remoteproc/remoteproc_core.c:323
     93c:	189b      	adds	r3, r3, r2
     93e:	d2f0      	bcs.n	922 <TA_InvokeCommandEntryPoint+0x12e>
     940:	68b8      	ldr	r0, [r7, #8]
     942:	4283      	cmp	r3, r0
     944:	d1ed      	bne.n	922 <TA_InvokeCommandEntryPoint+0x12e>
/home/aom1/Work/Linux/target/STM32MP1-DK2/buildroot/buildroot/output/build/optee-os-custom/ta/remoteproc/remoteproc_core.c:327
     946:	693a      	ldr	r2, [r7, #16]
     948:	1912      	adds	r2, r2, r4
     94a:	d2ea      	bcs.n	922 <TA_InvokeCommandEntryPoint+0x12e>
     94c:	4293      	cmp	r3, r2
     94e:	d3e8      	bcc.n	922 <TA_InvokeCommandEntryPoint+0x12e>
/home/aom1/Work/Linux/target/STM32MP1-DK2/buildroot/buildroot/output/build/optee-os-custom/ta/remoteproc/remoteproc_core.c:329
     950:	6aba      	ldr	r2, [r7, #40]	; 0x28
     952:	1852      	adds	r2, r2, r1
     954:	d2e5      	bcs.n	922 <TA_InvokeCommandEntryPoint+0x12e>
     956:	4293      	cmp	r3, r2
     958:	d3e3      	bcc.n	922 <TA_InvokeCommandEntryPoint+0x12e>
/home/aom1/Work/Linux/target/STM32MP1-DK2/buildroot/buildroot/output/build/optee-os-custom/ta/remoteproc/remoteproc_core.c:331
     95a:	69fa      	ldr	r2, [r7, #28]
     95c:	1992      	adds	r2, r2, r6
     95e:	bf2c      	ite	cs
     960:	2101      	movcs	r1, #1
     962:	2100      	movcc	r1, #0
     964:	4293      	cmp	r3, r2
     966:	d3dc      	bcc.n	922 <TA_InvokeCommandEntryPoint+0x12e>
/home/aom1/Work/Linux/target/STM32MP1-DK2/buildroot/buildroot/output/build/optee-os-custom/ta/remoteproc/remoteproc_core.c:335
     968:	f006 063f 	and.w	r6, r6, #63	; 0x3f
     96c:	ea56 0301 	orrs.w	r3, r6, r1
     970:	9302      	str	r3, [sp, #8]
     972:	d1d6      	bne.n	922 <TA_InvokeCommandEntryPoint+0x12e>
remoteproc_verify_signature():
/home/aom1/Work/Linux/target/STM32MP1-DK2/buildroot/buildroot/output/build/optee-os-custom/ta/remoteproc/remoteproc_core.c:259
     974:	9306      	str	r3, [sp, #24]
/home/aom1/Work/Linux/target/STM32MP1-DK2/buildroot/buildroot/output/build/optee-os-custom/ta/remoteproc/remoteproc_core.c:254
     976:	9305      	str	r3, [sp, #20]
/home/aom1/Work/Linux/target/STM32MP1-DK2/buildroot/buildroot/output/build/optee-os-custom/ta/remoteproc/remoteproc_core.c:261
     978:	697b      	ldr	r3, [r7, #20]
remoteproc_get_algo():
/home/aom1/Work/Linux/target/STM32MP1-DK2/buildroot/buildroot/output/build/optee-os-custom/ta/remoteproc/remoteproc_core.c:185
     97a:	2b01      	cmp	r3, #1
     97c:	d003      	beq.n	986 <TA_InvokeCommandEntryPoint+0x192>
     97e:	2b02      	cmp	r3, #2
     980:	d10b      	bne.n	99a <TA_InvokeCommandEntryPoint+0x1a6>
/home/aom1/Work/Linux/target/STM32MP1-DK2/buildroot/buildroot/output/build/optee-os-custom/ta/remoteproc/remoteproc_core.c:184
     982:	2301      	movs	r3, #1
     984:	9302      	str	r3, [sp, #8]
remoteproc_verify_signature():
/home/aom1/Work/Linux/target/STM32MP1-DK2/buildroot/buildroot/output/build/optee-os-custom/ta/remoteproc/remoteproc_core.c:268
     986:	2620      	movs	r6, #32
/home/aom1/Work/Linux/target/STM32MP1-DK2/buildroot/buildroot/output/build/optee-os-custom/ta/remoteproc/remoteproc_core.c:269
     988:	2100      	movs	r1, #0
/home/aom1/Work/Linux/target/STM32MP1-DK2/buildroot/buildroot/output/build/optee-os-custom/ta/remoteproc/remoteproc_core.c:268
     98a:	9606      	str	r6, [sp, #24]
/home/aom1/Work/Linux/target/STM32MP1-DK2/buildroot/buildroot/output/build/optee-os-custom/ta/remoteproc/remoteproc_core.c:269
     98c:	4630      	mov	r0, r6
     98e:	f7ff fe00 	bl	592 <TEE_Malloc>
/home/aom1/Work/Linux/target/STM32MP1-DK2/buildroot/buildroot/output/build/optee-os-custom/ta/remoteproc/remoteproc_core.c:270
     992:	4681      	mov	r9, r0
     994:	bb30      	cbnz	r0, 9e4 <TA_InvokeCommandEntryPoint+0x1f0>
/home/aom1/Work/Linux/target/STM32MP1-DK2/buildroot/buildroot/output/build/optee-os-custom/ta/remoteproc/remoteproc_core.c:271
     996:	4c55      	ldr	r4, [pc, #340]	; (aec <TA_InvokeCommandEntryPoint+0x2f8>)
     998:	e00d      	b.n	9b6 <TA_InvokeCommandEntryPoint+0x1c2>
/home/aom1/Work/Linux/target/STM32MP1-DK2/buildroot/buildroot/output/build/optee-os-custom/ta/remoteproc/remoteproc_core.c:263
     99a:	9301      	str	r3, [sp, #4]
     99c:	f240 1107 	movw	r1, #263	; 0x107
     9a0:	4b5a      	ldr	r3, [pc, #360]	; (b0c <TA_InvokeCommandEntryPoint+0x318>)
     9a2:	485b      	ldr	r0, [pc, #364]	; (b10 <TA_InvokeCommandEntryPoint+0x31c>)
     9a4:	447b      	add	r3, pc
     9a6:	9300      	str	r3, [sp, #0]
     9a8:	2301      	movs	r3, #1
     9aa:	4478      	add	r0, pc
     9ac:	461a      	mov	r2, r3
/home/aom1/Work/Linux/target/STM32MP1-DK2/buildroot/buildroot/output/build/optee-os-custom/ta/remoteproc/remoteproc_core.c:264
     9ae:	4c50      	ldr	r4, [pc, #320]	; (af0 <TA_InvokeCommandEntryPoint+0x2fc>)
/home/aom1/Work/Linux/target/STM32MP1-DK2/buildroot/buildroot/output/build/optee-os-custom/ta/remoteproc/remoteproc_core.c:263
     9b0:	3028      	adds	r0, #40	; 0x28
     9b2:	f000 fc93 	bl	12dc <trace_printf>
remoteproc_verify_firmware():
/home/aom1/Work/Linux/target/STM32MP1-DK2/buildroot/buildroot/output/build/optee-os-custom/ta/remoteproc/remoteproc_core.c:402
     9b6:	6868      	ldr	r0, [r5, #4]
     9b8:	f7ff fe14 	bl	5e4 <TEE_Free>
remoteproc_load_fw():
/home/aom1/Work/Linux/target/STM32MP1-DK2/buildroot/buildroot/output/build/optee-os-custom/ta/remoteproc/remoteproc_core.c:602
     9bc:	2c00      	cmp	r4, #0
     9be:	f000 80bb 	beq.w	b38 <TA_InvokeCommandEntryPoint+0x344>
/home/aom1/Work/Linux/target/STM32MP1-DK2/buildroot/buildroot/output/build/optee-os-custom/ta/remoteproc/remoteproc_core.c:603
     9c2:	4b54      	ldr	r3, [pc, #336]	; (b14 <TA_InvokeCommandEntryPoint+0x320>)
     9c4:	f240 215b 	movw	r1, #603	; 0x25b
     9c8:	4853      	ldr	r0, [pc, #332]	; (b18 <TA_InvokeCommandEntryPoint+0x324>)
     9ca:	447b      	add	r3, pc
     9cc:	4478      	add	r0, pc
     9ce:	9300      	str	r3, [sp, #0]
     9d0:	2301      	movs	r3, #1
     9d2:	9401      	str	r4, [sp, #4]
     9d4:	461a      	mov	r2, r3
     9d6:	3072      	adds	r0, #114	; 0x72
remoteproc_load_elf():
/home/aom1/Work/Linux/target/STM32MP1-DK2/buildroot/buildroot/output/build/optee-os-custom/ta/remoteproc/remoteproc_core.c:563
     9d8:	f000 fc80 	bl	12dc <trace_printf>
remoteproc_load_fw():
/home/aom1/Work/Linux/target/STM32MP1-DK2/buildroot/buildroot/output/build/optee-os-custom/ta/remoteproc/remoteproc_core.c:618
     9dc:	2300      	movs	r3, #0
     9de:	60ab      	str	r3, [r5, #8]
/home/aom1/Work/Linux/target/STM32MP1-DK2/buildroot/buildroot/output/build/optee-os-custom/ta/remoteproc/remoteproc_core.c:619
     9e0:	60eb      	str	r3, [r5, #12]
/home/aom1/Work/Linux/target/STM32MP1-DK2/buildroot/buildroot/output/build/optee-os-custom/ta/remoteproc/remoteproc_core.c:621
     9e2:	e723      	b.n	82c <TA_InvokeCommandEntryPoint+0x38>
remoteproc_verify_signature():
/home/aom1/Work/Linux/target/STM32MP1-DK2/buildroot/buildroot/output/build/optee-os-custom/ta/remoteproc/remoteproc_core.c:273
     9e4:	4943      	ldr	r1, [pc, #268]	; (af4 <TA_InvokeCommandEntryPoint+0x300>)
     9e6:	2300      	movs	r3, #0
     9e8:	2205      	movs	r2, #5
     9ea:	a805      	add	r0, sp, #20
     9ec:	f001 fb15 	bl	201a <TEE_AllocateOperation>
/home/aom1/Work/Linux/target/STM32MP1-DK2/buildroot/buildroot/output/build/optee-os-custom/ta/remoteproc/remoteproc_core.c:274
     9f0:	4604      	mov	r4, r0
     9f2:	2800      	cmp	r0, #0
     9f4:	d164      	bne.n	ac0 <TA_InvokeCommandEntryPoint+0x2cc>
/home/aom1/Work/Linux/target/STM32MP1-DK2/buildroot/buildroot/output/build/optee-os-custom/ta/remoteproc/remoteproc_core.c:277
     9f6:	9805      	ldr	r0, [sp, #20]
     9f8:	ab06      	add	r3, sp, #24
     9fa:	9300      	str	r3, [sp, #0]
     9fc:	4639      	mov	r1, r7
     9fe:	693a      	ldr	r2, [r7, #16]
     a00:	464b      	mov	r3, r9
     a02:	f002 f90b 	bl	2c1c <TEE_DigestDoFinal>
/home/aom1/Work/Linux/target/STM32MP1-DK2/buildroot/buildroot/output/build/optee-os-custom/ta/remoteproc/remoteproc_core.c:278
     a06:	4604      	mov	r4, r0
     a08:	2800      	cmp	r0, #0
     a0a:	d156      	bne.n	aba <TA_InvokeCommandEntryPoint+0x2c6>
/home/aom1/Work/Linux/target/STM32MP1-DK2/buildroot/buildroot/output/build/optee-os-custom/ta/remoteproc/remoteproc_core.c:288
     a0c:	9b06      	ldr	r3, [sp, #24]
remoteproc_pta_verify():
/home/aom1/Work/Linux/target/STM32MP1-DK2/buildroot/buildroot/output/build/optee-os-custom/ta/remoteproc/remoteproc_core.c:202
     a0e:	4601      	mov	r1, r0
/home/aom1/Work/Linux/target/STM32MP1-DK2/buildroot/buildroot/output/build/optee-os-custom/ta/remoteproc/remoteproc_core.c:196
     a10:	f8d5 a004 	ldr.w	sl, [r5, #4]
/home/aom1/Work/Linux/target/STM32MP1-DK2/buildroot/buildroot/output/build/optee-os-custom/ta/remoteproc/remoteproc_core.c:202
     a14:	4632      	mov	r2, r6
remoteproc_verify_signature():
/home/aom1/Work/Linux/target/STM32MP1-DK2/buildroot/buildroot/output/build/optee-os-custom/ta/remoteproc/remoteproc_core.c:288
     a16:	9303      	str	r3, [sp, #12]
remoteproc_pta_verify():
/home/aom1/Work/Linux/target/STM32MP1-DK2/buildroot/buildroot/output/build/optee-os-custom/ta/remoteproc/remoteproc_core.c:202
     a18:	4658      	mov	r0, fp
     a1a:	f009 ff2d 	bl	a878 <memset>
/home/aom1/Work/Linux/target/STM32MP1-DK2/buildroot/buildroot/output/build/optee-os-custom/ta/remoteproc/remoteproc_core.c:204
     a1e:	f8da 0024 	ldr.w	r0, [sl, #36]	; 0x24
     a22:	4621      	mov	r1, r4
     a24:	3008      	adds	r0, #8
     a26:	f7ff fdb4 	bl	592 <TEE_Malloc>
/home/aom1/Work/Linux/target/STM32MP1-DK2/buildroot/buildroot/output/build/optee-os-custom/ta/remoteproc/remoteproc_core.c:205
     a2a:	4607      	mov	r7, r0
     a2c:	2800      	cmp	r0, #0
     a2e:	d054      	beq.n	ada <TA_InvokeCommandEntryPoint+0x2e6>
/home/aom1/Work/Linux/target/STM32MP1-DK2/buildroot/buildroot/output/build/optee-os-custom/ta/remoteproc/remoteproc_core.c:208
     a30:	4a3a      	ldr	r2, [pc, #232]	; (b1c <TA_InvokeCommandEntryPoint+0x328>)
     a32:	210c      	movs	r1, #12
     a34:	9b02      	ldr	r3, [sp, #8]
/home/aom1/Work/Linux/target/STM32MP1-DK2/buildroot/buildroot/output/build/optee-os-custom/ta/remoteproc/remoteproc_core.c:210
     a36:	3008      	adds	r0, #8
/home/aom1/Work/Linux/target/STM32MP1-DK2/buildroot/buildroot/output/build/optee-os-custom/ta/remoteproc/remoteproc_core.c:208
     a38:	447a      	add	r2, pc
     a3a:	fb01 2603 	mla	r6, r1, r3, r2
/home/aom1/Work/Linux/target/STM32MP1-DK2/buildroot/buildroot/output/build/optee-os-custom/ta/remoteproc/remoteproc_core.c:210
     a3e:	f8da 1028 	ldr.w	r1, [sl, #40]	; 0x28
/home/aom1/Work/Linux/target/STM32MP1-DK2/buildroot/buildroot/output/build/optee-os-custom/ta/remoteproc/remoteproc_core.c:208
     a42:	6cb2      	ldr	r2, [r6, #72]	; 0x48
/home/aom1/Work/Linux/target/STM32MP1-DK2/buildroot/buildroot/output/build/optee-os-custom/ta/remoteproc/remoteproc_core.c:209
     a44:	f8da 6024 	ldr.w	r6, [sl, #36]	; 0x24
/home/aom1/Work/Linux/target/STM32MP1-DK2/buildroot/buildroot/output/build/optee-os-custom/ta/remoteproc/remoteproc_core.c:208
     a48:	f840 2c08 	str.w	r2, [r0, #-8]
/home/aom1/Work/Linux/target/STM32MP1-DK2/buildroot/buildroot/output/build/optee-os-custom/ta/remoteproc/remoteproc_core.c:209
     a4c:	f840 6c04 	str.w	r6, [r0, #-4]
/home/aom1/Work/Linux/target/STM32MP1-DK2/buildroot/buildroot/output/build/optee-os-custom/ta/remoteproc/remoteproc_core.c:210
     a50:	4632      	mov	r2, r6
     a52:	4451      	add	r1, sl
     a54:	f000 fb00 	bl	1058 <memcpy>
/home/aom1/Work/Linux/target/STM32MP1-DK2/buildroot/buildroot/output/build/optee-os-custom/ta/remoteproc/remoteproc_core.c:213
     a58:	682a      	ldr	r2, [r5, #0]
rproc_pta_get_keyinfo_size():
/home/aom1/Work/Linux/target/STM32MP1-DK2/buildroot/buildroot/output/build/optee-os-custom/out/export-ta_arm32/include/remoteproc_pta.h:49
     a5a:	3608      	adds	r6, #8
remoteproc_pta_verify():
/home/aom1/Work/Linux/target/STM32MP1-DK2/buildroot/buildroot/output/build/optee-os-custom/ta/remoteproc/remoteproc_core.c:217
     a5c:	9b03      	ldr	r3, [sp, #12]
rproc_pta_get_keyinfo_size():
/home/aom1/Work/Linux/target/STM32MP1-DK2/buildroot/buildroot/output/build/optee-os-custom/out/export-ta_arm32/include/remoteproc_pta.h:49
     a5e:	bf38      	it	cc
     a60:	4634      	movcc	r4, r6
remoteproc_pta_verify():
/home/aom1/Work/Linux/target/STM32MP1-DK2/buildroot/buildroot/output/build/optee-os-custom/ta/remoteproc/remoteproc_core.c:221
     a62:	482f      	ldr	r0, [pc, #188]	; (b20 <TA_InvokeCommandEntryPoint+0x32c>)
     a64:	f04f 31ff 	mov.w	r1, #4294967295	; 0xffffffff
/home/aom1/Work/Linux/target/STM32MP1-DK2/buildroot/buildroot/output/build/optee-os-custom/ta/remoteproc/remoteproc_core.c:213
     a68:	9207      	str	r2, [sp, #28]
/home/aom1/Work/Linux/target/STM32MP1-DK2/buildroot/buildroot/output/build/optee-os-custom/ta/remoteproc/remoteproc_core.c:217
     a6a:	930c      	str	r3, [sp, #48]	; 0x30
/home/aom1/Work/Linux/target/STM32MP1-DK2/buildroot/buildroot/output/build/optee-os-custom/ta/remoteproc/remoteproc_core.c:218
     a6c:	f8da 2010 	ldr.w	r2, [sl, #16]
/home/aom1/Work/Linux/target/STM32MP1-DK2/buildroot/buildroot/output/build/optee-os-custom/ta/remoteproc/remoteproc_core.c:219
     a70:	f8da 300c 	ldr.w	r3, [sl, #12]
/home/aom1/Work/Linux/target/STM32MP1-DK2/buildroot/buildroot/output/build/optee-os-custom/ta/remoteproc/remoteproc_core.c:221
     a74:	4478      	add	r0, pc
/home/aom1/Work/Linux/target/STM32MP1-DK2/buildroot/buildroot/output/build/optee-os-custom/ta/remoteproc/remoteproc_core.c:218
     a76:	4452      	add	r2, sl
/home/aom1/Work/Linux/target/STM32MP1-DK2/buildroot/buildroot/output/build/optee-os-custom/ta/remoteproc/remoteproc_core.c:219
     a78:	930e      	str	r3, [sp, #56]	; 0x38
/home/aom1/Work/Linux/target/STM32MP1-DK2/buildroot/buildroot/output/build/optee-os-custom/ta/remoteproc/remoteproc_core.c:221
     a7a:	2300      	movs	r3, #0
     a7c:	9301      	str	r3, [sp, #4]
     a7e:	f245 5351 	movw	r3, #21841	; 0x5551
/home/aom1/Work/Linux/target/STM32MP1-DK2/buildroot/buildroot/output/build/optee-os-custom/ta/remoteproc/remoteproc_core.c:218
     a82:	920d      	str	r2, [sp, #52]	; 0x34
/home/aom1/Work/Linux/target/STM32MP1-DK2/buildroot/buildroot/output/build/optee-os-custom/ta/remoteproc/remoteproc_core.c:221
     a84:	2208      	movs	r2, #8
     a86:	f8cd b000 	str.w	fp, [sp]
     a8a:	6800      	ldr	r0, [r0, #0]
/home/aom1/Work/Linux/target/STM32MP1-DK2/buildroot/buildroot/output/build/optee-os-custom/ta/remoteproc/remoteproc_core.c:215
     a8c:	940a      	str	r4, [sp, #40]	; 0x28
/home/aom1/Work/Linux/target/STM32MP1-DK2/buildroot/buildroot/output/build/optee-os-custom/ta/remoteproc/remoteproc_core.c:214
     a8e:	9709      	str	r7, [sp, #36]	; 0x24
/home/aom1/Work/Linux/target/STM32MP1-DK2/buildroot/buildroot/output/build/optee-os-custom/ta/remoteproc/remoteproc_core.c:216
     a90:	f8cd 902c 	str.w	r9, [sp, #44]	; 0x2c
/home/aom1/Work/Linux/target/STM32MP1-DK2/buildroot/buildroot/output/build/optee-os-custom/ta/remoteproc/remoteproc_core.c:221
     a94:	f7ff fca2 	bl	3dc <TEE_InvokeTACommand>
/home/aom1/Work/Linux/target/STM32MP1-DK2/buildroot/buildroot/output/build/optee-os-custom/ta/remoteproc/remoteproc_core.c:224
     a98:	4604      	mov	r4, r0
     a9a:	b158      	cbz	r0, ab4 <TA_InvokeCommandEntryPoint+0x2c0>
/home/aom1/Work/Linux/target/STM32MP1-DK2/buildroot/buildroot/output/build/optee-os-custom/ta/remoteproc/remoteproc_core.c:225
     a9c:	4b21      	ldr	r3, [pc, #132]	; (b24 <TA_InvokeCommandEntryPoint+0x330>)
     a9e:	21e1      	movs	r1, #225	; 0xe1
     aa0:	9001      	str	r0, [sp, #4]
     aa2:	4821      	ldr	r0, [pc, #132]	; (b28 <TA_InvokeCommandEntryPoint+0x334>)
     aa4:	447b      	add	r3, pc
     aa6:	4478      	add	r0, pc
     aa8:	9300      	str	r3, [sp, #0]
     aaa:	2301      	movs	r3, #1
     aac:	461a      	mov	r2, r3
     aae:	305c      	adds	r0, #92	; 0x5c
     ab0:	f000 fc14 	bl	12dc <trace_printf>
/home/aom1/Work/Linux/target/STM32MP1-DK2/buildroot/buildroot/output/build/optee-os-custom/ta/remoteproc/remoteproc_core.c:227
     ab4:	4638      	mov	r0, r7
     ab6:	f7ff fd95 	bl	5e4 <TEE_Free>
remoteproc_verify_signature():
/home/aom1/Work/Linux/target/STM32MP1-DK2/buildroot/buildroot/output/build/optee-os-custom/ta/remoteproc/remoteproc_core.c:291
     aba:	9805      	ldr	r0, [sp, #20]
     abc:	f001 fa9a 	bl	1ff4 <TEE_FreeOperation>
/home/aom1/Work/Linux/target/STM32MP1-DK2/buildroot/buildroot/output/build/optee-os-custom/ta/remoteproc/remoteproc_core.c:293
     ac0:	4648      	mov	r0, r9
     ac2:	f7ff fd8f 	bl	5e4 <TEE_Free>
remoteproc_verify_firmware():
/home/aom1/Work/Linux/target/STM32MP1-DK2/buildroot/buildroot/output/build/optee-os-custom/ta/remoteproc/remoteproc_core.c:390
     ac6:	2c00      	cmp	r4, #0
     ac8:	f47f af75 	bne.w	9b6 <TA_InvokeCommandEntryPoint+0x1c2>
/home/aom1/Work/Linux/target/STM32MP1-DK2/buildroot/buildroot/output/build/optee-os-custom/ta/remoteproc/remoteproc_core.c:394
     acc:	686b      	ldr	r3, [r5, #4]
/home/aom1/Work/Linux/target/STM32MP1-DK2/buildroot/buildroot/output/build/optee-os-custom/ta/remoteproc/remoteproc_core.c:395
     ace:	6ada      	ldr	r2, [r3, #44]	; 0x2c
/home/aom1/Work/Linux/target/STM32MP1-DK2/buildroot/buildroot/output/build/optee-os-custom/ta/remoteproc/remoteproc_core.c:396
     ad0:	6b1b      	ldr	r3, [r3, #48]	; 0x30
/home/aom1/Work/Linux/target/STM32MP1-DK2/buildroot/buildroot/output/build/optee-os-custom/ta/remoteproc/remoteproc_core.c:395
     ad2:	60ea      	str	r2, [r5, #12]
/home/aom1/Work/Linux/target/STM32MP1-DK2/buildroot/buildroot/output/build/optee-os-custom/ta/remoteproc/remoteproc_core.c:396
     ad4:	4443      	add	r3, r8
     ad6:	60ab      	str	r3, [r5, #8]
     ad8:	e76d      	b.n	9b6 <TA_InvokeCommandEntryPoint+0x1c2>
remoteproc_pta_verify():
/home/aom1/Work/Linux/target/STM32MP1-DK2/buildroot/buildroot/output/build/optee-os-custom/ta/remoteproc/remoteproc_core.c:206
     ada:	4c04      	ldr	r4, [pc, #16]	; (aec <TA_InvokeCommandEntryPoint+0x2f8>)
     adc:	e7ed      	b.n	aba <TA_InvokeCommandEntryPoint+0x2c6>
     ade:	bf00      	nop
     ae0:	ffff0006 	.word	0xffff0006
     ae4:	3543a468 	.word	0x3543a468
     ae8:	f0100001 	.word	0xf0100001
     aec:	ffff000c 	.word	0xffff000c
     af0:	ffff000a 	.word	0xffff000a
     af4:	50000004 	.word	0x50000004
     af8:	0000b882 	.word	0x0000b882
     afc:	0000000c 	.word	0x0000000c
     b00:	0000b854 	.word	0x0000b854
     b04:	0000b986 	.word	0x0000b986
     b08:	0000ba16 	.word	0x0000ba16
     b0c:	0000a3e5 	.word	0x0000a3e5
     b10:	00009fda 	.word	0x00009fda
     b14:	0000a403 	.word	0x0000a403
     b18:	00009fb8 	.word	0x00009fb8
     b1c:	00009f4c 	.word	0x00009f4c
     b20:	0000b850 	.word	0x0000b850
     b24:	0000a303 	.word	0x0000a303
     b28:	00009ede 	.word	0x00009ede
remoteproc_verify_firmware():
/home/aom1/Work/Linux/target/STM32MP1-DK2/buildroot/buildroot/output/build/optee-os-custom/ta/remoteproc/remoteproc_core.c:382
     b2c:	4c67      	ldr	r4, [pc, #412]	; (ccc <TA_InvokeCommandEntryPoint+0x4d8>)
     b2e:	e748      	b.n	9c2 <TA_InvokeCommandEntryPoint+0x1ce>
remoteproc_save_fw_header():
/home/aom1/Work/Linux/target/STM32MP1-DK2/buildroot/buildroot/output/build/optee-os-custom/ta/remoteproc/remoteproc_core.c:241
     b30:	4c67      	ldr	r4, [pc, #412]	; (cd0 <TA_InvokeCommandEntryPoint+0x4dc>)
     b32:	e746      	b.n	9c2 <TA_InvokeCommandEntryPoint+0x1ce>
/home/aom1/Work/Linux/target/STM32MP1-DK2/buildroot/buildroot/output/build/optee-os-custom/ta/remoteproc/remoteproc_core.c:245
     b34:	4c67      	ldr	r4, [pc, #412]	; (cd4 <TA_InvokeCommandEntryPoint+0x4e0>)
     b36:	e744      	b.n	9c2 <TA_InvokeCommandEntryPoint+0x1ce>
remoteproc_load_elf():
/home/aom1/Work/Linux/target/STM32MP1-DK2/buildroot/buildroot/output/build/optee-os-custom/ta/remoteproc/remoteproc_core.c:561
     b38:	68e9      	ldr	r1, [r5, #12]
     b3a:	68a8      	ldr	r0, [r5, #8]
     b3c:	f000 f900 	bl	d40 <e32_parse_ehdr>
/home/aom1/Work/Linux/target/STM32MP1-DK2/buildroot/buildroot/output/build/optee-os-custom/ta/remoteproc/remoteproc_core.c:562
     b40:	4604      	mov	r4, r0
     b42:	b158      	cbz	r0, b5c <TA_InvokeCommandEntryPoint+0x368>
/home/aom1/Work/Linux/target/STM32MP1-DK2/buildroot/buildroot/output/build/optee-os-custom/ta/remoteproc/remoteproc_core.c:563
     b44:	4b67      	ldr	r3, [pc, #412]	; (ce4 <TA_InvokeCommandEntryPoint+0x4f0>)
     b46:	f240 2133 	movw	r1, #563	; 0x233
     b4a:	9001      	str	r0, [sp, #4]
     b4c:	4866      	ldr	r0, [pc, #408]	; (ce8 <TA_InvokeCommandEntryPoint+0x4f4>)
     b4e:	447b      	add	r3, pc
     b50:	4478      	add	r0, pc
     b52:	9300      	str	r3, [sp, #0]
     b54:	2301      	movs	r3, #1
     b56:	461a      	mov	r2, r3
     b58:	3085      	adds	r0, #133	; 0x85
     b5a:	e73d      	b.n	9d8 <TA_InvokeCommandEntryPoint+0x1e4>
/home/aom1/Work/Linux/target/STM32MP1-DK2/buildroot/buildroot/output/build/optee-os-custom/ta/remoteproc/remoteproc_core.c:567
     b5c:	4a63      	ldr	r2, [pc, #396]	; (cec <TA_InvokeCommandEntryPoint+0x4f8>)
     b5e:	462b      	mov	r3, r5
     b60:	68e9      	ldr	r1, [r5, #12]
     b62:	447a      	add	r2, pc
     b64:	68a8      	ldr	r0, [r5, #8]
     b66:	f000 f947 	bl	df8 <e32_parser_load_elf_image>
remoteproc_load_fw():
/home/aom1/Work/Linux/target/STM32MP1-DK2/buildroot/buildroot/output/build/optee-os-custom/ta/remoteproc/remoteproc_core.c:608
     b6a:	4604      	mov	r4, r0
     b6c:	2800      	cmp	r0, #0
     b6e:	f47f af35 	bne.w	9dc <TA_InvokeCommandEntryPoint+0x1e8>
remoteproc_parse_rsc_table():
/home/aom1/Work/Linux/target/STM32MP1-DK2/buildroot/buildroot/output/build/optee-os-custom/ta/remoteproc/remoteproc_core.c:434
     b72:	9006      	str	r0, [sp, #24]
/home/aom1/Work/Linux/target/STM32MP1-DK2/buildroot/buildroot/output/build/optee-os-custom/ta/remoteproc/remoteproc_core.c:437
     b74:	f105 0314 	add.w	r3, r5, #20
     b78:	68e9      	ldr	r1, [r5, #12]
     b7a:	aa06      	add	r2, sp, #24
     b7c:	68a8      	ldr	r0, [r5, #8]
     b7e:	f000 f98f 	bl	ea0 <e32_parser_find_rsc_table>
/home/aom1/Work/Linux/target/STM32MP1-DK2/buildroot/buildroot/output/build/optee-os-custom/ta/remoteproc/remoteproc_core.c:439
     b82:	4b55      	ldr	r3, [pc, #340]	; (cd8 <TA_InvokeCommandEntryPoint+0x4e4>)
     b84:	4298      	cmp	r0, r3
     b86:	d104      	bne.n	b92 <TA_InvokeCommandEntryPoint+0x39e>
/home/aom1/Work/Linux/target/STM32MP1-DK2/buildroot/buildroot/output/build/optee-os-custom/ta/remoteproc/remoteproc_core.c:441
     b88:	616c      	str	r4, [r5, #20]
/home/aom1/Work/Linux/target/STM32MP1-DK2/buildroot/buildroot/output/build/optee-os-custom/ta/remoteproc/remoteproc_core.c:442
     b8a:	612c      	str	r4, [r5, #16]
remoteproc_load_fw():
/home/aom1/Work/Linux/target/STM32MP1-DK2/buildroot/buildroot/output/build/optee-os-custom/ta/remoteproc/remoteproc_core.c:614
     b8c:	2301      	movs	r3, #1
     b8e:	61ab      	str	r3, [r5, #24]
     b90:	e724      	b.n	9dc <TA_InvokeCommandEntryPoint+0x1e8>
remoteproc_parse_rsc_table():
/home/aom1/Work/Linux/target/STM32MP1-DK2/buildroot/buildroot/output/build/optee-os-custom/ta/remoteproc/remoteproc_core.c:445
     b92:	2800      	cmp	r0, #0
     b94:	d130      	bne.n	bf8 <TA_InvokeCommandEntryPoint+0x404>
/home/aom1/Work/Linux/target/STM32MP1-DK2/buildroot/buildroot/output/build/optee-os-custom/ta/remoteproc/remoteproc_core.c:448
     b96:	9e06      	ldr	r6, [sp, #24]
     b98:	2e00      	cmp	r6, #0
     b9a:	d0f7      	beq.n	b8c <TA_InvokeCommandEntryPoint+0x398>
remoteproc_da_to_pa():
/home/aom1/Work/Linux/target/STM32MP1-DK2/buildroot/buildroot/output/build/optee-os-custom/ta/remoteproc/remoteproc_core.c:414
     b9c:	ee18 0a10 	vmov	r0, s16
     ba0:	221c      	movs	r2, #28
remoteproc_parse_rsc_table():
/home/aom1/Work/Linux/target/STM32MP1-DK2/buildroot/buildroot/output/build/optee-os-custom/ta/remoteproc/remoteproc_core.c:452
     ba2:	696f      	ldr	r7, [r5, #20]
remoteproc_da_to_pa():
/home/aom1/Work/Linux/target/STM32MP1-DK2/buildroot/buildroot/output/build/optee-os-custom/ta/remoteproc/remoteproc_core.c:414
     ba4:	4621      	mov	r1, r4
     ba6:	f009 fe67 	bl	a878 <memset>
/home/aom1/Work/Linux/target/STM32MP1-DK2/buildroot/buildroot/output/build/optee-os-custom/ta/remoteproc/remoteproc_core.c:421
     baa:	4851      	ldr	r0, [pc, #324]	; (cf0 <TA_InvokeCommandEntryPoint+0x4fc>)
     bac:	2207      	movs	r2, #7
/home/aom1/Work/Linux/target/STM32MP1-DK2/buildroot/buildroot/output/build/optee-os-custom/ta/remoteproc/remoteproc_core.c:417
     bae:	682b      	ldr	r3, [r5, #0]
/home/aom1/Work/Linux/target/STM32MP1-DK2/buildroot/buildroot/output/build/optee-os-custom/ta/remoteproc/remoteproc_core.c:421
     bb0:	f04f 31ff 	mov.w	r1, #4294967295	; 0xffffffff
     bb4:	4478      	add	r0, pc
/home/aom1/Work/Linux/target/STM32MP1-DK2/buildroot/buildroot/output/build/optee-os-custom/ta/remoteproc/remoteproc_core.c:417
     bb6:	9307      	str	r3, [sp, #28]
/home/aom1/Work/Linux/target/STM32MP1-DK2/buildroot/buildroot/output/build/optee-os-custom/ta/remoteproc/remoteproc_core.c:421
     bb8:	f242 1311 	movw	r3, #8465	; 0x2111
     bbc:	9401      	str	r4, [sp, #4]
     bbe:	f8cd b000 	str.w	fp, [sp]
     bc2:	6800      	ldr	r0, [r0, #0]
/home/aom1/Work/Linux/target/STM32MP1-DK2/buildroot/buildroot/output/build/optee-os-custom/ta/remoteproc/remoteproc_core.c:418
     bc4:	9609      	str	r6, [sp, #36]	; 0x24
/home/aom1/Work/Linux/target/STM32MP1-DK2/buildroot/buildroot/output/build/optee-os-custom/ta/remoteproc/remoteproc_core.c:419
     bc6:	970b      	str	r7, [sp, #44]	; 0x2c
/home/aom1/Work/Linux/target/STM32MP1-DK2/buildroot/buildroot/output/build/optee-os-custom/ta/remoteproc/remoteproc_core.c:421
     bc8:	f7ff fc08 	bl	3dc <TEE_InvokeTACommand>
/home/aom1/Work/Linux/target/STM32MP1-DK2/buildroot/buildroot/output/build/optee-os-custom/ta/remoteproc/remoteproc_core.c:424
     bcc:	b178      	cbz	r0, bee <TA_InvokeCommandEntryPoint+0x3fa>
/home/aom1/Work/Linux/target/STM32MP1-DK2/buildroot/buildroot/output/build/optee-os-custom/ta/remoteproc/remoteproc_core.c:425
     bce:	4b49      	ldr	r3, [pc, #292]	; (cf4 <TA_InvokeCommandEntryPoint+0x500>)
     bd0:	f240 11a9 	movw	r1, #425	; 0x1a9
     bd4:	4848      	ldr	r0, [pc, #288]	; (cf8 <TA_InvokeCommandEntryPoint+0x504>)
     bd6:	447b      	add	r3, pc
     bd8:	9300      	str	r3, [sp, #0]
     bda:	2301      	movs	r3, #1
     bdc:	4478      	add	r0, pc
     bde:	461a      	mov	r2, r3
     be0:	9601      	str	r6, [sp, #4]
     be2:	3099      	adds	r0, #153	; 0x99
     be4:	f000 fb7a 	bl	12dc <trace_printf>
remoteproc_parse_rsc_table():
/home/aom1/Work/Linux/target/STM32MP1-DK2/buildroot/buildroot/output/build/optee-os-custom/ta/remoteproc/remoteproc_core.c:452
     be8:	612c      	str	r4, [r5, #16]
/home/aom1/Work/Linux/target/STM32MP1-DK2/buildroot/buildroot/output/build/optee-os-custom/ta/remoteproc/remoteproc_core.c:454
     bea:	4c3c      	ldr	r4, [pc, #240]	; (cdc <TA_InvokeCommandEntryPoint+0x4e8>)
     bec:	e6f6      	b.n	9dc <TA_InvokeCommandEntryPoint+0x1e8>
reg_pair_to_64():
/home/aom1/Work/Linux/target/STM32MP1-DK2/buildroot/buildroot/output/build/optee-os-custom/out/export-ta_arm32/include/util.h:166
     bee:	9b0d      	ldr	r3, [sp, #52]	; 0x34
remoteproc_parse_rsc_table():
/home/aom1/Work/Linux/target/STM32MP1-DK2/buildroot/buildroot/output/build/optee-os-custom/ta/remoteproc/remoteproc_core.c:452
     bf0:	612b      	str	r3, [r5, #16]
/home/aom1/Work/Linux/target/STM32MP1-DK2/buildroot/buildroot/output/build/optee-os-custom/ta/remoteproc/remoteproc_core.c:453
     bf2:	2b00      	cmp	r3, #0
     bf4:	d1ca      	bne.n	b8c <TA_InvokeCommandEntryPoint+0x398>
     bf6:	e7f8      	b.n	bea <TA_InvokeCommandEntryPoint+0x3f6>
remoteproc_load_fw():
/home/aom1/Work/Linux/target/STM32MP1-DK2/buildroot/buildroot/output/build/optee-os-custom/ta/remoteproc/remoteproc_core.c:616
     bf8:	4604      	mov	r4, r0
     bfa:	e6ef      	b.n	9dc <TA_InvokeCommandEntryPoint+0x1e8>
remoteproc_start_fw():
/home/aom1/Work/Linux/target/STM32MP1-DK2/buildroot/buildroot/output/build/optee-os-custom/ta/remoteproc/remoteproc_core.c:634
     bfc:	2d01      	cmp	r5, #1
     bfe:	f47f ae14 	bne.w	82a <TA_InvokeCommandEntryPoint+0x36>
/home/aom1/Work/Linux/target/STM32MP1-DK2/buildroot/buildroot/output/build/optee-os-custom/ta/remoteproc/remoteproc_core.c:637
     c02:	6830      	ldr	r0, [r6, #0]
     c04:	f7ff fd0c 	bl	620 <remoteproc_find_firmware>
/home/aom1/Work/Linux/target/STM32MP1-DK2/buildroot/buildroot/output/build/optee-os-custom/ta/remoteproc/remoteproc_core.c:638
     c08:	4607      	mov	r7, r0
     c0a:	2800      	cmp	r0, #0
     c0c:	f43f ae0d 	beq.w	82a <TA_InvokeCommandEntryPoint+0x36>
/home/aom1/Work/Linux/target/STM32MP1-DK2/buildroot/buildroot/output/build/optee-os-custom/ta/remoteproc/remoteproc_core.c:641
     c10:	6983      	ldr	r3, [r0, #24]
     c12:	2b01      	cmp	r3, #1
     c14:	d004      	beq.n	c20 <TA_InvokeCommandEntryPoint+0x42c>
     c16:	4c32      	ldr	r4, [pc, #200]	; (ce0 <TA_InvokeCommandEntryPoint+0x4ec>)
     c18:	2b02      	cmp	r3, #2
     c1a:	bf08      	it	eq
     c1c:	2400      	moveq	r4, #0
     c1e:	e605      	b.n	82c <TA_InvokeCommandEntryPoint+0x38>
/home/aom1/Work/Linux/target/STM32MP1-DK2/buildroot/buildroot/output/build/optee-os-custom/ta/remoteproc/remoteproc_core.c:649
     c20:	4836      	ldr	r0, [pc, #216]	; (cfc <TA_InvokeCommandEntryPoint+0x508>)
     c22:	2300      	movs	r3, #0
     c24:	9301      	str	r3, [sp, #4]
     c26:	2205      	movs	r2, #5
     c28:	4478      	add	r0, pc
     c2a:	462b      	mov	r3, r5
     c2c:	9600      	str	r6, [sp, #0]
     c2e:	f04f 31ff 	mov.w	r1, #4294967295	; 0xffffffff
     c32:	6800      	ldr	r0, [r0, #0]
     c34:	f7ff fbd2 	bl	3dc <TEE_InvokeTACommand>
/home/aom1/Work/Linux/target/STM32MP1-DK2/buildroot/buildroot/output/build/optee-os-custom/ta/remoteproc/remoteproc_core.c:652
     c38:	4604      	mov	r4, r0
     c3a:	2800      	cmp	r0, #0
     c3c:	f47f adf6 	bne.w	82c <TA_InvokeCommandEntryPoint+0x38>
/home/aom1/Work/Linux/target/STM32MP1-DK2/buildroot/buildroot/output/build/optee-os-custom/ta/remoteproc/remoteproc_core.c:653
     c40:	2302      	movs	r3, #2
     c42:	61bb      	str	r3, [r7, #24]
     c44:	e5f2      	b.n	82c <TA_InvokeCommandEntryPoint+0x38>
remoteproc_stop_fw():
/home/aom1/Work/Linux/target/STM32MP1-DK2/buildroot/buildroot/output/build/optee-os-custom/ta/remoteproc/remoteproc_core.c:672
     c46:	2d01      	cmp	r5, #1
     c48:	f47f adef 	bne.w	82a <TA_InvokeCommandEntryPoint+0x36>
/home/aom1/Work/Linux/target/STM32MP1-DK2/buildroot/buildroot/output/build/optee-os-custom/ta/remoteproc/remoteproc_core.c:675
     c4c:	6830      	ldr	r0, [r6, #0]
     c4e:	f7ff fce7 	bl	620 <remoteproc_find_firmware>
/home/aom1/Work/Linux/target/STM32MP1-DK2/buildroot/buildroot/output/build/optee-os-custom/ta/remoteproc/remoteproc_core.c:676
     c52:	4607      	mov	r7, r0
     c54:	2800      	cmp	r0, #0
     c56:	f43f ade8 	beq.w	82a <TA_InvokeCommandEntryPoint+0x36>
/home/aom1/Work/Linux/target/STM32MP1-DK2/buildroot/buildroot/output/build/optee-os-custom/ta/remoteproc/remoteproc_core.c:679
     c5a:	6984      	ldr	r4, [r0, #24]
     c5c:	2c00      	cmp	r4, #0
     c5e:	f43f ade5 	beq.w	82c <TA_InvokeCommandEntryPoint+0x38>
     c62:	2c02      	cmp	r4, #2
     c64:	d11e      	bne.n	ca4 <TA_InvokeCommandEntryPoint+0x4b0>
/home/aom1/Work/Linux/target/STM32MP1-DK2/buildroot/buildroot/output/build/optee-os-custom/ta/remoteproc/remoteproc_core.c:687
     c66:	4826      	ldr	r0, [pc, #152]	; (d00 <TA_InvokeCommandEntryPoint+0x50c>)
     c68:	2300      	movs	r3, #0
     c6a:	9301      	str	r3, [sp, #4]
     c6c:	2206      	movs	r2, #6
     c6e:	4478      	add	r0, pc
     c70:	462b      	mov	r3, r5
     c72:	9600      	str	r6, [sp, #0]
     c74:	f04f 31ff 	mov.w	r1, #4294967295	; 0xffffffff
     c78:	6800      	ldr	r0, [r0, #0]
     c7a:	f7ff fbaf 	bl	3dc <TEE_InvokeTACommand>
/home/aom1/Work/Linux/target/STM32MP1-DK2/buildroot/buildroot/output/build/optee-os-custom/ta/remoteproc/remoteproc_core.c:690
     c7e:	4604      	mov	r4, r0
     c80:	2800      	cmp	r0, #0
     c82:	f47f add3 	bne.w	82c <TA_InvokeCommandEntryPoint+0x38>
/home/aom1/Work/Linux/target/STM32MP1-DK2/buildroot/buildroot/output/build/optee-os-custom/ta/remoteproc/remoteproc_core.c:691
     c86:	61b8      	str	r0, [r7, #24]
     c88:	e5d0      	b.n	82c <TA_InvokeCommandEntryPoint+0x38>
remoteproc_get_rsc_table():
/home/aom1/Work/Linux/target/STM32MP1-DK2/buildroot/buildroot/output/build/optee-os-custom/ta/remoteproc/remoteproc_core.c:709
     c8a:	f240 2321 	movw	r3, #545	; 0x221
     c8e:	429d      	cmp	r5, r3
     c90:	f47f adcb 	bne.w	82a <TA_InvokeCommandEntryPoint+0x36>
/home/aom1/Work/Linux/target/STM32MP1-DK2/buildroot/buildroot/output/build/optee-os-custom/ta/remoteproc/remoteproc_core.c:712
     c94:	6830      	ldr	r0, [r6, #0]
     c96:	f7ff fcc3 	bl	620 <remoteproc_find_firmware>
/home/aom1/Work/Linux/target/STM32MP1-DK2/buildroot/buildroot/output/build/optee-os-custom/ta/remoteproc/remoteproc_core.c:713
     c9a:	2800      	cmp	r0, #0
     c9c:	f43f adc5 	beq.w	82a <TA_InvokeCommandEntryPoint+0x36>
/home/aom1/Work/Linux/target/STM32MP1-DK2/buildroot/buildroot/output/build/optee-os-custom/ta/remoteproc/remoteproc_core.c:716
     ca0:	6983      	ldr	r3, [r0, #24]
     ca2:	b90b      	cbnz	r3, ca8 <TA_InvokeCommandEntryPoint+0x4b4>
remoteproc_start_fw():
/home/aom1/Work/Linux/target/STM32MP1-DK2/buildroot/buildroot/output/build/optee-os-custom/ta/remoteproc/remoteproc_core.c:643
     ca4:	4c0e      	ldr	r4, [pc, #56]	; (ce0 <TA_InvokeCommandEntryPoint+0x4ec>)
     ca6:	e5c1      	b.n	82c <TA_InvokeCommandEntryPoint+0x38>
remoteproc_get_rsc_table():
/home/aom1/Work/Linux/target/STM32MP1-DK2/buildroot/buildroot/output/build/optee-os-custom/ta/remoteproc/remoteproc_core.c:719
     ca8:	6903      	ldr	r3, [r0, #16]
reg_pair_from_64():
/home/aom1/Work/Linux/target/STM32MP1-DK2/buildroot/buildroot/output/build/optee-os-custom/out/export-ta_arm32/include/util.h:172
     caa:	2400      	movs	r4, #0
     cac:	60f4      	str	r4, [r6, #12]
/home/aom1/Work/Linux/target/STM32MP1-DK2/buildroot/buildroot/output/build/optee-os-custom/out/export-ta_arm32/include/util.h:173
     cae:	60b3      	str	r3, [r6, #8]
remoteproc_get_rsc_table():
/home/aom1/Work/Linux/target/STM32MP1-DK2/buildroot/buildroot/output/build/optee-os-custom/ta/remoteproc/remoteproc_core.c:721
     cb0:	6943      	ldr	r3, [r0, #20]
reg_pair_from_64():
/home/aom1/Work/Linux/target/STM32MP1-DK2/buildroot/buildroot/output/build/optee-os-custom/out/export-ta_arm32/include/util.h:172
     cb2:	6174      	str	r4, [r6, #20]
/home/aom1/Work/Linux/target/STM32MP1-DK2/buildroot/buildroot/output/build/optee-os-custom/out/export-ta_arm32/include/util.h:173
     cb4:	6133      	str	r3, [r6, #16]
remoteproc_get_rsc_table():
/home/aom1/Work/Linux/target/STM32MP1-DK2/buildroot/buildroot/output/build/optee-os-custom/ta/remoteproc/remoteproc_core.c:724
     cb6:	e5b9      	b.n	82c <TA_InvokeCommandEntryPoint+0x38>
TA_InvokeCommandEntryPoint():
/home/aom1/Work/Linux/target/STM32MP1-DK2/buildroot/buildroot/output/build/optee-os-custom/ta/remoteproc/remoteproc_core.c:777
     cb8:	4c04      	ldr	r4, [pc, #16]	; (ccc <TA_InvokeCommandEntryPoint+0x4d8>)
     cba:	e5b7      	b.n	82c <TA_InvokeCommandEntryPoint+0x38>
remoteproc_load_fw():
/home/aom1/Work/Linux/target/STM32MP1-DK2/buildroot/buildroot/output/build/optee-os-custom/ta/remoteproc/remoteproc_core.c:589
     cbc:	4c05      	ldr	r4, [pc, #20]	; (cd4 <TA_InvokeCommandEntryPoint+0x4e0>)
     cbe:	e5b5      	b.n	82c <TA_InvokeCommandEntryPoint+0x38>
TA_InvokeCommandEntryPoint():
/home/aom1/Work/Linux/target/STM32MP1-DK2/buildroot/buildroot/output/build/optee-os-custom/ta/remoteproc/remoteproc_core.c:781
     cc0:	4620      	mov	r0, r4
     cc2:	b011      	add	sp, #68	; 0x44
     cc4:	ecbd 8b02 	vpop	{d8}
     cc8:	e8bd 8ff0 	ldmia.w	sp!, {r4, r5, r6, r7, r8, r9, sl, fp, pc}
     ccc:	ffff0009 	.word	0xffff0009
     cd0:	f0100001 	.word	0xf0100001
     cd4:	ffff000c 	.word	0xffff000c
     cd8:	ffff000b 	.word	0xffff000b
     cdc:	ffff0001 	.word	0xffff0001
     ce0:	ffff0007 	.word	0xffff0007
     ce4:	0000a2aa 	.word	0x0000a2aa
     ce8:	00009e34 	.word	0x00009e34
     cec:	fffffad7 	.word	0xfffffad7
     cf0:	0000b710 	.word	0x0000b710
     cf4:	0000a246 	.word	0x0000a246
     cf8:	00009da8 	.word	0x00009da8
     cfc:	0000b69c 	.word	0x0000b69c
     d00:	0000b656 	.word	0x0000b656

00000d04 <va_in_fwm_image_range>:
va_in_fwm_image_range():
/home/aom1/Work/Linux/target/STM32MP1-DK2/buildroot/buildroot/output/build/optee-os-custom/ta/remoteproc/elf_parser.c:17
     d04:	2a00      	cmp	r2, #0
/home/aom1/Work/Linux/target/STM32MP1-DK2/buildroot/buildroot/output/build/optee-os-custom/ta/remoteproc/elf_parser.c:14
     d06:	b508      	push	{r3, lr}
/home/aom1/Work/Linux/target/STM32MP1-DK2/buildroot/buildroot/output/build/optee-os-custom/ta/remoteproc/elf_parser.c:17
     d08:	da0a      	bge.n	d20 <va_in_fwm_image_range+0x1c>
     d0a:	4b0a      	ldr	r3, [pc, #40]	; (d34 <va_in_fwm_image_range+0x30>)
     d0c:	2211      	movs	r2, #17
     d0e:	490a      	ldr	r1, [pc, #40]	; (d38 <va_in_fwm_image_range+0x34>)
     d10:	480a      	ldr	r0, [pc, #40]	; (d3c <va_in_fwm_image_range+0x38>)
     d12:	447b      	add	r3, pc
     d14:	4479      	add	r1, pc
     d16:	4478      	add	r0, pc
     d18:	f001 f806 	bl	1d28 <_assert_log>
     d1c:	f001 f818 	bl	1d50 <_assert_break>
/home/aom1/Work/Linux/target/STM32MP1-DK2/buildroot/buildroot/output/build/optee-os-custom/ta/remoteproc/elf_parser.c:18 (discriminator 2)
     d20:	4288      	cmp	r0, r1
     d22:	d305      	bcc.n	d30 <va_in_fwm_image_range+0x2c>
/home/aom1/Work/Linux/target/STM32MP1-DK2/buildroot/buildroot/output/build/optee-os-custom/ta/remoteproc/elf_parser.c:18 (discriminator 1)
     d24:	4411      	add	r1, r2
     d26:	4288      	cmp	r0, r1
     d28:	bf2c      	ite	cs
     d2a:	2000      	movcs	r0, #0
     d2c:	2001      	movcc	r0, #1
/home/aom1/Work/Linux/target/STM32MP1-DK2/buildroot/buildroot/output/build/optee-os-custom/ta/remoteproc/elf_parser.c:19 (discriminator 6)
     d2e:	bd08      	pop	{r3, pc}
/home/aom1/Work/Linux/target/STM32MP1-DK2/buildroot/buildroot/output/build/optee-os-custom/ta/remoteproc/elf_parser.c:18
     d30:	2000      	movs	r0, #0
     d32:	e7fc      	b.n	d2e <va_in_fwm_image_range+0x2a>
     d34:	0000a235 	.word	0x0000a235
     d38:	0000a12f 	.word	0x0000a12f
     d3c:	0000a148 	.word	0x0000a148

00000d40 <e32_parse_ehdr>:
e32_parse_ehdr():
/home/aom1/Work/Linux/target/STM32MP1-DK2/buildroot/buildroot/output/build/optee-os-custom/ta/remoteproc/elf_parser.c:28
     d40:	b507      	push	{r0, r1, r2, lr}
/home/aom1/Work/Linux/target/STM32MP1-DK2/buildroot/buildroot/output/build/optee-os-custom/ta/remoteproc/elf_parser.c:31
     d42:	b110      	cbz	r0, d4a <e32_parse_ehdr+0xa>
/home/aom1/Work/Linux/target/STM32MP1-DK2/buildroot/buildroot/output/build/optee-os-custom/ta/remoteproc/elf_parser.c:31 (discriminator 1)
     d44:	f010 0303 	ands.w	r3, r0, #3
     d48:	d010      	beq.n	d6c <e32_parse_ehdr+0x2c>
/home/aom1/Work/Linux/target/STM32MP1-DK2/buildroot/buildroot/output/build/optee-os-custom/ta/remoteproc/elf_parser.c:32
     d4a:	4b25      	ldr	r3, [pc, #148]	; (de0 <e32_parse_ehdr+0xa0>)
     d4c:	2120      	movs	r1, #32
     d4e:	9001      	str	r0, [sp, #4]
     d50:	4824      	ldr	r0, [pc, #144]	; (de4 <e32_parse_ehdr+0xa4>)
     d52:	447b      	add	r3, pc
     d54:	9300      	str	r3, [sp, #0]
     d56:	2301      	movs	r3, #1
     d58:	4478      	add	r0, pc
     d5a:	461a      	mov	r2, r3
     d5c:	3016      	adds	r0, #22
     d5e:	f000 fabd 	bl	12dc <trace_printf>
/home/aom1/Work/Linux/target/STM32MP1-DK2/buildroot/buildroot/output/build/optee-os-custom/ta/remoteproc/elf_parser.c:33
     d62:	4b1b      	ldr	r3, [pc, #108]	; (dd0 <e32_parse_ehdr+0x90>)
/home/aom1/Work/Linux/target/STM32MP1-DK2/buildroot/buildroot/output/build/optee-os-custom/ta/remoteproc/elf_parser.c:56
     d64:	4618      	mov	r0, r3
     d66:	b003      	add	sp, #12
     d68:	f85d fb04 	ldr.w	pc, [sp], #4
/home/aom1/Work/Linux/target/STM32MP1-DK2/buildroot/buildroot/output/build/optee-os-custom/ta/remoteproc/elf_parser.c:36
     d6c:	2933      	cmp	r1, #51	; 0x33
     d6e:	d92c      	bls.n	dca <e32_parse_ehdr+0x8a>
/home/aom1/Work/Linux/target/STM32MP1-DK2/buildroot/buildroot/output/build/optee-os-custom/ta/remoteproc/elf_parser.c:37 (discriminator 1)
     d70:	6a02      	ldr	r2, [r0, #32]
     d72:	3228      	adds	r2, #40	; 0x28
/home/aom1/Work/Linux/target/STM32MP1-DK2/buildroot/buildroot/output/build/optee-os-custom/ta/remoteproc/elf_parser.c:36 (discriminator 1)
     d74:	428a      	cmp	r2, r1
     d76:	d828      	bhi.n	dca <e32_parse_ehdr+0x8a>
/home/aom1/Work/Linux/target/STM32MP1-DK2/buildroot/buildroot/output/build/optee-os-custom/ta/remoteproc/elf_parser.c:40
     d78:	6801      	ldr	r1, [r0, #0]
     d7a:	4a16      	ldr	r2, [pc, #88]	; (dd4 <e32_parse_ehdr+0x94>)
     d7c:	4291      	cmp	r1, r2
     d7e:	d10b      	bne.n	d98 <e32_parse_ehdr+0x58>
/home/aom1/Work/Linux/target/STM32MP1-DK2/buildroot/buildroot/output/build/optee-os-custom/ta/remoteproc/elf_parser.c:41
     d80:	6842      	ldr	r2, [r0, #4]
     d82:	f002 12ff 	and.w	r2, r2, #16711935	; 0xff00ff
     d86:	f1b2 1f01 	cmp.w	r2, #65537	; 0x10001
     d8a:	d105      	bne.n	d98 <e32_parse_ehdr+0x58>
/home/aom1/Work/Linux/target/STM32MP1-DK2/buildroot/buildroot/output/build/optee-os-custom/ta/remoteproc/elf_parser.c:42
     d8c:	8d42      	ldrh	r2, [r0, #42]	; 0x2a
     d8e:	2a20      	cmp	r2, #32
     d90:	d102      	bne.n	d98 <e32_parse_ehdr+0x58>
/home/aom1/Work/Linux/target/STM32MP1-DK2/buildroot/buildroot/output/build/optee-os-custom/ta/remoteproc/elf_parser.c:43
     d92:	8dc2      	ldrh	r2, [r0, #46]	; 0x2e
     d94:	2a28      	cmp	r2, #40	; 0x28
     d96:	d00c      	beq.n	db2 <e32_parse_ehdr+0x72>
/home/aom1/Work/Linux/target/STM32MP1-DK2/buildroot/buildroot/output/build/optee-os-custom/ta/remoteproc/elf_parser.c:45
     d98:	4b13      	ldr	r3, [pc, #76]	; (de8 <e32_parse_ehdr+0xa8>)
     d9a:	212d      	movs	r1, #45	; 0x2d
     d9c:	4813      	ldr	r0, [pc, #76]	; (dec <e32_parse_ehdr+0xac>)
     d9e:	447b      	add	r3, pc
     da0:	9300      	str	r3, [sp, #0]
     da2:	2301      	movs	r3, #1
     da4:	4478      	add	r0, pc
     da6:	461a      	mov	r2, r3
/home/aom1/Work/Linux/target/STM32MP1-DK2/buildroot/buildroot/output/build/optee-os-custom/ta/remoteproc/elf_parser.c:51
     da8:	3016      	adds	r0, #22
     daa:	f000 fa97 	bl	12dc <trace_printf>
/home/aom1/Work/Linux/target/STM32MP1-DK2/buildroot/buildroot/output/build/optee-os-custom/ta/remoteproc/elf_parser.c:52
     dae:	4b0a      	ldr	r3, [pc, #40]	; (dd8 <e32_parse_ehdr+0x98>)
     db0:	e7d8      	b.n	d64 <e32_parse_ehdr+0x24>
/home/aom1/Work/Linux/target/STM32MP1-DK2/buildroot/buildroot/output/build/optee-os-custom/ta/remoteproc/elf_parser.c:50
     db2:	8d82      	ldrh	r2, [r0, #44]	; 0x2c
     db4:	2a00      	cmp	r2, #0
     db6:	d1d5      	bne.n	d64 <e32_parse_ehdr+0x24>
/home/aom1/Work/Linux/target/STM32MP1-DK2/buildroot/buildroot/output/build/optee-os-custom/ta/remoteproc/elf_parser.c:51
     db8:	4b0d      	ldr	r3, [pc, #52]	; (df0 <e32_parse_ehdr+0xb0>)
     dba:	2133      	movs	r1, #51	; 0x33
     dbc:	480d      	ldr	r0, [pc, #52]	; (df4 <e32_parse_ehdr+0xb4>)
     dbe:	447b      	add	r3, pc
     dc0:	9300      	str	r3, [sp, #0]
     dc2:	2301      	movs	r3, #1
     dc4:	4478      	add	r0, pc
     dc6:	461a      	mov	r2, r3
     dc8:	e7ee      	b.n	da8 <e32_parse_ehdr+0x68>
/home/aom1/Work/Linux/target/STM32MP1-DK2/buildroot/buildroot/output/build/optee-os-custom/ta/remoteproc/elf_parser.c:38
     dca:	4b04      	ldr	r3, [pc, #16]	; (ddc <e32_parse_ehdr+0x9c>)
     dcc:	e7ca      	b.n	d64 <e32_parse_ehdr+0x24>
     dce:	bf00      	nop
     dd0:	ffff0006 	.word	0xffff0006
     dd4:	464c457f 	.word	0x464c457f
     dd8:	ffff0005 	.word	0xffff0005
     ddc:	f0100001 	.word	0xf0100001
     de0:	0000a11f 	.word	0x0000a11f
     de4:	0000a1ef 	.word	0x0000a1ef
     de8:	0000a0e9 	.word	0x0000a0e9
     dec:	0000a1a3 	.word	0x0000a1a3
     df0:	0000a0d8 	.word	0x0000a0d8
     df4:	0000a183 	.word	0x0000a183

00000df8 <e32_parser_load_elf_image>:
e32_parser_load_elf_image():
/home/aom1/Work/Linux/target/STM32MP1-DK2/buildroot/buildroot/output/build/optee-os-custom/ta/remoteproc/elf_parser.c:72
     df8:	e92d 4ff7 	stmdb	sp!, {r0, r1, r2, r4, r5, r6, r7, r8, r9, sl, fp, lr}
     dfc:	4605      	mov	r5, r0
/home/aom1/Work/Linux/target/STM32MP1-DK2/buildroot/buildroot/output/build/optee-os-custom/ta/remoteproc/elf_parser.c:74
     dfe:	69c4      	ldr	r4, [r0, #28]
/home/aom1/Work/Linux/target/STM32MP1-DK2/buildroot/buildroot/output/build/optee-os-custom/ta/remoteproc/elf_parser.c:72
     e00:	460e      	mov	r6, r1
     e02:	461f      	mov	r7, r3
/home/aom1/Work/Linux/target/STM32MP1-DK2/buildroot/buildroot/output/build/optee-os-custom/ta/remoteproc/elf_parser.c:78
     e04:	4690      	mov	r8, r2
/home/aom1/Work/Linux/target/STM32MP1-DK2/buildroot/buildroot/output/build/optee-os-custom/ta/remoteproc/elf_parser.c:74
     e06:	4404      	add	r4, r0
/home/aom1/Work/Linux/target/STM32MP1-DK2/buildroot/buildroot/output/build/optee-os-custom/ta/remoteproc/elf_parser.c:78
     e08:	2a00      	cmp	r2, #0
     e0a:	d042      	beq.n	e92 <e32_parser_load_elf_image+0x9a>
/home/aom1/Work/Linux/target/STM32MP1-DK2/buildroot/buildroot/output/build/optee-os-custom/ta/remoteproc/elf_parser.c:81
     e0c:	f014 0903 	ands.w	r9, r4, #3
     e10:	d003      	beq.n	e1a <e32_parser_load_elf_image+0x22>
/home/aom1/Work/Linux/target/STM32MP1-DK2/buildroot/buildroot/output/build/optee-os-custom/ta/remoteproc/elf_parser.c:83
     e12:	4821      	ldr	r0, [pc, #132]	; (e98 <e32_parser_load_elf_image+0xa0>)
/home/aom1/Work/Linux/target/STM32MP1-DK2/buildroot/buildroot/output/build/optee-os-custom/ta/remoteproc/elf_parser.c:109
     e14:	b003      	add	sp, #12
     e16:	e8bd 8ff0 	ldmia.w	sp!, {r4, r5, r6, r7, r8, r9, sl, fp, pc}
/home/aom1/Work/Linux/target/STM32MP1-DK2/buildroot/buildroot/output/build/optee-os-custom/ta/remoteproc/elf_parser.c:82 (discriminator 1)
     e1a:	460a      	mov	r2, r1
     e1c:	4601      	mov	r1, r0
     e1e:	4620      	mov	r0, r4
     e20:	f7ff ff70 	bl	d04 <va_in_fwm_image_range>
/home/aom1/Work/Linux/target/STM32MP1-DK2/buildroot/buildroot/output/build/optee-os-custom/ta/remoteproc/elf_parser.c:81 (discriminator 1)
     e24:	2800      	cmp	r0, #0
     e26:	d0f4      	beq.n	e12 <e32_parser_load_elf_image+0x1a>
     e28:	341f      	adds	r4, #31
/home/aom1/Work/Linux/target/STM32MP1-DK2/buildroot/buildroot/output/build/optee-os-custom/ta/remoteproc/elf_parser.c:85 (discriminator 1)
     e2a:	8dab      	ldrh	r3, [r5, #44]	; 0x2c
     e2c:	454b      	cmp	r3, r9
     e2e:	d801      	bhi.n	e34 <e32_parser_load_elf_image+0x3c>
/home/aom1/Work/Linux/target/STM32MP1-DK2/buildroot/buildroot/output/build/optee-os-custom/ta/remoteproc/elf_parser.c:108
     e30:	2000      	movs	r0, #0
     e32:	e7ef      	b.n	e14 <e32_parser_load_elf_image+0x1c>
/home/aom1/Work/Linux/target/STM32MP1-DK2/buildroot/buildroot/output/build/optee-os-custom/ta/remoteproc/elf_parser.c:89
     e34:	4632      	mov	r2, r6
     e36:	4629      	mov	r1, r5
     e38:	4620      	mov	r0, r4
     e3a:	f7ff ff63 	bl	d04 <va_in_fwm_image_range>
     e3e:	2800      	cmp	r0, #0
     e40:	d0e7      	beq.n	e12 <e32_parser_load_elf_image+0x1a>
/home/aom1/Work/Linux/target/STM32MP1-DK2/buildroot/buildroot/output/build/optee-os-custom/ta/remoteproc/elf_parser.c:93
     e42:	f854 3c1f 	ldr.w	r3, [r4, #-31]
     e46:	2b01      	cmp	r3, #1
     e48:	d003      	beq.n	e52 <e32_parser_load_elf_image+0x5a>
/home/aom1/Work/Linux/target/STM32MP1-DK2/buildroot/buildroot/output/build/optee-os-custom/ta/remoteproc/elf_parser.c:85
     e4a:	f109 0901 	add.w	r9, r9, #1
     e4e:	3420      	adds	r4, #32
     e50:	e7eb      	b.n	e2a <e32_parser_load_elf_image+0x32>
/home/aom1/Work/Linux/target/STM32MP1-DK2/buildroot/buildroot/output/build/optee-os-custom/ta/remoteproc/elf_parser.c:96
     e52:	f854 3c1b 	ldr.w	r3, [r4, #-27]
/home/aom1/Work/Linux/target/STM32MP1-DK2/buildroot/buildroot/output/build/optee-os-custom/ta/remoteproc/elf_parser.c:98
     e56:	4632      	mov	r2, r6
     e58:	4629      	mov	r1, r5
/home/aom1/Work/Linux/target/STM32MP1-DK2/buildroot/buildroot/output/build/optee-os-custom/ta/remoteproc/elf_parser.c:96
     e5a:	eb05 0a03 	add.w	sl, r5, r3
/home/aom1/Work/Linux/target/STM32MP1-DK2/buildroot/buildroot/output/build/optee-os-custom/ta/remoteproc/elf_parser.c:98
     e5e:	4650      	mov	r0, sl
     e60:	f7ff ff50 	bl	d04 <va_in_fwm_image_range>
     e64:	2800      	cmp	r0, #0
     e66:	d0d4      	beq.n	e12 <e32_parser_load_elf_image+0x1a>
/home/aom1/Work/Linux/target/STM32MP1-DK2/buildroot/buildroot/output/build/optee-os-custom/ta/remoteproc/elf_parser.c:99 (discriminator 1)
     e68:	f854 bc0f 	ldr.w	fp, [r4, #-15]
     e6c:	4632      	mov	r2, r6
     e6e:	4629      	mov	r1, r5
     e70:	eb0a 000b 	add.w	r0, sl, fp
     e74:	f7ff ff46 	bl	d04 <va_in_fwm_image_range>
/home/aom1/Work/Linux/target/STM32MP1-DK2/buildroot/buildroot/output/build/optee-os-custom/ta/remoteproc/elf_parser.c:98 (discriminator 1)
     e78:	2800      	cmp	r0, #0
     e7a:	d0ca      	beq.n	e12 <e32_parser_load_elf_image+0x1a>
/home/aom1/Work/Linux/target/STM32MP1-DK2/buildroot/buildroot/output/build/optee-os-custom/ta/remoteproc/elf_parser.c:102
     e7c:	9700      	str	r7, [sp, #0]
     e7e:	4659      	mov	r1, fp
     e80:	f854 3c0b 	ldr.w	r3, [r4, #-11]
     e84:	4650      	mov	r0, sl
     e86:	f854 2c13 	ldr.w	r2, [r4, #-19]
     e8a:	47c0      	blx	r8
/home/aom1/Work/Linux/target/STM32MP1-DK2/buildroot/buildroot/output/build/optee-os-custom/ta/remoteproc/elf_parser.c:104
     e8c:	2800      	cmp	r0, #0
     e8e:	d0dc      	beq.n	e4a <e32_parser_load_elf_image+0x52>
     e90:	e7c0      	b.n	e14 <e32_parser_load_elf_image+0x1c>
/home/aom1/Work/Linux/target/STM32MP1-DK2/buildroot/buildroot/output/build/optee-os-custom/ta/remoteproc/elf_parser.c:79
     e92:	4802      	ldr	r0, [pc, #8]	; (e9c <e32_parser_load_elf_image+0xa4>)
     e94:	e7be      	b.n	e14 <e32_parser_load_elf_image+0x1c>
     e96:	bf00      	nop
     e98:	f0100001 	.word	0xf0100001
     e9c:	ffff0006 	.word	0xffff0006

00000ea0 <e32_parser_find_rsc_table>:
e32_parser_find_rsc_table():
/home/aom1/Work/Linux/target/STM32MP1-DK2/buildroot/buildroot/output/build/optee-os-custom/ta/remoteproc/elf_parser.c:114
     ea0:	e92d 4ff0 	stmdb	sp!, {r4, r5, r6, r7, r8, r9, sl, fp, lr}
     ea4:	b085      	sub	sp, #20
/home/aom1/Work/Linux/target/STM32MP1-DK2/buildroot/buildroot/output/build/optee-os-custom/ta/remoteproc/elf_parser.c:122
     ea6:	6a04      	ldr	r4, [r0, #32]
/home/aom1/Work/Linux/target/STM32MP1-DK2/buildroot/buildroot/output/build/optee-os-custom/ta/remoteproc/elf_parser.c:114
     ea8:	4605      	mov	r5, r0
     eaa:	9203      	str	r2, [sp, #12]
     eac:	460e      	mov	r6, r1
/home/aom1/Work/Linux/target/STM32MP1-DK2/buildroot/buildroot/output/build/optee-os-custom/ta/remoteproc/elf_parser.c:122
     eae:	4404      	add	r4, r0
/home/aom1/Work/Linux/target/STM32MP1-DK2/buildroot/buildroot/output/build/optee-os-custom/ta/remoteproc/elf_parser.c:114
     eb0:	4699      	mov	r9, r3
/home/aom1/Work/Linux/target/STM32MP1-DK2/buildroot/buildroot/output/build/optee-os-custom/ta/remoteproc/elf_parser.c:123
     eb2:	f014 0803 	ands.w	r8, r4, #3
     eb6:	f040 80af 	bne.w	1018 <e32_parser_find_rsc_table+0x178>
/home/aom1/Work/Linux/target/STM32MP1-DK2/buildroot/buildroot/output/build/optee-os-custom/ta/remoteproc/elf_parser.c:124 (discriminator 1)
     eba:	460a      	mov	r2, r1
     ebc:	4601      	mov	r1, r0
     ebe:	4620      	mov	r0, r4
     ec0:	f7ff ff20 	bl	d04 <va_in_fwm_image_range>
/home/aom1/Work/Linux/target/STM32MP1-DK2/buildroot/buildroot/output/build/optee-os-custom/ta/remoteproc/elf_parser.c:123 (discriminator 1)
     ec4:	2800      	cmp	r0, #0
     ec6:	f000 80a7 	beq.w	1018 <e32_parser_find_rsc_table+0x178>
/home/aom1/Work/Linux/target/STM32MP1-DK2/buildroot/buildroot/output/build/optee-os-custom/ta/remoteproc/elf_parser.c:127
     eca:	8e6b      	ldrh	r3, [r5, #50]	; 0x32
     ecc:	2228      	movs	r2, #40	; 0x28
/home/aom1/Work/Linux/target/STM32MP1-DK2/buildroot/buildroot/output/build/optee-os-custom/ta/remoteproc/elf_parser.c:128
     ece:	4629      	mov	r1, r5
/home/aom1/Work/Linux/target/STM32MP1-DK2/buildroot/buildroot/output/build/optee-os-custom/ta/remoteproc/elf_parser.c:127
     ed0:	fb02 4303 	mla	r3, r2, r3, r4
/home/aom1/Work/Linux/target/STM32MP1-DK2/buildroot/buildroot/output/build/optee-os-custom/ta/remoteproc/elf_parser.c:128
     ed4:	4632      	mov	r2, r6
/home/aom1/Work/Linux/target/STM32MP1-DK2/buildroot/buildroot/output/build/optee-os-custom/ta/remoteproc/elf_parser.c:127
     ed6:	691f      	ldr	r7, [r3, #16]
     ed8:	442f      	add	r7, r5
/home/aom1/Work/Linux/target/STM32MP1-DK2/buildroot/buildroot/output/build/optee-os-custom/ta/remoteproc/elf_parser.c:128
     eda:	4638      	mov	r0, r7
     edc:	f7ff ff12 	bl	d04 <va_in_fwm_image_range>
     ee0:	2800      	cmp	r0, #0
     ee2:	f000 8099 	beq.w	1018 <e32_parser_find_rsc_table+0x178>
/home/aom1/Work/Linux/target/STM32MP1-DK2/buildroot/buildroot/output/build/optee-os-custom/ta/remoteproc/elf_parser.c:138
     ee6:	f8df b140 	ldr.w	fp, [pc, #320]	; 1028 <e32_parser_find_rsc_table+0x188>
/home/aom1/Work/Linux/target/STM32MP1-DK2/buildroot/buildroot/output/build/optee-os-custom/ta/remoteproc/elf_parser.c:131
     eea:	f8b5 a030 	ldrh.w	sl, [r5, #48]	; 0x30
/home/aom1/Work/Linux/target/STM32MP1-DK2/buildroot/buildroot/output/build/optee-os-custom/ta/remoteproc/elf_parser.c:138
     eee:	44fb      	add	fp, pc
/home/aom1/Work/Linux/target/STM32MP1-DK2/buildroot/buildroot/output/build/optee-os-custom/ta/remoteproc/elf_parser.c:131 (discriminator 1)
     ef0:	45c2      	cmp	sl, r8
     ef2:	dc01      	bgt.n	ef8 <e32_parser_find_rsc_table+0x58>
/home/aom1/Work/Linux/target/STM32MP1-DK2/buildroot/buildroot/output/build/optee-os-custom/ta/remoteproc/elf_parser.c:143
     ef4:	4849      	ldr	r0, [pc, #292]	; (101c <e32_parser_find_rsc_table+0x17c>)
     ef6:	e028      	b.n	f4a <e32_parser_find_rsc_table+0xaa>
/home/aom1/Work/Linux/target/STM32MP1-DK2/buildroot/buildroot/output/build/optee-os-custom/ta/remoteproc/elf_parser.c:135
     ef8:	4632      	mov	r2, r6
     efa:	4629      	mov	r1, r5
     efc:	4620      	mov	r0, r4
     efe:	f7ff ff01 	bl	d04 <va_in_fwm_image_range>
     f02:	2800      	cmp	r0, #0
     f04:	f000 8088 	beq.w	1018 <e32_parser_find_rsc_table+0x178>
/home/aom1/Work/Linux/target/STM32MP1-DK2/buildroot/buildroot/output/build/optee-os-custom/ta/remoteproc/elf_parser.c:138
     f08:	6820      	ldr	r0, [r4, #0]
     f0a:	4659      	mov	r1, fp
     f0c:	4438      	add	r0, r7
     f0e:	f009 fcbb 	bl	a888 <strcmp>
     f12:	b118      	cbz	r0, f1c <e32_parser_find_rsc_table+0x7c>
/home/aom1/Work/Linux/target/STM32MP1-DK2/buildroot/buildroot/output/build/optee-os-custom/ta/remoteproc/elf_parser.c:131
     f14:	f108 0801 	add.w	r8, r8, #1
     f18:	3428      	adds	r4, #40	; 0x28
     f1a:	e7e9      	b.n	ef0 <e32_parser_find_rsc_table+0x50>
/home/aom1/Work/Linux/target/STM32MP1-DK2/buildroot/buildroot/output/build/optee-os-custom/ta/remoteproc/elf_parser.c:132
     f1c:	6961      	ldr	r1, [r4, #20]
/home/aom1/Work/Linux/target/STM32MP1-DK2/buildroot/buildroot/output/build/optee-os-custom/ta/remoteproc/elf_parser.c:141
     f1e:	2900      	cmp	r1, #0
     f20:	d0e8      	beq.n	ef4 <e32_parser_find_rsc_table+0x54>
/home/aom1/Work/Linux/target/STM32MP1-DK2/buildroot/buildroot/output/build/optee-os-custom/ta/remoteproc/elf_parser.c:133
     f22:	6922      	ldr	r2, [r4, #16]
/home/aom1/Work/Linux/target/STM32MP1-DK2/buildroot/buildroot/output/build/optee-os-custom/ta/remoteproc/elf_parser.c:146
     f24:	188f      	adds	r7, r1, r2
     f26:	bf2c      	ite	cs
     f28:	2301      	movcs	r3, #1
     f2a:	2300      	movcc	r3, #0
     f2c:	42b7      	cmp	r7, r6
     f2e:	d800      	bhi.n	f32 <e32_parser_find_rsc_table+0x92>
/home/aom1/Work/Linux/target/STM32MP1-DK2/buildroot/buildroot/output/build/optee-os-custom/ta/remoteproc/elf_parser.c:146 (discriminator 1)
     f30:	b173      	cbz	r3, f50 <e32_parser_find_rsc_table+0xb0>
/home/aom1/Work/Linux/target/STM32MP1-DK2/buildroot/buildroot/output/build/optee-os-custom/ta/remoteproc/elf_parser.c:147
     f32:	4b3e      	ldr	r3, [pc, #248]	; (102c <e32_parser_find_rsc_table+0x18c>)
     f34:	2193      	movs	r1, #147	; 0x93
     f36:	483e      	ldr	r0, [pc, #248]	; (1030 <e32_parser_find_rsc_table+0x190>)
     f38:	447b      	add	r3, pc
     f3a:	9300      	str	r3, [sp, #0]
     f3c:	2301      	movs	r3, #1
     f3e:	4478      	add	r0, pc
     f40:	461a      	mov	r2, r3
/home/aom1/Work/Linux/target/STM32MP1-DK2/buildroot/buildroot/output/build/optee-os-custom/ta/remoteproc/elf_parser.c:152
     f42:	3025      	adds	r0, #37	; 0x25
     f44:	f000 f9ca 	bl	12dc <trace_printf>
/home/aom1/Work/Linux/target/STM32MP1-DK2/buildroot/buildroot/output/build/optee-os-custom/ta/remoteproc/elf_parser.c:153
     f48:	4835      	ldr	r0, [pc, #212]	; (1020 <e32_parser_find_rsc_table+0x180>)
/home/aom1/Work/Linux/target/STM32MP1-DK2/buildroot/buildroot/output/build/optee-os-custom/ta/remoteproc/elf_parser.c:186
     f4a:	b005      	add	sp, #20
     f4c:	e8bd 8ff0 	ldmia.w	sp!, {r4, r5, r6, r7, r8, r9, sl, fp, pc}
/home/aom1/Work/Linux/target/STM32MP1-DK2/buildroot/buildroot/output/build/optee-os-custom/ta/remoteproc/elf_parser.c:151
     f50:	290f      	cmp	r1, #15
     f52:	d808      	bhi.n	f66 <e32_parser_find_rsc_table+0xc6>
/home/aom1/Work/Linux/target/STM32MP1-DK2/buildroot/buildroot/output/build/optee-os-custom/ta/remoteproc/elf_parser.c:152
     f54:	4b37      	ldr	r3, [pc, #220]	; (1034 <e32_parser_find_rsc_table+0x194>)
     f56:	2198      	movs	r1, #152	; 0x98
     f58:	4837      	ldr	r0, [pc, #220]	; (1038 <e32_parser_find_rsc_table+0x198>)
     f5a:	447b      	add	r3, pc
     f5c:	9300      	str	r3, [sp, #0]
     f5e:	2301      	movs	r3, #1
     f60:	4478      	add	r0, pc
     f62:	461a      	mov	r2, r3
     f64:	e7ed      	b.n	f42 <e32_parser_find_rsc_table+0xa2>
/home/aom1/Work/Linux/target/STM32MP1-DK2/buildroot/buildroot/output/build/optee-os-custom/ta/remoteproc/elf_parser.c:156
     f66:	18ab      	adds	r3, r5, r2
/home/aom1/Work/Linux/target/STM32MP1-DK2/buildroot/buildroot/output/build/optee-os-custom/ta/remoteproc/elf_parser.c:157
     f68:	079e      	lsls	r6, r3, #30
     f6a:	d155      	bne.n	1018 <e32_parser_find_rsc_table+0x178>
/home/aom1/Work/Linux/target/STM32MP1-DK2/buildroot/buildroot/output/build/optee-os-custom/ta/remoteproc/elf_parser.c:160
     f6c:	5caa      	ldrb	r2, [r5, r2]
     f6e:	785d      	ldrb	r5, [r3, #1]
     f70:	ea42 2205 	orr.w	r2, r2, r5, lsl #8
     f74:	789d      	ldrb	r5, [r3, #2]
     f76:	ea42 4205 	orr.w	r2, r2, r5, lsl #16
     f7a:	78dd      	ldrb	r5, [r3, #3]
     f7c:	ea42 6205 	orr.w	r2, r2, r5, lsl #24
     f80:	2a01      	cmp	r2, #1
     f82:	d00c      	beq.n	f9e <e32_parser_find_rsc_table+0xfe>
/home/aom1/Work/Linux/target/STM32MP1-DK2/buildroot/buildroot/output/build/optee-os-custom/ta/remoteproc/elf_parser.c:161
     f84:	4b2d      	ldr	r3, [pc, #180]	; (103c <e32_parser_find_rsc_table+0x19c>)
     f86:	21a1      	movs	r1, #161	; 0xa1
     f88:	482d      	ldr	r0, [pc, #180]	; (1040 <e32_parser_find_rsc_table+0x1a0>)
     f8a:	447b      	add	r3, pc
     f8c:	9300      	str	r3, [sp, #0]
     f8e:	2301      	movs	r3, #1
     f90:	4478      	add	r0, pc
     f92:	9201      	str	r2, [sp, #4]
     f94:	3025      	adds	r0, #37	; 0x25
     f96:	461a      	mov	r2, r3
     f98:	f000 f9a0 	bl	12dc <trace_printf>
/home/aom1/Work/Linux/target/STM32MP1-DK2/buildroot/buildroot/output/build/optee-os-custom/ta/remoteproc/elf_parser.c:162
     f9c:	e7d4      	b.n	f48 <e32_parser_find_rsc_table+0xa8>
/home/aom1/Work/Linux/target/STM32MP1-DK2/buildroot/buildroot/output/build/optee-os-custom/ta/remoteproc/elf_parser.c:165
     f9e:	7a5d      	ldrb	r5, [r3, #9]
     fa0:	7a1a      	ldrb	r2, [r3, #8]
     fa2:	ea42 2205 	orr.w	r2, r2, r5, lsl #8
     fa6:	7a9d      	ldrb	r5, [r3, #10]
     fa8:	ea42 4205 	orr.w	r2, r2, r5, lsl #16
     fac:	7add      	ldrb	r5, [r3, #11]
     fae:	ea52 6205 	orrs.w	r2, r2, r5, lsl #24
     fb2:	d10a      	bne.n	fca <e32_parser_find_rsc_table+0x12a>
/home/aom1/Work/Linux/target/STM32MP1-DK2/buildroot/buildroot/output/build/optee-os-custom/ta/remoteproc/elf_parser.c:165 (discriminator 1)
     fb4:	7b5d      	ldrb	r5, [r3, #13]
     fb6:	7b1a      	ldrb	r2, [r3, #12]
     fb8:	ea42 2205 	orr.w	r2, r2, r5, lsl #8
     fbc:	7b9d      	ldrb	r5, [r3, #14]
     fbe:	ea42 4205 	orr.w	r2, r2, r5, lsl #16
     fc2:	7bdd      	ldrb	r5, [r3, #15]
     fc4:	ea52 6205 	orrs.w	r2, r2, r5, lsl #24
     fc8:	d008      	beq.n	fdc <e32_parser_find_rsc_table+0x13c>
/home/aom1/Work/Linux/target/STM32MP1-DK2/buildroot/buildroot/output/build/optee-os-custom/ta/remoteproc/elf_parser.c:166
     fca:	4b1e      	ldr	r3, [pc, #120]	; (1044 <e32_parser_find_rsc_table+0x1a4>)
     fcc:	21a6      	movs	r1, #166	; 0xa6
     fce:	481e      	ldr	r0, [pc, #120]	; (1048 <e32_parser_find_rsc_table+0x1a8>)
     fd0:	447b      	add	r3, pc
     fd2:	9300      	str	r3, [sp, #0]
     fd4:	2301      	movs	r3, #1
     fd6:	4478      	add	r0, pc
     fd8:	461a      	mov	r2, r3
     fda:	e7b2      	b.n	f42 <e32_parser_find_rsc_table+0xa2>
/home/aom1/Work/Linux/target/STM32MP1-DK2/buildroot/buildroot/output/build/optee-os-custom/ta/remoteproc/elf_parser.c:170
     fdc:	795d      	ldrb	r5, [r3, #5]
     fde:	791a      	ldrb	r2, [r3, #4]
     fe0:	ea42 2205 	orr.w	r2, r2, r5, lsl #8
     fe4:	799d      	ldrb	r5, [r3, #6]
     fe6:	79db      	ldrb	r3, [r3, #7]
     fe8:	ea42 4205 	orr.w	r2, r2, r5, lsl #16
     fec:	ea42 6303 	orr.w	r3, r2, r3, lsl #24
     ff0:	3304      	adds	r3, #4
     ff2:	ebb1 0f83 	cmp.w	r1, r3, lsl #2
     ff6:	d208      	bcs.n	100a <e32_parser_find_rsc_table+0x16a>
/home/aom1/Work/Linux/target/STM32MP1-DK2/buildroot/buildroot/output/build/optee-os-custom/ta/remoteproc/elf_parser.c:172
     ff8:	4b14      	ldr	r3, [pc, #80]	; (104c <e32_parser_find_rsc_table+0x1ac>)
     ffa:	21ac      	movs	r1, #172	; 0xac
     ffc:	4814      	ldr	r0, [pc, #80]	; (1050 <e32_parser_find_rsc_table+0x1b0>)
     ffe:	447b      	add	r3, pc
    1000:	9300      	str	r3, [sp, #0]
    1002:	2301      	movs	r3, #1
    1004:	4478      	add	r0, pc
    1006:	461a      	mov	r2, r3
    1008:	e79b      	b.n	f42 <e32_parser_find_rsc_table+0xa2>
/home/aom1/Work/Linux/target/STM32MP1-DK2/buildroot/buildroot/output/build/optee-os-custom/ta/remoteproc/elf_parser.c:179
    100a:	68e3      	ldr	r3, [r4, #12]
    100c:	9a03      	ldr	r2, [sp, #12]
    100e:	6013      	str	r3, [r2, #0]
/home/aom1/Work/Linux/target/STM32MP1-DK2/buildroot/buildroot/output/build/optee-os-custom/ta/remoteproc/elf_parser.c:180
    1010:	6963      	ldr	r3, [r4, #20]
    1012:	f8c9 3000 	str.w	r3, [r9]
/home/aom1/Work/Linux/target/STM32MP1-DK2/buildroot/buildroot/output/build/optee-os-custom/ta/remoteproc/elf_parser.c:182
    1016:	e798      	b.n	f4a <e32_parser_find_rsc_table+0xaa>
/home/aom1/Work/Linux/target/STM32MP1-DK2/buildroot/buildroot/output/build/optee-os-custom/ta/remoteproc/elf_parser.c:125
    1018:	4802      	ldr	r0, [pc, #8]	; (1024 <e32_parser_find_rsc_table+0x184>)
    101a:	e796      	b.n	f4a <e32_parser_find_rsc_table+0xaa>
    101c:	ffff000b 	.word	0xffff000b
    1020:	ffff0005 	.word	0xffff0005
    1024:	f0100001 	.word	0xf0100001
    1028:	00009fc2 	.word	0x00009fc2
    102c:	00009f88 	.word	0x00009f88
    1030:	0000a009 	.word	0x0000a009
    1034:	00009f7f 	.word	0x00009f7f
    1038:	00009fe7 	.word	0x00009fe7
    103c:	00009f71 	.word	0x00009f71
    1040:	00009fb7 	.word	0x00009fb7
    1044:	00009f45 	.word	0x00009f45
    1048:	00009f71 	.word	0x00009f71
    104c:	00009f2f 	.word	0x00009f2f
    1050:	00009f43 	.word	0x00009f43

00001054 <__ta_entry>:
__ta_entry():
/home/aom1/Work/Linux/target/STM32MP1-DK2/buildroot/buildroot/output/build/optee-os-custom/out/export-ta_arm32/src/ta_entry_a32.S:20
    1054:	fa002603 	blx	a868 <__ta_entry_c>

00001058 <memcpy>:
memcpy():
/home/aom1/Work/Linux/target/STM32MP1-DK2/buildroot/buildroot/output/build/optee-os-custom/lib/libutils/isoc/newlib/memcpy.c:106
    1058:	2a0f      	cmp	r2, #15
    105a:	d956      	bls.n	110a <memcpy+0xb2>
/home/aom1/Work/Linux/target/STM32MP1-DK2/buildroot/buildroot/output/build/optee-os-custom/lib/libutils/isoc/newlib/memcpy.c:106 (discriminator 1)
    105c:	ea40 0301 	orr.w	r3, r0, r1
    1060:	079b      	lsls	r3, r3, #30
    1062:	d161      	bne.n	1128 <memcpy+0xd0>
    1064:	f1a2 0310 	sub.w	r3, r2, #16
    1068:	f101 0c20 	add.w	ip, r1, #32
/home/aom1/Work/Linux/target/STM32MP1-DK2/buildroot/buildroot/output/build/optee-os-custom/lib/libutils/isoc/newlib/memcpy.c:87
    106c:	b570      	push	{r4, r5, r6, lr}
    106e:	f101 0410 	add.w	r4, r1, #16
    1072:	f023 060f 	bic.w	r6, r3, #15
    1076:	f100 0510 	add.w	r5, r0, #16
    107a:	44b4      	add	ip, r6
    107c:	ea4f 1e13 	mov.w	lr, r3, lsr #4
/home/aom1/Work/Linux/target/STM32MP1-DK2/buildroot/buildroot/output/build/optee-os-custom/lib/libutils/isoc/newlib/memcpy.c:112
    1080:	f854 3c10 	ldr.w	r3, [r4, #-16]
/home/aom1/Work/Linux/target/STM32MP1-DK2/buildroot/buildroot/output/build/optee-os-custom/lib/libutils/isoc/newlib/memcpy.c:111
    1084:	3410      	adds	r4, #16
    1086:	4564      	cmp	r4, ip
    1088:	f105 0510 	add.w	r5, r5, #16
/home/aom1/Work/Linux/target/STM32MP1-DK2/buildroot/buildroot/output/build/optee-os-custom/lib/libutils/isoc/newlib/memcpy.c:112
    108c:	f845 3c20 	str.w	r3, [r5, #-32]
/home/aom1/Work/Linux/target/STM32MP1-DK2/buildroot/buildroot/output/build/optee-os-custom/lib/libutils/isoc/newlib/memcpy.c:113
    1090:	f854 3c1c 	ldr.w	r3, [r4, #-28]
    1094:	f845 3c1c 	str.w	r3, [r5, #-28]
/home/aom1/Work/Linux/target/STM32MP1-DK2/buildroot/buildroot/output/build/optee-os-custom/lib/libutils/isoc/newlib/memcpy.c:114
    1098:	f854 3c18 	ldr.w	r3, [r4, #-24]
    109c:	f845 3c18 	str.w	r3, [r5, #-24]
/home/aom1/Work/Linux/target/STM32MP1-DK2/buildroot/buildroot/output/build/optee-os-custom/lib/libutils/isoc/newlib/memcpy.c:115
    10a0:	f854 3c14 	ldr.w	r3, [r4, #-20]
    10a4:	f845 3c14 	str.w	r3, [r5, #-20]
/home/aom1/Work/Linux/target/STM32MP1-DK2/buildroot/buildroot/output/build/optee-os-custom/lib/libutils/isoc/newlib/memcpy.c:111
    10a8:	d1ea      	bne.n	1080 <memcpy+0x28>
    10aa:	f10e 0301 	add.w	r3, lr, #1
/home/aom1/Work/Linux/target/STM32MP1-DK2/buildroot/buildroot/output/build/optee-os-custom/lib/libutils/isoc/newlib/memcpy.c:120
    10ae:	f012 0f0c 	tst.w	r2, #12
/home/aom1/Work/Linux/target/STM32MP1-DK2/buildroot/buildroot/output/build/optee-os-custom/lib/libutils/isoc/newlib/memcpy.c:116
    10b2:	f002 040f 	and.w	r4, r2, #15
    10b6:	ea4f 1303 	mov.w	r3, r3, lsl #4
/home/aom1/Work/Linux/target/STM32MP1-DK2/buildroot/buildroot/output/build/optee-os-custom/lib/libutils/isoc/newlib/memcpy.c:120
    10ba:	bf08      	it	eq
    10bc:	4622      	moveq	r2, r4
/home/aom1/Work/Linux/target/STM32MP1-DK2/buildroot/buildroot/output/build/optee-os-custom/lib/libutils/isoc/newlib/memcpy.c:115
    10be:	4419      	add	r1, r3
    10c0:	4403      	add	r3, r0
/home/aom1/Work/Linux/target/STM32MP1-DK2/buildroot/buildroot/output/build/optee-os-custom/lib/libutils/isoc/newlib/memcpy.c:120
    10c2:	d014      	beq.n	10ee <memcpy+0x96>
    10c4:	f1a3 0e04 	sub.w	lr, r3, #4
/home/aom1/Work/Linux/target/STM32MP1-DK2/buildroot/buildroot/output/build/optee-os-custom/lib/libutils/isoc/newlib/memcpy.c:115
    10c8:	460d      	mov	r5, r1
/home/aom1/Work/Linux/target/STM32MP1-DK2/buildroot/buildroot/output/build/optee-os-custom/lib/libutils/isoc/newlib/memcpy.c:121
    10ca:	f855 6b04 	ldr.w	r6, [r5], #4
    10ce:	eba4 0c05 	sub.w	ip, r4, r5
/home/aom1/Work/Linux/target/STM32MP1-DK2/buildroot/buildroot/output/build/optee-os-custom/lib/libutils/isoc/newlib/memcpy.c:120
    10d2:	448c      	add	ip, r1
/home/aom1/Work/Linux/target/STM32MP1-DK2/buildroot/buildroot/output/build/optee-os-custom/lib/libutils/isoc/newlib/memcpy.c:121
    10d4:	f84e 6f04 	str.w	r6, [lr, #4]!
/home/aom1/Work/Linux/target/STM32MP1-DK2/buildroot/buildroot/output/build/optee-os-custom/lib/libutils/isoc/newlib/memcpy.c:120
    10d8:	f1bc 0f03 	cmp.w	ip, #3
    10dc:	d8f5      	bhi.n	10ca <memcpy+0x72>
    10de:	3c04      	subs	r4, #4
/home/aom1/Work/Linux/target/STM32MP1-DK2/buildroot/buildroot/output/build/optee-os-custom/lib/libutils/isoc/newlib/memcpy.c:122
    10e0:	f002 0203 	and.w	r2, r2, #3
    10e4:	f024 0403 	bic.w	r4, r4, #3
    10e8:	3404      	adds	r4, #4
/home/aom1/Work/Linux/target/STM32MP1-DK2/buildroot/buildroot/output/build/optee-os-custom/lib/libutils/isoc/newlib/memcpy.c:121
    10ea:	4423      	add	r3, r4
    10ec:	4421      	add	r1, r4
/home/aom1/Work/Linux/target/STM32MP1-DK2/buildroot/buildroot/output/build/optee-os-custom/lib/libutils/isoc/newlib/memcpy.c:130
    10ee:	f102 3cff 	add.w	ip, r2, #4294967295	; 0xffffffff
    10f2:	3b01      	subs	r3, #1
    10f4:	f10c 0c01 	add.w	ip, ip, #1
    10f8:	448c      	add	ip, r1
    10fa:	b12a      	cbz	r2, 1108 <memcpy+0xb0>
/home/aom1/Work/Linux/target/STM32MP1-DK2/buildroot/buildroot/output/build/optee-os-custom/lib/libutils/isoc/newlib/memcpy.c:131
    10fc:	f811 2b01 	ldrb.w	r2, [r1], #1
/home/aom1/Work/Linux/target/STM32MP1-DK2/buildroot/buildroot/output/build/optee-os-custom/lib/libutils/isoc/newlib/memcpy.c:130
    1100:	4561      	cmp	r1, ip
/home/aom1/Work/Linux/target/STM32MP1-DK2/buildroot/buildroot/output/build/optee-os-custom/lib/libutils/isoc/newlib/memcpy.c:131
    1102:	f803 2f01 	strb.w	r2, [r3, #1]!
/home/aom1/Work/Linux/target/STM32MP1-DK2/buildroot/buildroot/output/build/optee-os-custom/lib/libutils/isoc/newlib/memcpy.c:130
    1106:	d1f9      	bne.n	10fc <memcpy+0xa4>
/home/aom1/Work/Linux/target/STM32MP1-DK2/buildroot/buildroot/output/build/optee-os-custom/lib/libutils/isoc/newlib/memcpy.c:135
    1108:	bd70      	pop	{r4, r5, r6, pc}
/home/aom1/Work/Linux/target/STM32MP1-DK2/buildroot/buildroot/output/build/optee-os-custom/lib/libutils/isoc/newlib/memcpy.c:99
    110a:	4603      	mov	r3, r0
/home/aom1/Work/Linux/target/STM32MP1-DK2/buildroot/buildroot/output/build/optee-os-custom/lib/libutils/isoc/newlib/memcpy.c:130
    110c:	f102 3cff 	add.w	ip, r2, #4294967295	; 0xffffffff
    1110:	b14a      	cbz	r2, 1126 <memcpy+0xce>
    1112:	f10c 0c01 	add.w	ip, ip, #1
    1116:	3b01      	subs	r3, #1
    1118:	448c      	add	ip, r1
/home/aom1/Work/Linux/target/STM32MP1-DK2/buildroot/buildroot/output/build/optee-os-custom/lib/libutils/isoc/newlib/memcpy.c:131
    111a:	f811 2b01 	ldrb.w	r2, [r1], #1
/home/aom1/Work/Linux/target/STM32MP1-DK2/buildroot/buildroot/output/build/optee-os-custom/lib/libutils/isoc/newlib/memcpy.c:130
    111e:	4561      	cmp	r1, ip
/home/aom1/Work/Linux/target/STM32MP1-DK2/buildroot/buildroot/output/build/optee-os-custom/lib/libutils/isoc/newlib/memcpy.c:131
    1120:	f803 2f01 	strb.w	r2, [r3, #1]!
/home/aom1/Work/Linux/target/STM32MP1-DK2/buildroot/buildroot/output/build/optee-os-custom/lib/libutils/isoc/newlib/memcpy.c:130
    1124:	d1f9      	bne.n	111a <memcpy+0xc2>
/home/aom1/Work/Linux/target/STM32MP1-DK2/buildroot/buildroot/output/build/optee-os-custom/lib/libutils/isoc/newlib/memcpy.c:135
    1126:	4770      	bx	lr
/home/aom1/Work/Linux/target/STM32MP1-DK2/buildroot/buildroot/output/build/optee-os-custom/lib/libutils/isoc/newlib/memcpy.c:130
    1128:	f102 3cff 	add.w	ip, r2, #4294967295	; 0xffffffff
/home/aom1/Work/Linux/target/STM32MP1-DK2/buildroot/buildroot/output/build/optee-os-custom/lib/libutils/isoc/newlib/memcpy.c:99
    112c:	4603      	mov	r3, r0
    112e:	e7f0      	b.n	1112 <memcpy+0xba>

00001130 <trace_set_level>:
trace_set_level():
/home/aom1/Work/Linux/target/STM32MP1-DK2/buildroot/buildroot/output/build/optee-os-custom/lib/libutils/ext/trace.c:24
    1130:	4b04      	ldr	r3, [pc, #16]	; (1144 <trace_set_level+0x14>)
/home/aom1/Work/Linux/target/STM32MP1-DK2/buildroot/buildroot/output/build/optee-os-custom/lib/libutils/ext/trace.c:28
    1132:	2805      	cmp	r0, #5
    1134:	4a04      	ldr	r2, [pc, #16]	; (1148 <trace_set_level+0x18>)
    1136:	bf28      	it	cs
    1138:	2004      	movcs	r0, #4
/home/aom1/Work/Linux/target/STM32MP1-DK2/buildroot/buildroot/output/build/optee-os-custom/lib/libutils/ext/trace.c:24
    113a:	447b      	add	r3, pc
    113c:	589b      	ldr	r3, [r3, r2]
    113e:	6018      	str	r0, [r3, #0]
/home/aom1/Work/Linux/target/STM32MP1-DK2/buildroot/buildroot/output/build/optee-os-custom/lib/libutils/ext/trace.c:29
    1140:	4770      	bx	lr
    1142:	bf00      	nop
    1144:	0000af4a 	.word	0x0000af4a
    1148:	00000014 	.word	0x00000014

0000114c <trace_get_level>:
trace_get_level():
/home/aom1/Work/Linux/target/STM32MP1-DK2/buildroot/buildroot/output/build/optee-os-custom/lib/libutils/ext/trace.c:32
    114c:	4b02      	ldr	r3, [pc, #8]	; (1158 <trace_get_level+0xc>)
/home/aom1/Work/Linux/target/STM32MP1-DK2/buildroot/buildroot/output/build/optee-os-custom/lib/libutils/ext/trace.c:33
    114e:	4a03      	ldr	r2, [pc, #12]	; (115c <trace_get_level+0x10>)
/home/aom1/Work/Linux/target/STM32MP1-DK2/buildroot/buildroot/output/build/optee-os-custom/lib/libutils/ext/trace.c:32
    1150:	447b      	add	r3, pc
/home/aom1/Work/Linux/target/STM32MP1-DK2/buildroot/buildroot/output/build/optee-os-custom/lib/libutils/ext/trace.c:33
    1152:	589b      	ldr	r3, [r3, r2]
/home/aom1/Work/Linux/target/STM32MP1-DK2/buildroot/buildroot/output/build/optee-os-custom/lib/libutils/ext/trace.c:34
    1154:	6818      	ldr	r0, [r3, #0]
    1156:	4770      	bx	lr
    1158:	0000af34 	.word	0x0000af34
    115c:	00000014 	.word	0x00000014

00001160 <trace_vprintf>:
trace_vprintf():
/home/aom1/Work/Linux/target/STM32MP1-DK2/buildroot/buildroot/output/build/optee-os-custom/lib/libutils/ext/trace.c:113
    1160:	e92d 4ff0 	stmdb	sp!, {r4, r5, r6, r7, r8, r9, sl, fp, lr}
    1164:	4688      	mov	r8, r1
    1166:	4950      	ldr	r1, [pc, #320]	; (12a8 <trace_vprintf+0x148>)
    1168:	4614      	mov	r4, r2
    116a:	4a50      	ldr	r2, [pc, #320]	; (12ac <trace_vprintf+0x14c>)
    116c:	b0c7      	sub	sp, #284	; 0x11c
    116e:	4479      	add	r1, pc
    1170:	4607      	mov	r7, r0
    1172:	4e4f      	ldr	r6, [pc, #316]	; (12b0 <trace_vprintf+0x150>)
/home/aom1/Work/Linux/target/STM32MP1-DK2/buildroot/buildroot/output/build/optee-os-custom/lib/libutils/ext/trace.c:118
    1174:	469b      	mov	fp, r3
/home/aom1/Work/Linux/target/STM32MP1-DK2/buildroot/buildroot/output/build/optee-os-custom/lib/libutils/ext/trace.c:113
    1176:	588a      	ldr	r2, [r1, r2]
    1178:	447e      	add	r6, pc
    117a:	f8dd 9140 	ldr.w	r9, [sp, #320]	; 0x140
    117e:	6812      	ldr	r2, [r2, #0]
    1180:	9245      	str	r2, [sp, #276]	; 0x114
    1182:	f04f 0200 	mov.w	r2, #0
/home/aom1/Work/Linux/target/STM32MP1-DK2/buildroot/buildroot/output/build/optee-os-custom/lib/libutils/ext/trace.c:118
    1186:	2b00      	cmp	r3, #0
    1188:	d075      	beq.n	1276 <trace_vprintf+0x116>
/home/aom1/Work/Linux/target/STM32MP1-DK2/buildroot/buildroot/output/build/optee-os-custom/lib/libutils/ext/trace.c:118 (discriminator 1)
    118a:	4b4a      	ldr	r3, [pc, #296]	; (12b4 <trace_vprintf+0x154>)
    118c:	58f3      	ldr	r3, [r6, r3]
    118e:	681b      	ldr	r3, [r3, #0]
    1190:	42a3      	cmp	r3, r4
    1192:	db64      	blt.n	125e <trace_vprintf+0xfe>
trace_level_to_string():
/home/aom1/Work/Linux/target/STM32MP1-DK2/buildroot/buildroot/output/build/optee-os-custom/lib/libutils/ext/trace.c:54
    1194:	4a48      	ldr	r2, [pc, #288]	; (12b8 <trace_vprintf+0x158>)
/home/aom1/Work/Linux/target/STM32MP1-DK2/buildroot/buildroot/output/build/optee-os-custom/lib/libutils/ext/trace.c:51
    1196:	2c04      	cmp	r4, #4
    1198:	bf94      	ite	ls
    119a:	4623      	movls	r3, r4
    119c:	2300      	movhi	r3, #0
/home/aom1/Work/Linux/target/STM32MP1-DK2/buildroot/buildroot/output/build/optee-os-custom/lib/libutils/ext/trace.c:54
    119e:	447a      	add	r2, pc
    11a0:	5cd3      	ldrb	r3, [r2, r3]
trace_vprintf():
/home/aom1/Work/Linux/target/STM32MP1-DK2/buildroot/buildroot/output/build/optee-os-custom/lib/libutils/ext/trace.c:122
    11a2:	4a46      	ldr	r2, [pc, #280]	; (12bc <trace_vprintf+0x15c>)
    11a4:	ad05      	add	r5, sp, #20
    11a6:	f44f 7180 	mov.w	r1, #256	; 0x100
    11aa:	4628      	mov	r0, r5
    11ac:	447a      	add	r2, pc
    11ae:	f000 f8fc 	bl	13aa <snprintk>
/home/aom1/Work/Linux/target/STM32MP1-DK2/buildroot/buildroot/output/build/optee-os-custom/lib/libutils/ext/trace.c:124
    11b2:	f1b0 0a00 	subs.w	sl, r0, #0
    11b6:	db52      	blt.n	125e <trace_vprintf+0xfe>
/home/aom1/Work/Linux/target/STM32MP1-DK2/buildroot/buildroot/output/build/optee-os-custom/lib/libutils/ext/trace.c:129
    11b8:	4b41      	ldr	r3, [pc, #260]	; (12c0 <trace_vprintf+0x160>)
    11ba:	f5ca 7180 	rsb	r1, sl, #256	; 0x100
    11be:	4a41      	ldr	r2, [pc, #260]	; (12c4 <trace_vprintf+0x164>)
    11c0:	58f3      	ldr	r3, [r6, r3]
    11c2:	447a      	add	r2, pc
    11c4:	eb05 000a 	add.w	r0, r5, sl
    11c8:	9303      	str	r3, [sp, #12]
    11ca:	f000 f8ee 	bl	13aa <snprintk>
/home/aom1/Work/Linux/target/STM32MP1-DK2/buildroot/buildroot/output/build/optee-os-custom/lib/libutils/ext/trace.c:131
    11ce:	2800      	cmp	r0, #0
    11d0:	db45      	blt.n	125e <trace_vprintf+0xfe>
/home/aom1/Work/Linux/target/STM32MP1-DK2/buildroot/buildroot/output/build/optee-os-custom/lib/libutils/ext/trace.c:133
    11d2:	4482      	add	sl, r0
/home/aom1/Work/Linux/target/STM32MP1-DK2/buildroot/buildroot/output/build/optee-os-custom/lib/libutils/ext/trace.c:135
    11d4:	f1bb 0f00 	cmp.w	fp, #0
    11d8:	d056      	beq.n	1288 <trace_vprintf+0x128>
/home/aom1/Work/Linux/target/STM32MP1-DK2/buildroot/buildroot/output/build/optee-os-custom/lib/libutils/ext/trace.c:135 (discriminator 1)
    11da:	221a      	movs	r2, #26
    11dc:	fa22 f404 	lsr.w	r4, r2, r4
    11e0:	07e3      	lsls	r3, r4, #31
    11e2:	d551      	bpl.n	1288 <trace_vprintf+0x128>
/home/aom1/Work/Linux/target/STM32MP1-DK2/buildroot/buildroot/output/build/optee-os-custom/lib/libutils/ext/trace.c:137
    11e4:	eb05 040a 	add.w	r4, r5, sl
    11e8:	f5ca 7180 	rsb	r1, sl, #256	; 0x100
    11ec:	9103      	str	r1, [sp, #12]
print_thread_id():
/home/aom1/Work/Linux/target/STM32MP1-DK2/buildroot/buildroot/output/build/optee-os-custom/lib/libutils/ext/trace.c:66
    11ee:	f000 fdc1 	bl	1d74 <trace_ext_get_thread_id>
/home/aom1/Work/Linux/target/STM32MP1-DK2/buildroot/buildroot/output/build/optee-os-custom/lib/libutils/ext/trace.c:68
    11f2:	9903      	ldr	r1, [sp, #12]
    11f4:	2800      	cmp	r0, #0
    11f6:	db40      	blt.n	127a <trace_vprintf+0x11a>
/home/aom1/Work/Linux/target/STM32MP1-DK2/buildroot/buildroot/output/build/optee-os-custom/lib/libutils/ext/trace.c:69
    11f8:	4a33      	ldr	r2, [pc, #204]	; (12c8 <trace_vprintf+0x168>)
    11fa:	2301      	movs	r3, #1
    11fc:	9000      	str	r0, [sp, #0]
    11fe:	447a      	add	r2, pc
/home/aom1/Work/Linux/target/STM32MP1-DK2/buildroot/buildroot/output/build/optee-os-custom/lib/libutils/ext/trace.c:71
    1200:	4620      	mov	r0, r4
    1202:	f000 f8d2 	bl	13aa <snprintk>
trace_vprintf():
/home/aom1/Work/Linux/target/STM32MP1-DK2/buildroot/buildroot/output/build/optee-os-custom/lib/libutils/ext/trace.c:144
    1206:	2800      	cmp	r0, #0
    1208:	db29      	blt.n	125e <trace_vprintf+0xfe>
/home/aom1/Work/Linux/target/STM32MP1-DK2/buildroot/buildroot/output/build/optee-os-custom/lib/libutils/ext/trace.c:146
    120a:	eb00 040a 	add.w	r4, r0, sl
/home/aom1/Work/Linux/target/STM32MP1-DK2/buildroot/buildroot/output/build/optee-os-custom/lib/libutils/ext/trace.c:148
    120e:	b167      	cbz	r7, 122a <trace_vprintf+0xca>
/home/aom1/Work/Linux/target/STM32MP1-DK2/buildroot/buildroot/output/build/optee-os-custom/lib/libutils/ext/trace.c:149
    1210:	4a2e      	ldr	r2, [pc, #184]	; (12cc <trace_vprintf+0x16c>)
    1212:	463b      	mov	r3, r7
    1214:	1928      	adds	r0, r5, r4
    1216:	f5c4 7180 	rsb	r1, r4, #256	; 0x100
    121a:	447a      	add	r2, pc
    121c:	f8cd 8000 	str.w	r8, [sp]
    1220:	f000 f8c3 	bl	13aa <snprintk>
/home/aom1/Work/Linux/target/STM32MP1-DK2/buildroot/buildroot/output/build/optee-os-custom/lib/libutils/ext/trace.c:151
    1224:	2800      	cmp	r0, #0
    1226:	db1a      	blt.n	125e <trace_vprintf+0xfe>
/home/aom1/Work/Linux/target/STM32MP1-DK2/buildroot/buildroot/output/build/optee-os-custom/lib/libutils/ext/trace.c:153
    1228:	4404      	add	r4, r0
/home/aom1/Work/Linux/target/STM32MP1-DK2/buildroot/buildroot/output/build/optee-os-custom/lib/libutils/ext/trace.c:163
    122a:	1928      	adds	r0, r5, r4
    122c:	f5c4 7180 	rsb	r1, r4, #256	; 0x100
    1230:	9b51      	ldr	r3, [sp, #324]	; 0x144
    1232:	464a      	mov	r2, r9
    1234:	f000 f8b2 	bl	139c <vsnprintk>
/home/aom1/Work/Linux/target/STM32MP1-DK2/buildroot/buildroot/output/build/optee-os-custom/lib/libutils/ext/trace.c:164
    1238:	2800      	cmp	r0, #0
/home/aom1/Work/Linux/target/STM32MP1-DK2/buildroot/buildroot/output/build/optee-os-custom/lib/libutils/ext/trace.c:170
    123a:	f04f 030a 	mov.w	r3, #10
/home/aom1/Work/Linux/target/STM32MP1-DK2/buildroot/buildroot/output/build/optee-os-custom/lib/libutils/ext/trace.c:165
    123e:	bfc8      	it	gt
    1240:	1824      	addgt	r4, r4, r0
/home/aom1/Work/Linux/target/STM32MP1-DK2/buildroot/buildroot/output/build/optee-os-custom/lib/libutils/ext/trace.c:167
    1242:	2cfe      	cmp	r4, #254	; 0xfe
    1244:	bf28      	it	cs
    1246:	24fe      	movcs	r4, #254	; 0xfe
/home/aom1/Work/Linux/target/STM32MP1-DK2/buildroot/buildroot/output/build/optee-os-custom/lib/libutils/ext/trace.c:170
    1248:	552b      	strb	r3, [r5, r4]
/home/aom1/Work/Linux/target/STM32MP1-DK2/buildroot/buildroot/output/build/optee-os-custom/lib/libutils/ext/trace.c:171
    124a:	b114      	cbz	r4, 1252 <trace_vprintf+0xf2>
/home/aom1/Work/Linux/target/STM32MP1-DK2/buildroot/buildroot/output/build/optee-os-custom/lib/libutils/ext/trace.c:171 (discriminator 1)
    124c:	5d2b      	ldrb	r3, [r5, r4]
    124e:	2b0a      	cmp	r3, #10
    1250:	d025      	beq.n	129e <trace_vprintf+0x13e>
/home/aom1/Work/Linux/target/STM32MP1-DK2/buildroot/buildroot/output/build/optee-os-custom/lib/libutils/ext/trace.c:174
    1252:	442c      	add	r4, r5
    1254:	2300      	movs	r3, #0
/home/aom1/Work/Linux/target/STM32MP1-DK2/buildroot/buildroot/output/build/optee-os-custom/lib/libutils/ext/trace.c:176
    1256:	4628      	mov	r0, r5
/home/aom1/Work/Linux/target/STM32MP1-DK2/buildroot/buildroot/output/build/optee-os-custom/lib/libutils/ext/trace.c:174
    1258:	70a3      	strb	r3, [r4, #2]
/home/aom1/Work/Linux/target/STM32MP1-DK2/buildroot/buildroot/output/build/optee-os-custom/lib/libutils/ext/trace.c:176
    125a:	f000 fd81 	bl	1d60 <trace_ext_puts>
/home/aom1/Work/Linux/target/STM32MP1-DK2/buildroot/buildroot/output/build/optee-os-custom/lib/libutils/ext/trace.c:113
    125e:	4a1c      	ldr	r2, [pc, #112]	; (12d0 <trace_vprintf+0x170>)
/home/aom1/Work/Linux/target/STM32MP1-DK2/buildroot/buildroot/output/build/optee-os-custom/lib/libutils/ext/trace.c:177
    1260:	4b12      	ldr	r3, [pc, #72]	; (12ac <trace_vprintf+0x14c>)
/home/aom1/Work/Linux/target/STM32MP1-DK2/buildroot/buildroot/output/build/optee-os-custom/lib/libutils/ext/trace.c:113
    1262:	447a      	add	r2, pc
/home/aom1/Work/Linux/target/STM32MP1-DK2/buildroot/buildroot/output/build/optee-os-custom/lib/libutils/ext/trace.c:177
    1264:	58d3      	ldr	r3, [r2, r3]
    1266:	681a      	ldr	r2, [r3, #0]
    1268:	9b45      	ldr	r3, [sp, #276]	; 0x114
    126a:	405a      	eors	r2, r3
    126c:	f04f 0300 	mov.w	r3, #0
    1270:	d017      	beq.n	12a2 <trace_vprintf+0x142>
    1272:	f009 fb00 	bl	a876 <__stack_chk_fail>
trace_level_to_string():
/home/aom1/Work/Linux/target/STM32MP1-DK2/buildroot/buildroot/output/build/optee-os-custom/lib/libutils/ext/trace.c:49
    1276:	234d      	movs	r3, #77	; 0x4d
    1278:	e793      	b.n	11a2 <trace_vprintf+0x42>
print_thread_id():
/home/aom1/Work/Linux/target/STM32MP1-DK2/buildroot/buildroot/output/build/optee-os-custom/lib/libutils/ext/trace.c:71
    127a:	4b16      	ldr	r3, [pc, #88]	; (12d4 <trace_vprintf+0x174>)
    127c:	4a16      	ldr	r2, [pc, #88]	; (12d8 <trace_vprintf+0x178>)
    127e:	447b      	add	r3, pc
    1280:	9300      	str	r3, [sp, #0]
    1282:	2301      	movs	r3, #1
    1284:	447a      	add	r2, pc
    1286:	e7bb      	b.n	1200 <trace_vprintf+0xa0>
trace_vprintf():
/home/aom1/Work/Linux/target/STM32MP1-DK2/buildroot/buildroot/output/build/optee-os-custom/lib/libutils/ext/trace.c:157
    1288:	f1ba 0ffe 	cmp.w	sl, #254	; 0xfe
    128c:	d8e7      	bhi.n	125e <trace_vprintf+0xfe>
/home/aom1/Work/Linux/target/STM32MP1-DK2/buildroot/buildroot/output/build/optee-os-custom/lib/libutils/ext/trace.c:159
    128e:	2320      	movs	r3, #32
    1290:	f10a 0401 	add.w	r4, sl, #1
    1294:	f805 300a 	strb.w	r3, [r5, sl]
/home/aom1/Work/Linux/target/STM32MP1-DK2/buildroot/buildroot/output/build/optee-os-custom/lib/libutils/ext/trace.c:160
    1298:	2300      	movs	r3, #0
    129a:	552b      	strb	r3, [r5, r4]
    129c:	e7c5      	b.n	122a <trace_vprintf+0xca>
/home/aom1/Work/Linux/target/STM32MP1-DK2/buildroot/buildroot/output/build/optee-os-custom/lib/libutils/ext/trace.c:172
    129e:	3c01      	subs	r4, #1
    12a0:	e7d3      	b.n	124a <trace_vprintf+0xea>
/home/aom1/Work/Linux/target/STM32MP1-DK2/buildroot/buildroot/output/build/optee-os-custom/lib/libutils/ext/trace.c:177
    12a2:	b047      	add	sp, #284	; 0x11c
    12a4:	e8bd 8ff0 	ldmia.w	sp!, {r4, r5, r6, r7, r8, r9, sl, fp, pc}
    12a8:	0000af16 	.word	0x0000af16
    12ac:	0000000c 	.word	0x0000000c
    12b0:	0000af0c 	.word	0x0000af0c
    12b4:	00000014 	.word	0x00000014
    12b8:	00009eb1 	.word	0x00009eb1
    12bc:	00009e89 	.word	0x00009e89
    12c0:	00000018 	.word	0x00000018
    12c4:	00009e77 	.word	0x00009e77
    12c8:	00009e3f 	.word	0x00009e3f
    12cc:	00009e2e 	.word	0x00009e2e
    12d0:	0000ae22 	.word	0x0000ae22
    12d4:	0000a5fd 	.word	0x0000a5fd
    12d8:	00009dbf 	.word	0x00009dbf

000012dc <trace_printf>:
trace_printf():
/home/aom1/Work/Linux/target/STM32MP1-DK2/buildroot/buildroot/output/build/optee-os-custom/lib/libutils/ext/trace.c:104
    12dc:	b530      	push	{r4, r5, lr}
    12de:	b085      	sub	sp, #20
    12e0:	f8df e044 	ldr.w	lr, [pc, #68]	; 1328 <trace_printf+0x4c>
    12e4:	ac08      	add	r4, sp, #32
    12e6:	f8df c044 	ldr.w	ip, [pc, #68]	; 132c <trace_printf+0x50>
    12ea:	44fe      	add	lr, pc
    12ec:	f854 5b04 	ldr.w	r5, [r4], #4
    12f0:	f85e c00c 	ldr.w	ip, [lr, ip]
    12f4:	f8dc c000 	ldr.w	ip, [ip]
    12f8:	f8cd c00c 	str.w	ip, [sp, #12]
    12fc:	f04f 0c00 	mov.w	ip, #0
/home/aom1/Work/Linux/target/STM32MP1-DK2/buildroot/buildroot/output/build/optee-os-custom/lib/libutils/ext/trace.c:108
    1300:	9401      	str	r4, [sp, #4]
    1302:	9500      	str	r5, [sp, #0]
/home/aom1/Work/Linux/target/STM32MP1-DK2/buildroot/buildroot/output/build/optee-os-custom/lib/libutils/ext/trace.c:107
    1304:	9402      	str	r4, [sp, #8]
/home/aom1/Work/Linux/target/STM32MP1-DK2/buildroot/buildroot/output/build/optee-os-custom/lib/libutils/ext/trace.c:108
    1306:	f7ff ff2b 	bl	1160 <trace_vprintf>
/home/aom1/Work/Linux/target/STM32MP1-DK2/buildroot/buildroot/output/build/optee-os-custom/lib/libutils/ext/trace.c:104
    130a:	4a09      	ldr	r2, [pc, #36]	; (1330 <trace_printf+0x54>)
/home/aom1/Work/Linux/target/STM32MP1-DK2/buildroot/buildroot/output/build/optee-os-custom/lib/libutils/ext/trace.c:110
    130c:	4b07      	ldr	r3, [pc, #28]	; (132c <trace_printf+0x50>)
/home/aom1/Work/Linux/target/STM32MP1-DK2/buildroot/buildroot/output/build/optee-os-custom/lib/libutils/ext/trace.c:104
    130e:	447a      	add	r2, pc
/home/aom1/Work/Linux/target/STM32MP1-DK2/buildroot/buildroot/output/build/optee-os-custom/lib/libutils/ext/trace.c:110
    1310:	58d3      	ldr	r3, [r2, r3]
    1312:	681a      	ldr	r2, [r3, #0]
    1314:	9b03      	ldr	r3, [sp, #12]
    1316:	405a      	eors	r2, r3
    1318:	f04f 0300 	mov.w	r3, #0
    131c:	d001      	beq.n	1322 <trace_printf+0x46>
    131e:	f009 faaa 	bl	a876 <__stack_chk_fail>
    1322:	b005      	add	sp, #20
    1324:	bd30      	pop	{r4, r5, pc}
    1326:	bf00      	nop
    1328:	0000ad9a 	.word	0x0000ad9a
    132c:	0000000c 	.word	0x0000000c
    1330:	0000ad76 	.word	0x0000ad76

00001334 <dhex_dump>:
dhex_dump():
/home/aom1/Work/Linux/target/STM32MP1-DK2/buildroot/buildroot/output/build/optee-os-custom/lib/libutils/ext/trace.c:287
    1334:	4770      	bx	lr
    1336:	bf00      	nop

00001338 <__vsnprintf>:
__vsnprintf():
/home/aom1/Work/Linux/target/STM32MP1-DK2/buildroot/buildroot/output/build/optee-os-custom/lib/libutils/ext/snprintk.c:138
    1338:	b57f      	push	{r0, r1, r2, r3, r4, r5, r6, lr}
    133a:	460d      	mov	r5, r1
    133c:	4914      	ldr	r1, [pc, #80]	; (1390 <__vsnprintf+0x58>)
    133e:	4604      	mov	r4, r0
/home/aom1/Work/Linux/target/STM32MP1-DK2/buildroot/buildroot/output/build/optee-os-custom/lib/libutils/ext/snprintk.c:142
    1340:	1966      	adds	r6, r4, r5
/home/aom1/Work/Linux/target/STM32MP1-DK2/buildroot/buildroot/output/build/optee-os-custom/lib/libutils/ext/snprintk.c:138
    1342:	4610      	mov	r0, r2
    1344:	4479      	add	r1, pc
    1346:	4a13      	ldr	r2, [pc, #76]	; (1394 <__vsnprintf+0x5c>)
    1348:	588a      	ldr	r2, [r1, r2]
/home/aom1/Work/Linux/target/STM32MP1-DK2/buildroot/buildroot/output/build/optee-os-custom/lib/libutils/ext/snprintk.c:143
    134a:	a902      	add	r1, sp, #8
/home/aom1/Work/Linux/target/STM32MP1-DK2/buildroot/buildroot/output/build/optee-os-custom/lib/libutils/ext/snprintk.c:138
    134c:	6812      	ldr	r2, [r2, #0]
    134e:	9203      	str	r2, [sp, #12]
    1350:	f04f 0200 	mov.w	r2, #0
/home/aom1/Work/Linux/target/STM32MP1-DK2/buildroot/buildroot/output/build/optee-os-custom/lib/libutils/ext/snprintk.c:143
    1354:	f89d 2020 	ldrb.w	r2, [sp, #32]
/home/aom1/Work/Linux/target/STM32MP1-DK2/buildroot/buildroot/output/build/optee-os-custom/lib/libutils/ext/snprintk.c:142
    1358:	9602      	str	r6, [sp, #8]
/home/aom1/Work/Linux/target/STM32MP1-DK2/buildroot/buildroot/output/build/optee-os-custom/lib/libutils/ext/snprintk.c:143
    135a:	9200      	str	r2, [sp, #0]
    135c:	4622      	mov	r2, r4
    135e:	f000 f851 	bl	1404 <kprintf.constprop.0>
/home/aom1/Work/Linux/target/STM32MP1-DK2/buildroot/buildroot/output/build/optee-os-custom/lib/libutils/ext/snprintk.c:144
    1362:	b13c      	cbz	r4, 1374 <__vsnprintf+0x3c>
/home/aom1/Work/Linux/target/STM32MP1-DK2/buildroot/buildroot/output/build/optee-os-custom/lib/libutils/ext/snprintk.c:144 (discriminator 1)
    1364:	b135      	cbz	r5, 1374 <__vsnprintf+0x3c>
/home/aom1/Work/Linux/target/STM32MP1-DK2/buildroot/buildroot/output/build/optee-os-custom/lib/libutils/ext/snprintk.c:146
    1366:	42a8      	cmp	r0, r5
    1368:	f04f 0300 	mov.w	r3, #0
/home/aom1/Work/Linux/target/STM32MP1-DK2/buildroot/buildroot/output/build/optee-os-custom/lib/libutils/ext/snprintk.c:147
    136c:	bf2c      	ite	cs
    136e:	f806 3c01 	strbcs.w	r3, [r6, #-1]
/home/aom1/Work/Linux/target/STM32MP1-DK2/buildroot/buildroot/output/build/optee-os-custom/lib/libutils/ext/snprintk.c:149
    1372:	5423      	strbcc	r3, [r4, r0]
/home/aom1/Work/Linux/target/STM32MP1-DK2/buildroot/buildroot/output/build/optee-os-custom/lib/libutils/ext/snprintk.c:138
    1374:	4a08      	ldr	r2, [pc, #32]	; (1398 <__vsnprintf+0x60>)
/home/aom1/Work/Linux/target/STM32MP1-DK2/buildroot/buildroot/output/build/optee-os-custom/lib/libutils/ext/snprintk.c:152
    1376:	4b07      	ldr	r3, [pc, #28]	; (1394 <__vsnprintf+0x5c>)
/home/aom1/Work/Linux/target/STM32MP1-DK2/buildroot/buildroot/output/build/optee-os-custom/lib/libutils/ext/snprintk.c:138
    1378:	447a      	add	r2, pc
/home/aom1/Work/Linux/target/STM32MP1-DK2/buildroot/buildroot/output/build/optee-os-custom/lib/libutils/ext/snprintk.c:152
    137a:	58d3      	ldr	r3, [r2, r3]
    137c:	681a      	ldr	r2, [r3, #0]
    137e:	9b03      	ldr	r3, [sp, #12]
    1380:	405a      	eors	r2, r3
    1382:	f04f 0300 	mov.w	r3, #0
    1386:	d001      	beq.n	138c <__vsnprintf+0x54>
    1388:	f009 fa75 	bl	a876 <__stack_chk_fail>
    138c:	b004      	add	sp, #16
    138e:	bd70      	pop	{r4, r5, r6, pc}
    1390:	0000ad40 	.word	0x0000ad40
    1394:	0000000c 	.word	0x0000000c
    1398:	0000ad0c 	.word	0x0000ad0c

0000139c <vsnprintk>:
vsnprintk():
/home/aom1/Work/Linux/target/STM32MP1-DK2/buildroot/buildroot/output/build/optee-os-custom/lib/libutils/ext/snprintk.c:130
    139c:	b513      	push	{r0, r1, r4, lr}
/home/aom1/Work/Linux/target/STM32MP1-DK2/buildroot/buildroot/output/build/optee-os-custom/lib/libutils/ext/snprintk.c:131
    139e:	2401      	movs	r4, #1
    13a0:	9400      	str	r4, [sp, #0]
    13a2:	f7ff ffc9 	bl	1338 <__vsnprintf>
/home/aom1/Work/Linux/target/STM32MP1-DK2/buildroot/buildroot/output/build/optee-os-custom/lib/libutils/ext/snprintk.c:132
    13a6:	b002      	add	sp, #8
    13a8:	bd10      	pop	{r4, pc}

000013aa <snprintk>:
snprintk():
/home/aom1/Work/Linux/target/STM32MP1-DK2/buildroot/buildroot/output/build/optee-os-custom/lib/libutils/ext/snprintk.c:113
    13aa:	b40c      	push	{r2, r3}
    13ac:	b507      	push	{r0, r1, r2, lr}
    13ae:	ab04      	add	r3, sp, #16
    13b0:	f8df e044 	ldr.w	lr, [pc, #68]	; 13f8 <snprintk+0x4e>
    13b4:	f8df c044 	ldr.w	ip, [pc, #68]	; 13fc <snprintk+0x52>
    13b8:	44fe      	add	lr, pc
    13ba:	f853 2b04 	ldr.w	r2, [r3], #4
    13be:	f85e c00c 	ldr.w	ip, [lr, ip]
    13c2:	f8dc c000 	ldr.w	ip, [ip]
    13c6:	f8cd c004 	str.w	ip, [sp, #4]
    13ca:	f04f 0c00 	mov.w	ip, #0
/home/aom1/Work/Linux/target/STM32MP1-DK2/buildroot/buildroot/output/build/optee-os-custom/lib/libutils/ext/snprintk.c:117
    13ce:	9300      	str	r3, [sp, #0]
/home/aom1/Work/Linux/target/STM32MP1-DK2/buildroot/buildroot/output/build/optee-os-custom/lib/libutils/ext/snprintk.c:118
    13d0:	f7ff ffe4 	bl	139c <vsnprintk>
/home/aom1/Work/Linux/target/STM32MP1-DK2/buildroot/buildroot/output/build/optee-os-custom/lib/libutils/ext/snprintk.c:113
    13d4:	4a0a      	ldr	r2, [pc, #40]	; (1400 <snprintk+0x56>)
/home/aom1/Work/Linux/target/STM32MP1-DK2/buildroot/buildroot/output/build/optee-os-custom/lib/libutils/ext/snprintk.c:122
    13d6:	4b09      	ldr	r3, [pc, #36]	; (13fc <snprintk+0x52>)
/home/aom1/Work/Linux/target/STM32MP1-DK2/buildroot/buildroot/output/build/optee-os-custom/lib/libutils/ext/snprintk.c:113
    13d8:	447a      	add	r2, pc
/home/aom1/Work/Linux/target/STM32MP1-DK2/buildroot/buildroot/output/build/optee-os-custom/lib/libutils/ext/snprintk.c:122
    13da:	58d3      	ldr	r3, [r2, r3]
    13dc:	681a      	ldr	r2, [r3, #0]
    13de:	9b01      	ldr	r3, [sp, #4]
    13e0:	405a      	eors	r2, r3
    13e2:	f04f 0300 	mov.w	r3, #0
    13e6:	d001      	beq.n	13ec <snprintk+0x42>
    13e8:	f009 fa45 	bl	a876 <__stack_chk_fail>
    13ec:	b003      	add	sp, #12
    13ee:	f85d eb04 	ldr.w	lr, [sp], #4
    13f2:	b002      	add	sp, #8
    13f4:	4770      	bx	lr
    13f6:	bf00      	nop
    13f8:	0000accc 	.word	0x0000accc
    13fc:	0000000c 	.word	0x0000000c
    1400:	0000acac 	.word	0x0000acac

00001404 <kprintf.constprop.0>:
kprintf():
/home/aom1/Work/Linux/target/STM32MP1-DK2/buildroot/buildroot/output/build/optee-os-custom/lib/libutils/ext/snprintk.c:242
    1404:	e92d 4ff0 	stmdb	sp!, {r4, r5, r6, r7, r8, r9, sl, fp, lr}
    1408:	b0a1      	sub	sp, #132	; 0x84
    140a:	4690      	mov	r8, r2
    140c:	461f      	mov	r7, r3
    140e:	900b      	str	r0, [sp, #44]	; 0x2c
    1410:	f89d 20a8 	ldrb.w	r2, [sp, #168]	; 0xa8
    1414:	f8df 06f0 	ldr.w	r0, [pc, #1776]	; 1b08 <kprintf.constprop.0+0x704>
    1418:	9213      	str	r2, [sp, #76]	; 0x4c
    141a:	4478      	add	r0, pc
    141c:	f8df 26ec 	ldr.w	r2, [pc, #1772]	; 1b0c <kprintf.constprop.0+0x708>
    1420:	5882      	ldr	r2, [r0, r2]
    1422:	6812      	ldr	r2, [r2, #0]
    1424:	921f      	str	r2, [sp, #124]	; 0x7c
    1426:	f04f 0200 	mov.w	r2, #0
/home/aom1/Work/Linux/target/STM32MP1-DK2/buildroot/buildroot/output/build/optee-os-custom/lib/libutils/ext/snprintk.c:264
    142a:	910e      	str	r1, [sp, #56]	; 0x38
    142c:	b1e1      	cbz	r1, 1468 <kprintf.constprop.0+0x64>
/home/aom1/Work/Linux/target/STM32MP1-DK2/buildroot/buildroot/output/build/optee-os-custom/lib/libutils/ext/snprintk.c:265
    142e:	680b      	ldr	r3, [r1, #0]
/home/aom1/Work/Linux/target/STM32MP1-DK2/buildroot/buildroot/output/build/optee-os-custom/lib/libutils/ext/snprintk.c:267
    1430:	9310      	str	r3, [sp, #64]	; 0x40
/home/aom1/Work/Linux/target/STM32MP1-DK2/buildroot/buildroot/output/build/optee-os-custom/lib/libutils/ext/snprintk.c:275
    1432:	2300      	movs	r3, #0
    1434:	9311      	str	r3, [sp, #68]	; 0x44
/home/aom1/Work/Linux/target/STM32MP1-DK2/buildroot/buildroot/output/build/optee-os-custom/lib/libutils/ext/snprintk.c:273
    1436:	930d      	str	r3, [sp, #52]	; 0x34
/home/aom1/Work/Linux/target/STM32MP1-DK2/buildroot/buildroot/output/build/optee-os-custom/lib/libutils/ext/snprintk.c:281
    1438:	9b0b      	ldr	r3, [sp, #44]	; 0x2c
    143a:	781b      	ldrb	r3, [r3, #0]
    143c:	2b25      	cmp	r3, #37	; 0x25
    143e:	d026      	beq.n	148e <kprintf.constprop.0+0x8a>
    1440:	b9a3      	cbnz	r3, 146c <kprintf.constprop.0+0x68>
/home/aom1/Work/Linux/target/STM32MP1-DK2/buildroot/buildroot/output/build/optee-os-custom/lib/libutils/ext/snprintk.c:619
    1442:	9b0e      	ldr	r3, [sp, #56]	; 0x38
    1444:	b10b      	cbz	r3, 144a <kprintf.constprop.0+0x46>
/home/aom1/Work/Linux/target/STM32MP1-DK2/buildroot/buildroot/output/build/optee-os-custom/lib/libutils/ext/snprintk.c:620
    1446:	f8c3 8000 	str.w	r8, [r3]
/home/aom1/Work/Linux/target/STM32MP1-DK2/buildroot/buildroot/output/build/optee-os-custom/lib/libutils/ext/snprintk.c:242
    144a:	f8df 26c4 	ldr.w	r2, [pc, #1732]	; 1b10 <kprintf.constprop.0+0x70c>
/home/aom1/Work/Linux/target/STM32MP1-DK2/buildroot/buildroot/output/build/optee-os-custom/lib/libutils/ext/snprintk.c:622
    144e:	f8df 36bc 	ldr.w	r3, [pc, #1724]	; 1b0c <kprintf.constprop.0+0x708>
/home/aom1/Work/Linux/target/STM32MP1-DK2/buildroot/buildroot/output/build/optee-os-custom/lib/libutils/ext/snprintk.c:242
    1452:	447a      	add	r2, pc
/home/aom1/Work/Linux/target/STM32MP1-DK2/buildroot/buildroot/output/build/optee-os-custom/lib/libutils/ext/snprintk.c:622
    1454:	58d3      	ldr	r3, [r2, r3]
    1456:	681a      	ldr	r2, [r3, #0]
    1458:	9b1f      	ldr	r3, [sp, #124]	; 0x7c
    145a:	405a      	eors	r2, r3
    145c:	f04f 0300 	mov.w	r3, #0
    1460:	f000 834d 	beq.w	1afe <kprintf.constprop.0+0x6fa>
    1464:	f009 fa07 	bl	a876 <__stack_chk_fail>
/home/aom1/Work/Linux/target/STM32MP1-DK2/buildroot/buildroot/output/build/optee-os-custom/lib/libutils/ext/snprintk.c:267
    1468:	9b0e      	ldr	r3, [sp, #56]	; 0x38
    146a:	e7e1      	b.n	1430 <kprintf.constprop.0+0x2c>
/home/aom1/Work/Linux/target/STM32MP1-DK2/buildroot/buildroot/output/build/optee-os-custom/lib/libutils/ext/snprintk.c:282
    146c:	9a0d      	ldr	r2, [sp, #52]	; 0x34
    146e:	3201      	adds	r2, #1
    1470:	920d      	str	r2, [sp, #52]	; 0x34
/home/aom1/Work/Linux/target/STM32MP1-DK2/buildroot/buildroot/output/build/optee-os-custom/lib/libutils/ext/snprintk.c:283
    1472:	f1b8 0f00 	cmp.w	r8, #0
    1476:	d006      	beq.n	1486 <kprintf.constprop.0+0x82>
    1478:	9a0e      	ldr	r2, [sp, #56]	; 0x38
    147a:	b112      	cbz	r2, 1482 <kprintf.constprop.0+0x7e>
    147c:	9a10      	ldr	r2, [sp, #64]	; 0x40
    147e:	4590      	cmp	r8, r2
    1480:	d201      	bcs.n	1486 <kprintf.constprop.0+0x82>
    1482:	f808 3b01 	strb.w	r3, [r8], #1
/home/aom1/Work/Linux/target/STM32MP1-DK2/buildroot/buildroot/output/build/optee-os-custom/lib/libutils/ext/snprintk.c:281
    1486:	9b0b      	ldr	r3, [sp, #44]	; 0x2c
    1488:	3301      	adds	r3, #1
    148a:	930b      	str	r3, [sp, #44]	; 0x2c
    148c:	e7d4      	b.n	1438 <kprintf.constprop.0+0x34>
/home/aom1/Work/Linux/target/STM32MP1-DK2/buildroot/buildroot/output/build/optee-os-custom/lib/libutils/ext/snprintk.c:288
    148e:	980b      	ldr	r0, [sp, #44]	; 0x2c
/home/aom1/Work/Linux/target/STM32MP1-DK2/buildroot/buildroot/output/build/optee-os-custom/lib/libutils/ext/snprintk.c:294
    1490:	f04f 0900 	mov.w	r9, #0
/home/aom1/Work/Linux/target/STM32MP1-DK2/buildroot/buildroot/output/build/optee-os-custom/lib/libutils/ext/snprintk.c:292
    1494:	f8cd 903c 	str.w	r9, [sp, #60]	; 0x3c
/home/aom1/Work/Linux/target/STM32MP1-DK2/buildroot/buildroot/output/build/optee-os-custom/lib/libutils/ext/snprintk.c:288
    1498:	463b      	mov	r3, r7
    149a:	3001      	adds	r0, #1
/home/aom1/Work/Linux/target/STM32MP1-DK2/buildroot/buildroot/output/build/optee-os-custom/lib/libutils/ext/snprintk.c:293
    149c:	f04f 3bff 	mov.w	fp, #4294967295	; 0xffffffff
/home/aom1/Work/Linux/target/STM32MP1-DK2/buildroot/buildroot/output/build/optee-os-custom/lib/libutils/ext/snprintk.c:290
    14a0:	464d      	mov	r5, r9
/home/aom1/Work/Linux/target/STM32MP1-DK2/buildroot/buildroot/output/build/optee-os-custom/lib/libutils/ext/snprintk.c:296
    14a2:	4602      	mov	r2, r0
    14a4:	f812 1b01 	ldrb.w	r1, [r2], #1
    14a8:	910c      	str	r1, [sp, #48]	; 0x30
    14aa:	920b      	str	r2, [sp, #44]	; 0x2c
/home/aom1/Work/Linux/target/STM32MP1-DK2/buildroot/buildroot/output/build/optee-os-custom/lib/libutils/ext/snprintk.c:297
    14ac:	9a0c      	ldr	r2, [sp, #48]	; 0x30
    14ae:	2a39      	cmp	r2, #57	; 0x39
    14b0:	dc65      	bgt.n	157e <kprintf.constprop.0+0x17a>
    14b2:	2a1f      	cmp	r2, #31
    14b4:	f340 82c8 	ble.w	1a48 <kprintf.constprop.0+0x644>
    14b8:	9a0c      	ldr	r2, [sp, #48]	; 0x30
    14ba:	3a20      	subs	r2, #32
    14bc:	2a19      	cmp	r2, #25
    14be:	d862      	bhi.n	1586 <kprintf.constprop.0+0x182>
    14c0:	e8df f002 	tbb	[pc, r2]
    14c4:	6c616166 	.word	0x6c616166
    14c8:	61616161 	.word	0x61616161
    14cc:	0d6f6161 	.word	0x0d6f6161
    14d0:	61797661 	.word	0x61797661
    14d4:	97979794 	.word	0x97979794
    14d8:	97979797 	.word	0x97979797
    14dc:	9797      	.short	0x9797
/home/aom1/Work/Linux/target/STM32MP1-DK2/buildroot/buildroot/output/build/optee-os-custom/lib/libutils/ext/snprintk.c:325
    14de:	f04f 092b 	mov.w	r9, #43	; 0x2b
/home/aom1/Work/Linux/target/STM32MP1-DK2/buildroot/buildroot/output/build/optee-os-custom/lib/libutils/ext/snprintk.c:317
    14e2:	980b      	ldr	r0, [sp, #44]	; 0x2c
    14e4:	e7dd      	b.n	14a2 <kprintf.constprop.0+0x9e>
/home/aom1/Work/Linux/target/STM32MP1-DK2/buildroot/buildroot/output/build/optee-os-custom/lib/libutils/ext/snprintk.c:297
    14e6:	2a36      	cmp	r2, #54	; 0x36
    14e8:	d84d      	bhi.n	1586 <kprintf.constprop.0+0x182>
    14ea:	e8df f012 	tbh	[pc, r2, lsl #1]
    14ee:	00b8      	.short	0x00b8
    14f0:	004c004c 	.word	0x004c004c
    14f4:	004c004c 	.word	0x004c004c
    14f8:	004c004c 	.word	0x004c004c
    14fc:	004c004c 	.word	0x004c004c
    1500:	004c004c 	.word	0x004c004c
    1504:	004c017b 	.word	0x004c017b
    1508:	004c004c 	.word	0x004c004c
    150c:	004c004c 	.word	0x004c004c
    1510:	004c0224 	.word	0x004c0224
    1514:	025e004c 	.word	0x025e004c
    1518:	004c004c 	.word	0x004c004c
    151c:	004c004c 	.word	0x004c004c
    1520:	004c004c 	.word	0x004c004c
    1524:	004c004c 	.word	0x004c004c
    1528:	004c004c 	.word	0x004c004c
    152c:	00ba00ac 	.word	0x00ba00ac
    1530:	004c004c 	.word	0x004c004c
    1534:	0093004c 	.word	0x0093004c
    1538:	009600ba 	.word	0x009600ba
    153c:	0099004c 	.word	0x0099004c
    1540:	015e004c 	.word	0x015e004c
    1544:	01b7017d 	.word	0x01b7017d
    1548:	004c00a0 	.word	0x004c00a0
    154c:	00a60206 	.word	0x00a60206
    1550:	004c0226 	.word	0x004c0226
    1554:	0037004c 	.word	0x0037004c
    1558:	00a9004c 	.word	0x00a9004c
/home/aom1/Work/Linux/target/STM32MP1-DK2/buildroot/buildroot/output/build/optee-os-custom/lib/libutils/ext/snprintk.c:480
    155c:	f8df 25b4 	ldr.w	r2, [pc, #1460]	; 1b14 <kprintf.constprop.0+0x710>
    1560:	447a      	add	r2, pc
    1562:	3211      	adds	r2, #17
/home/aom1/Work/Linux/target/STM32MP1-DK2/buildroot/buildroot/output/build/optee-os-custom/lib/libutils/ext/snprintk.c:477
    1564:	9211      	str	r2, [sp, #68]	; 0x44
/home/aom1/Work/Linux/target/STM32MP1-DK2/buildroot/buildroot/output/build/optee-os-custom/lib/libutils/ext/snprintk.c:481
    1566:	f015 0180 	ands.w	r1, r5, #128	; 0x80
    156a:	f000 8221 	beq.w	19b0 <kprintf.constprop.0+0x5ac>
    156e:	3307      	adds	r3, #7
    1570:	f023 0307 	bic.w	r3, r3, #7
    1574:	461f      	mov	r7, r3
    1576:	685e      	ldr	r6, [r3, #4]
    1578:	f857 4b08 	ldr.w	r4, [r7], #8
    157c:	e225      	b.n	19ca <kprintf.constprop.0+0x5c6>
/home/aom1/Work/Linux/target/STM32MP1-DK2/buildroot/buildroot/output/build/optee-os-custom/lib/libutils/ext/snprintk.c:297
    157e:	9a0c      	ldr	r2, [sp, #48]	; 0x30
    1580:	3a44      	subs	r2, #68	; 0x44
    1582:	2a36      	cmp	r2, #54	; 0x36
    1584:	d9af      	bls.n	14e6 <kprintf.constprop.0+0xe2>
/home/aom1/Work/Linux/target/STM32MP1-DK2/buildroot/buildroot/output/build/optee-os-custom/lib/libutils/ext/snprintk.c:551
    1586:	9a0c      	ldr	r2, [sp, #48]	; 0x30
/home/aom1/Work/Linux/target/STM32MP1-DK2/buildroot/buildroot/output/build/optee-os-custom/lib/libutils/ext/snprintk.c:554
    1588:	461f      	mov	r7, r3
/home/aom1/Work/Linux/target/STM32MP1-DK2/buildroot/buildroot/output/build/optee-os-custom/lib/libutils/ext/snprintk.c:551
    158a:	f88d 2054 	strb.w	r2, [sp, #84]	; 0x54
/home/aom1/Work/Linux/target/STM32MP1-DK2/buildroot/buildroot/output/build/optee-os-custom/lib/libutils/ext/snprintk.c:554
    158e:	e05f      	b.n	1650 <kprintf.constprop.0+0x24c>
/home/aom1/Work/Linux/target/STM32MP1-DK2/buildroot/buildroot/output/build/optee-os-custom/lib/libutils/ext/snprintk.c:305
    1590:	f1b9 0f00 	cmp.w	r9, #0
    1594:	bf08      	it	eq
    1596:	f04f 0920 	moveq.w	r9, #32
    159a:	e7a2      	b.n	14e2 <kprintf.constprop.0+0xde>
/home/aom1/Work/Linux/target/STM32MP1-DK2/buildroot/buildroot/output/build/optee-os-custom/lib/libutils/ext/snprintk.c:308
    159c:	f045 0501 	orr.w	r5, r5, #1
/home/aom1/Work/Linux/target/STM32MP1-DK2/buildroot/buildroot/output/build/optee-os-custom/lib/libutils/ext/snprintk.c:309
    15a0:	e79f      	b.n	14e2 <kprintf.constprop.0+0xde>
/home/aom1/Work/Linux/target/STM32MP1-DK2/buildroot/buildroot/output/build/optee-os-custom/lib/libutils/ext/snprintk.c:317
    15a2:	f853 2b04 	ldr.w	r2, [r3], #4
    15a6:	920f      	str	r2, [sp, #60]	; 0x3c
    15a8:	2a00      	cmp	r2, #0
    15aa:	da9a      	bge.n	14e2 <kprintf.constprop.0+0xde>
/home/aom1/Work/Linux/target/STM32MP1-DK2/buildroot/buildroot/output/build/optee-os-custom/lib/libutils/ext/snprintk.c:319
    15ac:	4252      	negs	r2, r2
    15ae:	920f      	str	r2, [sp, #60]	; 0x3c
/home/aom1/Work/Linux/target/STM32MP1-DK2/buildroot/buildroot/output/build/optee-os-custom/lib/libutils/ext/snprintk.c:322
    15b0:	f045 0504 	orr.w	r5, r5, #4
/home/aom1/Work/Linux/target/STM32MP1-DK2/buildroot/buildroot/output/build/optee-os-custom/lib/libutils/ext/snprintk.c:323
    15b4:	e795      	b.n	14e2 <kprintf.constprop.0+0xde>
/home/aom1/Work/Linux/target/STM32MP1-DK2/buildroot/buildroot/output/build/optee-os-custom/lib/libutils/ext/snprintk.c:328
    15b6:	980b      	ldr	r0, [sp, #44]	; 0x2c
    15b8:	f810 2b01 	ldrb.w	r2, [r0], #1
    15bc:	920c      	str	r2, [sp, #48]	; 0x30
    15be:	2a2a      	cmp	r2, #42	; 0x2a
    15c0:	d111      	bne.n	15e6 <kprintf.constprop.0+0x1e2>
/home/aom1/Work/Linux/target/STM32MP1-DK2/buildroot/buildroot/output/build/optee-os-custom/lib/libutils/ext/snprintk.c:330
    15c2:	f853 2b04 	ldr.w	r2, [r3], #4
/home/aom1/Work/Linux/target/STM32MP1-DK2/buildroot/buildroot/output/build/optee-os-custom/lib/libutils/ext/snprintk.c:328
    15c6:	900b      	str	r0, [sp, #44]	; 0x2c
/home/aom1/Work/Linux/target/STM32MP1-DK2/buildroot/buildroot/output/build/optee-os-custom/lib/libutils/ext/snprintk.c:330
    15c8:	ea42 7be2 	orr.w	fp, r2, r2, asr #31
/home/aom1/Work/Linux/target/STM32MP1-DK2/buildroot/buildroot/output/build/optee-os-custom/lib/libutils/ext/snprintk.c:331
    15cc:	e789      	b.n	14e2 <kprintf.constprop.0+0xde>
/home/aom1/Work/Linux/target/STM32MP1-DK2/buildroot/buildroot/output/build/optee-os-custom/lib/libutils/ext/snprintk.c:335
    15ce:	210a      	movs	r1, #10
    15d0:	fb01 2b0b 	mla	fp, r1, fp, r2
/home/aom1/Work/Linux/target/STM32MP1-DK2/buildroot/buildroot/output/build/optee-os-custom/lib/libutils/ext/snprintk.c:336
    15d4:	f810 2b01 	ldrb.w	r2, [r0], #1
    15d8:	920c      	str	r2, [sp, #48]	; 0x30
/home/aom1/Work/Linux/target/STM32MP1-DK2/buildroot/buildroot/output/build/optee-os-custom/lib/libutils/ext/snprintk.c:334
    15da:	9a0c      	ldr	r2, [sp, #48]	; 0x30
    15dc:	3a30      	subs	r2, #48	; 0x30
    15de:	2a09      	cmp	r2, #9
    15e0:	d9f5      	bls.n	15ce <kprintf.constprop.0+0x1ca>
/home/aom1/Work/Linux/target/STM32MP1-DK2/buildroot/buildroot/output/build/optee-os-custom/lib/libutils/ext/snprintk.c:290
    15e2:	900b      	str	r0, [sp, #44]	; 0x2c
    15e4:	e762      	b.n	14ac <kprintf.constprop.0+0xa8>
/home/aom1/Work/Linux/target/STM32MP1-DK2/buildroot/buildroot/output/build/optee-os-custom/lib/libutils/ext/snprintk.c:333
    15e6:	f04f 0b00 	mov.w	fp, #0
    15ea:	e7f6      	b.n	15da <kprintf.constprop.0+0x1d6>
/home/aom1/Work/Linux/target/STM32MP1-DK2/buildroot/buildroot/output/build/optee-os-custom/lib/libutils/ext/snprintk.c:346
    15ec:	f445 6580 	orr.w	r5, r5, #1024	; 0x400
/home/aom1/Work/Linux/target/STM32MP1-DK2/buildroot/buildroot/output/build/optee-os-custom/lib/libutils/ext/snprintk.c:347
    15f0:	e777      	b.n	14e2 <kprintf.constprop.0+0xde>
/home/aom1/Work/Linux/target/STM32MP1-DK2/buildroot/buildroot/output/build/optee-os-custom/lib/libutils/ext/snprintk.c:297
    15f2:	980b      	ldr	r0, [sp, #44]	; 0x2c
    15f4:	2200      	movs	r2, #0
    15f6:	920f      	str	r2, [sp, #60]	; 0x3c
/home/aom1/Work/Linux/target/STM32MP1-DK2/buildroot/buildroot/output/build/optee-os-custom/lib/libutils/ext/snprintk.c:352
    15f8:	9a0c      	ldr	r2, [sp, #48]	; 0x30
    15fa:	240a      	movs	r4, #10
    15fc:	990f      	ldr	r1, [sp, #60]	; 0x3c
    15fe:	3a30      	subs	r2, #48	; 0x30
    1600:	fb04 2201 	mla	r2, r4, r1, r2
    1604:	920f      	str	r2, [sp, #60]	; 0x3c
/home/aom1/Work/Linux/target/STM32MP1-DK2/buildroot/buildroot/output/build/optee-os-custom/lib/libutils/ext/snprintk.c:353
    1606:	f810 2b01 	ldrb.w	r2, [r0], #1
    160a:	920c      	str	r2, [sp, #48]	; 0x30
/home/aom1/Work/Linux/target/STM32MP1-DK2/buildroot/buildroot/output/build/optee-os-custom/lib/libutils/ext/snprintk.c:354
    160c:	3a30      	subs	r2, #48	; 0x30
    160e:	2a09      	cmp	r2, #9
    1610:	d9f2      	bls.n	15f8 <kprintf.constprop.0+0x1f4>
    1612:	e7e6      	b.n	15e2 <kprintf.constprop.0+0x1de>
/home/aom1/Work/Linux/target/STM32MP1-DK2/buildroot/buildroot/output/build/optee-os-custom/lib/libutils/ext/snprintk.c:358
    1614:	f045 0540 	orr.w	r5, r5, #64	; 0x40
/home/aom1/Work/Linux/target/STM32MP1-DK2/buildroot/buildroot/output/build/optee-os-custom/lib/libutils/ext/snprintk.c:359
    1618:	e763      	b.n	14e2 <kprintf.constprop.0+0xde>
/home/aom1/Work/Linux/target/STM32MP1-DK2/buildroot/buildroot/output/build/optee-os-custom/lib/libutils/ext/snprintk.c:361
    161a:	f045 0580 	orr.w	r5, r5, #128	; 0x80
/home/aom1/Work/Linux/target/STM32MP1-DK2/buildroot/buildroot/output/build/optee-os-custom/lib/libutils/ext/snprintk.c:362
    161e:	e760      	b.n	14e2 <kprintf.constprop.0+0xde>
/home/aom1/Work/Linux/target/STM32MP1-DK2/buildroot/buildroot/output/build/optee-os-custom/lib/libutils/ext/snprintk.c:364
    1620:	9a0b      	ldr	r2, [sp, #44]	; 0x2c
    1622:	7812      	ldrb	r2, [r2, #0]
    1624:	2a6c      	cmp	r2, #108	; 0x6c
    1626:	d105      	bne.n	1634 <kprintf.constprop.0+0x230>
/home/aom1/Work/Linux/target/STM32MP1-DK2/buildroot/buildroot/output/build/optee-os-custom/lib/libutils/ext/snprintk.c:328
    1628:	9a0b      	ldr	r2, [sp, #44]	; 0x2c
    162a:	3201      	adds	r2, #1
    162c:	920b      	str	r2, [sp, #44]	; 0x2c
/home/aom1/Work/Linux/target/STM32MP1-DK2/buildroot/buildroot/output/build/optee-os-custom/lib/libutils/ext/snprintk.c:372
    162e:	f045 0520 	orr.w	r5, r5, #32
/home/aom1/Work/Linux/target/STM32MP1-DK2/buildroot/buildroot/output/build/optee-os-custom/lib/libutils/ext/snprintk.c:373
    1632:	e756      	b.n	14e2 <kprintf.constprop.0+0xde>
/home/aom1/Work/Linux/target/STM32MP1-DK2/buildroot/buildroot/output/build/optee-os-custom/lib/libutils/ext/snprintk.c:368
    1634:	f045 0510 	orr.w	r5, r5, #16
    1638:	e753      	b.n	14e2 <kprintf.constprop.0+0xde>
/home/aom1/Work/Linux/target/STM32MP1-DK2/buildroot/buildroot/output/build/optee-os-custom/lib/libutils/ext/snprintk.c:375
    163a:	f445 7580 	orr.w	r5, r5, #256	; 0x100
/home/aom1/Work/Linux/target/STM32MP1-DK2/buildroot/buildroot/output/build/optee-os-custom/lib/libutils/ext/snprintk.c:376
    163e:	e750      	b.n	14e2 <kprintf.constprop.0+0xde>
/home/aom1/Work/Linux/target/STM32MP1-DK2/buildroot/buildroot/output/build/optee-os-custom/lib/libutils/ext/snprintk.c:378
    1640:	f445 7500 	orr.w	r5, r5, #512	; 0x200
/home/aom1/Work/Linux/target/STM32MP1-DK2/buildroot/buildroot/output/build/optee-os-custom/lib/libutils/ext/snprintk.c:379
    1644:	e74d      	b.n	14e2 <kprintf.constprop.0+0xde>
/home/aom1/Work/Linux/target/STM32MP1-DK2/buildroot/buildroot/output/build/optee-os-custom/lib/libutils/ext/snprintk.c:381
    1646:	461f      	mov	r7, r3
    1648:	f857 3b04 	ldr.w	r3, [r7], #4
    164c:	f88d 3054 	strb.w	r3, [sp, #84]	; 0x54
/home/aom1/Work/Linux/target/STM32MP1-DK2/buildroot/buildroot/output/build/optee-os-custom/lib/libutils/ext/snprintk.c:291
    1650:	2000      	movs	r0, #0
/home/aom1/Work/Linux/target/STM32MP1-DK2/buildroot/buildroot/output/build/optee-os-custom/lib/libutils/ext/snprintk.c:552
    1652:	f04f 0b01 	mov.w	fp, #1
/home/aom1/Work/Linux/target/STM32MP1-DK2/buildroot/buildroot/output/build/optee-os-custom/lib/libutils/ext/snprintk.c:553
    1656:	4681      	mov	r9, r0
/home/aom1/Work/Linux/target/STM32MP1-DK2/buildroot/buildroot/output/build/optee-os-custom/lib/libutils/ext/snprintk.c:550
    1658:	f10d 0a54 	add.w	sl, sp, #84	; 0x54
/home/aom1/Work/Linux/target/STM32MP1-DK2/buildroot/buildroot/output/build/optee-os-custom/lib/libutils/ext/snprintk.c:554
    165c:	e03c      	b.n	16d8 <kprintf.constprop.0+0x2d4>
/home/aom1/Work/Linux/target/STM32MP1-DK2/buildroot/buildroot/output/build/optee-os-custom/lib/libutils/ext/snprintk.c:386
    165e:	f045 0510 	orr.w	r5, r5, #16
/home/aom1/Work/Linux/target/STM32MP1-DK2/buildroot/buildroot/output/build/optee-os-custom/lib/libutils/ext/snprintk.c:390
    1662:	062c      	lsls	r4, r5, #24
    1664:	f140 8088 	bpl.w	1778 <kprintf.constprop.0+0x374>
    1668:	3307      	adds	r3, #7
    166a:	f023 0307 	bic.w	r3, r3, #7
    166e:	461f      	mov	r7, r3
    1670:	685e      	ldr	r6, [r3, #4]
    1672:	f857 4b08 	ldr.w	r4, [r7], #8
/home/aom1/Work/Linux/target/STM32MP1-DK2/buildroot/buildroot/output/build/optee-os-custom/lib/libutils/ext/snprintk.c:391
    1676:	2e00      	cmp	r6, #0
    1678:	f280 816b 	bge.w	1952 <kprintf.constprop.0+0x54e>
/home/aom1/Work/Linux/target/STM32MP1-DK2/buildroot/buildroot/output/build/optee-os-custom/lib/libutils/ext/snprintk.c:392
    167c:	4264      	negs	r4, r4
/home/aom1/Work/Linux/target/STM32MP1-DK2/buildroot/buildroot/output/build/optee-os-custom/lib/libutils/ext/snprintk.c:395
    167e:	f04f 0301 	mov.w	r3, #1
/home/aom1/Work/Linux/target/STM32MP1-DK2/buildroot/buildroot/output/build/optee-os-custom/lib/libutils/ext/snprintk.c:392
    1682:	eb66 0646 	sbc.w	r6, r6, r6, lsl #1
/home/aom1/Work/Linux/target/STM32MP1-DK2/buildroot/buildroot/output/build/optee-os-custom/lib/libutils/ext/snprintk.c:393
    1686:	f04f 092d 	mov.w	r9, #45	; 0x2d
/home/aom1/Work/Linux/target/STM32MP1-DK2/buildroot/buildroot/output/build/optee-os-custom/lib/libutils/ext/snprintk.c:494
    168a:	f1bb 3fff 	cmp.w	fp, #4294967295	; 0xffffffff
    168e:	f040 80ca 	bne.w	1826 <kprintf.constprop.0+0x422>
/home/aom1/Work/Linux/target/STM32MP1-DK2/buildroot/buildroot/output/build/optee-os-custom/lib/libutils/ext/snprintk.c:509
    1692:	2b01      	cmp	r3, #1
    1694:	f000 8160 	beq.w	1958 <kprintf.constprop.0+0x554>
    1698:	2b02      	cmp	r3, #2
    169a:	f000 811e 	beq.w	18da <kprintf.constprop.0+0x4d6>
/home/aom1/Work/Linux/target/STM32MP1-DK2/buildroot/buildroot/output/build/optee-os-custom/lib/libutils/ext/snprintk.c:494
    169e:	f10d 0a79 	add.w	sl, sp, #121	; 0x79
/home/aom1/Work/Linux/target/STM32MP1-DK2/buildroot/buildroot/output/build/optee-os-custom/lib/libutils/ext/snprintk.c:512
    16a2:	f004 0307 	and.w	r3, r4, #7
    16a6:	4652      	mov	r2, sl
/home/aom1/Work/Linux/target/STM32MP1-DK2/buildroot/buildroot/output/build/optee-os-custom/lib/libutils/ext/snprintk.c:513
    16a8:	08e4      	lsrs	r4, r4, #3
/home/aom1/Work/Linux/target/STM32MP1-DK2/buildroot/buildroot/output/build/optee-os-custom/lib/libutils/ext/snprintk.c:512
    16aa:	3330      	adds	r3, #48	; 0x30
/home/aom1/Work/Linux/target/STM32MP1-DK2/buildroot/buildroot/output/build/optee-os-custom/lib/libutils/ext/snprintk.c:513
    16ac:	ea44 7446 	orr.w	r4, r4, r6, lsl #29
    16b0:	08f6      	lsrs	r6, r6, #3
/home/aom1/Work/Linux/target/STM32MP1-DK2/buildroot/buildroot/output/build/optee-os-custom/lib/libutils/ext/snprintk.c:514
    16b2:	ea54 0106 	orrs.w	r1, r4, r6
/home/aom1/Work/Linux/target/STM32MP1-DK2/buildroot/buildroot/output/build/optee-os-custom/lib/libutils/ext/snprintk.c:512
    16b6:	f80a 3d01 	strb.w	r3, [sl, #-1]!
/home/aom1/Work/Linux/target/STM32MP1-DK2/buildroot/buildroot/output/build/optee-os-custom/lib/libutils/ext/snprintk.c:514
    16ba:	d1f2      	bne.n	16a2 <kprintf.constprop.0+0x29e>
/home/aom1/Work/Linux/target/STM32MP1-DK2/buildroot/buildroot/output/build/optee-os-custom/lib/libutils/ext/snprintk.c:516
    16bc:	07ee      	lsls	r6, r5, #31
    16be:	d506      	bpl.n	16ce <kprintf.constprop.0+0x2ca>
    16c0:	2b30      	cmp	r3, #48	; 0x30
    16c2:	d004      	beq.n	16ce <kprintf.constprop.0+0x2ca>
/home/aom1/Work/Linux/target/STM32MP1-DK2/buildroot/buildroot/output/build/optee-os-custom/lib/libutils/ext/snprintk.c:517
    16c4:	2330      	movs	r3, #48	; 0x30
    16c6:	f80a 3c01 	strb.w	r3, [sl, #-1]
    16ca:	f1a2 0a02 	sub.w	sl, r2, #2
/home/aom1/Work/Linux/target/STM32MP1-DK2/buildroot/buildroot/output/build/optee-os-custom/lib/libutils/ext/snprintk.c:543
    16ce:	f10d 0379 	add.w	r3, sp, #121	; 0x79
    16d2:	4658      	mov	r0, fp
    16d4:	eba3 0b0a 	sub.w	fp, r3, sl
/home/aom1/Work/Linux/target/STM32MP1-DK2/buildroot/buildroot/output/build/optee-os-custom/lib/libutils/ext/snprintk.c:571
    16d8:	4558      	cmp	r0, fp
    16da:	4603      	mov	r3, r0
    16dc:	bfb8      	it	lt
    16de:	465b      	movlt	r3, fp
/home/aom1/Work/Linux/target/STM32MP1-DK2/buildroot/buildroot/output/build/optee-os-custom/lib/libutils/ext/snprintk.c:572
    16e0:	f1b9 0f00 	cmp.w	r9, #0
    16e4:	f000 81b5 	beq.w	1a52 <kprintf.constprop.0+0x64e>
/home/aom1/Work/Linux/target/STM32MP1-DK2/buildroot/buildroot/output/build/optee-os-custom/lib/libutils/ext/snprintk.c:573
    16e8:	3301      	adds	r3, #1
/home/aom1/Work/Linux/target/STM32MP1-DK2/buildroot/buildroot/output/build/optee-os-custom/lib/libutils/ext/snprintk.c:578
    16ea:	9a0d      	ldr	r2, [sp, #52]	; 0x34
    16ec:	990f      	ldr	r1, [sp, #60]	; 0x3c
    16ee:	428b      	cmp	r3, r1
    16f0:	bfac      	ite	ge
    16f2:	18d2      	addge	r2, r2, r3
    16f4:	1852      	addlt	r2, r2, r1
    16f6:	920d      	str	r2, [sp, #52]	; 0x34
/home/aom1/Work/Linux/target/STM32MP1-DK2/buildroot/buildroot/output/build/optee-os-custom/lib/libutils/ext/snprintk.c:581
    16f8:	f240 4204 	movw	r2, #1028	; 0x404
    16fc:	402a      	ands	r2, r5
    16fe:	d104      	bne.n	170a <kprintf.constprop.0+0x306>
/home/aom1/Work/Linux/target/STM32MP1-DK2/buildroot/buildroot/output/build/optee-os-custom/lib/libutils/ext/snprintk.c:582
    1700:	1ac9      	subs	r1, r1, r3
/home/aom1/Work/Linux/target/STM32MP1-DK2/buildroot/buildroot/output/build/optee-os-custom/lib/libutils/ext/snprintk.c:584
    1702:	2420      	movs	r4, #32
/home/aom1/Work/Linux/target/STM32MP1-DK2/buildroot/buildroot/output/build/optee-os-custom/lib/libutils/ext/snprintk.c:583
    1704:	2900      	cmp	r1, #0
    1706:	f300 81a8 	bgt.w	1a5a <kprintf.constprop.0+0x656>
/home/aom1/Work/Linux/target/STM32MP1-DK2/buildroot/buildroot/output/build/optee-os-custom/lib/libutils/ext/snprintk.c:588
    170a:	f1b9 0f00 	cmp.w	r9, #0
    170e:	f000 81b0 	beq.w	1a72 <kprintf.constprop.0+0x66e>
/home/aom1/Work/Linux/target/STM32MP1-DK2/buildroot/buildroot/output/build/optee-os-custom/lib/libutils/ext/snprintk.c:589
    1712:	f1b8 0f00 	cmp.w	r8, #0
    1716:	d006      	beq.n	1726 <kprintf.constprop.0+0x322>
    1718:	990e      	ldr	r1, [sp, #56]	; 0x38
    171a:	b111      	cbz	r1, 1722 <kprintf.constprop.0+0x31e>
    171c:	9910      	ldr	r1, [sp, #64]	; 0x40
    171e:	4541      	cmp	r1, r8
    1720:	d901      	bls.n	1726 <kprintf.constprop.0+0x322>
    1722:	f808 9b01 	strb.w	r9, [r8], #1
/home/aom1/Work/Linux/target/STM32MP1-DK2/buildroot/buildroot/output/build/optee-os-custom/lib/libutils/ext/snprintk.c:596
    1726:	f5b2 6f80 	cmp.w	r2, #1024	; 0x400
    172a:	d105      	bne.n	1738 <kprintf.constprop.0+0x334>
/home/aom1/Work/Linux/target/STM32MP1-DK2/buildroot/buildroot/output/build/optee-os-custom/lib/libutils/ext/snprintk.c:597
    172c:	9a0f      	ldr	r2, [sp, #60]	; 0x3c
    172e:	1ad1      	subs	r1, r2, r3
/home/aom1/Work/Linux/target/STM32MP1-DK2/buildroot/buildroot/output/build/optee-os-custom/lib/libutils/ext/snprintk.c:599
    1730:	2230      	movs	r2, #48	; 0x30
/home/aom1/Work/Linux/target/STM32MP1-DK2/buildroot/buildroot/output/build/optee-os-custom/lib/libutils/ext/snprintk.c:598
    1732:	2900      	cmp	r1, #0
    1734:	f300 81bc 	bgt.w	1ab0 <kprintf.constprop.0+0x6ac>
/home/aom1/Work/Linux/target/STM32MP1-DK2/buildroot/buildroot/output/build/optee-os-custom/lib/libutils/ext/snprintk.c:603
    1738:	eba0 000b 	sub.w	r0, r0, fp
/home/aom1/Work/Linux/target/STM32MP1-DK2/buildroot/buildroot/output/build/optee-os-custom/lib/libutils/ext/snprintk.c:605
    173c:	2230      	movs	r2, #48	; 0x30
/home/aom1/Work/Linux/target/STM32MP1-DK2/buildroot/buildroot/output/build/optee-os-custom/lib/libutils/ext/snprintk.c:604
    173e:	2800      	cmp	r0, #0
    1740:	f300 81c2 	bgt.w	1ac8 <kprintf.constprop.0+0x6c4>
    1744:	eb0a 000b 	add.w	r0, sl, fp
/home/aom1/Work/Linux/target/STM32MP1-DK2/buildroot/buildroot/output/build/optee-os-custom/lib/libutils/ext/snprintk.c:608
    1748:	4582      	cmp	sl, r0
    174a:	f040 81c9 	bne.w	1ae0 <kprintf.constprop.0+0x6dc>
/home/aom1/Work/Linux/target/STM32MP1-DK2/buildroot/buildroot/output/build/optee-os-custom/lib/libutils/ext/snprintk.c:611
    174e:	076a      	lsls	r2, r5, #29
    1750:	f57f ae72 	bpl.w	1438 <kprintf.constprop.0+0x34>
/home/aom1/Work/Linux/target/STM32MP1-DK2/buildroot/buildroot/output/build/optee-os-custom/lib/libutils/ext/snprintk.c:612
    1754:	9a0f      	ldr	r2, [sp, #60]	; 0x3c
    1756:	1ad3      	subs	r3, r2, r3
/home/aom1/Work/Linux/target/STM32MP1-DK2/buildroot/buildroot/output/build/optee-os-custom/lib/libutils/ext/snprintk.c:614
    1758:	2220      	movs	r2, #32
/home/aom1/Work/Linux/target/STM32MP1-DK2/buildroot/buildroot/output/build/optee-os-custom/lib/libutils/ext/snprintk.c:613
    175a:	2b00      	cmp	r3, #0
    175c:	f77f ae6c 	ble.w	1438 <kprintf.constprop.0+0x34>
/home/aom1/Work/Linux/target/STM32MP1-DK2/buildroot/buildroot/output/build/optee-os-custom/lib/libutils/ext/snprintk.c:614
    1760:	f1b8 0f00 	cmp.w	r8, #0
    1764:	d006      	beq.n	1774 <kprintf.constprop.0+0x370>
    1766:	990e      	ldr	r1, [sp, #56]	; 0x38
    1768:	b111      	cbz	r1, 1770 <kprintf.constprop.0+0x36c>
    176a:	9910      	ldr	r1, [sp, #64]	; 0x40
    176c:	4541      	cmp	r1, r8
    176e:	d901      	bls.n	1774 <kprintf.constprop.0+0x370>
    1770:	f808 2b01 	strb.w	r2, [r8], #1
    1774:	3b01      	subs	r3, #1
    1776:	e7f0      	b.n	175a <kprintf.constprop.0+0x356>
/home/aom1/Work/Linux/target/STM32MP1-DK2/buildroot/buildroot/output/build/optee-os-custom/lib/libutils/ext/snprintk.c:390
    1778:	05e8      	lsls	r0, r5, #23
    177a:	d504      	bpl.n	1786 <kprintf.constprop.0+0x382>
    177c:	461f      	mov	r7, r3
    177e:	f857 4b04 	ldr.w	r4, [r7], #4
    1782:	17e6      	asrs	r6, r4, #31
    1784:	e777      	b.n	1676 <kprintf.constprop.0+0x272>
    1786:	05a9      	lsls	r1, r5, #22
    1788:	d4f8      	bmi.n	177c <kprintf.constprop.0+0x378>
    178a:	06aa      	lsls	r2, r5, #26
    178c:	f53f af6c 	bmi.w	1668 <kprintf.constprop.0+0x264>
/home/aom1/Work/Linux/target/STM32MP1-DK2/buildroot/buildroot/output/build/optee-os-custom/lib/libutils/ext/snprintk.c:317
    1790:	461f      	mov	r7, r3
/home/aom1/Work/Linux/target/STM32MP1-DK2/buildroot/buildroot/output/build/optee-os-custom/lib/libutils/ext/snprintk.c:390
    1792:	06eb      	lsls	r3, r5, #27
/home/aom1/Work/Linux/target/STM32MP1-DK2/buildroot/buildroot/output/build/optee-os-custom/lib/libutils/ext/snprintk.c:317
    1794:	f857 6b04 	ldr.w	r6, [r7], #4
/home/aom1/Work/Linux/target/STM32MP1-DK2/buildroot/buildroot/output/build/optee-os-custom/lib/libutils/ext/snprintk.c:390
    1798:	d501      	bpl.n	179e <kprintf.constprop.0+0x39a>
    179a:	4634      	mov	r4, r6
    179c:	e7f1      	b.n	1782 <kprintf.constprop.0+0x37e>
    179e:	066c      	lsls	r4, r5, #25
    17a0:	d5fb      	bpl.n	179a <kprintf.constprop.0+0x396>
    17a2:	b234      	sxth	r4, r6
    17a4:	f346 36c0 	sbfx	r6, r6, #15, #1
    17a8:	e765      	b.n	1676 <kprintf.constprop.0+0x272>
/home/aom1/Work/Linux/target/STM32MP1-DK2/buildroot/buildroot/output/build/optee-os-custom/lib/libutils/ext/snprintk.c:398
    17aa:	0628      	lsls	r0, r5, #24
/home/aom1/Work/Linux/target/STM32MP1-DK2/buildroot/buildroot/output/build/optee-os-custom/lib/libutils/ext/snprintk.c:317
    17ac:	f103 0704 	add.w	r7, r3, #4
/home/aom1/Work/Linux/target/STM32MP1-DK2/buildroot/buildroot/output/build/optee-os-custom/lib/libutils/ext/snprintk.c:398
    17b0:	d506      	bpl.n	17c0 <kprintf.constprop.0+0x3bc>
/home/aom1/Work/Linux/target/STM32MP1-DK2/buildroot/buildroot/output/build/optee-os-custom/lib/libutils/ext/snprintk.c:405
    17b2:	9a0d      	ldr	r2, [sp, #52]	; 0x34
    17b4:	681b      	ldr	r3, [r3, #0]
    17b6:	990d      	ldr	r1, [sp, #52]	; 0x34
    17b8:	17d2      	asrs	r2, r2, #31
    17ba:	e9c3 1200 	strd	r1, r2, [r3]
    17be:	e63b      	b.n	1438 <kprintf.constprop.0+0x34>
/home/aom1/Work/Linux/target/STM32MP1-DK2/buildroot/buildroot/output/build/optee-os-custom/lib/libutils/ext/snprintk.c:400
    17c0:	05e9      	lsls	r1, r5, #23
    17c2:	d503      	bpl.n	17cc <kprintf.constprop.0+0x3c8>
/home/aom1/Work/Linux/target/STM32MP1-DK2/buildroot/buildroot/output/build/optee-os-custom/lib/libutils/ext/snprintk.c:411
    17c4:	681b      	ldr	r3, [r3, #0]
    17c6:	9a0d      	ldr	r2, [sp, #52]	; 0x34
    17c8:	601a      	str	r2, [r3, #0]
    17ca:	e635      	b.n	1438 <kprintf.constprop.0+0x34>
/home/aom1/Work/Linux/target/STM32MP1-DK2/buildroot/buildroot/output/build/optee-os-custom/lib/libutils/ext/snprintk.c:402
    17cc:	05aa      	lsls	r2, r5, #22
    17ce:	d4f9      	bmi.n	17c4 <kprintf.constprop.0+0x3c0>
/home/aom1/Work/Linux/target/STM32MP1-DK2/buildroot/buildroot/output/build/optee-os-custom/lib/libutils/ext/snprintk.c:404
    17d0:	06ae      	lsls	r6, r5, #26
    17d2:	d4ee      	bmi.n	17b2 <kprintf.constprop.0+0x3ae>
/home/aom1/Work/Linux/target/STM32MP1-DK2/buildroot/buildroot/output/build/optee-os-custom/lib/libutils/ext/snprintk.c:406
    17d4:	06ec      	lsls	r4, r5, #27
    17d6:	d4f5      	bmi.n	17c4 <kprintf.constprop.0+0x3c0>
/home/aom1/Work/Linux/target/STM32MP1-DK2/buildroot/buildroot/output/build/optee-os-custom/lib/libutils/ext/snprintk.c:408
    17d8:	0668      	lsls	r0, r5, #25
    17da:	d5f3      	bpl.n	17c4 <kprintf.constprop.0+0x3c0>
/home/aom1/Work/Linux/target/STM32MP1-DK2/buildroot/buildroot/output/build/optee-os-custom/lib/libutils/ext/snprintk.c:409
    17dc:	681b      	ldr	r3, [r3, #0]
    17de:	9a0d      	ldr	r2, [sp, #52]	; 0x34
    17e0:	801a      	strh	r2, [r3, #0]
    17e2:	e629      	b.n	1438 <kprintf.constprop.0+0x34>
/home/aom1/Work/Linux/target/STM32MP1-DK2/buildroot/buildroot/output/build/optee-os-custom/lib/libutils/ext/snprintk.c:414
    17e4:	f045 0510 	orr.w	r5, r5, #16
/home/aom1/Work/Linux/target/STM32MP1-DK2/buildroot/buildroot/output/build/optee-os-custom/lib/libutils/ext/snprintk.c:417
    17e8:	f015 0180 	ands.w	r1, r5, #128	; 0x80
    17ec:	d007      	beq.n	17fe <kprintf.constprop.0+0x3fa>
    17ee:	3307      	adds	r3, #7
    17f0:	f023 0307 	bic.w	r3, r3, #7
    17f4:	461f      	mov	r7, r3
    17f6:	685e      	ldr	r6, [r3, #4]
    17f8:	f857 4b08 	ldr.w	r4, [r7], #8
    17fc:	e00c      	b.n	1818 <kprintf.constprop.0+0x414>
    17fe:	f415 7680 	ands.w	r6, r5, #256	; 0x100
    1802:	d004      	beq.n	180e <kprintf.constprop.0+0x40a>
    1804:	461f      	mov	r7, r3
    1806:	f857 4b04 	ldr.w	r4, [r7], #4
    180a:	460e      	mov	r6, r1
    180c:	e004      	b.n	1818 <kprintf.constprop.0+0x414>
    180e:	05a9      	lsls	r1, r5, #22
    1810:	d516      	bpl.n	1840 <kprintf.constprop.0+0x43c>
    1812:	461f      	mov	r7, r3
    1814:	f857 4b04 	ldr.w	r4, [r7], #4
/home/aom1/Work/Linux/target/STM32MP1-DK2/buildroot/buildroot/output/build/optee-os-custom/lib/libutils/ext/snprintk.c:494
    1818:	f1bb 3fff 	cmp.w	fp, #4294967295	; 0xffffffff
    181c:	f04f 0900 	mov.w	r9, #0
    1820:	f43f af3d 	beq.w	169e <kprintf.constprop.0+0x29a>
    1824:	464b      	mov	r3, r9
/home/aom1/Work/Linux/target/STM32MP1-DK2/buildroot/buildroot/output/build/optee-os-custom/lib/libutils/ext/snprintk.c:503
    1826:	ea54 0206 	orrs.w	r2, r4, r6
/home/aom1/Work/Linux/target/STM32MP1-DK2/buildroot/buildroot/output/build/optee-os-custom/lib/libutils/ext/snprintk.c:495
    182a:	f425 6580 	bic.w	r5, r5, #1024	; 0x400
/home/aom1/Work/Linux/target/STM32MP1-DK2/buildroot/buildroot/output/build/optee-os-custom/lib/libutils/ext/snprintk.c:503
    182e:	f47f af30 	bne.w	1692 <kprintf.constprop.0+0x28e>
    1832:	f1bb 0f00 	cmp.w	fp, #0
    1836:	f47f af2c 	bne.w	1692 <kprintf.constprop.0+0x28e>
/home/aom1/Work/Linux/target/STM32MP1-DK2/buildroot/buildroot/output/build/optee-os-custom/lib/libutils/ext/snprintk.c:502
    183a:	f10d 0a79 	add.w	sl, sp, #121	; 0x79
    183e:	e746      	b.n	16ce <kprintf.constprop.0+0x2ca>
/home/aom1/Work/Linux/target/STM32MP1-DK2/buildroot/buildroot/output/build/optee-os-custom/lib/libutils/ext/snprintk.c:417
    1840:	f015 0620 	ands.w	r6, r5, #32
    1844:	d1d3      	bne.n	17ee <kprintf.constprop.0+0x3ea>
/home/aom1/Work/Linux/target/STM32MP1-DK2/buildroot/buildroot/output/build/optee-os-custom/lib/libutils/ext/snprintk.c:317
    1846:	461f      	mov	r7, r3
/home/aom1/Work/Linux/target/STM32MP1-DK2/buildroot/buildroot/output/build/optee-os-custom/lib/libutils/ext/snprintk.c:417
    1848:	f015 0110 	ands.w	r1, r5, #16
/home/aom1/Work/Linux/target/STM32MP1-DK2/buildroot/buildroot/output/build/optee-os-custom/lib/libutils/ext/snprintk.c:317
    184c:	f857 4b04 	ldr.w	r4, [r7], #4
/home/aom1/Work/Linux/target/STM32MP1-DK2/buildroot/buildroot/output/build/optee-os-custom/lib/libutils/ext/snprintk.c:417
    1850:	d1e2      	bne.n	1818 <kprintf.constprop.0+0x414>
    1852:	f015 0640 	ands.w	r6, r5, #64	; 0x40
    1856:	d0df      	beq.n	1818 <kprintf.constprop.0+0x414>
    1858:	b2a4      	uxth	r4, r4
    185a:	e7d6      	b.n	180a <kprintf.constprop.0+0x406>
/home/aom1/Work/Linux/target/STM32MP1-DK2/buildroot/buildroot/output/build/optee-os-custom/lib/libutils/ext/snprintk.c:317
    185c:	461f      	mov	r7, r3
/home/aom1/Work/Linux/target/STM32MP1-DK2/buildroot/buildroot/output/build/optee-os-custom/lib/libutils/ext/snprintk.c:421
    185e:	9b13      	ldr	r3, [sp, #76]	; 0x4c
    1860:	f857 4b04 	ldr.w	r4, [r7], #4
    1864:	2b00      	cmp	r3, #0
    1866:	d029      	beq.n	18bc <kprintf.constprop.0+0x4b8>
    1868:	9b0b      	ldr	r3, [sp, #44]	; 0x2c
    186a:	781b      	ldrb	r3, [r3, #0]
    186c:	2b55      	cmp	r3, #85	; 0x55
    186e:	d125      	bne.n	18bc <kprintf.constprop.0+0x4b8>
    1870:	9b0b      	ldr	r3, [sp, #44]	; 0x2c
    1872:	785b      	ldrb	r3, [r3, #1]
    1874:	2b6c      	cmp	r3, #108	; 0x6c
    1876:	d121      	bne.n	18bc <kprintf.constprop.0+0x4b8>
