
out/arm-plat-stm32mp1/ta/trusted_keys/f04a0fe7-1f5d-4b9b-abf7-619b85b4ce8c.elf:     file format elf32-littlearm
out/arm-plat-stm32mp1/ta/trusted_keys/f04a0fe7-1f5d-4b9b-abf7-619b85b4ce8c.elf
architecture: armv7, flags 0x00000150:
HAS_SYMS, DYNAMIC, D_PAGED
start address 0x0000080c

Program Header:
    LOAD off    0x00001000 vaddr 0x00000000 paddr 0x00000000 align 2**12
         filesz 0x00013aa0 memsz 0x00013aa0 flags r-x
    LOAD off    0x00015000 vaddr 0x00014000 paddr 0x00014000 align 2**12
         filesz 0x00000364 memsz 0x000073b0 flags rw-
 DYNAMIC off    0x00015000 vaddr 0x00014000 paddr 0x00014000 align 2**2
         filesz 0x00000088 memsz 0x00000088 flags rw-
   STACK off    0x00000000 vaddr 0x00000000 paddr 0x00000000 align 2**4
         filesz 0x00000000 memsz 0x00000000 flags rwx

Dynamic Section:
  HASH                 0x00013a74
  GNU_HASH             0x000139b8
  STRTAB               0x00013a44
  SYMTAB               0x000139e4
  STRSZ                0x0000002e
  SYMENT               0x00000010
  DEBUG                0x00000000
  REL                  0x000140dc
  RELSZ                0x00000180
  RELENT               0x00000008
  FLAGS_1              0x08000000
  RELCOUNT             0x0000001e
private flags = 0x5000400: [Version5 EABI] [hard-float ABI]

Sections:
Idx Name          Size      VMA       LMA       File off  Algn
  0 .ta_head      00000020  00000000  00000000  00001000  2**3
                  CONTENTS, ALLOC, LOAD, READONLY, DATA
  1 .text         00012608  00000020  00000020  00001020  2**2
                  CONTENTS, ALLOC, LOAD, READONLY, CODE
  2 .rodata       0000138e  00012628  00012628  00013628  2**2
                  CONTENTS, ALLOC, LOAD, READONLY, DATA
  3 .gnu.hash     0000002c  000139b8  000139b8  000149b8  2**2
                  CONTENTS, ALLOC, LOAD, READONLY, DATA
  4 .dynsym       00000060  000139e4  000139e4  000149e4  2**2
                  CONTENTS, ALLOC, LOAD, READONLY, DATA
  5 .dynstr       0000002e  00013a44  00013a44  00014a44  2**0
                  CONTENTS, ALLOC, LOAD, READONLY, DATA
  6 .hash         0000002c  00013a74  00013a74  00014a74  2**2
                  CONTENTS, ALLOC, LOAD, READONLY, DATA
  7 .dynamic      00000088  00014000  00014000  00015000  2**2
                  CONTENTS, ALLOC, LOAD, DATA
  8 .got          00000054  00014088  00014088  00015088  2**2
                  CONTENTS, ALLOC, LOAD, DATA
  9 .rel.got      00000090  000141cc  000141cc  000151cc  2**2
                  CONTENTS, ALLOC, LOAD, READONLY, DATA
 10 .data         00000108  0001425c  0001425c  0001525c  2**2
                  CONTENTS, ALLOC, LOAD, DATA
 11 .bss          0000704c  00014364  00014364  00015364  2**2
                  ALLOC
 12 .debug_info   0000ec30  00000000  00000000  00015364  2**0
                  CONTENTS, READONLY, DEBUGGING, OCTETS
 13 .debug_abbrev 00003415  00000000  00000000  00023f94  2**0
                  CONTENTS, READONLY, DEBUGGING, OCTETS
 14 .debug_aranges 00000628  00000000  00000000  000273b0  2**3
                  CONTENTS, READONLY, DEBUGGING, OCTETS
 15 .debug_macro  0001b8ae  00000000  00000000  000279d8  2**0
                  CONTENTS, READONLY, DEBUGGING, OCTETS
 16 .debug_line   0000b86a  00000000  00000000  00043286  2**0
                  CONTENTS, READONLY, DEBUGGING, OCTETS
 17 .debug_str    00019064  00000000  00000000  0004eaf0  2**0
                  CONTENTS, READONLY, DEBUGGING, OCTETS
 18 .comment      00000033  00000000  00000000  00067b54  2**0
                  CONTENTS, READONLY
 19 .ARM.attributes 00000033  00000000  00000000  00067b87  2**0
                  CONTENTS, READONLY
 20 .debug_frame  000039ac  00000000  00000000  00067bbc  2**2
                  CONTENTS, READONLY, DEBUGGING, OCTETS
 21 .rel.dyn      000000f0  000140dc  000140dc  000150dc  2**2
                  CONTENTS, ALLOC, LOAD, READONLY, DATA
 22 .debug_line_str 000000fa  00000000  00000000  0006b568  2**0
                  CONTENTS, READONLY, DEBUGGING, OCTETS
 23 .debug_rnglists 00000193  00000000  00000000  0006b662  2**0
                  CONTENTS, READONLY, DEBUGGING, OCTETS
SYMBOL TABLE:
00000000 l    d  .ta_head	00000000 .ta_head
00000020 l    d  .text	00000000 .text
00012628 l    d  .rodata	00000000 .rodata
000139b8 l    d  .gnu.hash	00000000 .gnu.hash
000139e4 l    d  .dynsym	00000000 .dynsym
00013a44 l    d  .dynstr	00000000 .dynstr
00013a74 l    d  .hash	00000000 .hash
00014000 l    d  .dynamic	00000000 .dynamic
00014088 l    d  .got	00000000 .got
000141cc l    d  .rel.got	00000000 .rel.got
0001425c l    d  .data	00000000 .data
00014364 l    d  .bss	00000000 .bss
00000000 l    d  .debug_info	00000000 .debug_info
00000000 l    d  .debug_abbrev	00000000 .debug_abbrev
00000000 l    d  .debug_aranges	00000000 .debug_aranges
00000000 l    d  .debug_macro	00000000 .debug_macro
00000000 l    d  .debug_line	00000000 .debug_line
00000000 l    d  .debug_str	00000000 .debug_str
00000000 l    d  .comment	00000000 .comment
00000000 l    d  .ARM.attributes	00000000 .ARM.attributes
00000000 l    d  .debug_frame	00000000 .debug_frame
000140dc l    d  .rel.dyn	00000000 .rel.dyn
00000000 l    d  .debug_line_str	00000000 .debug_line_str
00000000 l    d  .debug_rnglists	00000000 .debug_rnglists
00000000 l    df *ABS*	00000000 user_ta_header.c
00012798 l     O .rodata	00000001 __compound_literal.0
00012799 l     O .rodata	00000001 __compound_literal.1
0001279a l     O .rodata	00000001 __compound_literal.2
0001279c l     O .rodata	00000004 __compound_literal.3
000127a0 l     O .rodata	00000004 __compound_literal.4
00000000 l    df *ABS*	00000000 entry.c
00000020 l     F .text	00000088 get_random
000000a8 l     F .text	000000c4 derive_unique_key
0000016c l     F .text	000000e4 huk_ae_encrypt
00000250 l     F .text	000000c0 huk_ae_decrypt
00000310 l     F .text	000001b4 huk_crypt
00012740 l     O .rodata	0000000a __func__.3
000004c4 l     F .text	00000104 seal_trusted_key
0001274c l     O .rodata	00000011 __func__.2
000005c8 l     F .text	00000100 unseal_trusted_key
00012760 l     O .rodata	00000013 __func__.1
00012774 l     O .rodata	0000001b __func__.0
00000000 l    df *ABS*	00000000 ta_entry_a32.o
00000000 l    df *ABS*	00000000 trace.c
00000870 l     F .text	0000004c trace_level_to_string
00012888 l     O .rodata	00000005 lvl_strs.0
000008bc l     F .text	0000005c print_thread_id
00000918 l     F .text	00000018 print_core_id
00000000 l    df *ABS*	00000000 memzero_explicit.c
000142b4 l     O .data	00000004 memset_func
00000000 l    df *ABS*	00000000 snprintk.c
00012890 l     O .rodata	00000011 hexdigits
000128a4 l     O .rodata	00000011 HEXDIGITS
00000df0 l     F .text	00000e7c kprintf
00000d68 l     F .text	00000088 uuid2str
00000000 l    df *ABS*	00000000 arm32_aeabi_ldivmod_a32.o
00000000 l    df *ABS*	00000000 assert.c
00000000 l    df *ABS*	00000000 trace_ext.c
00000000 l    df *ABS*	00000000 tee_api.c
00018364 l     O .bss	00000004 tee_api_instance_data
00001de8 l     F .text	0000025e copy_param
00002046 l     F .text	000000e8 update_out_param
00012950 l     O .rodata	0000000b __func__.0
00000000 l    df *ABS*	00000000 tee_api_operations.c
000026fc l     F .text	0000005c __tee_alg_get_class
00002758 l     F .text	0000003a __tee_alg_get_main_alg
00002792 l     F .text	00000032 __tee_alg_get_key_type
000027c4 l     F .text	00000212 __tee_alg_get_digest_size
00003e48 l     F .text	00000042 init_hash_operation
00004052 l     F .text	000002d0 tee_buffer_update
00000000 l    df *ABS*	00000000 tee_api_panic.c
00005c86 l     F .text	0000001e check_res
00005ca4 l     F .text	00000038 check_access
00000000 l    df *ABS*	00000000 tee_api_property.c
000129c4 l     O .rodata	00000004 __compound_literal.0
000129c8 l     O .rodata	00000004 __compound_literal.1
000129cc l     O .rodata	00000004 __compound_literal.2
000129d0 l     O .rodata	00000004 __compound_literal.3
00005e4c l     F .text	00000080 propset_get
00005ecc l     F .text	0000010a propget_get_ext_prop
00005fd6 l     F .text	00000038 is_propset_pseudo_handle
0000600e l     F .text	00000168 propget_get_property
00000000 l    df *ABS*	00000000 tee_system_pta.c
00006878 l     F .text	00000042 reg_pair_to_64
000068ba l     F .text	00000034 reg_pair_from_64
000068ee l     F .text	00000072 invoke_system_pta
00018368 l     O .bss	00000004 sess.3
00012ad4 l     O .rodata	00000010 uuid.2
00012ae4 l     O .rodata	0000000a __func__.1
00012af0 l     O .rodata	00000017 __func__.0
00000000 l    df *ABS*	00000000 utee_syscalls_a32.o
00000000 l    df *ABS*	00000000 user_ta_entry.c
00006fe8 l     F .text	0000000e __utee_gprof_init
00006ff6 l     F .text	0000000e __utee_gprof_fini
000142f4 l     O .data	00000008 ta_sessions
0001839c l     O .bss	00000001 init_done
000142fc l     O .data	00000008 __phdr_info_head
000183a0 l     O .bss	00000004 _num_mod_init
00007004 l     F .text	000000a4 _init_iterate_phdr_cb
00012b24 l     O .rodata	00000016 __func__.0
000070a8 l     F .text	000000de _get_fn_array
000072ac l     F .text	0000005c _fini_iterate_phdr_cb
00007320 l     F .text	0000004c init_instance
0000736c l     F .text	00000014 uninit_instance
00007380 l     F .text	00000050 ta_header_save_params
000073d0 l     F .text	00000040 ta_header_get_session
00007410 l     F .text	000000ac ta_header_add_session
000074bc l     F .text	000000c0 ta_header_remove_session
0000757c l     F .text	0000011e to_utee_params
0000769a l     F .text	000000c0 from_utee_params
0000775a l     F .text	00000086 entry_open_session
000077e0 l     F .text	00000038 entry_close_session
00007818 l     F .text	0000006a entry_invoke_command
00000000 l    df *ABS*	00000000 abort.c
00000000 l    df *ABS*	00000000 base64.c
00012b44 l     O .rodata	00000041 base64_table
00007a90 l     F .text	0000005c get_idx
00000000 l    df *ABS*	00000000 tee_api_arith_mpi.c
00007c7c l     F .text	0000002c api_panic
00007ca8 l     F .text	0000002c mpi_panic
000183a4 l     O .bss	00003000 data.17
00012c4c l     O .rodata	00000012 __func__.16
00007d28 l     F .text	00000082 copy_mpi_to_bigint
00007daa l     F .text	00000092 get_mpi
00012c60 l     O .rodata	00000008 __func__.15
00012c68 l     O .rodata	0000000f __func__.14
00012c78 l     O .rodata	0000001f __func__.13
00012c98 l     O .rodata	00000019 __func__.12
00012cb4 l     O .rodata	00000015 __func__.11
00008366 l     F .text	000000fa bigint_binary
00012ccc l     O .rodata	0000000e __func__.10
00008460 l     F .text	0000017c bigint_binary_mod
00012cdc l     O .rodata	00000012 __func__.9
00012cf0 l     O .rodata	0000000e __func__.8
00012d00 l     O .rodata	0000000e __func__.7
00012d10 l     O .rodata	0000000e __func__.6
00012d20 l     O .rodata	00000011 __func__.5
00012d34 l     O .rodata	00000018 __func__.4
00008c00 l     F .text	00000024 mpi_is_odd
00008c24 l     F .text	0000002e mpi_is_even
00008c52 l     F .text	0000075e mpi_egcd
00012d4c l     O .rodata	00000009 __func__.3
00012d58 l     O .rodata	0000001d __func__.2
00009628 l     F .text	0000002a rng_read
00012d78 l     O .rodata	00000019 __func__.1
00012d94 l     O .rodata	00000015 __func__.0
00000000 l    df *ABS*	00000000 tcb.c
0001b3a4 l     O .bss	00000004 _tcb
0001b3a8 l     O .bss	00000004 _tls_size
00012e48 l     O .rodata	00000010 __func__.1
00012e58 l     O .rodata	00000010 __func__.0
00000000 l    df *ABS*	00000000 bignum.c
00009c78 l     F .text	0000001e mbedtls_mpi_zeroize
00009c96 l     F .text	00000030 mpi_init
00009fa8 l     F .text	00000056 mbedtls_mpi_resize_clear
0000a10a l     F .text	00000042 mpi_safe_cond_select_sign
0000a14c l     F .text	00000062 mpi_safe_cond_assign
0000a532 l     F .text	00000042 mbedtls_clz
0000a5f8 l     F .text	00000074 mpi_get_digit
0000a820 l     F .text	000000be mpi_write_hlp
0000aa98 l     F .text	00000048 mpi_uint_bigendian_to_host_c
0000aae0 l     F .text	00000018 mpi_uint_bigendian_to_host
0000aaf8 l     F .text	00000066 mpi_bigendian_to_host
0000b2b4 l     F .text	00000040 ct_lt_mpi_uint
0000b5aa l     F .text	00000092 mpi_sub_hlp
0000b93e l     F .text	000018fe mpi_mul_hlp
0000d45c l     F .text	000000b0 mbedtls_int_div_int
0000dc0e l     F .text	00000060 mpi_montg_init
0000dc88 l     F .text	00000114 mpi_montmul
0000ddc2 l     F .text	0000003e mpi_montred
0000de22 l     F .text	00000034 mbedtls_mpi_cf_bool_eq
0000de56 l     F .text	0000005e mpi_select
0000e68e l     F .text	0000009e mpi_fill_random_internal
00012e7c l     O .rodata	000002a0 small_prime
0000ed00 l     F .text	00000098 mpi_check_small_factors
0000ed98 l     F .text	00000286 mpi_miller_rabin
0001311c l     O .rodata	00000024 gcd_pairs
00000000 l    df *ABS*	00000000 platform_util.c
00014304 l     O .data	00000004 memset_func
00000000 l    df *ABS*	00000000 bget_malloc.c
0000f854 l     F .text	00000016 tag_asan_free
0000f86a l     F .text	00000016 tag_asan_alloced
0000f880 l     F .text	00000020 memset_unchecked
0000f8a0 l     F .text	00000020 memcpy_unchecked
0000f8c0 l     F .text	0000007a buf_get_pos
00013894 l     O .rodata	00000005 __func__.8
0001389c l     O .rodata	00000006 __func__.7
000138a4 l     O .rodata	00000006 __func__.6
000138ac l     O .rodata	00000005 __func__.5
000138b4 l     O .rodata	00000006 __func__.4
000138bc l     O .rodata	00000007 __func__.3
0001027c l     F .text	00000016 malloc_lock
00010292 l     F .text	00000016 malloc_unlock
00014308 l     O .data	0000005c malloc_ctx
000102a8 l     F .text	00000016 print_oom
000102be l     F .text	0000005e raw_malloc_return_hook
0001031c l     F .text	00000038 gen_malloc_reset_stats
0001036c l     F .text	0000003a gen_malloc_get_stats
000103c8 l     F .text	00000014 raw_malloc_validate_pools
000103dc l     F .text	00000026 bpool_foreach_iterator_init
00010402 l     F .text	000000ca bpool_foreach_pool
000138c4 l     O .rodata	00000013 __func__.2
000104cc l     F .text	00000068 bpool_foreach
00010756 l     F .text	00000052 bget_buf_size
000138d8 l     O .rodata	0000000e __func__.1
000107f0 l     F .text	00000048 free_helper
00010884 l     F .text	00000026 realloc_unlocked
00010940 l     F .text	00000022 get_payload_start_size
00010992 l     F .text	00000122 gen_malloc_add_pool
000138e8 l     O .rodata	00000014 __func__.0
00010ab4 l     F .text	000000a0 gen_malloc_buffer_is_within_alloced
00010b54 l     F .text	000000a8 gen_malloc_buffer_overlaps_heap
00000000 l    df *ABS*	00000000 mempool.c
00010ce0 l     F .text	00000080 init_mpool
00013988 l     O .rodata	0000000b __func__.2
00010d60 l     F .text	00000014 get_pool
00010d74 l     F .text	00000014 put_pool
00013994 l     O .rodata	00000013 __func__.1
000139a8 l     O .rodata	0000000e __func__.0
00000000 l    df *ABS*	00000000 memcpy.c
00000000 l    df *ABS*	00000000 memset.c
00000000 l    df *ABS*	00000000 memchr.c
00000000 l    df *ABS*	00000000 strlen.c
00000000 l    df *ABS*	00000000 arm32_aeabi_ldivmod.c
00011232 l     F .text	00000102 division_lqr
00011334 l     F .text	00000064 ul_div_qr
00000000 l    df *ABS*	00000000 tee_api_objects.c
00000000 l    df *ABS*	00000000 snprintf.c
00000000 l    df *ABS*	00000000 memmove.c
00000000 l    df *ABS*	00000000 strcmp.c
00000000 l    df *ABS*	00000000 strlcpy.c
00000000 l    df *ABS*	00000000 consttime_memcmp.c
00000000 l    df *ABS*	00000000 
00014000 l     O *ABS*	00000000 _DYNAMIC
00014088 l     O *ABS*	00000000 _GLOBAL_OFFSET_TABLE_
00001db4 g     F .text	00000032 putchar
000119b0 g     F .text	0000011a TEE_PopulateTransientObject
00009700 g     F .text	00000020 TEE_BigIntConvertToFMM
00008a1c g     F .text	00000020 TEE_BigIntSquareMod
0000814a g     F .text	000001a6 TEE_BigIntShiftRight
00010c32 g     F .text	0000001e raw_malloc_add_pool
00006a7c g     F .text	000000bc tee_invoke_supp_plugin
00009d8c g     F .text	000000ec mbedtls_mpi_grow
000113f6 g     F .text	000000c4 __l_divmod
00003e8a g     F .text	00000052 TEE_DigestUpdate
00002648 g     F .text	0000003e TEE_Realloc
00003b16 g     F .text	00000202 TEE_SetOperationKey2
00005e1c g     F .text	00000030 __utee_check_inout_annotation
000105e6 g     F .text	0000002e raw_free
00001d1a g     F .text	0000006a printf
00011aca g     F .text	00000040 TEE_InitRefAttribute
00006b60 g     F .text	00000014 _utee_log
00002236 g     F .text	00000114 TEE_InvokeTACommand
00005cdc g     F .text	00000050 __utee_check_outbuf_annotation
00009cde g     F .text	00000036 mbedtls_mpi_init_mempool
00006dfc g     F .text	00000014 _utee_cryp_random_number_generate
0000ad22 g     F .text	000000c8 mbedtls_mpi_write_binary
00004c50 g     F .text	000001e0 TEE_AEEncryptFinal
00000cb0 g     F .text	00000028 vsnprintk
0000b8f6 g     F .text	00000048 mbedtls_mpi_sub_int
0001238c g     F .text	00000114 memmove
00012330 g     F .text	00000034 snprintf
00008112 g     F .text	00000038 TEE_BigIntCmpS32
00011b0a g     F .text	00000040 TEE_InitValueAttribute
00009e78 g     F .text	00000130 mbedtls_mpi_shrink
000085dc g     F .text	00000030 TEE_BigIntAdd
00006d5c g     F .text	00000014 _utee_cryp_obj_restrict_usage
00012794 g     O .rodata	00000004 ta_heap_size
00011956 g     F .text	0000005a TEE_ResetTransientObject
00006e84 g     F .text	00000018 _utee_asymm_operate
0000790c g     F .text	0000002a _base64_enc_len
0000a66c g     F .text	000001b4 mbedtls_mpi_read_string
00003f7e g     F .text	000000d4 TEE_CipherInit
0000863c g     F .text	000000ac TEE_BigIntNeg
00006f20 g     F .text	00000014 _utee_storage_free_enum
00000020 g       .text	00000000 __text_start
000067ca g     F .text	000000ae TEE_GetNextProperty
00012002 g     F .text	00000050 TEE_StartPersistentObjectEnumerator
0000af34 g     F .text	00000136 mbedtls_mpi_shift_r
00010cb8 g     F .text	00000028 malloc_buffer_overlaps_heap
00006cc4 g     F .text	00000014 _utee_hash_init
000089b4 g     F .text	00000034 TEE_BigIntSubMod
0000f0dc g     F .text	000002b8 mbedtls_mpi_gen_prime
0000648e g     F .text	00000088 TEE_GetPropertyAsBinaryBlock
0000a3e0 g     F .text	00000042 mbedtls_mpi_get_bit
0000abea g     F .text	0000007a mbedtls_mpi_read_binary
0000499c g     F .text	000000da TEE_AEInit
00000930 g     F .text	00000032 trace_printf
0000dd9c g     F .text	00000026 mbedtls_mpi_montmul
00006fd4 g     F .text	00000014 _utee_cache_operation
00010f0e g     F .text	000000ce memcpy
00009720 g     F .text	00000098 TEE_BigIntConvertFromFMM
00005c70 g     F .text	00000016 TEE_Panic
00001c84 g     F .text	00000018 __aeabi_uldivmod
00003d18 g     F .text	00000130 TEE_CopyOperation
00001d84 g     F .text	00000030 puts
000097b8 g     F .text	0000010c TEE_BigIntComputeFMM
000103a6 g     F .text	00000022 malloc_get_stats
000025be g     F .text	00000026 TEE_GetREETime
00010c50 g     F .text	0000001a raw_malloc_get_stats
00011f56 g     F .text	00000050 TEE_AllocatePersistentObjectEnumerator
00014260 g     O .data	00000054 ta_props
00004fdc g     F .text	0000016c TEE_AsymmetricEncrypt
00005d2c g     F .text	00000038 __utee_check_instring_annotation
000107a8 g     F .text	00000048 malloc
00010edc g     F .text	00000022 __ta_entry_c
00006696 g     F .text	0000001a TEE_FreePropertyEnumerator
00011c3a g     F .text	000000e0 TEE_GenerateKey
00012364 g     F .text	00000028 vsnprintf
0001425c g     O .data	00000004 trace_level
000080c0 g     F .text	00000052 TEE_BigIntCmp
00012860 g     O .rodata	00000004 ta_num_props
0000fd24 g     F .text	000000b4 bgetr
00006eb4 g     F .text	00000018 _utee_storage_obj_open
00010eb4 g     F .text	00000026 mempool_free
00004322 g     F .text	00000182 TEE_CipherUpdate
00006cd8 g     F .text	00000014 _utee_hash_update
00000c5c g     F .text	00000024 memzero_explicit
00007f0a g     F .text	0000007e TEE_BigIntConvertToOctetString
000037c8 g     F .text	000001ac TEE_GetOperationInfoMultiple
0000a574 g     F .text	00000068 mbedtls_mpi_bitlen
000082f0 g     F .text	00000042 TEE_BigIntGetBit
00012790 g     O .rodata	00000003 trace_ext_prefix
00006f5c g     F .text	00000014 _utee_storage_next_enum
000105be g     F .text	00000028 raw_malloc
0000fc8c g     F .text	00000098 bgetz
00002434 g     F .text	00000018 TEE_GetInstanceData
000024d4 g     F .text	00000032 TEE_Wait
0000d23c g     F .text	0000018c mbedtls_mpi_mul_mpi
000026c0 g     F .text	0000001e TEE_CacheFlush
00000962 g     F .text	000002de trace_vprintf
000006d8 g     F .text	0000000e TA_DestroyEntryPoint
00009cc6 g     F .text	00000018 mbedtls_mpi_init
00006ee4 g     F .text	00000014 _utee_storage_obj_del
0000a4cc g     F .text	00000066 mbedtls_mpi_lsb
00001c9c g     F .text	0000003c _assert_log
00006c9c g     F .text	00000014 _utee_cryp_state_copy
000096ea g     F .text	00000016 TEE_BigIntFMMContextSizeInU32
000069e8 g     F .text	00000094 tee_unmap
000048be g     F .text	000000de TEE_MACCompareFinal
00011ef2 g     F .text	00000064 TEE_RenamePersistentObject
00003edc g     F .text	000000a2 TEE_DigestDoFinal
00007cd4 g     F .text	00000054 _TEE_MathAPI_Init
000098c4 g     F .text	000002b0 __utee_tcb_init
0000b77a g     F .text	0000009a mbedtls_mpi_add_mpi
000078f0 g     F .text	0000001c abort
0000e78a g     F .text	00000134 mbedtls_mpi_random
00005db4 g     F .text	00000030 __utee_check_out_annotation
00014364 g     O .bss	00004000 ta_heap
00008a3c g     F .text	00000104 TEE_BigIntInvMod
00007186 g     F .text	00000126 __utee_call_elf_init_fn
0000077a g     F .text	00000014 TA_CloseSessionEntryPoint
00006bcc g     F .text	00000014 _utee_close_ta_session
00005148 g     F .text	0000016c TEE_AsymmetricDecrypt
00011d1a g     F .text	000000aa TEE_OpenPersistentObject
0000b814 g     F .text	0000009a mbedtls_mpi_sub_mpi
0001259a g     F .text	0000008e consttime_memcmp
00006b4c g     F .text	00000014 _utee_return
00006b74 g     F .text	00000014 __utee_panic
00009b74 g     F .text	00000030 __tls_get_addr
0000078e g     F .text	0000007e TA_InvokeCommandEntryPoint
00007308 g     F .text	00000018 __utee_call_elf_fini_fn
0001097a g     F .text	00000018 free_wipe
00010df0 g     F .text	00000060 mempool_alloc
00006b38 g     F .text	00000014 _utee_panic
00010c0c g     F .text	00000026 raw_malloc_init_ctx
00010e50 g     F .text	00000064 mempool_calloc
00006fc0 g     F .text	00000014 _utee_cryp_obj_generate_key
00006f98 g     F .text	00000014 _utee_storage_obj_trunc
00011b4a g     F .text	00000046 TEE_CopyObjectAttributes
000142b8 g     O .data	0000003c tee_props
00006c20 g     F .text	00000014 _utee_unmask_cancellation
00006676 g     F .text	00000020 TEE_ResetPropertyEnumerator
00010838 g     F .text	0000004c calloc
000025e4 g     F .text	00000064 TEE_Malloc
000023d8 g     F .text	0000003a TEE_CheckMemoryAccessRights
00006516 g     F .text	00000080 TEE_GetPropertyAsUUID
00011398 g     F .text	0000005e __ul_divmod
00006b88 g     F .text	00000018 _utee_get_property
0000a382 g     F .text	0000005e mbedtls_mpi_lset
000120f8 g     F .text	0000007a TEE_ReadObjectData
000116de g     F .text	000000b0 TEE_GetObjectBufferAttribute
000006e6 g     F .text	00000094 TA_OpenSessionEntryPoint
00003732 g     F .text	00000044 TEE_FreeOperation
00009ba4 g     F .text	000000d4 dl_iterate_phdr
0001b3b0 g       .bss	00000000 __ftrace_buf_end
0001836c g     O .bss	00000004 ta_param_types
0000da48 g     F .text	0000004a mbedtls_mpi_div_int
000114ba g     F .text	000000fa __utee_from_attr
0000f01e g     F .text	0000009c mbedtls_mpi_is_prime_ext
00009652 g     F .text	0000004a TEE_BigIntIsProbablePrime
0000d3c8 g     F .text	00000094 mbedtls_mpi_mul_int
00011eb4 g     F .text	0000003e TEE_CloseAndDeletePersistentObject1
0000deb4 g     F .text	00000628 mbedtls_mpi_exp_mod
0000a1ae g     F .text	000000b0 mbedtls_mpi_safe_cond_assign
00006176 g     F .text	00000212 TEE_GetPropertyAsString
0000b2f4 g     F .text	0000010e mbedtls_mpi_lt_mpi_ct
00004e30 g     F .text	000001ac TEE_AEDecryptFinal
00007e3c g     F .text	0000005c TEE_BigIntInit
00005d64 g     F .text	00000050 __utee_check_outstring_annotation
0000244c g     F .text	00000020 TEE_MemMove
0000f828 g     F .text	0000002c mbedtls_platform_zeroize
00007e98 g     F .text	00000072 TEE_BigIntConvertFromOctetString
00006e6c g     F .text	00000018 _utee_authenc_dec_final
0000b06a g     F .text	00000104 mbedtls_mpi_cmp_abs
00006f70 g     F .text	00000014 _utee_storage_obj_read
0000470c g     F .text	00000066 TEE_MACInit
000052b4 g     F .text	00000160 TEE_AsymmetricSignDigest
000110d0 g     F .text	000000ea memchr
00002378 g     F .text	00000030 TEE_UnmaskCancellation
000115b4 g     F .text	0000005c TEE_GetObjectInfo
0000f394 g     F .text	00000494 mbedtls_mpi_self_test
00006fac g     F .text	00000014 _utee_storage_obj_seek
00004ae4 g     F .text	0000016c TEE_AEUpdate
000118fc g     F .text	0000005a TEE_FreeTransientObject
00006c0c g     F .text	00000014 _utee_check_access_rights
0000b402 g     F .text	00000044 mbedtls_mpi_cmp_int
00007aec g     F .text	0000018e _base64_dec
00006f34 g     F .text	00000014 _utee_storage_reset_enum
000056ec g     F .text	0000001e rand
00005de4 g     F .text	00000038 __utee_check_attr_in_annotation
00006e3c g     F .text	00000018 _utee_authenc_update_payload
00003776 g     F .text	00000052 TEE_GetOperationInfo
00008928 g     F .text	00000058 TEE_BigIntMod
0000db1c g     F .text	000000f2 mbedtls_mpi_mod_int
0000ab5e g     F .text	0000008c mbedtls_mpi_read_binary_le
000087c0 g     F .text	00000168 TEE_BigIntDiv
00006d84 g     F .text	00000014 _utee_cryp_obj_alloc
0001b3b0 g       .bss	00000000 __ftrace_buf_start
00012538 g     F .text	00000062 strlcpy
00009ffe g     F .text	000000d4 mbedtls_mpi_copy
0000570a g     F .text	00000566 TEE_IsAlgorithmSupported
00010354 g     F .text	00000018 malloc_reset_stats
00006596 g     F .text	00000080 TEE_GetPropertyAsIdentity
00000d3e g     F .text	0000002a __vsprintf
00006c70 g     F .text	00000014 _utee_set_ta_time
00006be0 g     F .text	00000018 _utee_invoke_ta_command
0001169a g     F .text	00000044 TEE_RestrictObjectUsage1
000108aa g     F .text	0000004a realloc
0000a0d2 g     F .text	00000038 mbedtls_mpi_swap
00010d88 g     F .text	00000068 mempool_alloc_pool
000086e8 g     F .text	000000bc TEE_BigIntMul
00003974 g     F .text	00000072 TEE_ResetOperation
00010bfc g     F .text	00000010 raw_malloc_get_ctx_size
0000adea g     F .text	0000014a mbedtls_mpi_shift_l
0000b16e g     F .text	00000146 mbedtls_mpi_cmp_mpi
0000248c g     F .text	00000022 TEE_MemFill
00010c6a g     F .text	00000026 malloc_add_pool
00004772 g     F .text	00000076 TEE_MACUpdate
00000850 g     F .text	00000020 trace_get_level
0000b446 g     F .text	00000164 mbedtls_mpi_add_abs
00011654 g     F .text	00000046 TEE_RestrictObjectUsage
000096ce g     F .text	0000001c TEE_BigIntFMMSizeInU32
00006388 g     F .text	00000086 TEE_GetPropertyAsBool
000106be g     F .text	00000098 raw_realloc
0000969c g     F .text	0000001a TEE_BigIntInitFMM
0001186e g     F .text	0000002e TEE_CloseObject
00006d04 g     F .text	00000014 _utee_cipher_init
00007882 g     F .text	0000006c __utee_entry
0000640e g     F .text	00000080 TEE_GetPropertyAsU32
00012628 g       .text	00000000 __text_end
00008b40 g     F .text	000000c0 TEE_BigIntRelativePrime
0000da92 g     F .text	0000008a mbedtls_mpi_mod_mpi
00006d48 g     F .text	00000014 _utee_cryp_obj_get_info
000100e8 g     F .text	000000f0 bpool
00006616 g     F .text	00000060 TEE_AllocatePropertyEnumerator
00006c84 g     F .text	00000018 _utee_cryp_state_alloc
0000234a g     F .text	0000002e TEE_GetCancellationFlag
0000e4dc g     F .text	000001b2 mbedtls_mpi_gcd
0000257e g     F .text	00000040 TEE_SetTAPersistentTime
0000ac64 g     F .text	000000be mbedtls_mpi_write_binary_le
00010fdc g     F .text	000000f4 memset
00010534 g     F .text	0000008a raw_memalign
00002506 g     F .text	00000078 TEE_GetTAPersistentTime
00000c40 g     F .text	0000001a dhex_dump
00011dc4 g     F .text	000000c4 TEE_CreatePersistentObject
000023a8 g     F .text	00000030 TEE_MaskCancellation
00004a76 g     F .text	0000006e TEE_AEUpdateAAD
000121e6 g     F .text	00000062 TEE_TruncateObjectData
00006d70 g     F .text	00000014 _utee_cryp_obj_get_attr
00011610 g     F .text	00000044 TEE_GetObjectInfo1
00006d30 g     F .text	00000018 _utee_cipher_final
00000810 g     F .text	00000040 trace_set_level
0001178e g     F .text	000000e0 TEE_GetObjectValueAttribute
000039e6 g     F .text	00000130 TEE_SetOperationKey
00006cb0 g     F .text	00000014 _utee_cryp_state_free
000124a0 g     F .text	00000098 strcmp
00006bb4 g     F .text	00000018 _utee_open_ta_session
00008000 g     F .text	000000c0 TEE_BigIntConvertToS32
0000860c g     F .text	00000030 TEE_BigIntSub
00010efe g     F .text	00000010 tahead_get_trace_level
00006f48 g     F .text	00000014 _utee_storage_start_enum
00012248 g     F .text	000000e8 TEE_SeekObjectData
00006960 g     F .text	00000088 tee_map_zi
0000de00 g     F .text	00000022 mbedtls_mpi_montred
000108f4 g     F .text	0000004c memalign
000044a4 g     F .text	00000268 TEE_CipherDoFinal
00007f88 g     F .text	00000078 TEE_BigIntConvertFromS32
0000b8ae g     F .text	00000048 mbedtls_mpi_add_int
00006e54 g     F .text	00000018 _utee_authenc_enc_final
00010c90 g     F .text	00000028 malloc_buffer_is_within_alloced
00006d98 g     F .text	00000014 _utee_cryp_obj_close
000096b6 g     F .text	00000018 TEE_BigIntInitFMMContext
00006c34 g     F .text	00000014 _utee_mask_cancellation
00006ef8 g     F .text	00000014 _utee_storage_obj_rename
00012172 g     F .text	00000074 TEE_WriteObjectData
00011fd4 g     F .text	0000002e TEE_ResetPersistentObjectEnumerator
000087a4 g     F .text	0000001c TEE_BigIntSquare
00006f84 g     F .text	00000014 _utee_storage_obj_write
000006c8 g     F .text	00000010 TA_CreateEntryPoint
0000080c g     F .text	00000004 __ta_entry
00006e28 g     F .text	00000014 _utee_authenc_update_aad
0000dc6e g     F .text	0000001a mbedtls_mpi_montg_init
00000c80 g     F .text	00000030 snprintk
00008332 g     F .text	00000034 TEE_BigIntGetBitCount
00006dd4 g     F .text	00000014 _utee_cryp_obj_copy
000089e8 g     F .text	00000034 TEE_BigIntMulMod
0000e8be g     F .text	00000442 mbedtls_mpi_inv_mod
00005552 g     F .text	00000172 TEE_DeriveKey
00018370 g     O .bss	00000020 ta_params
0000d50c g     F .text	0000053c mbedtls_mpi_div_mpi
0000a5dc g     F .text	0000001c mbedtls_mpi_size
0000f93a g     F .text	00000352 bget
0001189c g     F .text	00000060 TEE_AllocateTransientObject
000066b0 g     F .text	0000002e TEE_StartPropertyEnumerator
00006c48 g     F .text	00000014 _utee_wait
0000a422 g     F .text	000000aa mbedtls_mpi_set_bit
00002686 g     F .text	0000001c TEE_Free
0000f0ba g     F .text	00000022 mbedtls_mpi_is_prime
000026de g     F .text	0000001e TEE_CacheInvalidate
00001cd8 g     F .text	00000010 _assert_break
00008980 g     F .text	00000034 TEE_BigIntAddMod
00006c5c g     F .text	00000014 _utee_get_time
000066de g     F .text	000000ec TEE_GetPropertyName
000029d6 g     F .text	00000d5c TEE_AllocateOperation
00006dc0 g     F .text	00000014 _utee_cryp_obj_populate
000056c4 g     F .text	00000028 TEE_GenerateRandom
0000246c g     F .text	00000020 TEE_MemCompare
00006d18 g     F .text	00000018 _utee_cipher_update
00000cd8 g     F .text	00000066 __vsnprintf
00018390 g     O .bss	0000000c __elf_phdr_info
00011fa6 g     F .text	0000002e TEE_FreePersistentObjectEnumerator
0000212e g     F .text	000000dc TEE_OpenTASession
00001ce8 g     F .text	00000020 trace_ext_puts
00001d08 g     F .text	00000012 trace_ext_get_thread_id
00011e88 g     F .text	0000002c TEE_CloseAndDeletePersistentObject
00006de8 g     F .text	00000014 _utee_cryp_derive_key
00009d14 g     F .text	00000078 mbedtls_mpi_free
00006dac g     F .text	00000014 _utee_cryp_obj_reset
000026a2 g     F .text	0000001e TEE_CacheClean
00006ba0 g     F .text	00000014 _utee_get_property_name_to_index
00010614 g     F .text	000000aa raw_calloc
00007936 g     F .text	0000015a _base64_enc
0000a25e g     F .text	00000124 mbedtls_mpi_safe_cond_swap
00006e10 g     F .text	00000018 _utee_authenc_init
00011b90 g     F .text	000000aa TEE_CopyObjectAttributes1
000111ba g     F .text	00000078 strlen
000093b0 g     F .text	00000278 TEE_BigIntComputeExtendedGcd
00006f0c g     F .text	00000014 _utee_storage_alloc_enum
000024ae g     F .text	00000026 TEE_GetSystemTime
00006e9c g     F .text	00000018 _utee_asymm_verify
00000000 g     O .ta_head	00000020 ta_head
0000fdd8 g     F .text	00000310 brel
0000b63c g     F .text	0000013e mbedtls_mpi_sub_abs
0000e72c g     F .text	0000005e mbedtls_mpi_fill_random
00002412 g     F .text	00000022 TEE_SetInstanceData
00006bf8 g     F .text	00000014 _utee_get_cancellation_flag
00001c6c g     F .text	00000018 __aeabi_ldivmod
0000a8de g     F .text	000001ba mbedtls_mpi_write_string
00012052 g     F .text	000000a6 TEE_GetNextPersistentObject
0000220a g     F .text	0000002c TEE_CloseTASession
00005414 g     F .text	0000013e TEE_AsymmetricVerifyDigest
00006ecc g     F .text	00000018 _utee_storage_obj_create
00010962 g     F .text	00000018 free
000101d8 g     F .text	000000a4 bstats
000047e8 g     F .text	000000d6 TEE_MACComputeFinal
0001b3ac g     O .bss	00000004 mbedtls_mpi_mempool
00006cec g     F .text	00000018 _utee_hash_final



Disassembly of section .text:

00000020 <get_random>:
get_random():
/home/aom1/Work/Linux/target/STM32MP1-DK2/bootloader/buildroot/optee-os-custom/ta/trusted_keys/entry.c:33
      20:	b580      	push	{r7, lr}
      22:	b084      	sub	sp, #16
      24:	af00      	add	r7, sp, #0
      26:	6078      	str	r0, [r7, #4]
      28:	6039      	str	r1, [r7, #0]
/home/aom1/Work/Linux/target/STM32MP1-DK2/bootloader/buildroot/optee-os-custom/ta/trusted_keys/entry.c:34
      2a:	2300      	movs	r3, #0
      2c:	60fb      	str	r3, [r7, #12]
/home/aom1/Work/Linux/target/STM32MP1-DK2/bootloader/buildroot/optee-os-custom/ta/trusted_keys/entry.c:38
      2e:	687b      	ldr	r3, [r7, #4]
      30:	2b06      	cmp	r3, #6
      32:	d003      	beq.n	3c <get_random+0x1c>
/home/aom1/Work/Linux/target/STM32MP1-DK2/bootloader/buildroot/optee-os-custom/ta/trusted_keys/entry.c:42
      34:	2306      	movs	r3, #6
      36:	f6cf 73ff 	movt	r3, #65535	; 0xffff
      3a:	e031      	b.n	a0 <get_random+0x80>
/home/aom1/Work/Linux/target/STM32MP1-DK2/bootloader/buildroot/optee-os-custom/ta/trusted_keys/entry.c:44
      3c:	683b      	ldr	r3, [r7, #0]
      3e:	681b      	ldr	r3, [r3, #0]
      40:	2b00      	cmp	r3, #0
      42:	d003      	beq.n	4c <get_random+0x2c>
/home/aom1/Work/Linux/target/STM32MP1-DK2/bootloader/buildroot/optee-os-custom/ta/trusted_keys/entry.c:44 (discriminator 1)
      44:	683b      	ldr	r3, [r7, #0]
      46:	685b      	ldr	r3, [r3, #4]
      48:	2b00      	cmp	r3, #0
      4a:	d103      	bne.n	54 <get_random+0x34>
/home/aom1/Work/Linux/target/STM32MP1-DK2/bootloader/buildroot/optee-os-custom/ta/trusted_keys/entry.c:45
      4c:	2306      	movs	r3, #6
      4e:	f6cf 73ff 	movt	r3, #65535	; 0xffff
      52:	e025      	b.n	a0 <get_random+0x80>
/home/aom1/Work/Linux/target/STM32MP1-DK2/bootloader/buildroot/optee-os-custom/ta/trusted_keys/entry.c:47
      54:	683b      	ldr	r3, [r7, #0]
      56:	685b      	ldr	r3, [r3, #4]
      58:	2100      	movs	r1, #0
      5a:	4618      	mov	r0, r3
      5c:	f002 fac2 	bl	25e4 <TEE_Malloc>
      60:	60f8      	str	r0, [r7, #12]
/home/aom1/Work/Linux/target/STM32MP1-DK2/bootloader/buildroot/optee-os-custom/ta/trusted_keys/entry.c:48
      62:	68fb      	ldr	r3, [r7, #12]
      64:	2b00      	cmp	r3, #0
      66:	d103      	bne.n	70 <get_random+0x50>
/home/aom1/Work/Linux/target/STM32MP1-DK2/bootloader/buildroot/optee-os-custom/ta/trusted_keys/entry.c:49
      68:	230c      	movs	r3, #12
      6a:	f6cf 73ff 	movt	r3, #65535	; 0xffff
      6e:	e017      	b.n	a0 <get_random+0x80>
/home/aom1/Work/Linux/target/STM32MP1-DK2/bootloader/buildroot/optee-os-custom/ta/trusted_keys/entry.c:51
      70:	683b      	ldr	r3, [r7, #0]
      72:	685b      	ldr	r3, [r3, #4]
      74:	4619      	mov	r1, r3
      76:	68f8      	ldr	r0, [r7, #12]
      78:	f005 fb24 	bl	56c4 <TEE_GenerateRandom>
/home/aom1/Work/Linux/target/STM32MP1-DK2/bootloader/buildroot/optee-os-custom/ta/trusted_keys/entry.c:52
      7c:	683b      	ldr	r3, [r7, #0]
      7e:	6818      	ldr	r0, [r3, #0]
      80:	683b      	ldr	r3, [r7, #0]
      82:	685b      	ldr	r3, [r3, #4]
      84:	461a      	mov	r2, r3
      86:	68f9      	ldr	r1, [r7, #12]
      88:	f010 ff41 	bl	10f0e <memcpy>
/home/aom1/Work/Linux/target/STM32MP1-DK2/bootloader/buildroot/optee-os-custom/ta/trusted_keys/entry.c:53
      8c:	683b      	ldr	r3, [r7, #0]
      8e:	685b      	ldr	r3, [r3, #4]
      90:	4619      	mov	r1, r3
      92:	68f8      	ldr	r0, [r7, #12]
      94:	f000 fde2 	bl	c5c <memzero_explicit>
/home/aom1/Work/Linux/target/STM32MP1-DK2/bootloader/buildroot/optee-os-custom/ta/trusted_keys/entry.c:55
      98:	68f8      	ldr	r0, [r7, #12]
      9a:	f002 faf4 	bl	2686 <TEE_Free>
/home/aom1/Work/Linux/target/STM32MP1-DK2/bootloader/buildroot/optee-os-custom/ta/trusted_keys/entry.c:57
      9e:	2300      	movs	r3, #0
/home/aom1/Work/Linux/target/STM32MP1-DK2/bootloader/buildroot/optee-os-custom/ta/trusted_keys/entry.c:58
      a0:	4618      	mov	r0, r3
      a2:	3710      	adds	r7, #16
      a4:	46bd      	mov	sp, r7
      a6:	bd80      	pop	{r7, pc}

000000a8 <derive_unique_key>:
derive_unique_key():
/home/aom1/Work/Linux/target/STM32MP1-DK2/bootloader/buildroot/optee-os-custom/ta/trusted_keys/entry.c:62
      a8:	b590      	push	{r4, r7, lr}
      aa:	b097      	sub	sp, #92	; 0x5c
      ac:	af02      	add	r7, sp, #8
      ae:	60f8      	str	r0, [r7, #12]
      b0:	607a      	str	r2, [r7, #4]
      b2:	461a      	mov	r2, r3
      b4:	460b      	mov	r3, r1
      b6:	817b      	strh	r3, [r7, #10]
      b8:	4613      	mov	r3, r2
      ba:	813b      	strh	r3, [r7, #8]
/home/aom1/Work/Linux/target/STM32MP1-DK2/bootloader/buildroot/optee-os-custom/ta/trusted_keys/entry.c:63
      bc:	2300      	movs	r3, #0
      be:	647b      	str	r3, [r7, #68]	; 0x44
/home/aom1/Work/Linux/target/STM32MP1-DK2/bootloader/buildroot/optee-os-custom/ta/trusted_keys/entry.c:64
      c0:	f107 0324 	add.w	r3, r7, #36	; 0x24
      c4:	efc0 0010 	vmov.i32	d16, #0	; 0x00000000
      c8:	edc3 0b00 	vstr	d16, [r3]
      cc:	edc3 0b02 	vstr	d16, [r3, #8]
      d0:	edc3 0b04 	vstr	d16, [r3, #16]
      d4:	edc3 0b06 	vstr	d16, [r3, #24]
/home/aom1/Work/Linux/target/STM32MP1-DK2/bootloader/buildroot/optee-os-custom/ta/trusted_keys/entry.c:65
      d8:	2300      	movs	r3, #0
      da:	f6cf 73ff 	movt	r3, #65535	; 0xffff
      de:	64fb      	str	r3, [r7, #76]	; 0x4c
/home/aom1/Work/Linux/target/STM32MP1-DK2/bootloader/buildroot/optee-os-custom/ta/trusted_keys/entry.c:66
      e0:	2300      	movs	r3, #0
      e2:	623b      	str	r3, [r7, #32]
/home/aom1/Work/Linux/target/STM32MP1-DK2/bootloader/buildroot/optee-os-custom/ta/trusted_keys/entry.c:67
      e4:	2365      	movs	r3, #101	; 0x65
      e6:	64bb      	str	r3, [r7, #72]	; 0x48
/home/aom1/Work/Linux/target/STM32MP1-DK2/bootloader/buildroot/optee-os-custom/ta/trusted_keys/entry.c:72
      e8:	4b1f      	ldr	r3, [pc, #124]	; (168 <derive_unique_key+0xc0>)
      ea:	447b      	add	r3, pc
      ec:	f107 0410 	add.w	r4, r7, #16
      f0:	cb0f      	ldmia	r3, {r0, r1, r2, r3}
      f2:	e884 000f 	stmia.w	r4, {r0, r1, r2, r3}
      f6:	f107 0010 	add.w	r0, r7, #16
      fa:	f107 0320 	add.w	r3, r7, #32
      fe:	9301      	str	r3, [sp, #4]
     100:	f107 0344 	add.w	r3, r7, #68	; 0x44
     104:	9300      	str	r3, [sp, #0]
     106:	2300      	movs	r3, #0
     108:	2200      	movs	r2, #0
     10a:	f04f 31ff 	mov.w	r1, #4294967295	; 0xffffffff
     10e:	f002 f80e 	bl	212e <TEE_OpenTASession>
     112:	64f8      	str	r0, [r7, #76]	; 0x4c
/home/aom1/Work/Linux/target/STM32MP1-DK2/bootloader/buildroot/optee-os-custom/ta/trusted_keys/entry.c:75
     114:	6cfb      	ldr	r3, [r7, #76]	; 0x4c
     116:	2b00      	cmp	r3, #0
     118:	d001      	beq.n	11e <derive_unique_key+0x76>
/home/aom1/Work/Linux/target/STM32MP1-DK2/bootloader/buildroot/optee-os-custom/ta/trusted_keys/entry.c:76
     11a:	6cfb      	ldr	r3, [r7, #76]	; 0x4c
     11c:	e020      	b.n	160 <derive_unique_key+0xb8>
/home/aom1/Work/Linux/target/STM32MP1-DK2/bootloader/buildroot/optee-os-custom/ta/trusted_keys/entry.c:78
     11e:	687b      	ldr	r3, [r7, #4]
     120:	2b00      	cmp	r3, #0
     122:	d006      	beq.n	132 <derive_unique_key+0x8a>
/home/aom1/Work/Linux/target/STM32MP1-DK2/bootloader/buildroot/optee-os-custom/ta/trusted_keys/entry.c:78 (discriminator 1)
     124:	893b      	ldrh	r3, [r7, #8]
     126:	2b00      	cmp	r3, #0
     128:	d003      	beq.n	132 <derive_unique_key+0x8a>
/home/aom1/Work/Linux/target/STM32MP1-DK2/bootloader/buildroot/optee-os-custom/ta/trusted_keys/entry.c:79
     12a:	687b      	ldr	r3, [r7, #4]
     12c:	627b      	str	r3, [r7, #36]	; 0x24
/home/aom1/Work/Linux/target/STM32MP1-DK2/bootloader/buildroot/optee-os-custom/ta/trusted_keys/entry.c:80
     12e:	893b      	ldrh	r3, [r7, #8]
     130:	62bb      	str	r3, [r7, #40]	; 0x28
/home/aom1/Work/Linux/target/STM32MP1-DK2/bootloader/buildroot/optee-os-custom/ta/trusted_keys/entry.c:83
     132:	68fb      	ldr	r3, [r7, #12]
     134:	62fb      	str	r3, [r7, #44]	; 0x2c
/home/aom1/Work/Linux/target/STM32MP1-DK2/bootloader/buildroot/optee-os-custom/ta/trusted_keys/entry.c:84
     136:	897b      	ldrh	r3, [r7, #10]
     138:	633b      	str	r3, [r7, #48]	; 0x30
/home/aom1/Work/Linux/target/STM32MP1-DK2/bootloader/buildroot/optee-os-custom/ta/trusted_keys/entry.c:86
     13a:	6c78      	ldr	r0, [r7, #68]	; 0x44
     13c:	f107 0320 	add.w	r3, r7, #32
     140:	9301      	str	r3, [sp, #4]
     142:	f107 0324 	add.w	r3, r7, #36	; 0x24
     146:	9300      	str	r3, [sp, #0]
     148:	6cbb      	ldr	r3, [r7, #72]	; 0x48
     14a:	2201      	movs	r2, #1
     14c:	f04f 31ff 	mov.w	r1, #4294967295	; 0xffffffff
     150:	f002 f871 	bl	2236 <TEE_InvokeTACommand>
     154:	64f8      	str	r0, [r7, #76]	; 0x4c
/home/aom1/Work/Linux/target/STM32MP1-DK2/bootloader/buildroot/optee-os-custom/ta/trusted_keys/entry.c:90
     156:	6c7b      	ldr	r3, [r7, #68]	; 0x44
     158:	4618      	mov	r0, r3
     15a:	f002 f856 	bl	220a <TEE_CloseTASession>
/home/aom1/Work/Linux/target/STM32MP1-DK2/bootloader/buildroot/optee-os-custom/ta/trusted_keys/entry.c:92
     15e:	6cfb      	ldr	r3, [r7, #76]	; 0x4c
/home/aom1/Work/Linux/target/STM32MP1-DK2/bootloader/buildroot/optee-os-custom/ta/trusted_keys/entry.c:93 (discriminator 1)
     160:	4618      	mov	r0, r3
     162:	3754      	adds	r7, #84	; 0x54
     164:	46bd      	mov	sp, r7
     166:	bd90      	pop	{r4, r7, pc}
     168:	0001253a 	.word	0x0001253a

0000016c <huk_ae_encrypt>:
huk_ae_encrypt():
/home/aom1/Work/Linux/target/STM32MP1-DK2/bootloader/buildroot/optee-os-custom/ta/trusted_keys/entry.c:97
     16c:	b580      	push	{r7, lr}
     16e:	b090      	sub	sp, #64	; 0x40
     170:	af04      	add	r7, sp, #16
     172:	60f8      	str	r0, [r7, #12]
     174:	60b9      	str	r1, [r7, #8]
     176:	607a      	str	r2, [r7, #4]
     178:	603b      	str	r3, [r7, #0]
/home/aom1/Work/Linux/target/STM32MP1-DK2/bootloader/buildroot/optee-os-custom/ta/trusted_keys/entry.c:98
     17a:	2300      	movs	r3, #0
     17c:	f6cf 73ff 	movt	r3, #65535	; 0xffff
     180:	62fb      	str	r3, [r7, #44]	; 0x2c
/home/aom1/Work/Linux/target/STM32MP1-DK2/bootloader/buildroot/optee-os-custom/ta/trusted_keys/entry.c:99
     182:	683b      	ldr	r3, [r7, #0]
     184:	62bb      	str	r3, [r7, #40]	; 0x28
/home/aom1/Work/Linux/target/STM32MP1-DK2/bootloader/buildroot/optee-os-custom/ta/trusted_keys/entry.c:100
     186:	2300      	movs	r3, #0
     188:	61bb      	str	r3, [r7, #24]
     18a:	f107 031c 	add.w	r3, r7, #28
     18e:	efc0 0010 	vmov.i32	d16, #0	; 0x00000000
     192:	edc3 0b00 	vstr	d16, [r3]
     196:	edc3 0b01 	vstr	d16, [r3, #4]
/home/aom1/Work/Linux/target/STM32MP1-DK2/bootloader/buildroot/optee-os-custom/ta/trusted_keys/entry.c:101
     19a:	687b      	ldr	r3, [r7, #4]
     19c:	617b      	str	r3, [r7, #20]
/home/aom1/Work/Linux/target/STM32MP1-DK2/bootloader/buildroot/optee-os-custom/ta/trusted_keys/entry.c:102
     19e:	2310      	movs	r3, #16
     1a0:	613b      	str	r3, [r7, #16]
/home/aom1/Work/Linux/target/STM32MP1-DK2/bootloader/buildroot/optee-os-custom/ta/trusted_keys/entry.c:104
     1a2:	6abb      	ldr	r3, [r7, #40]	; 0x28
     1a4:	2200      	movs	r2, #0
     1a6:	701a      	strb	r2, [r3, #0]
/home/aom1/Work/Linux/target/STM32MP1-DK2/bootloader/buildroot/optee-os-custom/ta/trusted_keys/entry.c:105
     1a8:	f107 0318 	add.w	r3, r7, #24
     1ac:	2110      	movs	r1, #16
     1ae:	4618      	mov	r0, r3
     1b0:	f005 fa88 	bl	56c4 <TEE_GenerateRandom>
/home/aom1/Work/Linux/target/STM32MP1-DK2/bootloader/buildroot/optee-os-custom/ta/trusted_keys/entry.c:106
     1b4:	6abb      	ldr	r3, [r7, #40]	; 0x28
     1b6:	3301      	adds	r3, #1
     1b8:	4618      	mov	r0, r3
     1ba:	f107 0318 	add.w	r3, r7, #24
     1be:	2210      	movs	r2, #16
     1c0:	4619      	mov	r1, r3
     1c2:	f010 fea4 	bl	10f0e <memcpy>
/home/aom1/Work/Linux/target/STM32MP1-DK2/bootloader/buildroot/optee-os-custom/ta/trusted_keys/entry.c:108
     1c6:	6abb      	ldr	r3, [r7, #40]	; 0x28
     1c8:	1c59      	adds	r1, r3, #1
     1ca:	2300      	movs	r3, #0
     1cc:	9301      	str	r3, [sp, #4]
     1ce:	2300      	movs	r3, #0
     1d0:	9300      	str	r3, [sp, #0]
     1d2:	2380      	movs	r3, #128	; 0x80
     1d4:	2210      	movs	r2, #16
     1d6:	68f8      	ldr	r0, [r7, #12]
     1d8:	f004 fbe0 	bl	499c <TEE_AEInit>
     1dc:	62f8      	str	r0, [r7, #44]	; 0x2c
/home/aom1/Work/Linux/target/STM32MP1-DK2/bootloader/buildroot/optee-os-custom/ta/trusted_keys/entry.c:109
     1de:	6afb      	ldr	r3, [r7, #44]	; 0x2c
     1e0:	2b00      	cmp	r3, #0
     1e2:	d001      	beq.n	1e8 <huk_ae_encrypt+0x7c>
/home/aom1/Work/Linux/target/STM32MP1-DK2/bootloader/buildroot/optee-os-custom/ta/trusted_keys/entry.c:110
     1e4:	6afb      	ldr	r3, [r7, #44]	; 0x2c
     1e6:	e02f      	b.n	248 <huk_ae_encrypt+0xdc>
/home/aom1/Work/Linux/target/STM32MP1-DK2/bootloader/buildroot/optee-os-custom/ta/trusted_keys/entry.c:112
     1e8:	6abb      	ldr	r3, [r7, #40]	; 0x28
     1ea:	f103 0121 	add.w	r1, r3, #33	; 0x21
/home/aom1/Work/Linux/target/STM32MP1-DK2/bootloader/buildroot/optee-os-custom/ta/trusted_keys/entry.c:113
     1ee:	6abb      	ldr	r3, [r7, #40]	; 0x28
     1f0:	3311      	adds	r3, #17
/home/aom1/Work/Linux/target/STM32MP1-DK2/bootloader/buildroot/optee-os-custom/ta/trusted_keys/entry.c:112
     1f2:	f107 0210 	add.w	r2, r7, #16
     1f6:	9202      	str	r2, [sp, #8]
     1f8:	9301      	str	r3, [sp, #4]
     1fa:	f107 0314 	add.w	r3, r7, #20
     1fe:	9300      	str	r3, [sp, #0]
     200:	460b      	mov	r3, r1
     202:	687a      	ldr	r2, [r7, #4]
     204:	68b9      	ldr	r1, [r7, #8]
     206:	68f8      	ldr	r0, [r7, #12]
     208:	f004 fd22 	bl	4c50 <TEE_AEEncryptFinal>
     20c:	62f8      	str	r0, [r7, #44]	; 0x2c
/home/aom1/Work/Linux/target/STM32MP1-DK2/bootloader/buildroot/optee-os-custom/ta/trusted_keys/entry.c:114
     20e:	6afb      	ldr	r3, [r7, #44]	; 0x2c
     210:	2b00      	cmp	r3, #0
     212:	d102      	bne.n	21a <huk_ae_encrypt+0xae>
/home/aom1/Work/Linux/target/STM32MP1-DK2/bootloader/buildroot/optee-os-custom/ta/trusted_keys/entry.c:114 (discriminator 1)
     214:	693b      	ldr	r3, [r7, #16]
     216:	2b10      	cmp	r3, #16
     218:	d003      	beq.n	222 <huk_ae_encrypt+0xb6>
/home/aom1/Work/Linux/target/STM32MP1-DK2/bootloader/buildroot/optee-os-custom/ta/trusted_keys/entry.c:115
     21a:	230f      	movs	r3, #15
     21c:	f6cf 73ff 	movt	r3, #65535	; 0xffff
     220:	e012      	b.n	248 <huk_ae_encrypt+0xdc>
/home/aom1/Work/Linux/target/STM32MP1-DK2/bootloader/buildroot/optee-os-custom/ta/trusted_keys/entry.c:117
     222:	697b      	ldr	r3, [r7, #20]
     224:	2200      	movs	r2, #0
     226:	3321      	adds	r3, #33	; 0x21
     228:	d300      	bcc.n	22c <huk_ae_encrypt+0xc0>
     22a:	2201      	movs	r2, #1
     22c:	4619      	mov	r1, r3
     22e:	6bbb      	ldr	r3, [r7, #56]	; 0x38
     230:	6019      	str	r1, [r3, #0]
     232:	4613      	mov	r3, r2
     234:	f003 0301 	and.w	r3, r3, #1
     238:	b2db      	uxtb	r3, r3
     23a:	2b00      	cmp	r3, #0
     23c:	d003      	beq.n	246 <huk_ae_encrypt+0xda>
/home/aom1/Work/Linux/target/STM32MP1-DK2/bootloader/buildroot/optee-os-custom/ta/trusted_keys/entry.c:118
     23e:	230f      	movs	r3, #15
     240:	f6cf 73ff 	movt	r3, #65535	; 0xffff
     244:	e000      	b.n	248 <huk_ae_encrypt+0xdc>
/home/aom1/Work/Linux/target/STM32MP1-DK2/bootloader/buildroot/optee-os-custom/ta/trusted_keys/entry.c:120
     246:	6afb      	ldr	r3, [r7, #44]	; 0x2c
/home/aom1/Work/Linux/target/STM32MP1-DK2/bootloader/buildroot/optee-os-custom/ta/trusted_keys/entry.c:121 (discriminator 1)
     248:	4618      	mov	r0, r3
     24a:	3730      	adds	r7, #48	; 0x30
     24c:	46bd      	mov	sp, r7
     24e:	bd80      	pop	{r7, pc}

00000250 <huk_ae_decrypt>:
huk_ae_decrypt():
/home/aom1/Work/Linux/target/STM32MP1-DK2/bootloader/buildroot/optee-os-custom/ta/trusted_keys/entry.c:125
     250:	b580      	push	{r7, lr}
     252:	b090      	sub	sp, #64	; 0x40
     254:	af04      	add	r7, sp, #16
     256:	60f8      	str	r0, [r7, #12]
     258:	60b9      	str	r1, [r7, #8]
     25a:	607a      	str	r2, [r7, #4]
     25c:	603b      	str	r3, [r7, #0]
/home/aom1/Work/Linux/target/STM32MP1-DK2/bootloader/buildroot/optee-os-custom/ta/trusted_keys/entry.c:126
     25e:	2300      	movs	r3, #0
     260:	f6cf 73ff 	movt	r3, #65535	; 0xffff
     264:	62fb      	str	r3, [r7, #44]	; 0x2c
/home/aom1/Work/Linux/target/STM32MP1-DK2/bootloader/buildroot/optee-os-custom/ta/trusted_keys/entry.c:127
     266:	68bb      	ldr	r3, [r7, #8]
     268:	62bb      	str	r3, [r7, #40]	; 0x28
/home/aom1/Work/Linux/target/STM32MP1-DK2/bootloader/buildroot/optee-os-custom/ta/trusted_keys/entry.c:128
     26a:	2300      	movs	r3, #0
     26c:	61bb      	str	r3, [r7, #24]
     26e:	f107 031c 	add.w	r3, r7, #28
     272:	efc0 0010 	vmov.i32	d16, #0	; 0x00000000
     276:	edc3 0b00 	vstr	d16, [r3]
     27a:	edc3 0b01 	vstr	d16, [r3, #4]
/home/aom1/Work/Linux/target/STM32MP1-DK2/bootloader/buildroot/optee-os-custom/ta/trusted_keys/entry.c:129
     27e:	2300      	movs	r3, #0
     280:	617b      	str	r3, [r7, #20]
/home/aom1/Work/Linux/target/STM32MP1-DK2/bootloader/buildroot/optee-os-custom/ta/trusted_keys/entry.c:131
     282:	2200      	movs	r2, #0
     284:	687b      	ldr	r3, [r7, #4]
     286:	3b21      	subs	r3, #33	; 0x21
     288:	d200      	bcs.n	28c <huk_ae_decrypt+0x3c>
     28a:	2201      	movs	r2, #1
     28c:	617b      	str	r3, [r7, #20]
     28e:	4613      	mov	r3, r2
     290:	f003 0301 	and.w	r3, r3, #1
     294:	b2db      	uxtb	r3, r3
     296:	2b00      	cmp	r3, #0
     298:	d003      	beq.n	2a2 <huk_ae_decrypt+0x52>
/home/aom1/Work/Linux/target/STM32MP1-DK2/bootloader/buildroot/optee-os-custom/ta/trusted_keys/entry.c:132
     29a:	230f      	movs	r3, #15
     29c:	f6cf 73ff 	movt	r3, #65535	; 0xffff
     2a0:	e032      	b.n	308 <huk_ae_decrypt+0xb8>
/home/aom1/Work/Linux/target/STM32MP1-DK2/bootloader/buildroot/optee-os-custom/ta/trusted_keys/entry.c:134
     2a2:	6abb      	ldr	r3, [r7, #40]	; 0x28
     2a4:	1c59      	adds	r1, r3, #1
     2a6:	2300      	movs	r3, #0
     2a8:	9301      	str	r3, [sp, #4]
     2aa:	2300      	movs	r3, #0
     2ac:	9300      	str	r3, [sp, #0]
     2ae:	2380      	movs	r3, #128	; 0x80
     2b0:	2210      	movs	r2, #16
     2b2:	68f8      	ldr	r0, [r7, #12]
     2b4:	f004 fb72 	bl	499c <TEE_AEInit>
     2b8:	62f8      	str	r0, [r7, #44]	; 0x2c
/home/aom1/Work/Linux/target/STM32MP1-DK2/bootloader/buildroot/optee-os-custom/ta/trusted_keys/entry.c:135
     2ba:	6afb      	ldr	r3, [r7, #44]	; 0x2c
     2bc:	2b00      	cmp	r3, #0
     2be:	d001      	beq.n	2c4 <huk_ae_decrypt+0x74>
/home/aom1/Work/Linux/target/STM32MP1-DK2/bootloader/buildroot/optee-os-custom/ta/trusted_keys/entry.c:136
     2c0:	6afb      	ldr	r3, [r7, #44]	; 0x2c
     2c2:	e021      	b.n	308 <huk_ae_decrypt+0xb8>
/home/aom1/Work/Linux/target/STM32MP1-DK2/bootloader/buildroot/optee-os-custom/ta/trusted_keys/entry.c:138
     2c4:	6abb      	ldr	r3, [r7, #40]	; 0x28
     2c6:	f103 0211 	add.w	r2, r3, #17
     2ca:	f107 0318 	add.w	r3, r7, #24
     2ce:	4611      	mov	r1, r2
     2d0:	2210      	movs	r2, #16
     2d2:	4618      	mov	r0, r3
     2d4:	f010 fe1b 	bl	10f0e <memcpy>
/home/aom1/Work/Linux/target/STM32MP1-DK2/bootloader/buildroot/optee-os-custom/ta/trusted_keys/entry.c:139
     2d8:	6abb      	ldr	r3, [r7, #40]	; 0x28
     2da:	f103 0121 	add.w	r1, r3, #33	; 0x21
     2de:	697a      	ldr	r2, [r7, #20]
     2e0:	2310      	movs	r3, #16
     2e2:	9302      	str	r3, [sp, #8]
     2e4:	f107 0318 	add.w	r3, r7, #24
     2e8:	9301      	str	r3, [sp, #4]
     2ea:	6bbb      	ldr	r3, [r7, #56]	; 0x38
     2ec:	9300      	str	r3, [sp, #0]
     2ee:	683b      	ldr	r3, [r7, #0]
     2f0:	68f8      	ldr	r0, [r7, #12]
     2f2:	f004 fd9d 	bl	4e30 <TEE_AEDecryptFinal>
     2f6:	62f8      	str	r0, [r7, #44]	; 0x2c
/home/aom1/Work/Linux/target/STM32MP1-DK2/bootloader/buildroot/optee-os-custom/ta/trusted_keys/entry.c:141
     2f8:	6afb      	ldr	r3, [r7, #44]	; 0x2c
     2fa:	2b00      	cmp	r3, #0
     2fc:	d003      	beq.n	306 <huk_ae_decrypt+0xb6>
/home/aom1/Work/Linux/target/STM32MP1-DK2/bootloader/buildroot/optee-os-custom/ta/trusted_keys/entry.c:142
     2fe:	230f      	movs	r3, #15
     300:	f6cf 73ff 	movt	r3, #65535	; 0xffff
     304:	62fb      	str	r3, [r7, #44]	; 0x2c
/home/aom1/Work/Linux/target/STM32MP1-DK2/bootloader/buildroot/optee-os-custom/ta/trusted_keys/entry.c:144
     306:	6afb      	ldr	r3, [r7, #44]	; 0x2c
/home/aom1/Work/Linux/target/STM32MP1-DK2/bootloader/buildroot/optee-os-custom/ta/trusted_keys/entry.c:145 (discriminator 1)
     308:	4618      	mov	r0, r3
     30a:	3730      	adds	r7, #48	; 0x30
     30c:	46bd      	mov	sp, r7
     30e:	bd80      	pop	{r7, pc}

00000310 <huk_crypt>:
huk_crypt():
/home/aom1/Work/Linux/target/STM32MP1-DK2/bootloader/buildroot/optee-os-custom/ta/trusted_keys/entry.c:149
     310:	b580      	push	{r7, lr}
     312:	b094      	sub	sp, #80	; 0x50
     314:	af02      	add	r7, sp, #8
     316:	60f8      	str	r0, [r7, #12]
     318:	60b9      	str	r1, [r7, #8]
     31a:	607a      	str	r2, [r7, #4]
     31c:	603b      	str	r3, [r7, #0]
/home/aom1/Work/Linux/target/STM32MP1-DK2/bootloader/buildroot/optee-os-custom/ta/trusted_keys/entry.c:150
     31e:	2300      	movs	r3, #0
     320:	f6cf 73ff 	movt	r3, #65535	; 0xffff
     324:	647b      	str	r3, [r7, #68]	; 0x44
/home/aom1/Work/Linux/target/STM32MP1-DK2/bootloader/buildroot/optee-os-custom/ta/trusted_keys/entry.c:151
     326:	2300      	movs	r3, #0
     328:	643b      	str	r3, [r7, #64]	; 0x40
/home/aom1/Work/Linux/target/STM32MP1-DK2/bootloader/buildroot/optee-os-custom/ta/trusted_keys/entry.c:152
     32a:	2300      	movs	r3, #0
     32c:	63fb      	str	r3, [r7, #60]	; 0x3c
/home/aom1/Work/Linux/target/STM32MP1-DK2/bootloader/buildroot/optee-os-custom/ta/trusted_keys/entry.c:153
     32e:	2300      	movs	r3, #0
     330:	61fb      	str	r3, [r7, #28]
     332:	f107 0320 	add.w	r3, r7, #32
     336:	efc0 0010 	vmov.i32	d16, #0	; 0x00000000
     33a:	edc3 0b00 	vstr	d16, [r3]
     33e:	edc3 0b02 	vstr	d16, [r3, #8]
     342:	edc3 0b04 	vstr	d16, [r3, #16]
     346:	edc3 0b05 	vstr	d16, [r3, #20]
/home/aom1/Work/Linux/target/STM32MP1-DK2/bootloader/buildroot/optee-os-custom/ta/trusted_keys/entry.c:154
     34a:	f107 0310 	add.w	r3, r7, #16
     34e:	efc0 0010 	vmov.i32	d16, #0	; 0x00000000
     352:	edc3 0b00 	vstr	d16, [r3]
     356:	edc3 0b01 	vstr	d16, [r3, #4]
/home/aom1/Work/Linux/target/STM32MP1-DK2/bootloader/buildroot/optee-os-custom/ta/trusted_keys/entry.c:156
     35a:	f107 0040 	add.w	r0, r7, #64	; 0x40
     35e:	f44f 7380 	mov.w	r3, #256	; 0x100
     362:	68fa      	ldr	r2, [r7, #12]
     364:	f44f 6101 	mov.w	r1, #2064	; 0x810
     368:	f2c4 0100 	movt	r1, #16384	; 0x4000
     36c:	f002 fb33 	bl	29d6 <TEE_AllocateOperation>
     370:	6478      	str	r0, [r7, #68]	; 0x44
/home/aom1/Work/Linux/target/STM32MP1-DK2/bootloader/buildroot/optee-os-custom/ta/trusted_keys/entry.c:158
     372:	6c7b      	ldr	r3, [r7, #68]	; 0x44
     374:	2b00      	cmp	r3, #0
     376:	d001      	beq.n	37c <huk_crypt+0x6c>
/home/aom1/Work/Linux/target/STM32MP1-DK2/bootloader/buildroot/optee-os-custom/ta/trusted_keys/entry.c:159
     378:	6c7b      	ldr	r3, [r7, #68]	; 0x44
     37a:	e092      	b.n	4a2 <huk_crypt+0x192>
/home/aom1/Work/Linux/target/STM32MP1-DK2/bootloader/buildroot/optee-os-custom/ta/trusted_keys/entry.c:161
     37c:	f107 001c 	add.w	r0, r7, #28
     380:	2300      	movs	r3, #0
     382:	2200      	movs	r2, #0
     384:	2120      	movs	r1, #32
     386:	f7ff fe8f 	bl	a8 <derive_unique_key>
     38a:	6478      	str	r0, [r7, #68]	; 0x44
/home/aom1/Work/Linux/target/STM32MP1-DK2/bootloader/buildroot/optee-os-custom/ta/trusted_keys/entry.c:162
     38c:	6c7b      	ldr	r3, [r7, #68]	; 0x44
     38e:	2b00      	cmp	r3, #0
     390:	d00c      	beq.n	3ac <huk_crypt+0x9c>
/home/aom1/Work/Linux/target/STM32MP1-DK2/bootloader/buildroot/optee-os-custom/ta/trusted_keys/entry.c:163
     392:	6c7b      	ldr	r3, [r7, #68]	; 0x44
     394:	9301      	str	r3, [sp, #4]
     396:	4b45      	ldr	r3, [pc, #276]	; (4ac <huk_crypt+0x19c>)
     398:	447b      	add	r3, pc
     39a:	9300      	str	r3, [sp, #0]
     39c:	2301      	movs	r3, #1
     39e:	2201      	movs	r2, #1
     3a0:	21a3      	movs	r1, #163	; 0xa3
     3a2:	4843      	ldr	r0, [pc, #268]	; (4b0 <huk_crypt+0x1a0>)
     3a4:	4478      	add	r0, pc
     3a6:	f000 fac3 	bl	930 <trace_printf>
/home/aom1/Work/Linux/target/STM32MP1-DK2/bootloader/buildroot/optee-os-custom/ta/trusted_keys/entry.c:164
     3aa:	e06f      	b.n	48c <huk_crypt+0x17c>
/home/aom1/Work/Linux/target/STM32MP1-DK2/bootloader/buildroot/optee-os-custom/ta/trusted_keys/entry.c:167
     3ac:	f107 033c 	add.w	r3, r7, #60	; 0x3c
     3b0:	461a      	mov	r2, r3
     3b2:	f44f 7180 	mov.w	r1, #256	; 0x100
     3b6:	2010      	movs	r0, #16
     3b8:	f2ca 0000 	movt	r0, #40960	; 0xa000
     3bc:	f011 fa6e 	bl	1189c <TEE_AllocateTransientObject>
     3c0:	6478      	str	r0, [r7, #68]	; 0x44
/home/aom1/Work/Linux/target/STM32MP1-DK2/bootloader/buildroot/optee-os-custom/ta/trusted_keys/entry.c:169
     3c2:	6c7b      	ldr	r3, [r7, #68]	; 0x44
     3c4:	2b00      	cmp	r3, #0
     3c6:	d160      	bne.n	48a <huk_crypt+0x17a>
/home/aom1/Work/Linux/target/STM32MP1-DK2/bootloader/buildroot/optee-os-custom/ta/trusted_keys/entry.c:172
     3c8:	f04f 4340 	mov.w	r3, #3221225472	; 0xc0000000
     3cc:	613b      	str	r3, [r7, #16]
/home/aom1/Work/Linux/target/STM32MP1-DK2/bootloader/buildroot/optee-os-custom/ta/trusted_keys/entry.c:173
     3ce:	f107 031c 	add.w	r3, r7, #28
     3d2:	617b      	str	r3, [r7, #20]
/home/aom1/Work/Linux/target/STM32MP1-DK2/bootloader/buildroot/optee-os-custom/ta/trusted_keys/entry.c:174
     3d4:	2320      	movs	r3, #32
     3d6:	61bb      	str	r3, [r7, #24]
/home/aom1/Work/Linux/target/STM32MP1-DK2/bootloader/buildroot/optee-os-custom/ta/trusted_keys/entry.c:176
     3d8:	6bfb      	ldr	r3, [r7, #60]	; 0x3c
     3da:	f107 0110 	add.w	r1, r7, #16
     3de:	2201      	movs	r2, #1
     3e0:	4618      	mov	r0, r3
     3e2:	f011 fae5 	bl	119b0 <TEE_PopulateTransientObject>
     3e6:	6478      	str	r0, [r7, #68]	; 0x44
/home/aom1/Work/Linux/target/STM32MP1-DK2/bootloader/buildroot/optee-os-custom/ta/trusted_keys/entry.c:177
     3e8:	6c7b      	ldr	r3, [r7, #68]	; 0x44
     3ea:	2b00      	cmp	r3, #0
     3ec:	d145      	bne.n	47a <huk_crypt+0x16a>
/home/aom1/Work/Linux/target/STM32MP1-DK2/bootloader/buildroot/optee-os-custom/ta/trusted_keys/entry.c:180
     3ee:	6c3b      	ldr	r3, [r7, #64]	; 0x40
     3f0:	6bfa      	ldr	r2, [r7, #60]	; 0x3c
     3f2:	4611      	mov	r1, r2
     3f4:	4618      	mov	r0, r3
     3f6:	f003 faf6 	bl	39e6 <TEE_SetOperationKey>
     3fa:	6478      	str	r0, [r7, #68]	; 0x44
/home/aom1/Work/Linux/target/STM32MP1-DK2/bootloader/buildroot/optee-os-custom/ta/trusted_keys/entry.c:181
     3fc:	6c7b      	ldr	r3, [r7, #68]	; 0x44
     3fe:	2b00      	cmp	r3, #0
     400:	d13d      	bne.n	47e <huk_crypt+0x16e>
/home/aom1/Work/Linux/target/STM32MP1-DK2/bootloader/buildroot/optee-os-custom/ta/trusted_keys/entry.c:184
     402:	68fb      	ldr	r3, [r7, #12]
     404:	2b00      	cmp	r3, #0
     406:	d118      	bne.n	43a <huk_crypt+0x12a>
/home/aom1/Work/Linux/target/STM32MP1-DK2/bootloader/buildroot/optee-os-custom/ta/trusted_keys/entry.c:185
     408:	6c38      	ldr	r0, [r7, #64]	; 0x40
     40a:	6d3b      	ldr	r3, [r7, #80]	; 0x50
     40c:	9300      	str	r3, [sp, #0]
     40e:	683b      	ldr	r3, [r7, #0]
     410:	687a      	ldr	r2, [r7, #4]
     412:	68b9      	ldr	r1, [r7, #8]
     414:	f7ff feaa 	bl	16c <huk_ae_encrypt>
     418:	6478      	str	r0, [r7, #68]	; 0x44
/home/aom1/Work/Linux/target/STM32MP1-DK2/bootloader/buildroot/optee-os-custom/ta/trusted_keys/entry.c:186
     41a:	6c7b      	ldr	r3, [r7, #68]	; 0x44
     41c:	2b00      	cmp	r3, #0
     41e:	d02f      	beq.n	480 <huk_crypt+0x170>
/home/aom1/Work/Linux/target/STM32MP1-DK2/bootloader/buildroot/optee-os-custom/ta/trusted_keys/entry.c:187
     420:	6c7b      	ldr	r3, [r7, #68]	; 0x44
     422:	9301      	str	r3, [sp, #4]
     424:	4b23      	ldr	r3, [pc, #140]	; (4b4 <huk_crypt+0x1a4>)
     426:	447b      	add	r3, pc
     428:	9300      	str	r3, [sp, #0]
     42a:	2301      	movs	r3, #1
     42c:	2201      	movs	r2, #1
     42e:	21bb      	movs	r1, #187	; 0xbb
     430:	4821      	ldr	r0, [pc, #132]	; (4b8 <huk_crypt+0x1a8>)
     432:	4478      	add	r0, pc
     434:	f000 fa7c 	bl	930 <trace_printf>
     438:	e022      	b.n	480 <huk_crypt+0x170>
/home/aom1/Work/Linux/target/STM32MP1-DK2/bootloader/buildroot/optee-os-custom/ta/trusted_keys/entry.c:188
     43a:	68fb      	ldr	r3, [r7, #12]
     43c:	2b01      	cmp	r3, #1
     43e:	d118      	bne.n	472 <huk_crypt+0x162>
/home/aom1/Work/Linux/target/STM32MP1-DK2/bootloader/buildroot/optee-os-custom/ta/trusted_keys/entry.c:189
     440:	6c38      	ldr	r0, [r7, #64]	; 0x40
     442:	6d3b      	ldr	r3, [r7, #80]	; 0x50
     444:	9300      	str	r3, [sp, #0]
     446:	683b      	ldr	r3, [r7, #0]
     448:	687a      	ldr	r2, [r7, #4]
     44a:	68b9      	ldr	r1, [r7, #8]
     44c:	f7ff ff00 	bl	250 <huk_ae_decrypt>
     450:	6478      	str	r0, [r7, #68]	; 0x44
/home/aom1/Work/Linux/target/STM32MP1-DK2/bootloader/buildroot/optee-os-custom/ta/trusted_keys/entry.c:190
     452:	6c7b      	ldr	r3, [r7, #68]	; 0x44
     454:	2b00      	cmp	r3, #0
     456:	d013      	beq.n	480 <huk_crypt+0x170>
/home/aom1/Work/Linux/target/STM32MP1-DK2/bootloader/buildroot/optee-os-custom/ta/trusted_keys/entry.c:191
     458:	6c7b      	ldr	r3, [r7, #68]	; 0x44
     45a:	9301      	str	r3, [sp, #4]
     45c:	4b17      	ldr	r3, [pc, #92]	; (4bc <huk_crypt+0x1ac>)
     45e:	447b      	add	r3, pc
     460:	9300      	str	r3, [sp, #0]
     462:	2301      	movs	r3, #1
     464:	2201      	movs	r2, #1
     466:	21bf      	movs	r1, #191	; 0xbf
     468:	4815      	ldr	r0, [pc, #84]	; (4c0 <huk_crypt+0x1b0>)
     46a:	4478      	add	r0, pc
     46c:	f000 fa60 	bl	930 <trace_printf>
     470:	e006      	b.n	480 <huk_crypt+0x170>
/home/aom1/Work/Linux/target/STM32MP1-DK2/bootloader/buildroot/optee-os-custom/ta/trusted_keys/entry.c:193
     472:	2000      	movs	r0, #0
     474:	f005 fbfc 	bl	5c70 <TEE_Panic>
     478:	e002      	b.n	480 <huk_crypt+0x170>
/home/aom1/Work/Linux/target/STM32MP1-DK2/bootloader/buildroot/optee-os-custom/ta/trusted_keys/entry.c:178
     47a:	bf00      	nop
     47c:	e000      	b.n	480 <huk_crypt+0x170>
/home/aom1/Work/Linux/target/STM32MP1-DK2/bootloader/buildroot/optee-os-custom/ta/trusted_keys/entry.c:182
     47e:	bf00      	nop
/home/aom1/Work/Linux/target/STM32MP1-DK2/bootloader/buildroot/optee-os-custom/ta/trusted_keys/entry.c:197
     480:	6bfb      	ldr	r3, [r7, #60]	; 0x3c
     482:	4618      	mov	r0, r3
     484:	f011 fa3a 	bl	118fc <TEE_FreeTransientObject>
     488:	e000      	b.n	48c <huk_crypt+0x17c>
/home/aom1/Work/Linux/target/STM32MP1-DK2/bootloader/buildroot/optee-os-custom/ta/trusted_keys/entry.c:170
     48a:	bf00      	nop
/home/aom1/Work/Linux/target/STM32MP1-DK2/bootloader/buildroot/optee-os-custom/ta/trusted_keys/entry.c:199
     48c:	6c3b      	ldr	r3, [r7, #64]	; 0x40
     48e:	4618      	mov	r0, r3
     490:	f003 f94f 	bl	3732 <TEE_FreeOperation>
/home/aom1/Work/Linux/target/STM32MP1-DK2/bootloader/buildroot/optee-os-custom/ta/trusted_keys/entry.c:200
     494:	f107 031c 	add.w	r3, r7, #28
     498:	2120      	movs	r1, #32
     49a:	4618      	mov	r0, r3
     49c:	f000 fbde 	bl	c5c <memzero_explicit>
/home/aom1/Work/Linux/target/STM32MP1-DK2/bootloader/buildroot/optee-os-custom/ta/trusted_keys/entry.c:201
     4a0:	6c7b      	ldr	r3, [r7, #68]	; 0x44
/home/aom1/Work/Linux/target/STM32MP1-DK2/bootloader/buildroot/optee-os-custom/ta/trusted_keys/entry.c:202 (discriminator 1)
     4a2:	4618      	mov	r0, r3
     4a4:	3748      	adds	r7, #72	; 0x48
     4a6:	46bd      	mov	sp, r7
     4a8:	bd80      	pop	{r7, pc}
     4aa:	bf00      	nop
     4ac:	0001229c 	.word	0x0001229c
     4b0:	00012398 	.word	0x00012398
     4b4:	00012236 	.word	0x00012236
     4b8:	0001230a 	.word	0x0001230a
     4bc:	00012222 	.word	0x00012222
     4c0:	000122d2 	.word	0x000122d2

000004c4 <seal_trusted_key>:
seal_trusted_key():
/home/aom1/Work/Linux/target/STM32MP1-DK2/bootloader/buildroot/optee-os-custom/ta/trusted_keys/entry.c:206
     4c4:	b580      	push	{r7, lr}
     4c6:	b092      	sub	sp, #72	; 0x48
     4c8:	af02      	add	r7, sp, #8
     4ca:	6078      	str	r0, [r7, #4]
     4cc:	6039      	str	r1, [r7, #0]
/home/aom1/Work/Linux/target/STM32MP1-DK2/bootloader/buildroot/optee-os-custom/ta/trusted_keys/entry.c:207
     4ce:	2300      	movs	r3, #0
     4d0:	63fb      	str	r3, [r7, #60]	; 0x3c
/home/aom1/Work/Linux/target/STM32MP1-DK2/bootloader/buildroot/optee-os-custom/ta/trusted_keys/entry.c:208
     4d2:	2300      	movs	r3, #0
     4d4:	63bb      	str	r3, [r7, #56]	; 0x38
/home/aom1/Work/Linux/target/STM32MP1-DK2/bootloader/buildroot/optee-os-custom/ta/trusted_keys/entry.c:209
     4d6:	2300      	movs	r3, #0
     4d8:	637b      	str	r3, [r7, #52]	; 0x34
/home/aom1/Work/Linux/target/STM32MP1-DK2/bootloader/buildroot/optee-os-custom/ta/trusted_keys/entry.c:210
     4da:	2300      	movs	r3, #0
     4dc:	633b      	str	r3, [r7, #48]	; 0x30
/home/aom1/Work/Linux/target/STM32MP1-DK2/bootloader/buildroot/optee-os-custom/ta/trusted_keys/entry.c:211
     4de:	2300      	movs	r3, #0
     4e0:	62fb      	str	r3, [r7, #44]	; 0x2c
/home/aom1/Work/Linux/target/STM32MP1-DK2/bootloader/buildroot/optee-os-custom/ta/trusted_keys/entry.c:215
     4e2:	687b      	ldr	r3, [r7, #4]
     4e4:	2b65      	cmp	r3, #101	; 0x65
     4e6:	d003      	beq.n	4f0 <seal_trusted_key+0x2c>
/home/aom1/Work/Linux/target/STM32MP1-DK2/bootloader/buildroot/optee-os-custom/ta/trusted_keys/entry.c:219
     4e8:	2306      	movs	r3, #6
     4ea:	f6cf 73ff 	movt	r3, #65535	; 0xffff
     4ee:	e061      	b.n	5b4 <seal_trusted_key+0xf0>
/home/aom1/Work/Linux/target/STM32MP1-DK2/bootloader/buildroot/optee-os-custom/ta/trusted_keys/entry.c:221
     4f0:	683b      	ldr	r3, [r7, #0]
     4f2:	681b      	ldr	r3, [r3, #0]
     4f4:	63bb      	str	r3, [r7, #56]	; 0x38
/home/aom1/Work/Linux/target/STM32MP1-DK2/bootloader/buildroot/optee-os-custom/ta/trusted_keys/entry.c:222
     4f6:	683b      	ldr	r3, [r7, #0]
     4f8:	685b      	ldr	r3, [r3, #4]
     4fa:	637b      	str	r3, [r7, #52]	; 0x34
/home/aom1/Work/Linux/target/STM32MP1-DK2/bootloader/buildroot/optee-os-custom/ta/trusted_keys/entry.c:223
     4fc:	683b      	ldr	r3, [r7, #0]
     4fe:	3308      	adds	r3, #8
     500:	681b      	ldr	r3, [r3, #0]
     502:	633b      	str	r3, [r7, #48]	; 0x30
/home/aom1/Work/Linux/target/STM32MP1-DK2/bootloader/buildroot/optee-os-custom/ta/trusted_keys/entry.c:224
     504:	683b      	ldr	r3, [r7, #0]
     506:	3308      	adds	r3, #8
     508:	685b      	ldr	r3, [r3, #4]
     50a:	62fb      	str	r3, [r7, #44]	; 0x2c
/home/aom1/Work/Linux/target/STM32MP1-DK2/bootloader/buildroot/optee-os-custom/ta/trusted_keys/entry.c:226
     50c:	6bbb      	ldr	r3, [r7, #56]	; 0x38
     50e:	2b00      	cmp	r3, #0
     510:	d006      	beq.n	520 <seal_trusted_key+0x5c>
/home/aom1/Work/Linux/target/STM32MP1-DK2/bootloader/buildroot/optee-os-custom/ta/trusted_keys/entry.c:226 (discriminator 1)
     512:	6b7b      	ldr	r3, [r7, #52]	; 0x34
     514:	2b00      	cmp	r3, #0
     516:	d003      	beq.n	520 <seal_trusted_key+0x5c>
/home/aom1/Work/Linux/target/STM32MP1-DK2/bootloader/buildroot/optee-os-custom/ta/trusted_keys/entry.c:226 (discriminator 2)
     518:	6b7b      	ldr	r3, [r7, #52]	; 0x34
     51a:	f5b3 7f00 	cmp.w	r3, #512	; 0x200
     51e:	d903      	bls.n	528 <seal_trusted_key+0x64>
/home/aom1/Work/Linux/target/STM32MP1-DK2/bootloader/buildroot/optee-os-custom/ta/trusted_keys/entry.c:227
     520:	2306      	movs	r3, #6
     522:	f6cf 73ff 	movt	r3, #65535	; 0xffff
     526:	e045      	b.n	5b4 <seal_trusted_key+0xf0>
/home/aom1/Work/Linux/target/STM32MP1-DK2/bootloader/buildroot/optee-os-custom/ta/trusted_keys/entry.c:228
     528:	6b3b      	ldr	r3, [r7, #48]	; 0x30
     52a:	2b00      	cmp	r3, #0
     52c:	d102      	bne.n	534 <seal_trusted_key+0x70>
/home/aom1/Work/Linux/target/STM32MP1-DK2/bootloader/buildroot/optee-os-custom/ta/trusted_keys/entry.c:228 (discriminator 1)
     52e:	6afb      	ldr	r3, [r7, #44]	; 0x2c
     530:	2b00      	cmp	r3, #0
     532:	d109      	bne.n	548 <seal_trusted_key+0x84>
/home/aom1/Work/Linux/target/STM32MP1-DK2/bootloader/buildroot/optee-os-custom/ta/trusted_keys/entry.c:228 (discriminator 3)
     534:	6b3b      	ldr	r3, [r7, #48]	; 0x30
     536:	2b00      	cmp	r3, #0
     538:	d002      	beq.n	540 <seal_trusted_key+0x7c>
/home/aom1/Work/Linux/target/STM32MP1-DK2/bootloader/buildroot/optee-os-custom/ta/trusted_keys/entry.c:229
     53a:	2301      	movs	r3, #1
     53c:	2b00      	cmp	r3, #0
     53e:	d003      	beq.n	548 <seal_trusted_key+0x84>
/home/aom1/Work/Linux/target/STM32MP1-DK2/bootloader/buildroot/optee-os-custom/ta/trusted_keys/entry.c:230 (discriminator 1)
     540:	6afb      	ldr	r3, [r7, #44]	; 0x2c
/home/aom1/Work/Linux/target/STM32MP1-DK2/bootloader/buildroot/optee-os-custom/ta/trusted_keys/entry.c:229 (discriminator 1)
     542:	f5b3 7f00 	cmp.w	r3, #512	; 0x200
     546:	d903      	bls.n	550 <seal_trusted_key+0x8c>
/home/aom1/Work/Linux/target/STM32MP1-DK2/bootloader/buildroot/optee-os-custom/ta/trusted_keys/entry.c:231
     548:	2306      	movs	r3, #6
     54a:	f6cf 73ff 	movt	r3, #65535	; 0xffff
     54e:	e031      	b.n	5b4 <seal_trusted_key+0xf0>
/home/aom1/Work/Linux/target/STM32MP1-DK2/bootloader/buildroot/optee-os-custom/ta/trusted_keys/entry.c:233
     550:	6b7b      	ldr	r3, [r7, #52]	; 0x34
     552:	f103 0221 	add.w	r2, r3, #33	; 0x21
     556:	6afb      	ldr	r3, [r7, #44]	; 0x2c
     558:	429a      	cmp	r2, r3
     55a:	d908      	bls.n	56e <seal_trusted_key+0xaa>
/home/aom1/Work/Linux/target/STM32MP1-DK2/bootloader/buildroot/optee-os-custom/ta/trusted_keys/entry.c:234
     55c:	683b      	ldr	r3, [r7, #0]
     55e:	3308      	adds	r3, #8
     560:	6b7a      	ldr	r2, [r7, #52]	; 0x34
     562:	3221      	adds	r2, #33	; 0x21
     564:	605a      	str	r2, [r3, #4]
/home/aom1/Work/Linux/target/STM32MP1-DK2/bootloader/buildroot/optee-os-custom/ta/trusted_keys/entry.c:235
     566:	2310      	movs	r3, #16
     568:	f6cf 73ff 	movt	r3, #65535	; 0xffff
     56c:	e022      	b.n	5b4 <seal_trusted_key+0xf0>
/home/aom1/Work/Linux/target/STM32MP1-DK2/bootloader/buildroot/optee-os-custom/ta/trusted_keys/entry.c:238
     56e:	f107 032c 	add.w	r3, r7, #44	; 0x2c
     572:	9300      	str	r3, [sp, #0]
     574:	6b3b      	ldr	r3, [r7, #48]	; 0x30
     576:	6b7a      	ldr	r2, [r7, #52]	; 0x34
     578:	6bb9      	ldr	r1, [r7, #56]	; 0x38
     57a:	2000      	movs	r0, #0
     57c:	f7ff fec8 	bl	310 <huk_crypt>
     580:	63f8      	str	r0, [r7, #60]	; 0x3c
/home/aom1/Work/Linux/target/STM32MP1-DK2/bootloader/buildroot/optee-os-custom/ta/trusted_keys/entry.c:239
     582:	6bfb      	ldr	r3, [r7, #60]	; 0x3c
     584:	2b00      	cmp	r3, #0
     586:	d114      	bne.n	5b2 <seal_trusted_key+0xee>
/home/aom1/Work/Linux/target/STM32MP1-DK2/bootloader/buildroot/optee-os-custom/ta/trusted_keys/entry.c:240
     588:	6b7b      	ldr	r3, [r7, #52]	; 0x34
     58a:	f103 0221 	add.w	r2, r3, #33	; 0x21
     58e:	6afb      	ldr	r3, [r7, #44]	; 0x2c
     590:	429a      	cmp	r2, r3
     592:	d00a      	beq.n	5aa <seal_trusted_key+0xe6>
/home/aom1/Work/Linux/target/STM32MP1-DK2/bootloader/buildroot/optee-os-custom/ta/trusted_keys/entry.c:240 (discriminator 1)
     594:	4b09      	ldr	r3, [pc, #36]	; (5bc <seal_trusted_key+0xf8>)
     596:	447b      	add	r3, pc
     598:	22f0      	movs	r2, #240	; 0xf0
     59a:	4909      	ldr	r1, [pc, #36]	; (5c0 <seal_trusted_key+0xfc>)
     59c:	4479      	add	r1, pc
     59e:	4809      	ldr	r0, [pc, #36]	; (5c4 <seal_trusted_key+0x100>)
     5a0:	4478      	add	r0, pc
     5a2:	f001 fb7b 	bl	1c9c <_assert_log>
     5a6:	f001 fb97 	bl	1cd8 <_assert_break>
/home/aom1/Work/Linux/target/STM32MP1-DK2/bootloader/buildroot/optee-os-custom/ta/trusted_keys/entry.c:241
     5aa:	683b      	ldr	r3, [r7, #0]
     5ac:	3308      	adds	r3, #8
     5ae:	6afa      	ldr	r2, [r7, #44]	; 0x2c
     5b0:	605a      	str	r2, [r3, #4]
/home/aom1/Work/Linux/target/STM32MP1-DK2/bootloader/buildroot/optee-os-custom/ta/trusted_keys/entry.c:244
     5b2:	6bfb      	ldr	r3, [r7, #60]	; 0x3c
/home/aom1/Work/Linux/target/STM32MP1-DK2/bootloader/buildroot/optee-os-custom/ta/trusted_keys/entry.c:245 (discriminator 1)
     5b4:	4618      	mov	r0, r3
     5b6:	3740      	adds	r7, #64	; 0x40
     5b8:	46bd      	mov	sp, r7
     5ba:	bd80      	pop	{r7, pc}
     5bc:	000121b2 	.word	0x000121b2
     5c0:	00012108 	.word	0x00012108
     5c4:	0001211c 	.word	0x0001211c

000005c8 <unseal_trusted_key>:
unseal_trusted_key():
/home/aom1/Work/Linux/target/STM32MP1-DK2/bootloader/buildroot/optee-os-custom/ta/trusted_keys/entry.c:249
     5c8:	b580      	push	{r7, lr}
     5ca:	b092      	sub	sp, #72	; 0x48
     5cc:	af02      	add	r7, sp, #8
     5ce:	6078      	str	r0, [r7, #4]
     5d0:	6039      	str	r1, [r7, #0]
/home/aom1/Work/Linux/target/STM32MP1-DK2/bootloader/buildroot/optee-os-custom/ta/trusted_keys/entry.c:250
     5d2:	2300      	movs	r3, #0
     5d4:	63fb      	str	r3, [r7, #60]	; 0x3c
/home/aom1/Work/Linux/target/STM32MP1-DK2/bootloader/buildroot/optee-os-custom/ta/trusted_keys/entry.c:251
     5d6:	2300      	movs	r3, #0
     5d8:	63bb      	str	r3, [r7, #56]	; 0x38
/home/aom1/Work/Linux/target/STM32MP1-DK2/bootloader/buildroot/optee-os-custom/ta/trusted_keys/entry.c:252
     5da:	2300      	movs	r3, #0
     5dc:	637b      	str	r3, [r7, #52]	; 0x34
/home/aom1/Work/Linux/target/STM32MP1-DK2/bootloader/buildroot/optee-os-custom/ta/trusted_keys/entry.c:253
     5de:	2300      	movs	r3, #0
     5e0:	633b      	str	r3, [r7, #48]	; 0x30
/home/aom1/Work/Linux/target/STM32MP1-DK2/bootloader/buildroot/optee-os-custom/ta/trusted_keys/entry.c:254
     5e2:	2300      	movs	r3, #0
     5e4:	62fb      	str	r3, [r7, #44]	; 0x2c
/home/aom1/Work/Linux/target/STM32MP1-DK2/bootloader/buildroot/optee-os-custom/ta/trusted_keys/entry.c:258
     5e6:	687b      	ldr	r3, [r7, #4]
     5e8:	2b65      	cmp	r3, #101	; 0x65
     5ea:	d003      	beq.n	5f4 <unseal_trusted_key+0x2c>
/home/aom1/Work/Linux/target/STM32MP1-DK2/bootloader/buildroot/optee-os-custom/ta/trusted_keys/entry.c:262
     5ec:	2306      	movs	r3, #6
     5ee:	f6cf 73ff 	movt	r3, #65535	; 0xffff
     5f2:	e05e      	b.n	6b2 <unseal_trusted_key+0xea>
/home/aom1/Work/Linux/target/STM32MP1-DK2/bootloader/buildroot/optee-os-custom/ta/trusted_keys/entry.c:264
     5f4:	683b      	ldr	r3, [r7, #0]
     5f6:	681b      	ldr	r3, [r3, #0]
     5f8:	63bb      	str	r3, [r7, #56]	; 0x38
/home/aom1/Work/Linux/target/STM32MP1-DK2/bootloader/buildroot/optee-os-custom/ta/trusted_keys/entry.c:265
     5fa:	683b      	ldr	r3, [r7, #0]
     5fc:	685b      	ldr	r3, [r3, #4]
     5fe:	637b      	str	r3, [r7, #52]	; 0x34
/home/aom1/Work/Linux/target/STM32MP1-DK2/bootloader/buildroot/optee-os-custom/ta/trusted_keys/entry.c:266
     600:	683b      	ldr	r3, [r7, #0]
     602:	3308      	adds	r3, #8
     604:	681b      	ldr	r3, [r3, #0]
     606:	633b      	str	r3, [r7, #48]	; 0x30
/home/aom1/Work/Linux/target/STM32MP1-DK2/bootloader/buildroot/optee-os-custom/ta/trusted_keys/entry.c:267
     608:	683b      	ldr	r3, [r7, #0]
     60a:	3308      	adds	r3, #8
     60c:	685b      	ldr	r3, [r3, #4]
     60e:	62fb      	str	r3, [r7, #44]	; 0x2c
/home/aom1/Work/Linux/target/STM32MP1-DK2/bootloader/buildroot/optee-os-custom/ta/trusted_keys/entry.c:269
     610:	6bbb      	ldr	r3, [r7, #56]	; 0x38
     612:	2b00      	cmp	r3, #0
     614:	d009      	beq.n	62a <unseal_trusted_key+0x62>
/home/aom1/Work/Linux/target/STM32MP1-DK2/bootloader/buildroot/optee-os-custom/ta/trusted_keys/entry.c:269 (discriminator 1)
     616:	2301      	movs	r3, #1
     618:	2b00      	cmp	r3, #0
     61a:	d006      	beq.n	62a <unseal_trusted_key+0x62>
/home/aom1/Work/Linux/target/STM32MP1-DK2/bootloader/buildroot/optee-os-custom/ta/trusted_keys/entry.c:269 (discriminator 2)
     61c:	6b7b      	ldr	r3, [r7, #52]	; 0x34
     61e:	2b21      	cmp	r3, #33	; 0x21
     620:	d903      	bls.n	62a <unseal_trusted_key+0x62>
/home/aom1/Work/Linux/target/STM32MP1-DK2/bootloader/buildroot/optee-os-custom/ta/trusted_keys/entry.c:270
     622:	6b7b      	ldr	r3, [r7, #52]	; 0x34
     624:	f5b3 7f00 	cmp.w	r3, #512	; 0x200
     628:	d903      	bls.n	632 <unseal_trusted_key+0x6a>
/home/aom1/Work/Linux/target/STM32MP1-DK2/bootloader/buildroot/optee-os-custom/ta/trusted_keys/entry.c:271
     62a:	2306      	movs	r3, #6
     62c:	f6cf 73ff 	movt	r3, #65535	; 0xffff
     630:	e03f      	b.n	6b2 <unseal_trusted_key+0xea>
/home/aom1/Work/Linux/target/STM32MP1-DK2/bootloader/buildroot/optee-os-custom/ta/trusted_keys/entry.c:272
     632:	6b3b      	ldr	r3, [r7, #48]	; 0x30
     634:	2b00      	cmp	r3, #0
     636:	d102      	bne.n	63e <unseal_trusted_key+0x76>
/home/aom1/Work/Linux/target/STM32MP1-DK2/bootloader/buildroot/optee-os-custom/ta/trusted_keys/entry.c:272 (discriminator 1)
     638:	6afb      	ldr	r3, [r7, #44]	; 0x2c
     63a:	2b00      	cmp	r3, #0
     63c:	d103      	bne.n	646 <unseal_trusted_key+0x7e>
/home/aom1/Work/Linux/target/STM32MP1-DK2/bootloader/buildroot/optee-os-custom/ta/trusted_keys/entry.c:272 (discriminator 3)
     63e:	6afb      	ldr	r3, [r7, #44]	; 0x2c
     640:	f5b3 7f00 	cmp.w	r3, #512	; 0x200
     644:	d903      	bls.n	64e <unseal_trusted_key+0x86>
/home/aom1/Work/Linux/target/STM32MP1-DK2/bootloader/buildroot/optee-os-custom/ta/trusted_keys/entry.c:273
     646:	2306      	movs	r3, #6
     648:	f6cf 73ff 	movt	r3, #65535	; 0xffff
     64c:	e031      	b.n	6b2 <unseal_trusted_key+0xea>
/home/aom1/Work/Linux/target/STM32MP1-DK2/bootloader/buildroot/optee-os-custom/ta/trusted_keys/entry.c:275
     64e:	6afb      	ldr	r3, [r7, #44]	; 0x2c
     650:	3321      	adds	r3, #33	; 0x21
     652:	6b7a      	ldr	r2, [r7, #52]	; 0x34
     654:	429a      	cmp	r2, r3
     656:	d908      	bls.n	66a <unseal_trusted_key+0xa2>
/home/aom1/Work/Linux/target/STM32MP1-DK2/bootloader/buildroot/optee-os-custom/ta/trusted_keys/entry.c:276
     658:	683b      	ldr	r3, [r7, #0]
     65a:	3308      	adds	r3, #8
     65c:	6b7a      	ldr	r2, [r7, #52]	; 0x34
     65e:	3a21      	subs	r2, #33	; 0x21
     660:	605a      	str	r2, [r3, #4]
/home/aom1/Work/Linux/target/STM32MP1-DK2/bootloader/buildroot/optee-os-custom/ta/trusted_keys/entry.c:277
     662:	2310      	movs	r3, #16
     664:	f6cf 73ff 	movt	r3, #65535	; 0xffff
     668:	e023      	b.n	6b2 <unseal_trusted_key+0xea>
/home/aom1/Work/Linux/target/STM32MP1-DK2/bootloader/buildroot/optee-os-custom/ta/trusted_keys/entry.c:280
     66a:	f107 032c 	add.w	r3, r7, #44	; 0x2c
     66e:	9300      	str	r3, [sp, #0]
     670:	6b3b      	ldr	r3, [r7, #48]	; 0x30
     672:	6b7a      	ldr	r2, [r7, #52]	; 0x34
     674:	6bb9      	ldr	r1, [r7, #56]	; 0x38
     676:	2001      	movs	r0, #1
     678:	f7ff fe4a 	bl	310 <huk_crypt>
     67c:	63f8      	str	r0, [r7, #60]	; 0x3c
/home/aom1/Work/Linux/target/STM32MP1-DK2/bootloader/buildroot/optee-os-custom/ta/trusted_keys/entry.c:281
     67e:	6bfb      	ldr	r3, [r7, #60]	; 0x3c
     680:	2b00      	cmp	r3, #0
     682:	d115      	bne.n	6b0 <unseal_trusted_key+0xe8>
/home/aom1/Work/Linux/target/STM32MP1-DK2/bootloader/buildroot/optee-os-custom/ta/trusted_keys/entry.c:282
     684:	6b7b      	ldr	r3, [r7, #52]	; 0x34
     686:	f1a3 0221 	sub.w	r2, r3, #33	; 0x21
     68a:	6afb      	ldr	r3, [r7, #44]	; 0x2c
     68c:	429a      	cmp	r2, r3
     68e:	d00b      	beq.n	6a8 <unseal_trusted_key+0xe0>
/home/aom1/Work/Linux/target/STM32MP1-DK2/bootloader/buildroot/optee-os-custom/ta/trusted_keys/entry.c:282 (discriminator 1)
     690:	4b0a      	ldr	r3, [pc, #40]	; (6bc <unseal_trusted_key+0xf4>)
     692:	447b      	add	r3, pc
     694:	f44f 728d 	mov.w	r2, #282	; 0x11a
     698:	4909      	ldr	r1, [pc, #36]	; (6c0 <unseal_trusted_key+0xf8>)
     69a:	4479      	add	r1, pc
     69c:	4809      	ldr	r0, [pc, #36]	; (6c4 <unseal_trusted_key+0xfc>)
     69e:	4478      	add	r0, pc
     6a0:	f001 fafc 	bl	1c9c <_assert_log>
     6a4:	f001 fb18 	bl	1cd8 <_assert_break>
/home/aom1/Work/Linux/target/STM32MP1-DK2/bootloader/buildroot/optee-os-custom/ta/trusted_keys/entry.c:283
     6a8:	683b      	ldr	r3, [r7, #0]
     6aa:	3308      	adds	r3, #8
     6ac:	6afa      	ldr	r2, [r7, #44]	; 0x2c
     6ae:	605a      	str	r2, [r3, #4]
/home/aom1/Work/Linux/target/STM32MP1-DK2/bootloader/buildroot/optee-os-custom/ta/trusted_keys/entry.c:286
     6b0:	6bfb      	ldr	r3, [r7, #60]	; 0x3c
/home/aom1/Work/Linux/target/STM32MP1-DK2/bootloader/buildroot/optee-os-custom/ta/trusted_keys/entry.c:287 (discriminator 1)
     6b2:	4618      	mov	r0, r3
     6b4:	3740      	adds	r7, #64	; 0x40
     6b6:	46bd      	mov	sp, r7
     6b8:	bd80      	pop	{r7, pc}
     6ba:	bf00      	nop
     6bc:	000120ca 	.word	0x000120ca
     6c0:	0001200a 	.word	0x0001200a
     6c4:	0001204e 	.word	0x0001204e

000006c8 <TA_CreateEntryPoint>:
TA_CreateEntryPoint():
/home/aom1/Work/Linux/target/STM32MP1-DK2/bootloader/buildroot/optee-os-custom/ta/trusted_keys/entry.c:290
     6c8:	b480      	push	{r7}
     6ca:	af00      	add	r7, sp, #0
/home/aom1/Work/Linux/target/STM32MP1-DK2/bootloader/buildroot/optee-os-custom/ta/trusted_keys/entry.c:291
     6cc:	2300      	movs	r3, #0
/home/aom1/Work/Linux/target/STM32MP1-DK2/bootloader/buildroot/optee-os-custom/ta/trusted_keys/entry.c:292
     6ce:	4618      	mov	r0, r3
     6d0:	46bd      	mov	sp, r7
     6d2:	f85d 7b04 	ldr.w	r7, [sp], #4
     6d6:	4770      	bx	lr

000006d8 <TA_DestroyEntryPoint>:
TA_DestroyEntryPoint():
/home/aom1/Work/Linux/target/STM32MP1-DK2/bootloader/buildroot/optee-os-custom/ta/trusted_keys/entry.c:295
     6d8:	b480      	push	{r7}
     6da:	af00      	add	r7, sp, #0
/home/aom1/Work/Linux/target/STM32MP1-DK2/bootloader/buildroot/optee-os-custom/ta/trusted_keys/entry.c:296
     6dc:	bf00      	nop
     6de:	46bd      	mov	sp, r7
     6e0:	f85d 7b04 	ldr.w	r7, [sp], #4
     6e4:	4770      	bx	lr

000006e6 <TA_OpenSessionEntryPoint>:
TA_OpenSessionEntryPoint():
/home/aom1/Work/Linux/target/STM32MP1-DK2/bootloader/buildroot/optee-os-custom/ta/trusted_keys/entry.c:301
     6e6:	b580      	push	{r7, lr}
     6e8:	b08c      	sub	sp, #48	; 0x30
     6ea:	af00      	add	r7, sp, #0
     6ec:	60f8      	str	r0, [r7, #12]
     6ee:	60b9      	str	r1, [r7, #8]
     6f0:	607a      	str	r2, [r7, #4]
/home/aom1/Work/Linux/target/STM32MP1-DK2/bootloader/buildroot/optee-os-custom/ta/trusted_keys/entry.c:302
     6f2:	2300      	movs	r3, #0
     6f4:	f6cf 73ff 	movt	r3, #65535	; 0xffff
     6f8:	62fb      	str	r3, [r7, #44]	; 0x2c
/home/aom1/Work/Linux/target/STM32MP1-DK2/bootloader/buildroot/optee-os-custom/ta/trusted_keys/entry.c:303
     6fa:	2300      	movs	r3, #0
     6fc:	62bb      	str	r3, [r7, #40]	; 0x28
/home/aom1/Work/Linux/target/STM32MP1-DK2/bootloader/buildroot/optee-os-custom/ta/trusted_keys/entry.c:304
     6fe:	f107 0314 	add.w	r3, r7, #20
     702:	efc0 0010 	vmov.i32	d16, #0	; 0x00000000
     706:	edc3 0b00 	vstr	d16, [r3]
     70a:	edc3 0b02 	vstr	d16, [r3, #8]
     70e:	edc3 0b03 	vstr	d16, [r3, #12]
/home/aom1/Work/Linux/target/STM32MP1-DK2/bootloader/buildroot/optee-os-custom/ta/trusted_keys/entry.c:306
     712:	f107 0328 	add.w	r3, r7, #40	; 0x28
     716:	4618      	mov	r0, r3
     718:	f005 ff7d 	bl	6616 <TEE_AllocatePropertyEnumerator>
     71c:	62f8      	str	r0, [r7, #44]	; 0x2c
/home/aom1/Work/Linux/target/STM32MP1-DK2/bootloader/buildroot/optee-os-custom/ta/trusted_keys/entry.c:307
     71e:	6afb      	ldr	r3, [r7, #44]	; 0x2c
     720:	2b00      	cmp	r3, #0
     722:	d119      	bne.n	758 <TA_OpenSessionEntryPoint+0x72>
/home/aom1/Work/Linux/target/STM32MP1-DK2/bootloader/buildroot/optee-os-custom/ta/trusted_keys/entry.c:310
     724:	6abb      	ldr	r3, [r7, #40]	; 0x28
     726:	f06f 0101 	mvn.w	r1, #1
     72a:	4618      	mov	r0, r3
     72c:	f005 ffc0 	bl	66b0 <TEE_StartPropertyEnumerator>
/home/aom1/Work/Linux/target/STM32MP1-DK2/bootloader/buildroot/optee-os-custom/ta/trusted_keys/entry.c:312
     730:	6abb      	ldr	r3, [r7, #40]	; 0x28
     732:	f107 0214 	add.w	r2, r7, #20
     736:	2100      	movs	r1, #0
     738:	4618      	mov	r0, r3
     73a:	f005 ff2c 	bl	6596 <TEE_GetPropertyAsIdentity>
     73e:	62f8      	str	r0, [r7, #44]	; 0x2c
/home/aom1/Work/Linux/target/STM32MP1-DK2/bootloader/buildroot/optee-os-custom/ta/trusted_keys/entry.c:313
     740:	6afb      	ldr	r3, [r7, #44]	; 0x2c
     742:	2b00      	cmp	r3, #0
     744:	d10a      	bne.n	75c <TA_OpenSessionEntryPoint+0x76>
/home/aom1/Work/Linux/target/STM32MP1-DK2/bootloader/buildroot/optee-os-custom/ta/trusted_keys/entry.c:316
     746:	697b      	ldr	r3, [r7, #20]
     748:	f1b3 4f00 	cmp.w	r3, #2147483648	; 0x80000000
     74c:	d008      	beq.n	760 <TA_OpenSessionEntryPoint+0x7a>
/home/aom1/Work/Linux/target/STM32MP1-DK2/bootloader/buildroot/optee-os-custom/ta/trusted_keys/entry.c:317
     74e:	2301      	movs	r3, #1
     750:	f6cf 73ff 	movt	r3, #65535	; 0xffff
     754:	62fb      	str	r3, [r7, #44]	; 0x2c
     756:	e004      	b.n	762 <TA_OpenSessionEntryPoint+0x7c>
/home/aom1/Work/Linux/target/STM32MP1-DK2/bootloader/buildroot/optee-os-custom/ta/trusted_keys/entry.c:308
     758:	bf00      	nop
     75a:	e002      	b.n	762 <TA_OpenSessionEntryPoint+0x7c>
/home/aom1/Work/Linux/target/STM32MP1-DK2/bootloader/buildroot/optee-os-custom/ta/trusted_keys/entry.c:314
     75c:	bf00      	nop
     75e:	e000      	b.n	762 <TA_OpenSessionEntryPoint+0x7c>
/home/aom1/Work/Linux/target/STM32MP1-DK2/bootloader/buildroot/optee-os-custom/ta/trusted_keys/entry.c:319
     760:	bf00      	nop
/home/aom1/Work/Linux/target/STM32MP1-DK2/bootloader/buildroot/optee-os-custom/ta/trusted_keys/entry.c:320
     762:	6abb      	ldr	r3, [r7, #40]	; 0x28
     764:	2b00      	cmp	r3, #0
     766:	d003      	beq.n	770 <TA_OpenSessionEntryPoint+0x8a>
/home/aom1/Work/Linux/target/STM32MP1-DK2/bootloader/buildroot/optee-os-custom/ta/trusted_keys/entry.c:321
     768:	6abb      	ldr	r3, [r7, #40]	; 0x28
     76a:	4618      	mov	r0, r3
     76c:	f005 ff93 	bl	6696 <TEE_FreePropertyEnumerator>
/home/aom1/Work/Linux/target/STM32MP1-DK2/bootloader/buildroot/optee-os-custom/ta/trusted_keys/entry.c:322
     770:	6afb      	ldr	r3, [r7, #44]	; 0x2c
/home/aom1/Work/Linux/target/STM32MP1-DK2/bootloader/buildroot/optee-os-custom/ta/trusted_keys/entry.c:323
     772:	4618      	mov	r0, r3
     774:	3730      	adds	r7, #48	; 0x30
     776:	46bd      	mov	sp, r7
     778:	bd80      	pop	{r7, pc}

0000077a <TA_CloseSessionEntryPoint>:
TA_CloseSessionEntryPoint():
/home/aom1/Work/Linux/target/STM32MP1-DK2/bootloader/buildroot/optee-os-custom/ta/trusted_keys/entry.c:326
     77a:	b480      	push	{r7}
     77c:	b083      	sub	sp, #12
     77e:	af00      	add	r7, sp, #0
     780:	6078      	str	r0, [r7, #4]
/home/aom1/Work/Linux/target/STM32MP1-DK2/bootloader/buildroot/optee-os-custom/ta/trusted_keys/entry.c:327
     782:	bf00      	nop
     784:	370c      	adds	r7, #12
     786:	46bd      	mov	sp, r7
     788:	f85d 7b04 	ldr.w	r7, [sp], #4
     78c:	4770      	bx	lr

0000078e <TA_InvokeCommandEntryPoint>:
TA_InvokeCommandEntryPoint():
/home/aom1/Work/Linux/target/STM32MP1-DK2/bootloader/buildroot/optee-os-custom/ta/trusted_keys/entry.c:332
     78e:	b580      	push	{r7, lr}
     790:	b086      	sub	sp, #24
     792:	af02      	add	r7, sp, #8
     794:	60f8      	str	r0, [r7, #12]
     796:	60b9      	str	r1, [r7, #8]
     798:	607a      	str	r2, [r7, #4]
     79a:	603b      	str	r3, [r7, #0]
/home/aom1/Work/Linux/target/STM32MP1-DK2/bootloader/buildroot/optee-os-custom/ta/trusted_keys/entry.c:333
     79c:	68bb      	ldr	r3, [r7, #8]
     79e:	2b02      	cmp	r3, #2
     7a0:	d015      	beq.n	7ce <TA_InvokeCommandEntryPoint+0x40>
     7a2:	68bb      	ldr	r3, [r7, #8]
     7a4:	2b02      	cmp	r3, #2
     7a6:	d818      	bhi.n	7da <TA_InvokeCommandEntryPoint+0x4c>
     7a8:	68bb      	ldr	r3, [r7, #8]
     7aa:	2b00      	cmp	r3, #0
     7ac:	d003      	beq.n	7b6 <TA_InvokeCommandEntryPoint+0x28>
     7ae:	68bb      	ldr	r3, [r7, #8]
     7b0:	2b01      	cmp	r3, #1
     7b2:	d006      	beq.n	7c2 <TA_InvokeCommandEntryPoint+0x34>
     7b4:	e011      	b.n	7da <TA_InvokeCommandEntryPoint+0x4c>
/home/aom1/Work/Linux/target/STM32MP1-DK2/bootloader/buildroot/optee-os-custom/ta/trusted_keys/entry.c:335
     7b6:	6839      	ldr	r1, [r7, #0]
     7b8:	6878      	ldr	r0, [r7, #4]
     7ba:	f7ff fc31 	bl	20 <get_random>
     7be:	4603      	mov	r3, r0
     7c0:	e01b      	b.n	7fa <TA_InvokeCommandEntryPoint+0x6c>
/home/aom1/Work/Linux/target/STM32MP1-DK2/bootloader/buildroot/optee-os-custom/ta/trusted_keys/entry.c:337
     7c2:	6839      	ldr	r1, [r7, #0]
     7c4:	6878      	ldr	r0, [r7, #4]
     7c6:	f7ff fe7d 	bl	4c4 <seal_trusted_key>
     7ca:	4603      	mov	r3, r0
     7cc:	e015      	b.n	7fa <TA_InvokeCommandEntryPoint+0x6c>
/home/aom1/Work/Linux/target/STM32MP1-DK2/bootloader/buildroot/optee-os-custom/ta/trusted_keys/entry.c:339
     7ce:	6839      	ldr	r1, [r7, #0]
     7d0:	6878      	ldr	r0, [r7, #4]
     7d2:	f7ff fef9 	bl	5c8 <unseal_trusted_key>
     7d6:	4603      	mov	r3, r0
     7d8:	e00f      	b.n	7fa <TA_InvokeCommandEntryPoint+0x6c>
/home/aom1/Work/Linux/target/STM32MP1-DK2/bootloader/buildroot/optee-os-custom/ta/trusted_keys/entry.c:341
     7da:	68bb      	ldr	r3, [r7, #8]
     7dc:	9301      	str	r3, [sp, #4]
     7de:	4b09      	ldr	r3, [pc, #36]	; (804 <TA_InvokeCommandEntryPoint+0x76>)
     7e0:	447b      	add	r3, pc
     7e2:	9300      	str	r3, [sp, #0]
     7e4:	2301      	movs	r3, #1
     7e6:	2201      	movs	r2, #1
     7e8:	f240 1155 	movw	r1, #341	; 0x155
     7ec:	4806      	ldr	r0, [pc, #24]	; (808 <TA_InvokeCommandEntryPoint+0x7a>)
     7ee:	4478      	add	r0, pc
     7f0:	f000 f89e 	bl	930 <trace_printf>
/home/aom1/Work/Linux/target/STM32MP1-DK2/bootloader/buildroot/optee-os-custom/ta/trusted_keys/entry.c:342
     7f4:	230a      	movs	r3, #10
     7f6:	f6cf 73ff 	movt	r3, #65535	; 0xffff
/home/aom1/Work/Linux/target/STM32MP1-DK2/bootloader/buildroot/optee-os-custom/ta/trusted_keys/entry.c:344
     7fa:	4618      	mov	r0, r3
     7fc:	3710      	adds	r7, #16
     7fe:	46bd      	mov	sp, r7
     800:	bd80      	pop	{r7, pc}
     802:	bf00      	nop
     804:	00011f3c 	.word	0x00011f3c
     808:	00011f82 	.word	0x00011f82

0000080c <__ta_entry>:
__ta_entry():
/home/aom1/Work/Linux/target/STM32MP1-DK2/bootloader/buildroot/optee-os-custom/out/arm-plat-stm32mp1/export-ta_arm32/src/ta_entry_a32.S:20
     80c:	fa0041b2 	blx	10edc <__ta_entry_c>

00000810 <trace_set_level>:
trace_set_level():
/home/aom1/Work/Linux/target/STM32MP1-DK2/bootloader/buildroot/optee-os-custom/lib/libutils/ext/trace.c:24
     810:	b480      	push	{r7}
     812:	b083      	sub	sp, #12
     814:	af00      	add	r7, sp, #0
     816:	6078      	str	r0, [r7, #4]
     818:	4b0b      	ldr	r3, [pc, #44]	; (848 <trace_set_level+0x38>)
     81a:	447b      	add	r3, pc
/home/aom1/Work/Linux/target/STM32MP1-DK2/bootloader/buildroot/optee-os-custom/lib/libutils/ext/trace.c:25
     81c:	687a      	ldr	r2, [r7, #4]
     81e:	2a00      	cmp	r2, #0
     820:	db07      	blt.n	832 <trace_set_level+0x22>
/home/aom1/Work/Linux/target/STM32MP1-DK2/bootloader/buildroot/optee-os-custom/lib/libutils/ext/trace.c:25 (discriminator 1)
     822:	687a      	ldr	r2, [r7, #4]
     824:	2a04      	cmp	r2, #4
     826:	dc04      	bgt.n	832 <trace_set_level+0x22>
/home/aom1/Work/Linux/target/STM32MP1-DK2/bootloader/buildroot/optee-os-custom/lib/libutils/ext/trace.c:26
     828:	4a08      	ldr	r2, [pc, #32]	; (84c <trace_set_level+0x3c>)
     82a:	589b      	ldr	r3, [r3, r2]
     82c:	687a      	ldr	r2, [r7, #4]
     82e:	601a      	str	r2, [r3, #0]
     830:	e004      	b.n	83c <trace_set_level+0x2c>
/home/aom1/Work/Linux/target/STM32MP1-DK2/bootloader/buildroot/optee-os-custom/lib/libutils/ext/trace.c:28
     832:	4a06      	ldr	r2, [pc, #24]	; (84c <trace_set_level+0x3c>)
     834:	589b      	ldr	r3, [r3, r2]
     836:	2204      	movs	r2, #4
     838:	601a      	str	r2, [r3, #0]
/home/aom1/Work/Linux/target/STM32MP1-DK2/bootloader/buildroot/optee-os-custom/lib/libutils/ext/trace.c:29
     83a:	bf00      	nop
     83c:	bf00      	nop
     83e:	370c      	adds	r7, #12
     840:	46bd      	mov	sp, r7
     842:	f85d 7b04 	ldr.w	r7, [sp], #4
     846:	4770      	bx	lr
     848:	0001386a 	.word	0x0001386a
     84c:	00000014 	.word	0x00000014

00000850 <trace_get_level>:
trace_get_level():
/home/aom1/Work/Linux/target/STM32MP1-DK2/bootloader/buildroot/optee-os-custom/lib/libutils/ext/trace.c:32
     850:	b480      	push	{r7}
     852:	af00      	add	r7, sp, #0
     854:	4a04      	ldr	r2, [pc, #16]	; (868 <trace_get_level+0x18>)
     856:	447a      	add	r2, pc
/home/aom1/Work/Linux/target/STM32MP1-DK2/bootloader/buildroot/optee-os-custom/lib/libutils/ext/trace.c:33
     858:	4b04      	ldr	r3, [pc, #16]	; (86c <trace_get_level+0x1c>)
     85a:	58d3      	ldr	r3, [r2, r3]
     85c:	681b      	ldr	r3, [r3, #0]
/home/aom1/Work/Linux/target/STM32MP1-DK2/bootloader/buildroot/optee-os-custom/lib/libutils/ext/trace.c:34
     85e:	4618      	mov	r0, r3
     860:	46bd      	mov	sp, r7
     862:	f85d 7b04 	ldr.w	r7, [sp], #4
     866:	4770      	bx	lr
     868:	0001382e 	.word	0x0001382e
     86c:	00000014 	.word	0x00000014

00000870 <trace_level_to_string>:
trace_level_to_string():
/home/aom1/Work/Linux/target/STM32MP1-DK2/bootloader/buildroot/optee-os-custom/lib/libutils/ext/trace.c:37
     870:	b480      	push	{r7}
     872:	b085      	sub	sp, #20
     874:	af00      	add	r7, sp, #0
     876:	6078      	str	r0, [r7, #4]
     878:	460b      	mov	r3, r1
     87a:	70fb      	strb	r3, [r7, #3]
/home/aom1/Work/Linux/target/STM32MP1-DK2/bootloader/buildroot/optee-os-custom/lib/libutils/ext/trace.c:46
     87c:	2300      	movs	r3, #0
     87e:	60fb      	str	r3, [r7, #12]
/home/aom1/Work/Linux/target/STM32MP1-DK2/bootloader/buildroot/optee-os-custom/lib/libutils/ext/trace.c:48
     880:	78fb      	ldrb	r3, [r7, #3]
     882:	f083 0301 	eor.w	r3, r3, #1
     886:	b2db      	uxtb	r3, r3
     888:	2b00      	cmp	r3, #0
     88a:	d001      	beq.n	890 <trace_level_to_string+0x20>
/home/aom1/Work/Linux/target/STM32MP1-DK2/bootloader/buildroot/optee-os-custom/lib/libutils/ext/trace.c:49
     88c:	234d      	movs	r3, #77	; 0x4d
     88e:	e00c      	b.n	8aa <trace_level_to_string+0x3a>
/home/aom1/Work/Linux/target/STM32MP1-DK2/bootloader/buildroot/optee-os-custom/lib/libutils/ext/trace.c:51
     890:	687b      	ldr	r3, [r7, #4]
     892:	2b00      	cmp	r3, #0
     894:	db04      	blt.n	8a0 <trace_level_to_string+0x30>
/home/aom1/Work/Linux/target/STM32MP1-DK2/bootloader/buildroot/optee-os-custom/lib/libutils/ext/trace.c:51 (discriminator 1)
     896:	687b      	ldr	r3, [r7, #4]
     898:	2b04      	cmp	r3, #4
     89a:	dc01      	bgt.n	8a0 <trace_level_to_string+0x30>
/home/aom1/Work/Linux/target/STM32MP1-DK2/bootloader/buildroot/optee-os-custom/lib/libutils/ext/trace.c:52
     89c:	687b      	ldr	r3, [r7, #4]
     89e:	60fb      	str	r3, [r7, #12]
/home/aom1/Work/Linux/target/STM32MP1-DK2/bootloader/buildroot/optee-os-custom/lib/libutils/ext/trace.c:54
     8a0:	4a05      	ldr	r2, [pc, #20]	; (8b8 <trace_level_to_string+0x48>)
     8a2:	447a      	add	r2, pc
     8a4:	68fb      	ldr	r3, [r7, #12]
     8a6:	4413      	add	r3, r2
     8a8:	781b      	ldrb	r3, [r3, #0]
/home/aom1/Work/Linux/target/STM32MP1-DK2/bootloader/buildroot/optee-os-custom/lib/libutils/ext/trace.c:55
     8aa:	4618      	mov	r0, r3
     8ac:	3714      	adds	r7, #20
     8ae:	46bd      	mov	sp, r7
     8b0:	f85d 7b04 	ldr.w	r7, [sp], #4
     8b4:	4770      	bx	lr
     8b6:	bf00      	nop
     8b8:	00011fe2 	.word	0x00011fe2

000008bc <print_thread_id>:
print_thread_id():
/home/aom1/Work/Linux/target/STM32MP1-DK2/bootloader/buildroot/optee-os-custom/lib/libutils/ext/trace.c:58
     8bc:	b580      	push	{r7, lr}
     8be:	b086      	sub	sp, #24
     8c0:	af02      	add	r7, sp, #8
     8c2:	6078      	str	r0, [r7, #4]
     8c4:	6039      	str	r1, [r7, #0]
/home/aom1/Work/Linux/target/STM32MP1-DK2/bootloader/buildroot/optee-os-custom/lib/libutils/ext/trace.c:64
     8c6:	2301      	movs	r3, #1
     8c8:	60fb      	str	r3, [r7, #12]
/home/aom1/Work/Linux/target/STM32MP1-DK2/bootloader/buildroot/optee-os-custom/lib/libutils/ext/trace.c:66
     8ca:	f001 fa1d 	bl	1d08 <trace_ext_get_thread_id>
     8ce:	60b8      	str	r0, [r7, #8]
/home/aom1/Work/Linux/target/STM32MP1-DK2/bootloader/buildroot/optee-os-custom/lib/libutils/ext/trace.c:68
     8d0:	68bb      	ldr	r3, [r7, #8]
     8d2:	2b00      	cmp	r3, #0
     8d4:	db0a      	blt.n	8ec <print_thread_id+0x30>
/home/aom1/Work/Linux/target/STM32MP1-DK2/bootloader/buildroot/optee-os-custom/lib/libutils/ext/trace.c:69
     8d6:	68bb      	ldr	r3, [r7, #8]
     8d8:	9300      	str	r3, [sp, #0]
     8da:	68fb      	ldr	r3, [r7, #12]
     8dc:	4a0b      	ldr	r2, [pc, #44]	; (90c <print_thread_id+0x50>)
     8de:	447a      	add	r2, pc
     8e0:	6839      	ldr	r1, [r7, #0]
     8e2:	6878      	ldr	r0, [r7, #4]
     8e4:	f000 f9cc 	bl	c80 <snprintk>
     8e8:	4603      	mov	r3, r0
     8ea:	e00a      	b.n	902 <print_thread_id+0x46>
/home/aom1/Work/Linux/target/STM32MP1-DK2/bootloader/buildroot/optee-os-custom/lib/libutils/ext/trace.c:71
     8ec:	4b08      	ldr	r3, [pc, #32]	; (910 <print_thread_id+0x54>)
     8ee:	447b      	add	r3, pc
     8f0:	9300      	str	r3, [sp, #0]
     8f2:	68fb      	ldr	r3, [r7, #12]
     8f4:	4a07      	ldr	r2, [pc, #28]	; (914 <print_thread_id+0x58>)
     8f6:	447a      	add	r2, pc
     8f8:	6839      	ldr	r1, [r7, #0]
     8fa:	6878      	ldr	r0, [r7, #4]
     8fc:	f000 f9c0 	bl	c80 <snprintk>
     900:	4603      	mov	r3, r0
/home/aom1/Work/Linux/target/STM32MP1-DK2/bootloader/buildroot/optee-os-custom/lib/libutils/ext/trace.c:72
     902:	4618      	mov	r0, r3
     904:	3710      	adds	r7, #16
     906:	46bd      	mov	sp, r7
     908:	bd80      	pop	{r7, pc}
     90a:	bf00      	nop
     90c:	00011f82 	.word	0x00011f82
     910:	00011f82 	.word	0x00011f82
     914:	00011f72 	.word	0x00011f72

00000918 <print_core_id>:
print_core_id():
/home/aom1/Work/Linux/target/STM32MP1-DK2/bootloader/buildroot/optee-os-custom/lib/libutils/ext/trace.c:96
     918:	b480      	push	{r7}
     91a:	b083      	sub	sp, #12
     91c:	af00      	add	r7, sp, #0
     91e:	6078      	str	r0, [r7, #4]
     920:	6039      	str	r1, [r7, #0]
/home/aom1/Work/Linux/target/STM32MP1-DK2/bootloader/buildroot/optee-os-custom/lib/libutils/ext/trace.c:97
     922:	2300      	movs	r3, #0
/home/aom1/Work/Linux/target/STM32MP1-DK2/bootloader/buildroot/optee-os-custom/lib/libutils/ext/trace.c:98
     924:	4618      	mov	r0, r3
     926:	370c      	adds	r7, #12
     928:	46bd      	mov	sp, r7
     92a:	f85d 7b04 	ldr.w	r7, [sp], #4
     92e:	4770      	bx	lr

00000930 <trace_printf>:
trace_printf():
/home/aom1/Work/Linux/target/STM32MP1-DK2/bootloader/buildroot/optee-os-custom/lib/libutils/ext/trace.c:104
     930:	b580      	push	{r7, lr}
     932:	b088      	sub	sp, #32
     934:	af02      	add	r7, sp, #8
     936:	60f8      	str	r0, [r7, #12]
     938:	60b9      	str	r1, [r7, #8]
     93a:	607a      	str	r2, [r7, #4]
     93c:	70fb      	strb	r3, [r7, #3]
/home/aom1/Work/Linux/target/STM32MP1-DK2/bootloader/buildroot/optee-os-custom/lib/libutils/ext/trace.c:107
     93e:	f107 0324 	add.w	r3, r7, #36	; 0x24
     942:	617b      	str	r3, [r7, #20]
/home/aom1/Work/Linux/target/STM32MP1-DK2/bootloader/buildroot/optee-os-custom/lib/libutils/ext/trace.c:108
     944:	78fa      	ldrb	r2, [r7, #3]
     946:	697b      	ldr	r3, [r7, #20]
     948:	9301      	str	r3, [sp, #4]
     94a:	6a3b      	ldr	r3, [r7, #32]
     94c:	9300      	str	r3, [sp, #0]
     94e:	4613      	mov	r3, r2
     950:	687a      	ldr	r2, [r7, #4]
     952:	68b9      	ldr	r1, [r7, #8]
     954:	68f8      	ldr	r0, [r7, #12]
     956:	f000 f804 	bl	962 <trace_vprintf>
/home/aom1/Work/Linux/target/STM32MP1-DK2/bootloader/buildroot/optee-os-custom/lib/libutils/ext/trace.c:110
     95a:	bf00      	nop
     95c:	3718      	adds	r7, #24
     95e:	46bd      	mov	sp, r7
     960:	bd80      	pop	{r7, pc}

00000962 <trace_vprintf>:
trace_vprintf():
/home/aom1/Work/Linux/target/STM32MP1-DK2/bootloader/buildroot/optee-os-custom/lib/libutils/ext/trace.c:113
     962:	b590      	push	{r4, r7, lr}
     964:	b0c9      	sub	sp, #292	; 0x124
     966:	af02      	add	r7, sp, #8
     968:	f507 748c 	add.w	r4, r7, #280	; 0x118
     96c:	f5a4 7486 	sub.w	r4, r4, #268	; 0x10c
     970:	6020      	str	r0, [r4, #0]
     972:	f507 708c 	add.w	r0, r7, #280	; 0x118
     976:	f5a0 7088 	sub.w	r0, r0, #272	; 0x110
     97a:	6001      	str	r1, [r0, #0]
     97c:	f507 718c 	add.w	r1, r7, #280	; 0x118
     980:	f5a1 718a 	sub.w	r1, r1, #276	; 0x114
     984:	600a      	str	r2, [r1, #0]
     986:	461a      	mov	r2, r3
     988:	f507 738c 	add.w	r3, r7, #280	; 0x118
     98c:	f2a3 1315 	subw	r3, r3, #277	; 0x115
     990:	701a      	strb	r2, [r3, #0]
     992:	4ca5      	ldr	r4, [pc, #660]	; (c28 <trace_vprintf+0x2c6>)
     994:	447c      	add	r4, pc
/home/aom1/Work/Linux/target/STM32MP1-DK2/bootloader/buildroot/optee-os-custom/lib/libutils/ext/trace.c:115
     996:	2300      	movs	r3, #0
     998:	f8c7 3114 	str.w	r3, [r7, #276]	; 0x114
/home/aom1/Work/Linux/target/STM32MP1-DK2/bootloader/buildroot/optee-os-custom/lib/libutils/ext/trace.c:118
     99c:	f507 738c 	add.w	r3, r7, #280	; 0x118
     9a0:	f2a3 1315 	subw	r3, r3, #277	; 0x115
     9a4:	781b      	ldrb	r3, [r3, #0]
     9a6:	2b00      	cmp	r3, #0
     9a8:	d00a      	beq.n	9c0 <trace_vprintf+0x5e>
/home/aom1/Work/Linux/target/STM32MP1-DK2/bootloader/buildroot/optee-os-custom/lib/libutils/ext/trace.c:118 (discriminator 1)
     9aa:	4ba0      	ldr	r3, [pc, #640]	; (c2c <trace_vprintf+0x2ca>)
     9ac:	58e3      	ldr	r3, [r4, r3]
     9ae:	681b      	ldr	r3, [r3, #0]
     9b0:	f507 728c 	add.w	r2, r7, #280	; 0x118
     9b4:	f5a2 728a 	sub.w	r2, r2, #276	; 0x114
     9b8:	6812      	ldr	r2, [r2, #0]
     9ba:	429a      	cmp	r2, r3
     9bc:	f300 8123 	bgt.w	c06 <trace_vprintf+0x2a4>
/home/aom1/Work/Linux/target/STM32MP1-DK2/bootloader/buildroot/optee-os-custom/lib/libutils/ext/trace.c:123
     9c0:	f507 738c 	add.w	r3, r7, #280	; 0x118
     9c4:	f2a3 1315 	subw	r3, r3, #277	; 0x115
     9c8:	781a      	ldrb	r2, [r3, #0]
     9ca:	f507 738c 	add.w	r3, r7, #280	; 0x118
     9ce:	f5a3 738a 	sub.w	r3, r3, #276	; 0x114
     9d2:	4611      	mov	r1, r2
     9d4:	6818      	ldr	r0, [r3, #0]
     9d6:	f7ff ff4b 	bl	870 <trace_level_to_string>
     9da:	4603      	mov	r3, r0
/home/aom1/Work/Linux/target/STM32MP1-DK2/bootloader/buildroot/optee-os-custom/lib/libutils/ext/trace.c:122
     9dc:	f107 0010 	add.w	r0, r7, #16
     9e0:	4a93      	ldr	r2, [pc, #588]	; (c30 <trace_vprintf+0x2ce>)
     9e2:	447a      	add	r2, pc
     9e4:	f44f 7180 	mov.w	r1, #256	; 0x100
     9e8:	f000 f94a 	bl	c80 <snprintk>
     9ec:	f8c7 0110 	str.w	r0, [r7, #272]	; 0x110
/home/aom1/Work/Linux/target/STM32MP1-DK2/bootloader/buildroot/optee-os-custom/lib/libutils/ext/trace.c:124
     9f0:	f8d7 3110 	ldr.w	r3, [r7, #272]	; 0x110
     9f4:	2b00      	cmp	r3, #0
     9f6:	f2c0 8108 	blt.w	c0a <trace_vprintf+0x2a8>
/home/aom1/Work/Linux/target/STM32MP1-DK2/bootloader/buildroot/optee-os-custom/lib/libutils/ext/trace.c:126
     9fa:	f8d7 3110 	ldr.w	r3, [r7, #272]	; 0x110
     9fe:	f8d7 2114 	ldr.w	r2, [r7, #276]	; 0x114
     a02:	4413      	add	r3, r2
     a04:	f8c7 3114 	str.w	r3, [r7, #276]	; 0x114
/home/aom1/Work/Linux/target/STM32MP1-DK2/bootloader/buildroot/optee-os-custom/lib/libutils/ext/trace.c:129
     a08:	f107 0210 	add.w	r2, r7, #16
     a0c:	f8d7 3114 	ldr.w	r3, [r7, #276]	; 0x114
     a10:	18d0      	adds	r0, r2, r3
     a12:	f8d7 3114 	ldr.w	r3, [r7, #276]	; 0x114
     a16:	f5c3 7180 	rsb	r1, r3, #256	; 0x100
     a1a:	4b86      	ldr	r3, [pc, #536]	; (c34 <trace_vprintf+0x2d2>)
     a1c:	58e3      	ldr	r3, [r4, r3]
     a1e:	4a86      	ldr	r2, [pc, #536]	; (c38 <trace_vprintf+0x2d6>)
     a20:	447a      	add	r2, pc
     a22:	f000 f92d 	bl	c80 <snprintk>
     a26:	f8c7 0110 	str.w	r0, [r7, #272]	; 0x110
/home/aom1/Work/Linux/target/STM32MP1-DK2/bootloader/buildroot/optee-os-custom/lib/libutils/ext/trace.c:131
     a2a:	f8d7 3110 	ldr.w	r3, [r7, #272]	; 0x110
     a2e:	2b00      	cmp	r3, #0
     a30:	f2c0 80ed 	blt.w	c0e <trace_vprintf+0x2ac>
/home/aom1/Work/Linux/target/STM32MP1-DK2/bootloader/buildroot/optee-os-custom/lib/libutils/ext/trace.c:133
     a34:	f8d7 3110 	ldr.w	r3, [r7, #272]	; 0x110
     a38:	f8d7 2114 	ldr.w	r2, [r7, #276]	; 0x114
     a3c:	4413      	add	r3, r2
     a3e:	f8c7 3114 	str.w	r3, [r7, #276]	; 0x114
/home/aom1/Work/Linux/target/STM32MP1-DK2/bootloader/buildroot/optee-os-custom/lib/libutils/ext/trace.c:135
     a42:	f507 738c 	add.w	r3, r7, #280	; 0x118
     a46:	f2a3 1315 	subw	r3, r3, #277	; 0x115
     a4a:	781b      	ldrb	r3, [r3, #0]
     a4c:	2b00      	cmp	r3, #0
     a4e:	d06e      	beq.n	b2e <trace_vprintf+0x1cc>
/home/aom1/Work/Linux/target/STM32MP1-DK2/bootloader/buildroot/optee-os-custom/lib/libutils/ext/trace.c:135 (discriminator 1)
     a50:	f507 738c 	add.w	r3, r7, #280	; 0x118
     a54:	f5a3 738a 	sub.w	r3, r3, #276	; 0x114
     a58:	221a      	movs	r2, #26
     a5a:	681b      	ldr	r3, [r3, #0]
     a5c:	fa22 f303 	lsr.w	r3, r2, r3
     a60:	f003 0301 	and.w	r3, r3, #1
     a64:	2b00      	cmp	r3, #0
     a66:	d062      	beq.n	b2e <trace_vprintf+0x1cc>
/home/aom1/Work/Linux/target/STM32MP1-DK2/bootloader/buildroot/optee-os-custom/lib/libutils/ext/trace.c:137
     a68:	f107 0210 	add.w	r2, r7, #16
     a6c:	f8d7 3114 	ldr.w	r3, [r7, #276]	; 0x114
     a70:	441a      	add	r2, r3
     a72:	f8d7 3114 	ldr.w	r3, [r7, #276]	; 0x114
     a76:	f5c3 7380 	rsb	r3, r3, #256	; 0x100
     a7a:	4619      	mov	r1, r3
     a7c:	4610      	mov	r0, r2
     a7e:	f7ff ff4b 	bl	918 <print_core_id>
     a82:	f8c7 0110 	str.w	r0, [r7, #272]	; 0x110
/home/aom1/Work/Linux/target/STM32MP1-DK2/bootloader/buildroot/optee-os-custom/lib/libutils/ext/trace.c:138
     a86:	f8d7 3110 	ldr.w	r3, [r7, #272]	; 0x110
     a8a:	2b00      	cmp	r3, #0
     a8c:	f2c0 80c1 	blt.w	c12 <trace_vprintf+0x2b0>
/home/aom1/Work/Linux/target/STM32MP1-DK2/bootloader/buildroot/optee-os-custom/lib/libutils/ext/trace.c:140
     a90:	f8d7 3110 	ldr.w	r3, [r7, #272]	; 0x110
     a94:	f8d7 2114 	ldr.w	r2, [r7, #276]	; 0x114
     a98:	4413      	add	r3, r2
     a9a:	f8c7 3114 	str.w	r3, [r7, #276]	; 0x114
/home/aom1/Work/Linux/target/STM32MP1-DK2/bootloader/buildroot/optee-os-custom/lib/libutils/ext/trace.c:143
     a9e:	f107 0210 	add.w	r2, r7, #16
     aa2:	f8d7 3114 	ldr.w	r3, [r7, #276]	; 0x114
     aa6:	441a      	add	r2, r3
     aa8:	f8d7 3114 	ldr.w	r3, [r7, #276]	; 0x114
     aac:	f5c3 7380 	rsb	r3, r3, #256	; 0x100
     ab0:	4619      	mov	r1, r3
     ab2:	4610      	mov	r0, r2
     ab4:	f7ff ff02 	bl	8bc <print_thread_id>
     ab8:	f8c7 0110 	str.w	r0, [r7, #272]	; 0x110
/home/aom1/Work/Linux/target/STM32MP1-DK2/bootloader/buildroot/optee-os-custom/lib/libutils/ext/trace.c:144
     abc:	f8d7 3110 	ldr.w	r3, [r7, #272]	; 0x110
     ac0:	2b00      	cmp	r3, #0
     ac2:	f2c0 80a8 	blt.w	c16 <trace_vprintf+0x2b4>
/home/aom1/Work/Linux/target/STM32MP1-DK2/bootloader/buildroot/optee-os-custom/lib/libutils/ext/trace.c:146
     ac6:	f8d7 3110 	ldr.w	r3, [r7, #272]	; 0x110
     aca:	f8d7 2114 	ldr.w	r2, [r7, #276]	; 0x114
     ace:	4413      	add	r3, r2
     ad0:	f8c7 3114 	str.w	r3, [r7, #276]	; 0x114
/home/aom1/Work/Linux/target/STM32MP1-DK2/bootloader/buildroot/optee-os-custom/lib/libutils/ext/trace.c:148
     ad4:	f507 738c 	add.w	r3, r7, #280	; 0x118
     ad8:	f5a3 7386 	sub.w	r3, r3, #268	; 0x10c
     adc:	681b      	ldr	r3, [r3, #0]
     ade:	2b00      	cmp	r3, #0
     ae0:	d03d      	beq.n	b5e <trace_vprintf+0x1fc>
/home/aom1/Work/Linux/target/STM32MP1-DK2/bootloader/buildroot/optee-os-custom/lib/libutils/ext/trace.c:149
     ae2:	f107 0210 	add.w	r2, r7, #16
     ae6:	f8d7 3114 	ldr.w	r3, [r7, #276]	; 0x114
     aea:	18d0      	adds	r0, r2, r3
     aec:	f8d7 3114 	ldr.w	r3, [r7, #276]	; 0x114
     af0:	f5c3 7180 	rsb	r1, r3, #256	; 0x100
     af4:	f507 738c 	add.w	r3, r7, #280	; 0x118
     af8:	f5a3 7386 	sub.w	r3, r3, #268	; 0x10c
     afc:	f507 728c 	add.w	r2, r7, #280	; 0x118
     b00:	f5a2 7288 	sub.w	r2, r2, #272	; 0x110
     b04:	6812      	ldr	r2, [r2, #0]
     b06:	9200      	str	r2, [sp, #0]
     b08:	681b      	ldr	r3, [r3, #0]
     b0a:	4a4c      	ldr	r2, [pc, #304]	; (c3c <trace_vprintf+0x2da>)
     b0c:	447a      	add	r2, pc
     b0e:	f000 f8b7 	bl	c80 <snprintk>
     b12:	f8c7 0110 	str.w	r0, [r7, #272]	; 0x110
/home/aom1/Work/Linux/target/STM32MP1-DK2/bootloader/buildroot/optee-os-custom/lib/libutils/ext/trace.c:151
     b16:	f8d7 3110 	ldr.w	r3, [r7, #272]	; 0x110
     b1a:	2b00      	cmp	r3, #0
     b1c:	db7d      	blt.n	c1a <trace_vprintf+0x2b8>
/home/aom1/Work/Linux/target/STM32MP1-DK2/bootloader/buildroot/optee-os-custom/lib/libutils/ext/trace.c:153
     b1e:	f8d7 3110 	ldr.w	r3, [r7, #272]	; 0x110
     b22:	f8d7 2114 	ldr.w	r2, [r7, #276]	; 0x114
     b26:	4413      	add	r3, r2
     b28:	f8c7 3114 	str.w	r3, [r7, #276]	; 0x114
/home/aom1/Work/Linux/target/STM32MP1-DK2/bootloader/buildroot/optee-os-custom/lib/libutils/ext/trace.c:148
     b2c:	e017      	b.n	b5e <trace_vprintf+0x1fc>
/home/aom1/Work/Linux/target/STM32MP1-DK2/bootloader/buildroot/optee-os-custom/lib/libutils/ext/trace.c:157
     b2e:	f8d7 3114 	ldr.w	r3, [r7, #276]	; 0x114
     b32:	2bfe      	cmp	r3, #254	; 0xfe
     b34:	d873      	bhi.n	c1e <trace_vprintf+0x2bc>
/home/aom1/Work/Linux/target/STM32MP1-DK2/bootloader/buildroot/optee-os-custom/lib/libutils/ext/trace.c:159
     b36:	f8d7 3114 	ldr.w	r3, [r7, #276]	; 0x114
     b3a:	1c5a      	adds	r2, r3, #1
     b3c:	f8c7 2114 	str.w	r2, [r7, #276]	; 0x114
     b40:	f507 728c 	add.w	r2, r7, #280	; 0x118
     b44:	f5a2 7284 	sub.w	r2, r2, #264	; 0x108
     b48:	2120      	movs	r1, #32
     b4a:	54d1      	strb	r1, [r2, r3]
/home/aom1/Work/Linux/target/STM32MP1-DK2/bootloader/buildroot/optee-os-custom/lib/libutils/ext/trace.c:160
     b4c:	f507 738c 	add.w	r3, r7, #280	; 0x118
     b50:	f5a3 7284 	sub.w	r2, r3, #264	; 0x108
     b54:	f8d7 3114 	ldr.w	r3, [r7, #276]	; 0x114
     b58:	4413      	add	r3, r2
     b5a:	2200      	movs	r2, #0
     b5c:	701a      	strb	r2, [r3, #0]
/home/aom1/Work/Linux/target/STM32MP1-DK2/bootloader/buildroot/optee-os-custom/lib/libutils/ext/trace.c:163
     b5e:	f107 0210 	add.w	r2, r7, #16
     b62:	f8d7 3114 	ldr.w	r3, [r7, #276]	; 0x114
     b66:	18d0      	adds	r0, r2, r3
     b68:	f8d7 3114 	ldr.w	r3, [r7, #276]	; 0x114
     b6c:	f5c3 7180 	rsb	r1, r3, #256	; 0x100
     b70:	f8d7 312c 	ldr.w	r3, [r7, #300]	; 0x12c
     b74:	f8d7 2128 	ldr.w	r2, [r7, #296]	; 0x128
     b78:	f000 f89a 	bl	cb0 <vsnprintk>
     b7c:	f8c7 0110 	str.w	r0, [r7, #272]	; 0x110
/home/aom1/Work/Linux/target/STM32MP1-DK2/bootloader/buildroot/optee-os-custom/lib/libutils/ext/trace.c:164
     b80:	f8d7 3110 	ldr.w	r3, [r7, #272]	; 0x110
     b84:	2b00      	cmp	r3, #0
     b86:	dd06      	ble.n	b96 <trace_vprintf+0x234>
/home/aom1/Work/Linux/target/STM32MP1-DK2/bootloader/buildroot/optee-os-custom/lib/libutils/ext/trace.c:165
     b88:	f8d7 3110 	ldr.w	r3, [r7, #272]	; 0x110
     b8c:	f8d7 2114 	ldr.w	r2, [r7, #276]	; 0x114
     b90:	4413      	add	r3, r2
     b92:	f8c7 3114 	str.w	r3, [r7, #276]	; 0x114
/home/aom1/Work/Linux/target/STM32MP1-DK2/bootloader/buildroot/optee-os-custom/lib/libutils/ext/trace.c:167
     b96:	f8d7 3114 	ldr.w	r3, [r7, #276]	; 0x114
     b9a:	2bfe      	cmp	r3, #254	; 0xfe
     b9c:	d902      	bls.n	ba4 <trace_vprintf+0x242>
/home/aom1/Work/Linux/target/STM32MP1-DK2/bootloader/buildroot/optee-os-custom/lib/libutils/ext/trace.c:168
     b9e:	23fe      	movs	r3, #254	; 0xfe
     ba0:	f8c7 3114 	str.w	r3, [r7, #276]	; 0x114
/home/aom1/Work/Linux/target/STM32MP1-DK2/bootloader/buildroot/optee-os-custom/lib/libutils/ext/trace.c:170
     ba4:	f507 738c 	add.w	r3, r7, #280	; 0x118
     ba8:	f5a3 7284 	sub.w	r2, r3, #264	; 0x108
     bac:	f8d7 3114 	ldr.w	r3, [r7, #276]	; 0x114
     bb0:	4413      	add	r3, r2
     bb2:	220a      	movs	r2, #10
     bb4:	701a      	strb	r2, [r3, #0]
/home/aom1/Work/Linux/target/STM32MP1-DK2/bootloader/buildroot/optee-os-custom/lib/libutils/ext/trace.c:171
     bb6:	e004      	b.n	bc2 <trace_vprintf+0x260>
/home/aom1/Work/Linux/target/STM32MP1-DK2/bootloader/buildroot/optee-os-custom/lib/libutils/ext/trace.c:172
     bb8:	f8d7 3114 	ldr.w	r3, [r7, #276]	; 0x114
     bbc:	3b01      	subs	r3, #1
     bbe:	f8c7 3114 	str.w	r3, [r7, #276]	; 0x114
/home/aom1/Work/Linux/target/STM32MP1-DK2/bootloader/buildroot/optee-os-custom/lib/libutils/ext/trace.c:171
     bc2:	f8d7 3114 	ldr.w	r3, [r7, #276]	; 0x114
     bc6:	2b00      	cmp	r3, #0
     bc8:	d009      	beq.n	bde <trace_vprintf+0x27c>
/home/aom1/Work/Linux/target/STM32MP1-DK2/bootloader/buildroot/optee-os-custom/lib/libutils/ext/trace.c:171 (discriminator 1)
     bca:	f507 738c 	add.w	r3, r7, #280	; 0x118
     bce:	f5a3 7284 	sub.w	r2, r3, #264	; 0x108
     bd2:	f8d7 3114 	ldr.w	r3, [r7, #276]	; 0x114
     bd6:	4413      	add	r3, r2
     bd8:	781b      	ldrb	r3, [r3, #0]
     bda:	2b0a      	cmp	r3, #10
     bdc:	d0ec      	beq.n	bb8 <trace_vprintf+0x256>
/home/aom1/Work/Linux/target/STM32MP1-DK2/bootloader/buildroot/optee-os-custom/lib/libutils/ext/trace.c:173
     bde:	f8d7 3114 	ldr.w	r3, [r7, #276]	; 0x114
     be2:	3301      	adds	r3, #1
     be4:	f8c7 3114 	str.w	r3, [r7, #276]	; 0x114
/home/aom1/Work/Linux/target/STM32MP1-DK2/bootloader/buildroot/optee-os-custom/lib/libutils/ext/trace.c:174
     be8:	f8d7 3114 	ldr.w	r3, [r7, #276]	; 0x114
     bec:	3301      	adds	r3, #1
     bee:	f507 728c 	add.w	r2, r7, #280	; 0x118
     bf2:	f5a2 7284 	sub.w	r2, r2, #264	; 0x108
     bf6:	2100      	movs	r1, #0
     bf8:	54d1      	strb	r1, [r2, r3]
/home/aom1/Work/Linux/target/STM32MP1-DK2/bootloader/buildroot/optee-os-custom/lib/libutils/ext/trace.c:176
     bfa:	f107 0310 	add.w	r3, r7, #16
     bfe:	4618      	mov	r0, r3
     c00:	f001 f872 	bl	1ce8 <trace_ext_puts>
     c04:	e00c      	b.n	c20 <trace_vprintf+0x2be>
/home/aom1/Work/Linux/target/STM32MP1-DK2/bootloader/buildroot/optee-os-custom/lib/libutils/ext/trace.c:119
     c06:	bf00      	nop
     c08:	e00a      	b.n	c20 <trace_vprintf+0x2be>
/home/aom1/Work/Linux/target/STM32MP1-DK2/bootloader/buildroot/optee-os-custom/lib/libutils/ext/trace.c:125
     c0a:	bf00      	nop
     c0c:	e008      	b.n	c20 <trace_vprintf+0x2be>
/home/aom1/Work/Linux/target/STM32MP1-DK2/bootloader/buildroot/optee-os-custom/lib/libutils/ext/trace.c:132
     c0e:	bf00      	nop
     c10:	e006      	b.n	c20 <trace_vprintf+0x2be>
/home/aom1/Work/Linux/target/STM32MP1-DK2/bootloader/buildroot/optee-os-custom/lib/libutils/ext/trace.c:139
     c12:	bf00      	nop
     c14:	e004      	b.n	c20 <trace_vprintf+0x2be>
/home/aom1/Work/Linux/target/STM32MP1-DK2/bootloader/buildroot/optee-os-custom/lib/libutils/ext/trace.c:145
     c16:	bf00      	nop
     c18:	e002      	b.n	c20 <trace_vprintf+0x2be>
/home/aom1/Work/Linux/target/STM32MP1-DK2/bootloader/buildroot/optee-os-custom/lib/libutils/ext/trace.c:152
     c1a:	bf00      	nop
     c1c:	e000      	b.n	c20 <trace_vprintf+0x2be>
/home/aom1/Work/Linux/target/STM32MP1-DK2/bootloader/buildroot/optee-os-custom/lib/libutils/ext/trace.c:158
     c1e:	bf00      	nop
/home/aom1/Work/Linux/target/STM32MP1-DK2/bootloader/buildroot/optee-os-custom/lib/libutils/ext/trace.c:177
     c20:	f507 778e 	add.w	r7, r7, #284	; 0x11c
     c24:	46bd      	mov	sp, r7
     c26:	bd90      	pop	{r4, r7, pc}
     c28:	000136f0 	.word	0x000136f0
     c2c:	00000014 	.word	0x00000014
     c30:	00011e92 	.word	0x00011e92
     c34:	0000001c 	.word	0x0000001c
     c38:	00011e58 	.word	0x00011e58
     c3c:	00011d70 	.word	0x00011d70

00000c40 <dhex_dump>:
dhex_dump():
/home/aom1/Work/Linux/target/STM32MP1-DK2/bootloader/buildroot/optee-os-custom/lib/libutils/ext/trace.c:286
     c40:	b480      	push	{r7}
     c42:	b085      	sub	sp, #20
     c44:	af00      	add	r7, sp, #0
     c46:	60f8      	str	r0, [r7, #12]
     c48:	60b9      	str	r1, [r7, #8]
     c4a:	607a      	str	r2, [r7, #4]
     c4c:	603b      	str	r3, [r7, #0]
/home/aom1/Work/Linux/target/STM32MP1-DK2/bootloader/buildroot/optee-os-custom/lib/libutils/ext/trace.c:287
     c4e:	bf00      	nop
     c50:	3714      	adds	r7, #20
     c52:	46bd      	mov	sp, r7
     c54:	f85d 7b04 	ldr.w	r7, [sp], #4
     c58:	4770      	bx	lr
     c5a:	bf00      	nop

00000c5c <memzero_explicit>:
memzero_explicit():
/home/aom1/Work/Linux/target/STM32MP1-DK2/bootloader/buildroot/optee-os-custom/lib/libutils/ext/memzero_explicit.c:21
     c5c:	b580      	push	{r7, lr}
     c5e:	b082      	sub	sp, #8
     c60:	af00      	add	r7, sp, #0
     c62:	6078      	str	r0, [r7, #4]
     c64:	6039      	str	r1, [r7, #0]
/home/aom1/Work/Linux/target/STM32MP1-DK2/bootloader/buildroot/optee-os-custom/lib/libutils/ext/memzero_explicit.c:22
     c66:	4b05      	ldr	r3, [pc, #20]	; (c7c <memzero_explicit+0x20>)
     c68:	447b      	add	r3, pc
     c6a:	681b      	ldr	r3, [r3, #0]
     c6c:	683a      	ldr	r2, [r7, #0]
     c6e:	2100      	movs	r1, #0
     c70:	6878      	ldr	r0, [r7, #4]
     c72:	4798      	blx	r3
/home/aom1/Work/Linux/target/STM32MP1-DK2/bootloader/buildroot/optee-os-custom/lib/libutils/ext/memzero_explicit.c:23
     c74:	bf00      	nop
     c76:	3708      	adds	r7, #8
     c78:	46bd      	mov	sp, r7
     c7a:	bd80      	pop	{r7, pc}
     c7c:	00013648 	.word	0x00013648

00000c80 <snprintk>:
snprintk():
/home/aom1/Work/Linux/target/STM32MP1-DK2/bootloader/buildroot/optee-os-custom/lib/libutils/ext/snprintk.c:113
     c80:	b40c      	push	{r2, r3}
     c82:	b580      	push	{r7, lr}
     c84:	b084      	sub	sp, #16
     c86:	af00      	add	r7, sp, #0
     c88:	6078      	str	r0, [r7, #4]
     c8a:	6039      	str	r1, [r7, #0]
/home/aom1/Work/Linux/target/STM32MP1-DK2/bootloader/buildroot/optee-os-custom/lib/libutils/ext/snprintk.c:117
     c8c:	f107 031c 	add.w	r3, r7, #28
     c90:	60bb      	str	r3, [r7, #8]
/home/aom1/Work/Linux/target/STM32MP1-DK2/bootloader/buildroot/optee-os-custom/lib/libutils/ext/snprintk.c:118
     c92:	68bb      	ldr	r3, [r7, #8]
     c94:	69ba      	ldr	r2, [r7, #24]
     c96:	6839      	ldr	r1, [r7, #0]
     c98:	6878      	ldr	r0, [r7, #4]
     c9a:	f000 f809 	bl	cb0 <vsnprintk>
     c9e:	60f8      	str	r0, [r7, #12]
/home/aom1/Work/Linux/target/STM32MP1-DK2/bootloader/buildroot/optee-os-custom/lib/libutils/ext/snprintk.c:121
     ca0:	68fb      	ldr	r3, [r7, #12]
/home/aom1/Work/Linux/target/STM32MP1-DK2/bootloader/buildroot/optee-os-custom/lib/libutils/ext/snprintk.c:122
     ca2:	4618      	mov	r0, r3
     ca4:	3710      	adds	r7, #16
     ca6:	46bd      	mov	sp, r7
     ca8:	e8bd 4080 	ldmia.w	sp!, {r7, lr}
     cac:	b002      	add	sp, #8
     cae:	4770      	bx	lr

00000cb0 <vsnprintk>:
vsnprintk():
/home/aom1/Work/Linux/target/STM32MP1-DK2/bootloader/buildroot/optee-os-custom/lib/libutils/ext/snprintk.c:130
     cb0:	b580      	push	{r7, lr}
     cb2:	b086      	sub	sp, #24
     cb4:	af02      	add	r7, sp, #8
     cb6:	60f8      	str	r0, [r7, #12]
     cb8:	60b9      	str	r1, [r7, #8]
     cba:	607a      	str	r2, [r7, #4]
     cbc:	603b      	str	r3, [r7, #0]
/home/aom1/Work/Linux/target/STM32MP1-DK2/bootloader/buildroot/optee-os-custom/lib/libutils/ext/snprintk.c:131
     cbe:	2301      	movs	r3, #1
     cc0:	9300      	str	r3, [sp, #0]
     cc2:	683b      	ldr	r3, [r7, #0]
     cc4:	687a      	ldr	r2, [r7, #4]
     cc6:	68b9      	ldr	r1, [r7, #8]
     cc8:	68f8      	ldr	r0, [r7, #12]
     cca:	f000 f805 	bl	cd8 <__vsnprintf>
     cce:	4603      	mov	r3, r0
/home/aom1/Work/Linux/target/STM32MP1-DK2/bootloader/buildroot/optee-os-custom/lib/libutils/ext/snprintk.c:132
     cd0:	4618      	mov	r0, r3
     cd2:	3710      	adds	r7, #16
     cd4:	46bd      	mov	sp, r7
     cd6:	bd80      	pop	{r7, pc}

00000cd8 <__vsnprintf>:
__vsnprintf():
/home/aom1/Work/Linux/target/STM32MP1-DK2/bootloader/buildroot/optee-os-custom/lib/libutils/ext/snprintk.c:138
     cd8:	b580      	push	{r7, lr}
     cda:	b088      	sub	sp, #32
     cdc:	af02      	add	r7, sp, #8
     cde:	60f8      	str	r0, [r7, #12]
     ce0:	60b9      	str	r1, [r7, #8]
     ce2:	607a      	str	r2, [r7, #4]
     ce4:	603b      	str	r3, [r7, #0]
/home/aom1/Work/Linux/target/STM32MP1-DK2/bootloader/buildroot/optee-os-custom/lib/libutils/ext/snprintk.c:142
     ce6:	68fa      	ldr	r2, [r7, #12]
     ce8:	68bb      	ldr	r3, [r7, #8]
     cea:	4413      	add	r3, r2
     cec:	613b      	str	r3, [r7, #16]
/home/aom1/Work/Linux/target/STM32MP1-DK2/bootloader/buildroot/optee-os-custom/lib/libutils/ext/snprintk.c:143
     cee:	f107 0210 	add.w	r2, r7, #16
     cf2:	f897 3020 	ldrb.w	r3, [r7, #32]
     cf6:	9301      	str	r3, [sp, #4]
     cf8:	683b      	ldr	r3, [r7, #0]
     cfa:	9300      	str	r3, [sp, #0]
     cfc:	68fb      	ldr	r3, [r7, #12]
     cfe:	2108      	movs	r1, #8
     d00:	6878      	ldr	r0, [r7, #4]
     d02:	f000 f875 	bl	df0 <kprintf>
     d06:	6178      	str	r0, [r7, #20]
/home/aom1/Work/Linux/target/STM32MP1-DK2/bootloader/buildroot/optee-os-custom/lib/libutils/ext/snprintk.c:144
     d08:	68fb      	ldr	r3, [r7, #12]
     d0a:	2b00      	cmp	r3, #0
     d0c:	d012      	beq.n	d34 <__vsnprintf+0x5c>
/home/aom1/Work/Linux/target/STM32MP1-DK2/bootloader/buildroot/optee-os-custom/lib/libutils/ext/snprintk.c:144 (discriminator 1)
     d0e:	68bb      	ldr	r3, [r7, #8]
     d10:	2b00      	cmp	r3, #0
     d12:	d00f      	beq.n	d34 <__vsnprintf+0x5c>
/home/aom1/Work/Linux/target/STM32MP1-DK2/bootloader/buildroot/optee-os-custom/lib/libutils/ext/snprintk.c:146
     d14:	697b      	ldr	r3, [r7, #20]
     d16:	68ba      	ldr	r2, [r7, #8]
     d18:	429a      	cmp	r2, r3
     d1a:	d806      	bhi.n	d2a <__vsnprintf+0x52>
/home/aom1/Work/Linux/target/STM32MP1-DK2/bootloader/buildroot/optee-os-custom/lib/libutils/ext/snprintk.c:147
     d1c:	68bb      	ldr	r3, [r7, #8]
     d1e:	3b01      	subs	r3, #1
     d20:	68fa      	ldr	r2, [r7, #12]
     d22:	4413      	add	r3, r2
     d24:	2200      	movs	r2, #0
     d26:	701a      	strb	r2, [r3, #0]
     d28:	e004      	b.n	d34 <__vsnprintf+0x5c>
/home/aom1/Work/Linux/target/STM32MP1-DK2/bootloader/buildroot/optee-os-custom/lib/libutils/ext/snprintk.c:149
     d2a:	697b      	ldr	r3, [r7, #20]
     d2c:	68fa      	ldr	r2, [r7, #12]
     d2e:	4413      	add	r3, r2
     d30:	2200      	movs	r2, #0
     d32:	701a      	strb	r2, [r3, #0]
/home/aom1/Work/Linux/target/STM32MP1-DK2/bootloader/buildroot/optee-os-custom/lib/libutils/ext/snprintk.c:151
     d34:	697b      	ldr	r3, [r7, #20]
/home/aom1/Work/Linux/target/STM32MP1-DK2/bootloader/buildroot/optee-os-custom/lib/libutils/ext/snprintk.c:152
     d36:	4618      	mov	r0, r3
     d38:	3718      	adds	r7, #24
     d3a:	46bd      	mov	sp, r7
     d3c:	bd80      	pop	{r7, pc}

00000d3e <__vsprintf>:
__vsprintf():
/home/aom1/Work/Linux/target/STM32MP1-DK2/bootloader/buildroot/optee-os-custom/lib/libutils/ext/snprintk.c:155
     d3e:	b580      	push	{r7, lr}
     d40:	b086      	sub	sp, #24
     d42:	af02      	add	r7, sp, #8
     d44:	60f8      	str	r0, [r7, #12]
     d46:	60b9      	str	r1, [r7, #8]
     d48:	607a      	str	r2, [r7, #4]
/home/aom1/Work/Linux/target/STM32MP1-DK2/bootloader/buildroot/optee-os-custom/lib/libutils/ext/snprintk.c:156
     d4a:	2300      	movs	r3, #0
     d4c:	9301      	str	r3, [sp, #4]
     d4e:	687b      	ldr	r3, [r7, #4]
     d50:	9300      	str	r3, [sp, #0]
     d52:	68fb      	ldr	r3, [r7, #12]
     d54:	2200      	movs	r2, #0
     d56:	2108      	movs	r1, #8
     d58:	68b8      	ldr	r0, [r7, #8]
     d5a:	f000 f849 	bl	df0 <kprintf>
     d5e:	4603      	mov	r3, r0
/home/aom1/Work/Linux/target/STM32MP1-DK2/bootloader/buildroot/optee-os-custom/lib/libutils/ext/snprintk.c:157
     d60:	4618      	mov	r0, r3
     d62:	3710      	adds	r7, #16
     d64:	46bd      	mov	sp, r7
     d66:	bd80      	pop	{r7, pc}

00000d68 <uuid2str>:
uuid2str():
/home/aom1/Work/Linux/target/STM32MP1-DK2/bootloader/buildroot/optee-os-custom/lib/libutils/ext/snprintk.c:221
     d68:	b5f0      	push	{r4, r5, r6, r7, lr}
     d6a:	b095      	sub	sp, #84	; 0x54
     d6c:	af0a      	add	r7, sp, #40	; 0x28
     d6e:	61f8      	str	r0, [r7, #28]
     d70:	61b9      	str	r1, [r7, #24]
     d72:	617a      	str	r2, [r7, #20]
/home/aom1/Work/Linux/target/STM32MP1-DK2/bootloader/buildroot/optee-os-custom/lib/libutils/ext/snprintk.c:227
     d74:	697b      	ldr	r3, [r7, #20]
     d76:	627b      	str	r3, [r7, #36]	; 0x24
/home/aom1/Work/Linux/target/STM32MP1-DK2/bootloader/buildroot/optee-os-custom/lib/libutils/ext/snprintk.c:229
     d78:	6a7b      	ldr	r3, [r7, #36]	; 0x24
     d7a:	681a      	ldr	r2, [r3, #0]
/home/aom1/Work/Linux/target/STM32MP1-DK2/bootloader/buildroot/optee-os-custom/lib/libutils/ext/snprintk.c:231
     d7c:	6a7b      	ldr	r3, [r7, #36]	; 0x24
     d7e:	889b      	ldrh	r3, [r3, #4]
/home/aom1/Work/Linux/target/STM32MP1-DK2/bootloader/buildroot/optee-os-custom/lib/libutils/ext/snprintk.c:229
     d80:	4619      	mov	r1, r3
/home/aom1/Work/Linux/target/STM32MP1-DK2/bootloader/buildroot/optee-os-custom/lib/libutils/ext/snprintk.c:231
     d82:	6a7b      	ldr	r3, [r7, #36]	; 0x24
     d84:	88db      	ldrh	r3, [r3, #6]
/home/aom1/Work/Linux/target/STM32MP1-DK2/bootloader/buildroot/optee-os-custom/lib/libutils/ext/snprintk.c:229
     d86:	4618      	mov	r0, r3
/home/aom1/Work/Linux/target/STM32MP1-DK2/bootloader/buildroot/optee-os-custom/lib/libutils/ext/snprintk.c:232
     d88:	6a7b      	ldr	r3, [r7, #36]	; 0x24
     d8a:	7a1b      	ldrb	r3, [r3, #8]
/home/aom1/Work/Linux/target/STM32MP1-DK2/bootloader/buildroot/optee-os-custom/lib/libutils/ext/snprintk.c:229
     d8c:	461c      	mov	r4, r3
/home/aom1/Work/Linux/target/STM32MP1-DK2/bootloader/buildroot/optee-os-custom/lib/libutils/ext/snprintk.c:232
     d8e:	6a7b      	ldr	r3, [r7, #36]	; 0x24
     d90:	7a5b      	ldrb	r3, [r3, #9]
/home/aom1/Work/Linux/target/STM32MP1-DK2/bootloader/buildroot/optee-os-custom/lib/libutils/ext/snprintk.c:229
     d92:	461d      	mov	r5, r3
/home/aom1/Work/Linux/target/STM32MP1-DK2/bootloader/buildroot/optee-os-custom/lib/libutils/ext/snprintk.c:233
     d94:	6a7b      	ldr	r3, [r7, #36]	; 0x24
     d96:	7a9b      	ldrb	r3, [r3, #10]
/home/aom1/Work/Linux/target/STM32MP1-DK2/bootloader/buildroot/optee-os-custom/lib/libutils/ext/snprintk.c:229
     d98:	461e      	mov	r6, r3
/home/aom1/Work/Linux/target/STM32MP1-DK2/bootloader/buildroot/optee-os-custom/lib/libutils/ext/snprintk.c:233
     d9a:	6a7b      	ldr	r3, [r7, #36]	; 0x24
     d9c:	7adb      	ldrb	r3, [r3, #11]
/home/aom1/Work/Linux/target/STM32MP1-DK2/bootloader/buildroot/optee-os-custom/lib/libutils/ext/snprintk.c:229
     d9e:	613b      	str	r3, [r7, #16]
/home/aom1/Work/Linux/target/STM32MP1-DK2/bootloader/buildroot/optee-os-custom/lib/libutils/ext/snprintk.c:234
     da0:	6a7b      	ldr	r3, [r7, #36]	; 0x24
     da2:	7b1b      	ldrb	r3, [r3, #12]
/home/aom1/Work/Linux/target/STM32MP1-DK2/bootloader/buildroot/optee-os-custom/lib/libutils/ext/snprintk.c:229
     da4:	60fb      	str	r3, [r7, #12]
/home/aom1/Work/Linux/target/STM32MP1-DK2/bootloader/buildroot/optee-os-custom/lib/libutils/ext/snprintk.c:234
     da6:	6a7b      	ldr	r3, [r7, #36]	; 0x24
     da8:	7b5b      	ldrb	r3, [r3, #13]
/home/aom1/Work/Linux/target/STM32MP1-DK2/bootloader/buildroot/optee-os-custom/lib/libutils/ext/snprintk.c:229
     daa:	60bb      	str	r3, [r7, #8]
/home/aom1/Work/Linux/target/STM32MP1-DK2/bootloader/buildroot/optee-os-custom/lib/libutils/ext/snprintk.c:235
     dac:	6a7b      	ldr	r3, [r7, #36]	; 0x24
     dae:	7b9b      	ldrb	r3, [r3, #14]
/home/aom1/Work/Linux/target/STM32MP1-DK2/bootloader/buildroot/optee-os-custom/lib/libutils/ext/snprintk.c:229
     db0:	607b      	str	r3, [r7, #4]
/home/aom1/Work/Linux/target/STM32MP1-DK2/bootloader/buildroot/optee-os-custom/lib/libutils/ext/snprintk.c:235
     db2:	6a7b      	ldr	r3, [r7, #36]	; 0x24
     db4:	7bdb      	ldrb	r3, [r3, #15]
/home/aom1/Work/Linux/target/STM32MP1-DK2/bootloader/buildroot/optee-os-custom/lib/libutils/ext/snprintk.c:229
     db6:	9309      	str	r3, [sp, #36]	; 0x24
     db8:	687b      	ldr	r3, [r7, #4]
     dba:	9308      	str	r3, [sp, #32]
     dbc:	68bb      	ldr	r3, [r7, #8]
     dbe:	9307      	str	r3, [sp, #28]
     dc0:	68fb      	ldr	r3, [r7, #12]
     dc2:	9306      	str	r3, [sp, #24]
     dc4:	693b      	ldr	r3, [r7, #16]
     dc6:	9305      	str	r3, [sp, #20]
     dc8:	9604      	str	r6, [sp, #16]
     dca:	9503      	str	r5, [sp, #12]
     dcc:	9402      	str	r4, [sp, #8]
     dce:	9001      	str	r0, [sp, #4]
     dd0:	9100      	str	r1, [sp, #0]
     dd2:	4613      	mov	r3, r2
     dd4:	4a05      	ldr	r2, [pc, #20]	; (dec <uuid2str+0x84>)
     dd6:	447a      	add	r2, pc
     dd8:	69b9      	ldr	r1, [r7, #24]
     dda:	69f8      	ldr	r0, [r7, #28]
     ddc:	f7ff ff50 	bl	c80 <snprintk>
     de0:	4603      	mov	r3, r0
/home/aom1/Work/Linux/target/STM32MP1-DK2/bootloader/buildroot/optee-os-custom/lib/libutils/ext/snprintk.c:236
     de2:	4618      	mov	r0, r3
     de4:	372c      	adds	r7, #44	; 0x2c
     de6:	46bd      	mov	sp, r7
     de8:	bdf0      	pop	{r4, r5, r6, r7, pc}
     dea:	bf00      	nop
     dec:	00011ade 	.word	0x00011ade

00000df0 <kprintf>:
kprintf():
/home/aom1/Work/Linux/target/STM32MP1-DK2/bootloader/buildroot/optee-os-custom/lib/libutils/ext/snprintk.c:244
     df0:	e92d 4fb0 	stmdb	sp!, {r4, r5, r7, r8, r9, sl, fp, lr}
     df4:	b0ac      	sub	sp, #176	; 0xb0
     df6:	af00      	add	r7, sp, #0
     df8:	6378      	str	r0, [r7, #52]	; 0x34
     dfa:	6339      	str	r1, [r7, #48]	; 0x30
     dfc:	62fa      	str	r2, [r7, #44]	; 0x2c
     dfe:	62bb      	str	r3, [r7, #40]	; 0x28
/home/aom1/Work/Linux/target/STM32MP1-DK2/bootloader/buildroot/optee-os-custom/lib/libutils/ext/snprintk.c:264
     e00:	6b3b      	ldr	r3, [r7, #48]	; 0x30
     e02:	2b08      	cmp	r3, #8
     e04:	d106      	bne.n	e14 <kprintf+0x24>
/home/aom1/Work/Linux/target/STM32MP1-DK2/bootloader/buildroot/optee-os-custom/lib/libutils/ext/snprintk.c:264 (discriminator 1)
     e06:	6afb      	ldr	r3, [r7, #44]	; 0x2c
     e08:	2b00      	cmp	r3, #0
     e0a:	d003      	beq.n	e14 <kprintf+0x24>
/home/aom1/Work/Linux/target/STM32MP1-DK2/bootloader/buildroot/optee-os-custom/lib/libutils/ext/snprintk.c:265
     e0c:	6afb      	ldr	r3, [r7, #44]	; 0x2c
     e0e:	681b      	ldr	r3, [r3, #0]
     e10:	66bb      	str	r3, [r7, #104]	; 0x68
     e12:	e001      	b.n	e18 <kprintf+0x28>
/home/aom1/Work/Linux/target/STM32MP1-DK2/bootloader/buildroot/optee-os-custom/lib/libutils/ext/snprintk.c:267
     e14:	2300      	movs	r3, #0
     e16:	66bb      	str	r3, [r7, #104]	; 0x68
/home/aom1/Work/Linux/target/STM32MP1-DK2/bootloader/buildroot/optee-os-custom/lib/libutils/ext/snprintk.c:269
     e18:	2300      	movs	r3, #0
     e1a:	f8c7 30a0 	str.w	r3, [r7, #160]	; 0xa0
/home/aom1/Work/Linux/target/STM32MP1-DK2/bootloader/buildroot/optee-os-custom/lib/libutils/ext/snprintk.c:270
     e1e:	2300      	movs	r3, #0
     e20:	673b      	str	r3, [r7, #112]	; 0x70
/home/aom1/Work/Linux/target/STM32MP1-DK2/bootloader/buildroot/optee-os-custom/lib/libutils/ext/snprintk.c:272
     e22:	6b7b      	ldr	r3, [r7, #52]	; 0x34
     e24:	f8c7 30ac 	str.w	r3, [r7, #172]	; 0xac
/home/aom1/Work/Linux/target/STM32MP1-DK2/bootloader/buildroot/optee-os-custom/lib/libutils/ext/snprintk.c:273
     e28:	2300      	movs	r3, #0
     e2a:	f8c7 3098 	str.w	r3, [r7, #152]	; 0x98
/home/aom1/Work/Linux/target/STM32MP1-DK2/bootloader/buildroot/optee-os-custom/lib/libutils/ext/snprintk.c:275
     e2e:	2300      	movs	r3, #0
     e30:	66fb      	str	r3, [r7, #108]	; 0x6c
/home/aom1/Work/Linux/target/STM32MP1-DK2/bootloader/buildroot/optee-os-custom/lib/libutils/ext/snprintk.c:281
     e32:	e01d      	b.n	e70 <kprintf+0x80>
/home/aom1/Work/Linux/target/STM32MP1-DK2/bootloader/buildroot/optee-os-custom/lib/libutils/ext/snprintk.c:282
     e34:	f8d7 3098 	ldr.w	r3, [r7, #152]	; 0x98
     e38:	3301      	adds	r3, #1
     e3a:	f8c7 3098 	str.w	r3, [r7, #152]	; 0x98
/home/aom1/Work/Linux/target/STM32MP1-DK2/bootloader/buildroot/optee-os-custom/lib/libutils/ext/snprintk.c:283
     e3e:	6b3b      	ldr	r3, [r7, #48]	; 0x30
     e40:	2b08      	cmp	r3, #8
     e42:	d110      	bne.n	e66 <kprintf+0x76>
/home/aom1/Work/Linux/target/STM32MP1-DK2/bootloader/buildroot/optee-os-custom/lib/libutils/ext/snprintk.c:283 (discriminator 1)
     e44:	6abb      	ldr	r3, [r7, #40]	; 0x28
     e46:	2b00      	cmp	r3, #0
     e48:	d00d      	beq.n	e66 <kprintf+0x76>
/home/aom1/Work/Linux/target/STM32MP1-DK2/bootloader/buildroot/optee-os-custom/lib/libutils/ext/snprintk.c:283 (discriminator 2)
     e4a:	6afb      	ldr	r3, [r7, #44]	; 0x2c
     e4c:	2b00      	cmp	r3, #0
     e4e:	d003      	beq.n	e58 <kprintf+0x68>
/home/aom1/Work/Linux/target/STM32MP1-DK2/bootloader/buildroot/optee-os-custom/lib/libutils/ext/snprintk.c:283 (discriminator 4)
     e50:	6aba      	ldr	r2, [r7, #40]	; 0x28
     e52:	6ebb      	ldr	r3, [r7, #104]	; 0x68
     e54:	429a      	cmp	r2, r3
     e56:	d206      	bcs.n	e66 <kprintf+0x76>
/home/aom1/Work/Linux/target/STM32MP1-DK2/bootloader/buildroot/optee-os-custom/lib/libutils/ext/snprintk.c:283 (discriminator 5)
     e58:	6aba      	ldr	r2, [r7, #40]	; 0x28
     e5a:	1c53      	adds	r3, r2, #1
     e5c:	62bb      	str	r3, [r7, #40]	; 0x28
     e5e:	f8d7 30ac 	ldr.w	r3, [r7, #172]	; 0xac
     e62:	781b      	ldrb	r3, [r3, #0]
     e64:	7013      	strb	r3, [r2, #0]
/home/aom1/Work/Linux/target/STM32MP1-DK2/bootloader/buildroot/optee-os-custom/lib/libutils/ext/snprintk.c:281
     e66:	f8d7 30ac 	ldr.w	r3, [r7, #172]	; 0xac
     e6a:	3301      	adds	r3, #1
     e6c:	f8c7 30ac 	str.w	r3, [r7, #172]	; 0xac
/home/aom1/Work/Linux/target/STM32MP1-DK2/bootloader/buildroot/optee-os-custom/lib/libutils/ext/snprintk.c:281 (discriminator 1)
     e70:	f8d7 30ac 	ldr.w	r3, [r7, #172]	; 0xac
     e74:	781b      	ldrb	r3, [r3, #0]
     e76:	2b25      	cmp	r3, #37	; 0x25
     e78:	d004      	beq.n	e84 <kprintf+0x94>
/home/aom1/Work/Linux/target/STM32MP1-DK2/bootloader/buildroot/optee-os-custom/lib/libutils/ext/snprintk.c:281 (discriminator 2)
     e7a:	f8d7 30ac 	ldr.w	r3, [r7, #172]	; 0xac
     e7e:	781b      	ldrb	r3, [r3, #0]
     e80:	2b00      	cmp	r3, #0
     e82:	d1d7      	bne.n	e34 <kprintf+0x44>
/home/aom1/Work/Linux/target/STM32MP1-DK2/bootloader/buildroot/optee-os-custom/lib/libutils/ext/snprintk.c:285
     e84:	f8d7 30ac 	ldr.w	r3, [r7, #172]	; 0xac
     e88:	781b      	ldrb	r3, [r3, #0]
     e8a:	2b00      	cmp	r3, #0
     e8c:	f000 86d1 	beq.w	1c32 <kprintf+0xe42>
/home/aom1/Work/Linux/target/STM32MP1-DK2/bootloader/buildroot/optee-os-custom/lib/libutils/ext/snprintk.c:288
     e90:	f8d7 30ac 	ldr.w	r3, [r7, #172]	; 0xac
     e94:	3301      	adds	r3, #1
     e96:	f8c7 30ac 	str.w	r3, [r7, #172]	; 0xac
/home/aom1/Work/Linux/target/STM32MP1-DK2/bootloader/buildroot/optee-os-custom/lib/libutils/ext/snprintk.c:290
     e9a:	2300      	movs	r3, #0
     e9c:	f8c7 309c 	str.w	r3, [r7, #156]	; 0x9c
/home/aom1/Work/Linux/target/STM32MP1-DK2/bootloader/buildroot/optee-os-custom/lib/libutils/ext/snprintk.c:291
     ea0:	2300      	movs	r3, #0
     ea2:	67bb      	str	r3, [r7, #120]	; 0x78
/home/aom1/Work/Linux/target/STM32MP1-DK2/bootloader/buildroot/optee-os-custom/lib/libutils/ext/snprintk.c:292
     ea4:	2300      	movs	r3, #0
     ea6:	f8c7 3094 	str.w	r3, [r7, #148]	; 0x94
/home/aom1/Work/Linux/target/STM32MP1-DK2/bootloader/buildroot/optee-os-custom/lib/libutils/ext/snprintk.c:293
     eaa:	f04f 33ff 	mov.w	r3, #4294967295	; 0xffffffff
     eae:	f8c7 3090 	str.w	r3, [r7, #144]	; 0x90
/home/aom1/Work/Linux/target/STM32MP1-DK2/bootloader/buildroot/optee-os-custom/lib/libutils/ext/snprintk.c:294
     eb2:	2300      	movs	r3, #0
     eb4:	f887 308f 	strb.w	r3, [r7, #143]	; 0x8f
/home/aom1/Work/Linux/target/STM32MP1-DK2/bootloader/buildroot/optee-os-custom/lib/libutils/ext/snprintk.c:296
     eb8:	f8d7 20ac 	ldr.w	r2, [r7, #172]	; 0xac
     ebc:	1c53      	adds	r3, r2, #1
     ebe:	f8c7 30ac 	str.w	r3, [r7, #172]	; 0xac
     ec2:	7813      	ldrb	r3, [r2, #0]
     ec4:	f8c7 30a8 	str.w	r3, [r7, #168]	; 0xa8
/home/aom1/Work/Linux/target/STM32MP1-DK2/bootloader/buildroot/optee-os-custom/lib/libutils/ext/snprintk.c:297
     ec8:	f8d7 30a8 	ldr.w	r3, [r7, #168]	; 0xa8
     ecc:	3b20      	subs	r3, #32
     ece:	2b5a      	cmp	r3, #90	; 0x5a
     ed0:	f200 857e 	bhi.w	19d0 <kprintf+0xbe0>
     ed4:	a202      	add	r2, pc, #8	; (adr r2, ee0 <kprintf+0xf0>)
     ed6:	f852 3023 	ldr.w	r3, [r2, r3, lsl #2]
     eda:	441a      	add	r2, r3
     edc:	4710      	bx	r2
     ede:	bf00      	nop
     ee0:	0000016d 	.word	0x0000016d
     ee4:	00000af1 	.word	0x00000af1
     ee8:	00000af1 	.word	0x00000af1
     eec:	0000017f 	.word	0x0000017f
     ef0:	00000af1 	.word	0x00000af1
     ef4:	00000af1 	.word	0x00000af1
     ef8:	00000af1 	.word	0x00000af1
     efc:	00000af1 	.word	0x00000af1
     f00:	00000af1 	.word	0x00000af1
     f04:	00000af1 	.word	0x00000af1
     f08:	0000018d 	.word	0x0000018d
     f0c:	000001bf 	.word	0x000001bf
     f10:	00000af1 	.word	0x00000af1
     f14:	000001b1 	.word	0x000001b1
     f18:	000001c7 	.word	0x000001c7
     f1c:	00000af1 	.word	0x00000af1
     f20:	00000243 	.word	0x00000243
     f24:	00000251 	.word	0x00000251
     f28:	00000251 	.word	0x00000251
     f2c:	00000251 	.word	0x00000251
     f30:	00000251 	.word	0x00000251
     f34:	00000251 	.word	0x00000251
     f38:	00000251 	.word	0x00000251
     f3c:	00000251 	.word	0x00000251
     f40:	00000251 	.word	0x00000251
     f44:	00000251 	.word	0x00000251
     f48:	00000af1 	.word	0x00000af1
     f4c:	00000af1 	.word	0x00000af1
     f50:	00000af1 	.word	0x00000af1
     f54:	00000af1 	.word	0x00000af1
     f58:	00000af1 	.word	0x00000af1
     f5c:	00000af1 	.word	0x00000af1
     f60:	00000af1 	.word	0x00000af1
     f64:	00000af1 	.word	0x00000af1
     f68:	00000af1 	.word	0x00000af1
     f6c:	00000af1 	.word	0x00000af1
     f70:	0000032f 	.word	0x0000032f
     f74:	00000af1 	.word	0x00000af1
     f78:	00000af1 	.word	0x00000af1
     f7c:	00000af1 	.word	0x00000af1
     f80:	00000af1 	.word	0x00000af1
     f84:	00000af1 	.word	0x00000af1
     f88:	00000af1 	.word	0x00000af1
     f8c:	00000af1 	.word	0x00000af1
     f90:	00000af1 	.word	0x00000af1
     f94:	00000af1 	.word	0x00000af1
     f98:	00000af1 	.word	0x00000af1
     f9c:	0000054f 	.word	0x0000054f
     fa0:	00000af1 	.word	0x00000af1
     fa4:	00000af1 	.word	0x00000af1
     fa8:	00000af1 	.word	0x00000af1
     fac:	00000af1 	.word	0x00000af1
     fb0:	00000af1 	.word	0x00000af1
     fb4:	0000074b 	.word	0x0000074b
     fb8:	00000af1 	.word	0x00000af1
     fbc:	00000af1 	.word	0x00000af1
     fc0:	0000083f 	.word	0x0000083f
     fc4:	00000af1 	.word	0x00000af1
     fc8:	00000af1 	.word	0x00000af1
     fcc:	00000af1 	.word	0x00000af1
     fd0:	00000af1 	.word	0x00000af1
     fd4:	00000af1 	.word	0x00000af1
     fd8:	00000af1 	.word	0x00000af1
     fdc:	00000af1 	.word	0x00000af1
     fe0:	00000af1 	.word	0x00000af1
     fe4:	00000af1 	.word	0x00000af1
     fe8:	00000af1 	.word	0x00000af1
     fec:	00000307 	.word	0x00000307
     ff0:	0000033b 	.word	0x0000033b
     ff4:	00000af1 	.word	0x00000af1
     ff8:	00000af1 	.word	0x00000af1
     ffc:	00000af1 	.word	0x00000af1
    1000:	00000291 	.word	0x00000291
    1004:	0000033b 	.word	0x0000033b
    1008:	0000029f 	.word	0x0000029f
    100c:	00000af1 	.word	0x00000af1
    1010:	000002ad 	.word	0x000002ad
    1014:	00000af1 	.word	0x00000af1
    1018:	00000455 	.word	0x00000455
    101c:	0000055b 	.word	0x0000055b
    1020:	00000643 	.word	0x00000643
    1024:	000002dd 	.word	0x000002dd
    1028:	00000af1 	.word	0x00000af1
    102c:	000006d1 	.word	0x000006d1
    1030:	000002eb 	.word	0x000002eb
    1034:	00000757 	.word	0x00000757
    1038:	00000af1 	.word	0x00000af1
    103c:	00000af1 	.word	0x00000af1
    1040:	00000849 	.word	0x00000849
    1044:	00000af1 	.word	0x00000af1
    1048:	000002f9 	.word	0x000002f9
/home/aom1/Work/Linux/target/STM32MP1-DK2/bootloader/buildroot/optee-os-custom/lib/libutils/ext/snprintk.c:304
    104c:	f897 308f 	ldrb.w	r3, [r7, #143]	; 0x8f
    1050:	2b00      	cmp	r3, #0
    1052:	f47f af31 	bne.w	eb8 <kprintf+0xc8>
/home/aom1/Work/Linux/target/STM32MP1-DK2/bootloader/buildroot/optee-os-custom/lib/libutils/ext/snprintk.c:305
    1056:	2320      	movs	r3, #32
    1058:	f887 308f 	strb.w	r3, [r7, #143]	; 0x8f
/home/aom1/Work/Linux/target/STM32MP1-DK2/bootloader/buildroot/optee-os-custom/lib/libutils/ext/snprintk.c:306
    105c:	e72c      	b.n	eb8 <kprintf+0xc8>
/home/aom1/Work/Linux/target/STM32MP1-DK2/bootloader/buildroot/optee-os-custom/lib/libutils/ext/snprintk.c:308
    105e:	f8d7 309c 	ldr.w	r3, [r7, #156]	; 0x9c
    1062:	f043 0301 	orr.w	r3, r3, #1
    1066:	f8c7 309c 	str.w	r3, [r7, #156]	; 0x9c
/home/aom1/Work/Linux/target/STM32MP1-DK2/bootloader/buildroot/optee-os-custom/lib/libutils/ext/snprintk.c:309
    106a:	e725      	b.n	eb8 <kprintf+0xc8>
/home/aom1/Work/Linux/target/STM32MP1-DK2/bootloader/buildroot/optee-os-custom/lib/libutils/ext/snprintk.c:317
    106c:	f8d7 20d0 	ldr.w	r2, [r7, #208]	; 0xd0
    1070:	1d13      	adds	r3, r2, #4
    1072:	f8c7 30d0 	str.w	r3, [r7, #208]	; 0xd0
    1076:	6813      	ldr	r3, [r2, #0]
    1078:	f8c7 3094 	str.w	r3, [r7, #148]	; 0x94
    107c:	f8d7 3094 	ldr.w	r3, [r7, #148]	; 0x94
    1080:	2b00      	cmp	r3, #0
    1082:	db00      	blt.n	1086 <kprintf+0x296>
/home/aom1/Work/Linux/target/STM32MP1-DK2/bootloader/buildroot/optee-os-custom/lib/libutils/ext/snprintk.c:318
    1084:	e718      	b.n	eb8 <kprintf+0xc8>
/home/aom1/Work/Linux/target/STM32MP1-DK2/bootloader/buildroot/optee-os-custom/lib/libutils/ext/snprintk.c:319
    1086:	f8d7 3094 	ldr.w	r3, [r7, #148]	; 0x94
    108a:	425b      	negs	r3, r3
    108c:	f8c7 3094 	str.w	r3, [r7, #148]	; 0x94
/home/aom1/Work/Linux/target/STM32MP1-DK2/bootloader/buildroot/optee-os-custom/lib/libutils/ext/snprintk.c:322
    1090:	f8d7 309c 	ldr.w	r3, [r7, #156]	; 0x9c
    1094:	f043 0304 	orr.w	r3, r3, #4
    1098:	f8c7 309c 	str.w	r3, [r7, #156]	; 0x9c
/home/aom1/Work/Linux/target/STM32MP1-DK2/bootloader/buildroot/optee-os-custom/lib/libutils/ext/snprintk.c:323
    109c:	e70c      	b.n	eb8 <kprintf+0xc8>
/home/aom1/Work/Linux/target/STM32MP1-DK2/bootloader/buildroot/optee-os-custom/lib/libutils/ext/snprintk.c:325
    109e:	232b      	movs	r3, #43	; 0x2b
    10a0:	f887 308f 	strb.w	r3, [r7, #143]	; 0x8f
/home/aom1/Work/Linux/target/STM32MP1-DK2/bootloader/buildroot/optee-os-custom/lib/libutils/ext/snprintk.c:326
    10a4:	e708      	b.n	eb8 <kprintf+0xc8>
/home/aom1/Work/Linux/target/STM32MP1-DK2/bootloader/buildroot/optee-os-custom/lib/libutils/ext/snprintk.c:328
    10a6:	f8d7 20ac 	ldr.w	r2, [r7, #172]	; 0xac
    10aa:	1c53      	adds	r3, r2, #1
    10ac:	f8c7 30ac 	str.w	r3, [r7, #172]	; 0xac
    10b0:	7813      	ldrb	r3, [r2, #0]
    10b2:	f8c7 30a8 	str.w	r3, [r7, #168]	; 0xa8
    10b6:	f8d7 30a8 	ldr.w	r3, [r7, #168]	; 0xa8
    10ba:	2b2a      	cmp	r3, #42	; 0x2a
    10bc:	d10e      	bne.n	10dc <kprintf+0x2ec>
/home/aom1/Work/Linux/target/STM32MP1-DK2/bootloader/buildroot/optee-os-custom/lib/libutils/ext/snprintk.c:329
    10be:	f8d7 20d0 	ldr.w	r2, [r7, #208]	; 0xd0
    10c2:	1d13      	adds	r3, r2, #4
    10c4:	f8c7 30d0 	str.w	r3, [r7, #208]	; 0xd0
    10c8:	6813      	ldr	r3, [r2, #0]
    10ca:	f8c7 30a4 	str.w	r3, [r7, #164]	; 0xa4
/home/aom1/Work/Linux/target/STM32MP1-DK2/bootloader/buildroot/optee-os-custom/lib/libutils/ext/snprintk.c:330
    10ce:	f8d7 30a4 	ldr.w	r3, [r7, #164]	; 0xa4
    10d2:	ea43 73e3 	orr.w	r3, r3, r3, asr #31
    10d6:	f8c7 3090 	str.w	r3, [r7, #144]	; 0x90
/home/aom1/Work/Linux/target/STM32MP1-DK2/bootloader/buildroot/optee-os-custom/lib/libutils/ext/snprintk.c:331
    10da:	e6ed      	b.n	eb8 <kprintf+0xc8>
/home/aom1/Work/Linux/target/STM32MP1-DK2/bootloader/buildroot/optee-os-custom/lib/libutils/ext/snprintk.c:333
    10dc:	2300      	movs	r3, #0
    10de:	f8c7 30a4 	str.w	r3, [r7, #164]	; 0xa4
/home/aom1/Work/Linux/target/STM32MP1-DK2/bootloader/buildroot/optee-os-custom/lib/libutils/ext/snprintk.c:334
    10e2:	e012      	b.n	110a <kprintf+0x31a>
/home/aom1/Work/Linux/target/STM32MP1-DK2/bootloader/buildroot/optee-os-custom/lib/libutils/ext/snprintk.c:335
    10e4:	f8d7 20a4 	ldr.w	r2, [r7, #164]	; 0xa4
    10e8:	230a      	movs	r3, #10
    10ea:	fb03 f202 	mul.w	r2, r3, r2
    10ee:	f8d7 30a8 	ldr.w	r3, [r7, #168]	; 0xa8
    10f2:	3b30      	subs	r3, #48	; 0x30
    10f4:	4413      	add	r3, r2
    10f6:	f8c7 30a4 	str.w	r3, [r7, #164]	; 0xa4
/home/aom1/Work/Linux/target/STM32MP1-DK2/bootloader/buildroot/optee-os-custom/lib/libutils/ext/snprintk.c:336
    10fa:	f8d7 20ac 	ldr.w	r2, [r7, #172]	; 0xac
    10fe:	1c53      	adds	r3, r2, #1
    1100:	f8c7 30ac 	str.w	r3, [r7, #172]	; 0xac
    1104:	7813      	ldrb	r3, [r2, #0]
    1106:	f8c7 30a8 	str.w	r3, [r7, #168]	; 0xa8
/home/aom1/Work/Linux/target/STM32MP1-DK2/bootloader/buildroot/optee-os-custom/lib/libutils/ext/snprintk.c:334
    110a:	f8d7 30a8 	ldr.w	r3, [r7, #168]	; 0xa8
    110e:	3b30      	subs	r3, #48	; 0x30
    1110:	2b09      	cmp	r3, #9
    1112:	d9e7      	bls.n	10e4 <kprintf+0x2f4>
/home/aom1/Work/Linux/target/STM32MP1-DK2/bootloader/buildroot/optee-os-custom/lib/libutils/ext/snprintk.c:338
    1114:	f8d7 30a4 	ldr.w	r3, [r7, #164]	; 0xa4
    1118:	ea43 73e3 	orr.w	r3, r3, r3, asr #31
    111c:	f8c7 3090 	str.w	r3, [r7, #144]	; 0x90
/home/aom1/Work/Linux/target/STM32MP1-DK2/bootloader/buildroot/optee-os-custom/lib/libutils/ext/snprintk.c:339
    1120:	e6d2      	b.n	ec8 <kprintf+0xd8>
/home/aom1/Work/Linux/target/STM32MP1-DK2/bootloader/buildroot/optee-os-custom/lib/libutils/ext/snprintk.c:346
    1122:	f8d7 309c 	ldr.w	r3, [r7, #156]	; 0x9c
    1126:	f443 6380 	orr.w	r3, r3, #1024	; 0x400
    112a:	f8c7 309c 	str.w	r3, [r7, #156]	; 0x9c
/home/aom1/Work/Linux/target/STM32MP1-DK2/bootloader/buildroot/optee-os-custom/lib/libutils/ext/snprintk.c:347
    112e:	e6c3      	b.n	eb8 <kprintf+0xc8>
/home/aom1/Work/Linux/target/STM32MP1-DK2/bootloader/buildroot/optee-os-custom/lib/libutils/ext/snprintk.c:350
    1130:	2300      	movs	r3, #0
    1132:	f8c7 30a4 	str.w	r3, [r7, #164]	; 0xa4
/home/aom1/Work/Linux/target/STM32MP1-DK2/bootloader/buildroot/optee-os-custom/lib/libutils/ext/snprintk.c:352 (discriminator 1)
    1136:	f8d7 20a4 	ldr.w	r2, [r7, #164]	; 0xa4
    113a:	230a      	movs	r3, #10
    113c:	fb03 f202 	mul.w	r2, r3, r2
    1140:	f8d7 30a8 	ldr.w	r3, [r7, #168]	; 0xa8
    1144:	3b30      	subs	r3, #48	; 0x30
    1146:	4413      	add	r3, r2
    1148:	f8c7 30a4 	str.w	r3, [r7, #164]	; 0xa4
/home/aom1/Work/Linux/target/STM32MP1-DK2/bootloader/buildroot/optee-os-custom/lib/libutils/ext/snprintk.c:353 (discriminator 1)
    114c:	f8d7 20ac 	ldr.w	r2, [r7, #172]	; 0xac
    1150:	1c53      	adds	r3, r2, #1
    1152:	f8c7 30ac 	str.w	r3, [r7, #172]	; 0xac
    1156:	7813      	ldrb	r3, [r2, #0]
    1158:	f8c7 30a8 	str.w	r3, [r7, #168]	; 0xa8
/home/aom1/Work/Linux/target/STM32MP1-DK2/bootloader/buildroot/optee-os-custom/lib/libutils/ext/snprintk.c:354 (discriminator 1)
    115c:	f8d7 30a8 	ldr.w	r3, [r7, #168]	; 0xa8
    1160:	3b30      	subs	r3, #48	; 0x30
    1162:	2b09      	cmp	r3, #9
    1164:	d9e7      	bls.n	1136 <kprintf+0x346>
/home/aom1/Work/Linux/target/STM32MP1-DK2/bootloader/buildroot/optee-os-custom/lib/libutils/ext/snprintk.c:355
    1166:	f8d7 30a4 	ldr.w	r3, [r7, #164]	; 0xa4
    116a:	f8c7 3094 	str.w	r3, [r7, #148]	; 0x94
/home/aom1/Work/Linux/target/STM32MP1-DK2/bootloader/buildroot/optee-os-custom/lib/libutils/ext/snprintk.c:356
    116e:	e6ab      	b.n	ec8 <kprintf+0xd8>
/home/aom1/Work/Linux/target/STM32MP1-DK2/bootloader/buildroot/optee-os-custom/lib/libutils/ext/snprintk.c:358
    1170:	f8d7 309c 	ldr.w	r3, [r7, #156]	; 0x9c
    1174:	f043 0340 	orr.w	r3, r3, #64	; 0x40
    1178:	f8c7 309c 	str.w	r3, [r7, #156]	; 0x9c
/home/aom1/Work/Linux/target/STM32MP1-DK2/bootloader/buildroot/optee-os-custom/lib/libutils/ext/snprintk.c:359
    117c:	e69c      	b.n	eb8 <kprintf+0xc8>
/home/aom1/Work/Linux/target/STM32MP1-DK2/bootloader/buildroot/optee-os-custom/lib/libutils/ext/snprintk.c:361
    117e:	f8d7 309c 	ldr.w	r3, [r7, #156]	; 0x9c
    1182:	f043 0380 	orr.w	r3, r3, #128	; 0x80
    1186:	f8c7 309c 	str.w	r3, [r7, #156]	; 0x9c
/home/aom1/Work/Linux/target/STM32MP1-DK2/bootloader/buildroot/optee-os-custom/lib/libutils/ext/snprintk.c:362
    118a:	e695      	b.n	eb8 <kprintf+0xc8>
/home/aom1/Work/Linux/target/STM32MP1-DK2/bootloader/buildroot/optee-os-custom/lib/libutils/ext/snprintk.c:364
    118c:	f8d7 30ac 	ldr.w	r3, [r7, #172]	; 0xac
    1190:	781b      	ldrb	r3, [r3, #0]
    1192:	2b6c      	cmp	r3, #108	; 0x6c
    1194:	d10b      	bne.n	11ae <kprintf+0x3be>
/home/aom1/Work/Linux/target/STM32MP1-DK2/bootloader/buildroot/optee-os-custom/lib/libutils/ext/snprintk.c:365
    1196:	f8d7 30ac 	ldr.w	r3, [r7, #172]	; 0xac
    119a:	3301      	adds	r3, #1
    119c:	f8c7 30ac 	str.w	r3, [r7, #172]	; 0xac
/home/aom1/Work/Linux/target/STM32MP1-DK2/bootloader/buildroot/optee-os-custom/lib/libutils/ext/snprintk.c:366
    11a0:	f8d7 309c 	ldr.w	r3, [r7, #156]	; 0x9c
    11a4:	f043 0320 	orr.w	r3, r3, #32
    11a8:	f8c7 309c 	str.w	r3, [r7, #156]	; 0x9c
    11ac:	e684      	b.n	eb8 <kprintf+0xc8>
/home/aom1/Work/Linux/target/STM32MP1-DK2/bootloader/buildroot/optee-os-custom/lib/libutils/ext/snprintk.c:368
    11ae:	f8d7 309c 	ldr.w	r3, [r7, #156]	; 0x9c
    11b2:	f043 0310 	orr.w	r3, r3, #16
    11b6:	f8c7 309c 	str.w	r3, [r7, #156]	; 0x9c
/home/aom1/Work/Linux/target/STM32MP1-DK2/bootloader/buildroot/optee-os-custom/lib/libutils/ext/snprintk.c:370
    11ba:	e67d      	b.n	eb8 <kprintf+0xc8>
/home/aom1/Work/Linux/target/STM32MP1-DK2/bootloader/buildroot/optee-os-custom/lib/libutils/ext/snprintk.c:372
    11bc:	f8d7 309c 	ldr.w	r3, [r7, #156]	; 0x9c
    11c0:	f043 0320 	orr.w	r3, r3, #32
    11c4:	f8c7 309c 	str.w	r3, [r7, #156]	; 0x9c
/home/aom1/Work/Linux/target/STM32MP1-DK2/bootloader/buildroot/optee-os-custom/lib/libutils/ext/snprintk.c:373
    11c8:	e676      	b.n	eb8 <kprintf+0xc8>
/home/aom1/Work/Linux/target/STM32MP1-DK2/bootloader/buildroot/optee-os-custom/lib/libutils/ext/snprintk.c:375
    11ca:	f8d7 309c 	ldr.w	r3, [r7, #156]	; 0x9c
    11ce:	f443 7380 	orr.w	r3, r3, #256	; 0x100
    11d2:	f8c7 309c 	str.w	r3, [r7, #156]	; 0x9c
/home/aom1/Work/Linux/target/STM32MP1-DK2/bootloader/buildroot/optee-os-custom/lib/libutils/ext/snprintk.c:376
    11d6:	e66f      	b.n	eb8 <kprintf+0xc8>
/home/aom1/Work/Linux/target/STM32MP1-DK2/bootloader/buildroot/optee-os-custom/lib/libutils/ext/snprintk.c:378
    11d8:	f8d7 309c 	ldr.w	r3, [r7, #156]	; 0x9c
    11dc:	f443 7300 	orr.w	r3, r3, #512	; 0x200
    11e0:	f8c7 309c 	str.w	r3, [r7, #156]	; 0x9c
/home/aom1/Work/Linux/target/STM32MP1-DK2/bootloader/buildroot/optee-os-custom/lib/libutils/ext/snprintk.c:379
    11e4:	e668      	b.n	eb8 <kprintf+0xc8>
/home/aom1/Work/Linux/target/STM32MP1-DK2/bootloader/buildroot/optee-os-custom/lib/libutils/ext/snprintk.c:381
    11e6:	f8d7 20d0 	ldr.w	r2, [r7, #208]	; 0xd0
    11ea:	1d13      	adds	r3, r2, #4
    11ec:	f8c7 30d0 	str.w	r3, [r7, #208]	; 0xd0
    11f0:	6812      	ldr	r2, [r2, #0]
    11f2:	f107 033c 	add.w	r3, r7, #60	; 0x3c
    11f6:	f8c7 30a0 	str.w	r3, [r7, #160]	; 0xa0
    11fa:	b2d3      	uxtb	r3, r2
    11fc:	f8d7 20a0 	ldr.w	r2, [r7, #160]	; 0xa0
    1200:	7013      	strb	r3, [r2, #0]
/home/aom1/Work/Linux/target/STM32MP1-DK2/bootloader/buildroot/optee-os-custom/lib/libutils/ext/snprintk.c:382
    1202:	2301      	movs	r3, #1
    1204:	673b      	str	r3, [r7, #112]	; 0x70
/home/aom1/Work/Linux/target/STM32MP1-DK2/bootloader/buildroot/optee-os-custom/lib/libutils/ext/snprintk.c:383
    1206:	2300      	movs	r3, #0
    1208:	f887 308f 	strb.w	r3, [r7, #143]	; 0x8f
/home/aom1/Work/Linux/target/STM32MP1-DK2/bootloader/buildroot/optee-os-custom/lib/libutils/ext/snprintk.c:384
    120c:	e3f5      	b.n	19fa <kprintf+0xc0a>
/home/aom1/Work/Linux/target/STM32MP1-DK2/bootloader/buildroot/optee-os-custom/lib/libutils/ext/snprintk.c:386
    120e:	f8d7 309c 	ldr.w	r3, [r7, #156]	; 0x9c
    1212:	f043 0310 	orr.w	r3, r3, #16
    1216:	f8c7 309c 	str.w	r3, [r7, #156]	; 0x9c
/home/aom1/Work/Linux/target/STM32MP1-DK2/bootloader/buildroot/optee-os-custom/lib/libutils/ext/snprintk.c:390
    121a:	f8d7 309c 	ldr.w	r3, [r7, #156]	; 0x9c
    121e:	f003 0380 	and.w	r3, r3, #128	; 0x80
    1222:	2b00      	cmp	r3, #0
    1224:	d00d      	beq.n	1242 <kprintf+0x452>
    1226:	f8d7 30d0 	ldr.w	r3, [r7, #208]	; 0xd0
    122a:	3307      	adds	r3, #7
    122c:	f023 0207 	bic.w	r2, r3, #7
    1230:	f102 0308 	add.w	r3, r2, #8
    1234:	f8c7 30d0 	str.w	r3, [r7, #208]	; 0xd0
    1238:	e9d2 2300 	ldrd	r2, r3, [r2]
    123c:	e9c7 2308 	strd	r2, r3, [r7, #32]
    1240:	e05e      	b.n	1300 <kprintf+0x510>
/home/aom1/Work/Linux/target/STM32MP1-DK2/bootloader/buildroot/optee-os-custom/lib/libutils/ext/snprintk.c:390 (discriminator 2)
    1242:	f8d7 309c 	ldr.w	r3, [r7, #156]	; 0x9c
    1246:	f403 7380 	and.w	r3, r3, #256	; 0x100
    124a:	2b00      	cmp	r3, #0
    124c:	d009      	beq.n	1262 <kprintf+0x472>
/home/aom1/Work/Linux/target/STM32MP1-DK2/bootloader/buildroot/optee-os-custom/lib/libutils/ext/snprintk.c:390
    124e:	f8d7 20d0 	ldr.w	r2, [r7, #208]	; 0xd0
    1252:	1d13      	adds	r3, r2, #4
    1254:	f8c7 30d0 	str.w	r3, [r7, #208]	; 0xd0
    1258:	6813      	ldr	r3, [r2, #0]
    125a:	17da      	asrs	r2, r3, #31
    125c:	623b      	str	r3, [r7, #32]
    125e:	627a      	str	r2, [r7, #36]	; 0x24
    1260:	e04e      	b.n	1300 <kprintf+0x510>
/home/aom1/Work/Linux/target/STM32MP1-DK2/bootloader/buildroot/optee-os-custom/lib/libutils/ext/snprintk.c:390 (discriminator 5)
    1262:	f8d7 309c 	ldr.w	r3, [r7, #156]	; 0x9c
    1266:	f403 7300 	and.w	r3, r3, #512	; 0x200
    126a:	2b00      	cmp	r3, #0
    126c:	d009      	beq.n	1282 <kprintf+0x492>
/home/aom1/Work/Linux/target/STM32MP1-DK2/bootloader/buildroot/optee-os-custom/lib/libutils/ext/snprintk.c:390
    126e:	f8d7 20d0 	ldr.w	r2, [r7, #208]	; 0xd0
    1272:	1d13      	adds	r3, r2, #4
    1274:	f8c7 30d0 	str.w	r3, [r7, #208]	; 0xd0
    1278:	6813      	ldr	r3, [r2, #0]
    127a:	17da      	asrs	r2, r3, #31
    127c:	623b      	str	r3, [r7, #32]
    127e:	627a      	str	r2, [r7, #36]	; 0x24
    1280:	e03e      	b.n	1300 <kprintf+0x510>
/home/aom1/Work/Linux/target/STM32MP1-DK2/bootloader/buildroot/optee-os-custom/lib/libutils/ext/snprintk.c:390 (discriminator 8)
    1282:	f8d7 309c 	ldr.w	r3, [r7, #156]	; 0x9c
    1286:	f003 0320 	and.w	r3, r3, #32
    128a:	2b00      	cmp	r3, #0
    128c:	d00d      	beq.n	12aa <kprintf+0x4ba>
/home/aom1/Work/Linux/target/STM32MP1-DK2/bootloader/buildroot/optee-os-custom/lib/libutils/ext/snprintk.c:390
    128e:	f8d7 30d0 	ldr.w	r3, [r7, #208]	; 0xd0
    1292:	3307      	adds	r3, #7
    1294:	f023 0207 	bic.w	r2, r3, #7
    1298:	f102 0308 	add.w	r3, r2, #8
    129c:	f8c7 30d0 	str.w	r3, [r7, #208]	; 0xd0
    12a0:	e9d2 2300 	ldrd	r2, r3, [r2]
    12a4:	e9c7 2308 	strd	r2, r3, [r7, #32]
    12a8:	e02a      	b.n	1300 <kprintf+0x510>
/home/aom1/Work/Linux/target/STM32MP1-DK2/bootloader/buildroot/optee-os-custom/lib/libutils/ext/snprintk.c:390 (discriminator 11)
    12aa:	f8d7 309c 	ldr.w	r3, [r7, #156]	; 0x9c
    12ae:	f003 0310 	and.w	r3, r3, #16
    12b2:	2b00      	cmp	r3, #0
    12b4:	d009      	beq.n	12ca <kprintf+0x4da>
/home/aom1/Work/Linux/target/STM32MP1-DK2/bootloader/buildroot/optee-os-custom/lib/libutils/ext/snprintk.c:390
    12b6:	f8d7 20d0 	ldr.w	r2, [r7, #208]	; 0xd0
    12ba:	1d13      	adds	r3, r2, #4
    12bc:	f8c7 30d0 	str.w	r3, [r7, #208]	; 0xd0
    12c0:	6813      	ldr	r3, [r2, #0]
    12c2:	17da      	asrs	r2, r3, #31
    12c4:	623b      	str	r3, [r7, #32]
    12c6:	627a      	str	r2, [r7, #36]	; 0x24
    12c8:	e01a      	b.n	1300 <kprintf+0x510>
/home/aom1/Work/Linux/target/STM32MP1-DK2/bootloader/buildroot/optee-os-custom/lib/libutils/ext/snprintk.c:390 (discriminator 14)
    12ca:	f8d7 309c 	ldr.w	r3, [r7, #156]	; 0x9c
    12ce:	f003 0340 	and.w	r3, r3, #64	; 0x40
    12d2:	2b00      	cmp	r3, #0
    12d4:	d00b      	beq.n	12ee <kprintf+0x4fe>
/home/aom1/Work/Linux/target/STM32MP1-DK2/bootloader/buildroot/optee-os-custom/lib/libutils/ext/snprintk.c:390
    12d6:	f8d7 20d0 	ldr.w	r2, [r7, #208]	; 0xd0
    12da:	1d13      	adds	r3, r2, #4
    12dc:	f8c7 30d0 	str.w	r3, [r7, #208]	; 0xd0
    12e0:	6813      	ldr	r3, [r2, #0]
    12e2:	b21b      	sxth	r3, r3
    12e4:	b21b      	sxth	r3, r3
    12e6:	17da      	asrs	r2, r3, #31
    12e8:	623b      	str	r3, [r7, #32]
    12ea:	627a      	str	r2, [r7, #36]	; 0x24
    12ec:	e008      	b.n	1300 <kprintf+0x510>
    12ee:	f8d7 20d0 	ldr.w	r2, [r7, #208]	; 0xd0
    12f2:	1d13      	adds	r3, r2, #4
    12f4:	f8c7 30d0 	str.w	r3, [r7, #208]	; 0xd0
    12f8:	6813      	ldr	r3, [r2, #0]
    12fa:	17da      	asrs	r2, r3, #31
    12fc:	623b      	str	r3, [r7, #32]
    12fe:	627a      	str	r2, [r7, #36]	; 0x24
/home/aom1/Work/Linux/target/STM32MP1-DK2/bootloader/buildroot/optee-os-custom/lib/libutils/ext/snprintk.c:390 (discriminator 24)
    1300:	e9d7 2308 	ldrd	r2, r3, [r7, #32]
    1304:	e9c7 2320 	strd	r2, r3, [r7, #128]	; 0x80
/home/aom1/Work/Linux/target/STM32MP1-DK2/bootloader/buildroot/optee-os-custom/lib/libutils/ext/snprintk.c:391 (discriminator 24)
    1308:	e9d7 2320 	ldrd	r2, r3, [r7, #128]	; 0x80
    130c:	2b00      	cmp	r3, #0
    130e:	da0e      	bge.n	132e <kprintf+0x53e>
/home/aom1/Work/Linux/target/STM32MP1-DK2/bootloader/buildroot/optee-os-custom/lib/libutils/ext/snprintk.c:392
    1310:	e9d7 2320 	ldrd	r2, r3, [r7, #128]	; 0x80
    1314:	2100      	movs	r1, #0
    1316:	4250      	negs	r0, r2
    1318:	60b8      	str	r0, [r7, #8]
    131a:	eb61 0303 	sbc.w	r3, r1, r3
    131e:	60fb      	str	r3, [r7, #12]
    1320:	e9d7 2302 	ldrd	r2, r3, [r7, #8]
    1324:	e9c7 2320 	strd	r2, r3, [r7, #128]	; 0x80
/home/aom1/Work/Linux/target/STM32MP1-DK2/bootloader/buildroot/optee-os-custom/lib/libutils/ext/snprintk.c:393
    1328:	232d      	movs	r3, #45	; 0x2d
    132a:	f887 308f 	strb.w	r3, [r7, #143]	; 0x8f
/home/aom1/Work/Linux/target/STM32MP1-DK2/bootloader/buildroot/optee-os-custom/lib/libutils/ext/snprintk.c:395
    132e:	2301      	movs	r3, #1
    1330:	67fb      	str	r3, [r7, #124]	; 0x7c
/home/aom1/Work/Linux/target/STM32MP1-DK2/bootloader/buildroot/optee-os-custom/lib/libutils/ext/snprintk.c:396
    1332:	e285      	b.n	1840 <kprintf+0xa50>
/home/aom1/Work/Linux/target/STM32MP1-DK2/bootloader/buildroot/optee-os-custom/lib/libutils/ext/snprintk.c:398
    1334:	f8d7 309c 	ldr.w	r3, [r7, #156]	; 0x9c
    1338:	f003 0380 	and.w	r3, r3, #128	; 0x80
    133c:	2b00      	cmp	r3, #0
    133e:	d010      	beq.n	1362 <kprintf+0x572>
/home/aom1/Work/Linux/target/STM32MP1-DK2/bootloader/buildroot/optee-os-custom/lib/libutils/ext/snprintk.c:399
    1340:	f8d7 20d0 	ldr.w	r2, [r7, #208]	; 0xd0
    1344:	1d13      	adds	r3, r2, #4
    1346:	f8c7 30d0 	str.w	r3, [r7, #208]	; 0xd0
    134a:	6811      	ldr	r1, [r2, #0]
    134c:	f8d7 3098 	ldr.w	r3, [r7, #152]	; 0x98
    1350:	17da      	asrs	r2, r3, #31
    1352:	61bb      	str	r3, [r7, #24]
    1354:	61fa      	str	r2, [r7, #28]
    1356:	e9d7 2306 	ldrd	r2, r3, [r7, #24]
    135a:	e9c1 2300 	strd	r2, r3, [r1]
/home/aom1/Work/Linux/target/STM32MP1-DK2/bootloader/buildroot/optee-os-custom/lib/libutils/ext/snprintk.c:412
    135e:	f000 bc66 	b.w	1c2e <kprintf+0xe3e>
/home/aom1/Work/Linux/target/STM32MP1-DK2/bootloader/buildroot/optee-os-custom/lib/libutils/ext/snprintk.c:400
    1362:	f8d7 309c 	ldr.w	r3, [r7, #156]	; 0x9c
    1366:	f403 7380 	and.w	r3, r3, #256	; 0x100
    136a:	2b00      	cmp	r3, #0
    136c:	d00a      	beq.n	1384 <kprintf+0x594>
/home/aom1/Work/Linux/target/STM32MP1-DK2/bootloader/buildroot/optee-os-custom/lib/libutils/ext/snprintk.c:401
    136e:	f8d7 20d0 	ldr.w	r2, [r7, #208]	; 0xd0
    1372:	1d13      	adds	r3, r2, #4
    1374:	f8c7 30d0 	str.w	r3, [r7, #208]	; 0xd0
    1378:	6812      	ldr	r2, [r2, #0]
    137a:	f8d7 3098 	ldr.w	r3, [r7, #152]	; 0x98
    137e:	6013      	str	r3, [r2, #0]
/home/aom1/Work/Linux/target/STM32MP1-DK2/bootloader/buildroot/optee-os-custom/lib/libutils/ext/snprintk.c:412
    1380:	f000 bc55 	b.w	1c2e <kprintf+0xe3e>
/home/aom1/Work/Linux/target/STM32MP1-DK2/bootloader/buildroot/optee-os-custom/lib/libutils/ext/snprintk.c:402
    1384:	f8d7 309c 	ldr.w	r3, [r7, #156]	; 0x9c
    1388:	f403 7300 	and.w	r3, r3, #512	; 0x200
    138c:	2b00      	cmp	r3, #0
    138e:	d00a      	beq.n	13a6 <kprintf+0x5b6>
/home/aom1/Work/Linux/target/STM32MP1-DK2/bootloader/buildroot/optee-os-custom/lib/libutils/ext/snprintk.c:403
    1390:	f8d7 20d0 	ldr.w	r2, [r7, #208]	; 0xd0
    1394:	1d13      	adds	r3, r2, #4
    1396:	f8c7 30d0 	str.w	r3, [r7, #208]	; 0xd0
    139a:	6812      	ldr	r2, [r2, #0]
    139c:	f8d7 3098 	ldr.w	r3, [r7, #152]	; 0x98
    13a0:	6013      	str	r3, [r2, #0]
/home/aom1/Work/Linux/target/STM32MP1-DK2/bootloader/buildroot/optee-os-custom/lib/libutils/ext/snprintk.c:412
    13a2:	f000 bc44 	b.w	1c2e <kprintf+0xe3e>
/home/aom1/Work/Linux/target/STM32MP1-DK2/bootloader/buildroot/optee-os-custom/lib/libutils/ext/snprintk.c:404
    13a6:	f8d7 309c 	ldr.w	r3, [r7, #156]	; 0x9c
    13aa:	f003 0320 	and.w	r3, r3, #32
    13ae:	2b00      	cmp	r3, #0
    13b0:	d010      	beq.n	13d4 <kprintf+0x5e4>
/home/aom1/Work/Linux/target/STM32MP1-DK2/bootloader/buildroot/optee-os-custom/lib/libutils/ext/snprintk.c:405
    13b2:	f8d7 20d0 	ldr.w	r2, [r7, #208]	; 0xd0
    13b6:	1d13      	adds	r3, r2, #4
    13b8:	f8c7 30d0 	str.w	r3, [r7, #208]	; 0xd0
    13bc:	6811      	ldr	r1, [r2, #0]
    13be:	f8d7 3098 	ldr.w	r3, [r7, #152]	; 0x98
    13c2:	17da      	asrs	r2, r3, #31
    13c4:	613b      	str	r3, [r7, #16]
    13c6:	617a      	str	r2, [r7, #20]
    13c8:	e9d7 2304 	ldrd	r2, r3, [r7, #16]
    13cc:	e9c1 2300 	strd	r2, r3, [r1]
/home/aom1/Work/Linux/target/STM32MP1-DK2/bootloader/buildroot/optee-os-custom/lib/libutils/ext/snprintk.c:412
    13d0:	f000 bc2d 	b.w	1c2e <kprintf+0xe3e>
/home/aom1/Work/Linux/target/STM32MP1-DK2/bootloader/buildroot/optee-os-custom/lib/libutils/ext/snprintk.c:406
    13d4:	f8d7 309c 	ldr.w	r3, [r7, #156]	; 0x9c
    13d8:	f003 0310 	and.w	r3, r3, #16
    13dc:	2b00      	cmp	r3, #0
    13de:	d00a      	beq.n	13f6 <kprintf+0x606>
/home/aom1/Work/Linux/target/STM32MP1-DK2/bootloader/buildroot/optee-os-custom/lib/libutils/ext/snprintk.c:407
    13e0:	f8d7 20d0 	ldr.w	r2, [r7, #208]	; 0xd0
    13e4:	1d13      	adds	r3, r2, #4
    13e6:	f8c7 30d0 	str.w	r3, [r7, #208]	; 0xd0
    13ea:	6812      	ldr	r2, [r2, #0]
    13ec:	f8d7 3098 	ldr.w	r3, [r7, #152]	; 0x98
    13f0:	6013      	str	r3, [r2, #0]
/home/aom1/Work/Linux/target/STM32MP1-DK2/bootloader/buildroot/optee-os-custom/lib/libutils/ext/snprintk.c:412
    13f2:	f000 bc1c 	b.w	1c2e <kprintf+0xe3e>
/home/aom1/Work/Linux/target/STM32MP1-DK2/bootloader/buildroot/optee-os-custom/lib/libutils/ext/snprintk.c:408
    13f6:	f8d7 309c 	ldr.w	r3, [r7, #156]	; 0x9c
    13fa:	f003 0340 	and.w	r3, r3, #64	; 0x40
    13fe:	2b00      	cmp	r3, #0
    1400:	d00b      	beq.n	141a <kprintf+0x62a>
/home/aom1/Work/Linux/target/STM32MP1-DK2/bootloader/buildroot/optee-os-custom/lib/libutils/ext/snprintk.c:409
    1402:	f8d7 20d0 	ldr.w	r2, [r7, #208]	; 0xd0
    1406:	1d13      	adds	r3, r2, #4
    1408:	f8c7 30d0 	str.w	r3, [r7, #208]	; 0xd0
    140c:	6812      	ldr	r2, [r2, #0]
    140e:	f8d7 3098 	ldr.w	r3, [r7, #152]	; 0x98
    1412:	b21b      	sxth	r3, r3
    1414:	8013      	strh	r3, [r2, #0]
/home/aom1/Work/Linux/target/STM32MP1-DK2/bootloader/buildroot/optee-os-custom/lib/libutils/ext/snprintk.c:412
    1416:	f000 bc0a 	b.w	1c2e <kprintf+0xe3e>
/home/aom1/Work/Linux/target/STM32MP1-DK2/bootloader/buildroot/optee-os-custom/lib/libutils/ext/snprintk.c:411
    141a:	f8d7 20d0 	ldr.w	r2, [r7, #208]	; 0xd0
    141e:	1d13      	adds	r3, r2, #4
    1420:	f8c7 30d0 	str.w	r3, [r7, #208]	; 0xd0
    1424:	6812      	ldr	r2, [r2, #0]
    1426:	f8d7 3098 	ldr.w	r3, [r7, #152]	; 0x98
    142a:	6013      	str	r3, [r2, #0]
/home/aom1/Work/Linux/target/STM32MP1-DK2/bootloader/buildroot/optee-os-custom/lib/libutils/ext/snprintk.c:412
    142c:	e3ff      	b.n	1c2e <kprintf+0xe3e>
/home/aom1/Work/Linux/target/STM32MP1-DK2/bootloader/buildroot/optee-os-custom/lib/libutils/ext/snprintk.c:414
    142e:	f8d7 309c 	ldr.w	r3, [r7, #156]	; 0x9c
    1432:	f043 0310 	orr.w	r3, r3, #16
    1436:	f8c7 309c 	str.w	r3, [r7, #156]	; 0x9c
/home/aom1/Work/Linux/target/STM32MP1-DK2/bootloader/buildroot/optee-os-custom/lib/libutils/ext/snprintk.c:417
    143a:	f8d7 309c 	ldr.w	r3, [r7, #156]	; 0x9c
    143e:	f003 0380 	and.w	r3, r3, #128	; 0x80
    1442:	2b00      	cmp	r3, #0
    1444:	d00b      	beq.n	145e <kprintf+0x66e>
    1446:	f8d7 30d0 	ldr.w	r3, [r7, #208]	; 0xd0
    144a:	3307      	adds	r3, #7
    144c:	f023 0207 	bic.w	r2, r3, #7
    1450:	f102 0308 	add.w	r3, r2, #8
    1454:	f8c7 30d0 	str.w	r3, [r7, #208]	; 0xd0
    1458:	e9d2 4500 	ldrd	r4, r5, [r2]
    145c:	e05c      	b.n	1518 <kprintf+0x728>
/home/aom1/Work/Linux/target/STM32MP1-DK2/bootloader/buildroot/optee-os-custom/lib/libutils/ext/snprintk.c:417 (discriminator 2)
    145e:	f8d7 309c 	ldr.w	r3, [r7, #156]	; 0x9c
    1462:	f403 7380 	and.w	r3, r3, #256	; 0x100
    1466:	2b00      	cmp	r3, #0
    1468:	d009      	beq.n	147e <kprintf+0x68e>
/home/aom1/Work/Linux/target/STM32MP1-DK2/bootloader/buildroot/optee-os-custom/lib/libutils/ext/snprintk.c:417
    146a:	f8d7 20d0 	ldr.w	r2, [r7, #208]	; 0xd0
    146e:	1d13      	adds	r3, r2, #4
    1470:	f8c7 30d0 	str.w	r3, [r7, #208]	; 0xd0
    1474:	6813      	ldr	r3, [r2, #0]
    1476:	2200      	movs	r2, #0
    1478:	461c      	mov	r4, r3
    147a:	4615      	mov	r5, r2
    147c:	e04c      	b.n	1518 <kprintf+0x728>
/home/aom1/Work/Linux/target/STM32MP1-DK2/bootloader/buildroot/optee-os-custom/lib/libutils/ext/snprintk.c:417 (discriminator 5)
    147e:	f8d7 309c 	ldr.w	r3, [r7, #156]	; 0x9c
    1482:	f403 7300 	and.w	r3, r3, #512	; 0x200
    1486:	2b00      	cmp	r3, #0
    1488:	d009      	beq.n	149e <kprintf+0x6ae>
/home/aom1/Work/Linux/target/STM32MP1-DK2/bootloader/buildroot/optee-os-custom/lib/libutils/ext/snprintk.c:417
    148a:	f8d7 20d0 	ldr.w	r2, [r7, #208]	; 0xd0
    148e:	1d13      	adds	r3, r2, #4
    1490:	f8c7 30d0 	str.w	r3, [r7, #208]	; 0xd0
    1494:	6813      	ldr	r3, [r2, #0]
    1496:	2200      	movs	r2, #0
    1498:	461c      	mov	r4, r3
    149a:	4615      	mov	r5, r2
    149c:	e03c      	b.n	1518 <kprintf+0x728>
/home/aom1/Work/Linux/target/STM32MP1-DK2/bootloader/buildroot/optee-os-custom/lib/libutils/ext/snprintk.c:417 (discriminator 8)
    149e:	f8d7 309c 	ldr.w	r3, [r7, #156]	; 0x9c
    14a2:	f003 0320 	and.w	r3, r3, #32
    14a6:	2b00      	cmp	r3, #0
    14a8:	d00b      	beq.n	14c2 <kprintf+0x6d2>
/home/aom1/Work/Linux/target/STM32MP1-DK2/bootloader/buildroot/optee-os-custom/lib/libutils/ext/snprintk.c:417
    14aa:	f8d7 30d0 	ldr.w	r3, [r7, #208]	; 0xd0
    14ae:	3307      	adds	r3, #7
    14b0:	f023 0207 	bic.w	r2, r3, #7
    14b4:	f102 0308 	add.w	r3, r2, #8
    14b8:	f8c7 30d0 	str.w	r3, [r7, #208]	; 0xd0
    14bc:	e9d2 4500 	ldrd	r4, r5, [r2]
    14c0:	e02a      	b.n	1518 <kprintf+0x728>
/home/aom1/Work/Linux/target/STM32MP1-DK2/bootloader/buildroot/optee-os-custom/lib/libutils/ext/snprintk.c:417 (discriminator 11)
    14c2:	f8d7 309c 	ldr.w	r3, [r7, #156]	; 0x9c
    14c6:	f003 0310 	and.w	r3, r3, #16
    14ca:	2b00      	cmp	r3, #0
    14cc:	d009      	beq.n	14e2 <kprintf+0x6f2>
/home/aom1/Work/Linux/target/STM32MP1-DK2/bootloader/buildroot/optee-os-custom/lib/libutils/ext/snprintk.c:417
    14ce:	f8d7 20d0 	ldr.w	r2, [r7, #208]	; 0xd0
    14d2:	1d13      	adds	r3, r2, #4
    14d4:	f8c7 30d0 	str.w	r3, [r7, #208]	; 0xd0
    14d8:	6813      	ldr	r3, [r2, #0]
    14da:	2200      	movs	r2, #0
    14dc:	461c      	mov	r4, r3
    14de:	4615      	mov	r5, r2
    14e0:	e01a      	b.n	1518 <kprintf+0x728>
/home/aom1/Work/Linux/target/STM32MP1-DK2/bootloader/buildroot/optee-os-custom/lib/libutils/ext/snprintk.c:417 (discriminator 14)
    14e2:	f8d7 309c 	ldr.w	r3, [r7, #156]	; 0x9c
    14e6:	f003 0340 	and.w	r3, r3, #64	; 0x40
    14ea:	2b00      	cmp	r3, #0
    14ec:	d00b      	beq.n	1506 <kprintf+0x716>
/home/aom1/Work/Linux/target/STM32MP1-DK2/bootloader/buildroot/optee-os-custom/lib/libutils/ext/snprintk.c:417
    14ee:	f8d7 20d0 	ldr.w	r2, [r7, #208]	; 0xd0
    14f2:	1d13      	adds	r3, r2, #4
    14f4:	f8c7 30d0 	str.w	r3, [r7, #208]	; 0xd0
    14f8:	6813      	ldr	r3, [r2, #0]
    14fa:	b29b      	uxth	r3, r3
    14fc:	b29b      	uxth	r3, r3
    14fe:	2200      	movs	r2, #0
    1500:	461c      	mov	r4, r3
    1502:	4615      	mov	r5, r2
    1504:	e008      	b.n	1518 <kprintf+0x728>
    1506:	f8d7 20d0 	ldr.w	r2, [r7, #208]	; 0xd0
    150a:	1d13      	adds	r3, r2, #4
    150c:	f8c7 30d0 	str.w	r3, [r7, #208]	; 0xd0
    1510:	6813      	ldr	r3, [r2, #0]
    1512:	2200      	movs	r2, #0
    1514:	461c      	mov	r4, r3
    1516:	4615      	mov	r5, r2
/home/aom1/Work/Linux/target/STM32MP1-DK2/bootloader/buildroot/optee-os-custom/lib/libutils/ext/snprintk.c:417 (discriminator 24)
    1518:	e9c7 4520 	strd	r4, r5, [r7, #128]	; 0x80
/home/aom1/Work/Linux/target/STM32MP1-DK2/bootloader/buildroot/optee-os-custom/lib/libutils/ext/snprintk.c:418 (discriminator 24)
    151c:	2300      	movs	r3, #0
    151e:	67fb      	str	r3, [r7, #124]	; 0x7c
/home/aom1/Work/Linux/target/STM32MP1-DK2/bootloader/buildroot/optee-os-custom/lib/libutils/ext/snprintk.c:419 (discriminator 24)
    1520:	e18b      	b.n	183a <kprintf+0xa4a>
/home/aom1/Work/Linux/target/STM32MP1-DK2/bootloader/buildroot/optee-os-custom/lib/libutils/ext/snprintk.c:421
    1522:	f897 30d4 	ldrb.w	r3, [r7, #212]	; 0xd4
    1526:	2b00      	cmp	r3, #0
    1528:	d024      	beq.n	1574 <kprintf+0x784>
/home/aom1/Work/Linux/target/STM32MP1-DK2/bootloader/buildroot/optee-os-custom/lib/libutils/ext/snprintk.c:421 (discriminator 1)
    152a:	f8d7 30ac 	ldr.w	r3, [r7, #172]	; 0xac
    152e:	781b      	ldrb	r3, [r3, #0]
    1530:	2b55      	cmp	r3, #85	; 0x55
    1532:	d11f      	bne.n	1574 <kprintf+0x784>
/home/aom1/Work/Linux/target/STM32MP1-DK2/bootloader/buildroot/optee-os-custom/lib/libutils/ext/snprintk.c:421 (discriminator 2)
    1534:	f8d7 30ac 	ldr.w	r3, [r7, #172]	; 0xac
    1538:	3301      	adds	r3, #1
    153a:	781b      	ldrb	r3, [r3, #0]
    153c:	2b6c      	cmp	r3, #108	; 0x6c
    153e:	d119      	bne.n	1574 <kprintf+0x784>
/home/aom1/Work/Linux/target/STM32MP1-DK2/bootloader/buildroot/optee-os-custom/lib/libutils/ext/snprintk.c:426
    1540:	f8d7 30ac 	ldr.w	r3, [r7, #172]	; 0xac
    1544:	3302      	adds	r3, #2
    1546:	f8c7 30ac 	str.w	r3, [r7, #172]	; 0xac
/home/aom1/Work/Linux/target/STM32MP1-DK2/bootloader/buildroot/optee-os-custom/lib/libutils/ext/snprintk.c:427
    154a:	f8d7 20d0 	ldr.w	r2, [r7, #208]	; 0xd0
    154e:	1d13      	adds	r3, r2, #4
    1550:	f8c7 30d0 	str.w	r3, [r7, #208]	; 0xd0
    1554:	6813      	ldr	r3, [r2, #0]
    1556:	f107 003c 	add.w	r0, r7, #60	; 0x3c
    155a:	461a      	mov	r2, r3
    155c:	2125      	movs	r1, #37	; 0x25
    155e:	f7ff fc03 	bl	d68 <uuid2str>
    1562:	6738      	str	r0, [r7, #112]	; 0x70
/home/aom1/Work/Linux/target/STM32MP1-DK2/bootloader/buildroot/optee-os-custom/lib/libutils/ext/snprintk.c:429
    1564:	f107 033c 	add.w	r3, r7, #60	; 0x3c
    1568:	f8c7 30a0 	str.w	r3, [r7, #160]	; 0xa0
/home/aom1/Work/Linux/target/STM32MP1-DK2/bootloader/buildroot/optee-os-custom/lib/libutils/ext/snprintk.c:430
    156c:	2300      	movs	r3, #0
    156e:	f887 308f 	strb.w	r3, [r7, #143]	; 0x8f
/home/aom1/Work/Linux/target/STM32MP1-DK2/bootloader/buildroot/optee-os-custom/lib/libutils/ext/snprintk.c:431
    1572:	e242      	b.n	19fa <kprintf+0xc0a>
/home/aom1/Work/Linux/target/STM32MP1-DK2/bootloader/buildroot/optee-os-custom/lib/libutils/ext/snprintk.c:441
    1574:	f8d7 20d0 	ldr.w	r2, [r7, #208]	; 0xd0
    1578:	1d13      	adds	r3, r2, #4
    157a:	f8c7 30d0 	str.w	r3, [r7, #208]	; 0xd0
    157e:	6813      	ldr	r3, [r2, #0]
    1580:	461a      	mov	r2, r3
    1582:	2300      	movs	r3, #0
    1584:	603a      	str	r2, [r7, #0]
    1586:	607b      	str	r3, [r7, #4]
    1588:	e9d7 2300 	ldrd	r2, r3, [r7]
    158c:	e9c7 2320 	strd	r2, r3, [r7, #128]	; 0x80
/home/aom1/Work/Linux/target/STM32MP1-DK2/bootloader/buildroot/optee-os-custom/lib/libutils/ext/snprintk.c:442
    1590:	2302      	movs	r3, #2
    1592:	67fb      	str	r3, [r7, #124]	; 0x7c
/home/aom1/Work/Linux/target/STM32MP1-DK2/bootloader/buildroot/optee-os-custom/lib/libutils/ext/snprintk.c:443
    1594:	f8df 36c0 	ldr.w	r3, [pc, #1728]	; 1c58 <kprintf+0xe68>
    1598:	447b      	add	r3, pc
    159a:	66fb      	str	r3, [r7, #108]	; 0x6c
/home/aom1/Work/Linux/target/STM32MP1-DK2/bootloader/buildroot/optee-os-custom/lib/libutils/ext/snprintk.c:444
    159c:	f8d7 309c 	ldr.w	r3, [r7, #156]	; 0x9c
    15a0:	f043 0302 	orr.w	r3, r3, #2
    15a4:	f8c7 309c 	str.w	r3, [r7, #156]	; 0x9c
/home/aom1/Work/Linux/target/STM32MP1-DK2/bootloader/buildroot/optee-os-custom/lib/libutils/ext/snprintk.c:445
    15a8:	2378      	movs	r3, #120	; 0x78
    15aa:	f8c7 30a8 	str.w	r3, [r7, #168]	; 0xa8
/home/aom1/Work/Linux/target/STM32MP1-DK2/bootloader/buildroot/optee-os-custom/lib/libutils/ext/snprintk.c:446
    15ae:	e144      	b.n	183a <kprintf+0xa4a>
/home/aom1/Work/Linux/target/STM32MP1-DK2/bootloader/buildroot/optee-os-custom/lib/libutils/ext/snprintk.c:448
    15b0:	f8d7 20d0 	ldr.w	r2, [r7, #208]	; 0xd0
    15b4:	1d13      	adds	r3, r2, #4
    15b6:	f8c7 30d0 	str.w	r3, [r7, #208]	; 0xd0
    15ba:	6813      	ldr	r3, [r2, #0]
    15bc:	f8c7 30a0 	str.w	r3, [r7, #160]	; 0xa0
    15c0:	f8d7 30a0 	ldr.w	r3, [r7, #160]	; 0xa0
    15c4:	2b00      	cmp	r3, #0
    15c6:	d104      	bne.n	15d2 <kprintf+0x7e2>
/home/aom1/Work/Linux/target/STM32MP1-DK2/bootloader/buildroot/optee-os-custom/lib/libutils/ext/snprintk.c:450
    15c8:	f8df 3690 	ldr.w	r3, [pc, #1680]	; 1c5c <kprintf+0xe6c>
    15cc:	447b      	add	r3, pc
    15ce:	f8c7 30a0 	str.w	r3, [r7, #160]	; 0xa0
/home/aom1/Work/Linux/target/STM32MP1-DK2/bootloader/buildroot/optee-os-custom/lib/libutils/ext/snprintk.c:451
    15d2:	f8d7 3090 	ldr.w	r3, [r7, #144]	; 0x90
    15d6:	2b00      	cmp	r3, #0
    15d8:	db1d      	blt.n	1616 <kprintf+0x826>
/home/aom1/Work/Linux/target/STM32MP1-DK2/bootloader/buildroot/optee-os-custom/lib/libutils/ext/snprintk.c:457
    15da:	f8d7 3090 	ldr.w	r3, [r7, #144]	; 0x90
    15de:	461a      	mov	r2, r3
    15e0:	2100      	movs	r1, #0
    15e2:	f8d7 00a0 	ldr.w	r0, [r7, #160]	; 0xa0
    15e6:	f00f fd73 	bl	110d0 <memchr>
    15ea:	6678      	str	r0, [r7, #100]	; 0x64
/home/aom1/Work/Linux/target/STM32MP1-DK2/bootloader/buildroot/optee-os-custom/lib/libutils/ext/snprintk.c:459
    15ec:	6e7b      	ldr	r3, [r7, #100]	; 0x64
    15ee:	2b00      	cmp	r3, #0
    15f0:	d00d      	beq.n	160e <kprintf+0x81e>
/home/aom1/Work/Linux/target/STM32MP1-DK2/bootloader/buildroot/optee-os-custom/lib/libutils/ext/snprintk.c:460
    15f2:	6e7a      	ldr	r2, [r7, #100]	; 0x64
    15f4:	f8d7 30a0 	ldr.w	r3, [r7, #160]	; 0xa0
    15f8:	1ad3      	subs	r3, r2, r3
    15fa:	673b      	str	r3, [r7, #112]	; 0x70
/home/aom1/Work/Linux/target/STM32MP1-DK2/bootloader/buildroot/optee-os-custom/lib/libutils/ext/snprintk.c:461
    15fc:	6f3a      	ldr	r2, [r7, #112]	; 0x70
    15fe:	f8d7 3090 	ldr.w	r3, [r7, #144]	; 0x90
    1602:	429a      	cmp	r2, r3
    1604:	dd0d      	ble.n	1622 <kprintf+0x832>
/home/aom1/Work/Linux/target/STM32MP1-DK2/bootloader/buildroot/optee-os-custom/lib/libutils/ext/snprintk.c:462
    1606:	f8d7 3090 	ldr.w	r3, [r7, #144]	; 0x90
    160a:	673b      	str	r3, [r7, #112]	; 0x70
    160c:	e009      	b.n	1622 <kprintf+0x832>
/home/aom1/Work/Linux/target/STM32MP1-DK2/bootloader/buildroot/optee-os-custom/lib/libutils/ext/snprintk.c:464
    160e:	f8d7 3090 	ldr.w	r3, [r7, #144]	; 0x90
    1612:	673b      	str	r3, [r7, #112]	; 0x70
    1614:	e005      	b.n	1622 <kprintf+0x832>
/home/aom1/Work/Linux/target/STM32MP1-DK2/bootloader/buildroot/optee-os-custom/lib/libutils/ext/snprintk.c:466
    1616:	f8d7 00a0 	ldr.w	r0, [r7, #160]	; 0xa0
    161a:	f00f fdce 	bl	111ba <strlen>
    161e:	4603      	mov	r3, r0
    1620:	673b      	str	r3, [r7, #112]	; 0x70
/home/aom1/Work/Linux/target/STM32MP1-DK2/bootloader/buildroot/optee-os-custom/lib/libutils/ext/snprintk.c:467
    1622:	2300      	movs	r3, #0
    1624:	f887 308f 	strb.w	r3, [r7, #143]	; 0x8f
/home/aom1/Work/Linux/target/STM32MP1-DK2/bootloader/buildroot/optee-os-custom/lib/libutils/ext/snprintk.c:468
    1628:	e1e7      	b.n	19fa <kprintf+0xc0a>
/home/aom1/Work/Linux/target/STM32MP1-DK2/bootloader/buildroot/optee-os-custom/lib/libutils/ext/snprintk.c:470
    162a:	f8d7 309c 	ldr.w	r3, [r7, #156]	; 0x9c
    162e:	f043 0310 	orr.w	r3, r3, #16
    1632:	f8c7 309c 	str.w	r3, [r7, #156]	; 0x9c
/home/aom1/Work/Linux/target/STM32MP1-DK2/bootloader/buildroot/optee-os-custom/lib/libutils/ext/snprintk.c:473
    1636:	f8d7 309c 	ldr.w	r3, [r7, #156]	; 0x9c
    163a:	f003 0380 	and.w	r3, r3, #128	; 0x80
    163e:	2b00      	cmp	r3, #0
    1640:	d00b      	beq.n	165a <kprintf+0x86a>
    1642:	f8d7 30d0 	ldr.w	r3, [r7, #208]	; 0xd0
    1646:	3307      	adds	r3, #7
    1648:	f023 0207 	bic.w	r2, r3, #7
    164c:	f102 0308 	add.w	r3, r2, #8
    1650:	f8c7 30d0 	str.w	r3, [r7, #208]	; 0xd0
    1654:	e9d2 8900 	ldrd	r8, r9, [r2]
    1658:	e05c      	b.n	1714 <kprintf+0x924>
/home/aom1/Work/Linux/target/STM32MP1-DK2/bootloader/buildroot/optee-os-custom/lib/libutils/ext/snprintk.c:473 (discriminator 2)
    165a:	f8d7 309c 	ldr.w	r3, [r7, #156]	; 0x9c
    165e:	f403 7380 	and.w	r3, r3, #256	; 0x100
    1662:	2b00      	cmp	r3, #0
    1664:	d009      	beq.n	167a <kprintf+0x88a>
/home/aom1/Work/Linux/target/STM32MP1-DK2/bootloader/buildroot/optee-os-custom/lib/libutils/ext/snprintk.c:473
    1666:	f8d7 20d0 	ldr.w	r2, [r7, #208]	; 0xd0
    166a:	1d13      	adds	r3, r2, #4
    166c:	f8c7 30d0 	str.w	r3, [r7, #208]	; 0xd0
    1670:	6813      	ldr	r3, [r2, #0]
    1672:	2200      	movs	r2, #0
    1674:	4698      	mov	r8, r3
    1676:	4691      	mov	r9, r2
    1678:	e04c      	b.n	1714 <kprintf+0x924>
/home/aom1/Work/Linux/target/STM32MP1-DK2/bootloader/buildroot/optee-os-custom/lib/libutils/ext/snprintk.c:473 (discriminator 5)
    167a:	f8d7 309c 	ldr.w	r3, [r7, #156]	; 0x9c
    167e:	f403 7300 	and.w	r3, r3, #512	; 0x200
    1682:	2b00      	cmp	r3, #0
    1684:	d009      	beq.n	169a <kprintf+0x8aa>
/home/aom1/Work/Linux/target/STM32MP1-DK2/bootloader/buildroot/optee-os-custom/lib/libutils/ext/snprintk.c:473
    1686:	f8d7 20d0 	ldr.w	r2, [r7, #208]	; 0xd0
    168a:	1d13      	adds	r3, r2, #4
    168c:	f8c7 30d0 	str.w	r3, [r7, #208]	; 0xd0
    1690:	6813      	ldr	r3, [r2, #0]
    1692:	2200      	movs	r2, #0
    1694:	4698      	mov	r8, r3
    1696:	4691      	mov	r9, r2
    1698:	e03c      	b.n	1714 <kprintf+0x924>
/home/aom1/Work/Linux/target/STM32MP1-DK2/bootloader/buildroot/optee-os-custom/lib/libutils/ext/snprintk.c:473 (discriminator 8)
    169a:	f8d7 309c 	ldr.w	r3, [r7, #156]	; 0x9c
    169e:	f003 0320 	and.w	r3, r3, #32
    16a2:	2b00      	cmp	r3, #0
    16a4:	d00b      	beq.n	16be <kprintf+0x8ce>
/home/aom1/Work/Linux/target/STM32MP1-DK2/bootloader/buildroot/optee-os-custom/lib/libutils/ext/snprintk.c:473
    16a6:	f8d7 30d0 	ldr.w	r3, [r7, #208]	; 0xd0
    16aa:	3307      	adds	r3, #7
    16ac:	f023 0207 	bic.w	r2, r3, #7
    16b0:	f102 0308 	add.w	r3, r2, #8
    16b4:	f8c7 30d0 	str.w	r3, [r7, #208]	; 0xd0
    16b8:	e9d2 8900 	ldrd	r8, r9, [r2]
    16bc:	e02a      	b.n	1714 <kprintf+0x924>
/home/aom1/Work/Linux/target/STM32MP1-DK2/bootloader/buildroot/optee-os-custom/lib/libutils/ext/snprintk.c:473 (discriminator 11)
    16be:	f8d7 309c 	ldr.w	r3, [r7, #156]	; 0x9c
    16c2:	f003 0310 	and.w	r3, r3, #16
    16c6:	2b00      	cmp	r3, #0
    16c8:	d009      	beq.n	16de <kprintf+0x8ee>
/home/aom1/Work/Linux/target/STM32MP1-DK2/bootloader/buildroot/optee-os-custom/lib/libutils/ext/snprintk.c:473
    16ca:	f8d7 20d0 	ldr.w	r2, [r7, #208]	; 0xd0
    16ce:	1d13      	adds	r3, r2, #4
    16d0:	f8c7 30d0 	str.w	r3, [r7, #208]	; 0xd0
    16d4:	6813      	ldr	r3, [r2, #0]
    16d6:	2200      	movs	r2, #0
    16d8:	4698      	mov	r8, r3
    16da:	4691      	mov	r9, r2
    16dc:	e01a      	b.n	1714 <kprintf+0x924>
/home/aom1/Work/Linux/target/STM32MP1-DK2/bootloader/buildroot/optee-os-custom/lib/libutils/ext/snprintk.c:473 (discriminator 14)
    16de:	f8d7 309c 	ldr.w	r3, [r7, #156]	; 0x9c
    16e2:	f003 0340 	and.w	r3, r3, #64	; 0x40
    16e6:	2b00      	cmp	r3, #0
    16e8:	d00b      	beq.n	1702 <kprintf+0x912>
/home/aom1/Work/Linux/target/STM32MP1-DK2/bootloader/buildroot/optee-os-custom/lib/libutils/ext/snprintk.c:473
    16ea:	f8d7 20d0 	ldr.w	r2, [r7, #208]	; 0xd0
    16ee:	1d13      	adds	r3, r2, #4
    16f0:	f8c7 30d0 	str.w	r3, [r7, #208]	; 0xd0
    16f4:	6813      	ldr	r3, [r2, #0]
    16f6:	b29b      	uxth	r3, r3
    16f8:	b29b      	uxth	r3, r3
    16fa:	2200      	movs	r2, #0
    16fc:	4698      	mov	r8, r3
    16fe:	4691      	mov	r9, r2
    1700:	e008      	b.n	1714 <kprintf+0x924>
    1702:	f8d7 20d0 	ldr.w	r2, [r7, #208]	; 0xd0
    1706:	1d13      	adds	r3, r2, #4
    1708:	f8c7 30d0 	str.w	r3, [r7, #208]	; 0xd0
    170c:	6813      	ldr	r3, [r2, #0]
    170e:	2200      	movs	r2, #0
    1710:	4698      	mov	r8, r3
    1712:	4691      	mov	r9, r2
/home/aom1/Work/Linux/target/STM32MP1-DK2/bootloader/buildroot/optee-os-custom/lib/libutils/ext/snprintk.c:473 (discriminator 24)
    1714:	e9c7 8920 	strd	r8, r9, [r7, #128]	; 0x80
/home/aom1/Work/Linux/target/STM32MP1-DK2/bootloader/buildroot/optee-os-custom/lib/libutils/ext/snprintk.c:474 (discriminator 24)
    1718:	2301      	movs	r3, #1
    171a:	67fb      	str	r3, [r7, #124]	; 0x7c
/home/aom1/Work/Linux/target/STM32MP1-DK2/bootloader/buildroot/optee-os-custom/lib/libutils/ext/snprintk.c:475 (discriminator 24)
    171c:	e08d      	b.n	183a <kprintf+0xa4a>
/home/aom1/Work/Linux/target/STM32MP1-DK2/bootloader/buildroot/optee-os-custom/lib/libutils/ext/snprintk.c:477
    171e:	f8df 3540 	ldr.w	r3, [pc, #1344]	; 1c60 <kprintf+0xe70>
    1722:	447b      	add	r3, pc
    1724:	66fb      	str	r3, [r7, #108]	; 0x6c
/home/aom1/Work/Linux/target/STM32MP1-DK2/bootloader/buildroot/optee-os-custom/lib/libutils/ext/snprintk.c:478
    1726:	e003      	b.n	1730 <kprintf+0x940>
/home/aom1/Work/Linux/target/STM32MP1-DK2/bootloader/buildroot/optee-os-custom/lib/libutils/ext/snprintk.c:480
    1728:	f8df 3538 	ldr.w	r3, [pc, #1336]	; 1c64 <kprintf+0xe74>
    172c:	447b      	add	r3, pc
    172e:	66fb      	str	r3, [r7, #108]	; 0x6c
/home/aom1/Work/Linux/target/STM32MP1-DK2/bootloader/buildroot/optee-os-custom/lib/libutils/ext/snprintk.c:481
    1730:	f8d7 309c 	ldr.w	r3, [r7, #156]	; 0x9c
    1734:	f003 0380 	and.w	r3, r3, #128	; 0x80
    1738:	2b00      	cmp	r3, #0
    173a:	d00b      	beq.n	1754 <kprintf+0x964>
    173c:	f8d7 30d0 	ldr.w	r3, [r7, #208]	; 0xd0
    1740:	3307      	adds	r3, #7
    1742:	f023 0207 	bic.w	r2, r3, #7
    1746:	f102 0308 	add.w	r3, r2, #8
    174a:	f8c7 30d0 	str.w	r3, [r7, #208]	; 0xd0
    174e:	e9d2 ab00 	ldrd	sl, fp, [r2]
    1752:	e05c      	b.n	180e <kprintf+0xa1e>
/home/aom1/Work/Linux/target/STM32MP1-DK2/bootloader/buildroot/optee-os-custom/lib/libutils/ext/snprintk.c:481 (discriminator 2)
    1754:	f8d7 309c 	ldr.w	r3, [r7, #156]	; 0x9c
    1758:	f403 7380 	and.w	r3, r3, #256	; 0x100
    175c:	2b00      	cmp	r3, #0
    175e:	d009      	beq.n	1774 <kprintf+0x984>
/home/aom1/Work/Linux/target/STM32MP1-DK2/bootloader/buildroot/optee-os-custom/lib/libutils/ext/snprintk.c:481
    1760:	f8d7 20d0 	ldr.w	r2, [r7, #208]	; 0xd0
    1764:	1d13      	adds	r3, r2, #4
    1766:	f8c7 30d0 	str.w	r3, [r7, #208]	; 0xd0
    176a:	6813      	ldr	r3, [r2, #0]
    176c:	2200      	movs	r2, #0
    176e:	469a      	mov	sl, r3
    1770:	4693      	mov	fp, r2
    1772:	e04c      	b.n	180e <kprintf+0xa1e>
/home/aom1/Work/Linux/target/STM32MP1-DK2/bootloader/buildroot/optee-os-custom/lib/libutils/ext/snprintk.c:481 (discriminator 5)
    1774:	f8d7 309c 	ldr.w	r3, [r7, #156]	; 0x9c
    1778:	f403 7300 	and.w	r3, r3, #512	; 0x200
    177c:	2b00      	cmp	r3, #0
    177e:	d009      	beq.n	1794 <kprintf+0x9a4>
/home/aom1/Work/Linux/target/STM32MP1-DK2/bootloader/buildroot/optee-os-custom/lib/libutils/ext/snprintk.c:481
    1780:	f8d7 20d0 	ldr.w	r2, [r7, #208]	; 0xd0
    1784:	1d13      	adds	r3, r2, #4
    1786:	f8c7 30d0 	str.w	r3, [r7, #208]	; 0xd0
    178a:	6813      	ldr	r3, [r2, #0]
    178c:	2200      	movs	r2, #0
    178e:	469a      	mov	sl, r3
    1790:	4693      	mov	fp, r2
    1792:	e03c      	b.n	180e <kprintf+0xa1e>
/home/aom1/Work/Linux/target/STM32MP1-DK2/bootloader/buildroot/optee-os-custom/lib/libutils/ext/snprintk.c:481 (discriminator 8)
    1794:	f8d7 309c 	ldr.w	r3, [r7, #156]	; 0x9c
    1798:	f003 0320 	and.w	r3, r3, #32
    179c:	2b00      	cmp	r3, #0
    179e:	d00b      	beq.n	17b8 <kprintf+0x9c8>
/home/aom1/Work/Linux/target/STM32MP1-DK2/bootloader/buildroot/optee-os-custom/lib/libutils/ext/snprintk.c:481
    17a0:	f8d7 30d0 	ldr.w	r3, [r7, #208]	; 0xd0
    17a4:	3307      	adds	r3, #7
    17a6:	f023 0207 	bic.w	r2, r3, #7
    17aa:	f102 0308 	add.w	r3, r2, #8
    17ae:	f8c7 30d0 	str.w	r3, [r7, #208]	; 0xd0
    17b2:	e9d2 ab00 	ldrd	sl, fp, [r2]
    17b6:	e02a      	b.n	180e <kprintf+0xa1e>
/home/aom1/Work/Linux/target/STM32MP1-DK2/bootloader/buildroot/optee-os-custom/lib/libutils/ext/snprintk.c:481 (discriminator 11)
    17b8:	f8d7 309c 	ldr.w	r3, [r7, #156]	; 0x9c
    17bc:	f003 0310 	and.w	r3, r3, #16
    17c0:	2b00      	cmp	r3, #0
    17c2:	d009      	beq.n	17d8 <kprintf+0x9e8>
/home/aom1/Work/Linux/target/STM32MP1-DK2/bootloader/buildroot/optee-os-custom/lib/libutils/ext/snprintk.c:481
    17c4:	f8d7 20d0 	ldr.w	r2, [r7, #208]	; 0xd0
    17c8:	1d13      	adds	r3, r2, #4
    17ca:	f8c7 30d0 	str.w	r3, [r7, #208]	; 0xd0
    17ce:	6813      	ldr	r3, [r2, #0]
    17d0:	2200      	movs	r2, #0
    17d2:	469a      	mov	sl, r3
    17d4:	4693      	mov	fp, r2
    17d6:	e01a      	b.n	180e <kprintf+0xa1e>
/home/aom1/Work/Linux/target/STM32MP1-DK2/bootloader/buildroot/optee-os-custom/lib/libutils/ext/snprintk.c:481 (discriminator 14)
    17d8:	f8d7 309c 	ldr.w	r3, [r7, #156]	; 0x9c
    17dc:	f003 0340 	and.w	r3, r3, #64	; 0x40
    17e0:	2b00      	cmp	r3, #0
    17e2:	d00b      	beq.n	17fc <kprintf+0xa0c>
/home/aom1/Work/Linux/target/STM32MP1-DK2/bootloader/buildroot/optee-os-custom/lib/libutils/ext/snprintk.c:481
    17e4:	f8d7 20d0 	ldr.w	r2, [r7, #208]	; 0xd0
    17e8:	1d13      	adds	r3, r2, #4
    17ea:	f8c7 30d0 	str.w	r3, [r7, #208]	; 0xd0
    17ee:	6813      	ldr	r3, [r2, #0]
    17f0:	b29b      	uxth	r3, r3
    17f2:	b29b      	uxth	r3, r3
    17f4:	2200      	movs	r2, #0
    17f6:	469a      	mov	sl, r3
    17f8:	4693      	mov	fp, r2
    17fa:	e008      	b.n	180e <kprintf+0xa1e>
    17fc:	f8d7 20d0 	ldr.w	r2, [r7, #208]	; 0xd0
    1800:	1d13      	adds	r3, r2, #4
    1802:	f8c7 30d0 	str.w	r3, [r7, #208]	; 0xd0
    1806:	6813      	ldr	r3, [r2, #0]
    1808:	2200      	movs	r2, #0
    180a:	469a      	mov	sl, r3
    180c:	4693      	mov	fp, r2
/home/aom1/Work/Linux/target/STM32MP1-DK2/bootloader/buildroot/optee-os-custom/lib/libutils/ext/snprintk.c:481 (discriminator 24)
    180e:	e9c7 ab20 	strd	sl, fp, [r7, #128]	; 0x80
/home/aom1/Work/Linux/target/STM32MP1-DK2/bootloader/buildroot/optee-os-custom/lib/libutils/ext/snprintk.c:482 (discriminator 24)
    1812:	2302      	movs	r3, #2
    1814:	67fb      	str	r3, [r7, #124]	; 0x7c
/home/aom1/Work/Linux/target/STM32MP1-DK2/bootloader/buildroot/optee-os-custom/lib/libutils/ext/snprintk.c:484 (discriminator 24)
    1816:	f8d7 309c 	ldr.w	r3, [r7, #156]	; 0x9c
    181a:	f003 0301 	and.w	r3, r3, #1
    181e:	2b00      	cmp	r3, #0
    1820:	d00a      	beq.n	1838 <kprintf+0xa48>
/home/aom1/Work/Linux/target/STM32MP1-DK2/bootloader/buildroot/optee-os-custom/lib/libutils/ext/snprintk.c:484 (discriminator 1)
    1822:	e9d7 2320 	ldrd	r2, r3, [r7, #128]	; 0x80
    1826:	4313      	orrs	r3, r2
    1828:	d006      	beq.n	1838 <kprintf+0xa48>
/home/aom1/Work/Linux/target/STM32MP1-DK2/bootloader/buildroot/optee-os-custom/lib/libutils/ext/snprintk.c:485
    182a:	f8d7 309c 	ldr.w	r3, [r7, #156]	; 0x9c
    182e:	f043 0302 	orr.w	r3, r3, #2
    1832:	f8c7 309c 	str.w	r3, [r7, #156]	; 0x9c
    1836:	e000      	b.n	183a <kprintf+0xa4a>
/home/aom1/Work/Linux/target/STM32MP1-DK2/bootloader/buildroot/optee-os-custom/lib/libutils/ext/snprintk.c:488
    1838:	bf00      	nop
    183a:	2300      	movs	r3, #0
    183c:	f887 308f 	strb.w	r3, [r7, #143]	; 0x8f
/home/aom1/Work/Linux/target/STM32MP1-DK2/bootloader/buildroot/optee-os-custom/lib/libutils/ext/snprintk.c:494
    1840:	f8d7 3090 	ldr.w	r3, [r7, #144]	; 0x90
    1844:	67bb      	str	r3, [r7, #120]	; 0x78
    1846:	6fbb      	ldr	r3, [r7, #120]	; 0x78
    1848:	2b00      	cmp	r3, #0
    184a:	db05      	blt.n	1858 <kprintf+0xa68>
/home/aom1/Work/Linux/target/STM32MP1-DK2/bootloader/buildroot/optee-os-custom/lib/libutils/ext/snprintk.c:495
    184c:	f8d7 309c 	ldr.w	r3, [r7, #156]	; 0x9c
    1850:	f423 6380 	bic.w	r3, r3, #1024	; 0x400
    1854:	f8c7 309c 	str.w	r3, [r7, #156]	; 0x9c
/home/aom1/Work/Linux/target/STM32MP1-DK2/bootloader/buildroot/optee-os-custom/lib/libutils/ext/snprintk.c:502
    1858:	f107 033c 	add.w	r3, r7, #60	; 0x3c
    185c:	3325      	adds	r3, #37	; 0x25
    185e:	f8c7 30a0 	str.w	r3, [r7, #160]	; 0xa0
/home/aom1/Work/Linux/target/STM32MP1-DK2/bootloader/buildroot/optee-os-custom/lib/libutils/ext/snprintk.c:503
    1862:	e9d7 2320 	ldrd	r2, r3, [r7, #128]	; 0x80
    1866:	4313      	orrs	r3, r2
    1868:	d104      	bne.n	1874 <kprintf+0xa84>
/home/aom1/Work/Linux/target/STM32MP1-DK2/bootloader/buildroot/optee-os-custom/lib/libutils/ext/snprintk.c:503 (discriminator 1)
    186a:	f8d7 3090 	ldr.w	r3, [r7, #144]	; 0x90
    186e:	2b00      	cmp	r3, #0
    1870:	f000 80a6 	beq.w	19c0 <kprintf+0xbd0>
    1874:	6ffb      	ldr	r3, [r7, #124]	; 0x7c
    1876:	2b02      	cmp	r3, #2
    1878:	d075      	beq.n	1966 <kprintf+0xb76>
    187a:	6ffb      	ldr	r3, [r7, #124]	; 0x7c
    187c:	2b02      	cmp	r3, #2
    187e:	f200 8092 	bhi.w	19a6 <kprintf+0xbb6>
    1882:	6ffb      	ldr	r3, [r7, #124]	; 0x7c
    1884:	2b00      	cmp	r3, #0
    1886:	d004      	beq.n	1892 <kprintf+0xaa2>
    1888:	6ffb      	ldr	r3, [r7, #124]	; 0x7c
    188a:	2b01      	cmp	r3, #1
    188c:	d056      	beq.n	193c <kprintf+0xb4c>
    188e:	e08a      	b.n	19a6 <kprintf+0xbb6>
/home/aom1/Work/Linux/target/STM32MP1-DK2/bootloader/buildroot/optee-os-custom/lib/libutils/ext/snprintk.c:510
    1890:	bf00      	nop
/home/aom1/Work/Linux/target/STM32MP1-DK2/bootloader/buildroot/optee-os-custom/lib/libutils/ext/snprintk.c:512 (discriminator 1)
    1892:	f897 3080 	ldrb.w	r3, [r7, #128]	; 0x80
    1896:	f003 0307 	and.w	r3, r3, #7
    189a:	b2da      	uxtb	r2, r3
    189c:	f8d7 30a0 	ldr.w	r3, [r7, #160]	; 0xa0
    18a0:	3b01      	subs	r3, #1
    18a2:	f8c7 30a0 	str.w	r3, [r7, #160]	; 0xa0
    18a6:	f102 0330 	add.w	r3, r2, #48	; 0x30
    18aa:	b2db      	uxtb	r3, r3
    18ac:	f8d7 20a0 	ldr.w	r2, [r7, #160]	; 0xa0
    18b0:	7013      	strb	r3, [r2, #0]
/home/aom1/Work/Linux/target/STM32MP1-DK2/bootloader/buildroot/optee-os-custom/lib/libutils/ext/snprintk.c:513 (discriminator 1)
    18b2:	e9d7 2320 	ldrd	r2, r3, [r7, #128]	; 0x80
    18b6:	f04f 0000 	mov.w	r0, #0
    18ba:	f04f 0100 	mov.w	r1, #0
    18be:	08d0      	lsrs	r0, r2, #3
    18c0:	ea40 7043 	orr.w	r0, r0, r3, lsl #29
    18c4:	08d9      	lsrs	r1, r3, #3
    18c6:	e9c7 0120 	strd	r0, r1, [r7, #128]	; 0x80
/home/aom1/Work/Linux/target/STM32MP1-DK2/bootloader/buildroot/optee-os-custom/lib/libutils/ext/snprintk.c:514 (discriminator 1)
    18ca:	e9d7 2320 	ldrd	r2, r3, [r7, #128]	; 0x80
    18ce:	4313      	orrs	r3, r2
    18d0:	d1de      	bne.n	1890 <kprintf+0xaa0>
/home/aom1/Work/Linux/target/STM32MP1-DK2/bootloader/buildroot/optee-os-custom/lib/libutils/ext/snprintk.c:516
    18d2:	f8d7 309c 	ldr.w	r3, [r7, #156]	; 0x9c
    18d6:	f003 0301 	and.w	r3, r3, #1
    18da:	2b00      	cmp	r3, #0
    18dc:	d06f      	beq.n	19be <kprintf+0xbce>
/home/aom1/Work/Linux/target/STM32MP1-DK2/bootloader/buildroot/optee-os-custom/lib/libutils/ext/snprintk.c:516 (discriminator 1)
    18de:	f8d7 30a0 	ldr.w	r3, [r7, #160]	; 0xa0
    18e2:	781b      	ldrb	r3, [r3, #0]
    18e4:	2b30      	cmp	r3, #48	; 0x30
    18e6:	d06a      	beq.n	19be <kprintf+0xbce>
/home/aom1/Work/Linux/target/STM32MP1-DK2/bootloader/buildroot/optee-os-custom/lib/libutils/ext/snprintk.c:517
    18e8:	f8d7 30a0 	ldr.w	r3, [r7, #160]	; 0xa0
    18ec:	3b01      	subs	r3, #1
    18ee:	f8c7 30a0 	str.w	r3, [r7, #160]	; 0xa0
    18f2:	f8d7 20a0 	ldr.w	r2, [r7, #160]	; 0xa0
    18f6:	2330      	movs	r3, #48	; 0x30
    18f8:	7013      	strb	r3, [r2, #0]
/home/aom1/Work/Linux/target/STM32MP1-DK2/bootloader/buildroot/optee-os-custom/lib/libutils/ext/snprintk.c:518
    18fa:	e060      	b.n	19be <kprintf+0xbce>
/home/aom1/Work/Linux/target/STM32MP1-DK2/bootloader/buildroot/optee-os-custom/lib/libutils/ext/snprintk.c:523
    18fc:	e9d7 0120 	ldrd	r0, r1, [r7, #128]	; 0x80
    1900:	f04f 020a 	mov.w	r2, #10
    1904:	f04f 0300 	mov.w	r3, #0
    1908:	f000 e9bc 	blx	1c84 <__aeabi_uldivmod>
    190c:	b2d2      	uxtb	r2, r2
    190e:	f8d7 30a0 	ldr.w	r3, [r7, #160]	; 0xa0
    1912:	3b01      	subs	r3, #1
    1914:	f8c7 30a0 	str.w	r3, [r7, #160]	; 0xa0
    1918:	f102 0330 	add.w	r3, r2, #48	; 0x30
    191c:	b2db      	uxtb	r3, r3
    191e:	f8d7 20a0 	ldr.w	r2, [r7, #160]	; 0xa0
    1922:	7013      	strb	r3, [r2, #0]
/home/aom1/Work/Linux/target/STM32MP1-DK2/bootloader/buildroot/optee-os-custom/lib/libutils/ext/snprintk.c:524
    1924:	e9d7 0120 	ldrd	r0, r1, [r7, #128]	; 0x80
    1928:	f04f 020a 	mov.w	r2, #10
    192c:	f04f 0300 	mov.w	r3, #0
    1930:	f000 e9a8 	blx	1c84 <__aeabi_uldivmod>
    1934:	4602      	mov	r2, r0
    1936:	460b      	mov	r3, r1
    1938:	e9c7 2320 	strd	r2, r3, [r7, #128]	; 0x80
/home/aom1/Work/Linux/target/STM32MP1-DK2/bootloader/buildroot/optee-os-custom/lib/libutils/ext/snprintk.c:522
    193c:	e9d7 2320 	ldrd	r2, r3, [r7, #128]	; 0x80
    1940:	2a0a      	cmp	r2, #10
    1942:	f173 0300 	sbcs.w	r3, r3, #0
    1946:	d2d9      	bcs.n	18fc <kprintf+0xb0c>
/home/aom1/Work/Linux/target/STM32MP1-DK2/bootloader/buildroot/optee-os-custom/lib/libutils/ext/snprintk.c:526
    1948:	f897 2080 	ldrb.w	r2, [r7, #128]	; 0x80
    194c:	f8d7 30a0 	ldr.w	r3, [r7, #160]	; 0xa0
    1950:	3b01      	subs	r3, #1
    1952:	f8c7 30a0 	str.w	r3, [r7, #160]	; 0xa0
    1956:	f102 0330 	add.w	r3, r2, #48	; 0x30
    195a:	b2db      	uxtb	r3, r3
    195c:	f8d7 20a0 	ldr.w	r2, [r7, #160]	; 0xa0
    1960:	7013      	strb	r3, [r2, #0]
/home/aom1/Work/Linux/target/STM32MP1-DK2/bootloader/buildroot/optee-os-custom/lib/libutils/ext/snprintk.c:527
    1962:	e02d      	b.n	19c0 <kprintf+0xbd0>
/home/aom1/Work/Linux/target/STM32MP1-DK2/bootloader/buildroot/optee-os-custom/lib/libutils/ext/snprintk.c:529
    1964:	bf00      	nop
/home/aom1/Work/Linux/target/STM32MP1-DK2/bootloader/buildroot/optee-os-custom/lib/libutils/ext/snprintk.c:531 (discriminator 1)
    1966:	f8d7 3080 	ldr.w	r3, [r7, #128]	; 0x80
    196a:	f003 020f 	and.w	r2, r3, #15
    196e:	6efb      	ldr	r3, [r7, #108]	; 0x6c
    1970:	441a      	add	r2, r3
    1972:	f8d7 30a0 	ldr.w	r3, [r7, #160]	; 0xa0
    1976:	3b01      	subs	r3, #1
    1978:	f8c7 30a0 	str.w	r3, [r7, #160]	; 0xa0
    197c:	7813      	ldrb	r3, [r2, #0]
    197e:	f8d7 20a0 	ldr.w	r2, [r7, #160]	; 0xa0
    1982:	7013      	strb	r3, [r2, #0]
/home/aom1/Work/Linux/target/STM32MP1-DK2/bootloader/buildroot/optee-os-custom/lib/libutils/ext/snprintk.c:532 (discriminator 1)
    1984:	e9d7 2320 	ldrd	r2, r3, [r7, #128]	; 0x80
    1988:	f04f 0000 	mov.w	r0, #0
    198c:	f04f 0100 	mov.w	r1, #0
    1990:	0910      	lsrs	r0, r2, #4
    1992:	ea40 7003 	orr.w	r0, r0, r3, lsl #28
    1996:	0919      	lsrs	r1, r3, #4
    1998:	e9c7 0120 	strd	r0, r1, [r7, #128]	; 0x80
/home/aom1/Work/Linux/target/STM32MP1-DK2/bootloader/buildroot/optee-os-custom/lib/libutils/ext/snprintk.c:533 (discriminator 1)
    199c:	e9d7 2320 	ldrd	r2, r3, [r7, #128]	; 0x80
    19a0:	4313      	orrs	r3, r2
    19a2:	d1df      	bne.n	1964 <kprintf+0xb74>
/home/aom1/Work/Linux/target/STM32MP1-DK2/bootloader/buildroot/optee-os-custom/lib/libutils/ext/snprintk.c:534
    19a4:	e00c      	b.n	19c0 <kprintf+0xbd0>
/home/aom1/Work/Linux/target/STM32MP1-DK2/bootloader/buildroot/optee-os-custom/lib/libutils/ext/snprintk.c:538
    19a6:	4bb0      	ldr	r3, [pc, #704]	; (1c68 <kprintf+0xe78>)
    19a8:	447b      	add	r3, pc
    19aa:	f8c7 30a0 	str.w	r3, [r7, #160]	; 0xa0
/home/aom1/Work/Linux/target/STM32MP1-DK2/bootloader/buildroot/optee-os-custom/lib/libutils/ext/snprintk.c:539
    19ae:	f8d7 00a0 	ldr.w	r0, [r7, #160]	; 0xa0
    19b2:	f00f fc02 	bl	111ba <strlen>
    19b6:	4603      	mov	r3, r0
    19b8:	673b      	str	r3, [r7, #112]	; 0x70
/home/aom1/Work/Linux/target/STM32MP1-DK2/bootloader/buildroot/optee-os-custom/lib/libutils/ext/snprintk.c:540
    19ba:	bf00      	nop
/home/aom1/Work/Linux/target/STM32MP1-DK2/bootloader/buildroot/optee-os-custom/lib/libutils/ext/snprintk.c:545
    19bc:	e01d      	b.n	19fa <kprintf+0xc0a>
/home/aom1/Work/Linux/target/STM32MP1-DK2/bootloader/buildroot/optee-os-custom/lib/libutils/ext/snprintk.c:518
    19be:	bf00      	nop
/home/aom1/Work/Linux/target/STM32MP1-DK2/bootloader/buildroot/optee-os-custom/lib/libutils/ext/snprintk.c:543
    19c0:	f107 023c 	add.w	r2, r7, #60	; 0x3c
    19c4:	3225      	adds	r2, #37	; 0x25
    19c6:	f8d7 30a0 	ldr.w	r3, [r7, #160]	; 0xa0
    19ca:	1ad3      	subs	r3, r2, r3
    19cc:	673b      	str	r3, [r7, #112]	; 0x70
/home/aom1/Work/Linux/target/STM32MP1-DK2/bootloader/buildroot/optee-os-custom/lib/libutils/ext/snprintk.c:545
    19ce:	e014      	b.n	19fa <kprintf+0xc0a>
/home/aom1/Work/Linux/target/STM32MP1-DK2/bootloader/buildroot/optee-os-custom/lib/libutils/ext/snprintk.c:547
    19d0:	f8d7 30a8 	ldr.w	r3, [r7, #168]	; 0xa8
    19d4:	2b00      	cmp	r3, #0
    19d6:	f000 812e 	beq.w	1c36 <kprintf+0xe46>
/home/aom1/Work/Linux/target/STM32MP1-DK2/bootloader/buildroot/optee-os-custom/lib/libutils/ext/snprintk.c:550
    19da:	f107 033c 	add.w	r3, r7, #60	; 0x3c
    19de:	f8c7 30a0 	str.w	r3, [r7, #160]	; 0xa0
/home/aom1/Work/Linux/target/STM32MP1-DK2/bootloader/buildroot/optee-os-custom/lib/libutils/ext/snprintk.c:551
    19e2:	f8d7 30a8 	ldr.w	r3, [r7, #168]	; 0xa8
    19e6:	b2db      	uxtb	r3, r3
    19e8:	f8d7 20a0 	ldr.w	r2, [r7, #160]	; 0xa0
    19ec:	7013      	strb	r3, [r2, #0]
/home/aom1/Work/Linux/target/STM32MP1-DK2/bootloader/buildroot/optee-os-custom/lib/libutils/ext/snprintk.c:552
    19ee:	2301      	movs	r3, #1
    19f0:	673b      	str	r3, [r7, #112]	; 0x70
/home/aom1/Work/Linux/target/STM32MP1-DK2/bootloader/buildroot/optee-os-custom/lib/libutils/ext/snprintk.c:553
    19f2:	2300      	movs	r3, #0
    19f4:	f887 308f 	strb.w	r3, [r7, #143]	; 0x8f
/home/aom1/Work/Linux/target/STM32MP1-DK2/bootloader/buildroot/optee-os-custom/lib/libutils/ext/snprintk.c:554
    19f8:	bf00      	nop
/home/aom1/Work/Linux/target/STM32MP1-DK2/bootloader/buildroot/optee-os-custom/lib/libutils/ext/snprintk.c:571
    19fa:	6f3a      	ldr	r2, [r7, #112]	; 0x70
    19fc:	6fbb      	ldr	r3, [r7, #120]	; 0x78
    19fe:	4293      	cmp	r3, r2
    1a00:	bfb8      	it	lt
    1a02:	4613      	movlt	r3, r2
    1a04:	677b      	str	r3, [r7, #116]	; 0x74
/home/aom1/Work/Linux/target/STM32MP1-DK2/bootloader/buildroot/optee-os-custom/lib/libutils/ext/snprintk.c:572
    1a06:	f897 308f 	ldrb.w	r3, [r7, #143]	; 0x8f
    1a0a:	2b00      	cmp	r3, #0
    1a0c:	d003      	beq.n	1a16 <kprintf+0xc26>
/home/aom1/Work/Linux/target/STM32MP1-DK2/bootloader/buildroot/optee-os-custom/lib/libutils/ext/snprintk.c:573
    1a0e:	6f7b      	ldr	r3, [r7, #116]	; 0x74
    1a10:	3301      	adds	r3, #1
    1a12:	677b      	str	r3, [r7, #116]	; 0x74
    1a14:	e008      	b.n	1a28 <kprintf+0xc38>
/home/aom1/Work/Linux/target/STM32MP1-DK2/bootloader/buildroot/optee-os-custom/lib/libutils/ext/snprintk.c:574
    1a16:	f8d7 309c 	ldr.w	r3, [r7, #156]	; 0x9c
    1a1a:	f003 0302 	and.w	r3, r3, #2
    1a1e:	2b00      	cmp	r3, #0
    1a20:	d002      	beq.n	1a28 <kprintf+0xc38>
/home/aom1/Work/Linux/target/STM32MP1-DK2/bootloader/buildroot/optee-os-custom/lib/libutils/ext/snprintk.c:575
    1a22:	6f7b      	ldr	r3, [r7, #116]	; 0x74
    1a24:	3302      	adds	r3, #2
    1a26:	677b      	str	r3, [r7, #116]	; 0x74
/home/aom1/Work/Linux/target/STM32MP1-DK2/bootloader/buildroot/optee-os-custom/lib/libutils/ext/snprintk.c:578
    1a28:	6f7a      	ldr	r2, [r7, #116]	; 0x74
    1a2a:	f8d7 3094 	ldr.w	r3, [r7, #148]	; 0x94
    1a2e:	429a      	cmp	r2, r3
    1a30:	bfb8      	it	lt
    1a32:	461a      	movlt	r2, r3
    1a34:	f8d7 3098 	ldr.w	r3, [r7, #152]	; 0x98
    1a38:	4413      	add	r3, r2
    1a3a:	f8c7 3098 	str.w	r3, [r7, #152]	; 0x98
/home/aom1/Work/Linux/target/STM32MP1-DK2/bootloader/buildroot/optee-os-custom/lib/libutils/ext/snprintk.c:581
    1a3e:	f8d7 209c 	ldr.w	r2, [r7, #156]	; 0x9c
    1a42:	f240 4304 	movw	r3, #1028	; 0x404
    1a46:	4013      	ands	r3, r2
    1a48:	2b00      	cmp	r3, #0
    1a4a:	d11f      	bne.n	1a8c <kprintf+0xc9c>
/home/aom1/Work/Linux/target/STM32MP1-DK2/bootloader/buildroot/optee-os-custom/lib/libutils/ext/snprintk.c:582
    1a4c:	f8d7 2094 	ldr.w	r2, [r7, #148]	; 0x94
    1a50:	6f7b      	ldr	r3, [r7, #116]	; 0x74
    1a52:	1ad3      	subs	r3, r2, r3
    1a54:	f8c7 30a4 	str.w	r3, [r7, #164]	; 0xa4
/home/aom1/Work/Linux/target/STM32MP1-DK2/bootloader/buildroot/optee-os-custom/lib/libutils/ext/snprintk.c:583
    1a58:	e011      	b.n	1a7e <kprintf+0xc8e>
/home/aom1/Work/Linux/target/STM32MP1-DK2/bootloader/buildroot/optee-os-custom/lib/libutils/ext/snprintk.c:584
    1a5a:	6b3b      	ldr	r3, [r7, #48]	; 0x30
    1a5c:	2b08      	cmp	r3, #8
    1a5e:	d10e      	bne.n	1a7e <kprintf+0xc8e>
/home/aom1/Work/Linux/target/STM32MP1-DK2/bootloader/buildroot/optee-os-custom/lib/libutils/ext/snprintk.c:584 (discriminator 1)
    1a60:	6abb      	ldr	r3, [r7, #40]	; 0x28
    1a62:	2b00      	cmp	r3, #0
    1a64:	d00b      	beq.n	1a7e <kprintf+0xc8e>
/home/aom1/Work/Linux/target/STM32MP1-DK2/bootloader/buildroot/optee-os-custom/lib/libutils/ext/snprintk.c:584 (discriminator 2)
    1a66:	6afb      	ldr	r3, [r7, #44]	; 0x2c
    1a68:	2b00      	cmp	r3, #0
    1a6a:	d003      	beq.n	1a74 <kprintf+0xc84>
/home/aom1/Work/Linux/target/STM32MP1-DK2/bootloader/buildroot/optee-os-custom/lib/libutils/ext/snprintk.c:584 (discriminator 4)
    1a6c:	6aba      	ldr	r2, [r7, #40]	; 0x28
    1a6e:	6ebb      	ldr	r3, [r7, #104]	; 0x68
    1a70:	429a      	cmp	r2, r3
    1a72:	d204      	bcs.n	1a7e <kprintf+0xc8e>
/home/aom1/Work/Linux/target/STM32MP1-DK2/bootloader/buildroot/optee-os-custom/lib/libutils/ext/snprintk.c:584 (discriminator 5)
    1a74:	6aba      	ldr	r2, [r7, #40]	; 0x28
    1a76:	1c53      	adds	r3, r2, #1
    1a78:	62bb      	str	r3, [r7, #40]	; 0x28
    1a7a:	2320      	movs	r3, #32
    1a7c:	7013      	strb	r3, [r2, #0]
/home/aom1/Work/Linux/target/STM32MP1-DK2/bootloader/buildroot/optee-os-custom/lib/libutils/ext/snprintk.c:583
    1a7e:	f8d7 20a4 	ldr.w	r2, [r7, #164]	; 0xa4
    1a82:	1e53      	subs	r3, r2, #1
    1a84:	f8c7 30a4 	str.w	r3, [r7, #164]	; 0xa4
    1a88:	2a00      	cmp	r2, #0
    1a8a:	dce6      	bgt.n	1a5a <kprintf+0xc6a>
/home/aom1/Work/Linux/target/STM32MP1-DK2/bootloader/buildroot/optee-os-custom/lib/libutils/ext/snprintk.c:588
    1a8c:	f897 308f 	ldrb.w	r3, [r7, #143]	; 0x8f
    1a90:	2b00      	cmp	r3, #0
    1a92:	d013      	beq.n	1abc <kprintf+0xccc>
/home/aom1/Work/Linux/target/STM32MP1-DK2/bootloader/buildroot/optee-os-custom/lib/libutils/ext/snprintk.c:589
    1a94:	6b3b      	ldr	r3, [r7, #48]	; 0x30
    1a96:	2b08      	cmp	r3, #8
    1a98:	d13c      	bne.n	1b14 <kprintf+0xd24>
/home/aom1/Work/Linux/target/STM32MP1-DK2/bootloader/buildroot/optee-os-custom/lib/libutils/ext/snprintk.c:589 (discriminator 1)
    1a9a:	6abb      	ldr	r3, [r7, #40]	; 0x28
    1a9c:	2b00      	cmp	r3, #0
    1a9e:	d039      	beq.n	1b14 <kprintf+0xd24>
/home/aom1/Work/Linux/target/STM32MP1-DK2/bootloader/buildroot/optee-os-custom/lib/libutils/ext/snprintk.c:589 (discriminator 2)
    1aa0:	6afb      	ldr	r3, [r7, #44]	; 0x2c
    1aa2:	2b00      	cmp	r3, #0
    1aa4:	d003      	beq.n	1aae <kprintf+0xcbe>
/home/aom1/Work/Linux/target/STM32MP1-DK2/bootloader/buildroot/optee-os-custom/lib/libutils/ext/snprintk.c:589 (discriminator 4)
    1aa6:	6aba      	ldr	r2, [r7, #40]	; 0x28
    1aa8:	6ebb      	ldr	r3, [r7, #104]	; 0x68
    1aaa:	429a      	cmp	r2, r3
    1aac:	d232      	bcs.n	1b14 <kprintf+0xd24>
/home/aom1/Work/Linux/target/STM32MP1-DK2/bootloader/buildroot/optee-os-custom/lib/libutils/ext/snprintk.c:589 (discriminator 5)
    1aae:	6aba      	ldr	r2, [r7, #40]	; 0x28
    1ab0:	1c53      	adds	r3, r2, #1
    1ab2:	62bb      	str	r3, [r7, #40]	; 0x28
    1ab4:	f897 308f 	ldrb.w	r3, [r7, #143]	; 0x8f
    1ab8:	7013      	strb	r3, [r2, #0]
    1aba:	e02b      	b.n	1b14 <kprintf+0xd24>
/home/aom1/Work/Linux/target/STM32MP1-DK2/bootloader/buildroot/optee-os-custom/lib/libutils/ext/snprintk.c:590
    1abc:	f8d7 309c 	ldr.w	r3, [r7, #156]	; 0x9c
    1ac0:	f003 0302 	and.w	r3, r3, #2
    1ac4:	2b00      	cmp	r3, #0
    1ac6:	d025      	beq.n	1b14 <kprintf+0xd24>
/home/aom1/Work/Linux/target/STM32MP1-DK2/bootloader/buildroot/optee-os-custom/lib/libutils/ext/snprintk.c:591
    1ac8:	6b3b      	ldr	r3, [r7, #48]	; 0x30
    1aca:	2b08      	cmp	r3, #8
    1acc:	d10e      	bne.n	1aec <kprintf+0xcfc>
/home/aom1/Work/Linux/target/STM32MP1-DK2/bootloader/buildroot/optee-os-custom/lib/libutils/ext/snprintk.c:591 (discriminator 1)
    1ace:	6abb      	ldr	r3, [r7, #40]	; 0x28
    1ad0:	2b00      	cmp	r3, #0
    1ad2:	d00b      	beq.n	1aec <kprintf+0xcfc>
/home/aom1/Work/Linux/target/STM32MP1-DK2/bootloader/buildroot/optee-os-custom/lib/libutils/ext/snprintk.c:591 (discriminator 2)
    1ad4:	6afb      	ldr	r3, [r7, #44]	; 0x2c
    1ad6:	2b00      	cmp	r3, #0
    1ad8:	d003      	beq.n	1ae2 <kprintf+0xcf2>
/home/aom1/Work/Linux/target/STM32MP1-DK2/bootloader/buildroot/optee-os-custom/lib/libutils/ext/snprintk.c:591 (discriminator 4)
    1ada:	6aba      	ldr	r2, [r7, #40]	; 0x28
    1adc:	6ebb      	ldr	r3, [r7, #104]	; 0x68
    1ade:	429a      	cmp	r2, r3
    1ae0:	d204      	bcs.n	1aec <kprintf+0xcfc>
/home/aom1/Work/Linux/target/STM32MP1-DK2/bootloader/buildroot/optee-os-custom/lib/libutils/ext/snprintk.c:591 (discriminator 5)
    1ae2:	6aba      	ldr	r2, [r7, #40]	; 0x28
    1ae4:	1c53      	adds	r3, r2, #1
    1ae6:	62bb      	str	r3, [r7, #40]	; 0x28
    1ae8:	2330      	movs	r3, #48	; 0x30
    1aea:	7013      	strb	r3, [r2, #0]
/home/aom1/Work/Linux/target/STM32MP1-DK2/bootloader/buildroot/optee-os-custom/lib/libutils/ext/snprintk.c:592
    1aec:	6b3b      	ldr	r3, [r7, #48]	; 0x30
    1aee:	2b08      	cmp	r3, #8
    1af0:	d110      	bne.n	1b14 <kprintf+0xd24>
/home/aom1/Work/Linux/target/STM32MP1-DK2/bootloader/buildroot/optee-os-custom/lib/libutils/ext/snprintk.c:592 (discriminator 1)
    1af2:	6abb      	ldr	r3, [r7, #40]	; 0x28
    1af4:	2b00      	cmp	r3, #0
    1af6:	d00d      	beq.n	1b14 <kprintf+0xd24>
/home/aom1/Work/Linux/target/STM32MP1-DK2/bootloader/buildroot/optee-os-custom/lib/libutils/ext/snprintk.c:592 (discriminator 2)
    1af8:	6afb      	ldr	r3, [r7, #44]	; 0x2c
    1afa:	2b00      	cmp	r3, #0
    1afc:	d003      	beq.n	1b06 <kprintf+0xd16>
/home/aom1/Work/Linux/target/STM32MP1-DK2/bootloader/buildroot/optee-os-custom/lib/libutils/ext/snprintk.c:592 (discriminator 4)
    1afe:	6aba      	ldr	r2, [r7, #40]	; 0x28
    1b00:	6ebb      	ldr	r3, [r7, #104]	; 0x68
    1b02:	429a      	cmp	r2, r3
    1b04:	d206      	bcs.n	1b14 <kprintf+0xd24>
/home/aom1/Work/Linux/target/STM32MP1-DK2/bootloader/buildroot/optee-os-custom/lib/libutils/ext/snprintk.c:592 (discriminator 5)
    1b06:	6aba      	ldr	r2, [r7, #40]	; 0x28
    1b08:	1c53      	adds	r3, r2, #1
    1b0a:	62bb      	str	r3, [r7, #40]	; 0x28
    1b0c:	f8d7 30a8 	ldr.w	r3, [r7, #168]	; 0xa8
    1b10:	b2db      	uxtb	r3, r3
    1b12:	7013      	strb	r3, [r2, #0]
/home/aom1/Work/Linux/target/STM32MP1-DK2/bootloader/buildroot/optee-os-custom/lib/libutils/ext/snprintk.c:596
    1b14:	f8d7 209c 	ldr.w	r2, [r7, #156]	; 0x9c
    1b18:	f240 4304 	movw	r3, #1028	; 0x404
    1b1c:	4013      	ands	r3, r2
    1b1e:	f5b3 6f80 	cmp.w	r3, #1024	; 0x400
    1b22:	d11f      	bne.n	1b64 <kprintf+0xd74>
/home/aom1/Work/Linux/target/STM32MP1-DK2/bootloader/buildroot/optee-os-custom/lib/libutils/ext/snprintk.c:597
    1b24:	f8d7 2094 	ldr.w	r2, [r7, #148]	; 0x94
    1b28:	6f7b      	ldr	r3, [r7, #116]	; 0x74
    1b2a:	1ad3      	subs	r3, r2, r3
    1b2c:	f8c7 30a4 	str.w	r3, [r7, #164]	; 0xa4
/home/aom1/Work/Linux/target/STM32MP1-DK2/bootloader/buildroot/optee-os-custom/lib/libutils/ext/snprintk.c:598
    1b30:	e011      	b.n	1b56 <kprintf+0xd66>
/home/aom1/Work/Linux/target/STM32MP1-DK2/bootloader/buildroot/optee-os-custom/lib/libutils/ext/snprintk.c:599
    1b32:	6b3b      	ldr	r3, [r7, #48]	; 0x30
    1b34:	2b08      	cmp	r3, #8
    1b36:	d10e      	bne.n	1b56 <kprintf+0xd66>
/home/aom1/Work/Linux/target/STM32MP1-DK2/bootloader/buildroot/optee-os-custom/lib/libutils/ext/snprintk.c:599 (discriminator 1)
    1b38:	6abb      	ldr	r3, [r7, #40]	; 0x28
    1b3a:	2b00      	cmp	r3, #0
    1b3c:	d00b      	beq.n	1b56 <kprintf+0xd66>
/home/aom1/Work/Linux/target/STM32MP1-DK2/bootloader/buildroot/optee-os-custom/lib/libutils/ext/snprintk.c:599 (discriminator 2)
    1b3e:	6afb      	ldr	r3, [r7, #44]	; 0x2c
    1b40:	2b00      	cmp	r3, #0
    1b42:	d003      	beq.n	1b4c <kprintf+0xd5c>
/home/aom1/Work/Linux/target/STM32MP1-DK2/bootloader/buildroot/optee-os-custom/lib/libutils/ext/snprintk.c:599 (discriminator 4)
    1b44:	6aba      	ldr	r2, [r7, #40]	; 0x28
    1b46:	6ebb      	ldr	r3, [r7, #104]	; 0x68
    1b48:	429a      	cmp	r2, r3
    1b4a:	d204      	bcs.n	1b56 <kprintf+0xd66>
/home/aom1/Work/Linux/target/STM32MP1-DK2/bootloader/buildroot/optee-os-custom/lib/libutils/ext/snprintk.c:599 (discriminator 5)
    1b4c:	6aba      	ldr	r2, [r7, #40]	; 0x28
    1b4e:	1c53      	adds	r3, r2, #1
    1b50:	62bb      	str	r3, [r7, #40]	; 0x28
    1b52:	2330      	movs	r3, #48	; 0x30
    1b54:	7013      	strb	r3, [r2, #0]
/home/aom1/Work/Linux/target/STM32MP1-DK2/bootloader/buildroot/optee-os-custom/lib/libutils/ext/snprintk.c:598
    1b56:	f8d7 20a4 	ldr.w	r2, [r7, #164]	; 0xa4
    1b5a:	1e53      	subs	r3, r2, #1
    1b5c:	f8c7 30a4 	str.w	r3, [r7, #164]	; 0xa4
    1b60:	2a00      	cmp	r2, #0
    1b62:	dce6      	bgt.n	1b32 <kprintf+0xd42>
/home/aom1/Work/Linux/target/STM32MP1-DK2/bootloader/buildroot/optee-os-custom/lib/libutils/ext/snprintk.c:603
    1b64:	6fba      	ldr	r2, [r7, #120]	; 0x78
    1b66:	6f3b      	ldr	r3, [r7, #112]	; 0x70
    1b68:	1ad3      	subs	r3, r2, r3
    1b6a:	f8c7 30a4 	str.w	r3, [r7, #164]	; 0xa4
/home/aom1/Work/Linux/target/STM32MP1-DK2/bootloader/buildroot/optee-os-custom/lib/libutils/ext/snprintk.c:604
    1b6e:	e011      	b.n	1b94 <kprintf+0xda4>
/home/aom1/Work/Linux/target/STM32MP1-DK2/bootloader/buildroot/optee-os-custom/lib/libutils/ext/snprintk.c:605
    1b70:	6b3b      	ldr	r3, [r7, #48]	; 0x30
    1b72:	2b08      	cmp	r3, #8
    1b74:	d10e      	bne.n	1b94 <kprintf+0xda4>
/home/aom1/Work/Linux/target/STM32MP1-DK2/bootloader/buildroot/optee-os-custom/lib/libutils/ext/snprintk.c:605 (discriminator 1)
    1b76:	6abb      	ldr	r3, [r7, #40]	; 0x28
    1b78:	2b00      	cmp	r3, #0
    1b7a:	d00b      	beq.n	1b94 <kprintf+0xda4>
/home/aom1/Work/Linux/target/STM32MP1-DK2/bootloader/buildroot/optee-os-custom/lib/libutils/ext/snprintk.c:605 (discriminator 2)
    1b7c:	6afb      	ldr	r3, [r7, #44]	; 0x2c
    1b7e:	2b00      	cmp	r3, #0
    1b80:	d003      	beq.n	1b8a <kprintf+0xd9a>
/home/aom1/Work/Linux/target/STM32MP1-DK2/bootloader/buildroot/optee-os-custom/lib/libutils/ext/snprintk.c:605 (discriminator 4)
    1b82:	6aba      	ldr	r2, [r7, #40]	; 0x28
    1b84:	6ebb      	ldr	r3, [r7, #104]	; 0x68
    1b86:	429a      	cmp	r2, r3
    1b88:	d204      	bcs.n	1b94 <kprintf+0xda4>
/home/aom1/Work/Linux/target/STM32MP1-DK2/bootloader/buildroot/optee-os-custom/lib/libutils/ext/snprintk.c:605 (discriminator 5)
    1b8a:	6aba      	ldr	r2, [r7, #40]	; 0x28
    1b8c:	1c53      	adds	r3, r2, #1
    1b8e:	62bb      	str	r3, [r7, #40]	; 0x28
    1b90:	2330      	movs	r3, #48	; 0x30
    1b92:	7013      	strb	r3, [r2, #0]
/home/aom1/Work/Linux/target/STM32MP1-DK2/bootloader/buildroot/optee-os-custom/lib/libutils/ext/snprintk.c:604
    1b94:	f8d7 20a4 	ldr.w	r2, [r7, #164]	; 0xa4
    1b98:	1e53      	subs	r3, r2, #1
    1b9a:	f8c7 30a4 	str.w	r3, [r7, #164]	; 0xa4
    1b9e:	2a00      	cmp	r2, #0
    1ba0:	dce6      	bgt.n	1b70 <kprintf+0xd80>
/home/aom1/Work/Linux/target/STM32MP1-DK2/bootloader/buildroot/optee-os-custom/lib/libutils/ext/snprintk.c:608
    1ba2:	e018      	b.n	1bd6 <kprintf+0xde6>
/home/aom1/Work/Linux/target/STM32MP1-DK2/bootloader/buildroot/optee-os-custom/lib/libutils/ext/snprintk.c:609
    1ba4:	6b3b      	ldr	r3, [r7, #48]	; 0x30
    1ba6:	2b08      	cmp	r3, #8
    1ba8:	d110      	bne.n	1bcc <kprintf+0xddc>
/home/aom1/Work/Linux/target/STM32MP1-DK2/bootloader/buildroot/optee-os-custom/lib/libutils/ext/snprintk.c:609 (discriminator 1)
    1baa:	6abb      	ldr	r3, [r7, #40]	; 0x28
    1bac:	2b00      	cmp	r3, #0
    1bae:	d00d      	beq.n	1bcc <kprintf+0xddc>
/home/aom1/Work/Linux/target/STM32MP1-DK2/bootloader/buildroot/optee-os-custom/lib/libutils/ext/snprintk.c:609 (discriminator 2)
    1bb0:	6afb      	ldr	r3, [r7, #44]	; 0x2c
    1bb2:	2b00      	cmp	r3, #0
    1bb4:	d003      	beq.n	1bbe <kprintf+0xdce>
/home/aom1/Work/Linux/target/STM32MP1-DK2/bootloader/buildroot/optee-os-custom/lib/libutils/ext/snprintk.c:609 (discriminator 4)
    1bb6:	6aba      	ldr	r2, [r7, #40]	; 0x28
    1bb8:	6ebb      	ldr	r3, [r7, #104]	; 0x68
    1bba:	429a      	cmp	r2, r3
    1bbc:	d206      	bcs.n	1bcc <kprintf+0xddc>
/home/aom1/Work/Linux/target/STM32MP1-DK2/bootloader/buildroot/optee-os-custom/lib/libutils/ext/snprintk.c:609 (discriminator 5)
    1bbe:	6aba      	ldr	r2, [r7, #40]	; 0x28
    1bc0:	1c53      	adds	r3, r2, #1
    1bc2:	62bb      	str	r3, [r7, #40]	; 0x28
    1bc4:	f8d7 30a0 	ldr.w	r3, [r7, #160]	; 0xa0
    1bc8:	781b      	ldrb	r3, [r3, #0]
    1bca:	7013      	strb	r3, [r2, #0]
/home/aom1/Work/Linux/target/STM32MP1-DK2/bootloader/buildroot/optee-os-custom/lib/libutils/ext/snprintk.c:608
    1bcc:	f8d7 30a0 	ldr.w	r3, [r7, #160]	; 0xa0
    1bd0:	3301      	adds	r3, #1
    1bd2:	f8c7 30a0 	str.w	r3, [r7, #160]	; 0xa0
/home/aom1/Work/Linux/target/STM32MP1-DK2/bootloader/buildroot/optee-os-custom/lib/libutils/ext/snprintk.c:608 (discriminator 1)
    1bd6:	6f3a      	ldr	r2, [r7, #112]	; 0x70
    1bd8:	1e53      	subs	r3, r2, #1
    1bda:	673b      	str	r3, [r7, #112]	; 0x70
    1bdc:	2a00      	cmp	r2, #0
    1bde:	d1e1      	bne.n	1ba4 <kprintf+0xdb4>
/home/aom1/Work/Linux/target/STM32MP1-DK2/bootloader/buildroot/optee-os-custom/lib/libutils/ext/snprintk.c:611
    1be0:	f8d7 309c 	ldr.w	r3, [r7, #156]	; 0x9c
    1be4:	f003 0304 	and.w	r3, r3, #4
    1be8:	2b00      	cmp	r3, #0
    1bea:	f43f a941 	beq.w	e70 <kprintf+0x80>
/home/aom1/Work/Linux/target/STM32MP1-DK2/bootloader/buildroot/optee-os-custom/lib/libutils/ext/snprintk.c:612
    1bee:	f8d7 2094 	ldr.w	r2, [r7, #148]	; 0x94
    1bf2:	6f7b      	ldr	r3, [r7, #116]	; 0x74
    1bf4:	1ad3      	subs	r3, r2, r3
    1bf6:	f8c7 30a4 	str.w	r3, [r7, #164]	; 0xa4
/home/aom1/Work/Linux/target/STM32MP1-DK2/bootloader/buildroot/optee-os-custom/lib/libutils/ext/snprintk.c:613
    1bfa:	e011      	b.n	1c20 <kprintf+0xe30>
/home/aom1/Work/Linux/target/STM32MP1-DK2/bootloader/buildroot/optee-os-custom/lib/libutils/ext/snprintk.c:614
    1bfc:	6b3b      	ldr	r3, [r7, #48]	; 0x30
    1bfe:	2b08      	cmp	r3, #8
    1c00:	d10e      	bne.n	1c20 <kprintf+0xe30>
/home/aom1/Work/Linux/target/STM32MP1-DK2/bootloader/buildroot/optee-os-custom/lib/libutils/ext/snprintk.c:614 (discriminator 1)
    1c02:	6abb      	ldr	r3, [r7, #40]	; 0x28
    1c04:	2b00      	cmp	r3, #0
    1c06:	d00b      	beq.n	1c20 <kprintf+0xe30>
/home/aom1/Work/Linux/target/STM32MP1-DK2/bootloader/buildroot/optee-os-custom/lib/libutils/ext/snprintk.c:614 (discriminator 2)
    1c08:	6afb      	ldr	r3, [r7, #44]	; 0x2c
    1c0a:	2b00      	cmp	r3, #0
    1c0c:	d003      	beq.n	1c16 <kprintf+0xe26>
/home/aom1/Work/Linux/target/STM32MP1-DK2/bootloader/buildroot/optee-os-custom/lib/libutils/ext/snprintk.c:614 (discriminator 4)
    1c0e:	6aba      	ldr	r2, [r7, #40]	; 0x28
    1c10:	6ebb      	ldr	r3, [r7, #104]	; 0x68
    1c12:	429a      	cmp	r2, r3
    1c14:	d204      	bcs.n	1c20 <kprintf+0xe30>
/home/aom1/Work/Linux/target/STM32MP1-DK2/bootloader/buildroot/optee-os-custom/lib/libutils/ext/snprintk.c:614 (discriminator 5)
    1c16:	6aba      	ldr	r2, [r7, #40]	; 0x28
    1c18:	1c53      	adds	r3, r2, #1
    1c1a:	62bb      	str	r3, [r7, #40]	; 0x28
    1c1c:	2320      	movs	r3, #32
    1c1e:	7013      	strb	r3, [r2, #0]
/home/aom1/Work/Linux/target/STM32MP1-DK2/bootloader/buildroot/optee-os-custom/lib/libutils/ext/snprintk.c:613
    1c20:	f8d7 20a4 	ldr.w	r2, [r7, #164]	; 0xa4
    1c24:	1e53      	subs	r3, r2, #1
    1c26:	f8c7 30a4 	str.w	r3, [r7, #164]	; 0xa4
    1c2a:	2a00      	cmp	r2, #0
    1c2c:	dce6      	bgt.n	1bfc <kprintf+0xe0c>
/home/aom1/Work/Linux/target/STM32MP1-DK2/bootloader/buildroot/optee-os-custom/lib/libutils/ext/snprintk.c:281
    1c2e:	f7ff b91f 	b.w	e70 <kprintf+0x80>
/home/aom1/Work/Linux/target/STM32MP1-DK2/bootloader/buildroot/optee-os-custom/lib/libutils/ext/snprintk.c:286
    1c32:	bf00      	nop
    1c34:	e000      	b.n	1c38 <kprintf+0xe48>
/home/aom1/Work/Linux/target/STM32MP1-DK2/bootloader/buildroot/optee-os-custom/lib/libutils/ext/snprintk.c:548
    1c36:	bf00      	nop
/home/aom1/Work/Linux/target/STM32MP1-DK2/bootloader/buildroot/optee-os-custom/lib/libutils/ext/snprintk.c:619
    1c38:	6b3b      	ldr	r3, [r7, #48]	; 0x30
    1c3a:	2b08      	cmp	r3, #8
    1c3c:	d105      	bne.n	1c4a <kprintf+0xe5a>
/home/aom1/Work/Linux/target/STM32MP1-DK2/bootloader/buildroot/optee-os-custom/lib/libutils/ext/snprintk.c:619 (discriminator 1)
    1c3e:	6afb      	ldr	r3, [r7, #44]	; 0x2c
    1c40:	2b00      	cmp	r3, #0
    1c42:	d002      	beq.n	1c4a <kprintf+0xe5a>
/home/aom1/Work/Linux/target/STM32MP1-DK2/bootloader/buildroot/optee-os-custom/lib/libutils/ext/snprintk.c:620
    1c44:	6afb      	ldr	r3, [r7, #44]	; 0x2c
    1c46:	6aba      	ldr	r2, [r7, #40]	; 0x28
    1c48:	601a      	str	r2, [r3, #0]
/home/aom1/Work/Linux/target/STM32MP1-DK2/bootloader/buildroot/optee-os-custom/lib/libutils/ext/snprintk.c:621
    1c4a:	f8d7 3098 	ldr.w	r3, [r7, #152]	; 0x98
/home/aom1/Work/Linux/target/STM32MP1-DK2/bootloader/buildroot/optee-os-custom/lib/libutils/ext/snprintk.c:622
    1c4e:	4618      	mov	r0, r3
    1c50:	37b0      	adds	r7, #176	; 0xb0
    1c52:	46bd      	mov	sp, r7
    1c54:	e8bd 8fb0 	ldmia.w	sp!, {r4, r5, r7, r8, r9, sl, fp, pc}
    1c58:	000112f4 	.word	0x000112f4
    1c5c:	0001131c 	.word	0x0001131c
    1c60:	0001117e 	.word	0x0001117e
    1c64:	00011160 	.word	0x00011160
    1c68:	00010f48 	.word	0x00010f48

00001c6c <__aeabi_ldivmod>:
__aeabi_ldivmod():
/home/aom1/Work/Linux/target/STM32MP1-DK2/bootloader/buildroot/optee-os-custom/lib/libutils/isoc/arch/arm/arm32_aeabi_ldivmod_a32.S:12
    1c6c:	e92d5000 	push	{ip, lr}
/home/aom1/Work/Linux/target/STM32MP1-DK2/bootloader/buildroot/optee-os-custom/lib/libutils/isoc/arch/arm/arm32_aeabi_ldivmod_a32.S:14
    1c70:	e92d000f 	push	{r0, r1, r2, r3}
/home/aom1/Work/Linux/target/STM32MP1-DK2/bootloader/buildroot/optee-os-custom/lib/libutils/isoc/arch/arm/arm32_aeabi_ldivmod_a32.S:16
    1c74:	e1a0000d 	mov	r0, sp
/home/aom1/Work/Linux/target/STM32MP1-DK2/bootloader/buildroot/optee-os-custom/lib/libutils/isoc/arch/arm/arm32_aeabi_ldivmod_a32.S:17
    1c78:	fb003ddd 	blx	113f6 <__l_divmod>
/home/aom1/Work/Linux/target/STM32MP1-DK2/bootloader/buildroot/optee-os-custom/lib/libutils/isoc/arch/arm/arm32_aeabi_ldivmod_a32.S:18
    1c7c:	e8bd000f 	pop	{r0, r1, r2, r3}
/home/aom1/Work/Linux/target/STM32MP1-DK2/bootloader/buildroot/optee-os-custom/lib/libutils/isoc/arch/arm/arm32_aeabi_ldivmod_a32.S:19
    1c80:	e8bd9000 	pop	{ip, pc}

00001c84 <__aeabi_uldivmod>:
__aeabi_uldivmod():
/home/aom1/Work/Linux/target/STM32MP1-DK2/bootloader/buildroot/optee-os-custom/lib/libutils/isoc/arch/arm/arm32_aeabi_ldivmod_a32.S:27
    1c84:	e92d5000 	push	{ip, lr}
/home/aom1/Work/Linux/target/STM32MP1-DK2/bootloader/buildroot/optee-os-custom/lib/libutils/isoc/arch/arm/arm32_aeabi_ldivmod_a32.S:29
    1c88:	e92d000f 	push	{r0, r1, r2, r3}
/home/aom1/Work/Linux/target/STM32MP1-DK2/bootloader/buildroot/optee-os-custom/lib/libutils/isoc/arch/arm/arm32_aeabi_ldivmod_a32.S:31
    1c8c:	e1a0000d 	mov	r0, sp
/home/aom1/Work/Linux/target/STM32MP1-DK2/bootloader/buildroot/optee-os-custom/lib/libutils/isoc/arch/arm/arm32_aeabi_ldivmod_a32.S:32
    1c90:	fa003dc0 	blx	11398 <__ul_divmod>
/home/aom1/Work/Linux/target/STM32MP1-DK2/bootloader/buildroot/optee-os-custom/lib/libutils/isoc/arch/arm/arm32_aeabi_ldivmod_a32.S:33
    1c94:	e8bd000f 	pop	{r0, r1, r2, r3}
/home/aom1/Work/Linux/target/STM32MP1-DK2/bootloader/buildroot/optee-os-custom/lib/libutils/isoc/arch/arm/arm32_aeabi_ldivmod_a32.S:34
    1c98:	e8bd9000 	pop	{ip, pc}

00001c9c <_assert_log>:
_assert_log():
/home/aom1/Work/Linux/target/STM32MP1-DK2/bootloader/buildroot/optee-os-custom/lib/libutee/assert.c:17
    1c9c:	b580      	push	{r7, lr}
    1c9e:	b08a      	sub	sp, #40	; 0x28
    1ca0:	af06      	add	r7, sp, #24
    1ca2:	60f8      	str	r0, [r7, #12]
    1ca4:	60b9      	str	r1, [r7, #8]
    1ca6:	607a      	str	r2, [r7, #4]
    1ca8:	603b      	str	r3, [r7, #0]
/home/aom1/Work/Linux/target/STM32MP1-DK2/bootloader/buildroot/optee-os-custom/lib/libutee/assert.c:18
    1caa:	683b      	ldr	r3, [r7, #0]
    1cac:	9304      	str	r3, [sp, #16]
    1cae:	687b      	ldr	r3, [r7, #4]
    1cb0:	9303      	str	r3, [sp, #12]
    1cb2:	68bb      	ldr	r3, [r7, #8]
    1cb4:	9302      	str	r3, [sp, #8]
    1cb6:	68fb      	ldr	r3, [r7, #12]
    1cb8:	9301      	str	r3, [sp, #4]
    1cba:	4b06      	ldr	r3, [pc, #24]	; (1cd4 <_assert_log+0x38>)
    1cbc:	447b      	add	r3, pc
    1cbe:	9300      	str	r3, [sp, #0]
    1cc0:	2301      	movs	r3, #1
    1cc2:	2201      	movs	r2, #1
    1cc4:	2100      	movs	r1, #0
    1cc6:	2000      	movs	r0, #0
    1cc8:	f7fe fe32 	bl	930 <trace_printf>
/home/aom1/Work/Linux/target/STM32MP1-DK2/bootloader/buildroot/optee-os-custom/lib/libutee/assert.c:20
    1ccc:	bf00      	nop
    1cce:	3710      	adds	r7, #16
    1cd0:	46bd      	mov	sp, r7
    1cd2:	bd80      	pop	{r7, pc}
    1cd4:	00010c50 	.word	0x00010c50

00001cd8 <_assert_break>:
_assert_break():
/home/aom1/Work/Linux/target/STM32MP1-DK2/bootloader/buildroot/optee-os-custom/lib/libutee/assert.c:23
    1cd8:	b580      	push	{r7, lr}
    1cda:	af00      	add	r7, sp, #0
/home/aom1/Work/Linux/target/STM32MP1-DK2/bootloader/buildroot/optee-os-custom/lib/libutee/assert.c:24
    1cdc:	2000      	movs	r0, #0
    1cde:	f6cf 70ff 	movt	r0, #65535	; 0xffff
    1ce2:	f004 ef2a 	blx	6b38 <_utee_panic>
/home/aom1/Work/Linux/target/STM32MP1-DK2/bootloader/buildroot/optee-os-custom/lib/libutee/assert.c:26 (discriminator 1)
    1ce6:	e7fe      	b.n	1ce6 <_assert_break+0xe>

00001ce8 <trace_ext_puts>:
trace_ext_puts():
/home/aom1/Work/Linux/target/STM32MP1-DK2/bootloader/buildroot/optee-os-custom/lib/libutee/trace_ext.c:22
    1ce8:	b580      	push	{r7, lr}
    1cea:	b082      	sub	sp, #8
    1cec:	af00      	add	r7, sp, #0
    1cee:	6078      	str	r0, [r7, #4]
/home/aom1/Work/Linux/target/STM32MP1-DK2/bootloader/buildroot/optee-os-custom/lib/libutee/trace_ext.c:26
    1cf0:	6878      	ldr	r0, [r7, #4]
    1cf2:	f00f fa62 	bl	111ba <strlen>
    1cf6:	4603      	mov	r3, r0
    1cf8:	4619      	mov	r1, r3
    1cfa:	6878      	ldr	r0, [r7, #4]
    1cfc:	f004 ef30 	blx	6b60 <_utee_log>
/home/aom1/Work/Linux/target/STM32MP1-DK2/bootloader/buildroot/optee-os-custom/lib/libutee/trace_ext.c:28
    1d00:	bf00      	nop
    1d02:	3708      	adds	r7, #8
    1d04:	46bd      	mov	sp, r7
    1d06:	bd80      	pop	{r7, pc}

00001d08 <trace_ext_get_thread_id>:
trace_ext_get_thread_id():
/home/aom1/Work/Linux/target/STM32MP1-DK2/bootloader/buildroot/optee-os-custom/lib/libutee/trace_ext.c:31
    1d08:	b480      	push	{r7}
    1d0a:	af00      	add	r7, sp, #0
/home/aom1/Work/Linux/target/STM32MP1-DK2/bootloader/buildroot/optee-os-custom/lib/libutee/trace_ext.c:32
    1d0c:	f04f 33ff 	mov.w	r3, #4294967295	; 0xffffffff
/home/aom1/Work/Linux/target/STM32MP1-DK2/bootloader/buildroot/optee-os-custom/lib/libutee/trace_ext.c:33
    1d10:	4618      	mov	r0, r3
    1d12:	46bd      	mov	sp, r7
    1d14:	f85d 7b04 	ldr.w	r7, [sp], #4
    1d18:	4770      	bx	lr

00001d1a <printf>:
printf():
/home/aom1/Work/Linux/target/STM32MP1-DK2/bootloader/buildroot/optee-os-custom/lib/libutee/trace_ext.c:41
    1d1a:	b40f      	push	{r0, r1, r2, r3}
    1d1c:	b580      	push	{r7, lr}
    1d1e:	b0c2      	sub	sp, #264	; 0x108
    1d20:	af00      	add	r7, sp, #0
/home/aom1/Work/Linux/target/STM32MP1-DK2/bootloader/buildroot/optee-os-custom/lib/libutee/trace_ext.c:46
    1d22:	f7fe fd95 	bl	850 <trace_get_level>
    1d26:	4603      	mov	r3, r0
    1d28:	2b00      	cmp	r3, #0
    1d2a:	dc01      	bgt.n	1d30 <printf+0x16>
/home/aom1/Work/Linux/target/STM32MP1-DK2/bootloader/buildroot/optee-os-custom/lib/libutee/trace_ext.c:47
    1d2c:	2300      	movs	r3, #0
    1d2e:	e021      	b.n	1d74 <printf+0x5a>
/home/aom1/Work/Linux/target/STM32MP1-DK2/bootloader/buildroot/optee-os-custom/lib/libutee/trace_ext.c:49
    1d30:	f507 728a 	add.w	r2, r7, #276	; 0x114
    1d34:	f507 7384 	add.w	r3, r7, #264	; 0x108
    1d38:	f5a3 7384 	sub.w	r3, r3, #264	; 0x108
    1d3c:	601a      	str	r2, [r3, #0]
/home/aom1/Work/Linux/target/STM32MP1-DK2/bootloader/buildroot/optee-os-custom/lib/libutee/trace_ext.c:50
    1d3e:	f507 7384 	add.w	r3, r7, #264	; 0x108
    1d42:	f5a3 7384 	sub.w	r3, r3, #264	; 0x108
    1d46:	1d38      	adds	r0, r7, #4
    1d48:	681b      	ldr	r3, [r3, #0]
    1d4a:	f8d7 2110 	ldr.w	r2, [r7, #272]	; 0x110
    1d4e:	f44f 7180 	mov.w	r1, #256	; 0x100
    1d52:	f010 fb07 	bl	12364 <vsnprintf>
    1d56:	f8c7 0104 	str.w	r0, [r7, #260]	; 0x104
/home/aom1/Work/Linux/target/STM32MP1-DK2/bootloader/buildroot/optee-os-custom/lib/libutee/trace_ext.c:53
    1d5a:	f8d7 3104 	ldr.w	r3, [r7, #260]	; 0x104
    1d5e:	2b00      	cmp	r3, #0
    1d60:	da02      	bge.n	1d68 <printf+0x4e>
/home/aom1/Work/Linux/target/STM32MP1-DK2/bootloader/buildroot/optee-os-custom/lib/libutee/trace_ext.c:54
    1d62:	f8d7 3104 	ldr.w	r3, [r7, #260]	; 0x104
    1d66:	e005      	b.n	1d74 <printf+0x5a>
/home/aom1/Work/Linux/target/STM32MP1-DK2/bootloader/buildroot/optee-os-custom/lib/libutee/trace_ext.c:56
    1d68:	1d3b      	adds	r3, r7, #4
    1d6a:	4618      	mov	r0, r3
    1d6c:	f7ff ffbc 	bl	1ce8 <trace_ext_puts>
/home/aom1/Work/Linux/target/STM32MP1-DK2/bootloader/buildroot/optee-os-custom/lib/libutee/trace_ext.c:58
    1d70:	f8d7 3104 	ldr.w	r3, [r7, #260]	; 0x104
/home/aom1/Work/Linux/target/STM32MP1-DK2/bootloader/buildroot/optee-os-custom/lib/libutee/trace_ext.c:59 (discriminator 1)
    1d74:	4618      	mov	r0, r3
    1d76:	f507 7784 	add.w	r7, r7, #264	; 0x108
    1d7a:	46bd      	mov	sp, r7
    1d7c:	e8bd 4080 	ldmia.w	sp!, {r7, lr}
    1d80:	b004      	add	sp, #16
    1d82:	4770      	bx	lr

00001d84 <puts>:
puts():
/home/aom1/Work/Linux/target/STM32MP1-DK2/bootloader/buildroot/optee-os-custom/lib/libutee/trace_ext.c:62
    1d84:	b580      	push	{r7, lr}
    1d86:	b082      	sub	sp, #8
    1d88:	af00      	add	r7, sp, #0
    1d8a:	6078      	str	r0, [r7, #4]
/home/aom1/Work/Linux/target/STM32MP1-DK2/bootloader/buildroot/optee-os-custom/lib/libutee/trace_ext.c:63
    1d8c:	f7fe fd60 	bl	850 <trace_get_level>
    1d90:	4603      	mov	r3, r0
    1d92:	2b00      	cmp	r3, #0
    1d94:	dd07      	ble.n	1da6 <puts+0x22>
/home/aom1/Work/Linux/target/STM32MP1-DK2/bootloader/buildroot/optee-os-custom/lib/libutee/trace_ext.c:64
    1d96:	6878      	ldr	r0, [r7, #4]
    1d98:	f7ff ffa6 	bl	1ce8 <trace_ext_puts>
/home/aom1/Work/Linux/target/STM32MP1-DK2/bootloader/buildroot/optee-os-custom/lib/libutee/trace_ext.c:65
    1d9c:	4b04      	ldr	r3, [pc, #16]	; (1db0 <puts+0x2c>)
    1d9e:	447b      	add	r3, pc
    1da0:	4618      	mov	r0, r3
    1da2:	f7ff ffa1 	bl	1ce8 <trace_ext_puts>
/home/aom1/Work/Linux/target/STM32MP1-DK2/bootloader/buildroot/optee-os-custom/lib/libutee/trace_ext.c:67
    1da6:	2301      	movs	r3, #1
/home/aom1/Work/Linux/target/STM32MP1-DK2/bootloader/buildroot/optee-os-custom/lib/libutee/trace_ext.c:68
    1da8:	4618      	mov	r0, r3
    1daa:	3708      	adds	r7, #8
    1dac:	46bd      	mov	sp, r7
    1dae:	bd80      	pop	{r7, pc}
    1db0:	00010b96 	.word	0x00010b96

00001db4 <putchar>:
putchar():
/home/aom1/Work/Linux/target/STM32MP1-DK2/bootloader/buildroot/optee-os-custom/lib/libutee/trace_ext.c:71
    1db4:	b580      	push	{r7, lr}
    1db6:	b084      	sub	sp, #16
    1db8:	af00      	add	r7, sp, #0
    1dba:	6078      	str	r0, [r7, #4]
/home/aom1/Work/Linux/target/STM32MP1-DK2/bootloader/buildroot/optee-os-custom/lib/libutee/trace_ext.c:72
    1dbc:	687b      	ldr	r3, [r7, #4]
    1dbe:	b2db      	uxtb	r3, r3
    1dc0:	733b      	strb	r3, [r7, #12]
    1dc2:	2300      	movs	r3, #0
    1dc4:	737b      	strb	r3, [r7, #13]
/home/aom1/Work/Linux/target/STM32MP1-DK2/bootloader/buildroot/optee-os-custom/lib/libutee/trace_ext.c:74
    1dc6:	f7fe fd43 	bl	850 <trace_get_level>
    1dca:	4603      	mov	r3, r0
    1dcc:	2b00      	cmp	r3, #0
    1dce:	dd04      	ble.n	1dda <putchar+0x26>
/home/aom1/Work/Linux/target/STM32MP1-DK2/bootloader/buildroot/optee-os-custom/lib/libutee/trace_ext.c:75
    1dd0:	f107 030c 	add.w	r3, r7, #12
    1dd4:	4618      	mov	r0, r3
    1dd6:	f7ff ff87 	bl	1ce8 <trace_ext_puts>
/home/aom1/Work/Linux/target/STM32MP1-DK2/bootloader/buildroot/optee-os-custom/lib/libutee/trace_ext.c:81
    1dda:	687b      	ldr	r3, [r7, #4]
    1ddc:	b2db      	uxtb	r3, r3
/home/aom1/Work/Linux/target/STM32MP1-DK2/bootloader/buildroot/optee-os-custom/lib/libutee/trace_ext.c:82
    1dde:	4618      	mov	r0, r3
    1de0:	3710      	adds	r7, #16
    1de2:	46bd      	mov	sp, r7
    1de4:	bd80      	pop	{r7, pc}
    1de6:	bf00      	nop

00001de8 <copy_param>:
copy_param():
/home/aom1/Work/Linux/target/STM32MP1-DK2/bootloader/buildroot/optee-os-custom/lib/libutee/tee_api.c:29
    1de8:	e92d 4fb0 	stmdb	sp!, {r4, r5, r7, r8, r9, sl, fp, lr}
    1dec:	b090      	sub	sp, #64	; 0x40
    1dee:	af00      	add	r7, sp, #0
    1df0:	61f8      	str	r0, [r7, #28]
    1df2:	61b9      	str	r1, [r7, #24]
    1df4:	617a      	str	r2, [r7, #20]
    1df6:	613b      	str	r3, [r7, #16]
/home/aom1/Work/Linux/target/STM32MP1-DK2/bootloader/buildroot/optee-os-custom/lib/libutee/tee_api.c:30
    1df8:	2300      	movs	r3, #0
    1dfa:	63fb      	str	r3, [r7, #60]	; 0x3c
/home/aom1/Work/Linux/target/STM32MP1-DK2/bootloader/buildroot/optee-os-custom/lib/libutee/tee_api.c:31
    1dfc:	2300      	movs	r3, #0
    1dfe:	63bb      	str	r3, [r7, #56]	; 0x38
/home/aom1/Work/Linux/target/STM32MP1-DK2/bootloader/buildroot/optee-os-custom/lib/libutee/tee_api.c:32
    1e00:	2300      	movs	r3, #0
    1e02:	637b      	str	r3, [r7, #52]	; 0x34
/home/aom1/Work/Linux/target/STM32MP1-DK2/bootloader/buildroot/optee-os-custom/lib/libutee/tee_api.c:33
    1e04:	2308      	movs	r3, #8
    1e06:	62fb      	str	r3, [r7, #44]	; 0x2c
/home/aom1/Work/Linux/target/STM32MP1-DK2/bootloader/buildroot/optee-os-custom/lib/libutee/tee_api.c:34
    1e08:	2300      	movs	r3, #0
    1e0a:	623b      	str	r3, [r7, #32]
/home/aom1/Work/Linux/target/STM32MP1-DK2/bootloader/buildroot/optee-os-custom/lib/libutee/tee_api.c:35
    1e0c:	2300      	movs	r3, #0
    1e0e:	633b      	str	r3, [r7, #48]	; 0x30
/home/aom1/Work/Linux/target/STM32MP1-DK2/bootloader/buildroot/optee-os-custom/lib/libutee/tee_api.c:36
    1e10:	2300      	movs	r3, #0
    1e12:	62bb      	str	r3, [r7, #40]	; 0x28
/home/aom1/Work/Linux/target/STM32MP1-DK2/bootloader/buildroot/optee-os-custom/lib/libutee/tee_api.c:37
    1e14:	2301      	movs	r3, #1
    1e16:	627b      	str	r3, [r7, #36]	; 0x24
/home/aom1/Work/Linux/target/STM32MP1-DK2/bootloader/buildroot/optee-os-custom/lib/libutee/tee_api.c:45
    1e18:	693b      	ldr	r3, [r7, #16]
    1e1a:	2200      	movs	r2, #0
    1e1c:	601a      	str	r2, [r3, #0]
/home/aom1/Work/Linux/target/STM32MP1-DK2/bootloader/buildroot/optee-os-custom/lib/libutee/tee_api.c:46
    1e1e:	6e3b      	ldr	r3, [r7, #96]	; 0x60
    1e20:	2200      	movs	r2, #0
    1e22:	601a      	str	r2, [r3, #0]
/home/aom1/Work/Linux/target/STM32MP1-DK2/bootloader/buildroot/optee-os-custom/lib/libutee/tee_api.c:47
    1e24:	2300      	movs	r3, #0
    1e26:	63fb      	str	r3, [r7, #60]	; 0x3c
    1e28:	e040      	b.n	1eac <copy_param+0xc4>
/home/aom1/Work/Linux/target/STM32MP1-DK2/bootloader/buildroot/optee-os-custom/lib/libutee/tee_api.c:48
    1e2a:	6bfb      	ldr	r3, [r7, #60]	; 0x3c
    1e2c:	009b      	lsls	r3, r3, #2
    1e2e:	6e7a      	ldr	r2, [r7, #100]	; 0x64
    1e30:	4413      	add	r3, r2
    1e32:	2200      	movs	r2, #0
    1e34:	601a      	str	r2, [r3, #0]
/home/aom1/Work/Linux/target/STM32MP1-DK2/bootloader/buildroot/optee-os-custom/lib/libutee/tee_api.c:49
    1e36:	6bfb      	ldr	r3, [r7, #60]	; 0x3c
    1e38:	009b      	lsls	r3, r3, #2
    1e3a:	69ba      	ldr	r2, [r7, #24]
    1e3c:	fa22 f303 	lsr.w	r3, r2, r3
    1e40:	f003 030f 	and.w	r3, r3, #15
    1e44:	3b05      	subs	r3, #5
    1e46:	2b02      	cmp	r3, #2
    1e48:	d82a      	bhi.n	1ea0 <copy_param+0xb8>
/home/aom1/Work/Linux/target/STM32MP1-DK2/bootloader/buildroot/optee-os-custom/lib/libutee/tee_api.c:53
    1e4a:	6bfb      	ldr	r3, [r7, #60]	; 0x3c
    1e4c:	00db      	lsls	r3, r3, #3
    1e4e:	697a      	ldr	r2, [r7, #20]
    1e50:	4413      	add	r3, r2
    1e52:	681b      	ldr	r3, [r3, #0]
    1e54:	633b      	str	r3, [r7, #48]	; 0x30
/home/aom1/Work/Linux/target/STM32MP1-DK2/bootloader/buildroot/optee-os-custom/lib/libutee/tee_api.c:54
    1e56:	6bfb      	ldr	r3, [r7, #60]	; 0x3c
    1e58:	00db      	lsls	r3, r3, #3
    1e5a:	697a      	ldr	r2, [r7, #20]
    1e5c:	4413      	add	r3, r2
    1e5e:	685b      	ldr	r3, [r3, #4]
    1e60:	62bb      	str	r3, [r7, #40]	; 0x28
/home/aom1/Work/Linux/target/STM32MP1-DK2/bootloader/buildroot/optee-os-custom/lib/libutee/tee_api.c:64
    1e62:	6b3b      	ldr	r3, [r7, #48]	; 0x30
    1e64:	2b00      	cmp	r3, #0
    1e66:	d01d      	beq.n	1ea4 <copy_param+0xbc>
/home/aom1/Work/Linux/target/STM32MP1-DK2/bootloader/buildroot/optee-os-custom/lib/libutee/tee_api.c:64 (discriminator 1)
    1e68:	6abb      	ldr	r3, [r7, #40]	; 0x28
    1e6a:	2b00      	cmp	r3, #0
    1e6c:	d01a      	beq.n	1ea4 <copy_param+0xbc>
/home/aom1/Work/Linux/target/STM32MP1-DK2/bootloader/buildroot/optee-os-custom/lib/libutee/tee_api.c:65 (discriminator 2)
    1e6e:	6aba      	ldr	r2, [r7, #40]	; 0x28
    1e70:	6b39      	ldr	r1, [r7, #48]	; 0x30
    1e72:	6a78      	ldr	r0, [r7, #36]	; 0x24
    1e74:	f000 fab0 	bl	23d8 <TEE_CheckMemoryAccessRights>
    1e78:	4603      	mov	r3, r0
/home/aom1/Work/Linux/target/STM32MP1-DK2/bootloader/buildroot/optee-os-custom/lib/libutee/tee_api.c:64 (discriminator 2)
    1e7a:	2b00      	cmp	r3, #0
    1e7c:	d112      	bne.n	1ea4 <copy_param+0xbc>
/home/aom1/Work/Linux/target/STM32MP1-DK2/bootloader/buildroot/optee-os-custom/lib/libutee/tee_api.c:66
    1e7e:	f107 0220 	add.w	r2, r7, #32
    1e82:	6bfb      	ldr	r3, [r7, #60]	; 0x3c
    1e84:	4413      	add	r3, r2
    1e86:	2201      	movs	r2, #1
    1e88:	701a      	strb	r2, [r3, #0]
/home/aom1/Work/Linux/target/STM32MP1-DK2/bootloader/buildroot/optee-os-custom/lib/libutee/tee_api.c:67
    1e8a:	6afa      	ldr	r2, [r7, #44]	; 0x2c
    1e8c:	6abb      	ldr	r3, [r7, #40]	; 0x28
    1e8e:	4413      	add	r3, r2
    1e90:	1e5a      	subs	r2, r3, #1
    1e92:	6afb      	ldr	r3, [r7, #44]	; 0x2c
    1e94:	425b      	negs	r3, r3
    1e96:	4013      	ands	r3, r2
    1e98:	6b7a      	ldr	r2, [r7, #52]	; 0x34
    1e9a:	4413      	add	r3, r2
    1e9c:	637b      	str	r3, [r7, #52]	; 0x34
/home/aom1/Work/Linux/target/STM32MP1-DK2/bootloader/buildroot/optee-os-custom/lib/libutee/tee_api.c:69
    1e9e:	e001      	b.n	1ea4 <copy_param+0xbc>
/home/aom1/Work/Linux/target/STM32MP1-DK2/bootloader/buildroot/optee-os-custom/lib/libutee/tee_api.c:71
    1ea0:	bf00      	nop
    1ea2:	e000      	b.n	1ea6 <copy_param+0xbe>
/home/aom1/Work/Linux/target/STM32MP1-DK2/bootloader/buildroot/optee-os-custom/lib/libutee/tee_api.c:69
    1ea4:	bf00      	nop
/home/aom1/Work/Linux/target/STM32MP1-DK2/bootloader/buildroot/optee-os-custom/lib/libutee/tee_api.c:47 (discriminator 2)
    1ea6:	6bfb      	ldr	r3, [r7, #60]	; 0x3c
    1ea8:	3301      	adds	r3, #1
    1eaa:	63fb      	str	r3, [r7, #60]	; 0x3c
/home/aom1/Work/Linux/target/STM32MP1-DK2/bootloader/buildroot/optee-os-custom/lib/libutee/tee_api.c:47 (discriminator 1)
    1eac:	6bfb      	ldr	r3, [r7, #60]	; 0x3c
    1eae:	2b03      	cmp	r3, #3
    1eb0:	d9bb      	bls.n	1e2a <copy_param+0x42>
/home/aom1/Work/Linux/target/STM32MP1-DK2/bootloader/buildroot/optee-os-custom/lib/libutee/tee_api.c:75
    1eb2:	6b7b      	ldr	r3, [r7, #52]	; 0x34
    1eb4:	2b00      	cmp	r3, #0
    1eb6:	d011      	beq.n	1edc <copy_param+0xf4>
/home/aom1/Work/Linux/target/STM32MP1-DK2/bootloader/buildroot/optee-os-custom/lib/libutee/tee_api.c:76
    1eb8:	2104      	movs	r1, #4
    1eba:	6b78      	ldr	r0, [r7, #52]	; 0x34
    1ebc:	f004 fd50 	bl	6960 <tee_map_zi>
    1ec0:	63b8      	str	r0, [r7, #56]	; 0x38
/home/aom1/Work/Linux/target/STM32MP1-DK2/bootloader/buildroot/optee-os-custom/lib/libutee/tee_api.c:77
    1ec2:	6bbb      	ldr	r3, [r7, #56]	; 0x38
    1ec4:	2b00      	cmp	r3, #0
    1ec6:	d103      	bne.n	1ed0 <copy_param+0xe8>
/home/aom1/Work/Linux/target/STM32MP1-DK2/bootloader/buildroot/optee-os-custom/lib/libutee/tee_api.c:78
    1ec8:	230c      	movs	r3, #12
    1eca:	f6cf 73ff 	movt	r3, #65535	; 0xffff
    1ece:	e0b5      	b.n	203c <copy_param+0x254>
/home/aom1/Work/Linux/target/STM32MP1-DK2/bootloader/buildroot/optee-os-custom/lib/libutee/tee_api.c:79
    1ed0:	693b      	ldr	r3, [r7, #16]
    1ed2:	6bba      	ldr	r2, [r7, #56]	; 0x38
    1ed4:	601a      	str	r2, [r3, #0]
/home/aom1/Work/Linux/target/STM32MP1-DK2/bootloader/buildroot/optee-os-custom/lib/libutee/tee_api.c:80
    1ed6:	6e3b      	ldr	r3, [r7, #96]	; 0x60
    1ed8:	6b7a      	ldr	r2, [r7, #52]	; 0x34
    1eda:	601a      	str	r2, [r3, #0]
/home/aom1/Work/Linux/target/STM32MP1-DK2/bootloader/buildroot/optee-os-custom/lib/libutee/tee_api.c:83
    1edc:	69bb      	ldr	r3, [r7, #24]
    1ede:	2200      	movs	r2, #0
    1ee0:	60bb      	str	r3, [r7, #8]
    1ee2:	60fa      	str	r2, [r7, #12]
    1ee4:	69fb      	ldr	r3, [r7, #28]
    1ee6:	e9d7 1202 	ldrd	r1, r2, [r7, #8]
    1eea:	e9c3 1200 	strd	r1, r2, [r3]
/home/aom1/Work/Linux/target/STM32MP1-DK2/bootloader/buildroot/optee-os-custom/lib/libutee/tee_api.c:84
    1eee:	2300      	movs	r3, #0
    1ef0:	63fb      	str	r3, [r7, #60]	; 0x3c
    1ef2:	e09e      	b.n	2032 <copy_param+0x24a>
/home/aom1/Work/Linux/target/STM32MP1-DK2/bootloader/buildroot/optee-os-custom/lib/libutee/tee_api.c:85
    1ef4:	6bfb      	ldr	r3, [r7, #60]	; 0x3c
    1ef6:	009b      	lsls	r3, r3, #2
    1ef8:	69ba      	ldr	r2, [r7, #24]
    1efa:	fa22 f303 	lsr.w	r3, r2, r3
    1efe:	f003 030f 	and.w	r3, r3, #15
    1f02:	2b07      	cmp	r3, #7
    1f04:	d87c      	bhi.n	2000 <copy_param+0x218>
    1f06:	2b05      	cmp	r3, #5
    1f08:	d225      	bcs.n	1f56 <copy_param+0x16e>
    1f0a:	2b01      	cmp	r3, #1
    1f0c:	d001      	beq.n	1f12 <copy_param+0x12a>
    1f0e:	2b03      	cmp	r3, #3
    1f10:	d176      	bne.n	2000 <copy_param+0x218>
/home/aom1/Work/Linux/target/STM32MP1-DK2/bootloader/buildroot/optee-os-custom/lib/libutee/tee_api.c:88
    1f12:	6bfb      	ldr	r3, [r7, #60]	; 0x3c
    1f14:	00db      	lsls	r3, r3, #3
    1f16:	697a      	ldr	r2, [r7, #20]
    1f18:	4413      	add	r3, r2
    1f1a:	681a      	ldr	r2, [r3, #0]
    1f1c:	6bfb      	ldr	r3, [r7, #60]	; 0x3c
    1f1e:	005b      	lsls	r3, r3, #1
    1f20:	2100      	movs	r1, #0
    1f22:	4614      	mov	r4, r2
    1f24:	460d      	mov	r5, r1
    1f26:	69fa      	ldr	r2, [r7, #28]
    1f28:	3301      	adds	r3, #1
    1f2a:	00db      	lsls	r3, r3, #3
    1f2c:	4413      	add	r3, r2
    1f2e:	e9c3 4500 	strd	r4, r5, [r3]
/home/aom1/Work/Linux/target/STM32MP1-DK2/bootloader/buildroot/optee-os-custom/lib/libutee/tee_api.c:89
    1f32:	6bfb      	ldr	r3, [r7, #60]	; 0x3c
    1f34:	00db      	lsls	r3, r3, #3
    1f36:	697a      	ldr	r2, [r7, #20]
    1f38:	4413      	add	r3, r2
    1f3a:	685a      	ldr	r2, [r3, #4]
    1f3c:	6bfb      	ldr	r3, [r7, #60]	; 0x3c
    1f3e:	005b      	lsls	r3, r3, #1
    1f40:	3301      	adds	r3, #1
    1f42:	2100      	movs	r1, #0
    1f44:	4690      	mov	r8, r2
    1f46:	4689      	mov	r9, r1
    1f48:	69fa      	ldr	r2, [r7, #28]
    1f4a:	3301      	adds	r3, #1
    1f4c:	00db      	lsls	r3, r3, #3
    1f4e:	4413      	add	r3, r2
    1f50:	e9c3 8900 	strd	r8, r9, [r3]
/home/aom1/Work/Linux/target/STM32MP1-DK2/bootloader/buildroot/optee-os-custom/lib/libutee/tee_api.c:90
    1f54:	e06a      	b.n	202c <copy_param+0x244>
/home/aom1/Work/Linux/target/STM32MP1-DK2/bootloader/buildroot/optee-os-custom/lib/libutee/tee_api.c:94
    1f56:	6bfb      	ldr	r3, [r7, #60]	; 0x3c
    1f58:	00db      	lsls	r3, r3, #3
    1f5a:	697a      	ldr	r2, [r7, #20]
    1f5c:	4413      	add	r3, r2
    1f5e:	685b      	ldr	r3, [r3, #4]
    1f60:	62bb      	str	r3, [r7, #40]	; 0x28
/home/aom1/Work/Linux/target/STM32MP1-DK2/bootloader/buildroot/optee-os-custom/lib/libutee/tee_api.c:95
    1f62:	f107 0220 	add.w	r2, r7, #32
    1f66:	6bfb      	ldr	r3, [r7, #60]	; 0x3c
    1f68:	4413      	add	r3, r2
    1f6a:	781b      	ldrb	r3, [r3, #0]
    1f6c:	2b00      	cmp	r3, #0
    1f6e:	d025      	beq.n	1fbc <copy_param+0x1d4>
/home/aom1/Work/Linux/target/STM32MP1-DK2/bootloader/buildroot/optee-os-custom/lib/libutee/tee_api.c:96
    1f70:	6bbb      	ldr	r3, [r7, #56]	; 0x38
    1f72:	633b      	str	r3, [r7, #48]	; 0x30
/home/aom1/Work/Linux/target/STM32MP1-DK2/bootloader/buildroot/optee-os-custom/lib/libutee/tee_api.c:97
    1f74:	6bfb      	ldr	r3, [r7, #60]	; 0x3c
    1f76:	009b      	lsls	r3, r3, #2
    1f78:	6e7a      	ldr	r2, [r7, #100]	; 0x64
    1f7a:	4413      	add	r3, r2
    1f7c:	6bba      	ldr	r2, [r7, #56]	; 0x38
    1f7e:	601a      	str	r2, [r3, #0]
/home/aom1/Work/Linux/target/STM32MP1-DK2/bootloader/buildroot/optee-os-custom/lib/libutee/tee_api.c:98
    1f80:	6afa      	ldr	r2, [r7, #44]	; 0x2c
    1f82:	6abb      	ldr	r3, [r7, #40]	; 0x28
    1f84:	4413      	add	r3, r2
    1f86:	1e5a      	subs	r2, r3, #1
    1f88:	6afb      	ldr	r3, [r7, #44]	; 0x2c
    1f8a:	425b      	negs	r3, r3
    1f8c:	4013      	ands	r3, r2
    1f8e:	6bba      	ldr	r2, [r7, #56]	; 0x38
    1f90:	4413      	add	r3, r2
    1f92:	63bb      	str	r3, [r7, #56]	; 0x38
/home/aom1/Work/Linux/target/STM32MP1-DK2/bootloader/buildroot/optee-os-custom/lib/libutee/tee_api.c:99
    1f94:	6bfb      	ldr	r3, [r7, #60]	; 0x3c
    1f96:	009b      	lsls	r3, r3, #2
    1f98:	69ba      	ldr	r2, [r7, #24]
    1f9a:	fa22 f303 	lsr.w	r3, r2, r3
    1f9e:	f003 030f 	and.w	r3, r3, #15
    1fa2:	2b06      	cmp	r3, #6
    1fa4:	d010      	beq.n	1fc8 <copy_param+0x1e0>
/home/aom1/Work/Linux/target/STM32MP1-DK2/bootloader/buildroot/optee-os-custom/lib/libutee/tee_api.c:101
    1fa6:	6bfb      	ldr	r3, [r7, #60]	; 0x3c
    1fa8:	00db      	lsls	r3, r3, #3
    1faa:	697a      	ldr	r2, [r7, #20]
    1fac:	4413      	add	r3, r2
    1fae:	681b      	ldr	r3, [r3, #0]
    1fb0:	6aba      	ldr	r2, [r7, #40]	; 0x28
    1fb2:	4619      	mov	r1, r3
    1fb4:	6b38      	ldr	r0, [r7, #48]	; 0x30
    1fb6:	f00e ffaa 	bl	10f0e <memcpy>
    1fba:	e005      	b.n	1fc8 <copy_param+0x1e0>
/home/aom1/Work/Linux/target/STM32MP1-DK2/bootloader/buildroot/optee-os-custom/lib/libutee/tee_api.c:103
    1fbc:	6bfb      	ldr	r3, [r7, #60]	; 0x3c
    1fbe:	00db      	lsls	r3, r3, #3
    1fc0:	697a      	ldr	r2, [r7, #20]
    1fc2:	4413      	add	r3, r2
    1fc4:	681b      	ldr	r3, [r3, #0]
    1fc6:	633b      	str	r3, [r7, #48]	; 0x30
/home/aom1/Work/Linux/target/STM32MP1-DK2/bootloader/buildroot/optee-os-custom/lib/libutee/tee_api.c:105
    1fc8:	6b3a      	ldr	r2, [r7, #48]	; 0x30
    1fca:	6bfb      	ldr	r3, [r7, #60]	; 0x3c
    1fcc:	005b      	lsls	r3, r3, #1
    1fce:	2100      	movs	r1, #0
    1fd0:	4692      	mov	sl, r2
    1fd2:	468b      	mov	fp, r1
    1fd4:	69fa      	ldr	r2, [r7, #28]
    1fd6:	3301      	adds	r3, #1
    1fd8:	00db      	lsls	r3, r3, #3
    1fda:	4413      	add	r3, r2
    1fdc:	e9c3 ab00 	strd	sl, fp, [r3]
/home/aom1/Work/Linux/target/STM32MP1-DK2/bootloader/buildroot/optee-os-custom/lib/libutee/tee_api.c:106
    1fe0:	6bfb      	ldr	r3, [r7, #60]	; 0x3c
    1fe2:	005b      	lsls	r3, r3, #1
    1fe4:	3301      	adds	r3, #1
    1fe6:	6aba      	ldr	r2, [r7, #40]	; 0x28
    1fe8:	2100      	movs	r1, #0
    1fea:	603a      	str	r2, [r7, #0]
    1fec:	6079      	str	r1, [r7, #4]
    1fee:	69fa      	ldr	r2, [r7, #28]
    1ff0:	3301      	adds	r3, #1
    1ff2:	00db      	lsls	r3, r3, #3
    1ff4:	4413      	add	r3, r2
    1ff6:	e9d7 1200 	ldrd	r1, r2, [r7]
    1ffa:	e9c3 1200 	strd	r1, r2, [r3]
/home/aom1/Work/Linux/target/STM32MP1-DK2/bootloader/buildroot/optee-os-custom/lib/libutee/tee_api.c:107
    1ffe:	e015      	b.n	202c <copy_param+0x244>
/home/aom1/Work/Linux/target/STM32MP1-DK2/bootloader/buildroot/optee-os-custom/lib/libutee/tee_api.c:109
    2000:	6bfb      	ldr	r3, [r7, #60]	; 0x3c
    2002:	005b      	lsls	r3, r3, #1
    2004:	69fa      	ldr	r2, [r7, #28]
    2006:	3301      	adds	r3, #1
    2008:	00db      	lsls	r3, r3, #3
    200a:	4413      	add	r3, r2
    200c:	efc0 0010 	vmov.i32	d16, #0	; 0x00000000
    2010:	edc3 0b00 	vstr	d16, [r3]
/home/aom1/Work/Linux/target/STM32MP1-DK2/bootloader/buildroot/optee-os-custom/lib/libutee/tee_api.c:110
    2014:	6bfb      	ldr	r3, [r7, #60]	; 0x3c
    2016:	005b      	lsls	r3, r3, #1
    2018:	3301      	adds	r3, #1
    201a:	69fa      	ldr	r2, [r7, #28]
    201c:	3301      	adds	r3, #1
    201e:	00db      	lsls	r3, r3, #3
    2020:	4413      	add	r3, r2
    2022:	efc0 0010 	vmov.i32	d16, #0	; 0x00000000
    2026:	edc3 0b00 	vstr	d16, [r3]
/home/aom1/Work/Linux/target/STM32MP1-DK2/bootloader/buildroot/optee-os-custom/lib/libutee/tee_api.c:111
    202a:	bf00      	nop
/home/aom1/Work/Linux/target/STM32MP1-DK2/bootloader/buildroot/optee-os-custom/lib/libutee/tee_api.c:84 (discriminator 2)
    202c:	6bfb      	ldr	r3, [r7, #60]	; 0x3c
    202e:	3301      	adds	r3, #1
    2030:	63fb      	str	r3, [r7, #60]	; 0x3c
/home/aom1/Work/Linux/target/STM32MP1-DK2/bootloader/buildroot/optee-os-custom/lib/libutee/tee_api.c:84 (discriminator 1)
    2032:	6bfb      	ldr	r3, [r7, #60]	; 0x3c
    2034:	2b03      	cmp	r3, #3
    2036:	f67f af5d 	bls.w	1ef4 <copy_param+0x10c>
/home/aom1/Work/Linux/target/STM32MP1-DK2/bootloader/buildroot/optee-os-custom/lib/libutee/tee_api.c:115
    203a:	2300      	movs	r3, #0
/home/aom1/Work/Linux/target/STM32MP1-DK2/bootloader/buildroot/optee-os-custom/lib/libutee/tee_api.c:116 (discriminator 1)
    203c:	4618      	mov	r0, r3
    203e:	3740      	adds	r7, #64	; 0x40
    2040:	46bd      	mov	sp, r7
    2042:	e8bd 8fb0 	ldmia.w	sp!, {r4, r5, r7, r8, r9, sl, fp, pc}

00002046 <update_out_param>:
update_out_param():
/home/aom1/Work/Linux/target/STM32MP1-DK2/bootloader/buildroot/optee-os-custom/lib/libutee/tee_api.c:121
    2046:	b580      	push	{r7, lr}
    2048:	b08a      	sub	sp, #40	; 0x28
    204a:	af00      	add	r7, sp, #0
    204c:	60f8      	str	r0, [r7, #12]
    204e:	60b9      	str	r1, [r7, #8]
    2050:	607a      	str	r2, [r7, #4]
/home/aom1/Work/Linux/target/STM32MP1-DK2/bootloader/buildroot/optee-os-custom/lib/libutee/tee_api.c:123
    2052:	687b      	ldr	r3, [r7, #4]
    2054:	e9d3 2300 	ldrd	r2, r3, [r3]
    2058:	4613      	mov	r3, r2
    205a:	623b      	str	r3, [r7, #32]
/home/aom1/Work/Linux/target/STM32MP1-DK2/bootloader/buildroot/optee-os-custom/lib/libutee/tee_api.c:125
    205c:	2300      	movs	r3, #0
    205e:	627b      	str	r3, [r7, #36]	; 0x24
    2060:	e05d      	b.n	211e <update_out_param+0xd8>
/home/aom1/Work/Linux/target/STM32MP1-DK2/bootloader/buildroot/optee-os-custom/lib/libutee/tee_api.c:126
    2062:	6a7b      	ldr	r3, [r7, #36]	; 0x24
    2064:	005b      	lsls	r3, r3, #1
    2066:	687a      	ldr	r2, [r7, #4]
    2068:	3301      	adds	r3, #1
    206a:	00db      	lsls	r3, r3, #3
    206c:	4413      	add	r3, r2
    206e:	e9d3 2300 	ldrd	r2, r3, [r3]
    2072:	4613      	mov	r3, r2
