
out/ta/trusted_keys/f04a0fe7-1f5d-4b9b-abf7-619b85b4ce8c.elf:     file format elf32-littlearm
out/ta/trusted_keys/f04a0fe7-1f5d-4b9b-abf7-619b85b4ce8c.elf
architecture: armv7, flags 0x00000150:
HAS_SYMS, DYNAMIC, D_PAGED
start address 0x00000ad8

Program Header:
    LOAD off    0x00001000 vaddr 0x00000000 paddr 0x00000000 align 2**12
         filesz 0x0000c138 memsz 0x0000c138 flags r-x
    LOAD off    0x0000e000 vaddr 0x0000d000 paddr 0x0000d000 align 2**12
         filesz 0x00000368 memsz 0x000073b8 flags rw-
 DYNAMIC off    0x0000e000 vaddr 0x0000d000 paddr 0x0000d000 align 2**2
         filesz 0x00000088 memsz 0x00000088 flags rw-
   STACK off    0x00000000 vaddr 0x00000000 paddr 0x00000000 align 2**4
         filesz 0x00000000 memsz 0x00000000 flags rwx

Dynamic Section:
  HASH                 0x0000c10c
  GNU_HASH             0x0000c050
  STRTAB               0x0000c0dc
  SYMTAB               0x0000c07c
  STRSZ                0x0000002e
  SYMENT               0x00000010
  DEBUG                0x00000000
  REL                  0x0000d0e0
  RELSZ                0x00000180
  RELENT               0x00000008
  FLAGS_1              0x08000000
  RELCOUNT             0x0000001d
private flags = 0x5000400: [Version5 EABI] [hard-float ABI]

Sections:
Idx Name          Size      VMA       LMA       File off  Algn
  0 .ta_head      00000020  00000000  00000000  00001000  2**3
                  CONTENTS, ALLOC, LOAD, READONLY, DATA
  1 .text         0000ae20  00000020  00000020  00001020  2**3
                  CONTENTS, ALLOC, LOAD, READONLY, CODE
  2 .rodata       00001210  0000ae40  0000ae40  0000be40  2**2
                  CONTENTS, ALLOC, LOAD, READONLY, DATA
  3 .gnu.hash     0000002c  0000c050  0000c050  0000d050  2**2
                  CONTENTS, ALLOC, LOAD, READONLY, DATA
  4 .dynsym       00000060  0000c07c  0000c07c  0000d07c  2**2
                  CONTENTS, ALLOC, LOAD, READONLY, DATA
  5 .dynstr       0000002e  0000c0dc  0000c0dc  0000d0dc  2**0
                  CONTENTS, ALLOC, LOAD, READONLY, DATA
  6 .hash         0000002c  0000c10c  0000c10c  0000d10c  2**2
                  CONTENTS, ALLOC, LOAD, READONLY, DATA
  7 .dynamic      00000088  0000d000  0000d000  0000e000  2**2
                  CONTENTS, ALLOC, LOAD, DATA
  8 .got          00000058  0000d088  0000d088  0000e088  2**2
                  CONTENTS, ALLOC, LOAD, DATA
  9 .rel.got      00000098  0000d1c8  0000d1c8  0000e1c8  2**2
                  CONTENTS, ALLOC, LOAD, READONLY, DATA
 10 .data         00000108  0000d260  0000d260  0000e260  2**2
                  CONTENTS, ALLOC, LOAD, DATA
 11 .bss          00007050  0000d368  0000d368  0000e368  2**2
                  ALLOC
 12 .debug_info   00019153  00000000  00000000  0000e368  2**0
                  CONTENTS, READONLY, DEBUGGING, OCTETS
 13 .debug_abbrev 0000444c  00000000  00000000  000274bb  2**0
                  CONTENTS, READONLY, DEBUGGING, OCTETS
 14 .debug_loc    000183eb  00000000  00000000  0002b907  2**0
                  CONTENTS, READONLY, DEBUGGING, OCTETS
 15 .debug_aranges 00000648  00000000  00000000  00043cf8  2**3
                  CONTENTS, READONLY, DEBUGGING, OCTETS
 16 .debug_ranges 00000e30  00000000  00000000  00044340  2**3
                  CONTENTS, READONLY, DEBUGGING, OCTETS
 17 .debug_macro  0001c852  00000000  00000000  00045170  2**0
                  CONTENTS, READONLY, DEBUGGING, OCTETS
 18 .debug_line   00011efd  00000000  00000000  000619c2  2**0
                  CONTENTS, READONLY, DEBUGGING, OCTETS
 19 .debug_str    0001923e  00000000  00000000  000738bf  2**0
                  CONTENTS, READONLY, DEBUGGING, OCTETS
 20 .comment      0000005d  00000000  00000000  0008cafd  2**0
                  CONTENTS, READONLY
 21 .ARM.attributes 00000031  00000000  00000000  0008cb5a  2**0
                  CONTENTS, READONLY
 22 .debug_frame  00002800  00000000  00000000  0008cb8c  2**2
                  CONTENTS, READONLY, DEBUGGING, OCTETS
 23 .rel.dyn      000000e8  0000d0e0  0000d0e0  0000e0e0  2**2
                  CONTENTS, ALLOC, LOAD, READONLY, DATA
SYMBOL TABLE:
00000000 l    d  .ta_head	00000000 .ta_head
00000020 l    d  .text	00000000 .text
0000ae40 l    d  .rodata	00000000 .rodata
0000c050 l    d  .gnu.hash	00000000 .gnu.hash
0000c07c l    d  .dynsym	00000000 .dynsym
0000c0dc l    d  .dynstr	00000000 .dynstr
0000c10c l    d  .hash	00000000 .hash
0000d000 l    d  .dynamic	00000000 .dynamic
0000d088 l    d  .got	00000000 .got
0000d1c8 l    d  .rel.got	00000000 .rel.got
0000d260 l    d  .data	00000000 .data
0000d368 l    d  .bss	00000000 .bss
00000000 l    d  .debug_info	00000000 .debug_info
00000000 l    d  .debug_abbrev	00000000 .debug_abbrev
00000000 l    d  .debug_loc	00000000 .debug_loc
00000000 l    d  .debug_aranges	00000000 .debug_aranges
00000000 l    d  .debug_ranges	00000000 .debug_ranges
00000000 l    d  .debug_macro	00000000 .debug_macro
00000000 l    d  .debug_line	00000000 .debug_line
00000000 l    d  .debug_str	00000000 .debug_str
00000000 l    d  .comment	00000000 .comment
00000000 l    d  .ARM.attributes	00000000 .ARM.attributes
00000000 l    d  .debug_frame	00000000 .debug_frame
0000d0e0 l    d  .rel.dyn	00000000 .rel.dyn
00000000 l    df *ABS*	00000000 user_ta_header.c
0000aea0 l     O .rodata	00000004 __compound_literal.4
0000aea4 l     O .rodata	00000004 __compound_literal.3
0000aea8 l     O .rodata	00000001 __compound_literal.2
0000aea9 l     O .rodata	00000001 __compound_literal.1
0000aeaa l     O .rodata	00000001 __compound_literal.0
00000000 l    df *ABS*	00000000 tee_api.c
00000020 l     F .text	00000066 update_out_param
00000196 l     F .text	00000182 copy_param
0000b41c l     O .rodata	0000000b __func__.0
0000d368 l     O .bss	00000004 tee_api_instance_data
00000000 l    df *ABS*	00000000 entry.c
00000620 l     F .text	00000284 huk_crypt
0000ae50 l     O .rodata	0000000a __func__.1
0000ae5a l     O .rodata	00000011 __func__.2
0000ae6b l     O .rodata	00000013 __func__.0
0000ae7e l     O .rodata	0000001b __func__.3
00000000 l    df *ABS*	00000000 ta_entry_a32.o
00000000 l    df *ABS*	00000000 memcpy.c
00000000 l    df *ABS*	00000000 trace.c
0000b385 l     O .rodata	00000005 lvl_strs.0
00000000 l    df *ABS*	00000000 snprintk.c
00000e88 l     F .text	00000724 kprintf.constprop.0
0000b3c2 l     O .rodata	00000011 HEXDIGITS
0000b3d3 l     O .rodata	00000011 hexdigits
00000000 l    df *ABS*	00000000 arm32_aeabi_ldivmod_a32.o
00000000 l    df *ABS*	00000000 arm32_aeabi_ldivmod.c
000015f4 l     F .text	0000008e ul_div_qr
00000000 l    df *ABS*	00000000 assert.c
00000000 l    df *ABS*	00000000 trace_ext.c
00000000 l    df *ABS*	00000000 tee_api_objects.c
00000000 l    df *ABS*	00000000 tee_api_operations.c
00002420 l     F .text	0000018c tee_buffer_update
00000000 l    df *ABS*	00000000 tee_api_panic.c
00004348 l     F .text	00000020 check_access
0000436c l     F .text	0000000a check_res.constprop.0
00000000 l    df *ABS*	00000000 tee_api_property.c
00004424 l     F .text	00000050 propset_get
00004474 l     F .text	00000014 is_propset_pseudo_handle
00004488 l     F .text	000000c0 propget_get_ext_prop
00004548 l     F .text	00000124 propget_get_property
0000aeb4 l     O .rodata	00000004 __compound_literal.3
0000aeb8 l     O .rodata	00000004 __compound_literal.2
0000aebc l     O .rodata	00000004 __compound_literal.1
0000aec0 l     O .rodata	00000004 __compound_literal.0
00000000 l    df *ABS*	00000000 tee_system_pta.c
00004c84 l     F .text	00000050 invoke_system_pta
0000aec4 l     O .rodata	00000010 uuid.2
0000aed4 l     O .rodata	0000000a __func__.1
0000aede l     O .rodata	00000017 __func__.0
0000d36c l     O .bss	00000004 sess.3
00000000 l    df *ABS*	00000000 utee_syscalls_a32.o
00000000 l    df *ABS*	00000000 user_ta_entry.c
00005330 l     F .text	0000006a _get_fn_array
0000539a l     F .text	0000006a _fini_iterate_phdr_cb
00005404 l     F .text	0000001c ta_header_get_session
00005420 l     F .text	00000064 to_utee_params
00005484 l     F .text	0000003c from_utee_params
000054c0 l     F .text	00000064 _init_iterate_phdr_cb
00005524 l     F .text	00000020 ta_header_save_params.part.0
00005640 l     F .text	0000006c ta_header_remove_session
0000b52c l     O .rodata	00000016 __func__.0
0000d370 l     O .bss	00000004 _num_mod_init
0000d374 l     O .bss	00000001 init_done
0000d2f8 l     O .data	00000008 ta_sessions
0000d300 l     O .data	00000008 __phdr_info_head
00000000 l    df *ABS*	00000000 abort.c
00000000 l    df *ABS*	00000000 base64.c
0000b549 l     O .rodata	00000041 base64_table
00000000 l    df *ABS*	00000000 tee_api_arith_mpi.c
00005a40 l     F .text	00000020 api_panic
00005a60 l     F .text	00000020 mpi_panic
00005a80 l     F .text	00000050 get_mpi
00005ad0 l     F .text	00000040 copy_mpi_to_bigint
00005b10 l     F .text	000000d8 bigint_binary
00005be8 l     F .text	00000010 mpi_is_odd
00005bf8 l     F .text	00000016 rng_read
00005c0e l     F .text	000004ba mpi_egcd
0000d3a8 l     O .bss	00003000 data.17
0000643c l     F .text	00000144 bigint_binary_mod
0000b641 l     O .rodata	00000008 __func__.14
0000b649 l     O .rodata	0000000e __func__.10
0000b657 l     O .rodata	00000009 __func__.2
0000b660 l     O .rodata	00000012 __func__.16
0000b672 l     O .rodata	0000000f __func__.15
0000b681 l     O .rodata	0000001f __func__.13
0000b6a0 l     O .rodata	00000019 __func__.12
0000b6b9 l     O .rodata	00000012 __func__.6
0000b6cb l     O .rodata	00000015 __func__.11
0000b6e0 l     O .rodata	0000000e __func__.9
0000b6ee l     O .rodata	0000000e __func__.8
0000b6fc l     O .rodata	0000000e __func__.7
0000b70a l     O .rodata	00000011 __func__.5
0000b71b l     O .rodata	00000018 __func__.4
0000b733 l     O .rodata	0000001d __func__.3
0000b750 l     O .rodata	00000019 __func__.1
0000b769 l     O .rodata	00000015 __func__.0
00000000 l    df *ABS*	00000000 tcb.c
0000b814 l     O .rodata	00000010 __func__.1
0000b824 l     O .rodata	00000010 __func__.0
000103a8 l     O .bss	00000004 _tls_size
000103ac l     O .bss	00000004 _tcb
00000000 l    df *ABS*	00000000 bignum.c
000072d8 l     F .text	00000024 mpi_safe_cond_assign
000072fc l     F .text	0000003a mpi_get_digit
00007336 l     F .text	00000364 mpi_mul_hlp
0000769a l     F .text	000000f4 mpi_montmul
0000778e l     F .text	0000005a mpi_montred
000077e8 l     F .text	00000026 mpi_montg_init.isra.0
0000780e l     F .text	00000086 mpi_bigendian_to_host.part.0
00007894 l     F .text	00000064 mpi_fill_random_internal
00007a08 l     F .text	00000036 mbedtls_mpi_resize_clear
00008eb4 l     F .text	00000084 mpi_check_small_factors
00009558 l     F .text	000001d8 mpi_miller_rabin
0000aef8 l     O .rodata	000002a0 small_prime
0000b198 l     O .rodata	00000024 gcd_pairs
00000000 l    df *ABS*	00000000 platform_util.c
0000d308 l     O .data	00000004 memset_func
00000000 l    df *ABS*	00000000 bget_malloc.c
0000a1dc l     F .text	00000020 raw_malloc_return_hook
0000a90a l     F .text	00000082 gen_malloc_add_pool
0000bf43 l     O .rodata	00000005 __func__.8
0000bf48 l     O .rodata	00000006 __func__.7
0000bf4e l     O .rodata	00000005 __func__.5
0000bf53 l     O .rodata	00000006 __func__.6
0000bf59 l     O .rodata	00000006 __func__.4
0000bf5f l     O .rodata	00000007 __func__.3
0000bf66 l     O .rodata	00000014 __func__.2
0000bf7a l     O .rodata	0000000e __func__.1
0000bf88 l     O .rodata	00000013 __func__.0
0000d30c l     O .data	0000005c malloc_ctx
00000000 l    df *ABS*	00000000 snprintf.c
00000000 l    df *ABS*	00000000 mempool.c
0000c024 l     O .rodata	00000013 __func__.2
0000c037 l     O .rodata	0000000b __func__.1
0000c042 l     O .rodata	0000000e __func__.0
00000000 l    df *ABS*	00000000 stack_check.c
00000000 l    df *ABS*	00000000 memset.c
00000000 l    df *ABS*	00000000 memzero_explicit.c
00000000 l    df *ABS*	00000000 memchr.c
00000000 l    df *ABS*	00000000 strlen.c
00000000 l    df *ABS*	00000000 memmove.c
00000000 l    df *ABS*	00000000 strcmp.c
00000000 l    df *ABS*	00000000 strlcpy.c
00000000 l    df *ABS*	00000000 consttime_memcmp.c
00000000 l    df *ABS*	00000000 
0000d000 l     O *ABS*	00000000 _DYNAMIC
0000d088 l     O *ABS*	00000000 _GLOBAL_OFFSET_TABLE_
0000ae00 l     F .text	00000010 ___utee_log_from_thumb
0000ae10 l     F .text	00000010 ___utee_check_access_rights_from_thumb
0000ae20 l     F .text	00000010 ___utee_cache_operation_from_thumb
0000ae30 l     F .text	00000010 ___utee_panic_from_thumb
00001894 g     F .text	00000058 putchar
00001cbc g     F .text	000000ac TEE_PopulateTransientObject
00006f0a g     F .text	00000004 TEE_BigIntConvertToFMM
00006b0c g     F .text	00000008 TEE_BigIntSquareMod
00006580 g     F .text	00000144 TEE_BigIntShiftRight
0000aa32 g     F .text	00000002 raw_malloc_add_pool
00004dc0 g     F .text	000000c0 tee_invoke_supp_plugin
00007970 g     F .text	00000098 mbedtls_mpi_grow
000016f8 g     F .text	000000b4 __l_divmod
000031a0 g     F .text	00000034 TEE_DigestUpdate
000005ee g     F .text	00000020 TEE_Realloc
00002fc0 g     F .text	0000012c TEE_SetOperationKey2
00004412 g     F .text	00000012 __utee_check_inout_annotation
0000a876 g     F .text	00000008 raw_free
000017fe g     F .text	00000072 printf
00001d68 g     F .text	00000022 TEE_InitRefAttribute
00004ea8 g     F .text	00000014 _utee_log
000003dc g     F .text	000000e4 TEE_InvokeTACommand
00004376 g     F .text	0000002e __utee_check_outbuf_annotation
00007904 g     F .text	00000028 mbedtls_mpi_init_mempool
00005144 g     F .text	00000014 _utee_cryp_random_number_generate
00007ebe g     F .text	0000006c mbedtls_mpi_write_binary
0000396c g     F .text	00000158 TEE_AEEncryptFinal
00000e20 g     F .text	0000000e vsnprintk
000084c0 g     F .text	00000068 mbedtls_mpi_sub_int
0000ad40 g     F .text	00000034 memmove
0000ab90 g     F .text	00000058 snprintf
000063e0 g     F .text	0000005c TEE_BigIntCmpS32
0000d2b8 g     O .data	00000004 __stack_chk_guard
00001d8a g     F .text	00000022 TEE_InitValueAttribute
00007a3e g     F .text	000000b6 mbedtls_mpi_shrink
0000677c g     F .text	00000020 TEE_BigIntAdd
000050a4 g     F .text	00000014 _utee_cryp_obj_restrict_usage
0000aeac g     O .rodata	00000004 ta_heap_size
00001c58 g     F .text	00000064 TEE_ResetTransientObject
000051cc g     F .text	00000018 _utee_asymm_operate
000058a0 g     F .text	0000000e _base64_enc_len
000086a0 g     F .text	00000158 mbedtls_mpi_read_string
0000328c g     F .text	00000074 TEE_CipherInit
000067bc g     F .text	000000a8 TEE_BigIntNeg
00005268 g     F .text	00000014 _utee_storage_free_enum
00000020 g       .text	00000000 __text_start
00004bec g     F .text	00000098 TEE_GetNextProperty
00002198 g     F .text	0000002c TEE_StartPersistentObjectEnumerator
00007fce g     F .text	00000078 mbedtls_mpi_shift_r
0000ab3c g     F .text	00000054 malloc_buffer_overlaps_heap
0000500c g     F .text	00000014 _utee_hash_init
00006ad4 g     F .text	0000001c TEE_BigIntSubMod
00009c4e g     F .text	00000246 mbedtls_mpi_gen_prime
00004920 g     F .text	0000009c TEE_GetPropertyAsBinaryBlock
00007ce0 g     F .text	00000022 mbedtls_mpi_get_bit
00007e10 g     F .text	00000042 mbedtls_mpi_read_binary
000037a4 g     F .text	00000070 TEE_AEInit
00000d60 g     F .text	00000058 trace_printf
00008f3e g     F .text	00000004 mbedtls_mpi_montmul
0000531c g     F .text	00000014 _utee_cache_operation
00000adc g     F .text	000000d8 memcpy
00006f0e g     F .text	0000009a TEE_BigIntConvertFromFMM
00004368 g     F .text	00000004 TEE_Panic
000015dc g     F .text	00000018 __aeabi_uldivmod
000030ec g     F .text	000000b4 TEE_CopyOperation
00001870 g     F .text	00000024 puts
00006fa8 g     F .text	000000f4 TEE_BigIntComputeFMM
0000a804 g     F .text	0000001c malloc_get_stats
0000057c g     F .text	00000016 TEE_GetREETime
0000aa34 g     F .text	00000018 raw_malloc_get_stats
00002108 g     F .text	00000068 TEE_AllocatePersistentObjectEnumerator
0000d264 g     O .data	00000054 ta_props
00003bf0 g     F .text	000000f0 TEE_AsymmetricEncrypt
000043a4 g     F .text	0000001a __utee_check_instring_annotation
0000a98c g     F .text	00000014 malloc
0000acec g     F .text	0000000a __ta_entry_c
00004b1c g     F .text	00000004 TEE_FreePropertyEnumerator
00001eac g     F .text	0000008c TEE_GenerateKey
0000abe8 g     F .text	0000000e vsnprintf
0000d260 g     O .data	00000004 trace_level
00006374 g     F .text	0000006c TEE_BigIntCmp
0000ae9c g     O .rodata	00000004 ta_num_props
0000a66c g     F .text	00000084 bgetr
000051fc g     F .text	00000018 _utee_storage_obj_open
0000ace0 g     F .text	0000000c mempool_free
00003300 g     F .text	00000124 TEE_CipherUpdate
00005020 g     F .text	00000014 _utee_hash_update
0000ad0c g     F .text	00000008 memzero_explicit
000061d0 g     F .text	0000008c TEE_BigIntConvertToOctetString
00002dac g     F .text	00000108 TEE_GetOperationInfoMultiple
00007d88 g     F .text	00000036 mbedtls_mpi_bitlen
000066c4 g     F .text	00000060 TEE_BigIntGetBit
0000aeb0 g     O .rodata	00000003 trace_ext_prefix
000052a4 g     F .text	00000014 _utee_storage_next_enum
0000a864 g     F .text	00000012 raw_malloc
0000a404 g     F .text	00000060 bgetz
000004cc g     F .text	0000000c TEE_GetInstanceData
000004fa g     F .text	0000001e TEE_Wait
00008528 g     F .text	0000011c mbedtls_mpi_mul_mpi
00000614 g     F .text	00000006 TEE_CacheFlush
00000be4 g     F .text	0000017c trace_vprintf
000008a8 g     F .text	00000002 TA_DestroyEntryPoint
000078f8 g     F .text	0000000c mbedtls_mpi_init
0000522c g     F .text	00000014 _utee_storage_obj_del
00007d54 g     F .text	00000034 mbedtls_mpi_lsb
000017ac g     F .text	00000028 _assert_log
00004fe4 g     F .text	00000014 _utee_cryp_state_copy
00006f06 g     F .text	00000004 TEE_BigIntFMMContextSizeInU32
00004d40 g     F .text	00000080 tee_unmap
000036ec g     F .text	000000b8 TEE_MACCompareFinal
000020ce g     F .text	0000003a TEE_RenamePersistentObject
000031d4 g     F .text	000000b8 TEE_DigestDoFinal
000060c8 g     F .text	00000044 _TEE_MathAPI_Init
0000709c g     F .text	0000017c __utee_tcb_init
000083c8 g     F .text	00000048 mbedtls_mpi_add_mpi
00005888 g     F .text	00000018 abort
00009730 g     F .text	00000128 mbedtls_mpi_random
0000acfa g     F .text	00000002 __stack_chk_fail
000043ec g     F .text	00000012 __utee_check_out_annotation
000103b4 g     O .bss	00004000 ta_heap
00006b14 g     F .text	000000f4 TEE_BigIntInvMod
00005544 g     F .text	000000ec __utee_call_elf_init_fn
00000930 g     F .text	00000002 TA_CloseSessionEntryPoint
00004f14 g     F .text	00000014 _utee_close_ta_session
00003ce0 g     F .text	000000f4 TEE_AsymmetricDecrypt
00001f38 g     F .text	000000a0 TEE_OpenPersistentObject
00008410 g     F .text	0000004a mbedtls_mpi_sub_mpi
0000adb4 g     F .text	00000048 consttime_memcmp
00004e94 g     F .text	00000014 _utee_return
00004ebc g     F .text	00000014 __utee_panic
00007218 g     F .text	00000018 __tls_get_addr
00000932 g     F .text	000001a6 TA_InvokeCommandEntryPoint
00005630 g     F .text	00000010 __utee_call_elf_fini_fn
0000aa0c g     F .text	00000010 free_wipe
0000ac7c g     F .text	0000003c mempool_alloc
00004e80 g     F .text	00000014 _utee_panic
0000aa20 g     F .text	00000012 raw_malloc_init_ctx
0000acb8 g     F .text	00000028 mempool_calloc
00005308 g     F .text	00000014 _utee_cryp_obj_generate_key
000052e0 g     F .text	00000014 _utee_storage_obj_trunc
00001e48 g     F .text	00000064 TEE_CopyObjectAttributes
0000d2bc g     O .data	0000003c tee_props
00004f68 g     F .text	00000014 _utee_unmask_cancellation
00004aec g     F .text	00000008 TEE_ResetPropertyEnumerator
0000a9a0 g     F .text	00000020 calloc
00000592 g     F .text	00000052 TEE_Malloc
0000018c g     F .text	0000000a TEE_CheckMemoryAccessRights
000049bc g     F .text	00000098 TEE_GetPropertyAsUUID
00001682 g     F .text	00000076 __ul_divmod
00004ed0 g     F .text	00000018 _utee_get_property
00007ca8 g     F .text	00000038 mbedtls_mpi_lset
00002268 g     F .text	0000008c TEE_ReadObjectData
000019f4 g     F .text	000000a8 TEE_GetObjectBufferAttribute
000008aa g     F .text	00000086 TA_OpenSessionEntryPoint
000025ac g     F .text	00000026 TEE_FreeOperation
00007230 g     F .text	000000a8 dl_iterate_phdr
000143b8 g       .bss	00000000 __ftrace_buf_end
0000d3a4 g     O .bss	00000004 ta_param_types
00008bd4 g     F .text	00000068 mbedtls_mpi_div_int
000018ec g     F .text	0000003e __utee_from_attr
00009bac g     F .text	00000098 mbedtls_mpi_is_prime_ext
00006e94 g     F .text	00000064 TEE_BigIntIsProbablePrime
00008644 g     F .text	0000005c mbedtls_mpi_mul_int
00002094 g     F .text	00000024 TEE_CloseAndDeletePersistentObject1
00008f46 g     F .text	000004aa mbedtls_mpi_exp_mod
00007bb8 g     F .text	0000005c mbedtls_mpi_safe_cond_assign
0000466c g     F .text	00000188 TEE_GetPropertyAsString
0000812c g     F .text	000000a8 mbedtls_mpi_lt_mpi_ct
00003ac4 g     F .text	0000012c TEE_AEDecryptFinal
0000610c g     F .text	00000038 TEE_BigIntInit
000043be g     F .text	0000002e __utee_check_outstring_annotation
000004d8 g     F .text	00000004 TEE_MemMove
0000a1c8 g     F .text	00000014 mbedtls_platform_zeroize
00006144 g     F .text	0000008c TEE_BigIntConvertFromOctetString
000051b4 g     F .text	00000018 _utee_authenc_dec_final
00008046 g     F .text	00000062 mbedtls_mpi_cmp_abs
000052b8 g     F .text	00000014 _utee_storage_obj_read
00003598 g     F .text	00000056 TEE_MACInit
00003dd4 g     F .text	000000ec TEE_AsymmetricSignDigest
0000ad14 g     F .text	0000001c memchr
000000ec g     F .text	00000050 TEE_UnmaskCancellation
0000192a g     F .text	0000002a TEE_GetObjectInfo
00009e94 g     F .text	00000334 mbedtls_mpi_self_test
000052f4 g     F .text	00000014 _utee_storage_obj_seek
0000385a g     F .text	00000112 TEE_AEUpdate
00001bf4 g     F .text	00000064 TEE_FreeTransientObject
00004f54 g     F .text	00000014 _utee_check_access_rights
000081d4 g     F .text	00000064 mbedtls_mpi_cmp_int
0000597c g     F .text	000000c4 _base64_dec
0000527c g     F .text	00000014 _utee_storage_reset_enum
000040c2 g     F .text	0000004a rand
000043fe g     F .text	00000014 __utee_check_attr_in_annotation
00005184 g     F .text	00000018 _utee_authenc_update_payload
00002d7c g     F .text	00000030 TEE_GetOperationInfo
00006a68 g     F .text	00000050 TEE_BigIntMod
00008ca0 g     F .text	0000006c mbedtls_mpi_mod_int
00007dca g     F .text	00000046 mbedtls_mpi_read_binary_le
00006946 g     F .text	00000122 TEE_BigIntDiv
000050cc g     F .text	00000014 _utee_cryp_obj_alloc
000143b8 g       .bss	00000000 __ftrace_buf_start
0000ad8a g     F .text	0000002a strlcpy
00007af4 g     F .text	00000066 mbedtls_mpi_copy
0000410c g     F .text	0000023c TEE_IsAlgorithmSupported
0000a7f0 g     F .text	00000014 malloc_reset_stats
00004a54 g     F .text	00000098 TEE_GetPropertyAsIdentity
000015ac g     F .text	00000016 __vsprintf
00004fb8 g     F .text	00000014 _utee_set_ta_time
00004f28 g     F .text	00000018 _utee_invoke_ta_command
00001974 g     F .text	00000020 TEE_RestrictObjectUsage1
0000a9c0 g     F .text	0000001c realloc
00007b5a g     F .text	0000005e mbedtls_mpi_swap
0000abf8 g     F .text	00000084 mempool_alloc_pool
00006864 g     F .text	000000dc TEE_BigIntMul
00002eb4 g     F .text	00000040 TEE_ResetOperation
0000aa1c g     F .text	00000004 raw_malloc_get_ctx_size
00007f2a g     F .text	000000a4 mbedtls_mpi_shift_l
000080a8 g     F .text	00000084 mbedtls_mpi_cmp_mpi
000004e0 g     F .text	00000004 TEE_MemFill
0000aa4c g     F .text	00000010 malloc_add_pool
000035ee g     F .text	0000004e TEE_MACUpdate
00000bd0 g     F .text	00000014 trace_get_level
00008238 g     F .text	000000ae mbedtls_mpi_add_abs
00001994 g     F .text	00000060 TEE_RestrictObjectUsage
00006efe g     F .text	00000008 TEE_BigIntFMMSizeInU32
000047f4 g     F .text	00000094 TEE_GetPropertyAsBool
0000a8c6 g     F .text	00000044 raw_realloc
00006ef8 g     F .text	00000004 TEE_BigIntInitFMM
00001b6c g     F .text	00000014 TEE_CloseObject
0000504c g     F .text	00000014 _utee_cipher_init
000056ac g     F .text	000001dc __utee_entry
00004888 g     F .text	00000098 TEE_GetPropertyAsU32
0000ae40 g       .text	00000000 __text_end
00006c08 g     F .text	000000b0 TEE_BigIntRelativePrime
00008c3c g     F .text	00000064 mbedtls_mpi_mod_mpi
00005090 g     F .text	00000014 _utee_cryp_obj_get_info
0000a6f0 g     F .text	0000009c bpool
00004af4 g     F .text	00000028 TEE_AllocatePropertyEnumerator
00004fcc g     F .text	00000018 _utee_cryp_state_alloc
0000009a g     F .text	00000052 TEE_GetCancellationFlag
000093f0 g     F .text	00000134 mbedtls_mpi_gcd
00000554 g     F .text	00000028 TEE_SetTAPersistentTime
00007e52 g     F .text	0000006c mbedtls_mpi_write_binary_le
0000acfc g     F .text	00000010 memset
0000a820 g     F .text	00000044 raw_memalign
00000518 g     F .text	0000003c TEE_GetTAPersistentTime
00000db8 g     F .text	00000002 dhex_dump
00001fd8 g     F .text	000000bc TEE_CreatePersistentObject
0000013c g     F .text	00000050 TEE_MaskCancellation
00003814 g     F .text	00000046 TEE_AEUpdateAAD
00002334 g     F .text	00000038 TEE_TruncateObjectData
000050b8 g     F .text	00000014 _utee_cryp_obj_get_attr
00001954 g     F .text	00000020 TEE_GetObjectInfo1
00005078 g     F .text	00000018 _utee_cipher_final
00000bb4 g     F .text	0000001c trace_set_level
00001a9c g     F .text	000000d0 TEE_GetObjectValueAttribute
00002ef4 g     F .text	000000cc TEE_SetOperationKey
00004ff8 g     F .text	00000014 _utee_cryp_state_free
0000ad74 g     F .text	00000016 strcmp
00004efc g     F .text	00000018 _utee_open_ta_session
000062e0 g     F .text	00000094 TEE_BigIntConvertToS32
0000679c g     F .text	00000020 TEE_BigIntSub
0000acf6 g     F .text	00000004 tahead_get_trace_level
00005290 g     F .text	00000014 _utee_storage_start_enum
0000236c g     F .text	000000b4 TEE_SeekObjectData
00004cd4 g     F .text	0000006c tee_map_zi
00008f42 g     F .text	00000004 mbedtls_mpi_montred
0000a9dc g     F .text	00000020 memalign
00003424 g     F .text	00000174 TEE_CipherDoFinal
0000625c g     F .text	00000084 TEE_BigIntConvertFromS32
0000845a g     F .text	00000066 mbedtls_mpi_add_int
0000519c g     F .text	00000018 _utee_authenc_enc_final
0000aa5c g     F .text	000000e0 malloc_buffer_is_within_alloced
000050e0 g     F .text	00000014 _utee_cryp_obj_close
00006efc g     F .text	00000002 TEE_BigIntInitFMMContext
00004f7c g     F .text	00000014 _utee_mask_cancellation
00005240 g     F .text	00000014 _utee_storage_obj_rename
000022f4 g     F .text	00000040 TEE_WriteObjectData
00002184 g     F .text	00000014 TEE_ResetPersistentObjectEnumerator
00006940 g     F .text	00000006 TEE_BigIntSquare
000052cc g     F .text	00000014 _utee_storage_obj_write
000008a4 g     F .text	00000004 TA_CreateEntryPoint
00000ad8 g     F .text	00000004 __ta_entry
00005170 g     F .text	00000014 _utee_authenc_update_aad
00008f38 g     F .text	00000006 mbedtls_mpi_montg_init
00000e2e g     F .text	0000005a snprintk
00006724 g     F .text	00000058 TEE_BigIntGetBitCount
0000511c g     F .text	00000014 _utee_cryp_obj_copy
00006af0 g     F .text	0000001c TEE_BigIntMulMod
00009858 g     F .text	00000354 mbedtls_mpi_inv_mod
00003f9c g     F .text	00000114 TEE_DeriveKey
0000d384 g     O .bss	00000020 ta_params
000087f8 g     F .text	000003dc mbedtls_mpi_div_mpi
00007dbe g     F .text	0000000c mbedtls_mpi_size
0000a1fc g     F .text	00000208 bget
00001b80 g     F .text	00000074 TEE_AllocateTransientObject
00004b20 g     F .text	0000000a TEE_StartPropertyEnumerator
00004f90 g     F .text	00000014 _utee_wait
00007d02 g     F .text	00000052 mbedtls_mpi_set_bit
000005e4 g     F .text	0000000a TEE_Free
00009c44 g     F .text	0000000a mbedtls_mpi_is_prime
0000061a g     F .text	00000006 TEE_CacheInvalidate
000017d4 g     F .text	00000010 _assert_break
00006ab8 g     F .text	0000001c TEE_BigIntAddMod
00004fa4 g     F .text	00000014 _utee_get_time
00004b2a g     F .text	000000c2 TEE_GetPropertyName
000025d2 g     F .text	000007aa TEE_AllocateOperation
00005108 g     F .text	00000014 _utee_cryp_obj_populate
000040b0 g     F .text	00000012 TEE_GenerateRandom
000004dc g     F .text	00000004 TEE_MemCompare
00005060 g     F .text	00000018 _utee_cipher_update
00000dbc g     F .text	00000064 __vsnprintf
0000d378 g     O .bss	0000000c __elf_phdr_info
00002170 g     F .text	00000014 TEE_FreePersistentObjectEnumerator
00000318 g     F .text	000000c4 TEE_OpenTASession
000017e4 g     F .text	00000014 trace_ext_puts
000017f8 g     F .text	00000006 trace_ext_get_thread_id
000020b8 g     F .text	00000016 TEE_CloseAndDeletePersistentObject
00005130 g     F .text	00000014 _utee_cryp_derive_key
0000792c g     F .text	00000044 mbedtls_mpi_free
000050f4 g     F .text	00000014 _utee_cryp_obj_reset
0000060e g     F .text	00000006 TEE_CacheClean
00004ee8 g     F .text	00000014 _utee_get_property_name_to_index
0000a87e g     F .text	00000048 raw_calloc
000058ae g     F .text	000000ce _base64_enc
00007c14 g     F .text	00000094 mbedtls_mpi_safe_cond_swap
00005158 g     F .text	00000018 _utee_authenc_init
00001dac g     F .text	0000009c TEE_CopyObjectAttributes1
0000ad30 g     F .text	00000010 strlen
00006cb8 g     F .text	000001dc TEE_BigIntComputeExtendedGcd
00005254 g     F .text	00000014 _utee_storage_alloc_enum
000004e4 g     F .text	00000016 TEE_GetSystemTime
000051e4 g     F .text	00000018 _utee_asymm_verify
00000000 g     O .ta_head	00000020 ta_head
0000a464 g     F .text	00000208 brel
000082e6 g     F .text	000000e2 mbedtls_mpi_sub_abs
00009524 g     F .text	00000034 mbedtls_mpi_fill_random
000004c0 g     F .text	0000000c TEE_SetInstanceData
00004f40 g     F .text	00000014 _utee_get_cancellation_flag
000015c4 g     F .text	00000018 __aeabi_ldivmod
00008d0c g     F .text	000001a8 mbedtls_mpi_write_string
000021c4 g     F .text	000000a4 TEE_GetNextPersistentObject
00000086 g     F .text	00000014 TEE_CloseTASession
00003ec0 g     F .text	000000dc TEE_AsymmetricVerifyDigest
00005214 g     F .text	00000018 _utee_storage_obj_create
0000a9fc g     F .text	00000010 free
0000a78c g     F .text	00000064 bstats
0000363c g     F .text	000000b0 TEE_MACComputeFinal
000103b0 g     O .bss	00000004 mbedtls_mpi_mempool
00005034 g     F .text	00000018 _utee_hash_final



Disassembly of section .text:

00000020 <update_out_param>:
update_out_param():
/home/aom1/Work/Linux/target/STM32MP1-DK2/buildroot/buildroot/output/build/optee-os-custom/lib/libutee/tee_api.c:121
      20:	e92d 47f0 	stmdb	sp!, {r4, r5, r6, r7, r8, r9, sl, lr}
      24:	4607      	mov	r7, r0
/home/aom1/Work/Linux/target/STM32MP1-DK2/buildroot/buildroot/output/build/optee-os-custom/lib/libutee/tee_api.c:123
      26:	f8d2 a000 	ldr.w	sl, [r2]
/home/aom1/Work/Linux/target/STM32MP1-DK2/buildroot/buildroot/output/build/optee-os-custom/lib/libutee/tee_api.c:121
      2a:	4688      	mov	r8, r1
/home/aom1/Work/Linux/target/STM32MP1-DK2/buildroot/buildroot/output/build/optee-os-custom/lib/libutee/tee_api.c:125
      2c:	4614      	mov	r4, r2
      2e:	4606      	mov	r6, r0
/home/aom1/Work/Linux/target/STM32MP1-DK2/buildroot/buildroot/output/build/optee-os-custom/lib/libutee/tee_api.c:123
      30:	2500      	movs	r5, #0
/home/aom1/Work/Linux/target/STM32MP1-DK2/buildroot/buildroot/output/build/optee-os-custom/lib/libutee/tee_api.c:129
      32:	fa2a f205 	lsr.w	r2, sl, r5
/home/aom1/Work/Linux/target/STM32MP1-DK2/buildroot/buildroot/output/build/optee-os-custom/lib/libutee/tee_api.c:127
      36:	f8d4 9010 	ldr.w	r9, [r4, #16]
/home/aom1/Work/Linux/target/STM32MP1-DK2/buildroot/buildroot/output/build/optee-os-custom/lib/libutee/tee_api.c:129
      3a:	f012 0f0c 	tst.w	r2, #12
      3e:	f002 030f 	and.w	r3, r2, #15
      42:	d108      	bne.n	56 <update_out_param+0x36>
      44:	f012 0f0e 	tst.w	r2, #14
      48:	d008      	beq.n	5c <update_out_param+0x3c>
/home/aom1/Work/Linux/target/STM32MP1-DK2/buildroot/buildroot/output/build/optee-os-custom/lib/libutee/tee_api.c:126
      4a:	68a3      	ldr	r3, [r4, #8]
      4c:	f847 3015 	str.w	r3, [r7, r5, lsl #1]
/home/aom1/Work/Linux/target/STM32MP1-DK2/buildroot/buildroot/output/build/optee-os-custom/lib/libutee/tee_api.c:140
      50:	f8c6 9004 	str.w	r9, [r6, #4]
/home/aom1/Work/Linux/target/STM32MP1-DK2/buildroot/buildroot/output/build/optee-os-custom/lib/libutee/tee_api.c:141
      54:	e002      	b.n	5c <update_out_param+0x3c>
/home/aom1/Work/Linux/target/STM32MP1-DK2/buildroot/buildroot/output/build/optee-os-custom/lib/libutee/tee_api.c:129
      56:	3b06      	subs	r3, #6
      58:	2b01      	cmp	r3, #1
      5a:	d907      	bls.n	6c <update_out_param+0x4c>
/home/aom1/Work/Linux/target/STM32MP1-DK2/buildroot/buildroot/output/build/optee-os-custom/lib/libutee/tee_api.c:125 (discriminator 2)
      5c:	3504      	adds	r5, #4
      5e:	3410      	adds	r4, #16
      60:	2d10      	cmp	r5, #16
      62:	f106 0608 	add.w	r6, r6, #8
      66:	d1e4      	bne.n	32 <update_out_param+0x12>
/home/aom1/Work/Linux/target/STM32MP1-DK2/buildroot/buildroot/output/build/optee-os-custom/lib/libutee/tee_api.c:146
      68:	e8bd 87f0 	ldmia.w	sp!, {r4, r5, r6, r7, r8, r9, sl, pc}
/home/aom1/Work/Linux/target/STM32MP1-DK2/buildroot/buildroot/output/build/optee-os-custom/lib/libutee/tee_api.c:137
      6c:	f858 1005 	ldr.w	r1, [r8, r5]
      70:	2900      	cmp	r1, #0
      72:	d0ed      	beq.n	50 <update_out_param+0x30>
/home/aom1/Work/Linux/target/STM32MP1-DK2/buildroot/buildroot/output/build/optee-os-custom/lib/libutee/tee_api.c:139
      74:	6872      	ldr	r2, [r6, #4]
/home/aom1/Work/Linux/target/STM32MP1-DK2/buildroot/buildroot/output/build/optee-os-custom/lib/libutee/tee_api.c:138
      76:	f857 0015 	ldr.w	r0, [r7, r5, lsl #1]
      7a:	454a      	cmp	r2, r9
      7c:	bf28      	it	cs
      7e:	464a      	movcs	r2, r9
      80:	f000 fd2c 	bl	adc <memcpy>
      84:	e7e4      	b.n	50 <update_out_param+0x30>

00000086 <TEE_CloseTASession>:
TEE_CloseTASession():
/home/aom1/Work/Linux/target/STM32MP1-DK2/buildroot/buildroot/output/build/optee-os-custom/lib/libutee/tee_api.c:195
      86:	b508      	push	{r3, lr}
/home/aom1/Work/Linux/target/STM32MP1-DK2/buildroot/buildroot/output/build/optee-os-custom/lib/libutee/tee_api.c:196
      88:	b130      	cbz	r0, 98 <TEE_CloseTASession+0x12>
/home/aom1/Work/Linux/target/STM32MP1-DK2/buildroot/buildroot/output/build/optee-os-custom/lib/libutee/tee_api.c:197
      8a:	f004 ef44 	blx	4f14 <_utee_close_ta_session>
/home/aom1/Work/Linux/target/STM32MP1-DK2/buildroot/buildroot/output/build/optee-os-custom/lib/libutee/tee_api.c:199
      8e:	b118      	cbz	r0, 98 <TEE_CloseTASession+0x12>
/home/aom1/Work/Linux/target/STM32MP1-DK2/buildroot/buildroot/output/build/optee-os-custom/lib/libutee/tee_api.c:202
      90:	e8bd 4008 	ldmia.w	sp!, {r3, lr}
/home/aom1/Work/Linux/target/STM32MP1-DK2/buildroot/buildroot/output/build/optee-os-custom/lib/libutee/tee_api.c:200
      94:	f004 b968 	b.w	4368 <TEE_Panic>
/home/aom1/Work/Linux/target/STM32MP1-DK2/buildroot/buildroot/output/build/optee-os-custom/lib/libutee/tee_api.c:202
      98:	bd08      	pop	{r3, pc}

0000009a <TEE_GetCancellationFlag>:
TEE_GetCancellationFlag():
/home/aom1/Work/Linux/target/STM32MP1-DK2/buildroot/buildroot/output/build/optee-os-custom/lib/libutee/tee_api.c:257
      9a:	b507      	push	{r0, r1, r2, lr}
/home/aom1/Work/Linux/target/STM32MP1-DK2/buildroot/buildroot/output/build/optee-os-custom/lib/libutee/tee_api.c:259
      9c:	4668      	mov	r0, sp
/home/aom1/Work/Linux/target/STM32MP1-DK2/buildroot/buildroot/output/build/optee-os-custom/lib/libutee/tee_api.c:257
      9e:	4a10      	ldr	r2, [pc, #64]	; (e0 <TEE_GetCancellationFlag+0x46>)
      a0:	4b10      	ldr	r3, [pc, #64]	; (e4 <TEE_GetCancellationFlag+0x4a>)
      a2:	447a      	add	r2, pc
      a4:	58d3      	ldr	r3, [r2, r3]
      a6:	681b      	ldr	r3, [r3, #0]
      a8:	9301      	str	r3, [sp, #4]
      aa:	f04f 0300 	mov.w	r3, #0
/home/aom1/Work/Linux/target/STM32MP1-DK2/buildroot/buildroot/output/build/optee-os-custom/lib/libutee/tee_api.c:259
      ae:	f004 ef48 	blx	4f40 <_utee_get_cancellation_flag>
/home/aom1/Work/Linux/target/STM32MP1-DK2/buildroot/buildroot/output/build/optee-os-custom/lib/libutee/tee_api.c:261
      b2:	b108      	cbz	r0, b8 <TEE_GetCancellationFlag+0x1e>
/home/aom1/Work/Linux/target/STM32MP1-DK2/buildroot/buildroot/output/build/optee-os-custom/lib/libutee/tee_api.c:262
      b4:	2300      	movs	r3, #0
      b6:	9300      	str	r3, [sp, #0]
/home/aom1/Work/Linux/target/STM32MP1-DK2/buildroot/buildroot/output/build/optee-os-custom/lib/libutee/tee_api.c:257
      b8:	4a0b      	ldr	r2, [pc, #44]	; (e8 <TEE_GetCancellationFlag+0x4e>)
/home/aom1/Work/Linux/target/STM32MP1-DK2/buildroot/buildroot/output/build/optee-os-custom/lib/libutee/tee_api.c:264
      ba:	4b0a      	ldr	r3, [pc, #40]	; (e4 <TEE_GetCancellationFlag+0x4a>)
/home/aom1/Work/Linux/target/STM32MP1-DK2/buildroot/buildroot/output/build/optee-os-custom/lib/libutee/tee_api.c:257
      bc:	447a      	add	r2, pc
/home/aom1/Work/Linux/target/STM32MP1-DK2/buildroot/buildroot/output/build/optee-os-custom/lib/libutee/tee_api.c:263
      be:	9800      	ldr	r0, [sp, #0]
/home/aom1/Work/Linux/target/STM32MP1-DK2/buildroot/buildroot/output/build/optee-os-custom/lib/libutee/tee_api.c:264
      c0:	58d3      	ldr	r3, [r2, r3]
/home/aom1/Work/Linux/target/STM32MP1-DK2/buildroot/buildroot/output/build/optee-os-custom/lib/libutee/tee_api.c:263
      c2:	3800      	subs	r0, #0
      c4:	bf18      	it	ne
      c6:	2001      	movne	r0, #1
/home/aom1/Work/Linux/target/STM32MP1-DK2/buildroot/buildroot/output/build/optee-os-custom/lib/libutee/tee_api.c:264
      c8:	681a      	ldr	r2, [r3, #0]
      ca:	9b01      	ldr	r3, [sp, #4]
      cc:	405a      	eors	r2, r3
      ce:	f04f 0300 	mov.w	r3, #0
      d2:	d001      	beq.n	d8 <TEE_GetCancellationFlag+0x3e>
      d4:	f00a fe11 	bl	acfa <__stack_chk_fail>
      d8:	b003      	add	sp, #12
      da:	f85d fb04 	ldr.w	pc, [sp], #4
      de:	bf00      	nop
      e0:	0000cfe2 	.word	0x0000cfe2
      e4:	0000000c 	.word	0x0000000c
      e8:	0000cfc8 	.word	0x0000cfc8

000000ec <TEE_UnmaskCancellation>:
TEE_UnmaskCancellation():
/home/aom1/Work/Linux/target/STM32MP1-DK2/buildroot/buildroot/output/build/optee-os-custom/lib/libutee/tee_api.c:267
      ec:	b507      	push	{r0, r1, r2, lr}
/home/aom1/Work/Linux/target/STM32MP1-DK2/buildroot/buildroot/output/build/optee-os-custom/lib/libutee/tee_api.c:269
      ee:	4668      	mov	r0, sp
/home/aom1/Work/Linux/target/STM32MP1-DK2/buildroot/buildroot/output/build/optee-os-custom/lib/libutee/tee_api.c:267
      f0:	4a0f      	ldr	r2, [pc, #60]	; (130 <TEE_UnmaskCancellation+0x44>)
      f2:	4b10      	ldr	r3, [pc, #64]	; (134 <TEE_UnmaskCancellation+0x48>)
      f4:	447a      	add	r2, pc
      f6:	58d3      	ldr	r3, [r2, r3]
      f8:	681b      	ldr	r3, [r3, #0]
      fa:	9301      	str	r3, [sp, #4]
      fc:	f04f 0300 	mov.w	r3, #0
/home/aom1/Work/Linux/target/STM32MP1-DK2/buildroot/buildroot/output/build/optee-os-custom/lib/libutee/tee_api.c:269
     100:	f004 ef32 	blx	4f68 <_utee_unmask_cancellation>
/home/aom1/Work/Linux/target/STM32MP1-DK2/buildroot/buildroot/output/build/optee-os-custom/lib/libutee/tee_api.c:271
     104:	b108      	cbz	r0, 10a <TEE_UnmaskCancellation+0x1e>
/home/aom1/Work/Linux/target/STM32MP1-DK2/buildroot/buildroot/output/build/optee-os-custom/lib/libutee/tee_api.c:272
     106:	f004 f92f 	bl	4368 <TEE_Panic>
/home/aom1/Work/Linux/target/STM32MP1-DK2/buildroot/buildroot/output/build/optee-os-custom/lib/libutee/tee_api.c:267
     10a:	4a0b      	ldr	r2, [pc, #44]	; (138 <TEE_UnmaskCancellation+0x4c>)
/home/aom1/Work/Linux/target/STM32MP1-DK2/buildroot/buildroot/output/build/optee-os-custom/lib/libutee/tee_api.c:274
     10c:	4b09      	ldr	r3, [pc, #36]	; (134 <TEE_UnmaskCancellation+0x48>)
/home/aom1/Work/Linux/target/STM32MP1-DK2/buildroot/buildroot/output/build/optee-os-custom/lib/libutee/tee_api.c:267
     10e:	447a      	add	r2, pc
/home/aom1/Work/Linux/target/STM32MP1-DK2/buildroot/buildroot/output/build/optee-os-custom/lib/libutee/tee_api.c:273
     110:	9800      	ldr	r0, [sp, #0]
/home/aom1/Work/Linux/target/STM32MP1-DK2/buildroot/buildroot/output/build/optee-os-custom/lib/libutee/tee_api.c:274
     112:	58d3      	ldr	r3, [r2, r3]
/home/aom1/Work/Linux/target/STM32MP1-DK2/buildroot/buildroot/output/build/optee-os-custom/lib/libutee/tee_api.c:273
     114:	3800      	subs	r0, #0
     116:	bf18      	it	ne
     118:	2001      	movne	r0, #1
/home/aom1/Work/Linux/target/STM32MP1-DK2/buildroot/buildroot/output/build/optee-os-custom/lib/libutee/tee_api.c:274
     11a:	681a      	ldr	r2, [r3, #0]
     11c:	9b01      	ldr	r3, [sp, #4]
     11e:	405a      	eors	r2, r3
     120:	f04f 0300 	mov.w	r3, #0
     124:	d001      	beq.n	12a <TEE_UnmaskCancellation+0x3e>
     126:	f00a fde8 	bl	acfa <__stack_chk_fail>
     12a:	b003      	add	sp, #12
     12c:	f85d fb04 	ldr.w	pc, [sp], #4
     130:	0000cf90 	.word	0x0000cf90
     134:	0000000c 	.word	0x0000000c
     138:	0000cf76 	.word	0x0000cf76

0000013c <TEE_MaskCancellation>:
TEE_MaskCancellation():
/home/aom1/Work/Linux/target/STM32MP1-DK2/buildroot/buildroot/output/build/optee-os-custom/lib/libutee/tee_api.c:277
     13c:	b507      	push	{r0, r1, r2, lr}
/home/aom1/Work/Linux/target/STM32MP1-DK2/buildroot/buildroot/output/build/optee-os-custom/lib/libutee/tee_api.c:279
     13e:	4668      	mov	r0, sp
/home/aom1/Work/Linux/target/STM32MP1-DK2/buildroot/buildroot/output/build/optee-os-custom/lib/libutee/tee_api.c:277
     140:	4a0f      	ldr	r2, [pc, #60]	; (180 <TEE_MaskCancellation+0x44>)
     142:	4b10      	ldr	r3, [pc, #64]	; (184 <TEE_MaskCancellation+0x48>)
     144:	447a      	add	r2, pc
     146:	58d3      	ldr	r3, [r2, r3]
     148:	681b      	ldr	r3, [r3, #0]
     14a:	9301      	str	r3, [sp, #4]
     14c:	f04f 0300 	mov.w	r3, #0
/home/aom1/Work/Linux/target/STM32MP1-DK2/buildroot/buildroot/output/build/optee-os-custom/lib/libutee/tee_api.c:279
     150:	f004 ef14 	blx	4f7c <_utee_mask_cancellation>
/home/aom1/Work/Linux/target/STM32MP1-DK2/buildroot/buildroot/output/build/optee-os-custom/lib/libutee/tee_api.c:281
     154:	b108      	cbz	r0, 15a <TEE_MaskCancellation+0x1e>
/home/aom1/Work/Linux/target/STM32MP1-DK2/buildroot/buildroot/output/build/optee-os-custom/lib/libutee/tee_api.c:282
     156:	f004 f907 	bl	4368 <TEE_Panic>
/home/aom1/Work/Linux/target/STM32MP1-DK2/buildroot/buildroot/output/build/optee-os-custom/lib/libutee/tee_api.c:277
     15a:	4a0b      	ldr	r2, [pc, #44]	; (188 <TEE_MaskCancellation+0x4c>)
/home/aom1/Work/Linux/target/STM32MP1-DK2/buildroot/buildroot/output/build/optee-os-custom/lib/libutee/tee_api.c:284
     15c:	4b09      	ldr	r3, [pc, #36]	; (184 <TEE_MaskCancellation+0x48>)
/home/aom1/Work/Linux/target/STM32MP1-DK2/buildroot/buildroot/output/build/optee-os-custom/lib/libutee/tee_api.c:277
     15e:	447a      	add	r2, pc
/home/aom1/Work/Linux/target/STM32MP1-DK2/buildroot/buildroot/output/build/optee-os-custom/lib/libutee/tee_api.c:283
     160:	9800      	ldr	r0, [sp, #0]
/home/aom1/Work/Linux/target/STM32MP1-DK2/buildroot/buildroot/output/build/optee-os-custom/lib/libutee/tee_api.c:284
     162:	58d3      	ldr	r3, [r2, r3]
/home/aom1/Work/Linux/target/STM32MP1-DK2/buildroot/buildroot/output/build/optee-os-custom/lib/libutee/tee_api.c:283
     164:	3800      	subs	r0, #0
     166:	bf18      	it	ne
     168:	2001      	movne	r0, #1
/home/aom1/Work/Linux/target/STM32MP1-DK2/buildroot/buildroot/output/build/optee-os-custom/lib/libutee/tee_api.c:284
     16a:	681a      	ldr	r2, [r3, #0]
     16c:	9b01      	ldr	r3, [sp, #4]
     16e:	405a      	eors	r2, r3
     170:	f04f 0300 	mov.w	r3, #0
     174:	d001      	beq.n	17a <TEE_MaskCancellation+0x3e>
     176:	f00a fdc0 	bl	acfa <__stack_chk_fail>
     17a:	b003      	add	sp, #12
     17c:	f85d fb04 	ldr.w	pc, [sp], #4
     180:	0000cf40 	.word	0x0000cf40
     184:	0000000c 	.word	0x0000000c
     188:	0000cf26 	.word	0x0000cf26

0000018c <TEE_CheckMemoryAccessRights>:
TEE_CheckMemoryAccessRights():
/home/aom1/Work/Linux/target/STM32MP1-DK2/buildroot/buildroot/output/build/optee-os-custom/lib/libutee/tee_api.c:293
     18c:	b10a      	cbz	r2, 192 <TEE_CheckMemoryAccessRights+0x6>
/home/aom1/Work/Linux/target/STM32MP1-DK2/buildroot/buildroot/output/build/optee-os-custom/lib/libutee/tee_api.c:297
     18e:	f00a be3f 	b.w	ae10 <___utee_check_access_rights_from_thumb>
/home/aom1/Work/Linux/target/STM32MP1-DK2/buildroot/buildroot/output/build/optee-os-custom/lib/libutee/tee_api.c:309
     192:	4610      	mov	r0, r2
     194:	4770      	bx	lr

00000196 <copy_param>:
copy_param():
/home/aom1/Work/Linux/target/STM32MP1-DK2/buildroot/buildroot/output/build/optee-os-custom/lib/libutee/tee_api.c:29
     196:	e92d 4ff0 	stmdb	sp!, {r4, r5, r6, r7, r8, r9, sl, fp, lr}
     19a:	4617      	mov	r7, r2
     19c:	ed2d 8b02 	vpush	{d8}
     1a0:	4a5a      	ldr	r2, [pc, #360]	; (30c <copy_param+0x176>)
     1a2:	b087      	sub	sp, #28
     1a4:	4698      	mov	r8, r3
/home/aom1/Work/Linux/target/STM32MP1-DK2/buildroot/buildroot/output/build/optee-os-custom/lib/libutee/tee_api.c:34
     1a6:	2500      	movs	r5, #0
/home/aom1/Work/Linux/target/STM32MP1-DK2/buildroot/buildroot/output/build/optee-os-custom/lib/libutee/tee_api.c:29
     1a8:	e9dd 9312 	ldrd	r9, r3, [sp, #72]	; 0x48
     1ac:	447a      	add	r2, pc
     1ae:	4604      	mov	r4, r0
     1b0:	9302      	str	r3, [sp, #8]
/home/aom1/Work/Linux/target/STM32MP1-DK2/buildroot/buildroot/output/build/optee-os-custom/lib/libutee/tee_api.c:47
     1b2:	462e      	mov	r6, r5
/home/aom1/Work/Linux/target/STM32MP1-DK2/buildroot/buildroot/output/build/optee-os-custom/lib/libutee/tee_api.c:29
     1b4:	4b56      	ldr	r3, [pc, #344]	; (310 <copy_param+0x17a>)
/home/aom1/Work/Linux/target/STM32MP1-DK2/buildroot/buildroot/output/build/optee-os-custom/lib/libutee/tee_api.c:54
     1b6:	f107 0b04 	add.w	fp, r7, #4
/home/aom1/Work/Linux/target/STM32MP1-DK2/buildroot/buildroot/output/build/optee-os-custom/lib/libutee/tee_api.c:29
     1ba:	9101      	str	r1, [sp, #4]
/home/aom1/Work/Linux/target/STM32MP1-DK2/buildroot/buildroot/output/build/optee-os-custom/lib/libutee/tee_api.c:65
     1bc:	f04f 0a01 	mov.w	sl, #1
/home/aom1/Work/Linux/target/STM32MP1-DK2/buildroot/buildroot/output/build/optee-os-custom/lib/libutee/tee_api.c:29
     1c0:	58d3      	ldr	r3, [r2, r3]
     1c2:	681b      	ldr	r3, [r3, #0]
     1c4:	9305      	str	r3, [sp, #20]
     1c6:	f04f 0300 	mov.w	r3, #0
/home/aom1/Work/Linux/target/STM32MP1-DK2/buildroot/buildroot/output/build/optee-os-custom/lib/libutee/tee_api.c:48
     1ca:	462b      	mov	r3, r5
/home/aom1/Work/Linux/target/STM32MP1-DK2/buildroot/buildroot/output/build/optee-os-custom/lib/libutee/tee_api.c:45
     1cc:	f8c8 5000 	str.w	r5, [r8]
/home/aom1/Work/Linux/target/STM32MP1-DK2/buildroot/buildroot/output/build/optee-os-custom/lib/libutee/tee_api.c:34
     1d0:	9504      	str	r5, [sp, #16]
/home/aom1/Work/Linux/target/STM32MP1-DK2/buildroot/buildroot/output/build/optee-os-custom/lib/libutee/tee_api.c:46
     1d2:	f8c9 5000 	str.w	r5, [r9]
/home/aom1/Work/Linux/target/STM32MP1-DK2/buildroot/buildroot/output/build/optee-os-custom/lib/libutee/tee_api.c:48
     1d6:	9a02      	ldr	r2, [sp, #8]
/home/aom1/Work/Linux/target/STM32MP1-DK2/buildroot/buildroot/output/build/optee-os-custom/lib/libutee/tee_api.c:49
     1d8:	9901      	ldr	r1, [sp, #4]
/home/aom1/Work/Linux/target/STM32MP1-DK2/buildroot/buildroot/output/build/optee-os-custom/lib/libutee/tee_api.c:48
     1da:	f842 3026 	str.w	r3, [r2, r6, lsl #2]
/home/aom1/Work/Linux/target/STM32MP1-DK2/buildroot/buildroot/output/build/optee-os-custom/lib/libutee/tee_api.c:49
     1de:	00b2      	lsls	r2, r6, #2
     1e0:	fa21 f202 	lsr.w	r2, r1, r2
     1e4:	f002 020f 	and.w	r2, r2, #15
     1e8:	3a05      	subs	r2, #5
     1ea:	2a02      	cmp	r2, #2
     1ec:	d813      	bhi.n	216 <copy_param+0x80>
/home/aom1/Work/Linux/target/STM32MP1-DK2/buildroot/buildroot/output/build/optee-os-custom/lib/libutee/tee_api.c:53
     1ee:	f857 1036 	ldr.w	r1, [r7, r6, lsl #3]
/home/aom1/Work/Linux/target/STM32MP1-DK2/buildroot/buildroot/output/build/optee-os-custom/lib/libutee/tee_api.c:64
     1f2:	b181      	cbz	r1, 216 <copy_param+0x80>
/home/aom1/Work/Linux/target/STM32MP1-DK2/buildroot/buildroot/output/build/optee-os-custom/lib/libutee/tee_api.c:54 (discriminator 1)
     1f4:	f85b 2036 	ldr.w	r2, [fp, r6, lsl #3]
/home/aom1/Work/Linux/target/STM32MP1-DK2/buildroot/buildroot/output/build/optee-os-custom/lib/libutee/tee_api.c:64 (discriminator 1)
     1f8:	b16a      	cbz	r2, 216 <copy_param+0x80>
/home/aom1/Work/Linux/target/STM32MP1-DK2/buildroot/buildroot/output/build/optee-os-custom/lib/libutee/tee_api.c:65 (discriminator 2)
     1fa:	9203      	str	r2, [sp, #12]
     1fc:	2001      	movs	r0, #1
     1fe:	f7ff ffc5 	bl	18c <TEE_CheckMemoryAccessRights>
/home/aom1/Work/Linux/target/STM32MP1-DK2/buildroot/buildroot/output/build/optee-os-custom/lib/libutee/tee_api.c:64 (discriminator 2)
     202:	2300      	movs	r3, #0
     204:	b938      	cbnz	r0, 216 <copy_param+0x80>
/home/aom1/Work/Linux/target/STM32MP1-DK2/buildroot/buildroot/output/build/optee-os-custom/lib/libutee/tee_api.c:67
     206:	9a03      	ldr	r2, [sp, #12]
/home/aom1/Work/Linux/target/STM32MP1-DK2/buildroot/buildroot/output/build/optee-os-custom/lib/libutee/tee_api.c:66
     208:	a904      	add	r1, sp, #16
     20a:	f806 a001 	strb.w	sl, [r6, r1]
/home/aom1/Work/Linux/target/STM32MP1-DK2/buildroot/buildroot/output/build/optee-os-custom/lib/libutee/tee_api.c:67
     20e:	3207      	adds	r2, #7
     210:	f022 0207 	bic.w	r2, r2, #7
     214:	4415      	add	r5, r2
/home/aom1/Work/Linux/target/STM32MP1-DK2/buildroot/buildroot/output/build/optee-os-custom/lib/libutee/tee_api.c:47 (discriminator 2)
     216:	3601      	adds	r6, #1
     218:	2e04      	cmp	r6, #4
     21a:	d1dc      	bne.n	1d6 <copy_param+0x40>
/home/aom1/Work/Linux/target/STM32MP1-DK2/buildroot/buildroot/output/build/optee-os-custom/lib/libutee/tee_api.c:75
     21c:	b335      	cbz	r5, 26c <copy_param+0xd6>
/home/aom1/Work/Linux/target/STM32MP1-DK2/buildroot/buildroot/output/build/optee-os-custom/lib/libutee/tee_api.c:76
     21e:	4631      	mov	r1, r6
     220:	4628      	mov	r0, r5
     222:	f004 fd57 	bl	4cd4 <tee_map_zi>
/home/aom1/Work/Linux/target/STM32MP1-DK2/buildroot/buildroot/output/build/optee-os-custom/lib/libutee/tee_api.c:77
     226:	4603      	mov	r3, r0
     228:	2800      	cmp	r0, #0
     22a:	d060      	beq.n	2ee <copy_param+0x158>
/home/aom1/Work/Linux/target/STM32MP1-DK2/buildroot/buildroot/output/build/optee-os-custom/lib/libutee/tee_api.c:79
     22c:	f8c8 0000 	str.w	r0, [r8]
/home/aom1/Work/Linux/target/STM32MP1-DK2/buildroot/buildroot/output/build/optee-os-custom/lib/libutee/tee_api.c:80
     230:	f8c9 5000 	str.w	r5, [r9]
/home/aom1/Work/Linux/target/STM32MP1-DK2/buildroot/buildroot/output/build/optee-os-custom/lib/libutee/tee_api.c:109
     234:	ed9f 8b32 	vldr	d8, [pc, #200]	; 300 <copy_param+0x16a>
/home/aom1/Work/Linux/target/STM32MP1-DK2/buildroot/buildroot/output/build/optee-os-custom/lib/libutee/tee_api.c:83
     238:	9a01      	ldr	r2, [sp, #4]
     23a:	2500      	movs	r5, #0
     23c:	46b8      	mov	r8, r7
/home/aom1/Work/Linux/target/STM32MP1-DK2/buildroot/buildroot/output/build/optee-os-custom/lib/libutee/tee_api.c:88
     23e:	46a9      	mov	r9, r5
/home/aom1/Work/Linux/target/STM32MP1-DK2/buildroot/buildroot/output/build/optee-os-custom/lib/libutee/tee_api.c:95
     240:	f10d 0a10 	add.w	sl, sp, #16
/home/aom1/Work/Linux/target/STM32MP1-DK2/buildroot/buildroot/output/build/optee-os-custom/lib/libutee/tee_api.c:83
     244:	e9c4 2500 	strd	r2, r5, [r4]
/home/aom1/Work/Linux/target/STM32MP1-DK2/buildroot/buildroot/output/build/optee-os-custom/lib/libutee/tee_api.c:85
     248:	9a01      	ldr	r2, [sp, #4]
     24a:	00a9      	lsls	r1, r5, #2
     24c:	fa22 f101 	lsr.w	r1, r2, r1
     250:	f001 020f 	and.w	r2, r1, #15
     254:	2a03      	cmp	r2, #3
     256:	d02a      	beq.n	2ae <copy_param+0x118>
     258:	f011 0f0c 	tst.w	r1, #12
     25c:	d108      	bne.n	270 <copy_param+0xda>
     25e:	2a01      	cmp	r2, #1
     260:	d025      	beq.n	2ae <copy_param+0x118>
/home/aom1/Work/Linux/target/STM32MP1-DK2/buildroot/buildroot/output/build/optee-os-custom/lib/libutee/tee_api.c:109
     262:	ed84 8b02 	vstr	d8, [r4, #8]
/home/aom1/Work/Linux/target/STM32MP1-DK2/buildroot/buildroot/output/build/optee-os-custom/lib/libutee/tee_api.c:110
     266:	ed84 8b04 	vstr	d8, [r4, #16]
/home/aom1/Work/Linux/target/STM32MP1-DK2/buildroot/buildroot/output/build/optee-os-custom/lib/libutee/tee_api.c:111
     26a:	e028      	b.n	2be <copy_param+0x128>
/home/aom1/Work/Linux/target/STM32MP1-DK2/buildroot/buildroot/output/build/optee-os-custom/lib/libutee/tee_api.c:31
     26c:	462b      	mov	r3, r5
     26e:	e7e1      	b.n	234 <copy_param+0x9e>
/home/aom1/Work/Linux/target/STM32MP1-DK2/buildroot/buildroot/output/build/optee-os-custom/lib/libutee/tee_api.c:85
     270:	1f51      	subs	r1, r2, #5
     272:	2902      	cmp	r1, #2
     274:	d8f5      	bhi.n	262 <copy_param+0xcc>
/home/aom1/Work/Linux/target/STM32MP1-DK2/buildroot/buildroot/output/build/optee-os-custom/lib/libutee/tee_api.c:95
     276:	f815 100a 	ldrb.w	r1, [r5, sl]
/home/aom1/Work/Linux/target/STM32MP1-DK2/buildroot/buildroot/output/build/optee-os-custom/lib/libutee/tee_api.c:94
     27a:	f8d8 b004 	ldr.w	fp, [r8, #4]
/home/aom1/Work/Linux/target/STM32MP1-DK2/buildroot/buildroot/output/build/optee-os-custom/lib/libutee/tee_api.c:95
     27e:	b391      	cbz	r1, 2e6 <copy_param+0x150>
/home/aom1/Work/Linux/target/STM32MP1-DK2/buildroot/buildroot/output/build/optee-os-custom/lib/libutee/tee_api.c:97
     280:	9902      	ldr	r1, [sp, #8]
/home/aom1/Work/Linux/target/STM32MP1-DK2/buildroot/buildroot/output/build/optee-os-custom/lib/libutee/tee_api.c:98
     282:	f10b 0607 	add.w	r6, fp, #7
     286:	f026 0607 	bic.w	r6, r6, #7
/home/aom1/Work/Linux/target/STM32MP1-DK2/buildroot/buildroot/output/build/optee-os-custom/lib/libutee/tee_api.c:99
     28a:	2a06      	cmp	r2, #6
/home/aom1/Work/Linux/target/STM32MP1-DK2/buildroot/buildroot/output/build/optee-os-custom/lib/libutee/tee_api.c:98
     28c:	441e      	add	r6, r3
/home/aom1/Work/Linux/target/STM32MP1-DK2/buildroot/buildroot/output/build/optee-os-custom/lib/libutee/tee_api.c:97
     28e:	f841 3025 	str.w	r3, [r1, r5, lsl #2]
/home/aom1/Work/Linux/target/STM32MP1-DK2/buildroot/buildroot/output/build/optee-os-custom/lib/libutee/tee_api.c:99
     292:	d006      	beq.n	2a2 <copy_param+0x10c>
/home/aom1/Work/Linux/target/STM32MP1-DK2/buildroot/buildroot/output/build/optee-os-custom/lib/libutee/tee_api.c:101
     294:	f857 1035 	ldr.w	r1, [r7, r5, lsl #3]
     298:	4618      	mov	r0, r3
     29a:	465a      	mov	r2, fp
     29c:	f000 fc1e 	bl	adc <memcpy>
     2a0:	4603      	mov	r3, r0
/home/aom1/Work/Linux/target/STM32MP1-DK2/buildroot/buildroot/output/build/optee-os-custom/lib/libutee/tee_api.c:105
     2a2:	e9c4 3902 	strd	r3, r9, [r4, #8]
/home/aom1/Work/Linux/target/STM32MP1-DK2/buildroot/buildroot/output/build/optee-os-custom/lib/libutee/tee_api.c:106
     2a6:	e9c4 b904 	strd	fp, r9, [r4, #16]
/home/aom1/Work/Linux/target/STM32MP1-DK2/buildroot/buildroot/output/build/optee-os-custom/lib/libutee/tee_api.c:107
     2aa:	4633      	mov	r3, r6
     2ac:	e007      	b.n	2be <copy_param+0x128>
/home/aom1/Work/Linux/target/STM32MP1-DK2/buildroot/buildroot/output/build/optee-os-custom/lib/libutee/tee_api.c:88
     2ae:	f857 2035 	ldr.w	r2, [r7, r5, lsl #3]
     2b2:	e9c4 2902 	strd	r2, r9, [r4, #8]
/home/aom1/Work/Linux/target/STM32MP1-DK2/buildroot/buildroot/output/build/optee-os-custom/lib/libutee/tee_api.c:89
     2b6:	f8d8 2004 	ldr.w	r2, [r8, #4]
     2ba:	e9c4 2904 	strd	r2, r9, [r4, #16]
/home/aom1/Work/Linux/target/STM32MP1-DK2/buildroot/buildroot/output/build/optee-os-custom/lib/libutee/tee_api.c:84 (discriminator 2)
     2be:	3501      	adds	r5, #1
     2c0:	f108 0808 	add.w	r8, r8, #8
     2c4:	2d04      	cmp	r5, #4
     2c6:	f104 0410 	add.w	r4, r4, #16
     2ca:	d1bd      	bne.n	248 <copy_param+0xb2>
/home/aom1/Work/Linux/target/STM32MP1-DK2/buildroot/buildroot/output/build/optee-os-custom/lib/libutee/tee_api.c:115
     2cc:	2000      	movs	r0, #0
/home/aom1/Work/Linux/target/STM32MP1-DK2/buildroot/buildroot/output/build/optee-os-custom/lib/libutee/tee_api.c:29
     2ce:	4a11      	ldr	r2, [pc, #68]	; (314 <copy_param+0x17e>)
/home/aom1/Work/Linux/target/STM32MP1-DK2/buildroot/buildroot/output/build/optee-os-custom/lib/libutee/tee_api.c:116
     2d0:	4b0f      	ldr	r3, [pc, #60]	; (310 <copy_param+0x17a>)
/home/aom1/Work/Linux/target/STM32MP1-DK2/buildroot/buildroot/output/build/optee-os-custom/lib/libutee/tee_api.c:29
     2d2:	447a      	add	r2, pc
/home/aom1/Work/Linux/target/STM32MP1-DK2/buildroot/buildroot/output/build/optee-os-custom/lib/libutee/tee_api.c:116
     2d4:	58d3      	ldr	r3, [r2, r3]
     2d6:	681a      	ldr	r2, [r3, #0]
     2d8:	9b05      	ldr	r3, [sp, #20]
     2da:	405a      	eors	r2, r3
     2dc:	f04f 0300 	mov.w	r3, #0
     2e0:	d007      	beq.n	2f2 <copy_param+0x15c>
     2e2:	f00a fd0a 	bl	acfa <__stack_chk_fail>
/home/aom1/Work/Linux/target/STM32MP1-DK2/buildroot/buildroot/output/build/optee-os-custom/lib/libutee/tee_api.c:103
     2e6:	461e      	mov	r6, r3
     2e8:	f857 3035 	ldr.w	r3, [r7, r5, lsl #3]
     2ec:	e7d9      	b.n	2a2 <copy_param+0x10c>
/home/aom1/Work/Linux/target/STM32MP1-DK2/buildroot/buildroot/output/build/optee-os-custom/lib/libutee/tee_api.c:78
     2ee:	4806      	ldr	r0, [pc, #24]	; (308 <copy_param+0x172>)
     2f0:	e7ed      	b.n	2ce <copy_param+0x138>
/home/aom1/Work/Linux/target/STM32MP1-DK2/buildroot/buildroot/output/build/optee-os-custom/lib/libutee/tee_api.c:116
     2f2:	b007      	add	sp, #28
     2f4:	ecbd 8b02 	vpop	{d8}
     2f8:	e8bd 8ff0 	ldmia.w	sp!, {r4, r5, r6, r7, r8, r9, sl, fp, pc}
     2fc:	f3af 8000 	nop.w
	...
     308:	ffff000c 	.word	0xffff000c
     30c:	0000ced8 	.word	0x0000ced8
     310:	0000000c 	.word	0x0000000c
     314:	0000cdb2 	.word	0x0000cdb2

00000318 <TEE_OpenTASession>:
TEE_OpenTASession():
/home/aom1/Work/Linux/target/STM32MP1-DK2/buildroot/buildroot/output/build/optee-os-custom/lib/libutee/tee_api.c:154
     318:	e92d 4ff0 	stmdb	sp!, {r4, r5, r6, r7, r8, r9, sl, fp, lr}
     31c:	4614      	mov	r4, r2
     31e:	4a2c      	ldr	r2, [pc, #176]	; (3d0 <TEE_OpenTASession+0xb8>)
     320:	461d      	mov	r5, r3
     322:	4b2c      	ldr	r3, [pc, #176]	; (3d4 <TEE_OpenTASession+0xbc>)
     324:	b09f      	sub	sp, #124	; 0x7c
     326:	447a      	add	r2, pc
/home/aom1/Work/Linux/target/STM32MP1-DK2/buildroot/buildroot/output/build/optee-os-custom/lib/libutee/tee_api.c:160
     328:	ae06      	add	r6, sp, #24
/home/aom1/Work/Linux/target/STM32MP1-DK2/buildroot/buildroot/output/build/optee-os-custom/lib/libutee/tee_api.c:154
     32a:	4680      	mov	r8, r0
     32c:	4689      	mov	r9, r1
     32e:	58d3      	ldr	r3, [r2, r3]
/home/aom1/Work/Linux/target/STM32MP1-DK2/buildroot/buildroot/output/build/optee-os-custom/lib/libutee/tee_api.c:157
     330:	2100      	movs	r1, #0
/home/aom1/Work/Linux/target/STM32MP1-DK2/buildroot/buildroot/output/build/optee-os-custom/lib/libutee/tee_api.c:160
     332:	4630      	mov	r0, r6
     334:	2210      	movs	r2, #16
/home/aom1/Work/Linux/target/STM32MP1-DK2/buildroot/buildroot/output/build/optee-os-custom/lib/libutee/tee_api.c:154
     336:	681b      	ldr	r3, [r3, #0]
     338:	931d      	str	r3, [sp, #116]	; 0x74
     33a:	f04f 0300 	mov.w	r3, #0
     33e:	e9dd ab28 	ldrd	sl, fp, [sp, #160]	; 0xa0
/home/aom1/Work/Linux/target/STM32MP1-DK2/buildroot/buildroot/output/build/optee-os-custom/lib/libutee/tee_api.c:157
     342:	9103      	str	r1, [sp, #12]
/home/aom1/Work/Linux/target/STM32MP1-DK2/buildroot/buildroot/output/build/optee-os-custom/lib/libutee/tee_api.c:159
     344:	e9cd 1104 	strd	r1, r1, [sp, #16]
/home/aom1/Work/Linux/target/STM32MP1-DK2/buildroot/buildroot/output/build/optee-os-custom/lib/libutee/tee_api.c:160
     348:	f00a fcd8 	bl	acfc <memset>
/home/aom1/Work/Linux/target/STM32MP1-DK2/buildroot/buildroot/output/build/optee-os-custom/lib/libutee/tee_api.c:162
     34c:	b11c      	cbz	r4, 356 <TEE_OpenTASession+0x3e>
/home/aom1/Work/Linux/target/STM32MP1-DK2/buildroot/buildroot/output/build/optee-os-custom/lib/libutee/tee_api.c:163
     34e:	2120      	movs	r1, #32
     350:	4628      	mov	r0, r5
     352:	f004 f85e 	bl	4412 <__utee_check_inout_annotation>
/home/aom1/Work/Linux/target/STM32MP1-DK2/buildroot/buildroot/output/build/optee-os-custom/lib/libutee/tee_api.c:166
     356:	2104      	movs	r1, #4
     358:	4650      	mov	r0, sl
/home/aom1/Work/Linux/target/STM32MP1-DK2/buildroot/buildroot/output/build/optee-os-custom/lib/libutee/tee_api.c:168
     35a:	af0a      	add	r7, sp, #40	; 0x28
/home/aom1/Work/Linux/target/STM32MP1-DK2/buildroot/buildroot/output/build/optee-os-custom/lib/libutee/tee_api.c:166
     35c:	f004 f846 	bl	43ec <__utee_check_out_annotation>
/home/aom1/Work/Linux/target/STM32MP1-DK2/buildroot/buildroot/output/build/optee-os-custom/lib/libutee/tee_api.c:168
     360:	9601      	str	r6, [sp, #4]
     362:	ab05      	add	r3, sp, #20
     364:	9300      	str	r3, [sp, #0]
     366:	4621      	mov	r1, r4
     368:	ab04      	add	r3, sp, #16
     36a:	462a      	mov	r2, r5
     36c:	4638      	mov	r0, r7
     36e:	f7ff ff12 	bl	196 <copy_param>
/home/aom1/Work/Linux/target/STM32MP1-DK2/buildroot/buildroot/output/build/optee-os-custom/lib/libutee/tee_api.c:169
     372:	4604      	mov	r4, r0
     374:	b9b0      	cbnz	r0, 3a4 <TEE_OpenTASession+0x8c>
/home/aom1/Work/Linux/target/STM32MP1-DK2/buildroot/buildroot/output/build/optee-os-custom/lib/libutee/tee_api.c:171
     376:	f8cd b000 	str.w	fp, [sp]
     37a:	ab03      	add	r3, sp, #12
     37c:	463a      	mov	r2, r7
     37e:	4649      	mov	r1, r9
     380:	4640      	mov	r0, r8
     382:	f004 edbc 	blx	4efc <_utee_open_ta_session>
     386:	4604      	mov	r4, r0
/home/aom1/Work/Linux/target/STM32MP1-DK2/buildroot/buildroot/output/build/optee-os-custom/lib/libutee/tee_api.c:173
     388:	463a      	mov	r2, r7
     38a:	4628      	mov	r0, r5
     38c:	4631      	mov	r1, r6
     38e:	f7ff fe47 	bl	20 <update_out_param>
/home/aom1/Work/Linux/target/STM32MP1-DK2/buildroot/buildroot/output/build/optee-os-custom/lib/libutee/tee_api.c:174
     392:	9804      	ldr	r0, [sp, #16]
     394:	b128      	cbz	r0, 3a2 <TEE_OpenTASession+0x8a>
/home/aom1/Work/Linux/target/STM32MP1-DK2/buildroot/buildroot/output/build/optee-os-custom/lib/libutee/tee_api.c:175
     396:	9905      	ldr	r1, [sp, #20]
     398:	f004 fcd2 	bl	4d40 <tee_unmap>
/home/aom1/Work/Linux/target/STM32MP1-DK2/buildroot/buildroot/output/build/optee-os-custom/lib/libutee/tee_api.c:177
     39c:	b108      	cbz	r0, 3a2 <TEE_OpenTASession+0x8a>
/home/aom1/Work/Linux/target/STM32MP1-DK2/buildroot/buildroot/output/build/optee-os-custom/lib/libutee/tee_api.c:178
     39e:	f003 ffe3 	bl	4368 <TEE_Panic>
/home/aom1/Work/Linux/target/STM32MP1-DK2/buildroot/buildroot/output/build/optee-os-custom/lib/libutee/tee_api.c:187
     3a2:	b10c      	cbz	r4, 3a8 <TEE_OpenTASession+0x90>
/home/aom1/Work/Linux/target/STM32MP1-DK2/buildroot/buildroot/output/build/optee-os-custom/lib/libutee/tee_api.c:188
     3a4:	2300      	movs	r3, #0
     3a6:	9303      	str	r3, [sp, #12]
/home/aom1/Work/Linux/target/STM32MP1-DK2/buildroot/buildroot/output/build/optee-os-custom/lib/libutee/tee_api.c:190
     3a8:	9b03      	ldr	r3, [sp, #12]
/home/aom1/Work/Linux/target/STM32MP1-DK2/buildroot/buildroot/output/build/optee-os-custom/lib/libutee/tee_api.c:154
     3aa:	4a0b      	ldr	r2, [pc, #44]	; (3d8 <TEE_OpenTASession+0xc0>)
/home/aom1/Work/Linux/target/STM32MP1-DK2/buildroot/buildroot/output/build/optee-os-custom/lib/libutee/tee_api.c:190
     3ac:	f8ca 3000 	str.w	r3, [sl]
/home/aom1/Work/Linux/target/STM32MP1-DK2/buildroot/buildroot/output/build/optee-os-custom/lib/libutee/tee_api.c:154
     3b0:	447a      	add	r2, pc
/home/aom1/Work/Linux/target/STM32MP1-DK2/buildroot/buildroot/output/build/optee-os-custom/lib/libutee/tee_api.c:192
     3b2:	4b08      	ldr	r3, [pc, #32]	; (3d4 <TEE_OpenTASession+0xbc>)
     3b4:	58d3      	ldr	r3, [r2, r3]
     3b6:	681a      	ldr	r2, [r3, #0]
     3b8:	9b1d      	ldr	r3, [sp, #116]	; 0x74
     3ba:	405a      	eors	r2, r3
     3bc:	f04f 0300 	mov.w	r3, #0
     3c0:	d001      	beq.n	3c6 <TEE_OpenTASession+0xae>
     3c2:	f00a fc9a 	bl	acfa <__stack_chk_fail>
     3c6:	4620      	mov	r0, r4
     3c8:	b01f      	add	sp, #124	; 0x7c
     3ca:	e8bd 8ff0 	ldmia.w	sp!, {r4, r5, r6, r7, r8, r9, sl, fp, pc}
     3ce:	bf00      	nop
     3d0:	0000cd5e 	.word	0x0000cd5e
     3d4:	0000000c 	.word	0x0000000c
     3d8:	0000ccd4 	.word	0x0000ccd4

000003dc <TEE_InvokeTACommand>:
TEE_InvokeTACommand():
/home/aom1/Work/Linux/target/STM32MP1-DK2/buildroot/buildroot/output/build/optee-os-custom/lib/libutee/tee_api.c:209
     3dc:	e92d 4ff0 	stmdb	sp!, {r4, r5, r6, r7, r8, r9, sl, fp, lr}
     3e0:	4693      	mov	fp, r2
     3e2:	4a34      	ldr	r2, [pc, #208]	; (4b4 <TEE_InvokeTACommand+0xd8>)
     3e4:	461c      	mov	r4, r3
     3e6:	4b34      	ldr	r3, [pc, #208]	; (4b8 <TEE_InvokeTACommand+0xdc>)
     3e8:	b09f      	sub	sp, #124	; 0x7c
     3ea:	447a      	add	r2, pc
/home/aom1/Work/Linux/target/STM32MP1-DK2/buildroot/buildroot/output/build/optee-os-custom/lib/libutee/tee_api.c:215
     3ec:	af06      	add	r7, sp, #24
/home/aom1/Work/Linux/target/STM32MP1-DK2/buildroot/buildroot/output/build/optee-os-custom/lib/libutee/tee_api.c:209
     3ee:	4681      	mov	r9, r0
     3f0:	468a      	mov	sl, r1
     3f2:	58d3      	ldr	r3, [r2, r3]
/home/aom1/Work/Linux/target/STM32MP1-DK2/buildroot/buildroot/output/build/optee-os-custom/lib/libutee/tee_api.c:213
     3f4:	2100      	movs	r1, #0
/home/aom1/Work/Linux/target/STM32MP1-DK2/buildroot/buildroot/output/build/optee-os-custom/lib/libutee/tee_api.c:215
     3f6:	4638      	mov	r0, r7
     3f8:	2210      	movs	r2, #16
/home/aom1/Work/Linux/target/STM32MP1-DK2/buildroot/buildroot/output/build/optee-os-custom/lib/libutee/tee_api.c:209
     3fa:	681b      	ldr	r3, [r3, #0]
     3fc:	931d      	str	r3, [sp, #116]	; 0x74
     3fe:	f04f 0300 	mov.w	r3, #0
/home/aom1/Work/Linux/target/STM32MP1-DK2/buildroot/buildroot/output/build/optee-os-custom/lib/libutee/tee_api.c:211
     402:	2303      	movs	r3, #3
/home/aom1/Work/Linux/target/STM32MP1-DK2/buildroot/buildroot/output/build/optee-os-custom/lib/libutee/tee_api.c:209
     404:	e9dd 6528 	ldrd	r6, r5, [sp, #160]	; 0xa0
/home/aom1/Work/Linux/target/STM32MP1-DK2/buildroot/buildroot/output/build/optee-os-custom/lib/libutee/tee_api.c:211
     408:	9303      	str	r3, [sp, #12]
/home/aom1/Work/Linux/target/STM32MP1-DK2/buildroot/buildroot/output/build/optee-os-custom/lib/libutee/tee_api.c:214
     40a:	e9cd 1104 	strd	r1, r1, [sp, #16]
/home/aom1/Work/Linux/target/STM32MP1-DK2/buildroot/buildroot/output/build/optee-os-custom/lib/libutee/tee_api.c:215
     40e:	f00a fc75 	bl	acfc <memset>
/home/aom1/Work/Linux/target/STM32MP1-DK2/buildroot/buildroot/output/build/optee-os-custom/lib/libutee/tee_api.c:217
     412:	b11c      	cbz	r4, 41c <TEE_InvokeTACommand+0x40>
/home/aom1/Work/Linux/target/STM32MP1-DK2/buildroot/buildroot/output/build/optee-os-custom/lib/libutee/tee_api.c:218
     414:	2120      	movs	r1, #32
     416:	4630      	mov	r0, r6
     418:	f003 fffb 	bl	4412 <__utee_check_inout_annotation>
/home/aom1/Work/Linux/target/STM32MP1-DK2/buildroot/buildroot/output/build/optee-os-custom/lib/libutee/tee_api.c:221
     41c:	b11d      	cbz	r5, 426 <TEE_InvokeTACommand+0x4a>
/home/aom1/Work/Linux/target/STM32MP1-DK2/buildroot/buildroot/output/build/optee-os-custom/lib/libutee/tee_api.c:222
     41e:	2104      	movs	r1, #4
     420:	4628      	mov	r0, r5
     422:	f003 ffe3 	bl	43ec <__utee_check_out_annotation>
/home/aom1/Work/Linux/target/STM32MP1-DK2/buildroot/buildroot/output/build/optee-os-custom/lib/libutee/tee_api.c:225
     426:	9701      	str	r7, [sp, #4]
     428:	ab05      	add	r3, sp, #20
     42a:	9300      	str	r3, [sp, #0]
     42c:	f10d 0828 	add.w	r8, sp, #40	; 0x28
     430:	4621      	mov	r1, r4
     432:	ab04      	add	r3, sp, #16
     434:	4632      	mov	r2, r6
     436:	4640      	mov	r0, r8
     438:	f7ff fead 	bl	196 <copy_param>
/home/aom1/Work/Linux/target/STM32MP1-DK2/buildroot/buildroot/output/build/optee-os-custom/lib/libutee/tee_api.c:226
     43c:	4604      	mov	r4, r0
     43e:	b9a8      	cbnz	r0, 46c <TEE_InvokeTACommand+0x90>
/home/aom1/Work/Linux/target/STM32MP1-DK2/buildroot/buildroot/output/build/optee-os-custom/lib/libutee/tee_api.c:228
     440:	ab03      	add	r3, sp, #12
     442:	465a      	mov	r2, fp
     444:	9300      	str	r3, [sp, #0]
     446:	4651      	mov	r1, sl
     448:	4643      	mov	r3, r8
     44a:	4648      	mov	r0, r9
     44c:	f004 ed6c 	blx	4f28 <_utee_invoke_ta_command>
     450:	4604      	mov	r4, r0
/home/aom1/Work/Linux/target/STM32MP1-DK2/buildroot/buildroot/output/build/optee-os-custom/lib/libutee/tee_api.c:231
     452:	4642      	mov	r2, r8
     454:	4630      	mov	r0, r6
     456:	4639      	mov	r1, r7
     458:	f7ff fde2 	bl	20 <update_out_param>
/home/aom1/Work/Linux/target/STM32MP1-DK2/buildroot/buildroot/output/build/optee-os-custom/lib/libutee/tee_api.c:232
     45c:	9804      	ldr	r0, [sp, #16]
     45e:	b128      	cbz	r0, 46c <TEE_InvokeTACommand+0x90>
/home/aom1/Work/Linux/target/STM32MP1-DK2/buildroot/buildroot/output/build/optee-os-custom/lib/libutee/tee_api.c:233
     460:	9905      	ldr	r1, [sp, #20]
     462:	f004 fc6d 	bl	4d40 <tee_unmap>
/home/aom1/Work/Linux/target/STM32MP1-DK2/buildroot/buildroot/output/build/optee-os-custom/lib/libutee/tee_api.c:235
     466:	b108      	cbz	r0, 46c <TEE_InvokeTACommand+0x90>
/home/aom1/Work/Linux/target/STM32MP1-DK2/buildroot/buildroot/output/build/optee-os-custom/lib/libutee/tee_api.c:236
     468:	f003 ff7e 	bl	4368 <TEE_Panic>
/home/aom1/Work/Linux/target/STM32MP1-DK2/buildroot/buildroot/output/build/optee-os-custom/lib/libutee/tee_api.c:241
     46c:	9b03      	ldr	r3, [sp, #12]
/home/aom1/Work/Linux/target/STM32MP1-DK2/buildroot/buildroot/output/build/optee-os-custom/lib/libutee/tee_api.c:240
     46e:	b105      	cbz	r5, 472 <TEE_InvokeTACommand+0x96>
/home/aom1/Work/Linux/target/STM32MP1-DK2/buildroot/buildroot/output/build/optee-os-custom/lib/libutee/tee_api.c:241
     470:	602b      	str	r3, [r5, #0]
/home/aom1/Work/Linux/target/STM32MP1-DK2/buildroot/buildroot/output/build/optee-os-custom/lib/libutee/tee_api.c:243
     472:	2b04      	cmp	r3, #4
     474:	d009      	beq.n	48a <TEE_InvokeTACommand+0xae>
/home/aom1/Work/Linux/target/STM32MP1-DK2/buildroot/buildroot/output/build/optee-os-custom/lib/libutee/tee_api.c:246
     476:	b144      	cbz	r4, 48a <TEE_InvokeTACommand+0xae>
/home/aom1/Work/Linux/target/STM32MP1-DK2/buildroot/buildroot/output/build/optee-os-custom/lib/libutee/tee_api.c:246 (discriminator 1)
     478:	4b0c      	ldr	r3, [pc, #48]	; (4ac <TEE_InvokeTACommand+0xd0>)
     47a:	429c      	cmp	r4, r3
     47c:	d005      	beq.n	48a <TEE_InvokeTACommand+0xae>
/home/aom1/Work/Linux/target/STM32MP1-DK2/buildroot/buildroot/output/build/optee-os-custom/lib/libutee/tee_api.c:247
     47e:	4b0c      	ldr	r3, [pc, #48]	; (4b0 <TEE_InvokeTACommand+0xd4>)
     480:	429c      	cmp	r4, r3
     482:	d002      	beq.n	48a <TEE_InvokeTACommand+0xae>
/home/aom1/Work/Linux/target/STM32MP1-DK2/buildroot/buildroot/output/build/optee-os-custom/lib/libutee/tee_api.c:249
     484:	4620      	mov	r0, r4
     486:	f003 ff6f 	bl	4368 <TEE_Panic>
/home/aom1/Work/Linux/target/STM32MP1-DK2/buildroot/buildroot/output/build/optee-os-custom/lib/libutee/tee_api.c:209
     48a:	4a0c      	ldr	r2, [pc, #48]	; (4bc <TEE_InvokeTACommand+0xe0>)
/home/aom1/Work/Linux/target/STM32MP1-DK2/buildroot/buildroot/output/build/optee-os-custom/lib/libutee/tee_api.c:252
     48c:	4b0a      	ldr	r3, [pc, #40]	; (4b8 <TEE_InvokeTACommand+0xdc>)
/home/aom1/Work/Linux/target/STM32MP1-DK2/buildroot/buildroot/output/build/optee-os-custom/lib/libutee/tee_api.c:209
     48e:	447a      	add	r2, pc
/home/aom1/Work/Linux/target/STM32MP1-DK2/buildroot/buildroot/output/build/optee-os-custom/lib/libutee/tee_api.c:252
     490:	58d3      	ldr	r3, [r2, r3]
     492:	681a      	ldr	r2, [r3, #0]
     494:	9b1d      	ldr	r3, [sp, #116]	; 0x74
     496:	405a      	eors	r2, r3
     498:	f04f 0300 	mov.w	r3, #0
     49c:	d001      	beq.n	4a2 <TEE_InvokeTACommand+0xc6>
     49e:	f00a fc2c 	bl	acfa <__stack_chk_fail>
     4a2:	4620      	mov	r0, r4
     4a4:	b01f      	add	sp, #124	; 0x7c
     4a6:	e8bd 8ff0 	ldmia.w	sp!, {r4, r5, r6, r7, r8, r9, sl, fp, pc}
     4aa:	bf00      	nop
     4ac:	ffff000c 	.word	0xffff000c
     4b0:	ffff3024 	.word	0xffff3024
     4b4:	0000cc9a 	.word	0x0000cc9a
     4b8:	0000000c 	.word	0x0000000c
     4bc:	0000cbf6 	.word	0x0000cbf6

000004c0 <TEE_SetInstanceData>:
TEE_SetInstanceData():
/home/aom1/Work/Linux/target/STM32MP1-DK2/buildroot/buildroot/output/build/optee-os-custom/lib/libutee/tee_api.c:313
     4c0:	4b01      	ldr	r3, [pc, #4]	; (4c8 <TEE_SetInstanceData+0x8>)
     4c2:	447b      	add	r3, pc
     4c4:	6018      	str	r0, [r3, #0]
/home/aom1/Work/Linux/target/STM32MP1-DK2/buildroot/buildroot/output/build/optee-os-custom/lib/libutee/tee_api.c:314
     4c6:	4770      	bx	lr
     4c8:	0000cea2 	.word	0x0000cea2

000004cc <TEE_GetInstanceData>:
TEE_GetInstanceData():
/home/aom1/Work/Linux/target/STM32MP1-DK2/buildroot/buildroot/output/build/optee-os-custom/lib/libutee/tee_api.c:319
     4cc:	4b01      	ldr	r3, [pc, #4]	; (4d4 <TEE_GetInstanceData+0x8>)
     4ce:	447b      	add	r3, pc
     4d0:	6818      	ldr	r0, [r3, #0]
     4d2:	4770      	bx	lr
     4d4:	0000ce96 	.word	0x0000ce96

000004d8 <TEE_MemMove>:
TEE_MemMove():
/home/aom1/Work/Linux/target/STM32MP1-DK2/buildroot/buildroot/output/build/optee-os-custom/lib/libutee/tee_api.c:323
     4d8:	f00a bc32 	b.w	ad40 <memmove>

000004dc <TEE_MemCompare>:
TEE_MemCompare():
/home/aom1/Work/Linux/target/STM32MP1-DK2/buildroot/buildroot/output/build/optee-os-custom/lib/libutee/tee_api.c:328
     4dc:	f00a bc6a 	b.w	adb4 <consttime_memcmp>

000004e0 <TEE_MemFill>:
TEE_MemFill():
/home/aom1/Work/Linux/target/STM32MP1-DK2/buildroot/buildroot/output/build/optee-os-custom/lib/libutee/tee_api.c:333
     4e0:	f00a bc0c 	b.w	acfc <memset>

000004e4 <TEE_GetSystemTime>:
TEE_GetSystemTime():
/home/aom1/Work/Linux/target/STM32MP1-DK2/buildroot/buildroot/output/build/optee-os-custom/lib/libutee/tee_api.c:339
     4e4:	4601      	mov	r1, r0
/home/aom1/Work/Linux/target/STM32MP1-DK2/buildroot/buildroot/output/build/optee-os-custom/lib/libutee/tee_api.c:340
     4e6:	2000      	movs	r0, #0
/home/aom1/Work/Linux/target/STM32MP1-DK2/buildroot/buildroot/output/build/optee-os-custom/lib/libutee/tee_api.c:339
     4e8:	b508      	push	{r3, lr}
/home/aom1/Work/Linux/target/STM32MP1-DK2/buildroot/buildroot/output/build/optee-os-custom/lib/libutee/tee_api.c:340
     4ea:	f004 ed5c 	blx	4fa4 <_utee_get_time>
/home/aom1/Work/Linux/target/STM32MP1-DK2/buildroot/buildroot/output/build/optee-os-custom/lib/libutee/tee_api.c:342
     4ee:	b118      	cbz	r0, 4f8 <TEE_GetSystemTime+0x14>
/home/aom1/Work/Linux/target/STM32MP1-DK2/buildroot/buildroot/output/build/optee-os-custom/lib/libutee/tee_api.c:344
     4f0:	e8bd 4008 	ldmia.w	sp!, {r3, lr}
/home/aom1/Work/Linux/target/STM32MP1-DK2/buildroot/buildroot/output/build/optee-os-custom/lib/libutee/tee_api.c:343
     4f4:	f003 bf38 	b.w	4368 <TEE_Panic>
/home/aom1/Work/Linux/target/STM32MP1-DK2/buildroot/buildroot/output/build/optee-os-custom/lib/libutee/tee_api.c:344
     4f8:	bd08      	pop	{r3, pc}

000004fa <TEE_Wait>:
TEE_Wait():
/home/aom1/Work/Linux/target/STM32MP1-DK2/buildroot/buildroot/output/build/optee-os-custom/lib/libutee/tee_api.c:347
     4fa:	b510      	push	{r4, lr}
/home/aom1/Work/Linux/target/STM32MP1-DK2/buildroot/buildroot/output/build/optee-os-custom/lib/libutee/tee_api.c:348
     4fc:	f004 ed48 	blx	4f90 <_utee_wait>
/home/aom1/Work/Linux/target/STM32MP1-DK2/buildroot/buildroot/output/build/optee-os-custom/lib/libutee/tee_api.c:350
     500:	4604      	mov	r4, r0
     502:	b120      	cbz	r0, 50e <TEE_Wait+0x14>
/home/aom1/Work/Linux/target/STM32MP1-DK2/buildroot/buildroot/output/build/optee-os-custom/lib/libutee/tee_api.c:350 (discriminator 1)
     504:	4b03      	ldr	r3, [pc, #12]	; (514 <TEE_Wait+0x1a>)
     506:	4298      	cmp	r0, r3
     508:	d001      	beq.n	50e <TEE_Wait+0x14>
/home/aom1/Work/Linux/target/STM32MP1-DK2/buildroot/buildroot/output/build/optee-os-custom/lib/libutee/tee_api.c:351
     50a:	f003 ff2d 	bl	4368 <TEE_Panic>
/home/aom1/Work/Linux/target/STM32MP1-DK2/buildroot/buildroot/output/build/optee-os-custom/lib/libutee/tee_api.c:354
     50e:	4620      	mov	r0, r4
     510:	bd10      	pop	{r4, pc}
     512:	bf00      	nop
     514:	ffff0002 	.word	0xffff0002

00000518 <TEE_GetTAPersistentTime>:
TEE_GetTAPersistentTime():
/home/aom1/Work/Linux/target/STM32MP1-DK2/buildroot/buildroot/output/build/optee-os-custom/lib/libutee/tee_api.c:357
     518:	b538      	push	{r3, r4, r5, lr}
/home/aom1/Work/Linux/target/STM32MP1-DK2/buildroot/buildroot/output/build/optee-os-custom/lib/libutee/tee_api.c:360
     51a:	4601      	mov	r1, r0
/home/aom1/Work/Linux/target/STM32MP1-DK2/buildroot/buildroot/output/build/optee-os-custom/lib/libutee/tee_api.c:357
     51c:	4605      	mov	r5, r0
/home/aom1/Work/Linux/target/STM32MP1-DK2/buildroot/buildroot/output/build/optee-os-custom/lib/libutee/tee_api.c:360
     51e:	2001      	movs	r0, #1
     520:	f004 ed40 	blx	4fa4 <_utee_get_time>
/home/aom1/Work/Linux/target/STM32MP1-DK2/buildroot/buildroot/output/build/optee-os-custom/lib/libutee/tee_api.c:362
     524:	4604      	mov	r4, r0
     526:	b170      	cbz	r0, 546 <TEE_GetTAPersistentTime+0x2e>
/home/aom1/Work/Linux/target/STM32MP1-DK2/buildroot/buildroot/output/build/optee-os-custom/lib/libutee/tee_api.c:362 (discriminator 1)
     528:	4b08      	ldr	r3, [pc, #32]	; (54c <TEE_GetTAPersistentTime+0x34>)
     52a:	4298      	cmp	r0, r3
     52c:	d00b      	beq.n	546 <TEE_GetTAPersistentTime+0x2e>
/home/aom1/Work/Linux/target/STM32MP1-DK2/buildroot/buildroot/output/build/optee-os-custom/lib/libutee/tee_api.c:363
     52e:	2300      	movs	r3, #0
     530:	602b      	str	r3, [r5, #0]
/home/aom1/Work/Linux/target/STM32MP1-DK2/buildroot/buildroot/output/build/optee-os-custom/lib/libutee/tee_api.c:364
     532:	606b      	str	r3, [r5, #4]
/home/aom1/Work/Linux/target/STM32MP1-DK2/buildroot/buildroot/output/build/optee-os-custom/lib/libutee/tee_api.c:367
     534:	f500 4330 	add.w	r3, r0, #45056	; 0xb000
     538:	2b01      	cmp	r3, #1
     53a:	d904      	bls.n	546 <TEE_GetTAPersistentTime+0x2e>
/home/aom1/Work/Linux/target/STM32MP1-DK2/buildroot/buildroot/output/build/optee-os-custom/lib/libutee/tee_api.c:370
     53c:	4b04      	ldr	r3, [pc, #16]	; (550 <TEE_GetTAPersistentTime+0x38>)
     53e:	4298      	cmp	r0, r3
     540:	d001      	beq.n	546 <TEE_GetTAPersistentTime+0x2e>
/home/aom1/Work/Linux/target/STM32MP1-DK2/buildroot/buildroot/output/build/optee-os-custom/lib/libutee/tee_api.c:372
     542:	f003 ff11 	bl	4368 <TEE_Panic>
/home/aom1/Work/Linux/target/STM32MP1-DK2/buildroot/buildroot/output/build/optee-os-custom/lib/libutee/tee_api.c:375
     546:	4620      	mov	r0, r4
     548:	bd38      	pop	{r3, r4, r5, pc}
     54a:	bf00      	nop
     54c:	ffff300f 	.word	0xffff300f
     550:	ffff000c 	.word	0xffff000c

00000554 <TEE_SetTAPersistentTime>:
TEE_SetTAPersistentTime():
/home/aom1/Work/Linux/target/STM32MP1-DK2/buildroot/buildroot/output/build/optee-os-custom/lib/libutee/tee_api.c:378
     554:	b510      	push	{r4, lr}
/home/aom1/Work/Linux/target/STM32MP1-DK2/buildroot/buildroot/output/build/optee-os-custom/lib/libutee/tee_api.c:381
     556:	f004 ed30 	blx	4fb8 <_utee_set_ta_time>
/home/aom1/Work/Linux/target/STM32MP1-DK2/buildroot/buildroot/output/build/optee-os-custom/lib/libutee/tee_api.c:383
     55a:	4604      	mov	r4, r0
     55c:	b138      	cbz	r0, 56e <TEE_SetTAPersistentTime+0x1a>
/home/aom1/Work/Linux/target/STM32MP1-DK2/buildroot/buildroot/output/build/optee-os-custom/lib/libutee/tee_api.c:383 (discriminator 1)
     55e:	4b05      	ldr	r3, [pc, #20]	; (574 <TEE_SetTAPersistentTime+0x20>)
     560:	4298      	cmp	r0, r3
     562:	d004      	beq.n	56e <TEE_SetTAPersistentTime+0x1a>
/home/aom1/Work/Linux/target/STM32MP1-DK2/buildroot/buildroot/output/build/optee-os-custom/lib/libutee/tee_api.c:384
     564:	4b04      	ldr	r3, [pc, #16]	; (578 <TEE_SetTAPersistentTime+0x24>)
     566:	4298      	cmp	r0, r3
     568:	d001      	beq.n	56e <TEE_SetTAPersistentTime+0x1a>
/home/aom1/Work/Linux/target/STM32MP1-DK2/buildroot/buildroot/output/build/optee-os-custom/lib/libutee/tee_api.c:386
     56a:	f003 fefd 	bl	4368 <TEE_Panic>
/home/aom1/Work/Linux/target/STM32MP1-DK2/buildroot/buildroot/output/build/optee-os-custom/lib/libutee/tee_api.c:389
     56e:	4620      	mov	r0, r4
     570:	bd10      	pop	{r4, pc}
     572:	bf00      	nop
     574:	ffff000c 	.word	0xffff000c
     578:	ffff3041 	.word	0xffff3041

0000057c <TEE_GetREETime>:
TEE_GetREETime():
/home/aom1/Work/Linux/target/STM32MP1-DK2/buildroot/buildroot/output/build/optee-os-custom/lib/libutee/tee_api.c:392
     57c:	4601      	mov	r1, r0
/home/aom1/Work/Linux/target/STM32MP1-DK2/buildroot/buildroot/output/build/optee-os-custom/lib/libutee/tee_api.c:393
     57e:	2002      	movs	r0, #2
/home/aom1/Work/Linux/target/STM32MP1-DK2/buildroot/buildroot/output/build/optee-os-custom/lib/libutee/tee_api.c:392
     580:	b508      	push	{r3, lr}
/home/aom1/Work/Linux/target/STM32MP1-DK2/buildroot/buildroot/output/build/optee-os-custom/lib/libutee/tee_api.c:393
     582:	f004 ed10 	blx	4fa4 <_utee_get_time>
/home/aom1/Work/Linux/target/STM32MP1-DK2/buildroot/buildroot/output/build/optee-os-custom/lib/libutee/tee_api.c:395
     586:	b118      	cbz	r0, 590 <TEE_GetREETime+0x14>
/home/aom1/Work/Linux/target/STM32MP1-DK2/buildroot/buildroot/output/build/optee-os-custom/lib/libutee/tee_api.c:397
     588:	e8bd 4008 	ldmia.w	sp!, {r3, lr}
/home/aom1/Work/Linux/target/STM32MP1-DK2/buildroot/buildroot/output/build/optee-os-custom/lib/libutee/tee_api.c:396
     58c:	f003 beec 	b.w	4368 <TEE_Panic>
/home/aom1/Work/Linux/target/STM32MP1-DK2/buildroot/buildroot/output/build/optee-os-custom/lib/libutee/tee_api.c:397
     590:	bd08      	pop	{r3, pc}

00000592 <TEE_Malloc>:
TEE_Malloc():
/home/aom1/Work/Linux/target/STM32MP1-DK2/buildroot/buildroot/output/build/optee-os-custom/lib/libutee/tee_api.c:400
     592:	460b      	mov	r3, r1
     594:	b507      	push	{r0, r1, r2, lr}
/home/aom1/Work/Linux/target/STM32MP1-DK2/buildroot/buildroot/output/build/optee-os-custom/lib/libutee/tee_api.c:401
     596:	4601      	mov	r1, r0
     598:	b1f0      	cbz	r0, 5d8 <TEE_Malloc+0x46>
/home/aom1/Work/Linux/target/STM32MP1-DK2/buildroot/buildroot/output/build/optee-os-custom/lib/libutee/tee_api.c:404
     59a:	b92b      	cbnz	r3, 5a8 <TEE_Malloc+0x16>
/home/aom1/Work/Linux/target/STM32MP1-DK2/buildroot/buildroot/output/build/optee-os-custom/lib/libutee/tee_api.c:405
     59c:	2001      	movs	r0, #1
/home/aom1/Work/Linux/target/STM32MP1-DK2/buildroot/buildroot/output/build/optee-os-custom/lib/libutee/tee_api.c:412
     59e:	b003      	add	sp, #12
     5a0:	f85d eb04 	ldr.w	lr, [sp], #4
/home/aom1/Work/Linux/target/STM32MP1-DK2/buildroot/buildroot/output/build/optee-os-custom/lib/libutee/tee_api.c:405
     5a4:	f00a b9fc 	b.w	a9a0 <calloc>
/home/aom1/Work/Linux/target/STM32MP1-DK2/buildroot/buildroot/output/build/optee-os-custom/lib/libutee/tee_api.c:406
     5a8:	f1b3 4f00 	cmp.w	r3, #2147483648	; 0x80000000
     5ac:	d104      	bne.n	5b8 <TEE_Malloc+0x26>
/home/aom1/Work/Linux/target/STM32MP1-DK2/buildroot/buildroot/output/build/optee-os-custom/lib/libutee/tee_api.c:412
     5ae:	b003      	add	sp, #12
     5b0:	f85d eb04 	ldr.w	lr, [sp], #4
/home/aom1/Work/Linux/target/STM32MP1-DK2/buildroot/buildroot/output/build/optee-os-custom/lib/libutee/tee_api.c:407
     5b4:	f00a b9ea 	b.w	a98c <malloc>
/home/aom1/Work/Linux/target/STM32MP1-DK2/buildroot/buildroot/output/build/optee-os-custom/lib/libutee/tee_api.c:409
     5b8:	9301      	str	r3, [sp, #4]
     5ba:	f240 1199 	movw	r1, #409	; 0x199
     5be:	4b07      	ldr	r3, [pc, #28]	; (5dc <TEE_Malloc+0x4a>)
     5c0:	4807      	ldr	r0, [pc, #28]	; (5e0 <TEE_Malloc+0x4e>)
     5c2:	447b      	add	r3, pc
     5c4:	9300      	str	r3, [sp, #0]
     5c6:	2301      	movs	r3, #1
     5c8:	4478      	add	r0, pc
     5ca:	461a      	mov	r2, r3
     5cc:	f000 fbc8 	bl	d60 <trace_printf>
/home/aom1/Work/Linux/target/STM32MP1-DK2/buildroot/buildroot/output/build/optee-os-custom/lib/libutee/tee_api.c:411
     5d0:	2000      	movs	r0, #0
/home/aom1/Work/Linux/target/STM32MP1-DK2/buildroot/buildroot/output/build/optee-os-custom/lib/libutee/tee_api.c:412
     5d2:	b003      	add	sp, #12
     5d4:	f85d fb04 	ldr.w	pc, [sp], #4
/home/aom1/Work/Linux/target/STM32MP1-DK2/buildroot/buildroot/output/build/optee-os-custom/lib/libutee/tee_api.c:402
     5d8:	2001      	movs	r0, #1
     5da:	e7fa      	b.n	5d2 <TEE_Malloc+0x40>
     5dc:	0000ae45 	.word	0x0000ae45
     5e0:	0000ae50 	.word	0x0000ae50

000005e4 <TEE_Free>:
TEE_Free():
/home/aom1/Work/Linux/target/STM32MP1-DK2/buildroot/buildroot/output/build/optee-os-custom/lib/libutee/tee_api.c:429
     5e4:	2801      	cmp	r0, #1
     5e6:	d001      	beq.n	5ec <TEE_Free+0x8>
/home/aom1/Work/Linux/target/STM32MP1-DK2/buildroot/buildroot/output/build/optee-os-custom/lib/libutee/tee_api.c:430
     5e8:	f00a ba08 	b.w	a9fc <free>
/home/aom1/Work/Linux/target/STM32MP1-DK2/buildroot/buildroot/output/build/optee-os-custom/lib/libutee/tee_api.c:431
     5ec:	4770      	bx	lr

000005ee <TEE_Realloc>:
TEE_Realloc():
/home/aom1/Work/Linux/target/STM32MP1-DK2/buildroot/buildroot/output/build/optee-os-custom/lib/libutee/tee_api.c:415
     5ee:	b508      	push	{r3, lr}
/home/aom1/Work/Linux/target/STM32MP1-DK2/buildroot/buildroot/output/build/optee-os-custom/lib/libutee/tee_api.c:416
     5f0:	b149      	cbz	r1, 606 <TEE_Realloc+0x18>
/home/aom1/Work/Linux/target/STM32MP1-DK2/buildroot/buildroot/output/build/optee-os-custom/lib/libutee/tee_api.c:421
     5f2:	2801      	cmp	r0, #1
     5f4:	d103      	bne.n	5fe <TEE_Realloc+0x10>
/home/aom1/Work/Linux/target/STM32MP1-DK2/buildroot/buildroot/output/build/optee-os-custom/lib/libutee/tee_api.c:425
     5f6:	e8bd 4008 	ldmia.w	sp!, {r3, lr}
/home/aom1/Work/Linux/target/STM32MP1-DK2/buildroot/buildroot/output/build/optee-os-custom/lib/libutee/tee_api.c:422
     5fa:	f00a b9d1 	b.w	a9a0 <calloc>
/home/aom1/Work/Linux/target/STM32MP1-DK2/buildroot/buildroot/output/build/optee-os-custom/lib/libutee/tee_api.c:425
     5fe:	e8bd 4008 	ldmia.w	sp!, {r3, lr}
/home/aom1/Work/Linux/target/STM32MP1-DK2/buildroot/buildroot/output/build/optee-os-custom/lib/libutee/tee_api.c:424
     602:	f00a b9dd 	b.w	a9c0 <realloc>
/home/aom1/Work/Linux/target/STM32MP1-DK2/buildroot/buildroot/output/build/optee-os-custom/lib/libutee/tee_api.c:417
     606:	f7ff ffed 	bl	5e4 <TEE_Free>
/home/aom1/Work/Linux/target/STM32MP1-DK2/buildroot/buildroot/output/build/optee-os-custom/lib/libutee/tee_api.c:425
     60a:	2001      	movs	r0, #1
     60c:	bd08      	pop	{r3, pc}

0000060e <TEE_CacheClean>:
TEE_CacheClean():
/home/aom1/Work/Linux/target/STM32MP1-DK2/buildroot/buildroot/output/build/optee-os-custom/lib/libutee/tee_api.c:436
     60e:	2200      	movs	r2, #0
     610:	f00a bc06 	b.w	ae20 <___utee_cache_operation_from_thumb>

00000614 <TEE_CacheFlush>:
TEE_CacheFlush():
/home/aom1/Work/Linux/target/STM32MP1-DK2/buildroot/buildroot/output/build/optee-os-custom/lib/libutee/tee_api.c:440
     614:	2201      	movs	r2, #1
     616:	f00a bc03 	b.w	ae20 <___utee_cache_operation_from_thumb>

0000061a <TEE_CacheInvalidate>:
TEE_CacheInvalidate():
/home/aom1/Work/Linux/target/STM32MP1-DK2/buildroot/buildroot/output/build/optee-os-custom/lib/libutee/tee_api.c:445
     61a:	2202      	movs	r2, #2
     61c:	f00a bc00 	b.w	ae20 <___utee_cache_operation_from_thumb>

00000620 <huk_crypt>:
huk_crypt():
/home/aom1/Work/Linux/target/STM32MP1-DK2/buildroot/buildroot/output/build/optee-os-custom/ta/trusted_keys/entry.c:149
     620:	e92d 4ff0 	stmdb	sp!, {r4, r5, r6, r7, r8, r9, sl, fp, lr}
     624:	b0a9      	sub	sp, #164	; 0xa4
     626:	4692      	mov	sl, r2
     628:	461f      	mov	r7, r3
     62a:	4a94      	ldr	r2, [pc, #592]	; (87c <huk_crypt+0x25c>)
/home/aom1/Work/Linux/target/STM32MP1-DK2/buildroot/buildroot/output/build/optee-os-custom/ta/trusted_keys/entry.c:151
     62c:	2400      	movs	r4, #0
/home/aom1/Work/Linux/target/STM32MP1-DK2/buildroot/buildroot/output/build/optee-os-custom/ta/trusted_keys/entry.c:149
     62e:	9b32      	ldr	r3, [sp, #200]	; 0xc8
     630:	4605      	mov	r5, r0
     632:	447a      	add	r2, pc
/home/aom1/Work/Linux/target/STM32MP1-DK2/buildroot/buildroot/output/build/optee-os-custom/ta/trusted_keys/entry.c:154
     634:	f10d 0830 	add.w	r8, sp, #48	; 0x30
/home/aom1/Work/Linux/target/STM32MP1-DK2/buildroot/buildroot/output/build/optee-os-custom/ta/trusted_keys/entry.c:149
     638:	9305      	str	r3, [sp, #20]
     63a:	460e      	mov	r6, r1
     63c:	4b90      	ldr	r3, [pc, #576]	; (880 <huk_crypt+0x260>)
/home/aom1/Work/Linux/target/STM32MP1-DK2/buildroot/buildroot/output/build/optee-os-custom/ta/trusted_keys/entry.c:153
     63e:	4621      	mov	r1, r4
     640:	a820      	add	r0, sp, #128	; 0x80
/home/aom1/Work/Linux/target/STM32MP1-DK2/buildroot/buildroot/output/build/optee-os-custom/ta/trusted_keys/entry.c:149
     642:	58d3      	ldr	r3, [r2, r3]
/home/aom1/Work/Linux/target/STM32MP1-DK2/buildroot/buildroot/output/build/optee-os-custom/ta/trusted_keys/entry.c:153
     644:	221c      	movs	r2, #28
/home/aom1/Work/Linux/target/STM32MP1-DK2/buildroot/buildroot/output/build/optee-os-custom/ta/trusted_keys/entry.c:149
     646:	681b      	ldr	r3, [r3, #0]
     648:	9327      	str	r3, [sp, #156]	; 0x9c
     64a:	f04f 0300 	mov.w	r3, #0
/home/aom1/Work/Linux/target/STM32MP1-DK2/buildroot/buildroot/output/build/optee-os-custom/ta/trusted_keys/entry.c:152
     64e:	e9cd 4408 	strd	r4, r4, [sp, #32]
/home/aom1/Work/Linux/target/STM32MP1-DK2/buildroot/buildroot/output/build/optee-os-custom/ta/trusted_keys/entry.c:153
     652:	941f      	str	r4, [sp, #124]	; 0x7c
     654:	f00a fb52 	bl	acfc <memset>
/home/aom1/Work/Linux/target/STM32MP1-DK2/buildroot/buildroot/output/build/optee-os-custom/ta/trusted_keys/entry.c:156
     658:	4985      	ldr	r1, [pc, #532]	; (870 <huk_crypt+0x250>)
     65a:	f44f 7380 	mov.w	r3, #256	; 0x100
/home/aom1/Work/Linux/target/STM32MP1-DK2/buildroot/buildroot/output/build/optee-os-custom/ta/trusted_keys/entry.c:154
     65e:	940c      	str	r4, [sp, #48]	; 0x30
/home/aom1/Work/Linux/target/STM32MP1-DK2/buildroot/buildroot/output/build/optee-os-custom/ta/trusted_keys/entry.c:156
     660:	462a      	mov	r2, r5
/home/aom1/Work/Linux/target/STM32MP1-DK2/buildroot/buildroot/output/build/optee-os-custom/ta/trusted_keys/entry.c:154
     662:	f8c8 4004 	str.w	r4, [r8, #4]
/home/aom1/Work/Linux/target/STM32MP1-DK2/buildroot/buildroot/output/build/optee-os-custom/ta/trusted_keys/entry.c:156
     666:	a808      	add	r0, sp, #32
/home/aom1/Work/Linux/target/STM32MP1-DK2/buildroot/buildroot/output/build/optee-os-custom/ta/trusted_keys/entry.c:154
     668:	f8c8 4008 	str.w	r4, [r8, #8]
/home/aom1/Work/Linux/target/STM32MP1-DK2/buildroot/buildroot/output/build/optee-os-custom/ta/trusted_keys/entry.c:156
     66c:	f001 ffb1 	bl	25d2 <TEE_AllocateOperation>
/home/aom1/Work/Linux/target/STM32MP1-DK2/buildroot/buildroot/output/build/optee-os-custom/ta/trusted_keys/entry.c:158
     670:	4604      	mov	r4, r0
     672:	2800      	cmp	r0, #0
     674:	d148      	bne.n	708 <huk_crypt+0xe8>
derive_unique_key():
/home/aom1/Work/Linux/target/STM32MP1-DK2/buildroot/buildroot/output/build/optee-os-custom/ta/trusted_keys/entry.c:63
     676:	900a      	str	r0, [sp, #40]	; 0x28
/home/aom1/Work/Linux/target/STM32MP1-DK2/buildroot/buildroot/output/build/optee-os-custom/ta/trusted_keys/entry.c:64
     678:	f10d 0b4c 	add.w	fp, sp, #76	; 0x4c
     67c:	f04f 0920 	mov.w	r9, #32
     680:	4601      	mov	r1, r0
     682:	464a      	mov	r2, r9
     684:	4658      	mov	r0, fp
     686:	f00a fb39 	bl	acfc <memset>
/home/aom1/Work/Linux/target/STM32MP1-DK2/buildroot/buildroot/output/build/optee-os-custom/ta/trusted_keys/entry.c:72
     68a:	4b7e      	ldr	r3, [pc, #504]	; (884 <huk_crypt+0x264>)
     68c:	f10d 0c3c 	add.w	ip, sp, #60	; 0x3c
/home/aom1/Work/Linux/target/STM32MP1-DK2/buildroot/buildroot/output/build/optee-os-custom/ta/trusted_keys/entry.c:66
     690:	940b      	str	r4, [sp, #44]	; 0x2c
/home/aom1/Work/Linux/target/STM32MP1-DK2/buildroot/buildroot/output/build/optee-os-custom/ta/trusted_keys/entry.c:72
     692:	447b      	add	r3, pc
     694:	cb0f      	ldmia	r3, {r0, r1, r2, r3}
     696:	e88c 000f 	stmia.w	ip, {r0, r1, r2, r3}
     69a:	ab0b      	add	r3, sp, #44	; 0x2c
     69c:	9304      	str	r3, [sp, #16]
     69e:	4622      	mov	r2, r4
     6a0:	9301      	str	r3, [sp, #4]
     6a2:	ab0a      	add	r3, sp, #40	; 0x28
     6a4:	9306      	str	r3, [sp, #24]
     6a6:	f04f 31ff 	mov.w	r1, #4294967295	; 0xffffffff
     6aa:	9300      	str	r3, [sp, #0]
     6ac:	4660      	mov	r0, ip
     6ae:	4623      	mov	r3, r4
     6b0:	f7ff fe32 	bl	318 <TEE_OpenTASession>
/home/aom1/Work/Linux/target/STM32MP1-DK2/buildroot/buildroot/output/build/optee-os-custom/ta/trusted_keys/entry.c:75
     6b4:	4604      	mov	r4, r0
     6b6:	b9a0      	cbnz	r0, 6e2 <huk_crypt+0xc2>
/home/aom1/Work/Linux/target/STM32MP1-DK2/buildroot/buildroot/output/build/optee-os-custom/ta/trusted_keys/entry.c:86
     6b8:	980a      	ldr	r0, [sp, #40]	; 0x28
/home/aom1/Work/Linux/target/STM32MP1-DK2/buildroot/buildroot/output/build/optee-os-custom/ta/trusted_keys/entry.c:83
     6ba:	ab1f      	add	r3, sp, #124	; 0x7c
     6bc:	9307      	str	r3, [sp, #28]
/home/aom1/Work/Linux/target/STM32MP1-DK2/buildroot/buildroot/output/build/optee-os-custom/ta/trusted_keys/entry.c:86
     6be:	2201      	movs	r2, #1
/home/aom1/Work/Linux/target/STM32MP1-DK2/buildroot/buildroot/output/build/optee-os-custom/ta/trusted_keys/entry.c:83
     6c0:	9315      	str	r3, [sp, #84]	; 0x54
/home/aom1/Work/Linux/target/STM32MP1-DK2/buildroot/buildroot/output/build/optee-os-custom/ta/trusted_keys/entry.c:86
     6c2:	f04f 31ff 	mov.w	r1, #4294967295	; 0xffffffff
     6c6:	9b04      	ldr	r3, [sp, #16]
     6c8:	f8cd b000 	str.w	fp, [sp]
     6cc:	9301      	str	r3, [sp, #4]
     6ce:	2365      	movs	r3, #101	; 0x65
/home/aom1/Work/Linux/target/STM32MP1-DK2/buildroot/buildroot/output/build/optee-os-custom/ta/trusted_keys/entry.c:84
     6d0:	f8cd 9058 	str.w	r9, [sp, #88]	; 0x58
/home/aom1/Work/Linux/target/STM32MP1-DK2/buildroot/buildroot/output/build/optee-os-custom/ta/trusted_keys/entry.c:86
     6d4:	f7ff fe82 	bl	3dc <TEE_InvokeTACommand>
     6d8:	4604      	mov	r4, r0
/home/aom1/Work/Linux/target/STM32MP1-DK2/buildroot/buildroot/output/build/optee-os-custom/ta/trusted_keys/entry.c:90
     6da:	980a      	ldr	r0, [sp, #40]	; 0x28
     6dc:	f7ff fcd3 	bl	86 <TEE_CloseTASession>
huk_crypt():
/home/aom1/Work/Linux/target/STM32MP1-DK2/buildroot/buildroot/output/build/optee-os-custom/ta/trusted_keys/entry.c:162
     6e0:	b1fc      	cbz	r4, 722 <huk_crypt+0x102>
/home/aom1/Work/Linux/target/STM32MP1-DK2/buildroot/buildroot/output/build/optee-os-custom/ta/trusted_keys/entry.c:163
     6e2:	4b69      	ldr	r3, [pc, #420]	; (888 <huk_crypt+0x268>)
     6e4:	21a3      	movs	r1, #163	; 0xa3
     6e6:	4869      	ldr	r0, [pc, #420]	; (88c <huk_crypt+0x26c>)
     6e8:	447b      	add	r3, pc
     6ea:	4478      	add	r0, pc
     6ec:	9300      	str	r3, [sp, #0]
     6ee:	2301      	movs	r3, #1
     6f0:	9401      	str	r4, [sp, #4]
     6f2:	461a      	mov	r2, r3
     6f4:	3010      	adds	r0, #16
     6f6:	f000 fb33 	bl	d60 <trace_printf>
/home/aom1/Work/Linux/target/STM32MP1-DK2/buildroot/buildroot/output/build/optee-os-custom/ta/trusted_keys/entry.c:199
     6fa:	9808      	ldr	r0, [sp, #32]
     6fc:	f001 ff56 	bl	25ac <TEE_FreeOperation>
/home/aom1/Work/Linux/target/STM32MP1-DK2/buildroot/buildroot/output/build/optee-os-custom/ta/trusted_keys/entry.c:200
     700:	2120      	movs	r1, #32
     702:	a81f      	add	r0, sp, #124	; 0x7c
     704:	f00a fb02 	bl	ad0c <memzero_explicit>
/home/aom1/Work/Linux/target/STM32MP1-DK2/buildroot/buildroot/output/build/optee-os-custom/ta/trusted_keys/entry.c:149
     708:	4a61      	ldr	r2, [pc, #388]	; (890 <huk_crypt+0x270>)
/home/aom1/Work/Linux/target/STM32MP1-DK2/buildroot/buildroot/output/build/optee-os-custom/ta/trusted_keys/entry.c:202
     70a:	4b5d      	ldr	r3, [pc, #372]	; (880 <huk_crypt+0x260>)
/home/aom1/Work/Linux/target/STM32MP1-DK2/buildroot/buildroot/output/build/optee-os-custom/ta/trusted_keys/entry.c:149
     70c:	447a      	add	r2, pc
/home/aom1/Work/Linux/target/STM32MP1-DK2/buildroot/buildroot/output/build/optee-os-custom/ta/trusted_keys/entry.c:202
     70e:	58d3      	ldr	r3, [r2, r3]
     710:	681a      	ldr	r2, [r3, #0]
     712:	9b27      	ldr	r3, [sp, #156]	; 0x9c
     714:	405a      	eors	r2, r3
     716:	f04f 0300 	mov.w	r3, #0
     71a:	f000 80a4 	beq.w	866 <huk_crypt+0x246>
     71e:	f00a faec 	bl	acfa <__stack_chk_fail>
/home/aom1/Work/Linux/target/STM32MP1-DK2/buildroot/buildroot/output/build/optee-os-custom/ta/trusted_keys/entry.c:167
     722:	4854      	ldr	r0, [pc, #336]	; (874 <huk_crypt+0x254>)
     724:	aa09      	add	r2, sp, #36	; 0x24
     726:	f44f 7180 	mov.w	r1, #256	; 0x100
     72a:	f001 fa29 	bl	1b80 <TEE_AllocateTransientObject>
/home/aom1/Work/Linux/target/STM32MP1-DK2/buildroot/buildroot/output/build/optee-os-custom/ta/trusted_keys/entry.c:169
     72e:	4604      	mov	r4, r0
     730:	2800      	cmp	r0, #0
     732:	d1e2      	bne.n	6fa <huk_crypt+0xda>
/home/aom1/Work/Linux/target/STM32MP1-DK2/buildroot/buildroot/output/build/optee-os-custom/ta/trusted_keys/entry.c:176
     734:	9809      	ldr	r0, [sp, #36]	; 0x24
/home/aom1/Work/Linux/target/STM32MP1-DK2/buildroot/buildroot/output/build/optee-os-custom/ta/trusted_keys/entry.c:172
     736:	f04f 4340 	mov.w	r3, #3221225472	; 0xc0000000
     73a:	930c      	str	r3, [sp, #48]	; 0x30
/home/aom1/Work/Linux/target/STM32MP1-DK2/buildroot/buildroot/output/build/optee-os-custom/ta/trusted_keys/entry.c:176
     73c:	2201      	movs	r2, #1
/home/aom1/Work/Linux/target/STM32MP1-DK2/buildroot/buildroot/output/build/optee-os-custom/ta/trusted_keys/entry.c:173
     73e:	9b07      	ldr	r3, [sp, #28]
/home/aom1/Work/Linux/target/STM32MP1-DK2/buildroot/buildroot/output/build/optee-os-custom/ta/trusted_keys/entry.c:176
     740:	4641      	mov	r1, r8
/home/aom1/Work/Linux/target/STM32MP1-DK2/buildroot/buildroot/output/build/optee-os-custom/ta/trusted_keys/entry.c:174
     742:	f8cd 9038 	str.w	r9, [sp, #56]	; 0x38
/home/aom1/Work/Linux/target/STM32MP1-DK2/buildroot/buildroot/output/build/optee-os-custom/ta/trusted_keys/entry.c:173
     746:	930d      	str	r3, [sp, #52]	; 0x34
/home/aom1/Work/Linux/target/STM32MP1-DK2/buildroot/buildroot/output/build/optee-os-custom/ta/trusted_keys/entry.c:176
     748:	f001 fab8 	bl	1cbc <TEE_PopulateTransientObject>
/home/aom1/Work/Linux/target/STM32MP1-DK2/buildroot/buildroot/output/build/optee-os-custom/ta/trusted_keys/entry.c:177
     74c:	4604      	mov	r4, r0
     74e:	2800      	cmp	r0, #0
     750:	d153      	bne.n	7fa <huk_crypt+0x1da>
/home/aom1/Work/Linux/target/STM32MP1-DK2/buildroot/buildroot/output/build/optee-os-custom/ta/trusted_keys/entry.c:180
     752:	e9dd 0108 	ldrd	r0, r1, [sp, #32]
     756:	f002 fbcd 	bl	2ef4 <TEE_SetOperationKey>
/home/aom1/Work/Linux/target/STM32MP1-DK2/buildroot/buildroot/output/build/optee-os-custom/ta/trusted_keys/entry.c:181
     75a:	4604      	mov	r4, r0
     75c:	2800      	cmp	r0, #0
     75e:	d14c      	bne.n	7fa <huk_crypt+0x1da>
/home/aom1/Work/Linux/target/STM32MP1-DK2/buildroot/buildroot/output/build/optee-os-custom/ta/trusted_keys/entry.c:185
     760:	f8dd 8020 	ldr.w	r8, [sp, #32]
     764:	ab1c      	add	r3, sp, #112	; 0x70
/home/aom1/Work/Linux/target/STM32MP1-DK2/buildroot/buildroot/output/build/optee-os-custom/ta/trusted_keys/entry.c:184
     766:	2d00      	cmp	r5, #0
     768:	d14b      	bne.n	802 <huk_crypt+0x1e2>
huk_ae_encrypt():
/home/aom1/Work/Linux/target/STM32MP1-DK2/buildroot/buildroot/output/build/optee-os-custom/ta/trusted_keys/entry.c:100
     76a:	951b      	str	r5, [sp, #108]	; 0x6c
/home/aom1/Work/Linux/target/STM32MP1-DK2/buildroot/buildroot/output/build/optee-os-custom/ta/trusted_keys/entry.c:104
     76c:	463c      	mov	r4, r7
/home/aom1/Work/Linux/target/STM32MP1-DK2/buildroot/buildroot/output/build/optee-os-custom/ta/trusted_keys/entry.c:100
     76e:	951c      	str	r5, [sp, #112]	; 0x70
/home/aom1/Work/Linux/target/STM32MP1-DK2/buildroot/buildroot/output/build/optee-os-custom/ta/trusted_keys/entry.c:102
     770:	2210      	movs	r2, #16
/home/aom1/Work/Linux/target/STM32MP1-DK2/buildroot/buildroot/output/build/optee-os-custom/ta/trusted_keys/entry.c:104
     772:	f804 5b01 	strb.w	r5, [r4], #1
/home/aom1/Work/Linux/target/STM32MP1-DK2/buildroot/buildroot/output/build/optee-os-custom/ta/trusted_keys/entry.c:105
     776:	f10d 096c 	add.w	r9, sp, #108	; 0x6c
/home/aom1/Work/Linux/target/STM32MP1-DK2/buildroot/buildroot/output/build/optee-os-custom/ta/trusted_keys/entry.c:100
     77a:	605d      	str	r5, [r3, #4]
/home/aom1/Work/Linux/target/STM32MP1-DK2/buildroot/buildroot/output/build/optee-os-custom/ta/trusted_keys/entry.c:105
     77c:	4611      	mov	r1, r2
/home/aom1/Work/Linux/target/STM32MP1-DK2/buildroot/buildroot/output/build/optee-os-custom/ta/trusted_keys/entry.c:100
     77e:	609d      	str	r5, [r3, #8]
/home/aom1/Work/Linux/target/STM32MP1-DK2/buildroot/buildroot/output/build/optee-os-custom/ta/trusted_keys/entry.c:105
     780:	4648      	mov	r0, r9
/home/aom1/Work/Linux/target/STM32MP1-DK2/buildroot/buildroot/output/build/optee-os-custom/ta/trusted_keys/entry.c:102
     782:	920b      	str	r2, [sp, #44]	; 0x2c
/home/aom1/Work/Linux/target/STM32MP1-DK2/buildroot/buildroot/output/build/optee-os-custom/ta/trusted_keys/entry.c:101
     784:	f8cd a028 	str.w	sl, [sp, #40]	; 0x28
/home/aom1/Work/Linux/target/STM32MP1-DK2/buildroot/buildroot/output/build/optee-os-custom/ta/trusted_keys/entry.c:105
     788:	f003 fc92 	bl	40b0 <TEE_GenerateRandom>
/home/aom1/Work/Linux/target/STM32MP1-DK2/buildroot/buildroot/output/build/optee-os-custom/ta/trusted_keys/entry.c:106
     78c:	2210      	movs	r2, #16
     78e:	4649      	mov	r1, r9
     790:	4620      	mov	r0, r4
     792:	f000 f9a3 	bl	adc <memcpy>
/home/aom1/Work/Linux/target/STM32MP1-DK2/buildroot/buildroot/output/build/optee-os-custom/ta/trusted_keys/entry.c:108
     796:	9501      	str	r5, [sp, #4]
     798:	4621      	mov	r1, r4
     79a:	9500      	str	r5, [sp, #0]
     79c:	2380      	movs	r3, #128	; 0x80
     79e:	2210      	movs	r2, #16
     7a0:	4640      	mov	r0, r8
     7a2:	f002 ffff 	bl	37a4 <TEE_AEInit>
/home/aom1/Work/Linux/target/STM32MP1-DK2/buildroot/buildroot/output/build/optee-os-custom/ta/trusted_keys/entry.c:109
     7a6:	4604      	mov	r4, r0
     7a8:	b978      	cbnz	r0, 7ca <huk_crypt+0x1aa>
/home/aom1/Work/Linux/target/STM32MP1-DK2/buildroot/buildroot/output/build/optee-os-custom/ta/trusted_keys/entry.c:112
     7aa:	9b04      	ldr	r3, [sp, #16]
     7ac:	4652      	mov	r2, sl
     7ae:	4631      	mov	r1, r6
     7b0:	4640      	mov	r0, r8
     7b2:	9302      	str	r3, [sp, #8]
/home/aom1/Work/Linux/target/STM32MP1-DK2/buildroot/buildroot/output/build/optee-os-custom/ta/trusted_keys/entry.c:113
     7b4:	f107 0311 	add.w	r3, r7, #17
/home/aom1/Work/Linux/target/STM32MP1-DK2/buildroot/buildroot/output/build/optee-os-custom/ta/trusted_keys/entry.c:112
     7b8:	9301      	str	r3, [sp, #4]
     7ba:	9b06      	ldr	r3, [sp, #24]
     7bc:	9300      	str	r3, [sp, #0]
     7be:	f107 0321 	add.w	r3, r7, #33	; 0x21
     7c2:	f003 f8d3 	bl	396c <TEE_AEEncryptFinal>
/home/aom1/Work/Linux/target/STM32MP1-DK2/buildroot/buildroot/output/build/optee-os-custom/ta/trusted_keys/entry.c:114
     7c6:	b168      	cbz	r0, 7e4 <huk_crypt+0x1c4>
/home/aom1/Work/Linux/target/STM32MP1-DK2/buildroot/buildroot/output/build/optee-os-custom/ta/trusted_keys/entry.c:115
     7c8:	4c2b      	ldr	r4, [pc, #172]	; (878 <huk_crypt+0x258>)
huk_crypt():
/home/aom1/Work/Linux/target/STM32MP1-DK2/buildroot/buildroot/output/build/optee-os-custom/ta/trusted_keys/entry.c:187
     7ca:	4b32      	ldr	r3, [pc, #200]	; (894 <huk_crypt+0x274>)
     7cc:	21bb      	movs	r1, #187	; 0xbb
     7ce:	4832      	ldr	r0, [pc, #200]	; (898 <huk_crypt+0x278>)
     7d0:	447b      	add	r3, pc
     7d2:	9300      	str	r3, [sp, #0]
     7d4:	2301      	movs	r3, #1
     7d6:	4478      	add	r0, pc
     7d8:	461a      	mov	r2, r3
     7da:	9401      	str	r4, [sp, #4]
/home/aom1/Work/Linux/target/STM32MP1-DK2/buildroot/buildroot/output/build/optee-os-custom/ta/trusted_keys/entry.c:191
     7dc:	3010      	adds	r0, #16
     7de:	f000 fabf 	bl	d60 <trace_printf>
     7e2:	e00a      	b.n	7fa <huk_crypt+0x1da>
huk_ae_encrypt():
/home/aom1/Work/Linux/target/STM32MP1-DK2/buildroot/buildroot/output/build/optee-os-custom/ta/trusted_keys/entry.c:114
     7e4:	9b0b      	ldr	r3, [sp, #44]	; 0x2c
     7e6:	2b10      	cmp	r3, #16
     7e8:	d1ee      	bne.n	7c8 <huk_crypt+0x1a8>
/home/aom1/Work/Linux/target/STM32MP1-DK2/buildroot/buildroot/output/build/optee-os-custom/ta/trusted_keys/entry.c:117
     7ea:	9b0a      	ldr	r3, [sp, #40]	; 0x28
     7ec:	9a05      	ldr	r2, [sp, #20]
     7ee:	3321      	adds	r3, #33	; 0x21
     7f0:	6013      	str	r3, [r2, #0]
     7f2:	bf2c      	ite	cs
     7f4:	2401      	movcs	r4, #1
     7f6:	2400      	movcc	r4, #0
     7f8:	d2e6      	bcs.n	7c8 <huk_crypt+0x1a8>
huk_crypt():
/home/aom1/Work/Linux/target/STM32MP1-DK2/buildroot/buildroot/output/build/optee-os-custom/ta/trusted_keys/entry.c:197
     7fa:	9809      	ldr	r0, [sp, #36]	; 0x24
     7fc:	f001 f9fa 	bl	1bf4 <TEE_FreeTransientObject>
     800:	e77b      	b.n	6fa <huk_crypt+0xda>
huk_ae_decrypt():
/home/aom1/Work/Linux/target/STM32MP1-DK2/buildroot/buildroot/output/build/optee-os-custom/ta/trusted_keys/entry.c:131
     802:	f1ba 0521 	subs.w	r5, sl, #33	; 0x21
/home/aom1/Work/Linux/target/STM32MP1-DK2/buildroot/buildroot/output/build/optee-os-custom/ta/trusted_keys/entry.c:128
     806:	901b      	str	r0, [sp, #108]	; 0x6c
     808:	901c      	str	r0, [sp, #112]	; 0x70
     80a:	6058      	str	r0, [r3, #4]
     80c:	6098      	str	r0, [r3, #8]
/home/aom1/Work/Linux/target/STM32MP1-DK2/buildroot/buildroot/output/build/optee-os-custom/ta/trusted_keys/entry.c:131
     80e:	d31f      	bcc.n	850 <huk_crypt+0x230>
/home/aom1/Work/Linux/target/STM32MP1-DK2/buildroot/buildroot/output/build/optee-os-custom/ta/trusted_keys/entry.c:134
     810:	9001      	str	r0, [sp, #4]
     812:	2380      	movs	r3, #128	; 0x80
     814:	9000      	str	r0, [sp, #0]
     816:	2210      	movs	r2, #16
     818:	1c71      	adds	r1, r6, #1
     81a:	4640      	mov	r0, r8
     81c:	f002 ffc2 	bl	37a4 <TEE_AEInit>
/home/aom1/Work/Linux/target/STM32MP1-DK2/buildroot/buildroot/output/build/optee-os-custom/ta/trusted_keys/entry.c:135
     820:	4604      	mov	r4, r0
     822:	b9b0      	cbnz	r0, 852 <huk_crypt+0x232>
/home/aom1/Work/Linux/target/STM32MP1-DK2/buildroot/buildroot/output/build/optee-os-custom/ta/trusted_keys/entry.c:138
     824:	2410      	movs	r4, #16
     826:	ab1b      	add	r3, sp, #108	; 0x6c
     828:	4622      	mov	r2, r4
     82a:	f106 0111 	add.w	r1, r6, #17
     82e:	4618      	mov	r0, r3
     830:	f000 f954 	bl	adc <memcpy>
/home/aom1/Work/Linux/target/STM32MP1-DK2/buildroot/buildroot/output/build/optee-os-custom/ta/trusted_keys/entry.c:139
     834:	9b05      	ldr	r3, [sp, #20]
     836:	462a      	mov	r2, r5
     838:	9402      	str	r4, [sp, #8]
     83a:	f106 0121 	add.w	r1, r6, #33	; 0x21
     83e:	9001      	str	r0, [sp, #4]
     840:	4640      	mov	r0, r8
     842:	9300      	str	r3, [sp, #0]
     844:	463b      	mov	r3, r7
     846:	f003 f93d 	bl	3ac4 <TEE_AEDecryptFinal>
/home/aom1/Work/Linux/target/STM32MP1-DK2/buildroot/buildroot/output/build/optee-os-custom/ta/trusted_keys/entry.c:141
     84a:	4604      	mov	r4, r0
     84c:	2800      	cmp	r0, #0
     84e:	d0d4      	beq.n	7fa <huk_crypt+0x1da>
/home/aom1/Work/Linux/target/STM32MP1-DK2/buildroot/buildroot/output/build/optee-os-custom/ta/trusted_keys/entry.c:142
     850:	4c09      	ldr	r4, [pc, #36]	; (878 <huk_crypt+0x258>)
huk_crypt():
/home/aom1/Work/Linux/target/STM32MP1-DK2/buildroot/buildroot/output/build/optee-os-custom/ta/trusted_keys/entry.c:191
     852:	4b12      	ldr	r3, [pc, #72]	; (89c <huk_crypt+0x27c>)
     854:	21bf      	movs	r1, #191	; 0xbf
     856:	4812      	ldr	r0, [pc, #72]	; (8a0 <huk_crypt+0x280>)
     858:	447b      	add	r3, pc
     85a:	9300      	str	r3, [sp, #0]
     85c:	2301      	movs	r3, #1
     85e:	4478      	add	r0, pc
     860:	461a      	mov	r2, r3
     862:	9401      	str	r4, [sp, #4]
     864:	e7ba      	b.n	7dc <huk_crypt+0x1bc>
/home/aom1/Work/Linux/target/STM32MP1-DK2/buildroot/buildroot/output/build/optee-os-custom/ta/trusted_keys/entry.c:202
     866:	4620      	mov	r0, r4
     868:	b029      	add	sp, #164	; 0xa4
     86a:	e8bd 8ff0 	ldmia.w	sp!, {r4, r5, r6, r7, r8, r9, sl, fp, pc}
     86e:	bf00      	nop
     870:	40000810 	.word	0x40000810
     874:	a0000010 	.word	0xa0000010
     878:	ffff000f 	.word	0xffff000f
     87c:	0000ca52 	.word	0x0000ca52
     880:	0000000c 	.word	0x0000000c
     884:	0000a7aa 	.word	0x0000a7aa
     888:	0000aad0 	.word	0x0000aad0
     88c:	0000a752 	.word	0x0000a752
     890:	0000c978 	.word	0x0000c978
     894:	0000aa0f 	.word	0x0000aa0f
     898:	0000a666 	.word	0x0000a666
     89c:	0000a9ab 	.word	0x0000a9ab
     8a0:	0000a5de 	.word	0x0000a5de

000008a4 <TA_CreateEntryPoint>:
TA_CreateEntryPoint():
/home/aom1/Work/Linux/target/STM32MP1-DK2/buildroot/buildroot/output/build/optee-os-custom/ta/trusted_keys/entry.c:292
     8a4:	2000      	movs	r0, #0
     8a6:	4770      	bx	lr

000008a8 <TA_DestroyEntryPoint>:
TA_DestroyEntryPoint():
/home/aom1/Work/Linux/target/STM32MP1-DK2/buildroot/buildroot/output/build/optee-os-custom/ta/trusted_keys/entry.c:296
     8a8:	4770      	bx	lr

000008aa <TA_OpenSessionEntryPoint>:
TA_OpenSessionEntryPoint():
/home/aom1/Work/Linux/target/STM32MP1-DK2/buildroot/buildroot/output/build/optee-os-custom/ta/trusted_keys/entry.c:301
     8aa:	4a1e      	ldr	r2, [pc, #120]	; (924 <TA_OpenSessionEntryPoint+0x7a>)
/home/aom1/Work/Linux/target/STM32MP1-DK2/buildroot/buildroot/output/build/optee-os-custom/ta/trusted_keys/entry.c:303
     8ac:	2100      	movs	r1, #0
/home/aom1/Work/Linux/target/STM32MP1-DK2/buildroot/buildroot/output/build/optee-os-custom/ta/trusted_keys/entry.c:301
     8ae:	4b1e      	ldr	r3, [pc, #120]	; (928 <TA_OpenSessionEntryPoint+0x7e>)
     8b0:	447a      	add	r2, pc
     8b2:	b530      	push	{r4, r5, lr}
     8b4:	b089      	sub	sp, #36	; 0x24
     8b6:	58d3      	ldr	r3, [r2, r3]
/home/aom1/Work/Linux/target/STM32MP1-DK2/buildroot/buildroot/output/build/optee-os-custom/ta/trusted_keys/entry.c:304
     8b8:	ad02      	add	r5, sp, #8
     8ba:	2214      	movs	r2, #20
     8bc:	4628      	mov	r0, r5
/home/aom1/Work/Linux/target/STM32MP1-DK2/buildroot/buildroot/output/build/optee-os-custom/ta/trusted_keys/entry.c:301
     8be:	681b      	ldr	r3, [r3, #0]
     8c0:	9307      	str	r3, [sp, #28]
     8c2:	f04f 0300 	mov.w	r3, #0
/home/aom1/Work/Linux/target/STM32MP1-DK2/buildroot/buildroot/output/build/optee-os-custom/ta/trusted_keys/entry.c:303
     8c6:	9101      	str	r1, [sp, #4]
/home/aom1/Work/Linux/target/STM32MP1-DK2/buildroot/buildroot/output/build/optee-os-custom/ta/trusted_keys/entry.c:304
     8c8:	f00a fa18 	bl	acfc <memset>
/home/aom1/Work/Linux/target/STM32MP1-DK2/buildroot/buildroot/output/build/optee-os-custom/ta/trusted_keys/entry.c:306
     8cc:	a801      	add	r0, sp, #4
     8ce:	f004 f911 	bl	4af4 <TEE_AllocatePropertyEnumerator>
/home/aom1/Work/Linux/target/STM32MP1-DK2/buildroot/buildroot/output/build/optee-os-custom/ta/trusted_keys/entry.c:307
     8d2:	4604      	mov	r4, r0
     8d4:	b988      	cbnz	r0, 8fa <TA_OpenSessionEntryPoint+0x50>
/home/aom1/Work/Linux/target/STM32MP1-DK2/buildroot/buildroot/output/build/optee-os-custom/ta/trusted_keys/entry.c:310
     8d6:	f06f 0101 	mvn.w	r1, #1
     8da:	9801      	ldr	r0, [sp, #4]
     8dc:	f004 f920 	bl	4b20 <TEE_StartPropertyEnumerator>
/home/aom1/Work/Linux/target/STM32MP1-DK2/buildroot/buildroot/output/build/optee-os-custom/ta/trusted_keys/entry.c:312
     8e0:	9801      	ldr	r0, [sp, #4]
     8e2:	4621      	mov	r1, r4
     8e4:	462a      	mov	r2, r5
     8e6:	f004 f8b5 	bl	4a54 <TEE_GetPropertyAsIdentity>
/home/aom1/Work/Linux/target/STM32MP1-DK2/buildroot/buildroot/output/build/optee-os-custom/ta/trusted_keys/entry.c:313
     8ea:	4604      	mov	r4, r0
     8ec:	b928      	cbnz	r0, 8fa <TA_OpenSessionEntryPoint+0x50>
/home/aom1/Work/Linux/target/STM32MP1-DK2/buildroot/buildroot/output/build/optee-os-custom/ta/trusted_keys/entry.c:317
     8ee:	9a02      	ldr	r2, [sp, #8]
     8f0:	4b0b      	ldr	r3, [pc, #44]	; (920 <TA_OpenSessionEntryPoint+0x76>)
     8f2:	f1b2 4f00 	cmp.w	r2, #2147483648	; 0x80000000
     8f6:	bf18      	it	ne
     8f8:	461c      	movne	r4, r3
/home/aom1/Work/Linux/target/STM32MP1-DK2/buildroot/buildroot/output/build/optee-os-custom/ta/trusted_keys/entry.c:320
     8fa:	9801      	ldr	r0, [sp, #4]
     8fc:	b108      	cbz	r0, 902 <TA_OpenSessionEntryPoint+0x58>
/home/aom1/Work/Linux/target/STM32MP1-DK2/buildroot/buildroot/output/build/optee-os-custom/ta/trusted_keys/entry.c:321
     8fe:	f004 f90d 	bl	4b1c <TEE_FreePropertyEnumerator>
/home/aom1/Work/Linux/target/STM32MP1-DK2/buildroot/buildroot/output/build/optee-os-custom/ta/trusted_keys/entry.c:301
     902:	4a0a      	ldr	r2, [pc, #40]	; (92c <TA_OpenSessionEntryPoint+0x82>)
/home/aom1/Work/Linux/target/STM32MP1-DK2/buildroot/buildroot/output/build/optee-os-custom/ta/trusted_keys/entry.c:323
     904:	4b08      	ldr	r3, [pc, #32]	; (928 <TA_OpenSessionEntryPoint+0x7e>)
/home/aom1/Work/Linux/target/STM32MP1-DK2/buildroot/buildroot/output/build/optee-os-custom/ta/trusted_keys/entry.c:301
     906:	447a      	add	r2, pc
/home/aom1/Work/Linux/target/STM32MP1-DK2/buildroot/buildroot/output/build/optee-os-custom/ta/trusted_keys/entry.c:323
     908:	58d3      	ldr	r3, [r2, r3]
     90a:	681a      	ldr	r2, [r3, #0]
     90c:	9b07      	ldr	r3, [sp, #28]
     90e:	405a      	eors	r2, r3
     910:	f04f 0300 	mov.w	r3, #0
     914:	d001      	beq.n	91a <TA_OpenSessionEntryPoint+0x70>
     916:	f00a f9f0 	bl	acfa <__stack_chk_fail>
     91a:	4620      	mov	r0, r4
     91c:	b009      	add	sp, #36	; 0x24
     91e:	bd30      	pop	{r4, r5, pc}
     920:	ffff0001 	.word	0xffff0001
     924:	0000c7d4 	.word	0x0000c7d4
     928:	0000000c 	.word	0x0000000c
     92c:	0000c77e 	.word	0x0000c77e

00000930 <TA_CloseSessionEntryPoint>:
TA_CloseSessionEntryPoint():
/home/aom1/Work/Linux/target/STM32MP1-DK2/buildroot/buildroot/output/build/optee-os-custom/ta/trusted_keys/entry.c:327
     930:	4770      	bx	lr

00000932 <TA_InvokeCommandEntryPoint>:
TA_InvokeCommandEntryPoint():
/home/aom1/Work/Linux/target/STM32MP1-DK2/buildroot/buildroot/output/build/optee-os-custom/ta/trusted_keys/entry.c:332
     932:	b57f      	push	{r0, r1, r2, r3, r4, r5, r6, lr}
     934:	461d      	mov	r5, r3
     936:	485d      	ldr	r0, [pc, #372]	; (aac <TA_InvokeCommandEntryPoint+0x17a>)
/home/aom1/Work/Linux/target/STM32MP1-DK2/buildroot/buildroot/output/build/optee-os-custom/ta/trusted_keys/entry.c:333
     938:	2901      	cmp	r1, #1
/home/aom1/Work/Linux/target/STM32MP1-DK2/buildroot/buildroot/output/build/optee-os-custom/ta/trusted_keys/entry.c:332
     93a:	4b5d      	ldr	r3, [pc, #372]	; (ab0 <TA_InvokeCommandEntryPoint+0x17e>)
     93c:	460c      	mov	r4, r1
     93e:	4478      	add	r0, pc
     940:	58c3      	ldr	r3, [r0, r3]
     942:	681b      	ldr	r3, [r3, #0]
     944:	9303      	str	r3, [sp, #12]
     946:	f04f 0300 	mov.w	r3, #0
/home/aom1/Work/Linux/target/STM32MP1-DK2/buildroot/buildroot/output/build/optee-os-custom/ta/trusted_keys/entry.c:333
     94a:	d02b      	beq.n	9a4 <TA_InvokeCommandEntryPoint+0x72>
     94c:	2902      	cmp	r1, #2
     94e:	d05e      	beq.n	a0e <TA_InvokeCommandEntryPoint+0xdc>
     950:	2900      	cmp	r1, #0
     952:	f040 808e 	bne.w	a72 <TA_InvokeCommandEntryPoint+0x140>
get_random():
/home/aom1/Work/Linux/target/STM32MP1-DK2/buildroot/buildroot/output/build/optee-os-custom/ta/trusted_keys/entry.c:38
     956:	2a06      	cmp	r2, #6
     958:	d126      	bne.n	9a8 <TA_InvokeCommandEntryPoint+0x76>
/home/aom1/Work/Linux/target/STM32MP1-DK2/buildroot/buildroot/output/build/optee-os-custom/ta/trusted_keys/entry.c:44
     95a:	682b      	ldr	r3, [r5, #0]
     95c:	b323      	cbz	r3, 9a8 <TA_InvokeCommandEntryPoint+0x76>
     95e:	6868      	ldr	r0, [r5, #4]
     960:	b310      	cbz	r0, 9a8 <TA_InvokeCommandEntryPoint+0x76>
/home/aom1/Work/Linux/target/STM32MP1-DK2/buildroot/buildroot/output/build/optee-os-custom/ta/trusted_keys/entry.c:47
     962:	f7ff fe16 	bl	592 <TEE_Malloc>
/home/aom1/Work/Linux/target/STM32MP1-DK2/buildroot/buildroot/output/build/optee-os-custom/ta/trusted_keys/entry.c:48
     966:	4606      	mov	r6, r0
     968:	2800      	cmp	r0, #0
     96a:	f000 8091 	beq.w	a90 <TA_InvokeCommandEntryPoint+0x15e>
/home/aom1/Work/Linux/target/STM32MP1-DK2/buildroot/buildroot/output/build/optee-os-custom/ta/trusted_keys/entry.c:51
     96e:	6869      	ldr	r1, [r5, #4]
     970:	f003 fb9e 	bl	40b0 <TEE_GenerateRandom>
/home/aom1/Work/Linux/target/STM32MP1-DK2/buildroot/buildroot/output/build/optee-os-custom/ta/trusted_keys/entry.c:52
     974:	686a      	ldr	r2, [r5, #4]
     976:	4631      	mov	r1, r6
     978:	6828      	ldr	r0, [r5, #0]
     97a:	f000 f8af 	bl	adc <memcpy>
/home/aom1/Work/Linux/target/STM32MP1-DK2/buildroot/buildroot/output/build/optee-os-custom/ta/trusted_keys/entry.c:53
     97e:	6869      	ldr	r1, [r5, #4]
     980:	4630      	mov	r0, r6
     982:	f00a f9c3 	bl	ad0c <memzero_explicit>
/home/aom1/Work/Linux/target/STM32MP1-DK2/buildroot/buildroot/output/build/optee-os-custom/ta/trusted_keys/entry.c:55
     986:	4630      	mov	r0, r6
     988:	f7ff fe2c 	bl	5e4 <TEE_Free>
TA_InvokeCommandEntryPoint():
/home/aom1/Work/Linux/target/STM32MP1-DK2/buildroot/buildroot/output/build/optee-os-custom/ta/trusted_keys/entry.c:332
     98c:	4a49      	ldr	r2, [pc, #292]	; (ab4 <TA_InvokeCommandEntryPoint+0x182>)
/home/aom1/Work/Linux/target/STM32MP1-DK2/buildroot/buildroot/output/build/optee-os-custom/ta/trusted_keys/entry.c:344
     98e:	4b48      	ldr	r3, [pc, #288]	; (ab0 <TA_InvokeCommandEntryPoint+0x17e>)
/home/aom1/Work/Linux/target/STM32MP1-DK2/buildroot/buildroot/output/build/optee-os-custom/ta/trusted_keys/entry.c:332
     990:	447a      	add	r2, pc
/home/aom1/Work/Linux/target/STM32MP1-DK2/buildroot/buildroot/output/build/optee-os-custom/ta/trusted_keys/entry.c:344
     992:	58d3      	ldr	r3, [r2, r3]
     994:	681a      	ldr	r2, [r3, #0]
     996:	9b03      	ldr	r3, [sp, #12]
     998:	405a      	eors	r2, r3
     99a:	f04f 0300 	mov.w	r3, #0
     99e:	d079      	beq.n	a94 <TA_InvokeCommandEntryPoint+0x162>
     9a0:	f00a f9ab 	bl	acfa <__stack_chk_fail>
seal_trusted_key():
/home/aom1/Work/Linux/target/STM32MP1-DK2/buildroot/buildroot/output/build/optee-os-custom/ta/trusted_keys/entry.c:215
     9a4:	2a65      	cmp	r2, #101	; 0x65
     9a6:	d001      	beq.n	9ac <TA_InvokeCommandEntryPoint+0x7a>
get_random():
/home/aom1/Work/Linux/target/STM32MP1-DK2/buildroot/buildroot/output/build/optee-os-custom/ta/trusted_keys/entry.c:42
     9a8:	4c3c      	ldr	r4, [pc, #240]	; (a9c <TA_InvokeCommandEntryPoint+0x16a>)
     9aa:	e7ef      	b.n	98c <TA_InvokeCommandEntryPoint+0x5a>
seal_trusted_key():
/home/aom1/Work/Linux/target/STM32MP1-DK2/buildroot/buildroot/output/build/optee-os-custom/ta/trusted_keys/entry.c:223
     9ac:	e895 000e 	ldmia.w	r5, {r1, r2, r3}
/home/aom1/Work/Linux/target/STM32MP1-DK2/buildroot/buildroot/output/build/optee-os-custom/ta/trusted_keys/entry.c:224
     9b0:	68e8      	ldr	r0, [r5, #12]
     9b2:	9002      	str	r0, [sp, #8]
/home/aom1/Work/Linux/target/STM32MP1-DK2/buildroot/buildroot/output/build/optee-os-custom/ta/trusted_keys/entry.c:226
     9b4:	2900      	cmp	r1, #0
     9b6:	d0f7      	beq.n	9a8 <TA_InvokeCommandEntryPoint+0x76>
     9b8:	1e54      	subs	r4, r2, #1
     9ba:	f5b4 7f00 	cmp.w	r4, #512	; 0x200
     9be:	d2f3      	bcs.n	9a8 <TA_InvokeCommandEntryPoint+0x76>
/home/aom1/Work/Linux/target/STM32MP1-DK2/buildroot/buildroot/output/build/optee-os-custom/ta/trusted_keys/entry.c:228
     9c0:	b943      	cbnz	r3, 9d4 <TA_InvokeCommandEntryPoint+0xa2>
     9c2:	2800      	cmp	r0, #0
     9c4:	d1f0      	bne.n	9a8 <TA_InvokeCommandEntryPoint+0x76>
/home/aom1/Work/Linux/target/STM32MP1-DK2/buildroot/buildroot/output/build/optee-os-custom/ta/trusted_keys/entry.c:233
     9c6:	f102 0621 	add.w	r6, r2, #33	; 0x21
     9ca:	42b0      	cmp	r0, r6
     9cc:	d206      	bcs.n	9dc <TA_InvokeCommandEntryPoint+0xaa>
unseal_trusted_key():
/home/aom1/Work/Linux/target/STM32MP1-DK2/buildroot/buildroot/output/build/optee-os-custom/ta/trusted_keys/entry.c:277
     9ce:	4c34      	ldr	r4, [pc, #208]	; (aa0 <TA_InvokeCommandEntryPoint+0x16e>)
/home/aom1/Work/Linux/target/STM32MP1-DK2/buildroot/buildroot/output/build/optee-os-custom/ta/trusted_keys/entry.c:276
     9d0:	60ee      	str	r6, [r5, #12]
/home/aom1/Work/Linux/target/STM32MP1-DK2/buildroot/buildroot/output/build/optee-os-custom/ta/trusted_keys/entry.c:277
     9d2:	e7db      	b.n	98c <TA_InvokeCommandEntryPoint+0x5a>
seal_trusted_key():
/home/aom1/Work/Linux/target/STM32MP1-DK2/buildroot/buildroot/output/build/optee-os-custom/ta/trusted_keys/entry.c:229
     9d4:	f5b0 7f00 	cmp.w	r0, #512	; 0x200
     9d8:	d9f5      	bls.n	9c6 <TA_InvokeCommandEntryPoint+0x94>
     9da:	e7e5      	b.n	9a8 <TA_InvokeCommandEntryPoint+0x76>
/home/aom1/Work/Linux/target/STM32MP1-DK2/buildroot/buildroot/output/build/optee-os-custom/ta/trusted_keys/entry.c:238
     9dc:	a802      	add	r0, sp, #8
     9de:	9000      	str	r0, [sp, #0]
     9e0:	2000      	movs	r0, #0
     9e2:	f7ff fe1d 	bl	620 <huk_crypt>
/home/aom1/Work/Linux/target/STM32MP1-DK2/buildroot/buildroot/output/build/optee-os-custom/ta/trusted_keys/entry.c:239
     9e6:	4604      	mov	r4, r0
     9e8:	2800      	cmp	r0, #0
     9ea:	d1cf      	bne.n	98c <TA_InvokeCommandEntryPoint+0x5a>
/home/aom1/Work/Linux/target/STM32MP1-DK2/buildroot/buildroot/output/build/optee-os-custom/ta/trusted_keys/entry.c:240
     9ec:	9b02      	ldr	r3, [sp, #8]
     9ee:	429e      	cmp	r6, r3
     9f0:	d00b      	beq.n	a0a <TA_InvokeCommandEntryPoint+0xd8>
     9f2:	4b31      	ldr	r3, [pc, #196]	; (ab8 <TA_InvokeCommandEntryPoint+0x186>)
     9f4:	22f0      	movs	r2, #240	; 0xf0
     9f6:	4931      	ldr	r1, [pc, #196]	; (abc <TA_InvokeCommandEntryPoint+0x18a>)
     9f8:	4831      	ldr	r0, [pc, #196]	; (ac0 <TA_InvokeCommandEntryPoint+0x18e>)
     9fa:	447b      	add	r3, pc
     9fc:	4479      	add	r1, pc
     9fe:	331a      	adds	r3, #26
     a00:	4478      	add	r0, pc
unseal_trusted_key():
/home/aom1/Work/Linux/target/STM32MP1-DK2/buildroot/buildroot/output/build/optee-os-custom/ta/trusted_keys/entry.c:282
     a02:	f000 fed3 	bl	17ac <_assert_log>
     a06:	f000 fee5 	bl	17d4 <_assert_break>
seal_trusted_key():
/home/aom1/Work/Linux/target/STM32MP1-DK2/buildroot/buildroot/output/build/optee-os-custom/ta/trusted_keys/entry.c:241
     a0a:	60ee      	str	r6, [r5, #12]
TA_InvokeCommandEntryPoint():
/home/aom1/Work/Linux/target/STM32MP1-DK2/buildroot/buildroot/output/build/optee-os-custom/ta/trusted_keys/entry.c:337
     a0c:	e7be      	b.n	98c <TA_InvokeCommandEntryPoint+0x5a>
unseal_trusted_key():
/home/aom1/Work/Linux/target/STM32MP1-DK2/buildroot/buildroot/output/build/optee-os-custom/ta/trusted_keys/entry.c:258
     a0e:	2a65      	cmp	r2, #101	; 0x65
     a10:	d1ca      	bne.n	9a8 <TA_InvokeCommandEntryPoint+0x76>
/home/aom1/Work/Linux/target/STM32MP1-DK2/buildroot/buildroot/output/build/optee-os-custom/ta/trusted_keys/entry.c:267
     a12:	68ea      	ldr	r2, [r5, #12]
/home/aom1/Work/Linux/target/STM32MP1-DK2/buildroot/buildroot/output/build/optee-os-custom/ta/trusted_keys/entry.c:265
     a14:	e9d5 1600 	ldrd	r1, r6, [r5]
/home/aom1/Work/Linux/target/STM32MP1-DK2/buildroot/buildroot/output/build/optee-os-custom/ta/trusted_keys/entry.c:266
     a18:	68ab      	ldr	r3, [r5, #8]
/home/aom1/Work/Linux/target/STM32MP1-DK2/buildroot/buildroot/output/build/optee-os-custom/ta/trusted_keys/entry.c:267
     a1a:	9202      	str	r2, [sp, #8]
/home/aom1/Work/Linux/target/STM32MP1-DK2/buildroot/buildroot/output/build/optee-os-custom/ta/trusted_keys/entry.c:269
     a1c:	2900      	cmp	r1, #0
     a1e:	d0c3      	beq.n	9a8 <TA_InvokeCommandEntryPoint+0x76>
     a20:	f1a6 0022 	sub.w	r0, r6, #34	; 0x22
     a24:	f5b0 7fef 	cmp.w	r0, #478	; 0x1de
     a28:	d8be      	bhi.n	9a8 <TA_InvokeCommandEntryPoint+0x76>
/home/aom1/Work/Linux/target/STM32MP1-DK2/buildroot/buildroot/output/build/optee-os-custom/ta/trusted_keys/entry.c:272
     a2a:	b91b      	cbnz	r3, a34 <TA_InvokeCommandEntryPoint+0x102>
     a2c:	2a00      	cmp	r2, #0
     a2e:	d1bb      	bne.n	9a8 <TA_InvokeCommandEntryPoint+0x76>
/home/aom1/Work/Linux/target/STM32MP1-DK2/buildroot/buildroot/output/build/optee-os-custom/ta/trusted_keys/entry.c:276
     a30:	3e21      	subs	r6, #33	; 0x21
     a32:	e7cc      	b.n	9ce <TA_InvokeCommandEntryPoint+0x9c>
/home/aom1/Work/Linux/target/STM32MP1-DK2/buildroot/buildroot/output/build/optee-os-custom/ta/trusted_keys/entry.c:272
     a34:	f5b2 7f00 	cmp.w	r2, #512	; 0x200
     a38:	d8b6      	bhi.n	9a8 <TA_InvokeCommandEntryPoint+0x76>
/home/aom1/Work/Linux/target/STM32MP1-DK2/buildroot/buildroot/output/build/optee-os-custom/ta/trusted_keys/entry.c:275
     a3a:	3221      	adds	r2, #33	; 0x21
     a3c:	4296      	cmp	r6, r2
     a3e:	d8f7      	bhi.n	a30 <TA_InvokeCommandEntryPoint+0xfe>
/home/aom1/Work/Linux/target/STM32MP1-DK2/buildroot/buildroot/output/build/optee-os-custom/ta/trusted_keys/entry.c:280
     a40:	aa02      	add	r2, sp, #8
     a42:	2001      	movs	r0, #1
     a44:	9200      	str	r2, [sp, #0]
     a46:	4632      	mov	r2, r6
     a48:	f7ff fdea 	bl	620 <huk_crypt>
/home/aom1/Work/Linux/target/STM32MP1-DK2/buildroot/buildroot/output/build/optee-os-custom/ta/trusted_keys/entry.c:281
     a4c:	4604      	mov	r4, r0
     a4e:	2800      	cmp	r0, #0
     a50:	d19c      	bne.n	98c <TA_InvokeCommandEntryPoint+0x5a>
/home/aom1/Work/Linux/target/STM32MP1-DK2/buildroot/buildroot/output/build/optee-os-custom/ta/trusted_keys/entry.c:282
     a52:	9b02      	ldr	r3, [sp, #8]
     a54:	3e21      	subs	r6, #33	; 0x21
     a56:	429e      	cmp	r6, r3
     a58:	d009      	beq.n	a6e <TA_InvokeCommandEntryPoint+0x13c>
     a5a:	4b1a      	ldr	r3, [pc, #104]	; (ac4 <TA_InvokeCommandEntryPoint+0x192>)
     a5c:	f44f 728d 	mov.w	r2, #282	; 0x11a
     a60:	4919      	ldr	r1, [pc, #100]	; (ac8 <TA_InvokeCommandEntryPoint+0x196>)
     a62:	481a      	ldr	r0, [pc, #104]	; (acc <TA_InvokeCommandEntryPoint+0x19a>)
     a64:	447b      	add	r3, pc
     a66:	4479      	add	r1, pc
     a68:	332b      	adds	r3, #43	; 0x2b
     a6a:	4478      	add	r0, pc
     a6c:	e7c9      	b.n	a02 <TA_InvokeCommandEntryPoint+0xd0>
/home/aom1/Work/Linux/target/STM32MP1-DK2/buildroot/buildroot/output/build/optee-os-custom/ta/trusted_keys/entry.c:283
     a6e:	60eb      	str	r3, [r5, #12]
TA_InvokeCommandEntryPoint():
/home/aom1/Work/Linux/target/STM32MP1-DK2/buildroot/buildroot/output/build/optee-os-custom/ta/trusted_keys/entry.c:339
     a70:	e78c      	b.n	98c <TA_InvokeCommandEntryPoint+0x5a>
/home/aom1/Work/Linux/target/STM32MP1-DK2/buildroot/buildroot/output/build/optee-os-custom/ta/trusted_keys/entry.c:341
     a72:	4b17      	ldr	r3, [pc, #92]	; (ad0 <TA_InvokeCommandEntryPoint+0x19e>)
     a74:	4817      	ldr	r0, [pc, #92]	; (ad4 <TA_InvokeCommandEntryPoint+0x1a2>)
     a76:	447b      	add	r3, pc
     a78:	9300      	str	r3, [sp, #0]
     a7a:	2301      	movs	r3, #1
     a7c:	4478      	add	r0, pc
     a7e:	461a      	mov	r2, r3
     a80:	9101      	str	r1, [sp, #4]
     a82:	303e      	adds	r0, #62	; 0x3e
/home/aom1/Work/Linux/target/STM32MP1-DK2/buildroot/buildroot/output/build/optee-os-custom/ta/trusted_keys/entry.c:342
     a84:	4c07      	ldr	r4, [pc, #28]	; (aa4 <TA_InvokeCommandEntryPoint+0x172>)
/home/aom1/Work/Linux/target/STM32MP1-DK2/buildroot/buildroot/output/build/optee-os-custom/ta/trusted_keys/entry.c:341
     a86:	f240 1155 	movw	r1, #341	; 0x155
     a8a:	f000 f969 	bl	d60 <trace_printf>
/home/aom1/Work/Linux/target/STM32MP1-DK2/buildroot/buildroot/output/build/optee-os-custom/ta/trusted_keys/entry.c:342
     a8e:	e77d      	b.n	98c <TA_InvokeCommandEntryPoint+0x5a>
get_random():
/home/aom1/Work/Linux/target/STM32MP1-DK2/buildroot/buildroot/output/build/optee-os-custom/ta/trusted_keys/entry.c:49
     a90:	4c05      	ldr	r4, [pc, #20]	; (aa8 <TA_InvokeCommandEntryPoint+0x176>)
     a92:	e77b      	b.n	98c <TA_InvokeCommandEntryPoint+0x5a>
TA_InvokeCommandEntryPoint():
/home/aom1/Work/Linux/target/STM32MP1-DK2/buildroot/buildroot/output/build/optee-os-custom/ta/trusted_keys/entry.c:344
     a94:	4620      	mov	r0, r4
     a96:	b004      	add	sp, #16
     a98:	bd70      	pop	{r4, r5, r6, pc}
     a9a:	bf00      	nop
     a9c:	ffff0006 	.word	0xffff0006
     aa0:	ffff0010 	.word	0xffff0010
     aa4:	ffff000a 	.word	0xffff000a
     aa8:	ffff000c 	.word	0xffff000c
     aac:	0000c746 	.word	0x0000c746
     ab0:	0000000c 	.word	0x0000000c
     ab4:	0000c6f4 	.word	0x0000c6f4
     ab8:	0000a442 	.word	0x0000a442
     abc:	0000a82b 	.word	0x0000a82b
     ac0:	0000a83f 	.word	0x0000a83f
     ac4:	0000a3d8 	.word	0x0000a3d8
     ac8:	0000a7c1 	.word	0x0000a7c1
     acc:	0000a802 	.word	0x0000a802
     ad0:	0000a823 	.word	0x0000a823
     ad4:	0000a3c0 	.word	0x0000a3c0

00000ad8 <__ta_entry>:
__ta_entry():
/home/aom1/Work/Linux/target/STM32MP1-DK2/buildroot/buildroot/output/build/optee-os-custom/out/export-ta_arm32/src/ta_entry_a32.S:20
     ad8:	fa002883 	blx	acec <__ta_entry_c>

00000adc <memcpy>:
memcpy():
/home/aom1/Work/Linux/target/STM32MP1-DK2/buildroot/buildroot/output/build/optee-os-custom/lib/libutils/isoc/newlib/memcpy.c:106
     adc:	2a0f      	cmp	r2, #15
     ade:	d956      	bls.n	b8e <memcpy+0xb2>
/home/aom1/Work/Linux/target/STM32MP1-DK2/buildroot/buildroot/output/build/optee-os-custom/lib/libutils/isoc/newlib/memcpy.c:106 (discriminator 1)
     ae0:	ea40 0301 	orr.w	r3, r0, r1
     ae4:	079b      	lsls	r3, r3, #30
     ae6:	d161      	bne.n	bac <memcpy+0xd0>
     ae8:	f1a2 0310 	sub.w	r3, r2, #16
     aec:	f101 0c20 	add.w	ip, r1, #32
/home/aom1/Work/Linux/target/STM32MP1-DK2/buildroot/buildroot/output/build/optee-os-custom/lib/libutils/isoc/newlib/memcpy.c:87
     af0:	b570      	push	{r4, r5, r6, lr}
     af2:	f101 0410 	add.w	r4, r1, #16
     af6:	f023 060f 	bic.w	r6, r3, #15
     afa:	f100 0510 	add.w	r5, r0, #16
     afe:	44b4      	add	ip, r6
     b00:	ea4f 1e13 	mov.w	lr, r3, lsr #4
/home/aom1/Work/Linux/target/STM32MP1-DK2/buildroot/buildroot/output/build/optee-os-custom/lib/libutils/isoc/newlib/memcpy.c:112
     b04:	f854 3c10 	ldr.w	r3, [r4, #-16]
/home/aom1/Work/Linux/target/STM32MP1-DK2/buildroot/buildroot/output/build/optee-os-custom/lib/libutils/isoc/newlib/memcpy.c:111
     b08:	3410      	adds	r4, #16
     b0a:	4564      	cmp	r4, ip
     b0c:	f105 0510 	add.w	r5, r5, #16
/home/aom1/Work/Linux/target/STM32MP1-DK2/buildroot/buildroot/output/build/optee-os-custom/lib/libutils/isoc/newlib/memcpy.c:112
     b10:	f845 3c20 	str.w	r3, [r5, #-32]
/home/aom1/Work/Linux/target/STM32MP1-DK2/buildroot/buildroot/output/build/optee-os-custom/lib/libutils/isoc/newlib/memcpy.c:113
     b14:	f854 3c1c 	ldr.w	r3, [r4, #-28]
     b18:	f845 3c1c 	str.w	r3, [r5, #-28]
/home/aom1/Work/Linux/target/STM32MP1-DK2/buildroot/buildroot/output/build/optee-os-custom/lib/libutils/isoc/newlib/memcpy.c:114
     b1c:	f854 3c18 	ldr.w	r3, [r4, #-24]
     b20:	f845 3c18 	str.w	r3, [r5, #-24]
/home/aom1/Work/Linux/target/STM32MP1-DK2/buildroot/buildroot/output/build/optee-os-custom/lib/libutils/isoc/newlib/memcpy.c:115
     b24:	f854 3c14 	ldr.w	r3, [r4, #-20]
     b28:	f845 3c14 	str.w	r3, [r5, #-20]
/home/aom1/Work/Linux/target/STM32MP1-DK2/buildroot/buildroot/output/build/optee-os-custom/lib/libutils/isoc/newlib/memcpy.c:111
     b2c:	d1ea      	bne.n	b04 <memcpy+0x28>
     b2e:	f10e 0301 	add.w	r3, lr, #1
/home/aom1/Work/Linux/target/STM32MP1-DK2/buildroot/buildroot/output/build/optee-os-custom/lib/libutils/isoc/newlib/memcpy.c:120
     b32:	f012 0f0c 	tst.w	r2, #12
/home/aom1/Work/Linux/target/STM32MP1-DK2/buildroot/buildroot/output/build/optee-os-custom/lib/libutils/isoc/newlib/memcpy.c:116
     b36:	f002 040f 	and.w	r4, r2, #15
     b3a:	ea4f 1303 	mov.w	r3, r3, lsl #4
/home/aom1/Work/Linux/target/STM32MP1-DK2/buildroot/buildroot/output/build/optee-os-custom/lib/libutils/isoc/newlib/memcpy.c:120
     b3e:	bf08      	it	eq
     b40:	4622      	moveq	r2, r4
/home/aom1/Work/Linux/target/STM32MP1-DK2/buildroot/buildroot/output/build/optee-os-custom/lib/libutils/isoc/newlib/memcpy.c:115
     b42:	4419      	add	r1, r3
     b44:	4403      	add	r3, r0
/home/aom1/Work/Linux/target/STM32MP1-DK2/buildroot/buildroot/output/build/optee-os-custom/lib/libutils/isoc/newlib/memcpy.c:120
     b46:	d014      	beq.n	b72 <memcpy+0x96>
     b48:	f1a3 0e04 	sub.w	lr, r3, #4
/home/aom1/Work/Linux/target/STM32MP1-DK2/buildroot/buildroot/output/build/optee-os-custom/lib/libutils/isoc/newlib/memcpy.c:115
     b4c:	460d      	mov	r5, r1
/home/aom1/Work/Linux/target/STM32MP1-DK2/buildroot/buildroot/output/build/optee-os-custom/lib/libutils/isoc/newlib/memcpy.c:121
     b4e:	f855 6b04 	ldr.w	r6, [r5], #4
     b52:	eba4 0c05 	sub.w	ip, r4, r5
/home/aom1/Work/Linux/target/STM32MP1-DK2/buildroot/buildroot/output/build/optee-os-custom/lib/libutils/isoc/newlib/memcpy.c:120
     b56:	448c      	add	ip, r1
/home/aom1/Work/Linux/target/STM32MP1-DK2/buildroot/buildroot/output/build/optee-os-custom/lib/libutils/isoc/newlib/memcpy.c:121
     b58:	f84e 6f04 	str.w	r6, [lr, #4]!
/home/aom1/Work/Linux/target/STM32MP1-DK2/buildroot/buildroot/output/build/optee-os-custom/lib/libutils/isoc/newlib/memcpy.c:120
     b5c:	f1bc 0f03 	cmp.w	ip, #3
     b60:	d8f5      	bhi.n	b4e <memcpy+0x72>
     b62:	3c04      	subs	r4, #4
/home/aom1/Work/Linux/target/STM32MP1-DK2/buildroot/buildroot/output/build/optee-os-custom/lib/libutils/isoc/newlib/memcpy.c:122
     b64:	f002 0203 	and.w	r2, r2, #3
     b68:	f024 0403 	bic.w	r4, r4, #3
     b6c:	3404      	adds	r4, #4
/home/aom1/Work/Linux/target/STM32MP1-DK2/buildroot/buildroot/output/build/optee-os-custom/lib/libutils/isoc/newlib/memcpy.c:121
     b6e:	4423      	add	r3, r4
     b70:	4421      	add	r1, r4
/home/aom1/Work/Linux/target/STM32MP1-DK2/buildroot/buildroot/output/build/optee-os-custom/lib/libutils/isoc/newlib/memcpy.c:130
     b72:	f102 3cff 	add.w	ip, r2, #4294967295	; 0xffffffff
     b76:	3b01      	subs	r3, #1
     b78:	f10c 0c01 	add.w	ip, ip, #1
     b7c:	448c      	add	ip, r1
     b7e:	b12a      	cbz	r2, b8c <memcpy+0xb0>
/home/aom1/Work/Linux/target/STM32MP1-DK2/buildroot/buildroot/output/build/optee-os-custom/lib/libutils/isoc/newlib/memcpy.c:131
     b80:	f811 2b01 	ldrb.w	r2, [r1], #1
/home/aom1/Work/Linux/target/STM32MP1-DK2/buildroot/buildroot/output/build/optee-os-custom/lib/libutils/isoc/newlib/memcpy.c:130
     b84:	4561      	cmp	r1, ip
/home/aom1/Work/Linux/target/STM32MP1-DK2/buildroot/buildroot/output/build/optee-os-custom/lib/libutils/isoc/newlib/memcpy.c:131
     b86:	f803 2f01 	strb.w	r2, [r3, #1]!
/home/aom1/Work/Linux/target/STM32MP1-DK2/buildroot/buildroot/output/build/optee-os-custom/lib/libutils/isoc/newlib/memcpy.c:130
     b8a:	d1f9      	bne.n	b80 <memcpy+0xa4>
/home/aom1/Work/Linux/target/STM32MP1-DK2/buildroot/buildroot/output/build/optee-os-custom/lib/libutils/isoc/newlib/memcpy.c:135
     b8c:	bd70      	pop	{r4, r5, r6, pc}
/home/aom1/Work/Linux/target/STM32MP1-DK2/buildroot/buildroot/output/build/optee-os-custom/lib/libutils/isoc/newlib/memcpy.c:99
     b8e:	4603      	mov	r3, r0
/home/aom1/Work/Linux/target/STM32MP1-DK2/buildroot/buildroot/output/build/optee-os-custom/lib/libutils/isoc/newlib/memcpy.c:130
     b90:	f102 3cff 	add.w	ip, r2, #4294967295	; 0xffffffff
     b94:	b14a      	cbz	r2, baa <memcpy+0xce>
     b96:	f10c 0c01 	add.w	ip, ip, #1
     b9a:	3b01      	subs	r3, #1
     b9c:	448c      	add	ip, r1
/home/aom1/Work/Linux/target/STM32MP1-DK2/buildroot/buildroot/output/build/optee-os-custom/lib/libutils/isoc/newlib/memcpy.c:131
     b9e:	f811 2b01 	ldrb.w	r2, [r1], #1
/home/aom1/Work/Linux/target/STM32MP1-DK2/buildroot/buildroot/output/build/optee-os-custom/lib/libutils/isoc/newlib/memcpy.c:130
     ba2:	4561      	cmp	r1, ip
/home/aom1/Work/Linux/target/STM32MP1-DK2/buildroot/buildroot/output/build/optee-os-custom/lib/libutils/isoc/newlib/memcpy.c:131
     ba4:	f803 2f01 	strb.w	r2, [r3, #1]!
/home/aom1/Work/Linux/target/STM32MP1-DK2/buildroot/buildroot/output/build/optee-os-custom/lib/libutils/isoc/newlib/memcpy.c:130
     ba8:	d1f9      	bne.n	b9e <memcpy+0xc2>
/home/aom1/Work/Linux/target/STM32MP1-DK2/buildroot/buildroot/output/build/optee-os-custom/lib/libutils/isoc/newlib/memcpy.c:135
     baa:	4770      	bx	lr
/home/aom1/Work/Linux/target/STM32MP1-DK2/buildroot/buildroot/output/build/optee-os-custom/lib/libutils/isoc/newlib/memcpy.c:130
     bac:	f102 3cff 	add.w	ip, r2, #4294967295	; 0xffffffff
/home/aom1/Work/Linux/target/STM32MP1-DK2/buildroot/buildroot/output/build/optee-os-custom/lib/libutils/isoc/newlib/memcpy.c:99
     bb0:	4603      	mov	r3, r0
     bb2:	e7f0      	b.n	b96 <memcpy+0xba>

00000bb4 <trace_set_level>:
trace_set_level():
/home/aom1/Work/Linux/target/STM32MP1-DK2/buildroot/buildroot/output/build/optee-os-custom/lib/libutils/ext/trace.c:24
     bb4:	4b04      	ldr	r3, [pc, #16]	; (bc8 <trace_set_level+0x14>)
/home/aom1/Work/Linux/target/STM32MP1-DK2/buildroot/buildroot/output/build/optee-os-custom/lib/libutils/ext/trace.c:28
     bb6:	2805      	cmp	r0, #5
     bb8:	4a04      	ldr	r2, [pc, #16]	; (bcc <trace_set_level+0x18>)
     bba:	bf28      	it	cs
     bbc:	2004      	movcs	r0, #4
/home/aom1/Work/Linux/target/STM32MP1-DK2/buildroot/buildroot/output/build/optee-os-custom/lib/libutils/ext/trace.c:24
     bbe:	447b      	add	r3, pc
     bc0:	589b      	ldr	r3, [r3, r2]
     bc2:	6018      	str	r0, [r3, #0]
/home/aom1/Work/Linux/target/STM32MP1-DK2/buildroot/buildroot/output/build/optee-os-custom/lib/libutils/ext/trace.c:29
     bc4:	4770      	bx	lr
     bc6:	bf00      	nop
     bc8:	0000c4c6 	.word	0x0000c4c6
     bcc:	00000018 	.word	0x00000018

00000bd0 <trace_get_level>:
trace_get_level():
/home/aom1/Work/Linux/target/STM32MP1-DK2/buildroot/buildroot/output/build/optee-os-custom/lib/libutils/ext/trace.c:32
     bd0:	4b02      	ldr	r3, [pc, #8]	; (bdc <trace_get_level+0xc>)
/home/aom1/Work/Linux/target/STM32MP1-DK2/buildroot/buildroot/output/build/optee-os-custom/lib/libutils/ext/trace.c:33
     bd2:	4a03      	ldr	r2, [pc, #12]	; (be0 <trace_get_level+0x10>)
/home/aom1/Work/Linux/target/STM32MP1-DK2/buildroot/buildroot/output/build/optee-os-custom/lib/libutils/ext/trace.c:32
     bd4:	447b      	add	r3, pc
/home/aom1/Work/Linux/target/STM32MP1-DK2/buildroot/buildroot/output/build/optee-os-custom/lib/libutils/ext/trace.c:33
     bd6:	589b      	ldr	r3, [r3, r2]
/home/aom1/Work/Linux/target/STM32MP1-DK2/buildroot/buildroot/output/build/optee-os-custom/lib/libutils/ext/trace.c:34
     bd8:	6818      	ldr	r0, [r3, #0]
     bda:	4770      	bx	lr
     bdc:	0000c4b0 	.word	0x0000c4b0
     be0:	00000018 	.word	0x00000018

00000be4 <trace_vprintf>:
trace_vprintf():
/home/aom1/Work/Linux/target/STM32MP1-DK2/buildroot/buildroot/output/build/optee-os-custom/lib/libutils/ext/trace.c:113
     be4:	e92d 4ff0 	stmdb	sp!, {r4, r5, r6, r7, r8, r9, sl, fp, lr}
     be8:	4688      	mov	r8, r1
     bea:	4950      	ldr	r1, [pc, #320]	; (d2c <trace_vprintf+0x148>)
     bec:	4614      	mov	r4, r2
     bee:	4a50      	ldr	r2, [pc, #320]	; (d30 <trace_vprintf+0x14c>)
     bf0:	b0c7      	sub	sp, #284	; 0x11c
     bf2:	4479      	add	r1, pc
     bf4:	4607      	mov	r7, r0
     bf6:	4e4f      	ldr	r6, [pc, #316]	; (d34 <trace_vprintf+0x150>)
/home/aom1/Work/Linux/target/STM32MP1-DK2/buildroot/buildroot/output/build/optee-os-custom/lib/libutils/ext/trace.c:118
     bf8:	469b      	mov	fp, r3
/home/aom1/Work/Linux/target/STM32MP1-DK2/buildroot/buildroot/output/build/optee-os-custom/lib/libutils/ext/trace.c:113
     bfa:	588a      	ldr	r2, [r1, r2]
     bfc:	447e      	add	r6, pc
     bfe:	f8dd 9140 	ldr.w	r9, [sp, #320]	; 0x140
     c02:	6812      	ldr	r2, [r2, #0]
     c04:	9245      	str	r2, [sp, #276]	; 0x114
     c06:	f04f 0200 	mov.w	r2, #0
/home/aom1/Work/Linux/target/STM32MP1-DK2/buildroot/buildroot/output/build/optee-os-custom/lib/libutils/ext/trace.c:118
     c0a:	2b00      	cmp	r3, #0
     c0c:	d075      	beq.n	cfa <trace_vprintf+0x116>
/home/aom1/Work/Linux/target/STM32MP1-DK2/buildroot/buildroot/output/build/optee-os-custom/lib/libutils/ext/trace.c:118 (discriminator 1)
     c0e:	4b4a      	ldr	r3, [pc, #296]	; (d38 <trace_vprintf+0x154>)
     c10:	58f3      	ldr	r3, [r6, r3]
     c12:	681b      	ldr	r3, [r3, #0]
     c14:	42a3      	cmp	r3, r4
     c16:	db64      	blt.n	ce2 <trace_vprintf+0xfe>
trace_level_to_string():
/home/aom1/Work/Linux/target/STM32MP1-DK2/buildroot/buildroot/output/build/optee-os-custom/lib/libutils/ext/trace.c:54
     c18:	4a48      	ldr	r2, [pc, #288]	; (d3c <trace_vprintf+0x158>)
/home/aom1/Work/Linux/target/STM32MP1-DK2/buildroot/buildroot/output/build/optee-os-custom/lib/libutils/ext/trace.c:51
     c1a:	2c04      	cmp	r4, #4
     c1c:	bf94      	ite	ls
     c1e:	4623      	movls	r3, r4
     c20:	2300      	movhi	r3, #0
/home/aom1/Work/Linux/target/STM32MP1-DK2/buildroot/buildroot/output/build/optee-os-custom/lib/libutils/ext/trace.c:54
     c22:	447a      	add	r2, pc
     c24:	5cd3      	ldrb	r3, [r2, r3]
trace_vprintf():
/home/aom1/Work/Linux/target/STM32MP1-DK2/buildroot/buildroot/output/build/optee-os-custom/lib/libutils/ext/trace.c:122
     c26:	4a46      	ldr	r2, [pc, #280]	; (d40 <trace_vprintf+0x15c>)
     c28:	ad05      	add	r5, sp, #20
     c2a:	f44f 7180 	mov.w	r1, #256	; 0x100
     c2e:	4628      	mov	r0, r5
     c30:	447a      	add	r2, pc
     c32:	f000 f8fc 	bl	e2e <snprintk>
/home/aom1/Work/Linux/target/STM32MP1-DK2/buildroot/buildroot/output/build/optee-os-custom/lib/libutils/ext/trace.c:124
     c36:	f1b0 0a00 	subs.w	sl, r0, #0
     c3a:	db52      	blt.n	ce2 <trace_vprintf+0xfe>
/home/aom1/Work/Linux/target/STM32MP1-DK2/buildroot/buildroot/output/build/optee-os-custom/lib/libutils/ext/trace.c:129
     c3c:	4b41      	ldr	r3, [pc, #260]	; (d44 <trace_vprintf+0x160>)
     c3e:	f5ca 7180 	rsb	r1, sl, #256	; 0x100
     c42:	4a41      	ldr	r2, [pc, #260]	; (d48 <trace_vprintf+0x164>)
     c44:	58f3      	ldr	r3, [r6, r3]
     c46:	447a      	add	r2, pc
     c48:	eb05 000a 	add.w	r0, r5, sl
     c4c:	9303      	str	r3, [sp, #12]
     c4e:	f000 f8ee 	bl	e2e <snprintk>
/home/aom1/Work/Linux/target/STM32MP1-DK2/buildroot/buildroot/output/build/optee-os-custom/lib/libutils/ext/trace.c:131
     c52:	2800      	cmp	r0, #0
     c54:	db45      	blt.n	ce2 <trace_vprintf+0xfe>
/home/aom1/Work/Linux/target/STM32MP1-DK2/buildroot/buildroot/output/build/optee-os-custom/lib/libutils/ext/trace.c:133
     c56:	4482      	add	sl, r0
/home/aom1/Work/Linux/target/STM32MP1-DK2/buildroot/buildroot/output/build/optee-os-custom/lib/libutils/ext/trace.c:135
     c58:	f1bb 0f00 	cmp.w	fp, #0
     c5c:	d056      	beq.n	d0c <trace_vprintf+0x128>
/home/aom1/Work/Linux/target/STM32MP1-DK2/buildroot/buildroot/output/build/optee-os-custom/lib/libutils/ext/trace.c:135 (discriminator 1)
     c5e:	221a      	movs	r2, #26
     c60:	fa22 f404 	lsr.w	r4, r2, r4
     c64:	07e3      	lsls	r3, r4, #31
     c66:	d551      	bpl.n	d0c <trace_vprintf+0x128>
/home/aom1/Work/Linux/target/STM32MP1-DK2/buildroot/buildroot/output/build/optee-os-custom/lib/libutils/ext/trace.c:137
     c68:	eb05 040a 	add.w	r4, r5, sl
     c6c:	f5ca 7180 	rsb	r1, sl, #256	; 0x100
     c70:	9103      	str	r1, [sp, #12]
print_thread_id():
/home/aom1/Work/Linux/target/STM32MP1-DK2/buildroot/buildroot/output/build/optee-os-custom/lib/libutils/ext/trace.c:66
     c72:	f000 fdc1 	bl	17f8 <trace_ext_get_thread_id>
/home/aom1/Work/Linux/target/STM32MP1-DK2/buildroot/buildroot/output/build/optee-os-custom/lib/libutils/ext/trace.c:68
     c76:	9903      	ldr	r1, [sp, #12]
     c78:	2800      	cmp	r0, #0
     c7a:	db40      	blt.n	cfe <trace_vprintf+0x11a>
/home/aom1/Work/Linux/target/STM32MP1-DK2/buildroot/buildroot/output/build/optee-os-custom/lib/libutils/ext/trace.c:69
     c7c:	4a33      	ldr	r2, [pc, #204]	; (d4c <trace_vprintf+0x168>)
     c7e:	2301      	movs	r3, #1
     c80:	9000      	str	r0, [sp, #0]
     c82:	447a      	add	r2, pc
/home/aom1/Work/Linux/target/STM32MP1-DK2/buildroot/buildroot/output/build/optee-os-custom/lib/libutils/ext/trace.c:71
     c84:	4620      	mov	r0, r4
     c86:	f000 f8d2 	bl	e2e <snprintk>
trace_vprintf():
/home/aom1/Work/Linux/target/STM32MP1-DK2/buildroot/buildroot/output/build/optee-os-custom/lib/libutils/ext/trace.c:144
     c8a:	2800      	cmp	r0, #0
     c8c:	db29      	blt.n	ce2 <trace_vprintf+0xfe>
/home/aom1/Work/Linux/target/STM32MP1-DK2/buildroot/buildroot/output/build/optee-os-custom/lib/libutils/ext/trace.c:146
     c8e:	eb00 040a 	add.w	r4, r0, sl
/home/aom1/Work/Linux/target/STM32MP1-DK2/buildroot/buildroot/output/build/optee-os-custom/lib/libutils/ext/trace.c:148
     c92:	b167      	cbz	r7, cae <trace_vprintf+0xca>
/home/aom1/Work/Linux/target/STM32MP1-DK2/buildroot/buildroot/output/build/optee-os-custom/lib/libutils/ext/trace.c:149
     c94:	4a2e      	ldr	r2, [pc, #184]	; (d50 <trace_vprintf+0x16c>)
     c96:	463b      	mov	r3, r7
     c98:	1928      	adds	r0, r5, r4
     c9a:	f5c4 7180 	rsb	r1, r4, #256	; 0x100
     c9e:	447a      	add	r2, pc
     ca0:	f8cd 8000 	str.w	r8, [sp]
     ca4:	f000 f8c3 	bl	e2e <snprintk>
/home/aom1/Work/Linux/target/STM32MP1-DK2/buildroot/buildroot/output/build/optee-os-custom/lib/libutils/ext/trace.c:151
     ca8:	2800      	cmp	r0, #0
     caa:	db1a      	blt.n	ce2 <trace_vprintf+0xfe>
/home/aom1/Work/Linux/target/STM32MP1-DK2/buildroot/buildroot/output/build/optee-os-custom/lib/libutils/ext/trace.c:153
     cac:	4404      	add	r4, r0
/home/aom1/Work/Linux/target/STM32MP1-DK2/buildroot/buildroot/output/build/optee-os-custom/lib/libutils/ext/trace.c:163
     cae:	1928      	adds	r0, r5, r4
     cb0:	f5c4 7180 	rsb	r1, r4, #256	; 0x100
     cb4:	9b51      	ldr	r3, [sp, #324]	; 0x144
     cb6:	464a      	mov	r2, r9
     cb8:	f000 f8b2 	bl	e20 <vsnprintk>
/home/aom1/Work/Linux/target/STM32MP1-DK2/buildroot/buildroot/output/build/optee-os-custom/lib/libutils/ext/trace.c:164
     cbc:	2800      	cmp	r0, #0
/home/aom1/Work/Linux/target/STM32MP1-DK2/buildroot/buildroot/output/build/optee-os-custom/lib/libutils/ext/trace.c:170
     cbe:	f04f 030a 	mov.w	r3, #10
/home/aom1/Work/Linux/target/STM32MP1-DK2/buildroot/buildroot/output/build/optee-os-custom/lib/libutils/ext/trace.c:165
     cc2:	bfc8      	it	gt
     cc4:	1824      	addgt	r4, r4, r0
/home/aom1/Work/Linux/target/STM32MP1-DK2/buildroot/buildroot/output/build/optee-os-custom/lib/libutils/ext/trace.c:167
     cc6:	2cfe      	cmp	r4, #254	; 0xfe
     cc8:	bf28      	it	cs
     cca:	24fe      	movcs	r4, #254	; 0xfe
/home/aom1/Work/Linux/target/STM32MP1-DK2/buildroot/buildroot/output/build/optee-os-custom/lib/libutils/ext/trace.c:170
     ccc:	552b      	strb	r3, [r5, r4]
/home/aom1/Work/Linux/target/STM32MP1-DK2/buildroot/buildroot/output/build/optee-os-custom/lib/libutils/ext/trace.c:171
     cce:	b114      	cbz	r4, cd6 <trace_vprintf+0xf2>
/home/aom1/Work/Linux/target/STM32MP1-DK2/buildroot/buildroot/output/build/optee-os-custom/lib/libutils/ext/trace.c:171 (discriminator 1)
     cd0:	5d2b      	ldrb	r3, [r5, r4]
     cd2:	2b0a      	cmp	r3, #10
     cd4:	d025      	beq.n	d22 <trace_vprintf+0x13e>
/home/aom1/Work/Linux/target/STM32MP1-DK2/buildroot/buildroot/output/build/optee-os-custom/lib/libutils/ext/trace.c:174
     cd6:	442c      	add	r4, r5
     cd8:	2300      	movs	r3, #0
/home/aom1/Work/Linux/target/STM32MP1-DK2/buildroot/buildroot/output/build/optee-os-custom/lib/libutils/ext/trace.c:176
     cda:	4628      	mov	r0, r5
/home/aom1/Work/Linux/target/STM32MP1-DK2/buildroot/buildroot/output/build/optee-os-custom/lib/libutils/ext/trace.c:174
     cdc:	70a3      	strb	r3, [r4, #2]
/home/aom1/Work/Linux/target/STM32MP1-DK2/buildroot/buildroot/output/build/optee-os-custom/lib/libutils/ext/trace.c:176
     cde:	f000 fd81 	bl	17e4 <trace_ext_puts>
/home/aom1/Work/Linux/target/STM32MP1-DK2/buildroot/buildroot/output/build/optee-os-custom/lib/libutils/ext/trace.c:113
     ce2:	4a1c      	ldr	r2, [pc, #112]	; (d54 <trace_vprintf+0x170>)
/home/aom1/Work/Linux/target/STM32MP1-DK2/buildroot/buildroot/output/build/optee-os-custom/lib/libutils/ext/trace.c:177
     ce4:	4b12      	ldr	r3, [pc, #72]	; (d30 <trace_vprintf+0x14c>)
/home/aom1/Work/Linux/target/STM32MP1-DK2/buildroot/buildroot/output/build/optee-os-custom/lib/libutils/ext/trace.c:113
     ce6:	447a      	add	r2, pc
/home/aom1/Work/Linux/target/STM32MP1-DK2/buildroot/buildroot/output/build/optee-os-custom/lib/libutils/ext/trace.c:177
     ce8:	58d3      	ldr	r3, [r2, r3]
     cea:	681a      	ldr	r2, [r3, #0]
     cec:	9b45      	ldr	r3, [sp, #276]	; 0x114
     cee:	405a      	eors	r2, r3
     cf0:	f04f 0300 	mov.w	r3, #0
     cf4:	d017      	beq.n	d26 <trace_vprintf+0x142>
     cf6:	f00a f800 	bl	acfa <__stack_chk_fail>
trace_level_to_string():
/home/aom1/Work/Linux/target/STM32MP1-DK2/buildroot/buildroot/output/build/optee-os-custom/lib/libutils/ext/trace.c:49
     cfa:	234d      	movs	r3, #77	; 0x4d
     cfc:	e793      	b.n	c26 <trace_vprintf+0x42>
print_thread_id():
/home/aom1/Work/Linux/target/STM32MP1-DK2/buildroot/buildroot/output/build/optee-os-custom/lib/libutils/ext/trace.c:71
     cfe:	4b16      	ldr	r3, [pc, #88]	; (d58 <trace_vprintf+0x174>)
     d00:	4a16      	ldr	r2, [pc, #88]	; (d5c <trace_vprintf+0x178>)
     d02:	447b      	add	r3, pc
     d04:	9300      	str	r3, [sp, #0]
     d06:	2301      	movs	r3, #1
     d08:	447a      	add	r2, pc
     d0a:	e7bb      	b.n	c84 <trace_vprintf+0xa0>
trace_vprintf():
/home/aom1/Work/Linux/target/STM32MP1-DK2/buildroot/buildroot/output/build/optee-os-custom/lib/libutils/ext/trace.c:157
     d0c:	f1ba 0ffe 	cmp.w	sl, #254	; 0xfe
     d10:	d8e7      	bhi.n	ce2 <trace_vprintf+0xfe>
/home/aom1/Work/Linux/target/STM32MP1-DK2/buildroot/buildroot/output/build/optee-os-custom/lib/libutils/ext/trace.c:159
     d12:	2320      	movs	r3, #32
     d14:	f10a 0401 	add.w	r4, sl, #1
     d18:	f805 300a 	strb.w	r3, [r5, sl]
/home/aom1/Work/Linux/target/STM32MP1-DK2/buildroot/buildroot/output/build/optee-os-custom/lib/libutils/ext/trace.c:160
     d1c:	2300      	movs	r3, #0
     d1e:	552b      	strb	r3, [r5, r4]
     d20:	e7c5      	b.n	cae <trace_vprintf+0xca>
/home/aom1/Work/Linux/target/STM32MP1-DK2/buildroot/buildroot/output/build/optee-os-custom/lib/libutils/ext/trace.c:172
     d22:	3c01      	subs	r4, #1
     d24:	e7d3      	b.n	cce <trace_vprintf+0xea>
/home/aom1/Work/Linux/target/STM32MP1-DK2/buildroot/buildroot/output/build/optee-os-custom/lib/libutils/ext/trace.c:177
     d26:	b047      	add	sp, #284	; 0x11c
     d28:	e8bd 8ff0 	ldmia.w	sp!, {r4, r5, r6, r7, r8, r9, sl, fp, pc}
     d2c:	0000c492 	.word	0x0000c492
     d30:	0000000c 	.word	0x0000000c
     d34:	0000c488 	.word	0x0000c488
     d38:	00000018 	.word	0x00000018
     d3c:	0000a75f 	.word	0x0000a75f
     d40:	0000a737 	.word	0x0000a737
     d44:	00000020 	.word	0x00000020
     d48:	0000a725 	.word	0x0000a725
     d4c:	0000a6ed 	.word	0x0000a6ed
     d50:	0000a6dc 	.word	0x0000a6dc
     d54:	0000c39e 	.word	0x0000c39e
     d58:	0000af83 	.word	0x0000af83
     d5c:	0000a66d 	.word	0x0000a66d

00000d60 <trace_printf>:
trace_printf():
/home/aom1/Work/Linux/target/STM32MP1-DK2/buildroot/buildroot/output/build/optee-os-custom/lib/libutils/ext/trace.c:104
     d60:	b530      	push	{r4, r5, lr}
     d62:	b085      	sub	sp, #20
     d64:	f8df e044 	ldr.w	lr, [pc, #68]	; dac <trace_printf+0x4c>
     d68:	ac08      	add	r4, sp, #32
     d6a:	f8df c044 	ldr.w	ip, [pc, #68]	; db0 <trace_printf+0x50>
     d6e:	44fe      	add	lr, pc
     d70:	f854 5b04 	ldr.w	r5, [r4], #4
     d74:	f85e c00c 	ldr.w	ip, [lr, ip]
     d78:	f8dc c000 	ldr.w	ip, [ip]
     d7c:	f8cd c00c 	str.w	ip, [sp, #12]
     d80:	f04f 0c00 	mov.w	ip, #0
/home/aom1/Work/Linux/target/STM32MP1-DK2/buildroot/buildroot/output/build/optee-os-custom/lib/libutils/ext/trace.c:108
     d84:	9401      	str	r4, [sp, #4]
     d86:	9500      	str	r5, [sp, #0]
/home/aom1/Work/Linux/target/STM32MP1-DK2/buildroot/buildroot/output/build/optee-os-custom/lib/libutils/ext/trace.c:107
     d88:	9402      	str	r4, [sp, #8]
/home/aom1/Work/Linux/target/STM32MP1-DK2/buildroot/buildroot/output/build/optee-os-custom/lib/libutils/ext/trace.c:108
     d8a:	f7ff ff2b 	bl	be4 <trace_vprintf>
/home/aom1/Work/Linux/target/STM32MP1-DK2/buildroot/buildroot/output/build/optee-os-custom/lib/libutils/ext/trace.c:104
     d8e:	4a09      	ldr	r2, [pc, #36]	; (db4 <trace_printf+0x54>)
/home/aom1/Work/Linux/target/STM32MP1-DK2/buildroot/buildroot/output/build/optee-os-custom/lib/libutils/ext/trace.c:110
     d90:	4b07      	ldr	r3, [pc, #28]	; (db0 <trace_printf+0x50>)
/home/aom1/Work/Linux/target/STM32MP1-DK2/buildroot/buildroot/output/build/optee-os-custom/lib/libutils/ext/trace.c:104
     d92:	447a      	add	r2, pc
/home/aom1/Work/Linux/target/STM32MP1-DK2/buildroot/buildroot/output/build/optee-os-custom/lib/libutils/ext/trace.c:110
     d94:	58d3      	ldr	r3, [r2, r3]
     d96:	681a      	ldr	r2, [r3, #0]
     d98:	9b03      	ldr	r3, [sp, #12]
     d9a:	405a      	eors	r2, r3
     d9c:	f04f 0300 	mov.w	r3, #0
     da0:	d001      	beq.n	da6 <trace_printf+0x46>
     da2:	f009 ffaa 	bl	acfa <__stack_chk_fail>
     da6:	b005      	add	sp, #20
     da8:	bd30      	pop	{r4, r5, pc}
     daa:	bf00      	nop
     dac:	0000c316 	.word	0x0000c316
     db0:	0000000c 	.word	0x0000000c
     db4:	0000c2f2 	.word	0x0000c2f2

00000db8 <dhex_dump>:
dhex_dump():
/home/aom1/Work/Linux/target/STM32MP1-DK2/buildroot/buildroot/output/build/optee-os-custom/lib/libutils/ext/trace.c:287
     db8:	4770      	bx	lr
     dba:	bf00      	nop

00000dbc <__vsnprintf>:
__vsnprintf():
/home/aom1/Work/Linux/target/STM32MP1-DK2/buildroot/buildroot/output/build/optee-os-custom/lib/libutils/ext/snprintk.c:138
     dbc:	b57f      	push	{r0, r1, r2, r3, r4, r5, r6, lr}
     dbe:	460d      	mov	r5, r1
     dc0:	4914      	ldr	r1, [pc, #80]	; (e14 <__vsnprintf+0x58>)
     dc2:	4604      	mov	r4, r0
/home/aom1/Work/Linux/target/STM32MP1-DK2/buildroot/buildroot/output/build/optee-os-custom/lib/libutils/ext/snprintk.c:142
     dc4:	1966      	adds	r6, r4, r5
/home/aom1/Work/Linux/target/STM32MP1-DK2/buildroot/buildroot/output/build/optee-os-custom/lib/libutils/ext/snprintk.c:138
     dc6:	4610      	mov	r0, r2
     dc8:	4479      	add	r1, pc
     dca:	4a13      	ldr	r2, [pc, #76]	; (e18 <__vsnprintf+0x5c>)
     dcc:	588a      	ldr	r2, [r1, r2]
/home/aom1/Work/Linux/target/STM32MP1-DK2/buildroot/buildroot/output/build/optee-os-custom/lib/libutils/ext/snprintk.c:143
     dce:	a902      	add	r1, sp, #8
/home/aom1/Work/Linux/target/STM32MP1-DK2/buildroot/buildroot/output/build/optee-os-custom/lib/libutils/ext/snprintk.c:138
     dd0:	6812      	ldr	r2, [r2, #0]
     dd2:	9203      	str	r2, [sp, #12]
     dd4:	f04f 0200 	mov.w	r2, #0
/home/aom1/Work/Linux/target/STM32MP1-DK2/buildroot/buildroot/output/build/optee-os-custom/lib/libutils/ext/snprintk.c:143
     dd8:	f89d 2020 	ldrb.w	r2, [sp, #32]
/home/aom1/Work/Linux/target/STM32MP1-DK2/buildroot/buildroot/output/build/optee-os-custom/lib/libutils/ext/snprintk.c:142
     ddc:	9602      	str	r6, [sp, #8]
/home/aom1/Work/Linux/target/STM32MP1-DK2/buildroot/buildroot/output/build/optee-os-custom/lib/libutils/ext/snprintk.c:143
     dde:	9200      	str	r2, [sp, #0]
     de0:	4622      	mov	r2, r4
     de2:	f000 f851 	bl	e88 <kprintf.constprop.0>
/home/aom1/Work/Linux/target/STM32MP1-DK2/buildroot/buildroot/output/build/optee-os-custom/lib/libutils/ext/snprintk.c:144
     de6:	b13c      	cbz	r4, df8 <__vsnprintf+0x3c>
/home/aom1/Work/Linux/target/STM32MP1-DK2/buildroot/buildroot/output/build/optee-os-custom/lib/libutils/ext/snprintk.c:144 (discriminator 1)
     de8:	b135      	cbz	r5, df8 <__vsnprintf+0x3c>
/home/aom1/Work/Linux/target/STM32MP1-DK2/buildroot/buildroot/output/build/optee-os-custom/lib/libutils/ext/snprintk.c:146
     dea:	42a8      	cmp	r0, r5
     dec:	f04f 0300 	mov.w	r3, #0
/home/aom1/Work/Linux/target/STM32MP1-DK2/buildroot/buildroot/output/build/optee-os-custom/lib/libutils/ext/snprintk.c:147
     df0:	bf2c      	ite	cs
     df2:	f806 3c01 	strbcs.w	r3, [r6, #-1]
/home/aom1/Work/Linux/target/STM32MP1-DK2/buildroot/buildroot/output/build/optee-os-custom/lib/libutils/ext/snprintk.c:149
     df6:	5423      	strbcc	r3, [r4, r0]
/home/aom1/Work/Linux/target/STM32MP1-DK2/buildroot/buildroot/output/build/optee-os-custom/lib/libutils/ext/snprintk.c:138
     df8:	4a08      	ldr	r2, [pc, #32]	; (e1c <__vsnprintf+0x60>)
/home/aom1/Work/Linux/target/STM32MP1-DK2/buildroot/buildroot/output/build/optee-os-custom/lib/libutils/ext/snprintk.c:152
     dfa:	4b07      	ldr	r3, [pc, #28]	; (e18 <__vsnprintf+0x5c>)
/home/aom1/Work/Linux/target/STM32MP1-DK2/buildroot/buildroot/output/build/optee-os-custom/lib/libutils/ext/snprintk.c:138
     dfc:	447a      	add	r2, pc
/home/aom1/Work/Linux/target/STM32MP1-DK2/buildroot/buildroot/output/build/optee-os-custom/lib/libutils/ext/snprintk.c:152
     dfe:	58d3      	ldr	r3, [r2, r3]
     e00:	681a      	ldr	r2, [r3, #0]
     e02:	9b03      	ldr	r3, [sp, #12]
     e04:	405a      	eors	r2, r3
     e06:	f04f 0300 	mov.w	r3, #0
     e0a:	d001      	beq.n	e10 <__vsnprintf+0x54>
     e0c:	f009 ff75 	bl	acfa <__stack_chk_fail>
     e10:	b004      	add	sp, #16
     e12:	bd70      	pop	{r4, r5, r6, pc}
     e14:	0000c2bc 	.word	0x0000c2bc
     e18:	0000000c 	.word	0x0000000c
     e1c:	0000c288 	.word	0x0000c288

00000e20 <vsnprintk>:
vsnprintk():
/home/aom1/Work/Linux/target/STM32MP1-DK2/buildroot/buildroot/output/build/optee-os-custom/lib/libutils/ext/snprintk.c:130
     e20:	b513      	push	{r0, r1, r4, lr}
/home/aom1/Work/Linux/target/STM32MP1-DK2/buildroot/buildroot/output/build/optee-os-custom/lib/libutils/ext/snprintk.c:131
     e22:	2401      	movs	r4, #1
     e24:	9400      	str	r4, [sp, #0]
     e26:	f7ff ffc9 	bl	dbc <__vsnprintf>
/home/aom1/Work/Linux/target/STM32MP1-DK2/buildroot/buildroot/output/build/optee-os-custom/lib/libutils/ext/snprintk.c:132
     e2a:	b002      	add	sp, #8
     e2c:	bd10      	pop	{r4, pc}

00000e2e <snprintk>:
snprintk():
/home/aom1/Work/Linux/target/STM32MP1-DK2/buildroot/buildroot/output/build/optee-os-custom/lib/libutils/ext/snprintk.c:113
     e2e:	b40c      	push	{r2, r3}
     e30:	b507      	push	{r0, r1, r2, lr}
     e32:	ab04      	add	r3, sp, #16
     e34:	f8df e044 	ldr.w	lr, [pc, #68]	; e7c <snprintk+0x4e>
     e38:	f8df c044 	ldr.w	ip, [pc, #68]	; e80 <snprintk+0x52>
     e3c:	44fe      	add	lr, pc
     e3e:	f853 2b04 	ldr.w	r2, [r3], #4
     e42:	f85e c00c 	ldr.w	ip, [lr, ip]
     e46:	f8dc c000 	ldr.w	ip, [ip]
     e4a:	f8cd c004 	str.w	ip, [sp, #4]
     e4e:	f04f 0c00 	mov.w	ip, #0
/home/aom1/Work/Linux/target/STM32MP1-DK2/buildroot/buildroot/output/build/optee-os-custom/lib/libutils/ext/snprintk.c:117
     e52:	9300      	str	r3, [sp, #0]
/home/aom1/Work/Linux/target/STM32MP1-DK2/buildroot/buildroot/output/build/optee-os-custom/lib/libutils/ext/snprintk.c:118
     e54:	f7ff ffe4 	bl	e20 <vsnprintk>
/home/aom1/Work/Linux/target/STM32MP1-DK2/buildroot/buildroot/output/build/optee-os-custom/lib/libutils/ext/snprintk.c:113
     e58:	4a0a      	ldr	r2, [pc, #40]	; (e84 <snprintk+0x56>)
/home/aom1/Work/Linux/target/STM32MP1-DK2/buildroot/buildroot/output/build/optee-os-custom/lib/libutils/ext/snprintk.c:122
     e5a:	4b09      	ldr	r3, [pc, #36]	; (e80 <snprintk+0x52>)
/home/aom1/Work/Linux/target/STM32MP1-DK2/buildroot/buildroot/output/build/optee-os-custom/lib/libutils/ext/snprintk.c:113
     e5c:	447a      	add	r2, pc
/home/aom1/Work/Linux/target/STM32MP1-DK2/buildroot/buildroot/output/build/optee-os-custom/lib/libutils/ext/snprintk.c:122
     e5e:	58d3      	ldr	r3, [r2, r3]
     e60:	681a      	ldr	r2, [r3, #0]
     e62:	9b01      	ldr	r3, [sp, #4]
     e64:	405a      	eors	r2, r3
     e66:	f04f 0300 	mov.w	r3, #0
     e6a:	d001      	beq.n	e70 <snprintk+0x42>
     e6c:	f009 ff45 	bl	acfa <__stack_chk_fail>
     e70:	b003      	add	sp, #12
     e72:	f85d eb04 	ldr.w	lr, [sp], #4
     e76:	b002      	add	sp, #8
     e78:	4770      	bx	lr
     e7a:	bf00      	nop
     e7c:	0000c248 	.word	0x0000c248
     e80:	0000000c 	.word	0x0000000c
     e84:	0000c228 	.word	0x0000c228

00000e88 <kprintf.constprop.0>:
kprintf():
/home/aom1/Work/Linux/target/STM32MP1-DK2/buildroot/buildroot/output/build/optee-os-custom/lib/libutils/ext/snprintk.c:242
     e88:	e92d 4ff0 	stmdb	sp!, {r4, r5, r6, r7, r8, r9, sl, fp, lr}
     e8c:	b0a1      	sub	sp, #132	; 0x84
     e8e:	4690      	mov	r8, r2
     e90:	461f      	mov	r7, r3
     e92:	900b      	str	r0, [sp, #44]	; 0x2c
     e94:	f89d 20a8 	ldrb.w	r2, [sp, #168]	; 0xa8
     e98:	f8df 06f0 	ldr.w	r0, [pc, #1776]	; 158c <kprintf.constprop.0+0x704>
     e9c:	9213      	str	r2, [sp, #76]	; 0x4c
     e9e:	4478      	add	r0, pc
     ea0:	f8df 26ec 	ldr.w	r2, [pc, #1772]	; 1590 <kprintf.constprop.0+0x708>
     ea4:	5882      	ldr	r2, [r0, r2]
     ea6:	6812      	ldr	r2, [r2, #0]
     ea8:	921f      	str	r2, [sp, #124]	; 0x7c
     eaa:	f04f 0200 	mov.w	r2, #0
/home/aom1/Work/Linux/target/STM32MP1-DK2/buildroot/buildroot/output/build/optee-os-custom/lib/libutils/ext/snprintk.c:264
     eae:	910e      	str	r1, [sp, #56]	; 0x38
     eb0:	b1e1      	cbz	r1, eec <kprintf.constprop.0+0x64>
/home/aom1/Work/Linux/target/STM32MP1-DK2/buildroot/buildroot/output/build/optee-os-custom/lib/libutils/ext/snprintk.c:265
     eb2:	680b      	ldr	r3, [r1, #0]
/home/aom1/Work/Linux/target/STM32MP1-DK2/buildroot/buildroot/output/build/optee-os-custom/lib/libutils/ext/snprintk.c:267
     eb4:	9310      	str	r3, [sp, #64]	; 0x40
/home/aom1/Work/Linux/target/STM32MP1-DK2/buildroot/buildroot/output/build/optee-os-custom/lib/libutils/ext/snprintk.c:275
     eb6:	2300      	movs	r3, #0
     eb8:	9311      	str	r3, [sp, #68]	; 0x44
/home/aom1/Work/Linux/target/STM32MP1-DK2/buildroot/buildroot/output/build/optee-os-custom/lib/libutils/ext/snprintk.c:273
     eba:	930d      	str	r3, [sp, #52]	; 0x34
/home/aom1/Work/Linux/target/STM32MP1-DK2/buildroot/buildroot/output/build/optee-os-custom/lib/libutils/ext/snprintk.c:281
     ebc:	9b0b      	ldr	r3, [sp, #44]	; 0x2c
     ebe:	781b      	ldrb	r3, [r3, #0]
     ec0:	2b25      	cmp	r3, #37	; 0x25
     ec2:	d026      	beq.n	f12 <kprintf.constprop.0+0x8a>
     ec4:	b9a3      	cbnz	r3, ef0 <kprintf.constprop.0+0x68>
/home/aom1/Work/Linux/target/STM32MP1-DK2/buildroot/buildroot/output/build/optee-os-custom/lib/libutils/ext/snprintk.c:619
     ec6:	9b0e      	ldr	r3, [sp, #56]	; 0x38
     ec8:	b10b      	cbz	r3, ece <kprintf.constprop.0+0x46>
/home/aom1/Work/Linux/target/STM32MP1-DK2/buildroot/buildroot/output/build/optee-os-custom/lib/libutils/ext/snprintk.c:620
     eca:	f8c3 8000 	str.w	r8, [r3]
/home/aom1/Work/Linux/target/STM32MP1-DK2/buildroot/buildroot/output/build/optee-os-custom/lib/libutils/ext/snprintk.c:242
     ece:	f8df 26c4 	ldr.w	r2, [pc, #1732]	; 1594 <kprintf.constprop.0+0x70c>
/home/aom1/Work/Linux/target/STM32MP1-DK2/buildroot/buildroot/output/build/optee-os-custom/lib/libutils/ext/snprintk.c:622
     ed2:	f8df 36bc 	ldr.w	r3, [pc, #1724]	; 1590 <kprintf.constprop.0+0x708>
/home/aom1/Work/Linux/target/STM32MP1-DK2/buildroot/buildroot/output/build/optee-os-custom/lib/libutils/ext/snprintk.c:242
     ed6:	447a      	add	r2, pc
/home/aom1/Work/Linux/target/STM32MP1-DK2/buildroot/buildroot/output/build/optee-os-custom/lib/libutils/ext/snprintk.c:622
     ed8:	58d3      	ldr	r3, [r2, r3]
     eda:	681a      	ldr	r2, [r3, #0]
     edc:	9b1f      	ldr	r3, [sp, #124]	; 0x7c
     ede:	405a      	eors	r2, r3
     ee0:	f04f 0300 	mov.w	r3, #0
     ee4:	f000 834d 	beq.w	1582 <kprintf.constprop.0+0x6fa>
     ee8:	f009 ff07 	bl	acfa <__stack_chk_fail>
/home/aom1/Work/Linux/target/STM32MP1-DK2/buildroot/buildroot/output/build/optee-os-custom/lib/libutils/ext/snprintk.c:267
     eec:	9b0e      	ldr	r3, [sp, #56]	; 0x38
     eee:	e7e1      	b.n	eb4 <kprintf.constprop.0+0x2c>
/home/aom1/Work/Linux/target/STM32MP1-DK2/buildroot/buildroot/output/build/optee-os-custom/lib/libutils/ext/snprintk.c:282
     ef0:	9a0d      	ldr	r2, [sp, #52]	; 0x34
     ef2:	3201      	adds	r2, #1
     ef4:	920d      	str	r2, [sp, #52]	; 0x34
/home/aom1/Work/Linux/target/STM32MP1-DK2/buildroot/buildroot/output/build/optee-os-custom/lib/libutils/ext/snprintk.c:283
     ef6:	f1b8 0f00 	cmp.w	r8, #0
     efa:	d006      	beq.n	f0a <kprintf.constprop.0+0x82>
     efc:	9a0e      	ldr	r2, [sp, #56]	; 0x38
     efe:	b112      	cbz	r2, f06 <kprintf.constprop.0+0x7e>
     f00:	9a10      	ldr	r2, [sp, #64]	; 0x40
     f02:	4590      	cmp	r8, r2
     f04:	d201      	bcs.n	f0a <kprintf.constprop.0+0x82>
     f06:	f808 3b01 	strb.w	r3, [r8], #1
/home/aom1/Work/Linux/target/STM32MP1-DK2/buildroot/buildroot/output/build/optee-os-custom/lib/libutils/ext/snprintk.c:281
     f0a:	9b0b      	ldr	r3, [sp, #44]	; 0x2c
     f0c:	3301      	adds	r3, #1
     f0e:	930b      	str	r3, [sp, #44]	; 0x2c
     f10:	e7d4      	b.n	ebc <kprintf.constprop.0+0x34>
/home/aom1/Work/Linux/target/STM32MP1-DK2/buildroot/buildroot/output/build/optee-os-custom/lib/libutils/ext/snprintk.c:288
     f12:	980b      	ldr	r0, [sp, #44]	; 0x2c
/home/aom1/Work/Linux/target/STM32MP1-DK2/buildroot/buildroot/output/build/optee-os-custom/lib/libutils/ext/snprintk.c:294
     f14:	f04f 0900 	mov.w	r9, #0
/home/aom1/Work/Linux/target/STM32MP1-DK2/buildroot/buildroot/output/build/optee-os-custom/lib/libutils/ext/snprintk.c:292
     f18:	f8cd 903c 	str.w	r9, [sp, #60]	; 0x3c
/home/aom1/Work/Linux/target/STM32MP1-DK2/buildroot/buildroot/output/build/optee-os-custom/lib/libutils/ext/snprintk.c:288
     f1c:	463b      	mov	r3, r7
     f1e:	3001      	adds	r0, #1
/home/aom1/Work/Linux/target/STM32MP1-DK2/buildroot/buildroot/output/build/optee-os-custom/lib/libutils/ext/snprintk.c:293
     f20:	f04f 3bff 	mov.w	fp, #4294967295	; 0xffffffff
/home/aom1/Work/Linux/target/STM32MP1-DK2/buildroot/buildroot/output/build/optee-os-custom/lib/libutils/ext/snprintk.c:290
     f24:	464d      	mov	r5, r9
/home/aom1/Work/Linux/target/STM32MP1-DK2/buildroot/buildroot/output/build/optee-os-custom/lib/libutils/ext/snprintk.c:296
     f26:	4602      	mov	r2, r0
     f28:	f812 1b01 	ldrb.w	r1, [r2], #1
     f2c:	910c      	str	r1, [sp, #48]	; 0x30
     f2e:	920b      	str	r2, [sp, #44]	; 0x2c
/home/aom1/Work/Linux/target/STM32MP1-DK2/buildroot/buildroot/output/build/optee-os-custom/lib/libutils/ext/snprintk.c:297
     f30:	9a0c      	ldr	r2, [sp, #48]	; 0x30
     f32:	2a39      	cmp	r2, #57	; 0x39
     f34:	dc65      	bgt.n	1002 <kprintf.constprop.0+0x17a>
     f36:	2a1f      	cmp	r2, #31
     f38:	f340 82c8 	ble.w	14cc <kprintf.constprop.0+0x644>
     f3c:	9a0c      	ldr	r2, [sp, #48]	; 0x30
     f3e:	3a20      	subs	r2, #32
     f40:	2a19      	cmp	r2, #25
     f42:	d862      	bhi.n	100a <kprintf.constprop.0+0x182>
     f44:	e8df f002 	tbb	[pc, r2]
     f48:	6c616166 	.word	0x6c616166
     f4c:	61616161 	.word	0x61616161
     f50:	0d6f6161 	.word	0x0d6f6161
     f54:	61797661 	.word	0x61797661
     f58:	97979794 	.word	0x97979794
     f5c:	97979797 	.word	0x97979797
     f60:	9797      	.short	0x9797
/home/aom1/Work/Linux/target/STM32MP1-DK2/buildroot/buildroot/output/build/optee-os-custom/lib/libutils/ext/snprintk.c:325
     f62:	f04f 092b 	mov.w	r9, #43	; 0x2b
/home/aom1/Work/Linux/target/STM32MP1-DK2/buildroot/buildroot/output/build/optee-os-custom/lib/libutils/ext/snprintk.c:317
     f66:	980b      	ldr	r0, [sp, #44]	; 0x2c
     f68:	e7dd      	b.n	f26 <kprintf.constprop.0+0x9e>
/home/aom1/Work/Linux/target/STM32MP1-DK2/buildroot/buildroot/output/build/optee-os-custom/lib/libutils/ext/snprintk.c:297
     f6a:	2a36      	cmp	r2, #54	; 0x36
     f6c:	d84d      	bhi.n	100a <kprintf.constprop.0+0x182>
     f6e:	e8df f012 	tbh	[pc, r2, lsl #1]
     f72:	00b8      	.short	0x00b8
     f74:	004c004c 	.word	0x004c004c
     f78:	004c004c 	.word	0x004c004c
     f7c:	004c004c 	.word	0x004c004c
     f80:	004c004c 	.word	0x004c004c
     f84:	004c004c 	.word	0x004c004c
     f88:	004c017b 	.word	0x004c017b
     f8c:	004c004c 	.word	0x004c004c
     f90:	004c004c 	.word	0x004c004c
     f94:	004c0224 	.word	0x004c0224
     f98:	025e004c 	.word	0x025e004c
     f9c:	004c004c 	.word	0x004c004c
     fa0:	004c004c 	.word	0x004c004c
     fa4:	004c004c 	.word	0x004c004c
     fa8:	004c004c 	.word	0x004c004c
     fac:	004c004c 	.word	0x004c004c
     fb0:	00ba00ac 	.word	0x00ba00ac
     fb4:	004c004c 	.word	0x004c004c
     fb8:	0093004c 	.word	0x0093004c
     fbc:	009600ba 	.word	0x009600ba
     fc0:	0099004c 	.word	0x0099004c
     fc4:	015e004c 	.word	0x015e004c
     fc8:	01b7017d 	.word	0x01b7017d
     fcc:	004c00a0 	.word	0x004c00a0
     fd0:	00a60206 	.word	0x00a60206
     fd4:	004c0226 	.word	0x004c0226
     fd8:	0037004c 	.word	0x0037004c
     fdc:	00a9004c 	.word	0x00a9004c
/home/aom1/Work/Linux/target/STM32MP1-DK2/buildroot/buildroot/output/build/optee-os-custom/lib/libutils/ext/snprintk.c:480
     fe0:	f8df 25b4 	ldr.w	r2, [pc, #1460]	; 1598 <kprintf.constprop.0+0x710>
     fe4:	447a      	add	r2, pc
     fe6:	3211      	adds	r2, #17
/home/aom1/Work/Linux/target/STM32MP1-DK2/buildroot/buildroot/output/build/optee-os-custom/lib/libutils/ext/snprintk.c:477
     fe8:	9211      	str	r2, [sp, #68]	; 0x44
/home/aom1/Work/Linux/target/STM32MP1-DK2/buildroot/buildroot/output/build/optee-os-custom/lib/libutils/ext/snprintk.c:481
     fea:	f015 0180 	ands.w	r1, r5, #128	; 0x80
     fee:	f000 8221 	beq.w	1434 <kprintf.constprop.0+0x5ac>
     ff2:	3307      	adds	r3, #7
     ff4:	f023 0307 	bic.w	r3, r3, #7
     ff8:	461f      	mov	r7, r3
     ffa:	685e      	ldr	r6, [r3, #4]
     ffc:	f857 4b08 	ldr.w	r4, [r7], #8
    1000:	e225      	b.n	144e <kprintf.constprop.0+0x5c6>
/home/aom1/Work/Linux/target/STM32MP1-DK2/buildroot/buildroot/output/build/optee-os-custom/lib/libutils/ext/snprintk.c:297
    1002:	9a0c      	ldr	r2, [sp, #48]	; 0x30
    1004:	3a44      	subs	r2, #68	; 0x44
    1006:	2a36      	cmp	r2, #54	; 0x36
    1008:	d9af      	bls.n	f6a <kprintf.constprop.0+0xe2>
/home/aom1/Work/Linux/target/STM32MP1-DK2/buildroot/buildroot/output/build/optee-os-custom/lib/libutils/ext/snprintk.c:551
    100a:	9a0c      	ldr	r2, [sp, #48]	; 0x30
/home/aom1/Work/Linux/target/STM32MP1-DK2/buildroot/buildroot/output/build/optee-os-custom/lib/libutils/ext/snprintk.c:554
    100c:	461f      	mov	r7, r3
/home/aom1/Work/Linux/target/STM32MP1-DK2/buildroot/buildroot/output/build/optee-os-custom/lib/libutils/ext/snprintk.c:551
    100e:	f88d 2054 	strb.w	r2, [sp, #84]	; 0x54
/home/aom1/Work/Linux/target/STM32MP1-DK2/buildroot/buildroot/output/build/optee-os-custom/lib/libutils/ext/snprintk.c:554
    1012:	e05f      	b.n	10d4 <kprintf.constprop.0+0x24c>
/home/aom1/Work/Linux/target/STM32MP1-DK2/buildroot/buildroot/output/build/optee-os-custom/lib/libutils/ext/snprintk.c:305
    1014:	f1b9 0f00 	cmp.w	r9, #0
    1018:	bf08      	it	eq
    101a:	f04f 0920 	moveq.w	r9, #32
    101e:	e7a2      	b.n	f66 <kprintf.constprop.0+0xde>
/home/aom1/Work/Linux/target/STM32MP1-DK2/buildroot/buildroot/output/build/optee-os-custom/lib/libutils/ext/snprintk.c:308
    1020:	f045 0501 	orr.w	r5, r5, #1
/home/aom1/Work/Linux/target/STM32MP1-DK2/buildroot/buildroot/output/build/optee-os-custom/lib/libutils/ext/snprintk.c:309
    1024:	e79f      	b.n	f66 <kprintf.constprop.0+0xde>
/home/aom1/Work/Linux/target/STM32MP1-DK2/buildroot/buildroot/output/build/optee-os-custom/lib/libutils/ext/snprintk.c:317
    1026:	f853 2b04 	ldr.w	r2, [r3], #4
    102a:	920f      	str	r2, [sp, #60]	; 0x3c
    102c:	2a00      	cmp	r2, #0
    102e:	da9a      	bge.n	f66 <kprintf.constprop.0+0xde>
/home/aom1/Work/Linux/target/STM32MP1-DK2/buildroot/buildroot/output/build/optee-os-custom/lib/libutils/ext/snprintk.c:319
    1030:	4252      	negs	r2, r2
    1032:	920f      	str	r2, [sp, #60]	; 0x3c
/home/aom1/Work/Linux/target/STM32MP1-DK2/buildroot/buildroot/output/build/optee-os-custom/lib/libutils/ext/snprintk.c:322
    1034:	f045 0504 	orr.w	r5, r5, #4
/home/aom1/Work/Linux/target/STM32MP1-DK2/buildroot/buildroot/output/build/optee-os-custom/lib/libutils/ext/snprintk.c:323
    1038:	e795      	b.n	f66 <kprintf.constprop.0+0xde>
/home/aom1/Work/Linux/target/STM32MP1-DK2/buildroot/buildroot/output/build/optee-os-custom/lib/libutils/ext/snprintk.c:328
    103a:	980b      	ldr	r0, [sp, #44]	; 0x2c
    103c:	f810 2b01 	ldrb.w	r2, [r0], #1
    1040:	920c      	str	r2, [sp, #48]	; 0x30
    1042:	2a2a      	cmp	r2, #42	; 0x2a
    1044:	d111      	bne.n	106a <kprintf.constprop.0+0x1e2>
/home/aom1/Work/Linux/target/STM32MP1-DK2/buildroot/buildroot/output/build/optee-os-custom/lib/libutils/ext/snprintk.c:330
    1046:	f853 2b04 	ldr.w	r2, [r3], #4
/home/aom1/Work/Linux/target/STM32MP1-DK2/buildroot/buildroot/output/build/optee-os-custom/lib/libutils/ext/snprintk.c:328
    104a:	900b      	str	r0, [sp, #44]	; 0x2c
/home/aom1/Work/Linux/target/STM32MP1-DK2/buildroot/buildroot/output/build/optee-os-custom/lib/libutils/ext/snprintk.c:330
    104c:	ea42 7be2 	orr.w	fp, r2, r2, asr #31
/home/aom1/Work/Linux/target/STM32MP1-DK2/buildroot/buildroot/output/build/optee-os-custom/lib/libutils/ext/snprintk.c:331
    1050:	e789      	b.n	f66 <kprintf.constprop.0+0xde>
/home/aom1/Work/Linux/target/STM32MP1-DK2/buildroot/buildroot/output/build/optee-os-custom/lib/libutils/ext/snprintk.c:335
    1052:	210a      	movs	r1, #10
    1054:	fb01 2b0b 	mla	fp, r1, fp, r2
/home/aom1/Work/Linux/target/STM32MP1-DK2/buildroot/buildroot/output/build/optee-os-custom/lib/libutils/ext/snprintk.c:336
    1058:	f810 2b01 	ldrb.w	r2, [r0], #1
    105c:	920c      	str	r2, [sp, #48]	; 0x30
/home/aom1/Work/Linux/target/STM32MP1-DK2/buildroot/buildroot/output/build/optee-os-custom/lib/libutils/ext/snprintk.c:334
    105e:	9a0c      	ldr	r2, [sp, #48]	; 0x30
    1060:	3a30      	subs	r2, #48	; 0x30
    1062:	2a09      	cmp	r2, #9
    1064:	d9f5      	bls.n	1052 <kprintf.constprop.0+0x1ca>
/home/aom1/Work/Linux/target/STM32MP1-DK2/buildroot/buildroot/output/build/optee-os-custom/lib/libutils/ext/snprintk.c:290
    1066:	900b      	str	r0, [sp, #44]	; 0x2c
    1068:	e762      	b.n	f30 <kprintf.constprop.0+0xa8>
/home/aom1/Work/Linux/target/STM32MP1-DK2/buildroot/buildroot/output/build/optee-os-custom/lib/libutils/ext/snprintk.c:333
    106a:	f04f 0b00 	mov.w	fp, #0
    106e:	e7f6      	b.n	105e <kprintf.constprop.0+0x1d6>
/home/aom1/Work/Linux/target/STM32MP1-DK2/buildroot/buildroot/output/build/optee-os-custom/lib/libutils/ext/snprintk.c:346
    1070:	f445 6580 	orr.w	r5, r5, #1024	; 0x400
/home/aom1/Work/Linux/target/STM32MP1-DK2/buildroot/buildroot/output/build/optee-os-custom/lib/libutils/ext/snprintk.c:347
    1074:	e777      	b.n	f66 <kprintf.constprop.0+0xde>
/home/aom1/Work/Linux/target/STM32MP1-DK2/buildroot/buildroot/output/build/optee-os-custom/lib/libutils/ext/snprintk.c:297
    1076:	980b      	ldr	r0, [sp, #44]	; 0x2c
    1078:	2200      	movs	r2, #0
    107a:	920f      	str	r2, [sp, #60]	; 0x3c
/home/aom1/Work/Linux/target/STM32MP1-DK2/buildroot/buildroot/output/build/optee-os-custom/lib/libutils/ext/snprintk.c:352
    107c:	9a0c      	ldr	r2, [sp, #48]	; 0x30
    107e:	240a      	movs	r4, #10
    1080:	990f      	ldr	r1, [sp, #60]	; 0x3c
    1082:	3a30      	subs	r2, #48	; 0x30
    1084:	fb04 2201 	mla	r2, r4, r1, r2
    1088:	920f      	str	r2, [sp, #60]	; 0x3c
/home/aom1/Work/Linux/target/STM32MP1-DK2/buildroot/buildroot/output/build/optee-os-custom/lib/libutils/ext/snprintk.c:353
    108a:	f810 2b01 	ldrb.w	r2, [r0], #1
    108e:	920c      	str	r2, [sp, #48]	; 0x30
/home/aom1/Work/Linux/target/STM32MP1-DK2/buildroot/buildroot/output/build/optee-os-custom/lib/libutils/ext/snprintk.c:354
    1090:	3a30      	subs	r2, #48	; 0x30
    1092:	2a09      	cmp	r2, #9
    1094:	d9f2      	bls.n	107c <kprintf.constprop.0+0x1f4>
    1096:	e7e6      	b.n	1066 <kprintf.constprop.0+0x1de>
/home/aom1/Work/Linux/target/STM32MP1-DK2/buildroot/buildroot/output/build/optee-os-custom/lib/libutils/ext/snprintk.c:358
    1098:	f045 0540 	orr.w	r5, r5, #64	; 0x40
/home/aom1/Work/Linux/target/STM32MP1-DK2/buildroot/buildroot/output/build/optee-os-custom/lib/libutils/ext/snprintk.c:359
    109c:	e763      	b.n	f66 <kprintf.constprop.0+0xde>
/home/aom1/Work/Linux/target/STM32MP1-DK2/buildroot/buildroot/output/build/optee-os-custom/lib/libutils/ext/snprintk.c:361
    109e:	f045 0580 	orr.w	r5, r5, #128	; 0x80
/home/aom1/Work/Linux/target/STM32MP1-DK2/buildroot/buildroot/output/build/optee-os-custom/lib/libutils/ext/snprintk.c:362
    10a2:	e760      	b.n	f66 <kprintf.constprop.0+0xde>
/home/aom1/Work/Linux/target/STM32MP1-DK2/buildroot/buildroot/output/build/optee-os-custom/lib/libutils/ext/snprintk.c:364
    10a4:	9a0b      	ldr	r2, [sp, #44]	; 0x2c
    10a6:	7812      	ldrb	r2, [r2, #0]
    10a8:	2a6c      	cmp	r2, #108	; 0x6c
    10aa:	d105      	bne.n	10b8 <kprintf.constprop.0+0x230>
/home/aom1/Work/Linux/target/STM32MP1-DK2/buildroot/buildroot/output/build/optee-os-custom/lib/libutils/ext/snprintk.c:328
    10ac:	9a0b      	ldr	r2, [sp, #44]	; 0x2c
    10ae:	3201      	adds	r2, #1
    10b0:	920b      	str	r2, [sp, #44]	; 0x2c
/home/aom1/Work/Linux/target/STM32MP1-DK2/buildroot/buildroot/output/build/optee-os-custom/lib/libutils/ext/snprintk.c:372
    10b2:	f045 0520 	orr.w	r5, r5, #32
/home/aom1/Work/Linux/target/STM32MP1-DK2/buildroot/buildroot/output/build/optee-os-custom/lib/libutils/ext/snprintk.c:373
    10b6:	e756      	b.n	f66 <kprintf.constprop.0+0xde>
/home/aom1/Work/Linux/target/STM32MP1-DK2/buildroot/buildroot/output/build/optee-os-custom/lib/libutils/ext/snprintk.c:368
    10b8:	f045 0510 	orr.w	r5, r5, #16
    10bc:	e753      	b.n	f66 <kprintf.constprop.0+0xde>
/home/aom1/Work/Linux/target/STM32MP1-DK2/buildroot/buildroot/output/build/optee-os-custom/lib/libutils/ext/snprintk.c:375
    10be:	f445 7580 	orr.w	r5, r5, #256	; 0x100
/home/aom1/Work/Linux/target/STM32MP1-DK2/buildroot/buildroot/output/build/optee-os-custom/lib/libutils/ext/snprintk.c:376
    10c2:	e750      	b.n	f66 <kprintf.constprop.0+0xde>
/home/aom1/Work/Linux/target/STM32MP1-DK2/buildroot/buildroot/output/build/optee-os-custom/lib/libutils/ext/snprintk.c:378
    10c4:	f445 7500 	orr.w	r5, r5, #512	; 0x200
/home/aom1/Work/Linux/target/STM32MP1-DK2/buildroot/buildroot/output/build/optee-os-custom/lib/libutils/ext/snprintk.c:379
    10c8:	e74d      	b.n	f66 <kprintf.constprop.0+0xde>
/home/aom1/Work/Linux/target/STM32MP1-DK2/buildroot/buildroot/output/build/optee-os-custom/lib/libutils/ext/snprintk.c:381
    10ca:	461f      	mov	r7, r3
    10cc:	f857 3b04 	ldr.w	r3, [r7], #4
    10d0:	f88d 3054 	strb.w	r3, [sp, #84]	; 0x54
/home/aom1/Work/Linux/target/STM32MP1-DK2/buildroot/buildroot/output/build/optee-os-custom/lib/libutils/ext/snprintk.c:291
    10d4:	2000      	movs	r0, #0
/home/aom1/Work/Linux/target/STM32MP1-DK2/buildroot/buildroot/output/build/optee-os-custom/lib/libutils/ext/snprintk.c:552
    10d6:	f04f 0b01 	mov.w	fp, #1
/home/aom1/Work/Linux/target/STM32MP1-DK2/buildroot/buildroot/output/build/optee-os-custom/lib/libutils/ext/snprintk.c:553
    10da:	4681      	mov	r9, r0
/home/aom1/Work/Linux/target/STM32MP1-DK2/buildroot/buildroot/output/build/optee-os-custom/lib/libutils/ext/snprintk.c:550
    10dc:	f10d 0a54 	add.w	sl, sp, #84	; 0x54
/home/aom1/Work/Linux/target/STM32MP1-DK2/buildroot/buildroot/output/build/optee-os-custom/lib/libutils/ext/snprintk.c:554
    10e0:	e03c      	b.n	115c <kprintf.constprop.0+0x2d4>
/home/aom1/Work/Linux/target/STM32MP1-DK2/buildroot/buildroot/output/build/optee-os-custom/lib/libutils/ext/snprintk.c:386
    10e2:	f045 0510 	orr.w	r5, r5, #16
/home/aom1/Work/Linux/target/STM32MP1-DK2/buildroot/buildroot/output/build/optee-os-custom/lib/libutils/ext/snprintk.c:390
    10e6:	062c      	lsls	r4, r5, #24
    10e8:	f140 8088 	bpl.w	11fc <kprintf.constprop.0+0x374>
    10ec:	3307      	adds	r3, #7
    10ee:	f023 0307 	bic.w	r3, r3, #7
    10f2:	461f      	mov	r7, r3
    10f4:	685e      	ldr	r6, [r3, #4]
    10f6:	f857 4b08 	ldr.w	r4, [r7], #8
/home/aom1/Work/Linux/target/STM32MP1-DK2/buildroot/buildroot/output/build/optee-os-custom/lib/libutils/ext/snprintk.c:391
    10fa:	2e00      	cmp	r6, #0
    10fc:	f280 816b 	bge.w	13d6 <kprintf.constprop.0+0x54e>
/home/aom1/Work/Linux/target/STM32MP1-DK2/buildroot/buildroot/output/build/optee-os-custom/lib/libutils/ext/snprintk.c:392
    1100:	4264      	negs	r4, r4
/home/aom1/Work/Linux/target/STM32MP1-DK2/buildroot/buildroot/output/build/optee-os-custom/lib/libutils/ext/snprintk.c:395
    1102:	f04f 0301 	mov.w	r3, #1
/home/aom1/Work/Linux/target/STM32MP1-DK2/buildroot/buildroot/output/build/optee-os-custom/lib/libutils/ext/snprintk.c:392
    1106:	eb66 0646 	sbc.w	r6, r6, r6, lsl #1
/home/aom1/Work/Linux/target/STM32MP1-DK2/buildroot/buildroot/output/build/optee-os-custom/lib/libutils/ext/snprintk.c:393
    110a:	f04f 092d 	mov.w	r9, #45	; 0x2d
/home/aom1/Work/Linux/target/STM32MP1-DK2/buildroot/buildroot/output/build/optee-os-custom/lib/libutils/ext/snprintk.c:494
    110e:	f1bb 3fff 	cmp.w	fp, #4294967295	; 0xffffffff
    1112:	f040 80ca 	bne.w	12aa <kprintf.constprop.0+0x422>
/home/aom1/Work/Linux/target/STM32MP1-DK2/buildroot/buildroot/output/build/optee-os-custom/lib/libutils/ext/snprintk.c:509
    1116:	2b01      	cmp	r3, #1
    1118:	f000 8160 	beq.w	13dc <kprintf.constprop.0+0x554>
    111c:	2b02      	cmp	r3, #2
    111e:	f000 811e 	beq.w	135e <kprintf.constprop.0+0x4d6>
/home/aom1/Work/Linux/target/STM32MP1-DK2/buildroot/buildroot/output/build/optee-os-custom/lib/libutils/ext/snprintk.c:494
    1122:	f10d 0a79 	add.w	sl, sp, #121	; 0x79
/home/aom1/Work/Linux/target/STM32MP1-DK2/buildroot/buildroot/output/build/optee-os-custom/lib/libutils/ext/snprintk.c:512
    1126:	f004 0307 	and.w	r3, r4, #7
    112a:	4652      	mov	r2, sl
/home/aom1/Work/Linux/target/STM32MP1-DK2/buildroot/buildroot/output/build/optee-os-custom/lib/libutils/ext/snprintk.c:513
    112c:	08e4      	lsrs	r4, r4, #3
/home/aom1/Work/Linux/target/STM32MP1-DK2/buildroot/buildroot/output/build/optee-os-custom/lib/libutils/ext/snprintk.c:512
    112e:	3330      	adds	r3, #48	; 0x30
/home/aom1/Work/Linux/target/STM32MP1-DK2/buildroot/buildroot/output/build/optee-os-custom/lib/libutils/ext/snprintk.c:513
    1130:	ea44 7446 	orr.w	r4, r4, r6, lsl #29
    1134:	08f6      	lsrs	r6, r6, #3
/home/aom1/Work/Linux/target/STM32MP1-DK2/buildroot/buildroot/output/build/optee-os-custom/lib/libutils/ext/snprintk.c:514
    1136:	ea54 0106 	orrs.w	r1, r4, r6
/home/aom1/Work/Linux/target/STM32MP1-DK2/buildroot/buildroot/output/build/optee-os-custom/lib/libutils/ext/snprintk.c:512
    113a:	f80a 3d01 	strb.w	r3, [sl, #-1]!
/home/aom1/Work/Linux/target/STM32MP1-DK2/buildroot/buildroot/output/build/optee-os-custom/lib/libutils/ext/snprintk.c:514
    113e:	d1f2      	bne.n	1126 <kprintf.constprop.0+0x29e>
/home/aom1/Work/Linux/target/STM32MP1-DK2/buildroot/buildroot/output/build/optee-os-custom/lib/libutils/ext/snprintk.c:516
    1140:	07ee      	lsls	r6, r5, #31
    1142:	d506      	bpl.n	1152 <kprintf.constprop.0+0x2ca>
    1144:	2b30      	cmp	r3, #48	; 0x30
    1146:	d004      	beq.n	1152 <kprintf.constprop.0+0x2ca>
/home/aom1/Work/Linux/target/STM32MP1-DK2/buildroot/buildroot/output/build/optee-os-custom/lib/libutils/ext/snprintk.c:517
    1148:	2330      	movs	r3, #48	; 0x30
    114a:	f80a 3c01 	strb.w	r3, [sl, #-1]
    114e:	f1a2 0a02 	sub.w	sl, r2, #2
/home/aom1/Work/Linux/target/STM32MP1-DK2/buildroot/buildroot/output/build/optee-os-custom/lib/libutils/ext/snprintk.c:543
    1152:	f10d 0379 	add.w	r3, sp, #121	; 0x79
    1156:	4658      	mov	r0, fp
    1158:	eba3 0b0a 	sub.w	fp, r3, sl
/home/aom1/Work/Linux/target/STM32MP1-DK2/buildroot/buildroot/output/build/optee-os-custom/lib/libutils/ext/snprintk.c:571
    115c:	4558      	cmp	r0, fp
    115e:	4603      	mov	r3, r0
    1160:	bfb8      	it	lt
    1162:	465b      	movlt	r3, fp
/home/aom1/Work/Linux/target/STM32MP1-DK2/buildroot/buildroot/output/build/optee-os-custom/lib/libutils/ext/snprintk.c:572
    1164:	f1b9 0f00 	cmp.w	r9, #0
    1168:	f000 81b5 	beq.w	14d6 <kprintf.constprop.0+0x64e>
/home/aom1/Work/Linux/target/STM32MP1-DK2/buildroot/buildroot/output/build/optee-os-custom/lib/libutils/ext/snprintk.c:573
    116c:	3301      	adds	r3, #1
/home/aom1/Work/Linux/target/STM32MP1-DK2/buildroot/buildroot/output/build/optee-os-custom/lib/libutils/ext/snprintk.c:578
    116e:	9a0d      	ldr	r2, [sp, #52]	; 0x34
    1170:	990f      	ldr	r1, [sp, #60]	; 0x3c
    1172:	428b      	cmp	r3, r1
    1174:	bfac      	ite	ge
    1176:	18d2      	addge	r2, r2, r3
    1178:	1852      	addlt	r2, r2, r1
    117a:	920d      	str	r2, [sp, #52]	; 0x34
/home/aom1/Work/Linux/target/STM32MP1-DK2/buildroot/buildroot/output/build/optee-os-custom/lib/libutils/ext/snprintk.c:581
    117c:	f240 4204 	movw	r2, #1028	; 0x404
    1180:	402a      	ands	r2, r5
    1182:	d104      	bne.n	118e <kprintf.constprop.0+0x306>
/home/aom1/Work/Linux/target/STM32MP1-DK2/buildroot/buildroot/output/build/optee-os-custom/lib/libutils/ext/snprintk.c:582
    1184:	1ac9      	subs	r1, r1, r3
/home/aom1/Work/Linux/target/STM32MP1-DK2/buildroot/buildroot/output/build/optee-os-custom/lib/libutils/ext/snprintk.c:584
    1186:	2420      	movs	r4, #32
/home/aom1/Work/Linux/target/STM32MP1-DK2/buildroot/buildroot/output/build/optee-os-custom/lib/libutils/ext/snprintk.c:583
    1188:	2900      	cmp	r1, #0
    118a:	f300 81a8 	bgt.w	14de <kprintf.constprop.0+0x656>
/home/aom1/Work/Linux/target/STM32MP1-DK2/buildroot/buildroot/output/build/optee-os-custom/lib/libutils/ext/snprintk.c:588
    118e:	f1b9 0f00 	cmp.w	r9, #0
    1192:	f000 81b0 	beq.w	14f6 <kprintf.constprop.0+0x66e>
/home/aom1/Work/Linux/target/STM32MP1-DK2/buildroot/buildroot/output/build/optee-os-custom/lib/libutils/ext/snprintk.c:589
    1196:	f1b8 0f00 	cmp.w	r8, #0
    119a:	d006      	beq.n	11aa <kprintf.constprop.0+0x322>
    119c:	990e      	ldr	r1, [sp, #56]	; 0x38
    119e:	b111      	cbz	r1, 11a6 <kprintf.constprop.0+0x31e>
    11a0:	9910      	ldr	r1, [sp, #64]	; 0x40
    11a2:	4541      	cmp	r1, r8
    11a4:	d901      	bls.n	11aa <kprintf.constprop.0+0x322>
    11a6:	f808 9b01 	strb.w	r9, [r8], #1
/home/aom1/Work/Linux/target/STM32MP1-DK2/buildroot/buildroot/output/build/optee-os-custom/lib/libutils/ext/snprintk.c:596
    11aa:	f5b2 6f80 	cmp.w	r2, #1024	; 0x400
    11ae:	d105      	bne.n	11bc <kprintf.constprop.0+0x334>
/home/aom1/Work/Linux/target/STM32MP1-DK2/buildroot/buildroot/output/build/optee-os-custom/lib/libutils/ext/snprintk.c:597
    11b0:	9a0f      	ldr	r2, [sp, #60]	; 0x3c
    11b2:	1ad1      	subs	r1, r2, r3
/home/aom1/Work/Linux/target/STM32MP1-DK2/buildroot/buildroot/output/build/optee-os-custom/lib/libutils/ext/snprintk.c:599
    11b4:	2230      	movs	r2, #48	; 0x30
/home/aom1/Work/Linux/target/STM32MP1-DK2/buildroot/buildroot/output/build/optee-os-custom/lib/libutils/ext/snprintk.c:598
    11b6:	2900      	cmp	r1, #0
    11b8:	f300 81bc 	bgt.w	1534 <kprintf.constprop.0+0x6ac>
/home/aom1/Work/Linux/target/STM32MP1-DK2/buildroot/buildroot/output/build/optee-os-custom/lib/libutils/ext/snprintk.c:603
    11bc:	eba0 000b 	sub.w	r0, r0, fp
/home/aom1/Work/Linux/target/STM32MP1-DK2/buildroot/buildroot/output/build/optee-os-custom/lib/libutils/ext/snprintk.c:605
    11c0:	2230      	movs	r2, #48	; 0x30
/home/aom1/Work/Linux/target/STM32MP1-DK2/buildroot/buildroot/output/build/optee-os-custom/lib/libutils/ext/snprintk.c:604
    11c2:	2800      	cmp	r0, #0
    11c4:	f300 81c2 	bgt.w	154c <kprintf.constprop.0+0x6c4>
    11c8:	eb0a 000b 	add.w	r0, sl, fp
/home/aom1/Work/Linux/target/STM32MP1-DK2/buildroot/buildroot/output/build/optee-os-custom/lib/libutils/ext/snprintk.c:608
    11cc:	4582      	cmp	sl, r0
    11ce:	f040 81c9 	bne.w	1564 <kprintf.constprop.0+0x6dc>
/home/aom1/Work/Linux/target/STM32MP1-DK2/buildroot/buildroot/output/build/optee-os-custom/lib/libutils/ext/snprintk.c:611
    11d2:	076a      	lsls	r2, r5, #29
    11d4:	f57f ae72 	bpl.w	ebc <kprintf.constprop.0+0x34>
/home/aom1/Work/Linux/target/STM32MP1-DK2/buildroot/buildroot/output/build/optee-os-custom/lib/libutils/ext/snprintk.c:612
    11d8:	9a0f      	ldr	r2, [sp, #60]	; 0x3c
    11da:	1ad3      	subs	r3, r2, r3
/home/aom1/Work/Linux/target/STM32MP1-DK2/buildroot/buildroot/output/build/optee-os-custom/lib/libutils/ext/snprintk.c:614
    11dc:	2220      	movs	r2, #32
/home/aom1/Work/Linux/target/STM32MP1-DK2/buildroot/buildroot/output/build/optee-os-custom/lib/libutils/ext/snprintk.c:613
    11de:	2b00      	cmp	r3, #0
    11e0:	f77f ae6c 	ble.w	ebc <kprintf.constprop.0+0x34>
/home/aom1/Work/Linux/target/STM32MP1-DK2/buildroot/buildroot/output/build/optee-os-custom/lib/libutils/ext/snprintk.c:614
    11e4:	f1b8 0f00 	cmp.w	r8, #0
    11e8:	d006      	beq.n	11f8 <kprintf.constprop.0+0x370>
    11ea:	990e      	ldr	r1, [sp, #56]	; 0x38
    11ec:	b111      	cbz	r1, 11f4 <kprintf.constprop.0+0x36c>
    11ee:	9910      	ldr	r1, [sp, #64]	; 0x40
    11f0:	4541      	cmp	r1, r8
    11f2:	d901      	bls.n	11f8 <kprintf.constprop.0+0x370>
    11f4:	f808 2b01 	strb.w	r2, [r8], #1
    11f8:	3b01      	subs	r3, #1
    11fa:	e7f0      	b.n	11de <kprintf.constprop.0+0x356>
/home/aom1/Work/Linux/target/STM32MP1-DK2/buildroot/buildroot/output/build/optee-os-custom/lib/libutils/ext/snprintk.c:390
    11fc:	05e8      	lsls	r0, r5, #23
    11fe:	d504      	bpl.n	120a <kprintf.constprop.0+0x382>
    1200:	461f      	mov	r7, r3
    1202:	f857 4b04 	ldr.w	r4, [r7], #4
    1206:	17e6      	asrs	r6, r4, #31
    1208:	e777      	b.n	10fa <kprintf.constprop.0+0x272>
    120a:	05a9      	lsls	r1, r5, #22
    120c:	d4f8      	bmi.n	1200 <kprintf.constprop.0+0x378>
    120e:	06aa      	lsls	r2, r5, #26
    1210:	f53f af6c 	bmi.w	10ec <kprintf.constprop.0+0x264>
/home/aom1/Work/Linux/target/STM32MP1-DK2/buildroot/buildroot/output/build/optee-os-custom/lib/libutils/ext/snprintk.c:317
    1214:	461f      	mov	r7, r3
/home/aom1/Work/Linux/target/STM32MP1-DK2/buildroot/buildroot/output/build/optee-os-custom/lib/libutils/ext/snprintk.c:390
    1216:	06eb      	lsls	r3, r5, #27
/home/aom1/Work/Linux/target/STM32MP1-DK2/buildroot/buildroot/output/build/optee-os-custom/lib/libutils/ext/snprintk.c:317
    1218:	f857 6b04 	ldr.w	r6, [r7], #4
/home/aom1/Work/Linux/target/STM32MP1-DK2/buildroot/buildroot/output/build/optee-os-custom/lib/libutils/ext/snprintk.c:390
    121c:	d501      	bpl.n	1222 <kprintf.constprop.0+0x39a>
    121e:	4634      	mov	r4, r6
    1220:	e7f1      	b.n	1206 <kprintf.constprop.0+0x37e>
    1222:	066c      	lsls	r4, r5, #25
    1224:	d5fb      	bpl.n	121e <kprintf.constprop.0+0x396>
    1226:	b234      	sxth	r4, r6
    1228:	f346 36c0 	sbfx	r6, r6, #15, #1
    122c:	e765      	b.n	10fa <kprintf.constprop.0+0x272>
/home/aom1/Work/Linux/target/STM32MP1-DK2/buildroot/buildroot/output/build/optee-os-custom/lib/libutils/ext/snprintk.c:398
    122e:	0628      	lsls	r0, r5, #24
/home/aom1/Work/Linux/target/STM32MP1-DK2/buildroot/buildroot/output/build/optee-os-custom/lib/libutils/ext/snprintk.c:317
    1230:	f103 0704 	add.w	r7, r3, #4
/home/aom1/Work/Linux/target/STM32MP1-DK2/buildroot/buildroot/output/build/optee-os-custom/lib/libutils/ext/snprintk.c:398
    1234:	d506      	bpl.n	1244 <kprintf.constprop.0+0x3bc>
/home/aom1/Work/Linux/target/STM32MP1-DK2/buildroot/buildroot/output/build/optee-os-custom/lib/libutils/ext/snprintk.c:405
    1236:	9a0d      	ldr	r2, [sp, #52]	; 0x34
    1238:	681b      	ldr	r3, [r3, #0]
    123a:	990d      	ldr	r1, [sp, #52]	; 0x34
    123c:	17d2      	asrs	r2, r2, #31
    123e:	e9c3 1200 	strd	r1, r2, [r3]
    1242:	e63b      	b.n	ebc <kprintf.constprop.0+0x34>
/home/aom1/Work/Linux/target/STM32MP1-DK2/buildroot/buildroot/output/build/optee-os-custom/lib/libutils/ext/snprintk.c:400
    1244:	05e9      	lsls	r1, r5, #23
    1246:	d503      	bpl.n	1250 <kprintf.constprop.0+0x3c8>
/home/aom1/Work/Linux/target/STM32MP1-DK2/buildroot/buildroot/output/build/optee-os-custom/lib/libutils/ext/snprintk.c:411
    1248:	681b      	ldr	r3, [r3, #0]
    124a:	9a0d      	ldr	r2, [sp, #52]	; 0x34
    124c:	601a      	str	r2, [r3, #0]
    124e:	e635      	b.n	ebc <kprintf.constprop.0+0x34>
/home/aom1/Work/Linux/target/STM32MP1-DK2/buildroot/buildroot/output/build/optee-os-custom/lib/libutils/ext/snprintk.c:402
    1250:	05aa      	lsls	r2, r5, #22
    1252:	d4f9      	bmi.n	1248 <kprintf.constprop.0+0x3c0>
/home/aom1/Work/Linux/target/STM32MP1-DK2/buildroot/buildroot/output/build/optee-os-custom/lib/libutils/ext/snprintk.c:404
    1254:	06ae      	lsls	r6, r5, #26
    1256:	d4ee      	bmi.n	1236 <kprintf.constprop.0+0x3ae>
/home/aom1/Work/Linux/target/STM32MP1-DK2/buildroot/buildroot/output/build/optee-os-custom/lib/libutils/ext/snprintk.c:406
    1258:	06ec      	lsls	r4, r5, #27
    125a:	d4f5      	bmi.n	1248 <kprintf.constprop.0+0x3c0>
/home/aom1/Work/Linux/target/STM32MP1-DK2/buildroot/buildroot/output/build/optee-os-custom/lib/libutils/ext/snprintk.c:408
    125c:	0668      	lsls	r0, r5, #25
    125e:	d5f3      	bpl.n	1248 <kprintf.constprop.0+0x3c0>
/home/aom1/Work/Linux/target/STM32MP1-DK2/buildroot/buildroot/output/build/optee-os-custom/lib/libutils/ext/snprintk.c:409
    1260:	681b      	ldr	r3, [r3, #0]
    1262:	9a0d      	ldr	r2, [sp, #52]	; 0x34
    1264:	801a      	strh	r2, [r3, #0]
    1266:	e629      	b.n	ebc <kprintf.constprop.0+0x34>
/home/aom1/Work/Linux/target/STM32MP1-DK2/buildroot/buildroot/output/build/optee-os-custom/lib/libutils/ext/snprintk.c:414
    1268:	f045 0510 	orr.w	r5, r5, #16
/home/aom1/Work/Linux/target/STM32MP1-DK2/buildroot/buildroot/output/build/optee-os-custom/lib/libutils/ext/snprintk.c:417
    126c:	f015 0180 	ands.w	r1, r5, #128	; 0x80
    1270:	d007      	beq.n	1282 <kprintf.constprop.0+0x3fa>
    1272:	3307      	adds	r3, #7
    1274:	f023 0307 	bic.w	r3, r3, #7
    1278:	461f      	mov	r7, r3
    127a:	685e      	ldr	r6, [r3, #4]
    127c:	f857 4b08 	ldr.w	r4, [r7], #8
    1280:	e00c      	b.n	129c <kprintf.constprop.0+0x414>
    1282:	f415 7680 	ands.w	r6, r5, #256	; 0x100
    1286:	d004      	beq.n	1292 <kprintf.constprop.0+0x40a>
    1288:	461f      	mov	r7, r3
    128a:	f857 4b04 	ldr.w	r4, [r7], #4
    128e:	460e      	mov	r6, r1
    1290:	e004      	b.n	129c <kprintf.constprop.0+0x414>
    1292:	05a9      	lsls	r1, r5, #22
    1294:	d516      	bpl.n	12c4 <kprintf.constprop.0+0x43c>
    1296:	461f      	mov	r7, r3
    1298:	f857 4b04 	ldr.w	r4, [r7], #4
/home/aom1/Work/Linux/target/STM32MP1-DK2/buildroot/buildroot/output/build/optee-os-custom/lib/libutils/ext/snprintk.c:494
    129c:	f1bb 3fff 	cmp.w	fp, #4294967295	; 0xffffffff
    12a0:	f04f 0900 	mov.w	r9, #0
    12a4:	f43f af3d 	beq.w	1122 <kprintf.constprop.0+0x29a>
    12a8:	464b      	mov	r3, r9
/home/aom1/Work/Linux/target/STM32MP1-DK2/buildroot/buildroot/output/build/optee-os-custom/lib/libutils/ext/snprintk.c:503
    12aa:	ea54 0206 	orrs.w	r2, r4, r6
/home/aom1/Work/Linux/target/STM32MP1-DK2/buildroot/buildroot/output/build/optee-os-custom/lib/libutils/ext/snprintk.c:495
    12ae:	f425 6580 	bic.w	r5, r5, #1024	; 0x400
/home/aom1/Work/Linux/target/STM32MP1-DK2/buildroot/buildroot/output/build/optee-os-custom/lib/libutils/ext/snprintk.c:503
    12b2:	f47f af30 	bne.w	1116 <kprintf.constprop.0+0x28e>
    12b6:	f1bb 0f00 	cmp.w	fp, #0
    12ba:	f47f af2c 	bne.w	1116 <kprintf.constprop.0+0x28e>
/home/aom1/Work/Linux/target/STM32MP1-DK2/buildroot/buildroot/output/build/optee-os-custom/lib/libutils/ext/snprintk.c:502
    12be:	f10d 0a79 	add.w	sl, sp, #121	; 0x79
    12c2:	e746      	b.n	1152 <kprintf.constprop.0+0x2ca>
/home/aom1/Work/Linux/target/STM32MP1-DK2/buildroot/buildroot/output/build/optee-os-custom/lib/libutils/ext/snprintk.c:417
    12c4:	f015 0620 	ands.w	r6, r5, #32
    12c8:	d1d3      	bne.n	1272 <kprintf.constprop.0+0x3ea>
/home/aom1/Work/Linux/target/STM32MP1-DK2/buildroot/buildroot/output/build/optee-os-custom/lib/libutils/ext/snprintk.c:317
    12ca:	461f      	mov	r7, r3
/home/aom1/Work/Linux/target/STM32MP1-DK2/buildroot/buildroot/output/build/optee-os-custom/lib/libutils/ext/snprintk.c:417
    12cc:	f015 0110 	ands.w	r1, r5, #16
/home/aom1/Work/Linux/target/STM32MP1-DK2/buildroot/buildroot/output/build/optee-os-custom/lib/libutils/ext/snprintk.c:317
    12d0:	f857 4b04 	ldr.w	r4, [r7], #4
/home/aom1/Work/Linux/target/STM32MP1-DK2/buildroot/buildroot/output/build/optee-os-custom/lib/libutils/ext/snprintk.c:417
    12d4:	d1e2      	bne.n	129c <kprintf.constprop.0+0x414>
    12d6:	f015 0640 	ands.w	r6, r5, #64	; 0x40
    12da:	d0df      	beq.n	129c <kprintf.constprop.0+0x414>
    12dc:	b2a4      	uxth	r4, r4
    12de:	e7d6      	b.n	128e <kprintf.constprop.0+0x406>
/home/aom1/Work/Linux/target/STM32MP1-DK2/buildroot/buildroot/output/build/optee-os-custom/lib/libutils/ext/snprintk.c:317
    12e0:	461f      	mov	r7, r3
/home/aom1/Work/Linux/target/STM32MP1-DK2/buildroot/buildroot/output/build/optee-os-custom/lib/libutils/ext/snprintk.c:421
    12e2:	9b13      	ldr	r3, [sp, #76]	; 0x4c
    12e4:	f857 4b04 	ldr.w	r4, [r7], #4
    12e8:	2b00      	cmp	r3, #0
    12ea:	d029      	beq.n	1340 <kprintf.constprop.0+0x4b8>
    12ec:	9b0b      	ldr	r3, [sp, #44]	; 0x2c
    12ee:	781b      	ldrb	r3, [r3, #0]
    12f0:	2b55      	cmp	r3, #85	; 0x55
    12f2:	d125      	bne.n	1340 <kprintf.constprop.0+0x4b8>
    12f4:	9b0b      	ldr	r3, [sp, #44]	; 0x2c
    12f6:	785b      	ldrb	r3, [r3, #1]
    12f8:	2b6c      	cmp	r3, #108	; 0x6c
    12fa:	d121      	bne.n	1340 <kprintf.constprop.0+0x4b8>
/home/aom1/Work/Linux/target/STM32MP1-DK2/buildroot/buildroot/output/build/optee-os-custom/lib/libutils/ext/snprintk.c:426
    12fc:	9b0b      	ldr	r3, [sp, #44]	; 0x2c
uuid2str():
/home/aom1/Work/Linux/target/STM32MP1-DK2/buildroot/buildroot/output/build/optee-os-custom/lib/libutils/ext/snprintk.c:229
    12fe:	f10d 0a54 	add.w	sl, sp, #84	; 0x54
    1302:	4aa6      	ldr	r2, [pc, #664]	; (159c <kprintf.constprop.0+0x714>)
    1304:	2125      	movs	r1, #37	; 0x25
kprintf():
/home/aom1/Work/Linux/target/STM32MP1-DK2/buildroot/buildroot/output/build/optee-os-custom/lib/libutils/ext/snprintk.c:426
    1306:	3302      	adds	r3, #2
uuid2str():
/home/aom1/Work/Linux/target/STM32MP1-DK2/buildroot/buildroot/output/build/optee-os-custom/lib/libutils/ext/snprintk.c:229
    1308:	4650      	mov	r0, sl
kprintf():
/home/aom1/Work/Linux/target/STM32MP1-DK2/buildroot/buildroot/output/build/optee-os-custom/lib/libutils/ext/snprintk.c:426
    130a:	930b      	str	r3, [sp, #44]	; 0x2c
uuid2str():
/home/aom1/Work/Linux/target/STM32MP1-DK2/buildroot/buildroot/output/build/optee-os-custom/lib/libutils/ext/snprintk.c:229
    130c:	7be3      	ldrb	r3, [r4, #15]
    130e:	447a      	add	r2, pc
    1310:	9309      	str	r3, [sp, #36]	; 0x24
    1312:	7ba3      	ldrb	r3, [r4, #14]
    1314:	9308      	str	r3, [sp, #32]
    1316:	7b63      	ldrb	r3, [r4, #13]
    1318:	9307      	str	r3, [sp, #28]
    131a:	7b23      	ldrb	r3, [r4, #12]
    131c:	9306      	str	r3, [sp, #24]
    131e:	7ae3      	ldrb	r3, [r4, #11]
    1320:	9305      	str	r3, [sp, #20]
    1322:	7aa3      	ldrb	r3, [r4, #10]
    1324:	9304      	str	r3, [sp, #16]
    1326:	7a63      	ldrb	r3, [r4, #9]
    1328:	9303      	str	r3, [sp, #12]
    132a:	7a23      	ldrb	r3, [r4, #8]
    132c:	9302      	str	r3, [sp, #8]
    132e:	88e3      	ldrh	r3, [r4, #6]
    1330:	9301      	str	r3, [sp, #4]
    1332:	88a3      	ldrh	r3, [r4, #4]
    1334:	9300      	str	r3, [sp, #0]
    1336:	6823      	ldr	r3, [r4, #0]
    1338:	f7ff fd79 	bl	e2e <snprintk>
kprintf():
/home/aom1/Work/Linux/target/STM32MP1-DK2/buildroot/buildroot/output/build/optee-os-custom/lib/libutils/ext/snprintk.c:466
    133c:	4683      	mov	fp, r0
    133e:	e035      	b.n	13ac <kprintf.constprop.0+0x524>
/home/aom1/Work/Linux/target/STM32MP1-DK2/buildroot/buildroot/output/build/optee-os-custom/lib/libutils/ext/snprintk.c:443
    1340:	4b97      	ldr	r3, [pc, #604]	; (15a0 <kprintf.constprop.0+0x718>)
/home/aom1/Work/Linux/target/STM32MP1-DK2/buildroot/buildroot/output/build/optee-os-custom/lib/libutils/ext/snprintk.c:441
    1342:	2600      	movs	r6, #0
/home/aom1/Work/Linux/target/STM32MP1-DK2/buildroot/buildroot/output/build/optee-os-custom/lib/libutils/ext/snprintk.c:444
    1344:	f045 0502 	orr.w	r5, r5, #2
/home/aom1/Work/Linux/target/STM32MP1-DK2/buildroot/buildroot/output/build/optee-os-custom/lib/libutils/ext/snprintk.c:443
    1348:	447b      	add	r3, pc
    134a:	3311      	adds	r3, #17
    134c:	9311      	str	r3, [sp, #68]	; 0x44
/home/aom1/Work/Linux/target/STM32MP1-DK2/buildroot/buildroot/output/build/optee-os-custom/lib/libutils/ext/snprintk.c:445
    134e:	2378      	movs	r3, #120	; 0x78
    1350:	930c      	str	r3, [sp, #48]	; 0x30
/home/aom1/Work/Linux/target/STM32MP1-DK2/buildroot/buildroot/output/build/optee-os-custom/lib/libutils/ext/snprintk.c:494
    1352:	f1bb 3fff 	cmp.w	fp, #4294967295	; 0xffffffff
    1356:	f04f 0900 	mov.w	r9, #0
    135a:	f040 8093 	bne.w	1484 <kprintf.constprop.0+0x5fc>
    135e:	f10d 0a79 	add.w	sl, sp, #121	; 0x79
/home/aom1/Work/Linux/target/STM32MP1-DK2/buildroot/buildroot/output/build/optee-os-custom/lib/libutils/ext/snprintk.c:531
    1362:	9a11      	ldr	r2, [sp, #68]	; 0x44
    1364:	f004 030f 	and.w	r3, r4, #15
/home/aom1/Work/Linux/target/STM32MP1-DK2/buildroot/buildroot/output/build/optee-os-custom/lib/libutils/ext/snprintk.c:532
    1368:	0924      	lsrs	r4, r4, #4
/home/aom1/Work/Linux/target/STM32MP1-DK2/buildroot/buildroot/output/build/optee-os-custom/lib/libutils/ext/snprintk.c:531
    136a:	5cd3      	ldrb	r3, [r2, r3]
/home/aom1/Work/Linux/target/STM32MP1-DK2/buildroot/buildroot/output/build/optee-os-custom/lib/libutils/ext/snprintk.c:532
    136c:	ea44 7406 	orr.w	r4, r4, r6, lsl #28
    1370:	0936      	lsrs	r6, r6, #4
/home/aom1/Work/Linux/target/STM32MP1-DK2/buildroot/buildroot/output/build/optee-os-custom/lib/libutils/ext/snprintk.c:531
    1372:	f80a 3d01 	strb.w	r3, [sl, #-1]!
/home/aom1/Work/Linux/target/STM32MP1-DK2/buildroot/buildroot/output/build/optee-os-custom/lib/libutils/ext/snprintk.c:533
    1376:	ea54 0306 	orrs.w	r3, r4, r6
    137a:	d1f2      	bne.n	1362 <kprintf.constprop.0+0x4da>
    137c:	e6e9      	b.n	1152 <kprintf.constprop.0+0x2ca>
/home/aom1/Work/Linux/target/STM32MP1-DK2/buildroot/buildroot/output/build/optee-os-custom/lib/libutils/ext/snprintk.c:448
    137e:	461f      	mov	r7, r3
    1380:	f857 ab04 	ldr.w	sl, [r7], #4
    1384:	f1ba 0f00 	cmp.w	sl, #0
    1388:	d102      	bne.n	1390 <kprintf.constprop.0+0x508>
/home/aom1/Work/Linux/target/STM32MP1-DK2/buildroot/buildroot/output/build/optee-os-custom/lib/libutils/ext/snprintk.c:450
    138a:	f8df a218 	ldr.w	sl, [pc, #536]	; 15a4 <kprintf.constprop.0+0x71c>
    138e:	44fa      	add	sl, pc
/home/aom1/Work/Linux/target/STM32MP1-DK2/buildroot/buildroot/output/build/optee-os-custom/lib/libutils/ext/snprintk.c:451
    1390:	f1bb 3fff 	cmp.w	fp, #4294967295	; 0xffffffff
    1394:	d00d      	beq.n	13b2 <kprintf.constprop.0+0x52a>
/home/aom1/Work/Linux/target/STM32MP1-DK2/buildroot/buildroot/output/build/optee-os-custom/lib/libutils/ext/snprintk.c:457
    1396:	465a      	mov	r2, fp
    1398:	2100      	movs	r1, #0
    139a:	4650      	mov	r0, sl
    139c:	f009 fcba 	bl	ad14 <memchr>
/home/aom1/Work/Linux/target/STM32MP1-DK2/buildroot/buildroot/output/build/optee-os-custom/lib/libutils/ext/snprintk.c:459
    13a0:	b128      	cbz	r0, 13ae <kprintf.constprop.0+0x526>
/home/aom1/Work/Linux/target/STM32MP1-DK2/buildroot/buildroot/output/build/optee-os-custom/lib/libutils/ext/snprintk.c:460
    13a2:	eba0 000a 	sub.w	r0, r0, sl
    13a6:	4583      	cmp	fp, r0
    13a8:	bfa8      	it	ge
    13aa:	4683      	movge	fp, r0
/home/aom1/Work/Linux/target/STM32MP1-DK2/buildroot/buildroot/output/build/optee-os-custom/lib/libutils/ext/snprintk.c:291
    13ac:	2000      	movs	r0, #0
/home/aom1/Work/Linux/target/STM32MP1-DK2/buildroot/buildroot/output/build/optee-os-custom/lib/libutils/ext/snprintk.c:467
    13ae:	4681      	mov	r9, r0
    13b0:	e6d4      	b.n	115c <kprintf.constprop.0+0x2d4>
/home/aom1/Work/Linux/target/STM32MP1-DK2/buildroot/buildroot/output/build/optee-os-custom/lib/libutils/ext/snprintk.c:466
    13b2:	4650      	mov	r0, sl
    13b4:	f009 fcbc 	bl	ad30 <strlen>
    13b8:	e7c0      	b.n	133c <kprintf.constprop.0+0x4b4>
/home/aom1/Work/Linux/target/STM32MP1-DK2/buildroot/buildroot/output/build/optee-os-custom/lib/libutils/ext/snprintk.c:470
    13ba:	f045 0510 	orr.w	r5, r5, #16
/home/aom1/Work/Linux/target/STM32MP1-DK2/buildroot/buildroot/output/build/optee-os-custom/lib/libutils/ext/snprintk.c:473
    13be:	f015 0180 	ands.w	r1, r5, #128	; 0x80
    13c2:	d00f      	beq.n	13e4 <kprintf.constprop.0+0x55c>
    13c4:	3307      	adds	r3, #7
    13c6:	f023 0307 	bic.w	r3, r3, #7
    13ca:	461f      	mov	r7, r3
    13cc:	685e      	ldr	r6, [r3, #4]
    13ce:	f857 4b08 	ldr.w	r4, [r7], #8
/home/aom1/Work/Linux/target/STM32MP1-DK2/buildroot/buildroot/output/build/optee-os-custom/lib/libutils/ext/snprintk.c:488
    13d2:	f04f 0900 	mov.w	r9, #0
/home/aom1/Work/Linux/target/STM32MP1-DK2/buildroot/buildroot/output/build/optee-os-custom/lib/libutils/ext/snprintk.c:494
    13d6:	f1bb 3fff 	cmp.w	fp, #4294967295	; 0xffffffff
    13da:	d155      	bne.n	1488 <kprintf.constprop.0+0x600>
    13dc:	f10d 0379 	add.w	r3, sp, #121	; 0x79
    13e0:	9312      	str	r3, [sp, #72]	; 0x48
    13e2:	e067      	b.n	14b4 <kprintf.constprop.0+0x62c>
/home/aom1/Work/Linux/target/STM32MP1-DK2/buildroot/buildroot/output/build/optee-os-custom/lib/libutils/ext/snprintk.c:473
    13e4:	f415 7680 	ands.w	r6, r5, #256	; 0x100
    13e8:	d004      	beq.n	13f4 <kprintf.constprop.0+0x56c>
    13ea:	461f      	mov	r7, r3
    13ec:	f857 4b04 	ldr.w	r4, [r7], #4
    13f0:	460e      	mov	r6, r1
    13f2:	e7ee      	b.n	13d2 <kprintf.constprop.0+0x54a>
    13f4:	f415 7900 	ands.w	r9, r5, #512	; 0x200
    13f8:	d003      	beq.n	1402 <kprintf.constprop.0+0x57a>
    13fa:	461f      	mov	r7, r3
    13fc:	f857 4b04 	ldr.w	r4, [r7], #4
    1400:	e7e7      	b.n	13d2 <kprintf.constprop.0+0x54a>
    1402:	f015 0620 	ands.w	r6, r5, #32
    1406:	d007      	beq.n	1418 <kprintf.constprop.0+0x590>
    1408:	3307      	adds	r3, #7
    140a:	f023 0307 	bic.w	r3, r3, #7
    140e:	461f      	mov	r7, r3
    1410:	685e      	ldr	r6, [r3, #4]
    1412:	f857 4b08 	ldr.w	r4, [r7], #8
    1416:	e7de      	b.n	13d6 <kprintf.constprop.0+0x54e>
/home/aom1/Work/Linux/target/STM32MP1-DK2/buildroot/buildroot/output/build/optee-os-custom/lib/libutils/ext/snprintk.c:317
    1418:	461f      	mov	r7, r3
/home/aom1/Work/Linux/target/STM32MP1-DK2/buildroot/buildroot/output/build/optee-os-custom/lib/libutils/ext/snprintk.c:473
    141a:	f015 0110 	ands.w	r1, r5, #16
/home/aom1/Work/Linux/target/STM32MP1-DK2/buildroot/buildroot/output/build/optee-os-custom/lib/libutils/ext/snprintk.c:317
    141e:	f857 4b04 	ldr.w	r4, [r7], #4
/home/aom1/Work/Linux/target/STM32MP1-DK2/buildroot/buildroot/output/build/optee-os-custom/lib/libutils/ext/snprintk.c:473
    1422:	d1d6      	bne.n	13d2 <kprintf.constprop.0+0x54a>
    1424:	f015 0640 	ands.w	r6, r5, #64	; 0x40
    1428:	d0d3      	beq.n	13d2 <kprintf.constprop.0+0x54a>
    142a:	b2a4      	uxth	r4, r4
    142c:	e7e0      	b.n	13f0 <kprintf.constprop.0+0x568>
/home/aom1/Work/Linux/target/STM32MP1-DK2/buildroot/buildroot/output/build/optee-os-custom/lib/libutils/ext/snprintk.c:477
    142e:	4a5e      	ldr	r2, [pc, #376]	; (15a8 <kprintf.constprop.0+0x720>)
    1430:	447a      	add	r2, pc
    1432:	e5d9      	b.n	fe8 <kprintf.constprop.0+0x160>
/home/aom1/Work/Linux/target/STM32MP1-DK2/buildroot/buildroot/output/build/optee-os-custom/lib/libutils/ext/snprintk.c:481
    1434:	f415 7680 	ands.w	r6, r5, #256	; 0x100
    1438:	d004      	beq.n	1444 <kprintf.constprop.0+0x5bc>
    143a:	461f      	mov	r7, r3
    143c:	f857 4b04 	ldr.w	r4, [r7], #4
    1440:	460e      	mov	r6, r1
    1442:	e004      	b.n	144e <kprintf.constprop.0+0x5c6>
    1444:	05aa      	lsls	r2, r5, #22
    1446:	d50e      	bpl.n	1466 <kprintf.constprop.0+0x5de>
    1448:	461f      	mov	r7, r3
    144a:	f857 4b04 	ldr.w	r4, [r7], #4
/home/aom1/Work/Linux/target/STM32MP1-DK2/buildroot/buildroot/output/build/optee-os-custom/lib/libutils/ext/snprintk.c:484
    144e:	07eb      	lsls	r3, r5, #31
    1450:	f57f af7f 	bpl.w	1352 <kprintf.constprop.0+0x4ca>
    1454:	ea54 0306 	orrs.w	r3, r4, r6
/home/aom1/Work/Linux/target/STM32MP1-DK2/buildroot/buildroot/output/build/optee-os-custom/lib/libutils/ext/snprintk.c:488
    1458:	f04f 0900 	mov.w	r9, #0
/home/aom1/Work/Linux/target/STM32MP1-DK2/buildroot/buildroot/output/build/optee-os-custom/lib/libutils/ext/snprintk.c:485
    145c:	bf18      	it	ne
    145e:	f045 0502 	orrne.w	r5, r5, #2
/home/aom1/Work/Linux/target/STM32MP1-DK2/buildroot/buildroot/output/build/optee-os-custom/lib/libutils/ext/snprintk.c:482
    1462:	2302      	movs	r3, #2
    1464:	e653      	b.n	110e <kprintf.constprop.0+0x286>
/home/aom1/Work/Linux/target/STM32MP1-DK2/buildroot/buildroot/output/build/optee-os-custom/lib/libutils/ext/snprintk.c:481
    1466:	f015 0620 	ands.w	r6, r5, #32
    146a:	f47f adc2 	bne.w	ff2 <kprintf.constprop.0+0x16a>
/home/aom1/Work/Linux/target/STM32MP1-DK2/buildroot/buildroot/output/build/optee-os-custom/lib/libutils/ext/snprintk.c:317
    146e:	461f      	mov	r7, r3
/home/aom1/Work/Linux/target/STM32MP1-DK2/buildroot/buildroot/output/build/optee-os-custom/lib/libutils/ext/snprintk.c:481
    1470:	f015 0110 	ands.w	r1, r5, #16
/home/aom1/Work/Linux/target/STM32MP1-DK2/buildroot/buildroot/output/build/optee-os-custom/lib/libutils/ext/snprintk.c:317
    1474:	f857 4b04 	ldr.w	r4, [r7], #4
/home/aom1/Work/Linux/target/STM32MP1-DK2/buildroot/buildroot/output/build/optee-os-custom/lib/libutils/ext/snprintk.c:481
    1478:	d1e9      	bne.n	144e <kprintf.constprop.0+0x5c6>
    147a:	f015 0640 	ands.w	r6, r5, #64	; 0x40
    147e:	d0e6      	beq.n	144e <kprintf.constprop.0+0x5c6>
    1480:	b2a4      	uxth	r4, r4
    1482:	e7dd      	b.n	1440 <kprintf.constprop.0+0x5b8>
/home/aom1/Work/Linux/target/STM32MP1-DK2/buildroot/buildroot/output/build/optee-os-custom/lib/libutils/ext/snprintk.c:494
    1484:	2302      	movs	r3, #2
    1486:	e710      	b.n	12aa <kprintf.constprop.0+0x422>
    1488:	2301      	movs	r3, #1
    148a:	e70e      	b.n	12aa <kprintf.constprop.0+0x422>
/home/aom1/Work/Linux/target/STM32MP1-DK2/buildroot/buildroot/output/build/optee-os-custom/lib/libutils/ext/snprintk.c:523
    148c:	4620      	mov	r0, r4
    148e:	4631      	mov	r1, r6
    1490:	220a      	movs	r2, #10
    1492:	2300      	movs	r3, #0
    1494:	f000 e8a2 	blx	15dc <__aeabi_uldivmod>
    1498:	9b12      	ldr	r3, [sp, #72]	; 0x48
    149a:	3230      	adds	r2, #48	; 0x30
/home/aom1/Work/Linux/target/STM32MP1-DK2/buildroot/buildroot/output/build/optee-os-custom/lib/libutils/ext/snprintk.c:524
    149c:	4620      	mov	r0, r4
    149e:	4631      	mov	r1, r6
/home/aom1/Work/Linux/target/STM32MP1-DK2/buildroot/buildroot/output/build/optee-os-custom/lib/libutils/ext/snprintk.c:523
    14a0:	f803 2c01 	strb.w	r2, [r3, #-1]
/home/aom1/Work/Linux/target/STM32MP1-DK2/buildroot/buildroot/output/build/optee-os-custom/lib/libutils/ext/snprintk.c:524
    14a4:	220a      	movs	r2, #10
    14a6:	2300      	movs	r3, #0
    14a8:	f000 e898 	blx	15dc <__aeabi_uldivmod>
    14ac:	f8cd a048 	str.w	sl, [sp, #72]	; 0x48
    14b0:	4604      	mov	r4, r0
    14b2:	460e      	mov	r6, r1
/home/aom1/Work/Linux/target/STM32MP1-DK2/buildroot/buildroot/output/build/optee-os-custom/lib/libutils/ext/snprintk.c:523
    14b4:	9b12      	ldr	r3, [sp, #72]	; 0x48
/home/aom1/Work/Linux/target/STM32MP1-DK2/buildroot/buildroot/output/build/optee-os-custom/lib/libutils/ext/snprintk.c:522
    14b6:	2c0a      	cmp	r4, #10
/home/aom1/Work/Linux/target/STM32MP1-DK2/buildroot/buildroot/output/build/optee-os-custom/lib/libutils/ext/snprintk.c:523
    14b8:	f103 3aff 	add.w	sl, r3, #4294967295	; 0xffffffff
/home/aom1/Work/Linux/target/STM32MP1-DK2/buildroot/buildroot/output/build/optee-os-custom/lib/libutils/ext/snprintk.c:522
    14bc:	f176 0300 	sbcs.w	r3, r6, #0
    14c0:	d2e4      	bcs.n	148c <kprintf.constprop.0+0x604>
/home/aom1/Work/Linux/target/STM32MP1-DK2/buildroot/buildroot/output/build/optee-os-custom/lib/libutils/ext/snprintk.c:526
    14c2:	9b12      	ldr	r3, [sp, #72]	; 0x48
    14c4:	3430      	adds	r4, #48	; 0x30
    14c6:	f803 4c01 	strb.w	r4, [r3, #-1]
/home/aom1/Work/Linux/target/STM32MP1-DK2/buildroot/buildroot/output/build/optee-os-custom/lib/libutils/ext/snprintk.c:527
    14ca:	e642      	b.n	1152 <kprintf.constprop.0+0x2ca>
/home/aom1/Work/Linux/target/STM32MP1-DK2/buildroot/buildroot/output/build/optee-os-custom/lib/libutils/ext/snprintk.c:547
    14cc:	9a0c      	ldr	r2, [sp, #48]	; 0x30
    14ce:	2a00      	cmp	r2, #0
    14d0:	f43f acf9 	beq.w	ec6 <kprintf.constprop.0+0x3e>
    14d4:	e599      	b.n	100a <kprintf.constprop.0+0x182>
/home/aom1/Work/Linux/target/STM32MP1-DK2/buildroot/buildroot/output/build/optee-os-custom/lib/libutils/ext/snprintk.c:574
    14d6:	07ac      	lsls	r4, r5, #30
/home/aom1/Work/Linux/target/STM32MP1-DK2/buildroot/buildroot/output/build/optee-os-custom/lib/libutils/ext/snprintk.c:575
    14d8:	bf48      	it	mi
    14da:	3302      	addmi	r3, #2
    14dc:	e647      	b.n	116e <kprintf.constprop.0+0x2e6>
/home/aom1/Work/Linux/target/STM32MP1-DK2/buildroot/buildroot/output/build/optee-os-custom/lib/libutils/ext/snprintk.c:584
    14de:	f1b8 0f00 	cmp.w	r8, #0
    14e2:	d006      	beq.n	14f2 <kprintf.constprop.0+0x66a>
    14e4:	9e0e      	ldr	r6, [sp, #56]	; 0x38
    14e6:	b116      	cbz	r6, 14ee <kprintf.constprop.0+0x666>
    14e8:	9e10      	ldr	r6, [sp, #64]	; 0x40
    14ea:	4546      	cmp	r6, r8
    14ec:	d901      	bls.n	14f2 <kprintf.constprop.0+0x66a>
    14ee:	f808 4b01 	strb.w	r4, [r8], #1
    14f2:	3901      	subs	r1, #1
    14f4:	e648      	b.n	1188 <kprintf.constprop.0+0x300>
/home/aom1/Work/Linux/target/STM32MP1-DK2/buildroot/buildroot/output/build/optee-os-custom/lib/libutils/ext/snprintk.c:590
    14f6:	07a9      	lsls	r1, r5, #30
    14f8:	f57f ae57 	bpl.w	11aa <kprintf.constprop.0+0x322>
/home/aom1/Work/Linux/target/STM32MP1-DK2/buildroot/buildroot/output/build/optee-os-custom/lib/libutils/ext/snprintk.c:591
    14fc:	f1b8 0f00 	cmp.w	r8, #0
    1500:	f43f ae53 	beq.w	11aa <kprintf.constprop.0+0x322>
    1504:	990e      	ldr	r1, [sp, #56]	; 0x38
    1506:	b119      	cbz	r1, 1510 <kprintf.constprop.0+0x688>
    1508:	9910      	ldr	r1, [sp, #64]	; 0x40
    150a:	4541      	cmp	r1, r8
    150c:	f67f ae4d 	bls.w	11aa <kprintf.constprop.0+0x322>
    1510:	2130      	movs	r1, #48	; 0x30
    1512:	f888 1000 	strb.w	r1, [r8]
/home/aom1/Work/Linux/target/STM32MP1-DK2/buildroot/buildroot/output/build/optee-os-custom/lib/libutils/ext/snprintk.c:592
    1516:	990e      	ldr	r1, [sp, #56]	; 0x38
    1518:	b121      	cbz	r1, 1524 <kprintf.constprop.0+0x69c>
    151a:	9c10      	ldr	r4, [sp, #64]	; 0x40
/home/aom1/Work/Linux/target/STM32MP1-DK2/buildroot/buildroot/output/build/optee-os-custom/lib/libutils/ext/snprintk.c:591
    151c:	f108 0101 	add.w	r1, r8, #1
/home/aom1/Work/Linux/target/STM32MP1-DK2/buildroot/buildroot/output/build/optee-os-custom/lib/libutils/ext/snprintk.c:592
    1520:	428c      	cmp	r4, r1
    1522:	d905      	bls.n	1530 <kprintf.constprop.0+0x6a8>
    1524:	990c      	ldr	r1, [sp, #48]	; 0x30
    1526:	f108 0802 	add.w	r8, r8, #2
    152a:	f808 1c01 	strb.w	r1, [r8, #-1]
    152e:	e63c      	b.n	11aa <kprintf.constprop.0+0x322>
    1530:	4688      	mov	r8, r1
    1532:	e63a      	b.n	11aa <kprintf.constprop.0+0x322>
/home/aom1/Work/Linux/target/STM32MP1-DK2/buildroot/buildroot/output/build/optee-os-custom/lib/libutils/ext/snprintk.c:599
    1534:	f1b8 0f00 	cmp.w	r8, #0
    1538:	d006      	beq.n	1548 <kprintf.constprop.0+0x6c0>
    153a:	9c0e      	ldr	r4, [sp, #56]	; 0x38
    153c:	b114      	cbz	r4, 1544 <kprintf.constprop.0+0x6bc>
    153e:	9c10      	ldr	r4, [sp, #64]	; 0x40
    1540:	4544      	cmp	r4, r8
    1542:	d901      	bls.n	1548 <kprintf.constprop.0+0x6c0>
    1544:	f808 2b01 	strb.w	r2, [r8], #1
    1548:	3901      	subs	r1, #1
    154a:	e634      	b.n	11b6 <kprintf.constprop.0+0x32e>
/home/aom1/Work/Linux/target/STM32MP1-DK2/buildroot/buildroot/output/build/optee-os-custom/lib/libutils/ext/snprintk.c:605
    154c:	f1b8 0f00 	cmp.w	r8, #0
    1550:	d006      	beq.n	1560 <kprintf.constprop.0+0x6d8>
    1552:	990e      	ldr	r1, [sp, #56]	; 0x38
    1554:	b111      	cbz	r1, 155c <kprintf.constprop.0+0x6d4>
    1556:	9910      	ldr	r1, [sp, #64]	; 0x40
    1558:	4541      	cmp	r1, r8
    155a:	d901      	bls.n	1560 <kprintf.constprop.0+0x6d8>
    155c:	f808 2b01 	strb.w	r2, [r8], #1
    1560:	3801      	subs	r0, #1
    1562:	e62e      	b.n	11c2 <kprintf.constprop.0+0x33a>
/home/aom1/Work/Linux/target/STM32MP1-DK2/buildroot/buildroot/output/build/optee-os-custom/lib/libutils/ext/snprintk.c:609
    1564:	f1b8 0f00 	cmp.w	r8, #0
    1568:	d008      	beq.n	157c <kprintf.constprop.0+0x6f4>
    156a:	9a0e      	ldr	r2, [sp, #56]	; 0x38
    156c:	b112      	cbz	r2, 1574 <kprintf.constprop.0+0x6ec>
    156e:	9a10      	ldr	r2, [sp, #64]	; 0x40
    1570:	4542      	cmp	r2, r8
    1572:	d903      	bls.n	157c <kprintf.constprop.0+0x6f4>
    1574:	f89a 2000 	ldrb.w	r2, [sl]
    1578:	f808 2b01 	strb.w	r2, [r8], #1
/home/aom1/Work/Linux/target/STM32MP1-DK2/buildroot/buildroot/output/build/optee-os-custom/lib/libutils/ext/snprintk.c:608
    157c:	f10a 0a01 	add.w	sl, sl, #1
    1580:	e624      	b.n	11cc <kprintf.constprop.0+0x344>
/home/aom1/Work/Linux/target/STM32MP1-DK2/buildroot/buildroot/output/build/optee-os-custom/lib/libutils/ext/snprintk.c:622
    1582:	980d      	ldr	r0, [sp, #52]	; 0x34
    1584:	b021      	add	sp, #132	; 0x84
    1586:	e8bd 8ff0 	ldmia.w	sp!, {r4, r5, r6, r7, r8, r9, sl, fp, pc}
    158a:	bf00      	nop
    158c:	0000c1e6 	.word	0x0000c1e6
    1590:	0000000c 	.word	0x0000000c
    1594:	0000c1ae 	.word	0x0000c1ae
    1598:	0000a3da 	.word	0x0000a3da
    159c:	0000a07f 	.word	0x0000a07f
    15a0:	0000a076 	.word	0x0000a076
    15a4:	00009ff8 	.word	0x00009ff8
    15a8:	00009f8e 	.word	0x00009f8e

000015ac <__vsprintf>:
__vsprintf():
/home/aom1/Work/Linux/target/STM32MP1-DK2/buildroot/buildroot/output/build/optee-os-custom/lib/libutils/ext/snprintk.c:155
    15ac:	b513      	push	{r0, r1, r4, lr}
    15ae:	4604      	mov	r4, r0
    15b0:	4608      	mov	r0, r1
/home/aom1/Work/Linux/target/STM32MP1-DK2/buildroot/buildroot/output/build/optee-os-custom/lib/libutils/ext/snprintk.c:156
    15b2:	2100      	movs	r1, #0
    15b4:	9100      	str	r1, [sp, #0]
/home/aom1/Work/Linux/target/STM32MP1-DK2/buildroot/buildroot/output/build/optee-os-custom/lib/libutils/ext/snprintk.c:155
    15b6:	4613      	mov	r3, r2
/home/aom1/Work/Linux/target/STM32MP1-DK2/buildroot/buildroot/output/build/optee-os-custom/lib/libutils/ext/snprintk.c:156
    15b8:	4622      	mov	r2, r4
    15ba:	f7ff fc65 	bl	e88 <kprintf.constprop.0>
/home/aom1/Work/Linux/target/STM32MP1-DK2/buildroot/buildroot/output/build/optee-os-custom/lib/libutils/ext/snprintk.c:157
    15be:	b002      	add	sp, #8
    15c0:	bd10      	pop	{r4, pc}
    15c2:	bf00      	nop

000015c4 <__aeabi_ldivmod>:
__aeabi_ldivmod():
/home/aom1/Work/Linux/target/STM32MP1-DK2/buildroot/buildroot/output/build/optee-os-custom/lib/libutils/isoc/arch/arm/arm32_aeabi_ldivmod_a32.S:12
    15c4:	e92d5000 	push	{ip, lr}
/home/aom1/Work/Linux/target/STM32MP1-DK2/buildroot/buildroot/output/build/optee-os-custom/lib/libutils/isoc/arch/arm/arm32_aeabi_ldivmod_a32.S:14
    15c8:	e92d000f 	push	{r0, r1, r2, r3}
/home/aom1/Work/Linux/target/STM32MP1-DK2/buildroot/buildroot/output/build/optee-os-custom/lib/libutils/isoc/arch/arm/arm32_aeabi_ldivmod_a32.S:16
    15cc:	e1a0000d 	mov	r0, sp
/home/aom1/Work/Linux/target/STM32MP1-DK2/buildroot/buildroot/output/build/optee-os-custom/lib/libutils/isoc/arch/arm/arm32_aeabi_ldivmod_a32.S:17
    15d0:	fa000048 	blx	16f8 <__l_divmod>
/home/aom1/Work/Linux/target/STM32MP1-DK2/buildroot/buildroot/output/build/optee-os-custom/lib/libutils/isoc/arch/arm/arm32_aeabi_ldivmod_a32.S:18
    15d4:	e8bd000f 	pop	{r0, r1, r2, r3}
/home/aom1/Work/Linux/target/STM32MP1-DK2/buildroot/buildroot/output/build/optee-os-custom/lib/libutils/isoc/arch/arm/arm32_aeabi_ldivmod_a32.S:19
    15d8:	e8bd9000 	pop	{ip, pc}

000015dc <__aeabi_uldivmod>:
__aeabi_uldivmod():
/home/aom1/Work/Linux/target/STM32MP1-DK2/buildroot/buildroot/output/build/optee-os-custom/lib/libutils/isoc/arch/arm/arm32_aeabi_ldivmod_a32.S:27
    15dc:	e92d5000 	push	{ip, lr}
/home/aom1/Work/Linux/target/STM32MP1-DK2/buildroot/buildroot/output/build/optee-os-custom/lib/libutils/isoc/arch/arm/arm32_aeabi_ldivmod_a32.S:29
    15e0:	e92d000f 	push	{r0, r1, r2, r3}
/home/aom1/Work/Linux/target/STM32MP1-DK2/buildroot/buildroot/output/build/optee-os-custom/lib/libutils/isoc/arch/arm/arm32_aeabi_ldivmod_a32.S:31
    15e4:	e1a0000d 	mov	r0, sp
/home/aom1/Work/Linux/target/STM32MP1-DK2/buildroot/buildroot/output/build/optee-os-custom/lib/libutils/isoc/arch/arm/arm32_aeabi_ldivmod_a32.S:32
    15e8:	fb000024 	blx	1682 <__ul_divmod>
/home/aom1/Work/Linux/target/STM32MP1-DK2/buildroot/buildroot/output/build/optee-os-custom/lib/libutils/isoc/arch/arm/arm32_aeabi_ldivmod_a32.S:33
    15ec:	e8bd000f 	pop	{r0, r1, r2, r3}
/home/aom1/Work/Linux/target/STM32MP1-DK2/buildroot/buildroot/output/build/optee-os-custom/lib/libutils/isoc/arch/arm/arm32_aeabi_ldivmod_a32.S:34
    15f0:	e8bd9000 	pop	{ip, pc}

000015f4 <ul_div_qr>:
ul_div_qr():
/home/aom1/Work/Linux/target/STM32MP1-DK2/buildroot/buildroot/output/build/optee-os-custom/lib/libutils/isoc/arch/arm/arm32_aeabi_ldivmod.c:47
    15f4:	b5f0      	push	{r4, r5, r6, r7, lr}
division_lqr():
/home/aom1/Work/Linux/target/STM32MP1-DK2/buildroot/buildroot/output/build/optee-os-custom/lib/libutils/isoc/arch/arm/arm32_aeabi_ldivmod.c:22
    15f6:	ea52 0403 	orrs.w	r4, r2, r3
ul_div_qr():
/home/aom1/Work/Linux/target/STM32MP1-DK2/buildroot/buildroot/output/build/optee-os-custom/lib/libutils/isoc/arch/arm/arm32_aeabi_ldivmod.c:47
    15fa:	9d05      	ldr	r5, [sp, #20]
division_lqr():
/home/aom1/Work/Linux/target/STM32MP1-DK2/buildroot/buildroot/output/build/optee-os-custom/lib/libutils/isoc/arch/arm/arm32_aeabi_ldivmod.c:22
    15fc:	d128      	bne.n	1650 <ul_div_qr+0x5c>
/home/aom1/Work/Linux/target/STM32MP1-DK2/buildroot/buildroot/output/build/optee-os-custom/lib/libutils/isoc/arch/arm/arm32_aeabi_ldivmod.c:23
    15fe:	f04f 32ff 	mov.w	r2, #4294967295	; 0xffffffff
    1602:	f04f 33ff 	mov.w	r3, #4294967295	; 0xffffffff
    1606:	e9c5 2302 	strd	r2, r3, [r5, #8]
ul_div_qr():
/home/aom1/Work/Linux/target/STM32MP1-DK2/buildroot/buildroot/output/build/optee-os-custom/lib/libutils/isoc/arch/arm/arm32_aeabi_ldivmod.c:52
    160a:	692b      	ldr	r3, [r5, #16]
    160c:	b133      	cbz	r3, 161c <ul_div_qr+0x28>
/home/aom1/Work/Linux/target/STM32MP1-DK2/buildroot/buildroot/output/build/optee-os-custom/lib/libutils/isoc/arch/arm/arm32_aeabi_ldivmod.c:53
    160e:	e9d5 3200 	ldrd	r3, r2, [r5]
    1612:	425b      	negs	r3, r3
    1614:	eb62 0242 	sbc.w	r2, r2, r2, lsl #1
    1618:	e9c5 3200 	strd	r3, r2, [r5]
/home/aom1/Work/Linux/target/STM32MP1-DK2/buildroot/buildroot/output/build/optee-os-custom/lib/libutils/isoc/arch/arm/arm32_aeabi_ldivmod.c:54
    161c:	696b      	ldr	r3, [r5, #20]
    161e:	b133      	cbz	r3, 162e <ul_div_qr+0x3a>
/home/aom1/Work/Linux/target/STM32MP1-DK2/buildroot/buildroot/output/build/optee-os-custom/lib/libutils/isoc/arch/arm/arm32_aeabi_ldivmod.c:55
    1620:	e9d5 3202 	ldrd	r3, r2, [r5, #8]
    1624:	425b      	negs	r3, r3
    1626:	eb62 0242 	sbc.w	r2, r2, r2, lsl #1
    162a:	e9c5 3202 	strd	r3, r2, [r5, #8]
/home/aom1/Work/Linux/target/STM32MP1-DK2/buildroot/buildroot/output/build/optee-os-custom/lib/libutils/isoc/arch/arm/arm32_aeabi_ldivmod.c:56
    162e:	bdf0      	pop	{r4, r5, r6, r7, pc}
division_lqr():
/home/aom1/Work/Linux/target/STM32MP1-DK2/buildroot/buildroot/output/build/optee-os-custom/lib/libutils/isoc/arch/arm/arm32_aeabi_ldivmod.c:28
    1630:	19b6      	adds	r6, r6, r6
    1632:	417f      	adcs	r7, r7
/home/aom1/Work/Linux/target/STM32MP1-DK2/buildroot/buildroot/output/build/optee-os-custom/lib/libutils/isoc/arch/arm/arm32_aeabi_ldivmod.c:29
    1634:	1892      	adds	r2, r2, r2
    1636:	415b      	adcs	r3, r3
/home/aom1/Work/Linux/target/STM32MP1-DK2/buildroot/buildroot/output/build/optee-os-custom/lib/libutils/isoc/arch/arm/arm32_aeabi_ldivmod.c:27
    1638:	2b00      	cmp	r3, #0
    163a:	daf9      	bge.n	1630 <ul_div_qr+0x3c>
/home/aom1/Work/Linux/target/STM32MP1-DK2/buildroot/buildroot/output/build/optee-os-custom/lib/libutils/isoc/arch/arm/arm32_aeabi_ldivmod.c:21
    163c:	2400      	movs	r4, #0
    163e:	46a4      	mov	ip, r4
/home/aom1/Work/Linux/target/STM32MP1-DK2/buildroot/buildroot/output/build/optee-os-custom/lib/libutils/isoc/arch/arm/arm32_aeabi_ldivmod.c:32
    1640:	ea56 0e07 	orrs.w	lr, r6, r7
    1644:	d107      	bne.n	1656 <ul_div_qr+0x62>
/home/aom1/Work/Linux/target/STM32MP1-DK2/buildroot/buildroot/output/build/optee-os-custom/lib/libutils/isoc/arch/arm/arm32_aeabi_ldivmod.c:41
    1646:	e9c5 0102 	strd	r0, r1, [r5, #8]
/home/aom1/Work/Linux/target/STM32MP1-DK2/buildroot/buildroot/output/build/optee-os-custom/lib/libutils/isoc/arch/arm/arm32_aeabi_ldivmod.c:42
    164a:	e9c5 4c00 	strd	r4, ip, [r5]
    164e:	e7dc      	b.n	160a <ul_div_qr+0x16>
/home/aom1/Work/Linux/target/STM32MP1-DK2/buildroot/buildroot/output/build/optee-os-custom/lib/libutils/isoc/arch/arm/arm32_aeabi_ldivmod.c:21
    1650:	2601      	movs	r6, #1
    1652:	2700      	movs	r7, #0
    1654:	e7f0      	b.n	1638 <ul_div_qr+0x44>
/home/aom1/Work/Linux/target/STM32MP1-DK2/buildroot/buildroot/output/build/optee-os-custom/lib/libutils/isoc/arch/arm/arm32_aeabi_ldivmod.c:33
    1656:	1924      	adds	r4, r4, r4
    1658:	eb4c 0c0c 	adc.w	ip, ip, ip
/home/aom1/Work/Linux/target/STM32MP1-DK2/buildroot/buildroot/output/build/optee-os-custom/lib/libutils/isoc/arch/arm/arm32_aeabi_ldivmod.c:34
    165c:	4290      	cmp	r0, r2
    165e:	eb71 0e03 	sbcs.w	lr, r1, r3
    1662:	d305      	bcc.n	1670 <ul_div_qr+0x7c>
/home/aom1/Work/Linux/target/STM32MP1-DK2/buildroot/buildroot/output/build/optee-os-custom/lib/libutils/isoc/arch/arm/arm32_aeabi_ldivmod.c:35
    1664:	1a80      	subs	r0, r0, r2
    1666:	eb61 0103 	sbc.w	r1, r1, r3
/home/aom1/Work/Linux/target/STM32MP1-DK2/buildroot/buildroot/output/build/optee-os-custom/lib/libutils/isoc/arch/arm/arm32_aeabi_ldivmod.c:36
    166a:	3401      	adds	r4, #1
    166c:	f14c 0c00 	adc.w	ip, ip, #0
/home/aom1/Work/Linux/target/STM32MP1-DK2/buildroot/buildroot/output/build/optee-os-custom/lib/libutils/isoc/arch/arm/arm32_aeabi_ldivmod.c:38
    1670:	0852      	lsrs	r2, r2, #1
/home/aom1/Work/Linux/target/STM32MP1-DK2/buildroot/buildroot/output/build/optee-os-custom/lib/libutils/isoc/arch/arm/arm32_aeabi_ldivmod.c:39
    1672:	0876      	lsrs	r6, r6, #1
/home/aom1/Work/Linux/target/STM32MP1-DK2/buildroot/buildroot/output/build/optee-os-custom/lib/libutils/isoc/arch/arm/arm32_aeabi_ldivmod.c:38
    1674:	ea42 72c3 	orr.w	r2, r2, r3, lsl #31
/home/aom1/Work/Linux/target/STM32MP1-DK2/buildroot/buildroot/output/build/optee-os-custom/lib/libutils/isoc/arch/arm/arm32_aeabi_ldivmod.c:39
    1678:	ea46 76c7 	orr.w	r6, r6, r7, lsl #31
/home/aom1/Work/Linux/target/STM32MP1-DK2/buildroot/buildroot/output/build/optee-os-custom/lib/libutils/isoc/arch/arm/arm32_aeabi_ldivmod.c:38
    167c:	085b      	lsrs	r3, r3, #1
/home/aom1/Work/Linux/target/STM32MP1-DK2/buildroot/buildroot/output/build/optee-os-custom/lib/libutils/isoc/arch/arm/arm32_aeabi_ldivmod.c:39
    167e:	087f      	lsrs	r7, r7, #1
    1680:	e7de      	b.n	1640 <ul_div_qr+0x4c>

00001682 <__ul_divmod>:
__ul_divmod():
/home/aom1/Work/Linux/target/STM32MP1-DK2/buildroot/buildroot/output/build/optee-os-custom/lib/libutils/isoc/arch/arm/arm32_aeabi_ldivmod.c:66
    1682:	4a1a      	ldr	r2, [pc, #104]	; (16ec <__ul_divmod+0x6a>)
/home/aom1/Work/Linux/target/STM32MP1-DK2/buildroot/buildroot/output/build/optee-os-custom/lib/libutils/isoc/arch/arm/arm32_aeabi_ldivmod.c:69
    1684:	2100      	movs	r1, #0
/home/aom1/Work/Linux/target/STM32MP1-DK2/buildroot/buildroot/output/build/optee-os-custom/lib/libutils/isoc/arch/arm/arm32_aeabi_ldivmod.c:66
    1686:	4b1a      	ldr	r3, [pc, #104]	; (16f0 <__ul_divmod+0x6e>)
    1688:	447a      	add	r2, pc
    168a:	e92d 43d0 	stmdb	sp!, {r4, r6, r7, r8, r9, lr}
    168e:	b08a      	sub	sp, #40	; 0x28
    1690:	58d3      	ldr	r3, [r2, r3]
    1692:	4604      	mov	r4, r0
/home/aom1/Work/Linux/target/STM32MP1-DK2/buildroot/buildroot/output/build/optee-os-custom/lib/libutils/isoc/arch/arm/arm32_aeabi_ldivmod.c:67
    1694:	e9d0 6700 	ldrd	r6, r7, [r0]
/home/aom1/Work/Linux/target/STM32MP1-DK2/buildroot/buildroot/output/build/optee-os-custom/lib/libutils/isoc/arch/arm/arm32_aeabi_ldivmod.c:66
    1698:	681b      	ldr	r3, [r3, #0]
    169a:	9309      	str	r3, [sp, #36]	; 0x24
    169c:	f04f 0300 	mov.w	r3, #0
/home/aom1/Work/Linux/target/STM32MP1-DK2/buildroot/buildroot/output/build/optee-os-custom/lib/libutils/isoc/arch/arm/arm32_aeabi_ldivmod.c:69
    16a0:	ab02      	add	r3, sp, #8
/home/aom1/Work/Linux/target/STM32MP1-DK2/buildroot/buildroot/output/build/optee-os-custom/lib/libutils/isoc/arch/arm/arm32_aeabi_ldivmod.c:68
    16a2:	e9d0 8902 	ldrd	r8, r9, [r0, #8]
/home/aom1/Work/Linux/target/STM32MP1-DK2/buildroot/buildroot/output/build/optee-os-custom/lib/libutils/isoc/arch/arm/arm32_aeabi_ldivmod.c:69
    16a6:	2218      	movs	r2, #24
    16a8:	4618      	mov	r0, r3
    16aa:	f009 fb27 	bl	acfc <memset>
/home/aom1/Work/Linux/target/STM32MP1-DK2/buildroot/buildroot/output/build/optee-os-custom/lib/libutils/isoc/arch/arm/arm32_aeabi_ldivmod.c:71
    16ae:	9000      	str	r0, [sp, #0]
    16b0:	4642      	mov	r2, r8
    16b2:	464b      	mov	r3, r9
    16b4:	4630      	mov	r0, r6
    16b6:	4639      	mov	r1, r7
    16b8:	f7ff ff9c 	bl	15f4 <ul_div_qr>
/home/aom1/Work/Linux/target/STM32MP1-DK2/buildroot/buildroot/output/build/optee-os-custom/lib/libutils/isoc/arch/arm/arm32_aeabi_ldivmod.c:73
    16bc:	e9dd 2302 	ldrd	r2, r3, [sp, #8]
    16c0:	e9c4 2300 	strd	r2, r3, [r4]
/home/aom1/Work/Linux/target/STM32MP1-DK2/buildroot/buildroot/output/build/optee-os-custom/lib/libutils/isoc/arch/arm/arm32_aeabi_ldivmod.c:74
    16c4:	e9dd 2304 	ldrd	r2, r3, [sp, #16]
    16c8:	e9c4 2302 	strd	r2, r3, [r4, #8]
/home/aom1/Work/Linux/target/STM32MP1-DK2/buildroot/buildroot/output/build/optee-os-custom/lib/libutils/isoc/arch/arm/arm32_aeabi_ldivmod.c:66
    16cc:	4a09      	ldr	r2, [pc, #36]	; (16f4 <__ul_divmod+0x72>)
/home/aom1/Work/Linux/target/STM32MP1-DK2/buildroot/buildroot/output/build/optee-os-custom/lib/libutils/isoc/arch/arm/arm32_aeabi_ldivmod.c:75
    16ce:	4b08      	ldr	r3, [pc, #32]	; (16f0 <__ul_divmod+0x6e>)
/home/aom1/Work/Linux/target/STM32MP1-DK2/buildroot/buildroot/output/build/optee-os-custom/lib/libutils/isoc/arch/arm/arm32_aeabi_ldivmod.c:66
    16d0:	447a      	add	r2, pc
/home/aom1/Work/Linux/target/STM32MP1-DK2/buildroot/buildroot/output/build/optee-os-custom/lib/libutils/isoc/arch/arm/arm32_aeabi_ldivmod.c:75
    16d2:	58d3      	ldr	r3, [r2, r3]
    16d4:	681a      	ldr	r2, [r3, #0]
    16d6:	9b09      	ldr	r3, [sp, #36]	; 0x24
    16d8:	405a      	eors	r2, r3
    16da:	f04f 0300 	mov.w	r3, #0
    16de:	d001      	beq.n	16e4 <__ul_divmod+0x62>
    16e0:	f009 fb0b 	bl	acfa <__stack_chk_fail>
    16e4:	b00a      	add	sp, #40	; 0x28
    16e6:	e8bd 83d0 	ldmia.w	sp!, {r4, r6, r7, r8, r9, pc}
    16ea:	bf00      	nop
    16ec:	0000b9fc 	.word	0x0000b9fc
    16f0:	0000000c 	.word	0x0000000c
    16f4:	0000b9b4 	.word	0x0000b9b4

000016f8 <__l_divmod>:
__l_divmod():
/home/aom1/Work/Linux/target/STM32MP1-DK2/buildroot/buildroot/output/build/optee-os-custom/lib/libutils/isoc/arch/arm/arm32_aeabi_ldivmod.c:85
    16f8:	4a29      	ldr	r2, [pc, #164]	; (17a0 <__l_divmod+0xa8>)
/home/aom1/Work/Linux/target/STM32MP1-DK2/buildroot/buildroot/output/build/optee-os-custom/lib/libutils/isoc/arch/arm/arm32_aeabi_ldivmod.c:88
    16fa:	2100      	movs	r1, #0
/home/aom1/Work/Linux/target/STM32MP1-DK2/buildroot/buildroot/output/build/optee-os-custom/lib/libutils/isoc/arch/arm/arm32_aeabi_ldivmod.c:85
    16fc:	4b29      	ldr	r3, [pc, #164]	; (17a4 <__l_divmod+0xac>)
    16fe:	447a      	add	r2, pc
    1700:	e92d 43f0 	stmdb	sp!, {r4, r5, r6, r7, r8, r9, lr}
    1704:	b08b      	sub	sp, #44	; 0x2c
    1706:	58d3      	ldr	r3, [r2, r3]
/home/aom1/Work/Linux/target/STM32MP1-DK2/buildroot/buildroot/output/build/optee-os-custom/lib/libutils/isoc/arch/arm/arm32_aeabi_ldivmod.c:88
    1708:	f10d 0908 	add.w	r9, sp, #8
/home/aom1/Work/Linux/target/STM32MP1-DK2/buildroot/buildroot/output/build/optee-os-custom/lib/libutils/isoc/arch/arm/arm32_aeabi_ldivmod.c:86
    170c:	e9d0 7800 	ldrd	r7, r8, [r0]
/home/aom1/Work/Linux/target/STM32MP1-DK2/buildroot/buildroot/output/build/optee-os-custom/lib/libutils/isoc/arch/arm/arm32_aeabi_ldivmod.c:87
    1710:	e9d0 4602 	ldrd	r4, r6, [r0, #8]
/home/aom1/Work/Linux/target/STM32MP1-DK2/buildroot/buildroot/output/build/optee-os-custom/lib/libutils/isoc/arch/arm/arm32_aeabi_ldivmod.c:85
    1714:	4605      	mov	r5, r0
/home/aom1/Work/Linux/target/STM32MP1-DK2/buildroot/buildroot/output/build/optee-os-custom/lib/libutils/isoc/arch/arm/arm32_aeabi_ldivmod.c:88
    1716:	2218      	movs	r2, #24
/home/aom1/Work/Linux/target/STM32MP1-DK2/buildroot/buildroot/output/build/optee-os-custom/lib/libutils/isoc/arch/arm/arm32_aeabi_ldivmod.c:85
    1718:	681b      	ldr	r3, [r3, #0]
    171a:	9309      	str	r3, [sp, #36]	; 0x24
    171c:	f04f 0300 	mov.w	r3, #0
/home/aom1/Work/Linux/target/STM32MP1-DK2/buildroot/buildroot/output/build/optee-os-custom/lib/libutils/isoc/arch/arm/arm32_aeabi_ldivmod.c:88
    1720:	4648      	mov	r0, r9
    1722:	f009 faeb 	bl	acfc <memset>
/home/aom1/Work/Linux/target/STM32MP1-DK2/buildroot/buildroot/output/build/optee-os-custom/lib/libutils/isoc/arch/arm/arm32_aeabi_ldivmod.c:90
    1726:	f1b8 0f00 	cmp.w	r8, #0
    172a:	da29      	bge.n	1780 <__l_divmod+0x88>
/home/aom1/Work/Linux/target/STM32MP1-DK2/buildroot/buildroot/output/build/optee-os-custom/lib/libutils/isoc/arch/arm/arm32_aeabi_ldivmod.c:90 (discriminator 1)
    172c:	2c01      	cmp	r4, #1
    172e:	f176 0300 	sbcs.w	r3, r6, #0
    1732:	da2a      	bge.n	178a <__l_divmod+0x92>
/home/aom1/Work/Linux/target/STM32MP1-DK2/buildroot/buildroot/output/build/optee-os-custom/lib/libutils/isoc/arch/arm/arm32_aeabi_ldivmod.c:94
    1734:	427f      	negs	r7, r7
/home/aom1/Work/Linux/target/STM32MP1-DK2/buildroot/buildroot/output/build/optee-os-custom/lib/libutils/isoc/arch/arm/arm32_aeabi_ldivmod.c:95
    1736:	f04f 0301 	mov.w	r3, #1
/home/aom1/Work/Linux/target/STM32MP1-DK2/buildroot/buildroot/output/build/optee-os-custom/lib/libutils/isoc/arch/arm/arm32_aeabi_ldivmod.c:94
    173a:	eb68 0848 	sbc.w	r8, r8, r8, lsl #1
/home/aom1/Work/Linux/target/STM32MP1-DK2/buildroot/buildroot/output/build/optee-os-custom/lib/libutils/isoc/arch/arm/arm32_aeabi_ldivmod.c:95
    173e:	9307      	str	r3, [sp, #28]
/home/aom1/Work/Linux/target/STM32MP1-DK2/buildroot/buildroot/output/build/optee-os-custom/lib/libutils/isoc/arch/arm/arm32_aeabi_ldivmod.c:100
    1740:	1e33      	subs	r3, r6, #0
    1742:	4622      	mov	r2, r4
    1744:	da02      	bge.n	174c <__l_divmod+0x54>
    1746:	4262      	negs	r2, r4
    1748:	eb63 0343 	sbc.w	r3, r3, r3, lsl #1
    174c:	f8cd 9000 	str.w	r9, [sp]
    1750:	4638      	mov	r0, r7
    1752:	4641      	mov	r1, r8
    1754:	f7ff ff4e 	bl	15f4 <ul_div_qr>
/home/aom1/Work/Linux/target/STM32MP1-DK2/buildroot/buildroot/output/build/optee-os-custom/lib/libutils/isoc/arch/arm/arm32_aeabi_ldivmod.c:102
    1758:	e9dd 2302 	ldrd	r2, r3, [sp, #8]
    175c:	e9c5 2300 	strd	r2, r3, [r5]
/home/aom1/Work/Linux/target/STM32MP1-DK2/buildroot/buildroot/output/build/optee-os-custom/lib/libutils/isoc/arch/arm/arm32_aeabi_ldivmod.c:103
    1760:	e9dd 2304 	ldrd	r2, r3, [sp, #16]
    1764:	e9c5 2302 	strd	r2, r3, [r5, #8]
/home/aom1/Work/Linux/target/STM32MP1-DK2/buildroot/buildroot/output/build/optee-os-custom/lib/libutils/isoc/arch/arm/arm32_aeabi_ldivmod.c:85
    1768:	4a0f      	ldr	r2, [pc, #60]	; (17a8 <__l_divmod+0xb0>)
/home/aom1/Work/Linux/target/STM32MP1-DK2/buildroot/buildroot/output/build/optee-os-custom/lib/libutils/isoc/arch/arm/arm32_aeabi_ldivmod.c:104
    176a:	4b0e      	ldr	r3, [pc, #56]	; (17a4 <__l_divmod+0xac>)
/home/aom1/Work/Linux/target/STM32MP1-DK2/buildroot/buildroot/output/build/optee-os-custom/lib/libutils/isoc/arch/arm/arm32_aeabi_ldivmod.c:85
    176c:	447a      	add	r2, pc
/home/aom1/Work/Linux/target/STM32MP1-DK2/buildroot/buildroot/output/build/optee-os-custom/lib/libutils/isoc/arch/arm/arm32_aeabi_ldivmod.c:104
    176e:	58d3      	ldr	r3, [r2, r3]
    1770:	681a      	ldr	r2, [r3, #0]
    1772:	9b09      	ldr	r3, [sp, #36]	; 0x24
    1774:	405a      	eors	r2, r3
    1776:	f04f 0300 	mov.w	r3, #0
    177a:	d00d      	beq.n	1798 <__l_divmod+0xa0>
    177c:	f009 fabd 	bl	acfa <__stack_chk_fail>
/home/aom1/Work/Linux/target/STM32MP1-DK2/buildroot/buildroot/output/build/optee-os-custom/lib/libutils/isoc/arch/arm/arm32_aeabi_ldivmod.c:90 (discriminator 3)
    1780:	ea57 0308 	orrs.w	r3, r7, r8
    1784:	d0dc      	beq.n	1740 <__l_divmod+0x48>
/home/aom1/Work/Linux/target/STM32MP1-DK2/buildroot/buildroot/output/build/optee-os-custom/lib/libutils/isoc/arch/arm/arm32_aeabi_ldivmod.c:91
    1786:	2e00      	cmp	r6, #0
    1788:	dada      	bge.n	1740 <__l_divmod+0x48>
/home/aom1/Work/Linux/target/STM32MP1-DK2/buildroot/buildroot/output/build/optee-os-custom/lib/libutils/isoc/arch/arm/arm32_aeabi_ldivmod.c:93
    178a:	f1b8 0f00 	cmp.w	r8, #0
/home/aom1/Work/Linux/target/STM32MP1-DK2/buildroot/buildroot/output/build/optee-os-custom/lib/libutils/isoc/arch/arm/arm32_aeabi_ldivmod.c:92
    178e:	f04f 0301 	mov.w	r3, #1
    1792:	9306      	str	r3, [sp, #24]
/home/aom1/Work/Linux/target/STM32MP1-DK2/buildroot/buildroot/output/build/optee-os-custom/lib/libutils/isoc/arch/arm/arm32_aeabi_ldivmod.c:93
    1794:	dbce      	blt.n	1734 <__l_divmod+0x3c>
    1796:	e7d3      	b.n	1740 <__l_divmod+0x48>
/home/aom1/Work/Linux/target/STM32MP1-DK2/buildroot/buildroot/output/build/optee-os-custom/lib/libutils/isoc/arch/arm/arm32_aeabi_ldivmod.c:104
    1798:	b00b      	add	sp, #44	; 0x2c
    179a:	e8bd 83f0 	ldmia.w	sp!, {r4, r5, r6, r7, r8, r9, pc}
    179e:	bf00      	nop
    17a0:	0000b986 	.word	0x0000b986
    17a4:	0000000c 	.word	0x0000000c
    17a8:	0000b918 	.word	0x0000b918

000017ac <_assert_log>:
_assert_log():
/home/aom1/Work/Linux/target/STM32MP1-DK2/buildroot/buildroot/output/build/optee-os-custom/lib/libutee/assert.c:17
    17ac:	b57f      	push	{r0, r1, r2, r3, r4, r5, r6, lr}
/home/aom1/Work/Linux/target/STM32MP1-DK2/buildroot/buildroot/output/build/optee-os-custom/lib/libutee/assert.c:18
    17ae:	9304      	str	r3, [sp, #16]
    17b0:	4b07      	ldr	r3, [pc, #28]	; (17d0 <_assert_log+0x24>)
    17b2:	9102      	str	r1, [sp, #8]
    17b4:	2100      	movs	r1, #0
    17b6:	447b      	add	r3, pc
    17b8:	9300      	str	r3, [sp, #0]
    17ba:	2301      	movs	r3, #1
    17bc:	9203      	str	r2, [sp, #12]
    17be:	461a      	mov	r2, r3
    17c0:	9001      	str	r0, [sp, #4]
    17c2:	4608      	mov	r0, r1
    17c4:	f7ff facc 	bl	d60 <trace_printf>
/home/aom1/Work/Linux/target/STM32MP1-DK2/buildroot/buildroot/output/build/optee-os-custom/lib/libutee/assert.c:20
    17c8:	b007      	add	sp, #28
    17ca:	f85d fb04 	ldr.w	pc, [sp], #4
    17ce:	bf00      	nop
    17d0:	00009c2a 	.word	0x00009c2a

000017d4 <_assert_break>:
_assert_break():
/home/aom1/Work/Linux/target/STM32MP1-DK2/buildroot/buildroot/output/build/optee-os-custom/lib/libutee/assert.c:24
    17d4:	4802      	ldr	r0, [pc, #8]	; (17e0 <_assert_break+0xc>)
/home/aom1/Work/Linux/target/STM32MP1-DK2/buildroot/buildroot/output/build/optee-os-custom/lib/libutee/assert.c:23
    17d6:	b508      	push	{r3, lr}
/home/aom1/Work/Linux/target/STM32MP1-DK2/buildroot/buildroot/output/build/optee-os-custom/lib/libutee/assert.c:24
    17d8:	f003 eb52 	blx	4e80 <_utee_panic>
/home/aom1/Work/Linux/target/STM32MP1-DK2/buildroot/buildroot/output/build/optee-os-custom/lib/libutee/assert.c:26 (discriminator 1)
    17dc:	e7fe      	b.n	17dc <_assert_break+0x8>
    17de:	bf00      	nop
    17e0:	ffff0000 	.word	0xffff0000

000017e4 <trace_ext_puts>:
trace_ext_puts():
/home/aom1/Work/Linux/target/STM32MP1-DK2/buildroot/buildroot/output/build/optee-os-custom/lib/libutee/trace_ext.c:22
    17e4:	b510      	push	{r4, lr}
    17e6:	4604      	mov	r4, r0
/home/aom1/Work/Linux/target/STM32MP1-DK2/buildroot/buildroot/output/build/optee-os-custom/lib/libutee/trace_ext.c:26
    17e8:	f009 faa2 	bl	ad30 <strlen>
    17ec:	4601      	mov	r1, r0
    17ee:	4620      	mov	r0, r4
/home/aom1/Work/Linux/target/STM32MP1-DK2/buildroot/buildroot/output/build/optee-os-custom/lib/libutee/trace_ext.c:28
    17f0:	e8bd 4010 	ldmia.w	sp!, {r4, lr}
/home/aom1/Work/Linux/target/STM32MP1-DK2/buildroot/buildroot/output/build/optee-os-custom/lib/libutee/trace_ext.c:26
    17f4:	f009 bb04 	b.w	ae00 <___utee_log_from_thumb>

000017f8 <trace_ext_get_thread_id>:
trace_ext_get_thread_id():
/home/aom1/Work/Linux/target/STM32MP1-DK2/buildroot/buildroot/output/build/optee-os-custom/lib/libutee/trace_ext.c:33
    17f8:	f04f 30ff 	mov.w	r0, #4294967295	; 0xffffffff
    17fc:	4770      	bx	lr

000017fe <printf>:
printf():
/home/aom1/Work/Linux/target/STM32MP1-DK2/buildroot/buildroot/output/build/optee-os-custom/lib/libutee/trace_ext.c:41
    17fe:	b40f      	push	{r0, r1, r2, r3}
    1800:	b530      	push	{r4, r5, lr}
    1802:	b0c5      	sub	sp, #276	; 0x114
    1804:	4b17      	ldr	r3, [pc, #92]	; (1864 <printf+0x66>)
    1806:	9a48      	ldr	r2, [sp, #288]	; 0x120
    1808:	9201      	str	r2, [sp, #4]
    180a:	4a17      	ldr	r2, [pc, #92]	; (1868 <printf+0x6a>)
    180c:	447a      	add	r2, pc
    180e:	58d3      	ldr	r3, [r2, r3]
    1810:	681b      	ldr	r3, [r3, #0]
    1812:	9343      	str	r3, [sp, #268]	; 0x10c
    1814:	f04f 0300 	mov.w	r3, #0
/home/aom1/Work/Linux/target/STM32MP1-DK2/buildroot/buildroot/output/build/optee-os-custom/lib/libutee/trace_ext.c:46
    1818:	f7ff f9da 	bl	bd0 <trace_get_level>
    181c:	2800      	cmp	r0, #0
    181e:	dd19      	ble.n	1854 <printf+0x56>
/home/aom1/Work/Linux/target/STM32MP1-DK2/buildroot/buildroot/output/build/optee-os-custom/lib/libutee/trace_ext.c:50
    1820:	9a01      	ldr	r2, [sp, #4]
    1822:	ad03      	add	r5, sp, #12
/home/aom1/Work/Linux/target/STM32MP1-DK2/buildroot/buildroot/output/build/optee-os-custom/lib/libutee/trace_ext.c:49
    1824:	ab49      	add	r3, sp, #292	; 0x124
/home/aom1/Work/Linux/target/STM32MP1-DK2/buildroot/buildroot/output/build/optee-os-custom/lib/libutee/trace_ext.c:50
    1826:	f44f 7180 	mov.w	r1, #256	; 0x100
/home/aom1/Work/Linux/target/STM32MP1-DK2/buildroot/buildroot/output/build/optee-os-custom/lib/libutee/trace_ext.c:49
    182a:	9302      	str	r3, [sp, #8]
/home/aom1/Work/Linux/target/STM32MP1-DK2/buildroot/buildroot/output/build/optee-os-custom/lib/libutee/trace_ext.c:50
    182c:	4628      	mov	r0, r5
    182e:	f009 f9db 	bl	abe8 <vsnprintf>
/home/aom1/Work/Linux/target/STM32MP1-DK2/buildroot/buildroot/output/build/optee-os-custom/lib/libutee/trace_ext.c:53
    1832:	1e04      	subs	r4, r0, #0
    1834:	db02      	blt.n	183c <printf+0x3e>
/home/aom1/Work/Linux/target/STM32MP1-DK2/buildroot/buildroot/output/build/optee-os-custom/lib/libutee/trace_ext.c:56
    1836:	4628      	mov	r0, r5
    1838:	f7ff ffd4 	bl	17e4 <trace_ext_puts>
/home/aom1/Work/Linux/target/STM32MP1-DK2/buildroot/buildroot/output/build/optee-os-custom/lib/libutee/trace_ext.c:41
    183c:	4a0b      	ldr	r2, [pc, #44]	; (186c <printf+0x6e>)
/home/aom1/Work/Linux/target/STM32MP1-DK2/buildroot/buildroot/output/build/optee-os-custom/lib/libutee/trace_ext.c:59
    183e:	4b09      	ldr	r3, [pc, #36]	; (1864 <printf+0x66>)
/home/aom1/Work/Linux/target/STM32MP1-DK2/buildroot/buildroot/output/build/optee-os-custom/lib/libutee/trace_ext.c:41
    1840:	447a      	add	r2, pc
/home/aom1/Work/Linux/target/STM32MP1-DK2/buildroot/buildroot/output/build/optee-os-custom/lib/libutee/trace_ext.c:59
    1842:	58d3      	ldr	r3, [r2, r3]
    1844:	681a      	ldr	r2, [r3, #0]
    1846:	9b43      	ldr	r3, [sp, #268]	; 0x10c
    1848:	405a      	eors	r2, r3
    184a:	f04f 0300 	mov.w	r3, #0
    184e:	d003      	beq.n	1858 <printf+0x5a>
    1850:	f009 fa53 	bl	acfa <__stack_chk_fail>
/home/aom1/Work/Linux/target/STM32MP1-DK2/buildroot/buildroot/output/build/optee-os-custom/lib/libutee/trace_ext.c:47
    1854:	2400      	movs	r4, #0
    1856:	e7f1      	b.n	183c <printf+0x3e>
/home/aom1/Work/Linux/target/STM32MP1-DK2/buildroot/buildroot/output/build/optee-os-custom/lib/libutee/trace_ext.c:59
    1858:	4620      	mov	r0, r4
    185a:	b045      	add	sp, #276	; 0x114
    185c:	e8bd 4030 	ldmia.w	sp!, {r4, r5, lr}
    1860:	b004      	add	sp, #16
    1862:	4770      	bx	lr
    1864:	0000000c 	.word	0x0000000c
    1868:	0000b878 	.word	0x0000b878
    186c:	0000b844 	.word	0x0000b844

00001870 <puts>:
puts():
/home/aom1/Work/Linux/target/STM32MP1-DK2/buildroot/buildroot/output/build/optee-os-custom/lib/libutee/trace_ext.c:62
    1870:	b510      	push	{r4, lr}
    1872:	4604      	mov	r4, r0
/home/aom1/Work/Linux/target/STM32MP1-DK2/buildroot/buildroot/output/build/optee-os-custom/lib/libutee/trace_ext.c:63
    1874:	f7ff f9ac 	bl	bd0 <trace_get_level>
    1878:	2800      	cmp	r0, #0
    187a:	dd06      	ble.n	188a <puts+0x1a>
/home/aom1/Work/Linux/target/STM32MP1-DK2/buildroot/buildroot/output/build/optee-os-custom/lib/libutee/trace_ext.c:64
    187c:	4620      	mov	r0, r4
    187e:	f7ff ffb1 	bl	17e4 <trace_ext_puts>
/home/aom1/Work/Linux/target/STM32MP1-DK2/buildroot/buildroot/output/build/optee-os-custom/lib/libutee/trace_ext.c:65
    1882:	4803      	ldr	r0, [pc, #12]	; (1890 <puts+0x20>)
    1884:	4478      	add	r0, pc
    1886:	f7ff ffad 	bl	17e4 <trace_ext_puts>
/home/aom1/Work/Linux/target/STM32MP1-DK2/buildroot/buildroot/output/build/optee-os-custom/lib/libutee/trace_ext.c:68
    188a:	2001      	movs	r0, #1
    188c:	bd10      	pop	{r4, pc}
    188e:	bf00      	nop
    1890:	0000a400 	.word	0x0000a400

00001894 <putchar>:
putchar():
/home/aom1/Work/Linux/target/STM32MP1-DK2/buildroot/buildroot/output/build/optee-os-custom/lib/libutee/trace_ext.c:71
    1894:	4a12      	ldr	r2, [pc, #72]	; (18e0 <putchar+0x4c>)
    1896:	4b13      	ldr	r3, [pc, #76]	; (18e4 <putchar+0x50>)
    1898:	447a      	add	r2, pc
    189a:	b513      	push	{r0, r1, r4, lr}
    189c:	4604      	mov	r4, r0
    189e:	58d3      	ldr	r3, [r2, r3]
    18a0:	681b      	ldr	r3, [r3, #0]
    18a2:	9301      	str	r3, [sp, #4]
    18a4:	f04f 0300 	mov.w	r3, #0
/home/aom1/Work/Linux/target/STM32MP1-DK2/buildroot/buildroot/output/build/optee-os-custom/lib/libutee/trace_ext.c:72
    18a8:	2300      	movs	r3, #0
    18aa:	f88d 0000 	strb.w	r0, [sp]
    18ae:	f88d 3001 	strb.w	r3, [sp, #1]
/home/aom1/Work/Linux/target/STM32MP1-DK2/buildroot/buildroot/output/build/optee-os-custom/lib/libutee/trace_ext.c:74
    18b2:	f7ff f98d 	bl	bd0 <trace_get_level>
    18b6:	2800      	cmp	r0, #0
    18b8:	dd02      	ble.n	18c0 <putchar+0x2c>
/home/aom1/Work/Linux/target/STM32MP1-DK2/buildroot/buildroot/output/build/optee-os-custom/lib/libutee/trace_ext.c:75
    18ba:	4668      	mov	r0, sp
    18bc:	f7ff ff92 	bl	17e4 <trace_ext_puts>
/home/aom1/Work/Linux/target/STM32MP1-DK2/buildroot/buildroot/output/build/optee-os-custom/lib/libutee/trace_ext.c:71
    18c0:	4a09      	ldr	r2, [pc, #36]	; (18e8 <putchar+0x54>)
/home/aom1/Work/Linux/target/STM32MP1-DK2/buildroot/buildroot/output/build/optee-os-custom/lib/libutee/trace_ext.c:81
    18c2:	b2e0      	uxtb	r0, r4
/home/aom1/Work/Linux/target/STM32MP1-DK2/buildroot/buildroot/output/build/optee-os-custom/lib/libutee/trace_ext.c:82
    18c4:	4b07      	ldr	r3, [pc, #28]	; (18e4 <putchar+0x50>)
/home/aom1/Work/Linux/target/STM32MP1-DK2/buildroot/buildroot/output/build/optee-os-custom/lib/libutee/trace_ext.c:71
    18c6:	447a      	add	r2, pc
/home/aom1/Work/Linux/target/STM32MP1-DK2/buildroot/buildroot/output/build/optee-os-custom/lib/libutee/trace_ext.c:82
    18c8:	58d3      	ldr	r3, [r2, r3]
    18ca:	681a      	ldr	r2, [r3, #0]
    18cc:	9b01      	ldr	r3, [sp, #4]
    18ce:	405a      	eors	r2, r3
    18d0:	f04f 0300 	mov.w	r3, #0
    18d4:	d001      	beq.n	18da <putchar+0x46>
    18d6:	f009 fa10 	bl	acfa <__stack_chk_fail>
    18da:	b002      	add	sp, #8
    18dc:	bd10      	pop	{r4, pc}
    18de:	bf00      	nop
    18e0:	0000b7ec 	.word	0x0000b7ec
    18e4:	0000000c 	.word	0x0000000c
    18e8:	0000b7be 	.word	0x0000b7be

000018ec <__utee_from_attr>:
__utee_from_attr():
/home/aom1/Work/Linux/target/STM32MP1-DK2/buildroot/buildroot/output/build/optee-os-custom/lib/libutee/tee_api_objects.c:19
    18ec:	2318      	movs	r3, #24
/home/aom1/Work/Linux/target/STM32MP1-DK2/buildroot/buildroot/output/build/optee-os-custom/lib/libutee/tee_api_objects.c:16
    18ee:	b570      	push	{r4, r5, r6, lr}
/home/aom1/Work/Linux/target/STM32MP1-DK2/buildroot/buildroot/output/build/optee-os-custom/lib/libutee/tee_api_objects.c:23
    18f0:	2400      	movs	r4, #0
