
out/ta/avb/023f8f1a-292a-432b-8fc4-de8471358067.elf:     file format elf32-littlearm
out/ta/avb/023f8f1a-292a-432b-8fc4-de8471358067.elf
architecture: armv7, flags 0x00000150:
HAS_SYMS, DYNAMIC, D_PAGED
start address 0x00000a70

Program Header:
    LOAD off    0x00001000 vaddr 0x00000000 paddr 0x00000000 align 2**12
         filesz 0x00009614 memsz 0x00009614 flags r-x
    LOAD off    0x0000b000 vaddr 0x0000a000 paddr 0x0000a000 align 2**12
         filesz 0x000002a0 memsz 0x000072f0 flags rw-
 DYNAMIC off    0x0000b000 vaddr 0x0000a000 paddr 0x0000a000 align 2**2
         filesz 0x00000088 memsz 0x00000088 flags rw-
   STACK off    0x00000000 vaddr 0x00000000 paddr 0x00000000 align 2**4
         filesz 0x00000000 memsz 0x00000000 flags rwx

Dynamic Section:
  HASH                 0x000095e8
  GNU_HASH             0x0000952c
  STRTAB               0x000095b8
  SYMTAB               0x00009558
  STRSZ                0x0000002e
  SYMENT               0x00000010
  DEBUG                0x00000000
  REL                  0x0000a0cc
  RELSZ                0x00000108
  RELENT               0x00000008
  FLAGS_1              0x08000000
  RELCOUNT             0x00000013
private flags = 0x5000400: [Version5 EABI] [hard-float ABI]

Sections:
Idx Name          Size      VMA       LMA       File off  Algn
  0 .ta_head      00000020  00000000  00000000  00001000  2**3
                  CONTENTS, ALLOC, LOAD, READONLY, DATA
  1 .text         00008448  00000020  00000020  00001020  2**3
                  CONTENTS, ALLOC, LOAD, READONLY, CODE
  2 .rodata       000010c4  00008468  00008468  00009468  2**2
                  CONTENTS, ALLOC, LOAD, READONLY, DATA
  3 .gnu.hash     0000002c  0000952c  0000952c  0000a52c  2**2
                  CONTENTS, ALLOC, LOAD, READONLY, DATA
  4 .dynsym       00000060  00009558  00009558  0000a558  2**2
                  CONTENTS, ALLOC, LOAD, READONLY, DATA
  5 .dynstr       0000002e  000095b8  000095b8  0000a5b8  2**0
                  CONTENTS, ALLOC, LOAD, READONLY, DATA
  6 .hash         0000002c  000095e8  000095e8  0000a5e8  2**2
                  CONTENTS, ALLOC, LOAD, READONLY, DATA
  7 .dynamic      00000088  0000a000  0000a000  0000b000  2**2
                  CONTENTS, ALLOC, LOAD, DATA
  8 .got          00000044  0000a088  0000a088  0000b088  2**2
                  CONTENTS, ALLOC, LOAD, DATA
  9 .rel.got      00000070  0000a164  0000a164  0000b164  2**2
                  CONTENTS, ALLOC, LOAD, READONLY, DATA
 10 .data         000000cc  0000a1d4  0000a1d4  0000b1d4  2**2
                  CONTENTS, ALLOC, LOAD, DATA
 11 .bss          00007050  0000a2a0  0000a2a0  0000b2a0  2**2
                  ALLOC
 12 .debug_info   00014a98  00000000  00000000  0000b2a0  2**0
                  CONTENTS, READONLY, DEBUGGING, OCTETS
 13 .debug_abbrev 000039b0  00000000  00000000  0001fd38  2**0
                  CONTENTS, READONLY, DEBUGGING, OCTETS
 14 .debug_loc    00013db5  00000000  00000000  000236e8  2**0
                  CONTENTS, READONLY, DEBUGGING, OCTETS
 15 .debug_aranges 00000588  00000000  00000000  000374a0  2**3
                  CONTENTS, READONLY, DEBUGGING, OCTETS
 16 .debug_ranges 00000cf8  00000000  00000000  00037a28  2**3
                  CONTENTS, READONLY, DEBUGGING, OCTETS
 17 .debug_macro  00017ed4  00000000  00000000  00038720  2**0
                  CONTENTS, READONLY, DEBUGGING, OCTETS
 18 .debug_line   0000e71a  00000000  00000000  000505f4  2**0
                  CONTENTS, READONLY, DEBUGGING, OCTETS
 19 .debug_str    000183f9  00000000  00000000  0005ed0e  2**0
                  CONTENTS, READONLY, DEBUGGING, OCTETS
 20 .comment      0000005d  00000000  00000000  00077107  2**0
                  CONTENTS, READONLY
 21 .ARM.attributes 00000031  00000000  00000000  00077164  2**0
                  CONTENTS, READONLY
 22 .debug_frame  00002094  00000000  00000000  00077198  2**2
                  CONTENTS, READONLY, DEBUGGING, OCTETS
 23 .rel.dyn      00000098  0000a0cc  0000a0cc  0000b0cc  2**2
                  CONTENTS, ALLOC, LOAD, READONLY, DATA
SYMBOL TABLE:
00000000 l    d  .ta_head	00000000 .ta_head
00000020 l    d  .text	00000000 .text
00008468 l    d  .rodata	00000000 .rodata
0000952c l    d  .gnu.hash	00000000 .gnu.hash
00009558 l    d  .dynsym	00000000 .dynsym
000095b8 l    d  .dynstr	00000000 .dynstr
000095e8 l    d  .hash	00000000 .hash
0000a000 l    d  .dynamic	00000000 .dynamic
0000a088 l    d  .got	00000000 .got
0000a164 l    d  .rel.got	00000000 .rel.got
0000a1d4 l    d  .data	00000000 .data
0000a2a0 l    d  .bss	00000000 .bss
00000000 l    d  .debug_info	00000000 .debug_info
00000000 l    d  .debug_abbrev	00000000 .debug_abbrev
00000000 l    d  .debug_loc	00000000 .debug_loc
00000000 l    d  .debug_aranges	00000000 .debug_aranges
00000000 l    d  .debug_ranges	00000000 .debug_ranges
00000000 l    d  .debug_macro	00000000 .debug_macro
00000000 l    d  .debug_line	00000000 .debug_line
00000000 l    d  .debug_str	00000000 .debug_str
00000000 l    d  .comment	00000000 .comment
00000000 l    d  .ARM.attributes	00000000 .ARM.attributes
00000000 l    d  .debug_frame	00000000 .debug_frame
0000a0cc l    d  .rel.dyn	00000000 .rel.dyn
00000000 l    df *ABS*	00000000 user_ta_header.c
0000846c l     O .rodata	00000004 __compound_literal.4
00008470 l     O .rodata	00000004 __compound_literal.3
00008474 l     O .rodata	00000001 __compound_literal.2
00008475 l     O .rodata	00000001 __compound_literal.1
00008476 l     O .rodata	00000001 __compound_literal.0
00000000 l    df *ABS*	00000000 tee_api.c
00000020 l     F .text	00000066 update_out_param
00000196 l     F .text	00000182 copy_param
000089a9 l     O .rodata	0000000b __func__.0
0000a2a0 l     O .bss	00000004 tee_api_instance_data
00000000 l    df *ABS*	00000000 entry.c
00000620 l     F .text	0000007c open_rb_state
0000069c l     F .text	00000044 get_named_object_name
00008826 l     O .rodata	00000009 rb_obj_name
0000882f l     O .rodata	00000013 __func__.1
00008842 l     O .rodata	00000014 __func__.0
00008856 l     O .rodata	0000001b __func__.2
00000000 l    df *ABS*	00000000 ta_entry_a32.o
00000000 l    df *ABS*	00000000 trace.c
00008939 l     O .rodata	00000005 lvl_strs.0
00000000 l    df *ABS*	00000000 snprintk.c
00000d48 l     F .text	00000724 kprintf.constprop.0
00008976 l     O .rodata	00000011 HEXDIGITS
00008987 l     O .rodata	00000011 hexdigits
00000000 l    df *ABS*	00000000 arm32_aeabi_ldivmod_a32.o
00000000 l    df *ABS*	00000000 arm32_aeabi_ldivmod.c
000014b4 l     F .text	0000008e ul_div_qr
00000000 l    df *ABS*	00000000 trace_ext.c
00000000 l    df *ABS*	00000000 tee_api_objects.c
00000000 l    df *ABS*	00000000 tee_api_panic.c
000022a8 l     F .text	00000020 check_access
000022cc l     F .text	0000000a check_res.constprop.0
00000000 l    df *ABS*	00000000 tee_system_pta.c
00002384 l     F .text	00000050 invoke_system_pta
00008480 l     O .rodata	00000010 uuid.2
00008490 l     O .rodata	0000000a __func__.1
0000849a l     O .rodata	00000017 __func__.0
0000a2a4 l     O .bss	00000004 sess.3
00000000 l    df *ABS*	00000000 utee_syscalls_a32.o
00000000 l    df *ABS*	00000000 user_ta_entry.c
00002a30 l     F .text	0000006a _get_fn_array
00002a9a l     F .text	0000006a _fini_iterate_phdr_cb
00002b04 l     F .text	0000001c ta_header_get_session
00002b20 l     F .text	00000064 to_utee_params
00002b84 l     F .text	0000003c from_utee_params
00002bc0 l     F .text	00000064 _init_iterate_phdr_cb
00002c24 l     F .text	00000020 ta_header_save_params.part.0
00002d40 l     F .text	0000006c ta_header_remove_session
00008a22 l     O .rodata	00000016 __func__.0
0000a2a8 l     O .bss	00000004 _num_mod_init
0000a2ac l     O .bss	00000001 init_done
0000a230 l     O .data	00000008 ta_sessions
0000a238 l     O .data	00000008 __phdr_info_head
00000000 l    df *ABS*	00000000 abort.c
00000000 l    df *ABS*	00000000 tee_api_arith_mpi.c
00002fa0 l     F .text	00000020 api_panic
00002fc0 l     F .text	00000020 mpi_panic
00002fe0 l     F .text	00000050 get_mpi
00003030 l     F .text	00000040 copy_mpi_to_bigint
00003070 l     F .text	000000d8 bigint_binary
00003148 l     F .text	00000010 mpi_is_odd
00003158 l     F .text	00000016 rng_read
0000316e l     F .text	000004ba mpi_egcd
0000a2e0 l     O .bss	00003000 data.17
0000399c l     F .text	00000144 bigint_binary_mod
00008af6 l     O .rodata	00000008 __func__.14
00008afe l     O .rodata	0000000e __func__.10
00008b0c l     O .rodata	00000009 __func__.2
00008b15 l     O .rodata	00000012 __func__.16
00008b27 l     O .rodata	0000000f __func__.15
00008b36 l     O .rodata	0000001f __func__.13
00008b55 l     O .rodata	00000019 __func__.12
00008b6e l     O .rodata	00000012 __func__.6
00008b80 l     O .rodata	00000015 __func__.11
00008b95 l     O .rodata	0000000e __func__.9
00008ba3 l     O .rodata	0000000e __func__.8
00008bb1 l     O .rodata	0000000e __func__.7
00008bbf l     O .rodata	00000011 __func__.5
00008bd0 l     O .rodata	00000018 __func__.4
00008be8 l     O .rodata	0000001d __func__.3
00008c05 l     O .rodata	00000019 __func__.1
00008c1e l     O .rodata	00000015 __func__.0
00000000 l    df *ABS*	00000000 tcb.c
00008cc9 l     O .rodata	00000010 __func__.1
00008cd9 l     O .rodata	00000010 __func__.0
0000d2e0 l     O .bss	00000004 _tls_size
0000d2e4 l     O .bss	00000004 _tcb
00000000 l    df *ABS*	00000000 assert.c
00000000 l    df *ABS*	00000000 bignum.c
00004870 l     F .text	00000024 mpi_safe_cond_assign
00004894 l     F .text	0000003a mpi_get_digit
000048ce l     F .text	00000364 mpi_mul_hlp
00004c32 l     F .text	000000f4 mpi_montmul
00004d26 l     F .text	0000005a mpi_montred
00004d80 l     F .text	00000026 mpi_montg_init.isra.0
00004da6 l     F .text	00000086 mpi_bigendian_to_host.part.0
00004e2c l     F .text	00000064 mpi_fill_random_internal
00004fa0 l     F .text	00000036 mbedtls_mpi_resize_clear
0000644c l     F .text	00000084 mpi_check_small_factors
00006af0 l     F .text	000001d8 mpi_miller_rabin
000084b4 l     O .rodata	000002a0 small_prime
00008754 l     O .rodata	00000024 gcd_pairs
00000000 l    df *ABS*	00000000 platform_util.c
0000a240 l     O .data	00000004 memset_func
00000000 l    df *ABS*	00000000 bget_malloc.c
00007774 l     F .text	00000020 raw_malloc_return_hook
00007ea2 l     F .text	00000082 gen_malloc_add_pool
0000941f l     O .rodata	00000005 __func__.8
00009424 l     O .rodata	00000006 __func__.7
0000942a l     O .rodata	00000005 __func__.5
0000942f l     O .rodata	00000006 __func__.6
00009435 l     O .rodata	00000006 __func__.4
0000943b l     O .rodata	00000007 __func__.3
00009442 l     O .rodata	00000014 __func__.2
00009456 l     O .rodata	0000000e __func__.1
00009464 l     O .rodata	00000013 __func__.0
0000a244 l     O .data	0000005c malloc_ctx
00000000 l    df *ABS*	00000000 snprintf.c
00000000 l    df *ABS*	00000000 memcpy.c
00000000 l    df *ABS*	00000000 mempool.c
00009500 l     O .rodata	00000013 __func__.2
00009513 l     O .rodata	0000000b __func__.1
0000951e l     O .rodata	0000000e __func__.0
00000000 l    df *ABS*	00000000 stack_check.c
00000000 l    df *ABS*	00000000 memset.c
00000000 l    df *ABS*	00000000 memchr.c
00000000 l    df *ABS*	00000000 strlen.c
00000000 l    df *ABS*	00000000 memmove.c
00000000 l    df *ABS*	00000000 consttime_memcmp.c
00000000 l    df *ABS*	00000000 
0000a000 l     O *ABS*	00000000 _DYNAMIC
0000a088 l     O *ABS*	00000000 _GLOBAL_OFFSET_TABLE_
00008428 l     F .text	00000010 ___utee_panic_from_thumb
00008438 l     F .text	00000010 ___utee_check_access_rights_from_thumb
00008448 l     F .text	00000010 ___utee_cache_operation_from_thumb
00008458 l     F .text	00000010 ___utee_log_from_thumb
0000171c g     F .text	00000058 putchar
00001b44 g     F .text	000000ac TEE_PopulateTransientObject
0000446a g     F .text	00000004 TEE_BigIntConvertToFMM
0000406c g     F .text	00000008 TEE_BigIntSquareMod
00003ae0 g     F .text	00000144 TEE_BigIntShiftRight
00007fca g     F .text	00000002 raw_malloc_add_pool
000024c0 g     F .text	000000c0 tee_invoke_supp_plugin
00004f08 g     F .text	00000098 mbedtls_mpi_grow
000015b8 g     F .text	000000b4 __l_divmod
000005ee g     F .text	00000020 TEE_Realloc
00002372 g     F .text	00000012 __utee_check_inout_annotation
00007e0e g     F .text	00000008 raw_free
00001686 g     F .text	00000072 printf
00001bf0 g     F .text	00000022 TEE_InitRefAttribute
000025a8 g     F .text	00000014 _utee_log
000003dc g     F .text	000000e4 TEE_InvokeTACommand
000022d6 g     F .text	0000002e __utee_check_outbuf_annotation
00004e9c g     F .text	00000028 mbedtls_mpi_init_mempool
00002844 g     F .text	00000014 _utee_cryp_random_number_generate
00005456 g     F .text	0000006c mbedtls_mpi_write_binary
00000ce0 g     F .text	0000000e vsnprintk
00005a58 g     F .text	00000068 mbedtls_mpi_sub_int
000083a8 g     F .text	00000034 memmove
00008128 g     F .text	00000058 snprintf
00003940 g     F .text	0000005c TEE_BigIntCmpS32
0000a22c g     O .data	00000004 __stack_chk_guard
00001c12 g     F .text	00000022 TEE_InitValueAttribute
00004fd6 g     F .text	000000b6 mbedtls_mpi_shrink
00003cdc g     F .text	00000020 TEE_BigIntAdd
000027a4 g     F .text	00000014 _utee_cryp_obj_restrict_usage
00008478 g     O .rodata	00000004 ta_heap_size
00001ae0 g     F .text	00000064 TEE_ResetTransientObject
000028cc g     F .text	00000018 _utee_asymm_operate
00005c38 g     F .text	00000158 mbedtls_mpi_read_string
00003d1c g     F .text	000000a8 TEE_BigIntNeg
00002968 g     F .text	00000014 _utee_storage_free_enum
00000020 g       .text	00000000 __text_start
00002020 g     F .text	0000002c TEE_StartPersistentObjectEnumerator
00005566 g     F .text	00000078 mbedtls_mpi_shift_r
000080d4 g     F .text	00000054 malloc_buffer_overlaps_heap
0000270c g     F .text	00000014 _utee_hash_init
00004034 g     F .text	0000001c TEE_BigIntSubMod
000071e6 g     F .text	00000246 mbedtls_mpi_gen_prime
00005278 g     F .text	00000022 mbedtls_mpi_get_bit
000053a8 g     F .text	00000042 mbedtls_mpi_read_binary
00000c20 g     F .text	00000058 trace_printf
000064d6 g     F .text	00000004 mbedtls_mpi_montmul
00002a1c g     F .text	00000014 _utee_cache_operation
00008190 g     F .text	000000d8 memcpy
0000446e g     F .text	0000009a TEE_BigIntConvertFromFMM
000022c8 g     F .text	00000004 TEE_Panic
0000149c g     F .text	00000018 __aeabi_uldivmod
000016f8 g     F .text	00000024 puts
00004508 g     F .text	000000f4 TEE_BigIntComputeFMM
00007d9c g     F .text	0000001c malloc_get_stats
0000057c g     F .text	00000016 TEE_GetREETime
00007fcc g     F .text	00000018 raw_malloc_get_stats
00001f90 g     F .text	00000068 TEE_AllocatePersistentObjectEnumerator
0000a1d8 g     O .data	00000054 ta_props
00002304 g     F .text	0000001a __utee_check_instring_annotation
00007f24 g     F .text	00000014 malloc
0000835c g     F .text	0000000a __ta_entry_c
00001d34 g     F .text	0000008c TEE_GenerateKey
00008180 g     F .text	0000000e vsnprintf
0000a1d4 g     O .data	00000004 trace_level
000038d4 g     F .text	0000006c TEE_BigIntCmp
00008468 g     O .rodata	00000004 ta_num_props
00007c04 g     F .text	00000084 bgetr
000028fc g     F .text	00000018 _utee_storage_obj_open
00008350 g     F .text	0000000c mempool_free
00002720 g     F .text	00000014 _utee_hash_update
00003730 g     F .text	0000008c TEE_BigIntConvertToOctetString
00005320 g     F .text	00000036 mbedtls_mpi_bitlen
00003c24 g     F .text	00000060 TEE_BigIntGetBit
0000847c g     O .rodata	00000003 trace_ext_prefix
000029a4 g     F .text	00000014 _utee_storage_next_enum
00007dfc g     F .text	00000012 raw_malloc
0000799c g     F .text	00000060 bgetz
000004cc g     F .text	0000000c TEE_GetInstanceData
000004fa g     F .text	0000001e TEE_Wait
00005ac0 g     F .text	0000011c mbedtls_mpi_mul_mpi
00000614 g     F .text	00000006 TEE_CacheFlush
00000aa4 g     F .text	0000017c trace_vprintf
000006e4 g     F .text	00000002 TA_DestroyEntryPoint
00004e90 g     F .text	0000000c mbedtls_mpi_init
0000292c g     F .text	00000014 _utee_storage_obj_del
000052ec g     F .text	00000034 mbedtls_mpi_lsb
00004838 g     F .text	00000028 _assert_log
000026e4 g     F .text	00000014 _utee_cryp_state_copy
00004466 g     F .text	00000004 TEE_BigIntFMMContextSizeInU32
00002440 g     F .text	00000080 tee_unmap
00001f56 g     F .text	0000003a TEE_RenamePersistentObject
00003628 g     F .text	00000044 _TEE_MathAPI_Init
000045fc g     F .text	0000017c __utee_tcb_init
00005960 g     F .text	00000048 mbedtls_mpi_add_mpi
00002f88 g     F .text	00000018 abort
00006cc8 g     F .text	00000128 mbedtls_mpi_random
0000836a g     F .text	00000002 __stack_chk_fail
0000234c g     F .text	00000012 __utee_check_out_annotation
0000d2ec g     O .bss	00004000 ta_heap
00004074 g     F .text	000000f4 TEE_BigIntInvMod
00002c44 g     F .text	000000ec __utee_call_elf_init_fn
000006ea g     F .text	00000002 TA_CloseSessionEntryPoint
00002614 g     F .text	00000014 _utee_close_ta_session
00001dc0 g     F .text	000000a0 TEE_OpenPersistentObject
000059a8 g     F .text	0000004a mbedtls_mpi_sub_mpi
000083dc g     F .text	00000048 consttime_memcmp
00002594 g     F .text	00000014 _utee_return
000025bc g     F .text	00000014 __utee_panic
00004778 g     F .text	00000018 __tls_get_addr
000006ec g     F .text	00000384 TA_InvokeCommandEntryPoint
00002d30 g     F .text	00000010 __utee_call_elf_fini_fn
00007fa4 g     F .text	00000010 free_wipe
000082ec g     F .text	0000003c mempool_alloc
00002580 g     F .text	00000014 _utee_panic
00007fb8 g     F .text	00000012 raw_malloc_init_ctx
00008328 g     F .text	00000028 mempool_calloc
00002a08 g     F .text	00000014 _utee_cryp_obj_generate_key
000029e0 g     F .text	00000014 _utee_storage_obj_trunc
00001cd0 g     F .text	00000064 TEE_CopyObjectAttributes
00002668 g     F .text	00000014 _utee_unmask_cancellation
00007f38 g     F .text	00000020 calloc
00000592 g     F .text	00000052 TEE_Malloc
0000018c g     F .text	0000000a TEE_CheckMemoryAccessRights
00001542 g     F .text	00000076 __ul_divmod
000025d0 g     F .text	00000018 _utee_get_property
00005240 g     F .text	00000038 mbedtls_mpi_lset
000020f0 g     F .text	0000008c TEE_ReadObjectData
0000187c g     F .text	000000a8 TEE_GetObjectBufferAttribute
000006e6 g     F .text	00000004 TA_OpenSessionEntryPoint
00004790 g     F .text	000000a8 dl_iterate_phdr
000112f0 g       .bss	00000000 __ftrace_buf_end
0000a2dc g     O .bss	00000004 ta_param_types
0000616c g     F .text	00000068 mbedtls_mpi_div_int
00001774 g     F .text	0000003e __utee_from_attr
00007144 g     F .text	00000098 mbedtls_mpi_is_prime_ext
000043f4 g     F .text	00000064 TEE_BigIntIsProbablePrime
00005bdc g     F .text	0000005c mbedtls_mpi_mul_int
00001f1c g     F .text	00000024 TEE_CloseAndDeletePersistentObject1
000064de g     F .text	000004aa mbedtls_mpi_exp_mod
00005150 g     F .text	0000005c mbedtls_mpi_safe_cond_assign
000056c4 g     F .text	000000a8 mbedtls_mpi_lt_mpi_ct
0000366c g     F .text	00000038 TEE_BigIntInit
0000231e g     F .text	0000002e __utee_check_outstring_annotation
000004d8 g     F .text	00000004 TEE_MemMove
00007760 g     F .text	00000014 mbedtls_platform_zeroize
000036a4 g     F .text	0000008c TEE_BigIntConvertFromOctetString
000028b4 g     F .text	00000018 _utee_authenc_dec_final
000055de g     F .text	00000062 mbedtls_mpi_cmp_abs
000029b8 g     F .text	00000014 _utee_storage_obj_read
0000837c g     F .text	0000001c memchr
000000ec g     F .text	00000050 TEE_UnmaskCancellation
000017b2 g     F .text	0000002a TEE_GetObjectInfo
0000742c g     F .text	00000334 mbedtls_mpi_self_test
000029f4 g     F .text	00000014 _utee_storage_obj_seek
00001a7c g     F .text	00000064 TEE_FreeTransientObject
00002654 g     F .text	00000014 _utee_check_access_rights
0000576c g     F .text	00000064 mbedtls_mpi_cmp_int
0000297c g     F .text	00000014 _utee_storage_reset_enum
0000235e g     F .text	00000014 __utee_check_attr_in_annotation
00002884 g     F .text	00000018 _utee_authenc_update_payload
00003fc8 g     F .text	00000050 TEE_BigIntMod
00006238 g     F .text	0000006c mbedtls_mpi_mod_int
00005362 g     F .text	00000046 mbedtls_mpi_read_binary_le
00003ea6 g     F .text	00000122 TEE_BigIntDiv
000027cc g     F .text	00000014 _utee_cryp_obj_alloc
000112f0 g       .bss	00000000 __ftrace_buf_start
0000508c g     F .text	00000066 mbedtls_mpi_copy
00007d88 g     F .text	00000014 malloc_reset_stats
0000146c g     F .text	00000016 __vsprintf
000026b8 g     F .text	00000014 _utee_set_ta_time
00002628 g     F .text	00000018 _utee_invoke_ta_command
000017fc g     F .text	00000020 TEE_RestrictObjectUsage1
00007f58 g     F .text	0000001c realloc
000050f2 g     F .text	0000005e mbedtls_mpi_swap
00008268 g     F .text	00000084 mempool_alloc_pool
00003dc4 g     F .text	000000dc TEE_BigIntMul
00007fb4 g     F .text	00000004 raw_malloc_get_ctx_size
000054c2 g     F .text	000000a4 mbedtls_mpi_shift_l
00005640 g     F .text	00000084 mbedtls_mpi_cmp_mpi
000004e0 g     F .text	00000004 TEE_MemFill
00007fe4 g     F .text	00000010 malloc_add_pool
00000a90 g     F .text	00000014 trace_get_level
000057d0 g     F .text	000000ae mbedtls_mpi_add_abs
0000181c g     F .text	00000060 TEE_RestrictObjectUsage
0000445e g     F .text	00000008 TEE_BigIntFMMSizeInU32
00007e5e g     F .text	00000044 raw_realloc
00004458 g     F .text	00000004 TEE_BigIntInitFMM
000019f4 g     F .text	00000014 TEE_CloseObject
0000274c g     F .text	00000014 _utee_cipher_init
00002dac g     F .text	000001dc __utee_entry
00008468 g       .text	00000000 __text_end
00004168 g     F .text	000000b0 TEE_BigIntRelativePrime
000061d4 g     F .text	00000064 mbedtls_mpi_mod_mpi
00002790 g     F .text	00000014 _utee_cryp_obj_get_info
00007c88 g     F .text	0000009c bpool
000026cc g     F .text	00000018 _utee_cryp_state_alloc
0000009a g     F .text	00000052 TEE_GetCancellationFlag
00006988 g     F .text	00000134 mbedtls_mpi_gcd
00000554 g     F .text	00000028 TEE_SetTAPersistentTime
000053ea g     F .text	0000006c mbedtls_mpi_write_binary_le
0000836c g     F .text	00000010 memset
00007db8 g     F .text	00000044 raw_memalign
00000518 g     F .text	0000003c TEE_GetTAPersistentTime
00000c78 g     F .text	00000002 dhex_dump
00001e60 g     F .text	000000bc TEE_CreatePersistentObject
0000013c g     F .text	00000050 TEE_MaskCancellation
000021bc g     F .text	00000038 TEE_TruncateObjectData
000027b8 g     F .text	00000014 _utee_cryp_obj_get_attr
000017dc g     F .text	00000020 TEE_GetObjectInfo1
00002778 g     F .text	00000018 _utee_cipher_final
00000a74 g     F .text	0000001c trace_set_level
00001924 g     F .text	000000d0 TEE_GetObjectValueAttribute
000026f8 g     F .text	00000014 _utee_cryp_state_free
000025fc g     F .text	00000018 _utee_open_ta_session
00003840 g     F .text	00000094 TEE_BigIntConvertToS32
00003cfc g     F .text	00000020 TEE_BigIntSub
00008366 g     F .text	00000004 tahead_get_trace_level
00002990 g     F .text	00000014 _utee_storage_start_enum
000021f4 g     F .text	000000b4 TEE_SeekObjectData
000023d4 g     F .text	0000006c tee_map_zi
000064da g     F .text	00000004 mbedtls_mpi_montred
00007f74 g     F .text	00000020 memalign
000037bc g     F .text	00000084 TEE_BigIntConvertFromS32
000059f2 g     F .text	00000066 mbedtls_mpi_add_int
0000289c g     F .text	00000018 _utee_authenc_enc_final
00007ff4 g     F .text	000000e0 malloc_buffer_is_within_alloced
000027e0 g     F .text	00000014 _utee_cryp_obj_close
0000445c g     F .text	00000002 TEE_BigIntInitFMMContext
0000267c g     F .text	00000014 _utee_mask_cancellation
00002940 g     F .text	00000014 _utee_storage_obj_rename
0000200c g     F .text	00000014 TEE_ResetPersistentObjectEnumerator
0000217c g     F .text	00000040 TEE_WriteObjectData
00003ea0 g     F .text	00000006 TEE_BigIntSquare
000029cc g     F .text	00000014 _utee_storage_obj_write
000006e0 g     F .text	00000004 TA_CreateEntryPoint
00000a70 g     F .text	00000004 __ta_entry
00002870 g     F .text	00000014 _utee_authenc_update_aad
000064d0 g     F .text	00000006 mbedtls_mpi_montg_init
00000cee g     F .text	0000005a snprintk
00003c84 g     F .text	00000058 TEE_BigIntGetBitCount
0000281c g     F .text	00000014 _utee_cryp_obj_copy
00004050 g     F .text	0000001c TEE_BigIntMulMod
00006df0 g     F .text	00000354 mbedtls_mpi_inv_mod
0000a2bc g     O .bss	00000020 ta_params
00005d90 g     F .text	000003dc mbedtls_mpi_div_mpi
00005356 g     F .text	0000000c mbedtls_mpi_size
00007794 g     F .text	00000208 bget
00001a08 g     F .text	00000074 TEE_AllocateTransientObject
00002690 g     F .text	00000014 _utee_wait
0000529a g     F .text	00000052 mbedtls_mpi_set_bit
000005e4 g     F .text	0000000a TEE_Free
000071dc g     F .text	0000000a mbedtls_mpi_is_prime
0000061a g     F .text	00000006 TEE_CacheInvalidate
00004860 g     F .text	00000010 _assert_break
00004018 g     F .text	0000001c TEE_BigIntAddMod
000026a4 g     F .text	00000014 _utee_get_time
00002808 g     F .text	00000014 _utee_cryp_obj_populate
000004dc g     F .text	00000004 TEE_MemCompare
00002760 g     F .text	00000018 _utee_cipher_update
00000c7c g     F .text	00000064 __vsnprintf
0000a2b0 g     O .bss	0000000c __elf_phdr_info
00001ff8 g     F .text	00000014 TEE_FreePersistentObjectEnumerator
00000318 g     F .text	000000c4 TEE_OpenTASession
0000166c g     F .text	00000014 trace_ext_puts
00001680 g     F .text	00000006 trace_ext_get_thread_id
00001f40 g     F .text	00000016 TEE_CloseAndDeletePersistentObject
00002830 g     F .text	00000014 _utee_cryp_derive_key
00004ec4 g     F .text	00000044 mbedtls_mpi_free
000027f4 g     F .text	00000014 _utee_cryp_obj_reset
0000060e g     F .text	00000006 TEE_CacheClean
000025e8 g     F .text	00000014 _utee_get_property_name_to_index
00007e16 g     F .text	00000048 raw_calloc
000051ac g     F .text	00000094 mbedtls_mpi_safe_cond_swap
00002858 g     F .text	00000018 _utee_authenc_init
00001c34 g     F .text	0000009c TEE_CopyObjectAttributes1
00008398 g     F .text	00000010 strlen
00004218 g     F .text	000001dc TEE_BigIntComputeExtendedGcd
00002954 g     F .text	00000014 _utee_storage_alloc_enum
000004e4 g     F .text	00000016 TEE_GetSystemTime
000028e4 g     F .text	00000018 _utee_asymm_verify
00000000 g     O .ta_head	00000020 ta_head
000079fc g     F .text	00000208 brel
0000587e g     F .text	000000e2 mbedtls_mpi_sub_abs
00006abc g     F .text	00000034 mbedtls_mpi_fill_random
000004c0 g     F .text	0000000c TEE_SetInstanceData
00002640 g     F .text	00000014 _utee_get_cancellation_flag
00001484 g     F .text	00000018 __aeabi_ldivmod
000062a4 g     F .text	000001a8 mbedtls_mpi_write_string
0000204c g     F .text	000000a4 TEE_GetNextPersistentObject
00000086 g     F .text	00000014 TEE_CloseTASession
00002914 g     F .text	00000018 _utee_storage_obj_create
00007f94 g     F .text	00000010 free
00007d24 g     F .text	00000064 bstats
0000d2e8 g     O .bss	00000004 mbedtls_mpi_mempool
00002734 g     F .text	00000018 _utee_hash_final



Disassembly of section .text:

00000020 <update_out_param>:
update_out_param():
/home/aom1/Work/Linux/target/STM32MP1-DK2/buildroot/buildroot/output/build/optee-os-custom/lib/libutee/tee_api.c:121
      20:	e92d 47f0 	stmdb	sp!, {r4, r5, r6, r7, r8, r9, sl, lr}
      24:	4607      	mov	r7, r0
/home/aom1/Work/Linux/target/STM32MP1-DK2/buildroot/buildroot/output/build/optee-os-custom/lib/libutee/tee_api.c:123
      26:	f8d2 a000 	ldr.w	sl, [r2]
/home/aom1/Work/Linux/target/STM32MP1-DK2/buildroot/buildroot/output/build/optee-os-custom/lib/libutee/tee_api.c:121
      2a:	4688      	mov	r8, r1
/home/aom1/Work/Linux/target/STM32MP1-DK2/buildroot/buildroot/output/build/optee-os-custom/lib/libutee/tee_api.c:125
      2c:	4614      	mov	r4, r2
      2e:	4606      	mov	r6, r0
/home/aom1/Work/Linux/target/STM32MP1-DK2/buildroot/buildroot/output/build/optee-os-custom/lib/libutee/tee_api.c:123
      30:	2500      	movs	r5, #0
/home/aom1/Work/Linux/target/STM32MP1-DK2/buildroot/buildroot/output/build/optee-os-custom/lib/libutee/tee_api.c:129
      32:	fa2a f205 	lsr.w	r2, sl, r5
/home/aom1/Work/Linux/target/STM32MP1-DK2/buildroot/buildroot/output/build/optee-os-custom/lib/libutee/tee_api.c:127
      36:	f8d4 9010 	ldr.w	r9, [r4, #16]
/home/aom1/Work/Linux/target/STM32MP1-DK2/buildroot/buildroot/output/build/optee-os-custom/lib/libutee/tee_api.c:129
      3a:	f012 0f0c 	tst.w	r2, #12
      3e:	f002 030f 	and.w	r3, r2, #15
      42:	d108      	bne.n	56 <update_out_param+0x36>
      44:	f012 0f0e 	tst.w	r2, #14
      48:	d008      	beq.n	5c <update_out_param+0x3c>
/home/aom1/Work/Linux/target/STM32MP1-DK2/buildroot/buildroot/output/build/optee-os-custom/lib/libutee/tee_api.c:126
      4a:	68a3      	ldr	r3, [r4, #8]
      4c:	f847 3015 	str.w	r3, [r7, r5, lsl #1]
/home/aom1/Work/Linux/target/STM32MP1-DK2/buildroot/buildroot/output/build/optee-os-custom/lib/libutee/tee_api.c:140
      50:	f8c6 9004 	str.w	r9, [r6, #4]
/home/aom1/Work/Linux/target/STM32MP1-DK2/buildroot/buildroot/output/build/optee-os-custom/lib/libutee/tee_api.c:141
      54:	e002      	b.n	5c <update_out_param+0x3c>
/home/aom1/Work/Linux/target/STM32MP1-DK2/buildroot/buildroot/output/build/optee-os-custom/lib/libutee/tee_api.c:129
      56:	3b06      	subs	r3, #6
      58:	2b01      	cmp	r3, #1
      5a:	d907      	bls.n	6c <update_out_param+0x4c>
/home/aom1/Work/Linux/target/STM32MP1-DK2/buildroot/buildroot/output/build/optee-os-custom/lib/libutee/tee_api.c:125 (discriminator 2)
      5c:	3504      	adds	r5, #4
      5e:	3410      	adds	r4, #16
      60:	2d10      	cmp	r5, #16
      62:	f106 0608 	add.w	r6, r6, #8
      66:	d1e4      	bne.n	32 <update_out_param+0x12>
/home/aom1/Work/Linux/target/STM32MP1-DK2/buildroot/buildroot/output/build/optee-os-custom/lib/libutee/tee_api.c:146
      68:	e8bd 87f0 	ldmia.w	sp!, {r4, r5, r6, r7, r8, r9, sl, pc}
/home/aom1/Work/Linux/target/STM32MP1-DK2/buildroot/buildroot/output/build/optee-os-custom/lib/libutee/tee_api.c:137
      6c:	f858 1005 	ldr.w	r1, [r8, r5]
      70:	2900      	cmp	r1, #0
      72:	d0ed      	beq.n	50 <update_out_param+0x30>
/home/aom1/Work/Linux/target/STM32MP1-DK2/buildroot/buildroot/output/build/optee-os-custom/lib/libutee/tee_api.c:139
      74:	6872      	ldr	r2, [r6, #4]
/home/aom1/Work/Linux/target/STM32MP1-DK2/buildroot/buildroot/output/build/optee-os-custom/lib/libutee/tee_api.c:138
      76:	f857 0015 	ldr.w	r0, [r7, r5, lsl #1]
      7a:	454a      	cmp	r2, r9
      7c:	bf28      	it	cs
      7e:	464a      	movcs	r2, r9
      80:	f008 f886 	bl	8190 <memcpy>
      84:	e7e4      	b.n	50 <update_out_param+0x30>

00000086 <TEE_CloseTASession>:
TEE_CloseTASession():
/home/aom1/Work/Linux/target/STM32MP1-DK2/buildroot/buildroot/output/build/optee-os-custom/lib/libutee/tee_api.c:195
      86:	b508      	push	{r3, lr}
/home/aom1/Work/Linux/target/STM32MP1-DK2/buildroot/buildroot/output/build/optee-os-custom/lib/libutee/tee_api.c:196
      88:	b130      	cbz	r0, 98 <TEE_CloseTASession+0x12>
/home/aom1/Work/Linux/target/STM32MP1-DK2/buildroot/buildroot/output/build/optee-os-custom/lib/libutee/tee_api.c:197
      8a:	f002 eac4 	blx	2614 <_utee_close_ta_session>
/home/aom1/Work/Linux/target/STM32MP1-DK2/buildroot/buildroot/output/build/optee-os-custom/lib/libutee/tee_api.c:199
      8e:	b118      	cbz	r0, 98 <TEE_CloseTASession+0x12>
/home/aom1/Work/Linux/target/STM32MP1-DK2/buildroot/buildroot/output/build/optee-os-custom/lib/libutee/tee_api.c:202
      90:	e8bd 4008 	ldmia.w	sp!, {r3, lr}
/home/aom1/Work/Linux/target/STM32MP1-DK2/buildroot/buildroot/output/build/optee-os-custom/lib/libutee/tee_api.c:200
      94:	f002 b918 	b.w	22c8 <TEE_Panic>
/home/aom1/Work/Linux/target/STM32MP1-DK2/buildroot/buildroot/output/build/optee-os-custom/lib/libutee/tee_api.c:202
      98:	bd08      	pop	{r3, pc}

0000009a <TEE_GetCancellationFlag>:
TEE_GetCancellationFlag():
/home/aom1/Work/Linux/target/STM32MP1-DK2/buildroot/buildroot/output/build/optee-os-custom/lib/libutee/tee_api.c:257
      9a:	b507      	push	{r0, r1, r2, lr}
/home/aom1/Work/Linux/target/STM32MP1-DK2/buildroot/buildroot/output/build/optee-os-custom/lib/libutee/tee_api.c:259
      9c:	4668      	mov	r0, sp
/home/aom1/Work/Linux/target/STM32MP1-DK2/buildroot/buildroot/output/build/optee-os-custom/lib/libutee/tee_api.c:257
      9e:	4a10      	ldr	r2, [pc, #64]	; (e0 <TEE_GetCancellationFlag+0x46>)
      a0:	4b10      	ldr	r3, [pc, #64]	; (e4 <TEE_GetCancellationFlag+0x4a>)
      a2:	447a      	add	r2, pc
      a4:	58d3      	ldr	r3, [r2, r3]
      a6:	681b      	ldr	r3, [r3, #0]
      a8:	9301      	str	r3, [sp, #4]
      aa:	f04f 0300 	mov.w	r3, #0
/home/aom1/Work/Linux/target/STM32MP1-DK2/buildroot/buildroot/output/build/optee-os-custom/lib/libutee/tee_api.c:259
      ae:	f002 eac8 	blx	2640 <_utee_get_cancellation_flag>
/home/aom1/Work/Linux/target/STM32MP1-DK2/buildroot/buildroot/output/build/optee-os-custom/lib/libutee/tee_api.c:261
      b2:	b108      	cbz	r0, b8 <TEE_GetCancellationFlag+0x1e>
/home/aom1/Work/Linux/target/STM32MP1-DK2/buildroot/buildroot/output/build/optee-os-custom/lib/libutee/tee_api.c:262
      b4:	2300      	movs	r3, #0
      b6:	9300      	str	r3, [sp, #0]
/home/aom1/Work/Linux/target/STM32MP1-DK2/buildroot/buildroot/output/build/optee-os-custom/lib/libutee/tee_api.c:257
      b8:	4a0b      	ldr	r2, [pc, #44]	; (e8 <TEE_GetCancellationFlag+0x4e>)
/home/aom1/Work/Linux/target/STM32MP1-DK2/buildroot/buildroot/output/build/optee-os-custom/lib/libutee/tee_api.c:264
      ba:	4b0a      	ldr	r3, [pc, #40]	; (e4 <TEE_GetCancellationFlag+0x4a>)
/home/aom1/Work/Linux/target/STM32MP1-DK2/buildroot/buildroot/output/build/optee-os-custom/lib/libutee/tee_api.c:257
      bc:	447a      	add	r2, pc
/home/aom1/Work/Linux/target/STM32MP1-DK2/buildroot/buildroot/output/build/optee-os-custom/lib/libutee/tee_api.c:263
      be:	9800      	ldr	r0, [sp, #0]
/home/aom1/Work/Linux/target/STM32MP1-DK2/buildroot/buildroot/output/build/optee-os-custom/lib/libutee/tee_api.c:264
      c0:	58d3      	ldr	r3, [r2, r3]
/home/aom1/Work/Linux/target/STM32MP1-DK2/buildroot/buildroot/output/build/optee-os-custom/lib/libutee/tee_api.c:263
      c2:	3800      	subs	r0, #0
      c4:	bf18      	it	ne
      c6:	2001      	movne	r0, #1
/home/aom1/Work/Linux/target/STM32MP1-DK2/buildroot/buildroot/output/build/optee-os-custom/lib/libutee/tee_api.c:264
      c8:	681a      	ldr	r2, [r3, #0]
      ca:	9b01      	ldr	r3, [sp, #4]
      cc:	405a      	eors	r2, r3
      ce:	f04f 0300 	mov.w	r3, #0
      d2:	d001      	beq.n	d8 <TEE_GetCancellationFlag+0x3e>
      d4:	f008 f949 	bl	836a <__stack_chk_fail>
      d8:	b003      	add	sp, #12
      da:	f85d fb04 	ldr.w	pc, [sp], #4
      de:	bf00      	nop
      e0:	00009fe2 	.word	0x00009fe2
      e4:	0000000c 	.word	0x0000000c
      e8:	00009fc8 	.word	0x00009fc8

000000ec <TEE_UnmaskCancellation>:
TEE_UnmaskCancellation():
/home/aom1/Work/Linux/target/STM32MP1-DK2/buildroot/buildroot/output/build/optee-os-custom/lib/libutee/tee_api.c:267
      ec:	b507      	push	{r0, r1, r2, lr}
/home/aom1/Work/Linux/target/STM32MP1-DK2/buildroot/buildroot/output/build/optee-os-custom/lib/libutee/tee_api.c:269
      ee:	4668      	mov	r0, sp
/home/aom1/Work/Linux/target/STM32MP1-DK2/buildroot/buildroot/output/build/optee-os-custom/lib/libutee/tee_api.c:267
      f0:	4a0f      	ldr	r2, [pc, #60]	; (130 <TEE_UnmaskCancellation+0x44>)
      f2:	4b10      	ldr	r3, [pc, #64]	; (134 <TEE_UnmaskCancellation+0x48>)
      f4:	447a      	add	r2, pc
      f6:	58d3      	ldr	r3, [r2, r3]
      f8:	681b      	ldr	r3, [r3, #0]
      fa:	9301      	str	r3, [sp, #4]
      fc:	f04f 0300 	mov.w	r3, #0
/home/aom1/Work/Linux/target/STM32MP1-DK2/buildroot/buildroot/output/build/optee-os-custom/lib/libutee/tee_api.c:269
     100:	f002 eab2 	blx	2668 <_utee_unmask_cancellation>
/home/aom1/Work/Linux/target/STM32MP1-DK2/buildroot/buildroot/output/build/optee-os-custom/lib/libutee/tee_api.c:271
     104:	b108      	cbz	r0, 10a <TEE_UnmaskCancellation+0x1e>
/home/aom1/Work/Linux/target/STM32MP1-DK2/buildroot/buildroot/output/build/optee-os-custom/lib/libutee/tee_api.c:272
     106:	f002 f8df 	bl	22c8 <TEE_Panic>
/home/aom1/Work/Linux/target/STM32MP1-DK2/buildroot/buildroot/output/build/optee-os-custom/lib/libutee/tee_api.c:267
     10a:	4a0b      	ldr	r2, [pc, #44]	; (138 <TEE_UnmaskCancellation+0x4c>)
/home/aom1/Work/Linux/target/STM32MP1-DK2/buildroot/buildroot/output/build/optee-os-custom/lib/libutee/tee_api.c:274
     10c:	4b09      	ldr	r3, [pc, #36]	; (134 <TEE_UnmaskCancellation+0x48>)
/home/aom1/Work/Linux/target/STM32MP1-DK2/buildroot/buildroot/output/build/optee-os-custom/lib/libutee/tee_api.c:267
     10e:	447a      	add	r2, pc
/home/aom1/Work/Linux/target/STM32MP1-DK2/buildroot/buildroot/output/build/optee-os-custom/lib/libutee/tee_api.c:273
     110:	9800      	ldr	r0, [sp, #0]
/home/aom1/Work/Linux/target/STM32MP1-DK2/buildroot/buildroot/output/build/optee-os-custom/lib/libutee/tee_api.c:274
     112:	58d3      	ldr	r3, [r2, r3]
/home/aom1/Work/Linux/target/STM32MP1-DK2/buildroot/buildroot/output/build/optee-os-custom/lib/libutee/tee_api.c:273
     114:	3800      	subs	r0, #0
     116:	bf18      	it	ne
     118:	2001      	movne	r0, #1
/home/aom1/Work/Linux/target/STM32MP1-DK2/buildroot/buildroot/output/build/optee-os-custom/lib/libutee/tee_api.c:274
     11a:	681a      	ldr	r2, [r3, #0]
     11c:	9b01      	ldr	r3, [sp, #4]
     11e:	405a      	eors	r2, r3
     120:	f04f 0300 	mov.w	r3, #0
     124:	d001      	beq.n	12a <TEE_UnmaskCancellation+0x3e>
     126:	f008 f920 	bl	836a <__stack_chk_fail>
     12a:	b003      	add	sp, #12
     12c:	f85d fb04 	ldr.w	pc, [sp], #4
     130:	00009f90 	.word	0x00009f90
     134:	0000000c 	.word	0x0000000c
     138:	00009f76 	.word	0x00009f76

0000013c <TEE_MaskCancellation>:
TEE_MaskCancellation():
/home/aom1/Work/Linux/target/STM32MP1-DK2/buildroot/buildroot/output/build/optee-os-custom/lib/libutee/tee_api.c:277
     13c:	b507      	push	{r0, r1, r2, lr}
/home/aom1/Work/Linux/target/STM32MP1-DK2/buildroot/buildroot/output/build/optee-os-custom/lib/libutee/tee_api.c:279
     13e:	4668      	mov	r0, sp
/home/aom1/Work/Linux/target/STM32MP1-DK2/buildroot/buildroot/output/build/optee-os-custom/lib/libutee/tee_api.c:277
     140:	4a0f      	ldr	r2, [pc, #60]	; (180 <TEE_MaskCancellation+0x44>)
     142:	4b10      	ldr	r3, [pc, #64]	; (184 <TEE_MaskCancellation+0x48>)
     144:	447a      	add	r2, pc
     146:	58d3      	ldr	r3, [r2, r3]
     148:	681b      	ldr	r3, [r3, #0]
     14a:	9301      	str	r3, [sp, #4]
     14c:	f04f 0300 	mov.w	r3, #0
/home/aom1/Work/Linux/target/STM32MP1-DK2/buildroot/buildroot/output/build/optee-os-custom/lib/libutee/tee_api.c:279
     150:	f002 ea94 	blx	267c <_utee_mask_cancellation>
/home/aom1/Work/Linux/target/STM32MP1-DK2/buildroot/buildroot/output/build/optee-os-custom/lib/libutee/tee_api.c:281
     154:	b108      	cbz	r0, 15a <TEE_MaskCancellation+0x1e>
/home/aom1/Work/Linux/target/STM32MP1-DK2/buildroot/buildroot/output/build/optee-os-custom/lib/libutee/tee_api.c:282
     156:	f002 f8b7 	bl	22c8 <TEE_Panic>
/home/aom1/Work/Linux/target/STM32MP1-DK2/buildroot/buildroot/output/build/optee-os-custom/lib/libutee/tee_api.c:277
     15a:	4a0b      	ldr	r2, [pc, #44]	; (188 <TEE_MaskCancellation+0x4c>)
/home/aom1/Work/Linux/target/STM32MP1-DK2/buildroot/buildroot/output/build/optee-os-custom/lib/libutee/tee_api.c:284
     15c:	4b09      	ldr	r3, [pc, #36]	; (184 <TEE_MaskCancellation+0x48>)
/home/aom1/Work/Linux/target/STM32MP1-DK2/buildroot/buildroot/output/build/optee-os-custom/lib/libutee/tee_api.c:277
     15e:	447a      	add	r2, pc
/home/aom1/Work/Linux/target/STM32MP1-DK2/buildroot/buildroot/output/build/optee-os-custom/lib/libutee/tee_api.c:283
     160:	9800      	ldr	r0, [sp, #0]
/home/aom1/Work/Linux/target/STM32MP1-DK2/buildroot/buildroot/output/build/optee-os-custom/lib/libutee/tee_api.c:284
     162:	58d3      	ldr	r3, [r2, r3]
/home/aom1/Work/Linux/target/STM32MP1-DK2/buildroot/buildroot/output/build/optee-os-custom/lib/libutee/tee_api.c:283
     164:	3800      	subs	r0, #0
     166:	bf18      	it	ne
     168:	2001      	movne	r0, #1
/home/aom1/Work/Linux/target/STM32MP1-DK2/buildroot/buildroot/output/build/optee-os-custom/lib/libutee/tee_api.c:284
     16a:	681a      	ldr	r2, [r3, #0]
     16c:	9b01      	ldr	r3, [sp, #4]
     16e:	405a      	eors	r2, r3
     170:	f04f 0300 	mov.w	r3, #0
     174:	d001      	beq.n	17a <TEE_MaskCancellation+0x3e>
     176:	f008 f8f8 	bl	836a <__stack_chk_fail>
     17a:	b003      	add	sp, #12
     17c:	f85d fb04 	ldr.w	pc, [sp], #4
     180:	00009f40 	.word	0x00009f40
     184:	0000000c 	.word	0x0000000c
     188:	00009f26 	.word	0x00009f26

0000018c <TEE_CheckMemoryAccessRights>:
TEE_CheckMemoryAccessRights():
/home/aom1/Work/Linux/target/STM32MP1-DK2/buildroot/buildroot/output/build/optee-os-custom/lib/libutee/tee_api.c:293
     18c:	b10a      	cbz	r2, 192 <TEE_CheckMemoryAccessRights+0x6>
/home/aom1/Work/Linux/target/STM32MP1-DK2/buildroot/buildroot/output/build/optee-os-custom/lib/libutee/tee_api.c:297
     18e:	f008 b953 	b.w	8438 <___utee_check_access_rights_from_thumb>
/home/aom1/Work/Linux/target/STM32MP1-DK2/buildroot/buildroot/output/build/optee-os-custom/lib/libutee/tee_api.c:309
     192:	4610      	mov	r0, r2
     194:	4770      	bx	lr

00000196 <copy_param>:
copy_param():
/home/aom1/Work/Linux/target/STM32MP1-DK2/buildroot/buildroot/output/build/optee-os-custom/lib/libutee/tee_api.c:29
     196:	e92d 4ff0 	stmdb	sp!, {r4, r5, r6, r7, r8, r9, sl, fp, lr}
     19a:	4617      	mov	r7, r2
     19c:	ed2d 8b02 	vpush	{d8}
     1a0:	4a5a      	ldr	r2, [pc, #360]	; (30c <copy_param+0x176>)
     1a2:	b087      	sub	sp, #28
     1a4:	4698      	mov	r8, r3
/home/aom1/Work/Linux/target/STM32MP1-DK2/buildroot/buildroot/output/build/optee-os-custom/lib/libutee/tee_api.c:34
     1a6:	2500      	movs	r5, #0
/home/aom1/Work/Linux/target/STM32MP1-DK2/buildroot/buildroot/output/build/optee-os-custom/lib/libutee/tee_api.c:29
     1a8:	e9dd 9312 	ldrd	r9, r3, [sp, #72]	; 0x48
     1ac:	447a      	add	r2, pc
     1ae:	4604      	mov	r4, r0
     1b0:	9302      	str	r3, [sp, #8]
/home/aom1/Work/Linux/target/STM32MP1-DK2/buildroot/buildroot/output/build/optee-os-custom/lib/libutee/tee_api.c:47
     1b2:	462e      	mov	r6, r5
/home/aom1/Work/Linux/target/STM32MP1-DK2/buildroot/buildroot/output/build/optee-os-custom/lib/libutee/tee_api.c:29
     1b4:	4b56      	ldr	r3, [pc, #344]	; (310 <copy_param+0x17a>)
/home/aom1/Work/Linux/target/STM32MP1-DK2/buildroot/buildroot/output/build/optee-os-custom/lib/libutee/tee_api.c:54
     1b6:	f107 0b04 	add.w	fp, r7, #4
/home/aom1/Work/Linux/target/STM32MP1-DK2/buildroot/buildroot/output/build/optee-os-custom/lib/libutee/tee_api.c:29
     1ba:	9101      	str	r1, [sp, #4]
/home/aom1/Work/Linux/target/STM32MP1-DK2/buildroot/buildroot/output/build/optee-os-custom/lib/libutee/tee_api.c:65
     1bc:	f04f 0a01 	mov.w	sl, #1
/home/aom1/Work/Linux/target/STM32MP1-DK2/buildroot/buildroot/output/build/optee-os-custom/lib/libutee/tee_api.c:29
     1c0:	58d3      	ldr	r3, [r2, r3]
     1c2:	681b      	ldr	r3, [r3, #0]
     1c4:	9305      	str	r3, [sp, #20]
     1c6:	f04f 0300 	mov.w	r3, #0
/home/aom1/Work/Linux/target/STM32MP1-DK2/buildroot/buildroot/output/build/optee-os-custom/lib/libutee/tee_api.c:48
     1ca:	462b      	mov	r3, r5
/home/aom1/Work/Linux/target/STM32MP1-DK2/buildroot/buildroot/output/build/optee-os-custom/lib/libutee/tee_api.c:45
     1cc:	f8c8 5000 	str.w	r5, [r8]
/home/aom1/Work/Linux/target/STM32MP1-DK2/buildroot/buildroot/output/build/optee-os-custom/lib/libutee/tee_api.c:34
     1d0:	9504      	str	r5, [sp, #16]
/home/aom1/Work/Linux/target/STM32MP1-DK2/buildroot/buildroot/output/build/optee-os-custom/lib/libutee/tee_api.c:46
     1d2:	f8c9 5000 	str.w	r5, [r9]
/home/aom1/Work/Linux/target/STM32MP1-DK2/buildroot/buildroot/output/build/optee-os-custom/lib/libutee/tee_api.c:48
     1d6:	9a02      	ldr	r2, [sp, #8]
/home/aom1/Work/Linux/target/STM32MP1-DK2/buildroot/buildroot/output/build/optee-os-custom/lib/libutee/tee_api.c:49
     1d8:	9901      	ldr	r1, [sp, #4]
/home/aom1/Work/Linux/target/STM32MP1-DK2/buildroot/buildroot/output/build/optee-os-custom/lib/libutee/tee_api.c:48
     1da:	f842 3026 	str.w	r3, [r2, r6, lsl #2]
/home/aom1/Work/Linux/target/STM32MP1-DK2/buildroot/buildroot/output/build/optee-os-custom/lib/libutee/tee_api.c:49
     1de:	00b2      	lsls	r2, r6, #2
     1e0:	fa21 f202 	lsr.w	r2, r1, r2
     1e4:	f002 020f 	and.w	r2, r2, #15
     1e8:	3a05      	subs	r2, #5
     1ea:	2a02      	cmp	r2, #2
     1ec:	d813      	bhi.n	216 <copy_param+0x80>
/home/aom1/Work/Linux/target/STM32MP1-DK2/buildroot/buildroot/output/build/optee-os-custom/lib/libutee/tee_api.c:53
     1ee:	f857 1036 	ldr.w	r1, [r7, r6, lsl #3]
/home/aom1/Work/Linux/target/STM32MP1-DK2/buildroot/buildroot/output/build/optee-os-custom/lib/libutee/tee_api.c:64
     1f2:	b181      	cbz	r1, 216 <copy_param+0x80>
/home/aom1/Work/Linux/target/STM32MP1-DK2/buildroot/buildroot/output/build/optee-os-custom/lib/libutee/tee_api.c:54 (discriminator 1)
     1f4:	f85b 2036 	ldr.w	r2, [fp, r6, lsl #3]
/home/aom1/Work/Linux/target/STM32MP1-DK2/buildroot/buildroot/output/build/optee-os-custom/lib/libutee/tee_api.c:64 (discriminator 1)
     1f8:	b16a      	cbz	r2, 216 <copy_param+0x80>
/home/aom1/Work/Linux/target/STM32MP1-DK2/buildroot/buildroot/output/build/optee-os-custom/lib/libutee/tee_api.c:65 (discriminator 2)
     1fa:	9203      	str	r2, [sp, #12]
     1fc:	2001      	movs	r0, #1
     1fe:	f7ff ffc5 	bl	18c <TEE_CheckMemoryAccessRights>
/home/aom1/Work/Linux/target/STM32MP1-DK2/buildroot/buildroot/output/build/optee-os-custom/lib/libutee/tee_api.c:64 (discriminator 2)
     202:	2300      	movs	r3, #0
     204:	b938      	cbnz	r0, 216 <copy_param+0x80>
/home/aom1/Work/Linux/target/STM32MP1-DK2/buildroot/buildroot/output/build/optee-os-custom/lib/libutee/tee_api.c:67
     206:	9a03      	ldr	r2, [sp, #12]
/home/aom1/Work/Linux/target/STM32MP1-DK2/buildroot/buildroot/output/build/optee-os-custom/lib/libutee/tee_api.c:66
     208:	a904      	add	r1, sp, #16
     20a:	f806 a001 	strb.w	sl, [r6, r1]
/home/aom1/Work/Linux/target/STM32MP1-DK2/buildroot/buildroot/output/build/optee-os-custom/lib/libutee/tee_api.c:67
     20e:	3207      	adds	r2, #7
     210:	f022 0207 	bic.w	r2, r2, #7
     214:	4415      	add	r5, r2
/home/aom1/Work/Linux/target/STM32MP1-DK2/buildroot/buildroot/output/build/optee-os-custom/lib/libutee/tee_api.c:47 (discriminator 2)
     216:	3601      	adds	r6, #1
     218:	2e04      	cmp	r6, #4
     21a:	d1dc      	bne.n	1d6 <copy_param+0x40>
/home/aom1/Work/Linux/target/STM32MP1-DK2/buildroot/buildroot/output/build/optee-os-custom/lib/libutee/tee_api.c:75
     21c:	b335      	cbz	r5, 26c <copy_param+0xd6>
/home/aom1/Work/Linux/target/STM32MP1-DK2/buildroot/buildroot/output/build/optee-os-custom/lib/libutee/tee_api.c:76
     21e:	4631      	mov	r1, r6
     220:	4628      	mov	r0, r5
     222:	f002 f8d7 	bl	23d4 <tee_map_zi>
/home/aom1/Work/Linux/target/STM32MP1-DK2/buildroot/buildroot/output/build/optee-os-custom/lib/libutee/tee_api.c:77
     226:	4603      	mov	r3, r0
     228:	2800      	cmp	r0, #0
     22a:	d060      	beq.n	2ee <copy_param+0x158>
/home/aom1/Work/Linux/target/STM32MP1-DK2/buildroot/buildroot/output/build/optee-os-custom/lib/libutee/tee_api.c:79
     22c:	f8c8 0000 	str.w	r0, [r8]
/home/aom1/Work/Linux/target/STM32MP1-DK2/buildroot/buildroot/output/build/optee-os-custom/lib/libutee/tee_api.c:80
     230:	f8c9 5000 	str.w	r5, [r9]
/home/aom1/Work/Linux/target/STM32MP1-DK2/buildroot/buildroot/output/build/optee-os-custom/lib/libutee/tee_api.c:109
     234:	ed9f 8b32 	vldr	d8, [pc, #200]	; 300 <copy_param+0x16a>
/home/aom1/Work/Linux/target/STM32MP1-DK2/buildroot/buildroot/output/build/optee-os-custom/lib/libutee/tee_api.c:83
     238:	9a01      	ldr	r2, [sp, #4]
     23a:	2500      	movs	r5, #0
     23c:	46b8      	mov	r8, r7
/home/aom1/Work/Linux/target/STM32MP1-DK2/buildroot/buildroot/output/build/optee-os-custom/lib/libutee/tee_api.c:88
     23e:	46a9      	mov	r9, r5
/home/aom1/Work/Linux/target/STM32MP1-DK2/buildroot/buildroot/output/build/optee-os-custom/lib/libutee/tee_api.c:95
     240:	f10d 0a10 	add.w	sl, sp, #16
/home/aom1/Work/Linux/target/STM32MP1-DK2/buildroot/buildroot/output/build/optee-os-custom/lib/libutee/tee_api.c:83
     244:	e9c4 2500 	strd	r2, r5, [r4]
/home/aom1/Work/Linux/target/STM32MP1-DK2/buildroot/buildroot/output/build/optee-os-custom/lib/libutee/tee_api.c:85
     248:	9a01      	ldr	r2, [sp, #4]
     24a:	00a9      	lsls	r1, r5, #2
     24c:	fa22 f101 	lsr.w	r1, r2, r1
     250:	f001 020f 	and.w	r2, r1, #15
     254:	2a03      	cmp	r2, #3
     256:	d02a      	beq.n	2ae <copy_param+0x118>
     258:	f011 0f0c 	tst.w	r1, #12
     25c:	d108      	bne.n	270 <copy_param+0xda>
     25e:	2a01      	cmp	r2, #1
     260:	d025      	beq.n	2ae <copy_param+0x118>
/home/aom1/Work/Linux/target/STM32MP1-DK2/buildroot/buildroot/output/build/optee-os-custom/lib/libutee/tee_api.c:109
     262:	ed84 8b02 	vstr	d8, [r4, #8]
/home/aom1/Work/Linux/target/STM32MP1-DK2/buildroot/buildroot/output/build/optee-os-custom/lib/libutee/tee_api.c:110
     266:	ed84 8b04 	vstr	d8, [r4, #16]
/home/aom1/Work/Linux/target/STM32MP1-DK2/buildroot/buildroot/output/build/optee-os-custom/lib/libutee/tee_api.c:111
     26a:	e028      	b.n	2be <copy_param+0x128>
/home/aom1/Work/Linux/target/STM32MP1-DK2/buildroot/buildroot/output/build/optee-os-custom/lib/libutee/tee_api.c:31
     26c:	462b      	mov	r3, r5
     26e:	e7e1      	b.n	234 <copy_param+0x9e>
/home/aom1/Work/Linux/target/STM32MP1-DK2/buildroot/buildroot/output/build/optee-os-custom/lib/libutee/tee_api.c:85
     270:	1f51      	subs	r1, r2, #5
     272:	2902      	cmp	r1, #2
     274:	d8f5      	bhi.n	262 <copy_param+0xcc>
/home/aom1/Work/Linux/target/STM32MP1-DK2/buildroot/buildroot/output/build/optee-os-custom/lib/libutee/tee_api.c:95
     276:	f815 100a 	ldrb.w	r1, [r5, sl]
/home/aom1/Work/Linux/target/STM32MP1-DK2/buildroot/buildroot/output/build/optee-os-custom/lib/libutee/tee_api.c:94
     27a:	f8d8 b004 	ldr.w	fp, [r8, #4]
/home/aom1/Work/Linux/target/STM32MP1-DK2/buildroot/buildroot/output/build/optee-os-custom/lib/libutee/tee_api.c:95
     27e:	b391      	cbz	r1, 2e6 <copy_param+0x150>
/home/aom1/Work/Linux/target/STM32MP1-DK2/buildroot/buildroot/output/build/optee-os-custom/lib/libutee/tee_api.c:97
     280:	9902      	ldr	r1, [sp, #8]
/home/aom1/Work/Linux/target/STM32MP1-DK2/buildroot/buildroot/output/build/optee-os-custom/lib/libutee/tee_api.c:98
     282:	f10b 0607 	add.w	r6, fp, #7
     286:	f026 0607 	bic.w	r6, r6, #7
/home/aom1/Work/Linux/target/STM32MP1-DK2/buildroot/buildroot/output/build/optee-os-custom/lib/libutee/tee_api.c:99
     28a:	2a06      	cmp	r2, #6
/home/aom1/Work/Linux/target/STM32MP1-DK2/buildroot/buildroot/output/build/optee-os-custom/lib/libutee/tee_api.c:98
     28c:	441e      	add	r6, r3
/home/aom1/Work/Linux/target/STM32MP1-DK2/buildroot/buildroot/output/build/optee-os-custom/lib/libutee/tee_api.c:97
     28e:	f841 3025 	str.w	r3, [r1, r5, lsl #2]
/home/aom1/Work/Linux/target/STM32MP1-DK2/buildroot/buildroot/output/build/optee-os-custom/lib/libutee/tee_api.c:99
     292:	d006      	beq.n	2a2 <copy_param+0x10c>
/home/aom1/Work/Linux/target/STM32MP1-DK2/buildroot/buildroot/output/build/optee-os-custom/lib/libutee/tee_api.c:101
     294:	f857 1035 	ldr.w	r1, [r7, r5, lsl #3]
     298:	4618      	mov	r0, r3
     29a:	465a      	mov	r2, fp
     29c:	f007 ff78 	bl	8190 <memcpy>
     2a0:	4603      	mov	r3, r0
/home/aom1/Work/Linux/target/STM32MP1-DK2/buildroot/buildroot/output/build/optee-os-custom/lib/libutee/tee_api.c:105
     2a2:	e9c4 3902 	strd	r3, r9, [r4, #8]
/home/aom1/Work/Linux/target/STM32MP1-DK2/buildroot/buildroot/output/build/optee-os-custom/lib/libutee/tee_api.c:106
     2a6:	e9c4 b904 	strd	fp, r9, [r4, #16]
/home/aom1/Work/Linux/target/STM32MP1-DK2/buildroot/buildroot/output/build/optee-os-custom/lib/libutee/tee_api.c:107
     2aa:	4633      	mov	r3, r6
     2ac:	e007      	b.n	2be <copy_param+0x128>
/home/aom1/Work/Linux/target/STM32MP1-DK2/buildroot/buildroot/output/build/optee-os-custom/lib/libutee/tee_api.c:88
     2ae:	f857 2035 	ldr.w	r2, [r7, r5, lsl #3]
     2b2:	e9c4 2902 	strd	r2, r9, [r4, #8]
/home/aom1/Work/Linux/target/STM32MP1-DK2/buildroot/buildroot/output/build/optee-os-custom/lib/libutee/tee_api.c:89
     2b6:	f8d8 2004 	ldr.w	r2, [r8, #4]
     2ba:	e9c4 2904 	strd	r2, r9, [r4, #16]
/home/aom1/Work/Linux/target/STM32MP1-DK2/buildroot/buildroot/output/build/optee-os-custom/lib/libutee/tee_api.c:84 (discriminator 2)
     2be:	3501      	adds	r5, #1
     2c0:	f108 0808 	add.w	r8, r8, #8
     2c4:	2d04      	cmp	r5, #4
     2c6:	f104 0410 	add.w	r4, r4, #16
     2ca:	d1bd      	bne.n	248 <copy_param+0xb2>
/home/aom1/Work/Linux/target/STM32MP1-DK2/buildroot/buildroot/output/build/optee-os-custom/lib/libutee/tee_api.c:115
     2cc:	2000      	movs	r0, #0
/home/aom1/Work/Linux/target/STM32MP1-DK2/buildroot/buildroot/output/build/optee-os-custom/lib/libutee/tee_api.c:29
     2ce:	4a11      	ldr	r2, [pc, #68]	; (314 <copy_param+0x17e>)
/home/aom1/Work/Linux/target/STM32MP1-DK2/buildroot/buildroot/output/build/optee-os-custom/lib/libutee/tee_api.c:116
     2d0:	4b0f      	ldr	r3, [pc, #60]	; (310 <copy_param+0x17a>)
/home/aom1/Work/Linux/target/STM32MP1-DK2/buildroot/buildroot/output/build/optee-os-custom/lib/libutee/tee_api.c:29
     2d2:	447a      	add	r2, pc
/home/aom1/Work/Linux/target/STM32MP1-DK2/buildroot/buildroot/output/build/optee-os-custom/lib/libutee/tee_api.c:116
     2d4:	58d3      	ldr	r3, [r2, r3]
     2d6:	681a      	ldr	r2, [r3, #0]
     2d8:	9b05      	ldr	r3, [sp, #20]
     2da:	405a      	eors	r2, r3
     2dc:	f04f 0300 	mov.w	r3, #0
     2e0:	d007      	beq.n	2f2 <copy_param+0x15c>
     2e2:	f008 f842 	bl	836a <__stack_chk_fail>
/home/aom1/Work/Linux/target/STM32MP1-DK2/buildroot/buildroot/output/build/optee-os-custom/lib/libutee/tee_api.c:103
     2e6:	461e      	mov	r6, r3
     2e8:	f857 3035 	ldr.w	r3, [r7, r5, lsl #3]
     2ec:	e7d9      	b.n	2a2 <copy_param+0x10c>
/home/aom1/Work/Linux/target/STM32MP1-DK2/buildroot/buildroot/output/build/optee-os-custom/lib/libutee/tee_api.c:78
     2ee:	4806      	ldr	r0, [pc, #24]	; (308 <copy_param+0x172>)
     2f0:	e7ed      	b.n	2ce <copy_param+0x138>
/home/aom1/Work/Linux/target/STM32MP1-DK2/buildroot/buildroot/output/build/optee-os-custom/lib/libutee/tee_api.c:116
     2f2:	b007      	add	sp, #28
     2f4:	ecbd 8b02 	vpop	{d8}
     2f8:	e8bd 8ff0 	ldmia.w	sp!, {r4, r5, r6, r7, r8, r9, sl, fp, pc}
     2fc:	f3af 8000 	nop.w
	...
     308:	ffff000c 	.word	0xffff000c
     30c:	00009ed8 	.word	0x00009ed8
     310:	0000000c 	.word	0x0000000c
     314:	00009db2 	.word	0x00009db2

00000318 <TEE_OpenTASession>:
TEE_OpenTASession():
/home/aom1/Work/Linux/target/STM32MP1-DK2/buildroot/buildroot/output/build/optee-os-custom/lib/libutee/tee_api.c:154
     318:	e92d 4ff0 	stmdb	sp!, {r4, r5, r6, r7, r8, r9, sl, fp, lr}
     31c:	4614      	mov	r4, r2
     31e:	4a2c      	ldr	r2, [pc, #176]	; (3d0 <TEE_OpenTASession+0xb8>)
     320:	461d      	mov	r5, r3
     322:	4b2c      	ldr	r3, [pc, #176]	; (3d4 <TEE_OpenTASession+0xbc>)
     324:	b09f      	sub	sp, #124	; 0x7c
     326:	447a      	add	r2, pc
/home/aom1/Work/Linux/target/STM32MP1-DK2/buildroot/buildroot/output/build/optee-os-custom/lib/libutee/tee_api.c:160
     328:	ae06      	add	r6, sp, #24
/home/aom1/Work/Linux/target/STM32MP1-DK2/buildroot/buildroot/output/build/optee-os-custom/lib/libutee/tee_api.c:154
     32a:	4680      	mov	r8, r0
     32c:	4689      	mov	r9, r1
     32e:	58d3      	ldr	r3, [r2, r3]
/home/aom1/Work/Linux/target/STM32MP1-DK2/buildroot/buildroot/output/build/optee-os-custom/lib/libutee/tee_api.c:157
     330:	2100      	movs	r1, #0
/home/aom1/Work/Linux/target/STM32MP1-DK2/buildroot/buildroot/output/build/optee-os-custom/lib/libutee/tee_api.c:160
     332:	4630      	mov	r0, r6
     334:	2210      	movs	r2, #16
/home/aom1/Work/Linux/target/STM32MP1-DK2/buildroot/buildroot/output/build/optee-os-custom/lib/libutee/tee_api.c:154
     336:	681b      	ldr	r3, [r3, #0]
     338:	931d      	str	r3, [sp, #116]	; 0x74
     33a:	f04f 0300 	mov.w	r3, #0
     33e:	e9dd ab28 	ldrd	sl, fp, [sp, #160]	; 0xa0
/home/aom1/Work/Linux/target/STM32MP1-DK2/buildroot/buildroot/output/build/optee-os-custom/lib/libutee/tee_api.c:157
     342:	9103      	str	r1, [sp, #12]
/home/aom1/Work/Linux/target/STM32MP1-DK2/buildroot/buildroot/output/build/optee-os-custom/lib/libutee/tee_api.c:159
     344:	e9cd 1104 	strd	r1, r1, [sp, #16]
/home/aom1/Work/Linux/target/STM32MP1-DK2/buildroot/buildroot/output/build/optee-os-custom/lib/libutee/tee_api.c:160
     348:	f008 f810 	bl	836c <memset>
/home/aom1/Work/Linux/target/STM32MP1-DK2/buildroot/buildroot/output/build/optee-os-custom/lib/libutee/tee_api.c:162
     34c:	b11c      	cbz	r4, 356 <TEE_OpenTASession+0x3e>
/home/aom1/Work/Linux/target/STM32MP1-DK2/buildroot/buildroot/output/build/optee-os-custom/lib/libutee/tee_api.c:163
     34e:	2120      	movs	r1, #32
     350:	4628      	mov	r0, r5
     352:	f002 f80e 	bl	2372 <__utee_check_inout_annotation>
/home/aom1/Work/Linux/target/STM32MP1-DK2/buildroot/buildroot/output/build/optee-os-custom/lib/libutee/tee_api.c:166
     356:	2104      	movs	r1, #4
     358:	4650      	mov	r0, sl
/home/aom1/Work/Linux/target/STM32MP1-DK2/buildroot/buildroot/output/build/optee-os-custom/lib/libutee/tee_api.c:168
     35a:	af0a      	add	r7, sp, #40	; 0x28
/home/aom1/Work/Linux/target/STM32MP1-DK2/buildroot/buildroot/output/build/optee-os-custom/lib/libutee/tee_api.c:166
     35c:	f001 fff6 	bl	234c <__utee_check_out_annotation>
/home/aom1/Work/Linux/target/STM32MP1-DK2/buildroot/buildroot/output/build/optee-os-custom/lib/libutee/tee_api.c:168
     360:	9601      	str	r6, [sp, #4]
     362:	ab05      	add	r3, sp, #20
     364:	9300      	str	r3, [sp, #0]
     366:	4621      	mov	r1, r4
     368:	ab04      	add	r3, sp, #16
     36a:	462a      	mov	r2, r5
     36c:	4638      	mov	r0, r7
     36e:	f7ff ff12 	bl	196 <copy_param>
/home/aom1/Work/Linux/target/STM32MP1-DK2/buildroot/buildroot/output/build/optee-os-custom/lib/libutee/tee_api.c:169
     372:	4604      	mov	r4, r0
     374:	b9b0      	cbnz	r0, 3a4 <TEE_OpenTASession+0x8c>
/home/aom1/Work/Linux/target/STM32MP1-DK2/buildroot/buildroot/output/build/optee-os-custom/lib/libutee/tee_api.c:171
     376:	f8cd b000 	str.w	fp, [sp]
     37a:	ab03      	add	r3, sp, #12
     37c:	463a      	mov	r2, r7
     37e:	4649      	mov	r1, r9
     380:	4640      	mov	r0, r8
     382:	f002 e93c 	blx	25fc <_utee_open_ta_session>
     386:	4604      	mov	r4, r0
/home/aom1/Work/Linux/target/STM32MP1-DK2/buildroot/buildroot/output/build/optee-os-custom/lib/libutee/tee_api.c:173
     388:	463a      	mov	r2, r7
     38a:	4628      	mov	r0, r5
     38c:	4631      	mov	r1, r6
     38e:	f7ff fe47 	bl	20 <update_out_param>
/home/aom1/Work/Linux/target/STM32MP1-DK2/buildroot/buildroot/output/build/optee-os-custom/lib/libutee/tee_api.c:174
     392:	9804      	ldr	r0, [sp, #16]
     394:	b128      	cbz	r0, 3a2 <TEE_OpenTASession+0x8a>
/home/aom1/Work/Linux/target/STM32MP1-DK2/buildroot/buildroot/output/build/optee-os-custom/lib/libutee/tee_api.c:175
     396:	9905      	ldr	r1, [sp, #20]
     398:	f002 f852 	bl	2440 <tee_unmap>
/home/aom1/Work/Linux/target/STM32MP1-DK2/buildroot/buildroot/output/build/optee-os-custom/lib/libutee/tee_api.c:177
     39c:	b108      	cbz	r0, 3a2 <TEE_OpenTASession+0x8a>
/home/aom1/Work/Linux/target/STM32MP1-DK2/buildroot/buildroot/output/build/optee-os-custom/lib/libutee/tee_api.c:178
     39e:	f001 ff93 	bl	22c8 <TEE_Panic>
/home/aom1/Work/Linux/target/STM32MP1-DK2/buildroot/buildroot/output/build/optee-os-custom/lib/libutee/tee_api.c:187
     3a2:	b10c      	cbz	r4, 3a8 <TEE_OpenTASession+0x90>
/home/aom1/Work/Linux/target/STM32MP1-DK2/buildroot/buildroot/output/build/optee-os-custom/lib/libutee/tee_api.c:188
     3a4:	2300      	movs	r3, #0
     3a6:	9303      	str	r3, [sp, #12]
/home/aom1/Work/Linux/target/STM32MP1-DK2/buildroot/buildroot/output/build/optee-os-custom/lib/libutee/tee_api.c:190
     3a8:	9b03      	ldr	r3, [sp, #12]
/home/aom1/Work/Linux/target/STM32MP1-DK2/buildroot/buildroot/output/build/optee-os-custom/lib/libutee/tee_api.c:154
     3aa:	4a0b      	ldr	r2, [pc, #44]	; (3d8 <TEE_OpenTASession+0xc0>)
/home/aom1/Work/Linux/target/STM32MP1-DK2/buildroot/buildroot/output/build/optee-os-custom/lib/libutee/tee_api.c:190
     3ac:	f8ca 3000 	str.w	r3, [sl]
/home/aom1/Work/Linux/target/STM32MP1-DK2/buildroot/buildroot/output/build/optee-os-custom/lib/libutee/tee_api.c:154
     3b0:	447a      	add	r2, pc
/home/aom1/Work/Linux/target/STM32MP1-DK2/buildroot/buildroot/output/build/optee-os-custom/lib/libutee/tee_api.c:192
     3b2:	4b08      	ldr	r3, [pc, #32]	; (3d4 <TEE_OpenTASession+0xbc>)
     3b4:	58d3      	ldr	r3, [r2, r3]
     3b6:	681a      	ldr	r2, [r3, #0]
     3b8:	9b1d      	ldr	r3, [sp, #116]	; 0x74
     3ba:	405a      	eors	r2, r3
     3bc:	f04f 0300 	mov.w	r3, #0
     3c0:	d001      	beq.n	3c6 <TEE_OpenTASession+0xae>
     3c2:	f007 ffd2 	bl	836a <__stack_chk_fail>
     3c6:	4620      	mov	r0, r4
     3c8:	b01f      	add	sp, #124	; 0x7c
     3ca:	e8bd 8ff0 	ldmia.w	sp!, {r4, r5, r6, r7, r8, r9, sl, fp, pc}
     3ce:	bf00      	nop
     3d0:	00009d5e 	.word	0x00009d5e
     3d4:	0000000c 	.word	0x0000000c
     3d8:	00009cd4 	.word	0x00009cd4

000003dc <TEE_InvokeTACommand>:
TEE_InvokeTACommand():
/home/aom1/Work/Linux/target/STM32MP1-DK2/buildroot/buildroot/output/build/optee-os-custom/lib/libutee/tee_api.c:209
     3dc:	e92d 4ff0 	stmdb	sp!, {r4, r5, r6, r7, r8, r9, sl, fp, lr}
     3e0:	4693      	mov	fp, r2
     3e2:	4a34      	ldr	r2, [pc, #208]	; (4b4 <TEE_InvokeTACommand+0xd8>)
     3e4:	461c      	mov	r4, r3
     3e6:	4b34      	ldr	r3, [pc, #208]	; (4b8 <TEE_InvokeTACommand+0xdc>)
     3e8:	b09f      	sub	sp, #124	; 0x7c
     3ea:	447a      	add	r2, pc
/home/aom1/Work/Linux/target/STM32MP1-DK2/buildroot/buildroot/output/build/optee-os-custom/lib/libutee/tee_api.c:215
     3ec:	af06      	add	r7, sp, #24
/home/aom1/Work/Linux/target/STM32MP1-DK2/buildroot/buildroot/output/build/optee-os-custom/lib/libutee/tee_api.c:209
     3ee:	4681      	mov	r9, r0
     3f0:	468a      	mov	sl, r1
     3f2:	58d3      	ldr	r3, [r2, r3]
/home/aom1/Work/Linux/target/STM32MP1-DK2/buildroot/buildroot/output/build/optee-os-custom/lib/libutee/tee_api.c:213
     3f4:	2100      	movs	r1, #0
/home/aom1/Work/Linux/target/STM32MP1-DK2/buildroot/buildroot/output/build/optee-os-custom/lib/libutee/tee_api.c:215
     3f6:	4638      	mov	r0, r7
     3f8:	2210      	movs	r2, #16
/home/aom1/Work/Linux/target/STM32MP1-DK2/buildroot/buildroot/output/build/optee-os-custom/lib/libutee/tee_api.c:209
     3fa:	681b      	ldr	r3, [r3, #0]
     3fc:	931d      	str	r3, [sp, #116]	; 0x74
     3fe:	f04f 0300 	mov.w	r3, #0
/home/aom1/Work/Linux/target/STM32MP1-DK2/buildroot/buildroot/output/build/optee-os-custom/lib/libutee/tee_api.c:211
     402:	2303      	movs	r3, #3
/home/aom1/Work/Linux/target/STM32MP1-DK2/buildroot/buildroot/output/build/optee-os-custom/lib/libutee/tee_api.c:209
     404:	e9dd 6528 	ldrd	r6, r5, [sp, #160]	; 0xa0
/home/aom1/Work/Linux/target/STM32MP1-DK2/buildroot/buildroot/output/build/optee-os-custom/lib/libutee/tee_api.c:211
     408:	9303      	str	r3, [sp, #12]
/home/aom1/Work/Linux/target/STM32MP1-DK2/buildroot/buildroot/output/build/optee-os-custom/lib/libutee/tee_api.c:214
     40a:	e9cd 1104 	strd	r1, r1, [sp, #16]
/home/aom1/Work/Linux/target/STM32MP1-DK2/buildroot/buildroot/output/build/optee-os-custom/lib/libutee/tee_api.c:215
     40e:	f007 ffad 	bl	836c <memset>
/home/aom1/Work/Linux/target/STM32MP1-DK2/buildroot/buildroot/output/build/optee-os-custom/lib/libutee/tee_api.c:217
     412:	b11c      	cbz	r4, 41c <TEE_InvokeTACommand+0x40>
/home/aom1/Work/Linux/target/STM32MP1-DK2/buildroot/buildroot/output/build/optee-os-custom/lib/libutee/tee_api.c:218
     414:	2120      	movs	r1, #32
     416:	4630      	mov	r0, r6
     418:	f001 ffab 	bl	2372 <__utee_check_inout_annotation>
/home/aom1/Work/Linux/target/STM32MP1-DK2/buildroot/buildroot/output/build/optee-os-custom/lib/libutee/tee_api.c:221
     41c:	b11d      	cbz	r5, 426 <TEE_InvokeTACommand+0x4a>
/home/aom1/Work/Linux/target/STM32MP1-DK2/buildroot/buildroot/output/build/optee-os-custom/lib/libutee/tee_api.c:222
     41e:	2104      	movs	r1, #4
     420:	4628      	mov	r0, r5
     422:	f001 ff93 	bl	234c <__utee_check_out_annotation>
/home/aom1/Work/Linux/target/STM32MP1-DK2/buildroot/buildroot/output/build/optee-os-custom/lib/libutee/tee_api.c:225
     426:	9701      	str	r7, [sp, #4]
     428:	ab05      	add	r3, sp, #20
     42a:	9300      	str	r3, [sp, #0]
     42c:	f10d 0828 	add.w	r8, sp, #40	; 0x28
     430:	4621      	mov	r1, r4
     432:	ab04      	add	r3, sp, #16
     434:	4632      	mov	r2, r6
     436:	4640      	mov	r0, r8
     438:	f7ff fead 	bl	196 <copy_param>
/home/aom1/Work/Linux/target/STM32MP1-DK2/buildroot/buildroot/output/build/optee-os-custom/lib/libutee/tee_api.c:226
     43c:	4604      	mov	r4, r0
     43e:	b9a8      	cbnz	r0, 46c <TEE_InvokeTACommand+0x90>
/home/aom1/Work/Linux/target/STM32MP1-DK2/buildroot/buildroot/output/build/optee-os-custom/lib/libutee/tee_api.c:228
     440:	ab03      	add	r3, sp, #12
     442:	465a      	mov	r2, fp
     444:	9300      	str	r3, [sp, #0]
     446:	4651      	mov	r1, sl
     448:	4643      	mov	r3, r8
     44a:	4648      	mov	r0, r9
     44c:	f002 e8ec 	blx	2628 <_utee_invoke_ta_command>
     450:	4604      	mov	r4, r0
/home/aom1/Work/Linux/target/STM32MP1-DK2/buildroot/buildroot/output/build/optee-os-custom/lib/libutee/tee_api.c:231
     452:	4642      	mov	r2, r8
     454:	4630      	mov	r0, r6
     456:	4639      	mov	r1, r7
     458:	f7ff fde2 	bl	20 <update_out_param>
/home/aom1/Work/Linux/target/STM32MP1-DK2/buildroot/buildroot/output/build/optee-os-custom/lib/libutee/tee_api.c:232
     45c:	9804      	ldr	r0, [sp, #16]
     45e:	b128      	cbz	r0, 46c <TEE_InvokeTACommand+0x90>
/home/aom1/Work/Linux/target/STM32MP1-DK2/buildroot/buildroot/output/build/optee-os-custom/lib/libutee/tee_api.c:233
     460:	9905      	ldr	r1, [sp, #20]
     462:	f001 ffed 	bl	2440 <tee_unmap>
/home/aom1/Work/Linux/target/STM32MP1-DK2/buildroot/buildroot/output/build/optee-os-custom/lib/libutee/tee_api.c:235
     466:	b108      	cbz	r0, 46c <TEE_InvokeTACommand+0x90>
/home/aom1/Work/Linux/target/STM32MP1-DK2/buildroot/buildroot/output/build/optee-os-custom/lib/libutee/tee_api.c:236
     468:	f001 ff2e 	bl	22c8 <TEE_Panic>
/home/aom1/Work/Linux/target/STM32MP1-DK2/buildroot/buildroot/output/build/optee-os-custom/lib/libutee/tee_api.c:241
     46c:	9b03      	ldr	r3, [sp, #12]
/home/aom1/Work/Linux/target/STM32MP1-DK2/buildroot/buildroot/output/build/optee-os-custom/lib/libutee/tee_api.c:240
     46e:	b105      	cbz	r5, 472 <TEE_InvokeTACommand+0x96>
/home/aom1/Work/Linux/target/STM32MP1-DK2/buildroot/buildroot/output/build/optee-os-custom/lib/libutee/tee_api.c:241
     470:	602b      	str	r3, [r5, #0]
/home/aom1/Work/Linux/target/STM32MP1-DK2/buildroot/buildroot/output/build/optee-os-custom/lib/libutee/tee_api.c:243
     472:	2b04      	cmp	r3, #4
     474:	d009      	beq.n	48a <TEE_InvokeTACommand+0xae>
/home/aom1/Work/Linux/target/STM32MP1-DK2/buildroot/buildroot/output/build/optee-os-custom/lib/libutee/tee_api.c:246
     476:	b144      	cbz	r4, 48a <TEE_InvokeTACommand+0xae>
/home/aom1/Work/Linux/target/STM32MP1-DK2/buildroot/buildroot/output/build/optee-os-custom/lib/libutee/tee_api.c:246 (discriminator 1)
     478:	4b0c      	ldr	r3, [pc, #48]	; (4ac <TEE_InvokeTACommand+0xd0>)
     47a:	429c      	cmp	r4, r3
     47c:	d005      	beq.n	48a <TEE_InvokeTACommand+0xae>
/home/aom1/Work/Linux/target/STM32MP1-DK2/buildroot/buildroot/output/build/optee-os-custom/lib/libutee/tee_api.c:247
     47e:	4b0c      	ldr	r3, [pc, #48]	; (4b0 <TEE_InvokeTACommand+0xd4>)
     480:	429c      	cmp	r4, r3
     482:	d002      	beq.n	48a <TEE_InvokeTACommand+0xae>
/home/aom1/Work/Linux/target/STM32MP1-DK2/buildroot/buildroot/output/build/optee-os-custom/lib/libutee/tee_api.c:249
     484:	4620      	mov	r0, r4
     486:	f001 ff1f 	bl	22c8 <TEE_Panic>
/home/aom1/Work/Linux/target/STM32MP1-DK2/buildroot/buildroot/output/build/optee-os-custom/lib/libutee/tee_api.c:209
     48a:	4a0c      	ldr	r2, [pc, #48]	; (4bc <TEE_InvokeTACommand+0xe0>)
/home/aom1/Work/Linux/target/STM32MP1-DK2/buildroot/buildroot/output/build/optee-os-custom/lib/libutee/tee_api.c:252
     48c:	4b0a      	ldr	r3, [pc, #40]	; (4b8 <TEE_InvokeTACommand+0xdc>)
/home/aom1/Work/Linux/target/STM32MP1-DK2/buildroot/buildroot/output/build/optee-os-custom/lib/libutee/tee_api.c:209
     48e:	447a      	add	r2, pc
/home/aom1/Work/Linux/target/STM32MP1-DK2/buildroot/buildroot/output/build/optee-os-custom/lib/libutee/tee_api.c:252
     490:	58d3      	ldr	r3, [r2, r3]
     492:	681a      	ldr	r2, [r3, #0]
     494:	9b1d      	ldr	r3, [sp, #116]	; 0x74
     496:	405a      	eors	r2, r3
     498:	f04f 0300 	mov.w	r3, #0
     49c:	d001      	beq.n	4a2 <TEE_InvokeTACommand+0xc6>
     49e:	f007 ff64 	bl	836a <__stack_chk_fail>
     4a2:	4620      	mov	r0, r4
     4a4:	b01f      	add	sp, #124	; 0x7c
     4a6:	e8bd 8ff0 	ldmia.w	sp!, {r4, r5, r6, r7, r8, r9, sl, fp, pc}
     4aa:	bf00      	nop
     4ac:	ffff000c 	.word	0xffff000c
     4b0:	ffff3024 	.word	0xffff3024
     4b4:	00009c9a 	.word	0x00009c9a
     4b8:	0000000c 	.word	0x0000000c
     4bc:	00009bf6 	.word	0x00009bf6

000004c0 <TEE_SetInstanceData>:
TEE_SetInstanceData():
/home/aom1/Work/Linux/target/STM32MP1-DK2/buildroot/buildroot/output/build/optee-os-custom/lib/libutee/tee_api.c:313
     4c0:	4b01      	ldr	r3, [pc, #4]	; (4c8 <TEE_SetInstanceData+0x8>)
     4c2:	447b      	add	r3, pc
     4c4:	6018      	str	r0, [r3, #0]
/home/aom1/Work/Linux/target/STM32MP1-DK2/buildroot/buildroot/output/build/optee-os-custom/lib/libutee/tee_api.c:314
     4c6:	4770      	bx	lr
     4c8:	00009dda 	.word	0x00009dda

000004cc <TEE_GetInstanceData>:
TEE_GetInstanceData():
/home/aom1/Work/Linux/target/STM32MP1-DK2/buildroot/buildroot/output/build/optee-os-custom/lib/libutee/tee_api.c:319
     4cc:	4b01      	ldr	r3, [pc, #4]	; (4d4 <TEE_GetInstanceData+0x8>)
     4ce:	447b      	add	r3, pc
     4d0:	6818      	ldr	r0, [r3, #0]
     4d2:	4770      	bx	lr
     4d4:	00009dce 	.word	0x00009dce

000004d8 <TEE_MemMove>:
TEE_MemMove():
/home/aom1/Work/Linux/target/STM32MP1-DK2/buildroot/buildroot/output/build/optee-os-custom/lib/libutee/tee_api.c:323
     4d8:	f007 bf66 	b.w	83a8 <memmove>

000004dc <TEE_MemCompare>:
TEE_MemCompare():
/home/aom1/Work/Linux/target/STM32MP1-DK2/buildroot/buildroot/output/build/optee-os-custom/lib/libutee/tee_api.c:328
     4dc:	f007 bf7e 	b.w	83dc <consttime_memcmp>

000004e0 <TEE_MemFill>:
TEE_MemFill():
/home/aom1/Work/Linux/target/STM32MP1-DK2/buildroot/buildroot/output/build/optee-os-custom/lib/libutee/tee_api.c:333
     4e0:	f007 bf44 	b.w	836c <memset>

000004e4 <TEE_GetSystemTime>:
TEE_GetSystemTime():
/home/aom1/Work/Linux/target/STM32MP1-DK2/buildroot/buildroot/output/build/optee-os-custom/lib/libutee/tee_api.c:339
     4e4:	4601      	mov	r1, r0
/home/aom1/Work/Linux/target/STM32MP1-DK2/buildroot/buildroot/output/build/optee-os-custom/lib/libutee/tee_api.c:340
     4e6:	2000      	movs	r0, #0
/home/aom1/Work/Linux/target/STM32MP1-DK2/buildroot/buildroot/output/build/optee-os-custom/lib/libutee/tee_api.c:339
     4e8:	b508      	push	{r3, lr}
/home/aom1/Work/Linux/target/STM32MP1-DK2/buildroot/buildroot/output/build/optee-os-custom/lib/libutee/tee_api.c:340
     4ea:	f002 e8dc 	blx	26a4 <_utee_get_time>
/home/aom1/Work/Linux/target/STM32MP1-DK2/buildroot/buildroot/output/build/optee-os-custom/lib/libutee/tee_api.c:342
     4ee:	b118      	cbz	r0, 4f8 <TEE_GetSystemTime+0x14>
/home/aom1/Work/Linux/target/STM32MP1-DK2/buildroot/buildroot/output/build/optee-os-custom/lib/libutee/tee_api.c:344
     4f0:	e8bd 4008 	ldmia.w	sp!, {r3, lr}
/home/aom1/Work/Linux/target/STM32MP1-DK2/buildroot/buildroot/output/build/optee-os-custom/lib/libutee/tee_api.c:343
     4f4:	f001 bee8 	b.w	22c8 <TEE_Panic>
/home/aom1/Work/Linux/target/STM32MP1-DK2/buildroot/buildroot/output/build/optee-os-custom/lib/libutee/tee_api.c:344
     4f8:	bd08      	pop	{r3, pc}

000004fa <TEE_Wait>:
TEE_Wait():
/home/aom1/Work/Linux/target/STM32MP1-DK2/buildroot/buildroot/output/build/optee-os-custom/lib/libutee/tee_api.c:347
     4fa:	b510      	push	{r4, lr}
/home/aom1/Work/Linux/target/STM32MP1-DK2/buildroot/buildroot/output/build/optee-os-custom/lib/libutee/tee_api.c:348
     4fc:	f002 e8c8 	blx	2690 <_utee_wait>
/home/aom1/Work/Linux/target/STM32MP1-DK2/buildroot/buildroot/output/build/optee-os-custom/lib/libutee/tee_api.c:350
     500:	4604      	mov	r4, r0
     502:	b120      	cbz	r0, 50e <TEE_Wait+0x14>
/home/aom1/Work/Linux/target/STM32MP1-DK2/buildroot/buildroot/output/build/optee-os-custom/lib/libutee/tee_api.c:350 (discriminator 1)
     504:	4b03      	ldr	r3, [pc, #12]	; (514 <TEE_Wait+0x1a>)
     506:	4298      	cmp	r0, r3
     508:	d001      	beq.n	50e <TEE_Wait+0x14>
/home/aom1/Work/Linux/target/STM32MP1-DK2/buildroot/buildroot/output/build/optee-os-custom/lib/libutee/tee_api.c:351
     50a:	f001 fedd 	bl	22c8 <TEE_Panic>
/home/aom1/Work/Linux/target/STM32MP1-DK2/buildroot/buildroot/output/build/optee-os-custom/lib/libutee/tee_api.c:354
     50e:	4620      	mov	r0, r4
     510:	bd10      	pop	{r4, pc}
     512:	bf00      	nop
     514:	ffff0002 	.word	0xffff0002

00000518 <TEE_GetTAPersistentTime>:
TEE_GetTAPersistentTime():
/home/aom1/Work/Linux/target/STM32MP1-DK2/buildroot/buildroot/output/build/optee-os-custom/lib/libutee/tee_api.c:357
     518:	b538      	push	{r3, r4, r5, lr}
/home/aom1/Work/Linux/target/STM32MP1-DK2/buildroot/buildroot/output/build/optee-os-custom/lib/libutee/tee_api.c:360
     51a:	4601      	mov	r1, r0
/home/aom1/Work/Linux/target/STM32MP1-DK2/buildroot/buildroot/output/build/optee-os-custom/lib/libutee/tee_api.c:357
     51c:	4605      	mov	r5, r0
/home/aom1/Work/Linux/target/STM32MP1-DK2/buildroot/buildroot/output/build/optee-os-custom/lib/libutee/tee_api.c:360
     51e:	2001      	movs	r0, #1
     520:	f002 e8c0 	blx	26a4 <_utee_get_time>
/home/aom1/Work/Linux/target/STM32MP1-DK2/buildroot/buildroot/output/build/optee-os-custom/lib/libutee/tee_api.c:362
     524:	4604      	mov	r4, r0
     526:	b170      	cbz	r0, 546 <TEE_GetTAPersistentTime+0x2e>
/home/aom1/Work/Linux/target/STM32MP1-DK2/buildroot/buildroot/output/build/optee-os-custom/lib/libutee/tee_api.c:362 (discriminator 1)
     528:	4b08      	ldr	r3, [pc, #32]	; (54c <TEE_GetTAPersistentTime+0x34>)
     52a:	4298      	cmp	r0, r3
     52c:	d00b      	beq.n	546 <TEE_GetTAPersistentTime+0x2e>
/home/aom1/Work/Linux/target/STM32MP1-DK2/buildroot/buildroot/output/build/optee-os-custom/lib/libutee/tee_api.c:363
     52e:	2300      	movs	r3, #0
     530:	602b      	str	r3, [r5, #0]
/home/aom1/Work/Linux/target/STM32MP1-DK2/buildroot/buildroot/output/build/optee-os-custom/lib/libutee/tee_api.c:364
     532:	606b      	str	r3, [r5, #4]
/home/aom1/Work/Linux/target/STM32MP1-DK2/buildroot/buildroot/output/build/optee-os-custom/lib/libutee/tee_api.c:367
     534:	f500 4330 	add.w	r3, r0, #45056	; 0xb000
     538:	2b01      	cmp	r3, #1
     53a:	d904      	bls.n	546 <TEE_GetTAPersistentTime+0x2e>
/home/aom1/Work/Linux/target/STM32MP1-DK2/buildroot/buildroot/output/build/optee-os-custom/lib/libutee/tee_api.c:370
     53c:	4b04      	ldr	r3, [pc, #16]	; (550 <TEE_GetTAPersistentTime+0x38>)
     53e:	4298      	cmp	r0, r3
     540:	d001      	beq.n	546 <TEE_GetTAPersistentTime+0x2e>
/home/aom1/Work/Linux/target/STM32MP1-DK2/buildroot/buildroot/output/build/optee-os-custom/lib/libutee/tee_api.c:372
     542:	f001 fec1 	bl	22c8 <TEE_Panic>
/home/aom1/Work/Linux/target/STM32MP1-DK2/buildroot/buildroot/output/build/optee-os-custom/lib/libutee/tee_api.c:375
     546:	4620      	mov	r0, r4
     548:	bd38      	pop	{r3, r4, r5, pc}
     54a:	bf00      	nop
     54c:	ffff300f 	.word	0xffff300f
     550:	ffff000c 	.word	0xffff000c

00000554 <TEE_SetTAPersistentTime>:
TEE_SetTAPersistentTime():
/home/aom1/Work/Linux/target/STM32MP1-DK2/buildroot/buildroot/output/build/optee-os-custom/lib/libutee/tee_api.c:378
     554:	b510      	push	{r4, lr}
/home/aom1/Work/Linux/target/STM32MP1-DK2/buildroot/buildroot/output/build/optee-os-custom/lib/libutee/tee_api.c:381
     556:	f002 e8b0 	blx	26b8 <_utee_set_ta_time>
/home/aom1/Work/Linux/target/STM32MP1-DK2/buildroot/buildroot/output/build/optee-os-custom/lib/libutee/tee_api.c:383
     55a:	4604      	mov	r4, r0
     55c:	b138      	cbz	r0, 56e <TEE_SetTAPersistentTime+0x1a>
/home/aom1/Work/Linux/target/STM32MP1-DK2/buildroot/buildroot/output/build/optee-os-custom/lib/libutee/tee_api.c:383 (discriminator 1)
     55e:	4b05      	ldr	r3, [pc, #20]	; (574 <TEE_SetTAPersistentTime+0x20>)
     560:	4298      	cmp	r0, r3
     562:	d004      	beq.n	56e <TEE_SetTAPersistentTime+0x1a>
/home/aom1/Work/Linux/target/STM32MP1-DK2/buildroot/buildroot/output/build/optee-os-custom/lib/libutee/tee_api.c:384
     564:	4b04      	ldr	r3, [pc, #16]	; (578 <TEE_SetTAPersistentTime+0x24>)
     566:	4298      	cmp	r0, r3
     568:	d001      	beq.n	56e <TEE_SetTAPersistentTime+0x1a>
/home/aom1/Work/Linux/target/STM32MP1-DK2/buildroot/buildroot/output/build/optee-os-custom/lib/libutee/tee_api.c:386
     56a:	f001 fead 	bl	22c8 <TEE_Panic>
/home/aom1/Work/Linux/target/STM32MP1-DK2/buildroot/buildroot/output/build/optee-os-custom/lib/libutee/tee_api.c:389
     56e:	4620      	mov	r0, r4
     570:	bd10      	pop	{r4, pc}
     572:	bf00      	nop
     574:	ffff000c 	.word	0xffff000c
     578:	ffff3041 	.word	0xffff3041

0000057c <TEE_GetREETime>:
TEE_GetREETime():
/home/aom1/Work/Linux/target/STM32MP1-DK2/buildroot/buildroot/output/build/optee-os-custom/lib/libutee/tee_api.c:392
     57c:	4601      	mov	r1, r0
/home/aom1/Work/Linux/target/STM32MP1-DK2/buildroot/buildroot/output/build/optee-os-custom/lib/libutee/tee_api.c:393
     57e:	2002      	movs	r0, #2
/home/aom1/Work/Linux/target/STM32MP1-DK2/buildroot/buildroot/output/build/optee-os-custom/lib/libutee/tee_api.c:392
     580:	b508      	push	{r3, lr}
/home/aom1/Work/Linux/target/STM32MP1-DK2/buildroot/buildroot/output/build/optee-os-custom/lib/libutee/tee_api.c:393
     582:	f002 e890 	blx	26a4 <_utee_get_time>
/home/aom1/Work/Linux/target/STM32MP1-DK2/buildroot/buildroot/output/build/optee-os-custom/lib/libutee/tee_api.c:395
     586:	b118      	cbz	r0, 590 <TEE_GetREETime+0x14>
/home/aom1/Work/Linux/target/STM32MP1-DK2/buildroot/buildroot/output/build/optee-os-custom/lib/libutee/tee_api.c:397
     588:	e8bd 4008 	ldmia.w	sp!, {r3, lr}
/home/aom1/Work/Linux/target/STM32MP1-DK2/buildroot/buildroot/output/build/optee-os-custom/lib/libutee/tee_api.c:396
     58c:	f001 be9c 	b.w	22c8 <TEE_Panic>
/home/aom1/Work/Linux/target/STM32MP1-DK2/buildroot/buildroot/output/build/optee-os-custom/lib/libutee/tee_api.c:397
     590:	bd08      	pop	{r3, pc}

00000592 <TEE_Malloc>:
TEE_Malloc():
/home/aom1/Work/Linux/target/STM32MP1-DK2/buildroot/buildroot/output/build/optee-os-custom/lib/libutee/tee_api.c:400
     592:	460b      	mov	r3, r1
     594:	b507      	push	{r0, r1, r2, lr}
/home/aom1/Work/Linux/target/STM32MP1-DK2/buildroot/buildroot/output/build/optee-os-custom/lib/libutee/tee_api.c:401
     596:	4601      	mov	r1, r0
     598:	b1f0      	cbz	r0, 5d8 <TEE_Malloc+0x46>
/home/aom1/Work/Linux/target/STM32MP1-DK2/buildroot/buildroot/output/build/optee-os-custom/lib/libutee/tee_api.c:404
     59a:	b92b      	cbnz	r3, 5a8 <TEE_Malloc+0x16>
/home/aom1/Work/Linux/target/STM32MP1-DK2/buildroot/buildroot/output/build/optee-os-custom/lib/libutee/tee_api.c:405
     59c:	2001      	movs	r0, #1
/home/aom1/Work/Linux/target/STM32MP1-DK2/buildroot/buildroot/output/build/optee-os-custom/lib/libutee/tee_api.c:412
     59e:	b003      	add	sp, #12
     5a0:	f85d eb04 	ldr.w	lr, [sp], #4
/home/aom1/Work/Linux/target/STM32MP1-DK2/buildroot/buildroot/output/build/optee-os-custom/lib/libutee/tee_api.c:405
     5a4:	f007 bcc8 	b.w	7f38 <calloc>
/home/aom1/Work/Linux/target/STM32MP1-DK2/buildroot/buildroot/output/build/optee-os-custom/lib/libutee/tee_api.c:406
     5a8:	f1b3 4f00 	cmp.w	r3, #2147483648	; 0x80000000
     5ac:	d104      	bne.n	5b8 <TEE_Malloc+0x26>
/home/aom1/Work/Linux/target/STM32MP1-DK2/buildroot/buildroot/output/build/optee-os-custom/lib/libutee/tee_api.c:412
     5ae:	b003      	add	sp, #12
     5b0:	f85d eb04 	ldr.w	lr, [sp], #4
/home/aom1/Work/Linux/target/STM32MP1-DK2/buildroot/buildroot/output/build/optee-os-custom/lib/libutee/tee_api.c:407
     5b4:	f007 bcb6 	b.w	7f24 <malloc>
/home/aom1/Work/Linux/target/STM32MP1-DK2/buildroot/buildroot/output/build/optee-os-custom/lib/libutee/tee_api.c:409
     5b8:	9301      	str	r3, [sp, #4]
     5ba:	f240 1199 	movw	r1, #409	; 0x199
     5be:	4b07      	ldr	r3, [pc, #28]	; (5dc <TEE_Malloc+0x4a>)
     5c0:	4807      	ldr	r0, [pc, #28]	; (5e0 <TEE_Malloc+0x4e>)
     5c2:	447b      	add	r3, pc
     5c4:	9300      	str	r3, [sp, #0]
     5c6:	2301      	movs	r3, #1
     5c8:	4478      	add	r0, pc
     5ca:	461a      	mov	r2, r3
     5cc:	f000 fb28 	bl	c20 <trace_printf>
/home/aom1/Work/Linux/target/STM32MP1-DK2/buildroot/buildroot/output/build/optee-os-custom/lib/libutee/tee_api.c:411
     5d0:	2000      	movs	r0, #0
/home/aom1/Work/Linux/target/STM32MP1-DK2/buildroot/buildroot/output/build/optee-os-custom/lib/libutee/tee_api.c:412
     5d2:	b003      	add	sp, #12
     5d4:	f85d fb04 	ldr.w	pc, [sp], #4
/home/aom1/Work/Linux/target/STM32MP1-DK2/buildroot/buildroot/output/build/optee-os-custom/lib/libutee/tee_api.c:402
     5d8:	2001      	movs	r0, #1
     5da:	e7fa      	b.n	5d2 <TEE_Malloc+0x40>
     5dc:	000083d2 	.word	0x000083d2
     5e0:	000083dd 	.word	0x000083dd

000005e4 <TEE_Free>:
TEE_Free():
/home/aom1/Work/Linux/target/STM32MP1-DK2/buildroot/buildroot/output/build/optee-os-custom/lib/libutee/tee_api.c:429
     5e4:	2801      	cmp	r0, #1
     5e6:	d001      	beq.n	5ec <TEE_Free+0x8>
/home/aom1/Work/Linux/target/STM32MP1-DK2/buildroot/buildroot/output/build/optee-os-custom/lib/libutee/tee_api.c:430
     5e8:	f007 bcd4 	b.w	7f94 <free>
/home/aom1/Work/Linux/target/STM32MP1-DK2/buildroot/buildroot/output/build/optee-os-custom/lib/libutee/tee_api.c:431
     5ec:	4770      	bx	lr

000005ee <TEE_Realloc>:
TEE_Realloc():
/home/aom1/Work/Linux/target/STM32MP1-DK2/buildroot/buildroot/output/build/optee-os-custom/lib/libutee/tee_api.c:415
     5ee:	b508      	push	{r3, lr}
/home/aom1/Work/Linux/target/STM32MP1-DK2/buildroot/buildroot/output/build/optee-os-custom/lib/libutee/tee_api.c:416
     5f0:	b149      	cbz	r1, 606 <TEE_Realloc+0x18>
/home/aom1/Work/Linux/target/STM32MP1-DK2/buildroot/buildroot/output/build/optee-os-custom/lib/libutee/tee_api.c:421
     5f2:	2801      	cmp	r0, #1
     5f4:	d103      	bne.n	5fe <TEE_Realloc+0x10>
/home/aom1/Work/Linux/target/STM32MP1-DK2/buildroot/buildroot/output/build/optee-os-custom/lib/libutee/tee_api.c:425
     5f6:	e8bd 4008 	ldmia.w	sp!, {r3, lr}
/home/aom1/Work/Linux/target/STM32MP1-DK2/buildroot/buildroot/output/build/optee-os-custom/lib/libutee/tee_api.c:422
     5fa:	f007 bc9d 	b.w	7f38 <calloc>
/home/aom1/Work/Linux/target/STM32MP1-DK2/buildroot/buildroot/output/build/optee-os-custom/lib/libutee/tee_api.c:425
     5fe:	e8bd 4008 	ldmia.w	sp!, {r3, lr}
/home/aom1/Work/Linux/target/STM32MP1-DK2/buildroot/buildroot/output/build/optee-os-custom/lib/libutee/tee_api.c:424
     602:	f007 bca9 	b.w	7f58 <realloc>
/home/aom1/Work/Linux/target/STM32MP1-DK2/buildroot/buildroot/output/build/optee-os-custom/lib/libutee/tee_api.c:417
     606:	f7ff ffed 	bl	5e4 <TEE_Free>
/home/aom1/Work/Linux/target/STM32MP1-DK2/buildroot/buildroot/output/build/optee-os-custom/lib/libutee/tee_api.c:425
     60a:	2001      	movs	r0, #1
     60c:	bd08      	pop	{r3, pc}

0000060e <TEE_CacheClean>:
TEE_CacheClean():
/home/aom1/Work/Linux/target/STM32MP1-DK2/buildroot/buildroot/output/build/optee-os-custom/lib/libutee/tee_api.c:436
     60e:	2200      	movs	r2, #0
     610:	f007 bf1a 	b.w	8448 <___utee_cache_operation_from_thumb>

00000614 <TEE_CacheFlush>:
TEE_CacheFlush():
/home/aom1/Work/Linux/target/STM32MP1-DK2/buildroot/buildroot/output/build/optee-os-custom/lib/libutee/tee_api.c:440
     614:	2201      	movs	r2, #1
     616:	f007 bf17 	b.w	8448 <___utee_cache_operation_from_thumb>

0000061a <TEE_CacheInvalidate>:
TEE_CacheInvalidate():
/home/aom1/Work/Linux/target/STM32MP1-DK2/buildroot/buildroot/output/build/optee-os-custom/lib/libutee/tee_api.c:445
     61a:	2202      	movs	r2, #2
     61c:	f007 bf14 	b.w	8448 <___utee_cache_operation_from_thumb>

00000620 <open_rb_state>:
open_rb_state():
/home/aom1/Work/Linux/target/STM32MP1-DK2/buildroot/buildroot/output/build/optee-os-custom/ta/avb/entry.c:39
     620:	4a1a      	ldr	r2, [pc, #104]	; (68c <open_rb_state+0x6c>)
     622:	4b1b      	ldr	r3, [pc, #108]	; (690 <open_rb_state+0x70>)
     624:	447a      	add	r2, pc
     626:	b530      	push	{r4, r5, lr}
     628:	460c      	mov	r4, r1
     62a:	58d3      	ldr	r3, [r2, r3]
     62c:	b089      	sub	sp, #36	; 0x24
/home/aom1/Work/Linux/target/STM32MP1-DK2/buildroot/buildroot/output/build/optee-os-custom/ta/avb/entry.c:44
     62e:	4919      	ldr	r1, [pc, #100]	; (694 <open_rb_state+0x74>)
/home/aom1/Work/Linux/target/STM32MP1-DK2/buildroot/buildroot/output/build/optee-os-custom/ta/avb/entry.c:39
     630:	4605      	mov	r5, r0
     632:	681b      	ldr	r3, [r3, #0]
     634:	9307      	str	r3, [sp, #28]
     636:	f04f 0300 	mov.w	r3, #0
/home/aom1/Work/Linux/target/STM32MP1-DK2/buildroot/buildroot/output/build/optee-os-custom/ta/avb/entry.c:44
     63a:	2209      	movs	r2, #9
     63c:	4479      	add	r1, pc
     63e:	2303      	movs	r3, #3
     640:	4811      	ldr	r0, [pc, #68]	; (688 <open_rb_state+0x68>)
     642:	9400      	str	r4, [sp, #0]
     644:	9105      	str	r1, [sp, #20]
     646:	f001 fbbb 	bl	1dc0 <TEE_OpenPersistentObject>
/home/aom1/Work/Linux/target/STM32MP1-DK2/buildroot/buildroot/output/build/optee-os-custom/ta/avb/entry.c:46
     64a:	b170      	cbz	r0, 66a <open_rb_state+0x4a>
create_rb_state():
/home/aom1/Work/Linux/target/STM32MP1-DK2/buildroot/buildroot/output/build/optee-os-custom/ta/avb/entry.c:32
     64c:	9905      	ldr	r1, [sp, #20]
     64e:	2304      	movs	r3, #4
     650:	9302      	str	r3, [sp, #8]
     652:	ab06      	add	r3, sp, #24
     654:	9301      	str	r3, [sp, #4]
     656:	2300      	movs	r3, #0
     658:	9300      	str	r3, [sp, #0]
     65a:	2209      	movs	r2, #9
     65c:	480a      	ldr	r0, [pc, #40]	; (688 <open_rb_state+0x68>)
     65e:	f240 4303 	movw	r3, #1027	; 0x403
     662:	9403      	str	r4, [sp, #12]
     664:	9506      	str	r5, [sp, #24]
     666:	f001 fbfb 	bl	1e60 <TEE_CreatePersistentObject>
open_rb_state():
/home/aom1/Work/Linux/target/STM32MP1-DK2/buildroot/buildroot/output/build/optee-os-custom/ta/avb/entry.c:39
     66a:	4a0b      	ldr	r2, [pc, #44]	; (698 <open_rb_state+0x78>)
/home/aom1/Work/Linux/target/STM32MP1-DK2/buildroot/buildroot/output/build/optee-os-custom/ta/avb/entry.c:50
     66c:	4b08      	ldr	r3, [pc, #32]	; (690 <open_rb_state+0x70>)
/home/aom1/Work/Linux/target/STM32MP1-DK2/buildroot/buildroot/output/build/optee-os-custom/ta/avb/entry.c:39
     66e:	447a      	add	r2, pc
/home/aom1/Work/Linux/target/STM32MP1-DK2/buildroot/buildroot/output/build/optee-os-custom/ta/avb/entry.c:50
     670:	58d3      	ldr	r3, [r2, r3]
     672:	681a      	ldr	r2, [r3, #0]
     674:	9b07      	ldr	r3, [sp, #28]
     676:	405a      	eors	r2, r3
     678:	f04f 0300 	mov.w	r3, #0
     67c:	d001      	beq.n	682 <open_rb_state+0x62>
     67e:	f007 fe74 	bl	836a <__stack_chk_fail>
     682:	b009      	add	sp, #36	; 0x24
     684:	bd30      	pop	{r4, r5, pc}
     686:	bf00      	nop
     688:	80000100 	.word	0x80000100
     68c:	00009a60 	.word	0x00009a60
     690:	0000000c 	.word	0x0000000c
     694:	000081e6 	.word	0x000081e6
     698:	00009a16 	.word	0x00009a16

0000069c <get_named_object_name>:
get_named_object_name():
/home/aom1/Work/Linux/target/STM32MP1-DK2/buildroot/buildroot/output/build/optee-os-custom/ta/avb/entry.c:55
     69c:	e92d 41f0 	stmdb	sp!, {r4, r5, r6, r7, r8, lr}
/home/aom1/Work/Linux/target/STM32MP1-DK2/buildroot/buildroot/output/build/optee-os-custom/ta/avb/entry.c:58
     6a0:	f101 080c 	add.w	r8, r1, #12
     6a4:	f1b8 0f40 	cmp.w	r8, #64	; 0x40
/home/aom1/Work/Linux/target/STM32MP1-DK2/buildroot/buildroot/output/build/optee-os-custom/ta/avb/entry.c:55
     6a8:	4607      	mov	r7, r0
     6aa:	460d      	mov	r5, r1
     6ac:	4614      	mov	r4, r2
     6ae:	461e      	mov	r6, r3
/home/aom1/Work/Linux/target/STM32MP1-DK2/buildroot/buildroot/output/build/optee-os-custom/ta/avb/entry.c:58
     6b0:	d810      	bhi.n	6d4 <get_named_object_name+0x38>
/home/aom1/Work/Linux/target/STM32MP1-DK2/buildroot/buildroot/output/build/optee-os-custom/ta/avb/entry.c:63
     6b2:	490a      	ldr	r1, [pc, #40]	; (6dc <get_named_object_name+0x40>)
     6b4:	220c      	movs	r2, #12
     6b6:	4620      	mov	r0, r4
     6b8:	4479      	add	r1, pc
     6ba:	f7ff ff0d 	bl	4d8 <TEE_MemMove>
/home/aom1/Work/Linux/target/STM32MP1-DK2/buildroot/buildroot/output/build/optee-os-custom/ta/avb/entry.c:66
     6be:	462a      	mov	r2, r5
     6c0:	4639      	mov	r1, r7
     6c2:	f104 000c 	add.w	r0, r4, #12
     6c6:	f7ff ff07 	bl	4d8 <TEE_MemMove>
/home/aom1/Work/Linux/target/STM32MP1-DK2/buildroot/buildroot/output/build/optee-os-custom/ta/avb/entry.c:68
     6ca:	f8c6 8000 	str.w	r8, [r6]
/home/aom1/Work/Linux/target/STM32MP1-DK2/buildroot/buildroot/output/build/optee-os-custom/ta/avb/entry.c:70
     6ce:	2000      	movs	r0, #0
/home/aom1/Work/Linux/target/STM32MP1-DK2/buildroot/buildroot/output/build/optee-os-custom/ta/avb/entry.c:71
     6d0:	e8bd 81f0 	ldmia.w	sp!, {r4, r5, r6, r7, r8, pc}
/home/aom1/Work/Linux/target/STM32MP1-DK2/buildroot/buildroot/output/build/optee-os-custom/ta/avb/entry.c:60
     6d4:	4800      	ldr	r0, [pc, #0]	; (6d8 <get_named_object_name+0x3c>)
     6d6:	e7fb      	b.n	6d0 <get_named_object_name+0x34>
     6d8:	ffff0006 	.word	0xffff0006
     6dc:	000080bc 	.word	0x000080bc

000006e0 <TA_CreateEntryPoint>:
TA_CreateEntryPoint():
/home/aom1/Work/Linux/target/STM32MP1-DK2/buildroot/buildroot/output/build/optee-os-custom/ta/avb/entry.c:360
     6e0:	2000      	movs	r0, #0
     6e2:	4770      	bx	lr

000006e4 <TA_DestroyEntryPoint>:
TA_DestroyEntryPoint():
/home/aom1/Work/Linux/target/STM32MP1-DK2/buildroot/buildroot/output/build/optee-os-custom/ta/avb/entry.c:364
     6e4:	4770      	bx	lr

000006e6 <TA_OpenSessionEntryPoint>:
TA_OpenSessionEntryPoint():
/home/aom1/Work/Linux/target/STM32MP1-DK2/buildroot/buildroot/output/build/optee-os-custom/ta/avb/entry.c:371
     6e6:	2000      	movs	r0, #0
     6e8:	4770      	bx	lr

000006ea <TA_CloseSessionEntryPoint>:
TA_CloseSessionEntryPoint():
/home/aom1/Work/Linux/target/STM32MP1-DK2/buildroot/buildroot/output/build/optee-os-custom/ta/avb/entry.c:375
     6ea:	4770      	bx	lr

000006ec <TA_InvokeCommandEntryPoint>:
TA_InvokeCommandEntryPoint():
/home/aom1/Work/Linux/target/STM32MP1-DK2/buildroot/buildroot/output/build/optee-os-custom/ta/avb/entry.c:380
     6ec:	e92d 43f0 	stmdb	sp!, {r4, r5, r6, r7, r8, r9, lr}
     6f0:	4614      	mov	r4, r2
     6f2:	4ad3      	ldr	r2, [pc, #844]	; (a40 <TA_InvokeCommandEntryPoint+0x354>)
     6f4:	461d      	mov	r5, r3
     6f6:	4bd3      	ldr	r3, [pc, #844]	; (a44 <TA_InvokeCommandEntryPoint+0x358>)
     6f8:	b09d      	sub	sp, #116	; 0x74
     6fa:	447a      	add	r2, pc
     6fc:	58d3      	ldr	r3, [r2, r3]
     6fe:	681b      	ldr	r3, [r3, #0]
     700:	931b      	str	r3, [sp, #108]	; 0x6c
     702:	f04f 0300 	mov.w	r3, #0
/home/aom1/Work/Linux/target/STM32MP1-DK2/buildroot/buildroot/output/build/optee-os-custom/ta/avb/entry.c:381
     706:	2905      	cmp	r1, #5
     708:	f200 817a 	bhi.w	a00 <TA_InvokeCommandEntryPoint+0x314>
     70c:	e8df f011 	tbh	[pc, r1, lsl #1]
     710:	00460006 	.word	0x00460006
     714:	00b00096 	.word	0x00b00096
     718:	013600de 	.word	0x013600de
read_rb_idx():
/home/aom1/Work/Linux/target/STM32MP1-DK2/buildroot/buildroot/output/build/optee-os-custom/ta/avb/entry.c:85
     71c:	2c21      	cmp	r4, #33	; 0x21
     71e:	f040 816b 	bne.w	9f8 <TA_InvokeCommandEntryPoint+0x30c>
/home/aom1/Work/Linux/target/STM32MP1-DK2/buildroot/buildroot/output/build/optee-os-custom/ta/avb/entry.c:88
     722:	682e      	ldr	r6, [r5, #0]
get_slot_offset():
/home/aom1/Work/Linux/target/STM32MP1-DK2/buildroot/buildroot/output/build/optee-os-custom/ta/avb/entry.c:19
     724:	2eff      	cmp	r6, #255	; 0xff
     726:	f200 8167 	bhi.w	9f8 <TA_InvokeCommandEntryPoint+0x30c>
read_rb_idx():
/home/aom1/Work/Linux/target/STM32MP1-DK2/buildroot/buildroot/output/build/optee-os-custom/ta/avb/entry.c:92
     72a:	a906      	add	r1, sp, #24
     72c:	2000      	movs	r0, #0
     72e:	f7ff ff77 	bl	620 <open_rb_state>
/home/aom1/Work/Linux/target/STM32MP1-DK2/buildroot/buildroot/output/build/optee-os-custom/ta/avb/entry.c:93
     732:	4604      	mov	r4, r0
     734:	2800      	cmp	r0, #0
     736:	d16a      	bne.n	80e <TA_InvokeCommandEntryPoint+0x122>
get_slot_offset():
/home/aom1/Work/Linux/target/STM32MP1-DK2/buildroot/buildroot/output/build/optee-os-custom/ta/avb/entry.c:22
     738:	00f6      	lsls	r6, r6, #3
read_rb_idx():
/home/aom1/Work/Linux/target/STM32MP1-DK2/buildroot/buildroot/output/build/optee-os-custom/ta/avb/entry.c:96
     73a:	4602      	mov	r2, r0
     73c:	9806      	ldr	r0, [sp, #24]
get_slot_offset():
/home/aom1/Work/Linux/target/STM32MP1-DK2/buildroot/buildroot/output/build/optee-os-custom/ta/avb/entry.c:22
     73e:	3604      	adds	r6, #4
read_rb_idx():
/home/aom1/Work/Linux/target/STM32MP1-DK2/buildroot/buildroot/output/build/optee-os-custom/ta/avb/entry.c:96
     740:	4631      	mov	r1, r6
     742:	f001 fd57 	bl	21f4 <TEE_SeekObjectData>
/home/aom1/Work/Linux/target/STM32MP1-DK2/buildroot/buildroot/output/build/optee-os-custom/ta/avb/entry.c:97
     746:	4604      	mov	r4, r0
     748:	b978      	cbnz	r0, 76a <TA_InvokeCommandEntryPoint+0x7e>
/home/aom1/Work/Linux/target/STM32MP1-DK2/buildroot/buildroot/output/build/optee-os-custom/ta/avb/entry.c:100
     74a:	9806      	ldr	r0, [sp, #24]
     74c:	af08      	add	r7, sp, #32
     74e:	ab05      	add	r3, sp, #20
     750:	2208      	movs	r2, #8
     752:	4639      	mov	r1, r7
     754:	f001 fccc 	bl	20f0 <TEE_ReadObjectData>
/home/aom1/Work/Linux/target/STM32MP1-DK2/buildroot/buildroot/output/build/optee-os-custom/ta/avb/entry.c:101
     758:	4604      	mov	r4, r0
     75a:	b930      	cbnz	r0, 76a <TA_InvokeCommandEntryPoint+0x7e>
/home/aom1/Work/Linux/target/STM32MP1-DK2/buildroot/buildroot/output/build/optee-os-custom/ta/avb/entry.c:103
     75c:	9b05      	ldr	r3, [sp, #20]
     75e:	2b08      	cmp	r3, #8
     760:	d105      	bne.n	76e <TA_InvokeCommandEntryPoint+0x82>
/home/aom1/Work/Linux/target/STM32MP1-DK2/buildroot/buildroot/output/build/optee-os-custom/ta/avb/entry.c:121
     762:	9b09      	ldr	r3, [sp, #36]	; 0x24
     764:	60ab      	str	r3, [r5, #8]
/home/aom1/Work/Linux/target/STM32MP1-DK2/buildroot/buildroot/output/build/optee-os-custom/ta/avb/entry.c:122
     766:	9b08      	ldr	r3, [sp, #32]
     768:	60eb      	str	r3, [r5, #12]
write_lock_state():
/home/aom1/Work/Linux/target/STM32MP1-DK2/buildroot/buildroot/output/build/optee-os-custom/ta/avb/entry.c:244
     76a:	9806      	ldr	r0, [sp, #24]
     76c:	e04d      	b.n	80a <TA_InvokeCommandEntryPoint+0x11e>
read_rb_idx():
/home/aom1/Work/Linux/target/STM32MP1-DK2/buildroot/buildroot/output/build/optee-os-custom/ta/avb/entry.c:111
     76e:	9806      	ldr	r0, [sp, #24]
/home/aom1/Work/Linux/target/STM32MP1-DK2/buildroot/buildroot/output/build/optee-os-custom/ta/avb/entry.c:104
     770:	f04f 0800 	mov.w	r8, #0
     774:	f04f 0900 	mov.w	r9, #0
     778:	e9cd 8908 	strd	r8, r9, [sp, #32]
/home/aom1/Work/Linux/target/STM32MP1-DK2/buildroot/buildroot/output/build/optee-os-custom/ta/avb/entry.c:106
     77c:	2b00      	cmp	r3, #0
     77e:	d0f0      	beq.n	762 <TA_InvokeCommandEntryPoint+0x76>
/home/aom1/Work/Linux/target/STM32MP1-DK2/buildroot/buildroot/output/build/optee-os-custom/ta/avb/entry.c:111
     780:	4622      	mov	r2, r4
     782:	4631      	mov	r1, r6
     784:	f001 fd36 	bl	21f4 <TEE_SeekObjectData>
/home/aom1/Work/Linux/target/STM32MP1-DK2/buildroot/buildroot/output/build/optee-os-custom/ta/avb/entry.c:113
     788:	b930      	cbnz	r0, 798 <TA_InvokeCommandEntryPoint+0xac>
/home/aom1/Work/Linux/target/STM32MP1-DK2/buildroot/buildroot/output/build/optee-os-custom/ta/avb/entry.c:115
     78a:	9806      	ldr	r0, [sp, #24]
     78c:	2208      	movs	r2, #8
     78e:	4639      	mov	r1, r7
     790:	f001 fcf4 	bl	217c <TEE_WriteObjectData>
/home/aom1/Work/Linux/target/STM32MP1-DK2/buildroot/buildroot/output/build/optee-os-custom/ta/avb/entry.c:116
     794:	2800      	cmp	r0, #0
     796:	d0e4      	beq.n	762 <TA_InvokeCommandEntryPoint+0x76>
create_rb_state():
/home/aom1/Work/Linux/target/STM32MP1-DK2/buildroot/buildroot/output/build/optee-os-custom/ta/avb/entry.c:32
     798:	4604      	mov	r4, r0
     79a:	e7e6      	b.n	76a <TA_InvokeCommandEntryPoint+0x7e>
write_rb_idx():
/home/aom1/Work/Linux/target/STM32MP1-DK2/buildroot/buildroot/output/build/optee-os-custom/ta/avb/entry.c:141
     79c:	2c11      	cmp	r4, #17
     79e:	f040 812b 	bne.w	9f8 <TA_InvokeCommandEntryPoint+0x30c>
/home/aom1/Work/Linux/target/STM32MP1-DK2/buildroot/buildroot/output/build/optee-os-custom/ta/avb/entry.c:144
     7a2:	682e      	ldr	r6, [r5, #0]
get_slot_offset():
/home/aom1/Work/Linux/target/STM32MP1-DK2/buildroot/buildroot/output/build/optee-os-custom/ta/avb/entry.c:19
     7a4:	2eff      	cmp	r6, #255	; 0xff
     7a6:	f200 8127 	bhi.w	9f8 <TA_InvokeCommandEntryPoint+0x30c>
write_rb_idx():
/home/aom1/Work/Linux/target/STM32MP1-DK2/buildroot/buildroot/output/build/optee-os-custom/ta/avb/entry.c:147
     7aa:	68ab      	ldr	r3, [r5, #8]
/home/aom1/Work/Linux/target/STM32MP1-DK2/buildroot/buildroot/output/build/optee-os-custom/ta/avb/entry.c:149
     7ac:	a905      	add	r1, sp, #20
/home/aom1/Work/Linux/target/STM32MP1-DK2/buildroot/buildroot/output/build/optee-os-custom/ta/avb/entry.c:147
     7ae:	68ea      	ldr	r2, [r5, #12]
/home/aom1/Work/Linux/target/STM32MP1-DK2/buildroot/buildroot/output/build/optee-os-custom/ta/avb/entry.c:149
     7b0:	2000      	movs	r0, #0
/home/aom1/Work/Linux/target/STM32MP1-DK2/buildroot/buildroot/output/build/optee-os-custom/ta/avb/entry.c:147
     7b2:	e9cd 2306 	strd	r2, r3, [sp, #24]
/home/aom1/Work/Linux/target/STM32MP1-DK2/buildroot/buildroot/output/build/optee-os-custom/ta/avb/entry.c:149
     7b6:	f7ff ff33 	bl	620 <open_rb_state>
/home/aom1/Work/Linux/target/STM32MP1-DK2/buildroot/buildroot/output/build/optee-os-custom/ta/avb/entry.c:150
     7ba:	4604      	mov	r4, r0
     7bc:	bb38      	cbnz	r0, 80e <TA_InvokeCommandEntryPoint+0x122>
get_slot_offset():
/home/aom1/Work/Linux/target/STM32MP1-DK2/buildroot/buildroot/output/build/optee-os-custom/ta/avb/entry.c:22
     7be:	00f5      	lsls	r5, r6, #3
write_rb_idx():
/home/aom1/Work/Linux/target/STM32MP1-DK2/buildroot/buildroot/output/build/optee-os-custom/ta/avb/entry.c:153
     7c0:	4602      	mov	r2, r0
     7c2:	9805      	ldr	r0, [sp, #20]
get_slot_offset():
/home/aom1/Work/Linux/target/STM32MP1-DK2/buildroot/buildroot/output/build/optee-os-custom/ta/avb/entry.c:22
     7c4:	3504      	adds	r5, #4
write_rb_idx():
/home/aom1/Work/Linux/target/STM32MP1-DK2/buildroot/buildroot/output/build/optee-os-custom/ta/avb/entry.c:153
     7c6:	4629      	mov	r1, r5
     7c8:	f001 fd14 	bl	21f4 <TEE_SeekObjectData>
/home/aom1/Work/Linux/target/STM32MP1-DK2/buildroot/buildroot/output/build/optee-os-custom/ta/avb/entry.c:154
     7cc:	4604      	mov	r4, r0
     7ce:	b9d8      	cbnz	r0, 808 <TA_InvokeCommandEntryPoint+0x11c>
/home/aom1/Work/Linux/target/STM32MP1-DK2/buildroot/buildroot/output/build/optee-os-custom/ta/avb/entry.c:157
     7d0:	9805      	ldr	r0, [sp, #20]
     7d2:	ab04      	add	r3, sp, #16
     7d4:	2208      	movs	r2, #8
     7d6:	a908      	add	r1, sp, #32
     7d8:	f001 fc8a 	bl	20f0 <TEE_ReadObjectData>
/home/aom1/Work/Linux/target/STM32MP1-DK2/buildroot/buildroot/output/build/optee-os-custom/ta/avb/entry.c:158
     7dc:	4604      	mov	r4, r0
     7de:	b998      	cbnz	r0, 808 <TA_InvokeCommandEntryPoint+0x11c>
/home/aom1/Work/Linux/target/STM32MP1-DK2/buildroot/buildroot/output/build/optee-os-custom/ta/avb/entry.c:160
     7e0:	9b04      	ldr	r3, [sp, #16]
     7e2:	2b08      	cmp	r3, #8
     7e4:	d020      	beq.n	828 <TA_InvokeCommandEntryPoint+0x13c>
/home/aom1/Work/Linux/target/STM32MP1-DK2/buildroot/buildroot/output/build/optee-os-custom/ta/avb/entry.c:161
     7e6:	2200      	movs	r2, #0
     7e8:	2300      	movs	r3, #0
     7ea:	e9cd 2308 	strd	r2, r3, [sp, #32]
/home/aom1/Work/Linux/target/STM32MP1-DK2/buildroot/buildroot/output/build/optee-os-custom/ta/avb/entry.c:168
     7ee:	9805      	ldr	r0, [sp, #20]
     7f0:	2200      	movs	r2, #0
     7f2:	4629      	mov	r1, r5
     7f4:	f001 fcfe 	bl	21f4 <TEE_SeekObjectData>
/home/aom1/Work/Linux/target/STM32MP1-DK2/buildroot/buildroot/output/build/optee-os-custom/ta/avb/entry.c:169
     7f8:	4604      	mov	r4, r0
     7fa:	b928      	cbnz	r0, 808 <TA_InvokeCommandEntryPoint+0x11c>
/home/aom1/Work/Linux/target/STM32MP1-DK2/buildroot/buildroot/output/build/optee-os-custom/ta/avb/entry.c:172
     7fc:	9805      	ldr	r0, [sp, #20]
     7fe:	2208      	movs	r2, #8
     800:	a906      	add	r1, sp, #24
     802:	f001 fcbb 	bl	217c <TEE_WriteObjectData>
     806:	4604      	mov	r4, r0
/home/aom1/Work/Linux/target/STM32MP1-DK2/buildroot/buildroot/output/build/optee-os-custom/ta/avb/entry.c:174
     808:	9805      	ldr	r0, [sp, #20]
     80a:	f001 f8f3 	bl	19f4 <TEE_CloseObject>
TA_InvokeCommandEntryPoint():
/home/aom1/Work/Linux/target/STM32MP1-DK2/buildroot/buildroot/output/build/optee-os-custom/ta/avb/entry.c:380
     80e:	4a8e      	ldr	r2, [pc, #568]	; (a48 <TA_InvokeCommandEntryPoint+0x35c>)
/home/aom1/Work/Linux/target/STM32MP1-DK2/buildroot/buildroot/output/build/optee-os-custom/ta/avb/entry.c:398
     810:	4b8c      	ldr	r3, [pc, #560]	; (a44 <TA_InvokeCommandEntryPoint+0x358>)
/home/aom1/Work/Linux/target/STM32MP1-DK2/buildroot/buildroot/output/build/optee-os-custom/ta/avb/entry.c:380
     812:	447a      	add	r2, pc
/home/aom1/Work/Linux/target/STM32MP1-DK2/buildroot/buildroot/output/build/optee-os-custom/ta/avb/entry.c:398
     814:	58d3      	ldr	r3, [r2, r3]
     816:	681a      	ldr	r2, [r3, #0]
     818:	9b1b      	ldr	r3, [sp, #108]	; 0x6c
     81a:	405a      	eors	r2, r3
     81c:	f04f 0300 	mov.w	r3, #0
     820:	f000 80fd 	beq.w	a1e <TA_InvokeCommandEntryPoint+0x332>
     824:	f007 fda1 	bl	836a <__stack_chk_fail>
write_rb_idx():
/home/aom1/Work/Linux/target/STM32MP1-DK2/buildroot/buildroot/output/build/optee-os-custom/ta/avb/entry.c:163
     828:	9a06      	ldr	r2, [sp, #24]
     82a:	9b08      	ldr	r3, [sp, #32]
     82c:	429a      	cmp	r2, r3
     82e:	9a07      	ldr	r2, [sp, #28]
     830:	9b09      	ldr	r3, [sp, #36]	; 0x24
     832:	eb72 0303 	sbcs.w	r3, r2, r3
     836:	d2da      	bcs.n	7ee <TA_InvokeCommandEntryPoint+0x102>
/home/aom1/Work/Linux/target/STM32MP1-DK2/buildroot/buildroot/output/build/optee-os-custom/ta/avb/entry.c:164
     838:	4c7b      	ldr	r4, [pc, #492]	; (a28 <TA_InvokeCommandEntryPoint+0x33c>)
     83a:	e7e5      	b.n	808 <TA_InvokeCommandEntryPoint+0x11c>
read_lock_state():
/home/aom1/Work/Linux/target/STM32MP1-DK2/buildroot/buildroot/output/build/optee-os-custom/ta/avb/entry.c:189
     83c:	2c02      	cmp	r4, #2
     83e:	f040 80db 	bne.w	9f8 <TA_InvokeCommandEntryPoint+0x30c>
/home/aom1/Work/Linux/target/STM32MP1-DK2/buildroot/buildroot/output/build/optee-os-custom/ta/avb/entry.c:192
     842:	a908      	add	r1, sp, #32
     844:	2000      	movs	r0, #0
     846:	f7ff feeb 	bl	620 <open_rb_state>
/home/aom1/Work/Linux/target/STM32MP1-DK2/buildroot/buildroot/output/build/optee-os-custom/ta/avb/entry.c:193
     84a:	4604      	mov	r4, r0
     84c:	2800      	cmp	r0, #0
     84e:	d1de      	bne.n	80e <TA_InvokeCommandEntryPoint+0x122>
/home/aom1/Work/Linux/target/STM32MP1-DK2/buildroot/buildroot/output/build/optee-os-custom/ta/avb/entry.c:196
     850:	9808      	ldr	r0, [sp, #32]
     852:	ab06      	add	r3, sp, #24
     854:	2204      	movs	r2, #4
     856:	a905      	add	r1, sp, #20
     858:	f001 fc4a 	bl	20f0 <TEE_ReadObjectData>
/home/aom1/Work/Linux/target/STM32MP1-DK2/buildroot/buildroot/output/build/optee-os-custom/ta/avb/entry.c:197
     85c:	4604      	mov	r4, r0
     85e:	b928      	cbnz	r0, 86c <TA_InvokeCommandEntryPoint+0x180>
/home/aom1/Work/Linux/target/STM32MP1-DK2/buildroot/buildroot/output/build/optee-os-custom/ta/avb/entry.c:199
     860:	9b06      	ldr	r3, [sp, #24]
     862:	2b04      	cmp	r3, #4
/home/aom1/Work/Linux/target/STM32MP1-DK2/buildroot/buildroot/output/build/optee-os-custom/ta/avb/entry.c:208
     864:	bf0a      	itet	eq
     866:	9b05      	ldreq	r3, [sp, #20]
/home/aom1/Work/Linux/target/STM32MP1-DK2/buildroot/buildroot/output/build/optee-os-custom/ta/avb/entry.c:204
     868:	4c70      	ldrne	r4, [pc, #448]	; (a2c <TA_InvokeCommandEntryPoint+0x340>)
/home/aom1/Work/Linux/target/STM32MP1-DK2/buildroot/buildroot/output/build/optee-os-custom/ta/avb/entry.c:208
     86a:	602b      	streq	r3, [r5, #0]
/home/aom1/Work/Linux/target/STM32MP1-DK2/buildroot/buildroot/output/build/optee-os-custom/ta/avb/entry.c:210
     86c:	9808      	ldr	r0, [sp, #32]
     86e:	e7cc      	b.n	80a <TA_InvokeCommandEntryPoint+0x11e>
write_lock_state():
/home/aom1/Work/Linux/target/STM32MP1-DK2/buildroot/buildroot/output/build/optee-os-custom/ta/avb/entry.c:227
     870:	2c01      	cmp	r4, #1
     872:	f040 80c1 	bne.w	9f8 <TA_InvokeCommandEntryPoint+0x30c>
/home/aom1/Work/Linux/target/STM32MP1-DK2/buildroot/buildroot/output/build/optee-os-custom/ta/avb/entry.c:230
     876:	682d      	ldr	r5, [r5, #0]
/home/aom1/Work/Linux/target/STM32MP1-DK2/buildroot/buildroot/output/build/optee-os-custom/ta/avb/entry.c:232
     878:	ae06      	add	r6, sp, #24
     87a:	4631      	mov	r1, r6
     87c:	4628      	mov	r0, r5
     87e:	f7ff fecf 	bl	620 <open_rb_state>
/home/aom1/Work/Linux/target/STM32MP1-DK2/buildroot/buildroot/output/build/optee-os-custom/ta/avb/entry.c:233
     882:	4604      	mov	r4, r0
     884:	2800      	cmp	r0, #0
     886:	d1c2      	bne.n	80e <TA_InvokeCommandEntryPoint+0x122>
/home/aom1/Work/Linux/target/STM32MP1-DK2/buildroot/buildroot/output/build/optee-os-custom/ta/avb/entry.c:236
     888:	9806      	ldr	r0, [sp, #24]
     88a:	ab05      	add	r3, sp, #20
     88c:	2204      	movs	r2, #4
     88e:	a904      	add	r1, sp, #16
     890:	f001 fc2e 	bl	20f0 <TEE_ReadObjectData>
/home/aom1/Work/Linux/target/STM32MP1-DK2/buildroot/buildroot/output/build/optee-os-custom/ta/avb/entry.c:237
     894:	4604      	mov	r4, r0
     896:	2800      	cmp	r0, #0
     898:	f47f af67 	bne.w	76a <TA_InvokeCommandEntryPoint+0x7e>
/home/aom1/Work/Linux/target/STM32MP1-DK2/buildroot/buildroot/output/build/optee-os-custom/ta/avb/entry.c:239
     89c:	9b05      	ldr	r3, [sp, #20]
     89e:	2b04      	cmp	r3, #4
     8a0:	d103      	bne.n	8aa <TA_InvokeCommandEntryPoint+0x1be>
     8a2:	9b04      	ldr	r3, [sp, #16]
     8a4:	429d      	cmp	r5, r3
     8a6:	f43f af60 	beq.w	76a <TA_InvokeCommandEntryPoint+0x7e>
create_rb_state():
/home/aom1/Work/Linux/target/STM32MP1-DK2/buildroot/buildroot/output/build/optee-os-custom/ta/avb/entry.c:32
     8aa:	4968      	ldr	r1, [pc, #416]	; (a4c <TA_InvokeCommandEntryPoint+0x360>)
     8ac:	2304      	movs	r3, #4
     8ae:	9302      	str	r3, [sp, #8]
     8b0:	ab08      	add	r3, sp, #32
     8b2:	9301      	str	r3, [sp, #4]
     8b4:	2300      	movs	r3, #0
     8b6:	9300      	str	r3, [sp, #0]
     8b8:	2209      	movs	r2, #9
     8ba:	4479      	add	r1, pc
     8bc:	f240 4303 	movw	r3, #1027	; 0x403
     8c0:	9603      	str	r6, [sp, #12]
     8c2:	485b      	ldr	r0, [pc, #364]	; (a30 <TA_InvokeCommandEntryPoint+0x344>)
     8c4:	9508      	str	r5, [sp, #32]
     8c6:	f001 facb 	bl	1e60 <TEE_CreatePersistentObject>
     8ca:	e765      	b.n	798 <TA_InvokeCommandEntryPoint+0xac>
read_persist_value():
/home/aom1/Work/Linux/target/STM32MP1-DK2/buildroot/buildroot/output/build/optee-os-custom/ta/avb/entry.c:317
     8cc:	2c75      	cmp	r4, #117	; 0x75
/home/aom1/Work/Linux/target/STM32MP1-DK2/buildroot/buildroot/output/build/optee-os-custom/ta/avb/entry.c:308
     8ce:	f04f 0100 	mov.w	r1, #0
     8d2:	9105      	str	r1, [sp, #20]
/home/aom1/Work/Linux/target/STM32MP1-DK2/buildroot/buildroot/output/build/optee-os-custom/ta/avb/entry.c:310
     8d4:	9106      	str	r1, [sp, #24]
/home/aom1/Work/Linux/target/STM32MP1-DK2/buildroot/buildroot/output/build/optee-os-custom/ta/avb/entry.c:315
     8d6:	9108      	str	r1, [sp, #32]
/home/aom1/Work/Linux/target/STM32MP1-DK2/buildroot/buildroot/output/build/optee-os-custom/ta/avb/entry.c:317
     8d8:	f040 808e 	bne.w	9f8 <TA_InvokeCommandEntryPoint+0x30c>
/home/aom1/Work/Linux/target/STM32MP1-DK2/buildroot/buildroot/output/build/optee-os-custom/ta/avb/entry.c:322
     8dc:	68ef      	ldr	r7, [r5, #12]
/home/aom1/Work/Linux/target/STM32MP1-DK2/buildroot/buildroot/output/build/optee-os-custom/ta/avb/entry.c:321
     8de:	e9d5 4900 	ldrd	r4, r9, [r5]
/home/aom1/Work/Linux/target/STM32MP1-DK2/buildroot/buildroot/output/build/optee-os-custom/ta/avb/entry.c:323
     8e2:	4638      	mov	r0, r7
     8e4:	f7ff fe55 	bl	592 <TEE_Malloc>
/home/aom1/Work/Linux/target/STM32MP1-DK2/buildroot/buildroot/output/build/optee-os-custom/ta/avb/entry.c:324
     8e8:	4606      	mov	r6, r0
     8ea:	2800      	cmp	r0, #0
     8ec:	f000 8086 	beq.w	9fc <TA_InvokeCommandEntryPoint+0x310>
/home/aom1/Work/Linux/target/STM32MP1-DK2/buildroot/buildroot/output/build/optee-os-custom/ta/avb/entry.c:327
     8f0:	f10d 082c 	add.w	r8, sp, #44	; 0x2c
     8f4:	4620      	mov	r0, r4
     8f6:	ab06      	add	r3, sp, #24
     8f8:	4642      	mov	r2, r8
     8fa:	4649      	mov	r1, r9
     8fc:	f7ff fece 	bl	69c <get_named_object_name>
/home/aom1/Work/Linux/target/STM32MP1-DK2/buildroot/buildroot/output/build/optee-os-custom/ta/avb/entry.c:329
     900:	4604      	mov	r4, r0
     902:	b9b0      	cbnz	r0, 932 <TA_InvokeCommandEntryPoint+0x246>
/home/aom1/Work/Linux/target/STM32MP1-DK2/buildroot/buildroot/output/build/optee-os-custom/ta/avb/entry.c:332
     904:	9a06      	ldr	r2, [sp, #24]
     906:	ab05      	add	r3, sp, #20
     908:	9300      	str	r3, [sp, #0]
     90a:	4641      	mov	r1, r8
     90c:	4848      	ldr	r0, [pc, #288]	; (a30 <TA_InvokeCommandEntryPoint+0x344>)
     90e:	2303      	movs	r3, #3
     910:	f001 fa56 	bl	1dc0 <TEE_OpenPersistentObject>
/home/aom1/Work/Linux/target/STM32MP1-DK2/buildroot/buildroot/output/build/optee-os-custom/ta/avb/entry.c:334
     914:	4604      	mov	r4, r0
     916:	b180      	cbz	r0, 93a <TA_InvokeCommandEntryPoint+0x24e>
/home/aom1/Work/Linux/target/STM32MP1-DK2/buildroot/buildroot/output/build/optee-os-custom/ta/avb/entry.c:335
     918:	4b4d      	ldr	r3, [pc, #308]	; (a50 <TA_InvokeCommandEntryPoint+0x364>)
     91a:	f240 114f 	movw	r1, #335	; 0x14f
     91e:	9001      	str	r0, [sp, #4]
     920:	484c      	ldr	r0, [pc, #304]	; (a54 <TA_InvokeCommandEntryPoint+0x368>)
     922:	447b      	add	r3, pc
     924:	4478      	add	r0, pc
     926:	9300      	str	r3, [sp, #0]
     928:	2301      	movs	r3, #1
     92a:	461a      	mov	r2, r3
     92c:	3009      	adds	r0, #9
     92e:	f000 f977 	bl	c20 <trace_printf>
write_persist_value():
/home/aom1/Work/Linux/target/STM32MP1-DK2/buildroot/buildroot/output/build/optee-os-custom/ta/avb/entry.c:293
     932:	4630      	mov	r0, r6
     934:	f7ff fe56 	bl	5e4 <TEE_Free>
/home/aom1/Work/Linux/target/STM32MP1-DK2/buildroot/buildroot/output/build/optee-os-custom/ta/avb/entry.c:295
     938:	e769      	b.n	80e <TA_InvokeCommandEntryPoint+0x122>
read_persist_value():
/home/aom1/Work/Linux/target/STM32MP1-DK2/buildroot/buildroot/output/build/optee-os-custom/ta/avb/entry.c:339
     93a:	9805      	ldr	r0, [sp, #20]
     93c:	ab08      	add	r3, sp, #32
     93e:	463a      	mov	r2, r7
     940:	4631      	mov	r1, r6
     942:	f001 fbd5 	bl	20f0 <TEE_ReadObjectData>
/home/aom1/Work/Linux/target/STM32MP1-DK2/buildroot/buildroot/output/build/optee-os-custom/ta/avb/entry.c:340
     946:	4604      	mov	r4, r0
     948:	b180      	cbz	r0, 96c <TA_InvokeCommandEntryPoint+0x280>
/home/aom1/Work/Linux/target/STM32MP1-DK2/buildroot/buildroot/output/build/optee-os-custom/ta/avb/entry.c:341
     94a:	4b43      	ldr	r3, [pc, #268]	; (a58 <TA_InvokeCommandEntryPoint+0x36c>)
     94c:	f240 1155 	movw	r1, #341	; 0x155
     950:	9001      	str	r0, [sp, #4]
     952:	4842      	ldr	r0, [pc, #264]	; (a5c <TA_InvokeCommandEntryPoint+0x370>)
     954:	447b      	add	r3, pc
     956:	4478      	add	r0, pc
     958:	9300      	str	r3, [sp, #0]
     95a:	2301      	movs	r3, #1
     95c:	461a      	mov	r2, r3
     95e:	3009      	adds	r0, #9
     960:	f000 f95e 	bl	c20 <trace_printf>
/home/aom1/Work/Linux/target/STM32MP1-DK2/buildroot/buildroot/output/build/optee-os-custom/ta/avb/entry.c:350
     964:	9805      	ldr	r0, [sp, #20]
write_persist_value():
/home/aom1/Work/Linux/target/STM32MP1-DK2/buildroot/buildroot/output/build/optee-os-custom/ta/avb/entry.c:291
     966:	f001 f845 	bl	19f4 <TEE_CloseObject>
     96a:	e7e2      	b.n	932 <TA_InvokeCommandEntryPoint+0x246>
read_persist_value():
/home/aom1/Work/Linux/target/STM32MP1-DK2/buildroot/buildroot/output/build/optee-os-custom/ta/avb/entry.c:345
     96c:	68a8      	ldr	r0, [r5, #8]
     96e:	463a      	mov	r2, r7
     970:	4631      	mov	r1, r6
     972:	f7ff fdb1 	bl	4d8 <TEE_MemMove>
/home/aom1/Work/Linux/target/STM32MP1-DK2/buildroot/buildroot/output/build/optee-os-custom/ta/avb/entry.c:348
     976:	9b08      	ldr	r3, [sp, #32]
     978:	60eb      	str	r3, [r5, #12]
     97a:	e7f3      	b.n	964 <TA_InvokeCommandEntryPoint+0x278>
write_persist_value():
/home/aom1/Work/Linux/target/STM32MP1-DK2/buildroot/buildroot/output/build/optee-os-custom/ta/avb/entry.c:258
     97c:	2600      	movs	r6, #0
     97e:	223c      	movs	r2, #60	; 0x3c
     980:	960b      	str	r6, [sp, #44]	; 0x2c
     982:	4631      	mov	r1, r6
     984:	a80c      	add	r0, sp, #48	; 0x30
     986:	f007 fcf1 	bl	836c <memset>
/home/aom1/Work/Linux/target/STM32MP1-DK2/buildroot/buildroot/output/build/optee-os-custom/ta/avb/entry.c:259
     98a:	9606      	str	r6, [sp, #24]
/home/aom1/Work/Linux/target/STM32MP1-DK2/buildroot/buildroot/output/build/optee-os-custom/ta/avb/entry.c:267
     98c:	2c55      	cmp	r4, #85	; 0x55
/home/aom1/Work/Linux/target/STM32MP1-DK2/buildroot/buildroot/output/build/optee-os-custom/ta/avb/entry.c:261
     98e:	9608      	str	r6, [sp, #32]
/home/aom1/Work/Linux/target/STM32MP1-DK2/buildroot/buildroot/output/build/optee-os-custom/ta/avb/entry.c:267
     990:	d132      	bne.n	9f8 <TA_InvokeCommandEntryPoint+0x30c>
/home/aom1/Work/Linux/target/STM32MP1-DK2/buildroot/buildroot/output/build/optee-os-custom/ta/avb/entry.c:272
     992:	68ef      	ldr	r7, [r5, #12]
/home/aom1/Work/Linux/target/STM32MP1-DK2/buildroot/buildroot/output/build/optee-os-custom/ta/avb/entry.c:273
     994:	4631      	mov	r1, r6
/home/aom1/Work/Linux/target/STM32MP1-DK2/buildroot/buildroot/output/build/optee-os-custom/ta/avb/entry.c:271
     996:	e9d5 4800 	ldrd	r4, r8, [r5]
/home/aom1/Work/Linux/target/STM32MP1-DK2/buildroot/buildroot/output/build/optee-os-custom/ta/avb/entry.c:273
     99a:	4638      	mov	r0, r7
     99c:	f7ff fdf9 	bl	592 <TEE_Malloc>
/home/aom1/Work/Linux/target/STM32MP1-DK2/buildroot/buildroot/output/build/optee-os-custom/ta/avb/entry.c:274
     9a0:	4606      	mov	r6, r0
     9a2:	b358      	cbz	r0, 9fc <TA_InvokeCommandEntryPoint+0x310>
/home/aom1/Work/Linux/target/STM32MP1-DK2/buildroot/buildroot/output/build/optee-os-custom/ta/avb/entry.c:277
     9a4:	68a9      	ldr	r1, [r5, #8]
     9a6:	463a      	mov	r2, r7
/home/aom1/Work/Linux/target/STM32MP1-DK2/buildroot/buildroot/output/build/optee-os-custom/ta/avb/entry.c:279
     9a8:	ad0b      	add	r5, sp, #44	; 0x2c
/home/aom1/Work/Linux/target/STM32MP1-DK2/buildroot/buildroot/output/build/optee-os-custom/ta/avb/entry.c:277
     9aa:	f7ff fd95 	bl	4d8 <TEE_MemMove>
/home/aom1/Work/Linux/target/STM32MP1-DK2/buildroot/buildroot/output/build/optee-os-custom/ta/avb/entry.c:279
     9ae:	4620      	mov	r0, r4
     9b0:	ab08      	add	r3, sp, #32
     9b2:	462a      	mov	r2, r5
     9b4:	4641      	mov	r1, r8
     9b6:	f7ff fe71 	bl	69c <get_named_object_name>
/home/aom1/Work/Linux/target/STM32MP1-DK2/buildroot/buildroot/output/build/optee-os-custom/ta/avb/entry.c:281
     9ba:	4604      	mov	r4, r0
     9bc:	2800      	cmp	r0, #0
     9be:	d1b8      	bne.n	932 <TA_InvokeCommandEntryPoint+0x246>
/home/aom1/Work/Linux/target/STM32MP1-DK2/buildroot/buildroot/output/build/optee-os-custom/ta/avb/entry.c:284
     9c0:	9a08      	ldr	r2, [sp, #32]
     9c2:	ab06      	add	r3, sp, #24
     9c4:	9303      	str	r3, [sp, #12]
     9c6:	4629      	mov	r1, r5
     9c8:	e88d 00d0 	stmia.w	sp, {r4, r6, r7}
     9cc:	4818      	ldr	r0, [pc, #96]	; (a30 <TA_InvokeCommandEntryPoint+0x344>)
     9ce:	f240 4303 	movw	r3, #1027	; 0x403
     9d2:	f001 fa45 	bl	1e60 <TEE_CreatePersistentObject>
/home/aom1/Work/Linux/target/STM32MP1-DK2/buildroot/buildroot/output/build/optee-os-custom/ta/avb/entry.c:288
     9d6:	4604      	mov	r4, r0
     9d8:	b160      	cbz	r0, 9f4 <TA_InvokeCommandEntryPoint+0x308>
/home/aom1/Work/Linux/target/STM32MP1-DK2/buildroot/buildroot/output/build/optee-os-custom/ta/avb/entry.c:289
     9da:	4b21      	ldr	r3, [pc, #132]	; (a60 <TA_InvokeCommandEntryPoint+0x374>)
     9dc:	f240 1121 	movw	r1, #289	; 0x121
     9e0:	9001      	str	r0, [sp, #4]
     9e2:	4820      	ldr	r0, [pc, #128]	; (a64 <TA_InvokeCommandEntryPoint+0x378>)
     9e4:	447b      	add	r3, pc
     9e6:	4478      	add	r0, pc
     9e8:	9300      	str	r3, [sp, #0]
     9ea:	2301      	movs	r3, #1
     9ec:	461a      	mov	r2, r3
     9ee:	301c      	adds	r0, #28
     9f0:	f000 f916 	bl	c20 <trace_printf>
/home/aom1/Work/Linux/target/STM32MP1-DK2/buildroot/buildroot/output/build/optee-os-custom/ta/avb/entry.c:291
     9f4:	9806      	ldr	r0, [sp, #24]
     9f6:	e7b6      	b.n	966 <TA_InvokeCommandEntryPoint+0x27a>
/home/aom1/Work/Linux/target/STM32MP1-DK2/buildroot/buildroot/output/build/optee-os-custom/ta/avb/entry.c:268
     9f8:	4c0e      	ldr	r4, [pc, #56]	; (a34 <TA_InvokeCommandEntryPoint+0x348>)
     9fa:	e708      	b.n	80e <TA_InvokeCommandEntryPoint+0x122>
/home/aom1/Work/Linux/target/STM32MP1-DK2/buildroot/buildroot/output/build/optee-os-custom/ta/avb/entry.c:275
     9fc:	4c0e      	ldr	r4, [pc, #56]	; (a38 <TA_InvokeCommandEntryPoint+0x34c>)
TA_InvokeCommandEntryPoint():
/home/aom1/Work/Linux/target/STM32MP1-DK2/buildroot/buildroot/output/build/optee-os-custom/ta/avb/entry.c:393
     9fe:	e706      	b.n	80e <TA_InvokeCommandEntryPoint+0x122>
/home/aom1/Work/Linux/target/STM32MP1-DK2/buildroot/buildroot/output/build/optee-os-custom/ta/avb/entry.c:395
     a00:	4b19      	ldr	r3, [pc, #100]	; (a68 <TA_InvokeCommandEntryPoint+0x37c>)
     a02:	481a      	ldr	r0, [pc, #104]	; (a6c <TA_InvokeCommandEntryPoint+0x380>)
     a04:	447b      	add	r3, pc
     a06:	9300      	str	r3, [sp, #0]
     a08:	2301      	movs	r3, #1
     a0a:	4478      	add	r0, pc
     a0c:	461a      	mov	r2, r3
     a0e:	9101      	str	r1, [sp, #4]
     a10:	3030      	adds	r0, #48	; 0x30
/home/aom1/Work/Linux/target/STM32MP1-DK2/buildroot/buildroot/output/build/optee-os-custom/ta/avb/entry.c:396
     a12:	4c0a      	ldr	r4, [pc, #40]	; (a3c <TA_InvokeCommandEntryPoint+0x350>)
/home/aom1/Work/Linux/target/STM32MP1-DK2/buildroot/buildroot/output/build/optee-os-custom/ta/avb/entry.c:395
     a14:	f240 118b 	movw	r1, #395	; 0x18b
     a18:	f000 f902 	bl	c20 <trace_printf>
/home/aom1/Work/Linux/target/STM32MP1-DK2/buildroot/buildroot/output/build/optee-os-custom/ta/avb/entry.c:396
     a1c:	e6f7      	b.n	80e <TA_InvokeCommandEntryPoint+0x122>
/home/aom1/Work/Linux/target/STM32MP1-DK2/buildroot/buildroot/output/build/optee-os-custom/ta/avb/entry.c:398
     a1e:	4620      	mov	r0, r4
     a20:	b01d      	add	sp, #116	; 0x74
     a22:	e8bd 83f0 	ldmia.w	sp!, {r4, r5, r6, r7, r8, r9, pc}
     a26:	bf00      	nop
     a28:	ffff000f 	.word	0xffff000f
     a2c:	f0100001 	.word	0xf0100001
     a30:	80000100 	.word	0x80000100
     a34:	ffff0006 	.word	0xffff0006
     a38:	ffff000c 	.word	0xffff000c
     a3c:	ffff000a 	.word	0xffff000a
     a40:	0000998a 	.word	0x0000998a
     a44:	0000000c 	.word	0x0000000c
     a48:	00009872 	.word	0x00009872
     a4c:	00007f68 	.word	0x00007f68
     a50:	00007e5f 	.word	0x00007e5f
     a54:	00007efe 	.word	0x00007efe
     a58:	00007e57 	.word	0x00007e57
     a5c:	00007ecc 	.word	0x00007ecc
     a60:	00007df1 	.word	0x00007df1
     a64:	00007e3c 	.word	0x00007e3c
     a68:	00007dfd 	.word	0x00007dfd
     a6c:	00007e18 	.word	0x00007e18

00000a70 <__ta_entry>:
__ta_entry():
/home/aom1/Work/Linux/target/STM32MP1-DK2/buildroot/buildroot/output/build/optee-os-custom/out/export-ta_arm32/src/ta_entry_a32.S:20
     a70:	fa001e39 	blx	835c <__ta_entry_c>

00000a74 <trace_set_level>:
trace_set_level():
/home/aom1/Work/Linux/target/STM32MP1-DK2/buildroot/buildroot/output/build/optee-os-custom/lib/libutils/ext/trace.c:24
     a74:	4b04      	ldr	r3, [pc, #16]	; (a88 <trace_set_level+0x14>)
/home/aom1/Work/Linux/target/STM32MP1-DK2/buildroot/buildroot/output/build/optee-os-custom/lib/libutils/ext/trace.c:28
     a76:	2805      	cmp	r0, #5
     a78:	4a04      	ldr	r2, [pc, #16]	; (a8c <trace_set_level+0x18>)
     a7a:	bf28      	it	cs
     a7c:	2004      	movcs	r0, #4
/home/aom1/Work/Linux/target/STM32MP1-DK2/buildroot/buildroot/output/build/optee-os-custom/lib/libutils/ext/trace.c:24
     a7e:	447b      	add	r3, pc
     a80:	589b      	ldr	r3, [r3, r2]
     a82:	6018      	str	r0, [r3, #0]
/home/aom1/Work/Linux/target/STM32MP1-DK2/buildroot/buildroot/output/build/optee-os-custom/lib/libutils/ext/trace.c:29
     a84:	4770      	bx	lr
     a86:	bf00      	nop
     a88:	00009606 	.word	0x00009606
     a8c:	00000014 	.word	0x00000014

00000a90 <trace_get_level>:
trace_get_level():
/home/aom1/Work/Linux/target/STM32MP1-DK2/buildroot/buildroot/output/build/optee-os-custom/lib/libutils/ext/trace.c:32
     a90:	4b02      	ldr	r3, [pc, #8]	; (a9c <trace_get_level+0xc>)
/home/aom1/Work/Linux/target/STM32MP1-DK2/buildroot/buildroot/output/build/optee-os-custom/lib/libutils/ext/trace.c:33
     a92:	4a03      	ldr	r2, [pc, #12]	; (aa0 <trace_get_level+0x10>)
/home/aom1/Work/Linux/target/STM32MP1-DK2/buildroot/buildroot/output/build/optee-os-custom/lib/libutils/ext/trace.c:32
     a94:	447b      	add	r3, pc
/home/aom1/Work/Linux/target/STM32MP1-DK2/buildroot/buildroot/output/build/optee-os-custom/lib/libutils/ext/trace.c:33
     a96:	589b      	ldr	r3, [r3, r2]
/home/aom1/Work/Linux/target/STM32MP1-DK2/buildroot/buildroot/output/build/optee-os-custom/lib/libutils/ext/trace.c:34
     a98:	6818      	ldr	r0, [r3, #0]
     a9a:	4770      	bx	lr
     a9c:	000095f0 	.word	0x000095f0
     aa0:	00000014 	.word	0x00000014

00000aa4 <trace_vprintf>:
trace_vprintf():
/home/aom1/Work/Linux/target/STM32MP1-DK2/buildroot/buildroot/output/build/optee-os-custom/lib/libutils/ext/trace.c:113
     aa4:	e92d 4ff0 	stmdb	sp!, {r4, r5, r6, r7, r8, r9, sl, fp, lr}
     aa8:	4688      	mov	r8, r1
     aaa:	4950      	ldr	r1, [pc, #320]	; (bec <trace_vprintf+0x148>)
     aac:	4614      	mov	r4, r2
     aae:	4a50      	ldr	r2, [pc, #320]	; (bf0 <trace_vprintf+0x14c>)
     ab0:	b0c7      	sub	sp, #284	; 0x11c
     ab2:	4479      	add	r1, pc
     ab4:	4607      	mov	r7, r0
     ab6:	4e4f      	ldr	r6, [pc, #316]	; (bf4 <trace_vprintf+0x150>)
/home/aom1/Work/Linux/target/STM32MP1-DK2/buildroot/buildroot/output/build/optee-os-custom/lib/libutils/ext/trace.c:118
     ab8:	469b      	mov	fp, r3
/home/aom1/Work/Linux/target/STM32MP1-DK2/buildroot/buildroot/output/build/optee-os-custom/lib/libutils/ext/trace.c:113
     aba:	588a      	ldr	r2, [r1, r2]
     abc:	447e      	add	r6, pc
     abe:	f8dd 9140 	ldr.w	r9, [sp, #320]	; 0x140
     ac2:	6812      	ldr	r2, [r2, #0]
     ac4:	9245      	str	r2, [sp, #276]	; 0x114
     ac6:	f04f 0200 	mov.w	r2, #0
/home/aom1/Work/Linux/target/STM32MP1-DK2/buildroot/buildroot/output/build/optee-os-custom/lib/libutils/ext/trace.c:118
     aca:	2b00      	cmp	r3, #0
     acc:	d075      	beq.n	bba <trace_vprintf+0x116>
/home/aom1/Work/Linux/target/STM32MP1-DK2/buildroot/buildroot/output/build/optee-os-custom/lib/libutils/ext/trace.c:118 (discriminator 1)
     ace:	4b4a      	ldr	r3, [pc, #296]	; (bf8 <trace_vprintf+0x154>)
     ad0:	58f3      	ldr	r3, [r6, r3]
     ad2:	681b      	ldr	r3, [r3, #0]
     ad4:	42a3      	cmp	r3, r4
     ad6:	db64      	blt.n	ba2 <trace_vprintf+0xfe>
trace_level_to_string():
/home/aom1/Work/Linux/target/STM32MP1-DK2/buildroot/buildroot/output/build/optee-os-custom/lib/libutils/ext/trace.c:54
     ad8:	4a48      	ldr	r2, [pc, #288]	; (bfc <trace_vprintf+0x158>)
/home/aom1/Work/Linux/target/STM32MP1-DK2/buildroot/buildroot/output/build/optee-os-custom/lib/libutils/ext/trace.c:51
     ada:	2c04      	cmp	r4, #4
     adc:	bf94      	ite	ls
     ade:	4623      	movls	r3, r4
     ae0:	2300      	movhi	r3, #0
/home/aom1/Work/Linux/target/STM32MP1-DK2/buildroot/buildroot/output/build/optee-os-custom/lib/libutils/ext/trace.c:54
     ae2:	447a      	add	r2, pc
     ae4:	5cd3      	ldrb	r3, [r2, r3]
trace_vprintf():
/home/aom1/Work/Linux/target/STM32MP1-DK2/buildroot/buildroot/output/build/optee-os-custom/lib/libutils/ext/trace.c:122
     ae6:	4a46      	ldr	r2, [pc, #280]	; (c00 <trace_vprintf+0x15c>)
     ae8:	ad05      	add	r5, sp, #20
     aea:	f44f 7180 	mov.w	r1, #256	; 0x100
     aee:	4628      	mov	r0, r5
     af0:	447a      	add	r2, pc
     af2:	f000 f8fc 	bl	cee <snprintk>
/home/aom1/Work/Linux/target/STM32MP1-DK2/buildroot/buildroot/output/build/optee-os-custom/lib/libutils/ext/trace.c:124
     af6:	f1b0 0a00 	subs.w	sl, r0, #0
     afa:	db52      	blt.n	ba2 <trace_vprintf+0xfe>
/home/aom1/Work/Linux/target/STM32MP1-DK2/buildroot/buildroot/output/build/optee-os-custom/lib/libutils/ext/trace.c:129
     afc:	4b41      	ldr	r3, [pc, #260]	; (c04 <trace_vprintf+0x160>)
     afe:	f5ca 7180 	rsb	r1, sl, #256	; 0x100
     b02:	4a41      	ldr	r2, [pc, #260]	; (c08 <trace_vprintf+0x164>)
     b04:	58f3      	ldr	r3, [r6, r3]
     b06:	447a      	add	r2, pc
     b08:	eb05 000a 	add.w	r0, r5, sl
     b0c:	9303      	str	r3, [sp, #12]
     b0e:	f000 f8ee 	bl	cee <snprintk>
/home/aom1/Work/Linux/target/STM32MP1-DK2/buildroot/buildroot/output/build/optee-os-custom/lib/libutils/ext/trace.c:131
     b12:	2800      	cmp	r0, #0
     b14:	db45      	blt.n	ba2 <trace_vprintf+0xfe>
/home/aom1/Work/Linux/target/STM32MP1-DK2/buildroot/buildroot/output/build/optee-os-custom/lib/libutils/ext/trace.c:133
     b16:	4482      	add	sl, r0
/home/aom1/Work/Linux/target/STM32MP1-DK2/buildroot/buildroot/output/build/optee-os-custom/lib/libutils/ext/trace.c:135
     b18:	f1bb 0f00 	cmp.w	fp, #0
     b1c:	d056      	beq.n	bcc <trace_vprintf+0x128>
/home/aom1/Work/Linux/target/STM32MP1-DK2/buildroot/buildroot/output/build/optee-os-custom/lib/libutils/ext/trace.c:135 (discriminator 1)
     b1e:	221a      	movs	r2, #26
     b20:	fa22 f404 	lsr.w	r4, r2, r4
     b24:	07e3      	lsls	r3, r4, #31
     b26:	d551      	bpl.n	bcc <trace_vprintf+0x128>
/home/aom1/Work/Linux/target/STM32MP1-DK2/buildroot/buildroot/output/build/optee-os-custom/lib/libutils/ext/trace.c:137
     b28:	eb05 040a 	add.w	r4, r5, sl
     b2c:	f5ca 7180 	rsb	r1, sl, #256	; 0x100
     b30:	9103      	str	r1, [sp, #12]
print_thread_id():
/home/aom1/Work/Linux/target/STM32MP1-DK2/buildroot/buildroot/output/build/optee-os-custom/lib/libutils/ext/trace.c:66
     b32:	f000 fda5 	bl	1680 <trace_ext_get_thread_id>
/home/aom1/Work/Linux/target/STM32MP1-DK2/buildroot/buildroot/output/build/optee-os-custom/lib/libutils/ext/trace.c:68
     b36:	9903      	ldr	r1, [sp, #12]
     b38:	2800      	cmp	r0, #0
     b3a:	db40      	blt.n	bbe <trace_vprintf+0x11a>
/home/aom1/Work/Linux/target/STM32MP1-DK2/buildroot/buildroot/output/build/optee-os-custom/lib/libutils/ext/trace.c:69
     b3c:	4a33      	ldr	r2, [pc, #204]	; (c0c <trace_vprintf+0x168>)
     b3e:	2301      	movs	r3, #1
     b40:	9000      	str	r0, [sp, #0]
     b42:	447a      	add	r2, pc
/home/aom1/Work/Linux/target/STM32MP1-DK2/buildroot/buildroot/output/build/optee-os-custom/lib/libutils/ext/trace.c:71
     b44:	4620      	mov	r0, r4
     b46:	f000 f8d2 	bl	cee <snprintk>
trace_vprintf():
/home/aom1/Work/Linux/target/STM32MP1-DK2/buildroot/buildroot/output/build/optee-os-custom/lib/libutils/ext/trace.c:144
     b4a:	2800      	cmp	r0, #0
     b4c:	db29      	blt.n	ba2 <trace_vprintf+0xfe>
/home/aom1/Work/Linux/target/STM32MP1-DK2/buildroot/buildroot/output/build/optee-os-custom/lib/libutils/ext/trace.c:146
     b4e:	eb00 040a 	add.w	r4, r0, sl
/home/aom1/Work/Linux/target/STM32MP1-DK2/buildroot/buildroot/output/build/optee-os-custom/lib/libutils/ext/trace.c:148
     b52:	b167      	cbz	r7, b6e <trace_vprintf+0xca>
/home/aom1/Work/Linux/target/STM32MP1-DK2/buildroot/buildroot/output/build/optee-os-custom/lib/libutils/ext/trace.c:149
     b54:	4a2e      	ldr	r2, [pc, #184]	; (c10 <trace_vprintf+0x16c>)
     b56:	463b      	mov	r3, r7
     b58:	1928      	adds	r0, r5, r4
     b5a:	f5c4 7180 	rsb	r1, r4, #256	; 0x100
     b5e:	447a      	add	r2, pc
     b60:	f8cd 8000 	str.w	r8, [sp]
     b64:	f000 f8c3 	bl	cee <snprintk>
/home/aom1/Work/Linux/target/STM32MP1-DK2/buildroot/buildroot/output/build/optee-os-custom/lib/libutils/ext/trace.c:151
     b68:	2800      	cmp	r0, #0
     b6a:	db1a      	blt.n	ba2 <trace_vprintf+0xfe>
/home/aom1/Work/Linux/target/STM32MP1-DK2/buildroot/buildroot/output/build/optee-os-custom/lib/libutils/ext/trace.c:153
     b6c:	4404      	add	r4, r0
/home/aom1/Work/Linux/target/STM32MP1-DK2/buildroot/buildroot/output/build/optee-os-custom/lib/libutils/ext/trace.c:163
     b6e:	1928      	adds	r0, r5, r4
     b70:	f5c4 7180 	rsb	r1, r4, #256	; 0x100
     b74:	9b51      	ldr	r3, [sp, #324]	; 0x144
     b76:	464a      	mov	r2, r9
     b78:	f000 f8b2 	bl	ce0 <vsnprintk>
/home/aom1/Work/Linux/target/STM32MP1-DK2/buildroot/buildroot/output/build/optee-os-custom/lib/libutils/ext/trace.c:164
     b7c:	2800      	cmp	r0, #0
/home/aom1/Work/Linux/target/STM32MP1-DK2/buildroot/buildroot/output/build/optee-os-custom/lib/libutils/ext/trace.c:170
     b7e:	f04f 030a 	mov.w	r3, #10
/home/aom1/Work/Linux/target/STM32MP1-DK2/buildroot/buildroot/output/build/optee-os-custom/lib/libutils/ext/trace.c:165
     b82:	bfc8      	it	gt
     b84:	1824      	addgt	r4, r4, r0
/home/aom1/Work/Linux/target/STM32MP1-DK2/buildroot/buildroot/output/build/optee-os-custom/lib/libutils/ext/trace.c:167
     b86:	2cfe      	cmp	r4, #254	; 0xfe
     b88:	bf28      	it	cs
     b8a:	24fe      	movcs	r4, #254	; 0xfe
/home/aom1/Work/Linux/target/STM32MP1-DK2/buildroot/buildroot/output/build/optee-os-custom/lib/libutils/ext/trace.c:170
     b8c:	552b      	strb	r3, [r5, r4]
/home/aom1/Work/Linux/target/STM32MP1-DK2/buildroot/buildroot/output/build/optee-os-custom/lib/libutils/ext/trace.c:171
     b8e:	b114      	cbz	r4, b96 <trace_vprintf+0xf2>
/home/aom1/Work/Linux/target/STM32MP1-DK2/buildroot/buildroot/output/build/optee-os-custom/lib/libutils/ext/trace.c:171 (discriminator 1)
     b90:	5d2b      	ldrb	r3, [r5, r4]
     b92:	2b0a      	cmp	r3, #10
     b94:	d025      	beq.n	be2 <trace_vprintf+0x13e>
/home/aom1/Work/Linux/target/STM32MP1-DK2/buildroot/buildroot/output/build/optee-os-custom/lib/libutils/ext/trace.c:174
     b96:	442c      	add	r4, r5
     b98:	2300      	movs	r3, #0
/home/aom1/Work/Linux/target/STM32MP1-DK2/buildroot/buildroot/output/build/optee-os-custom/lib/libutils/ext/trace.c:176
     b9a:	4628      	mov	r0, r5
/home/aom1/Work/Linux/target/STM32MP1-DK2/buildroot/buildroot/output/build/optee-os-custom/lib/libutils/ext/trace.c:174
     b9c:	70a3      	strb	r3, [r4, #2]
/home/aom1/Work/Linux/target/STM32MP1-DK2/buildroot/buildroot/output/build/optee-os-custom/lib/libutils/ext/trace.c:176
     b9e:	f000 fd65 	bl	166c <trace_ext_puts>
/home/aom1/Work/Linux/target/STM32MP1-DK2/buildroot/buildroot/output/build/optee-os-custom/lib/libutils/ext/trace.c:113
     ba2:	4a1c      	ldr	r2, [pc, #112]	; (c14 <trace_vprintf+0x170>)
/home/aom1/Work/Linux/target/STM32MP1-DK2/buildroot/buildroot/output/build/optee-os-custom/lib/libutils/ext/trace.c:177
     ba4:	4b12      	ldr	r3, [pc, #72]	; (bf0 <trace_vprintf+0x14c>)
/home/aom1/Work/Linux/target/STM32MP1-DK2/buildroot/buildroot/output/build/optee-os-custom/lib/libutils/ext/trace.c:113
     ba6:	447a      	add	r2, pc
/home/aom1/Work/Linux/target/STM32MP1-DK2/buildroot/buildroot/output/build/optee-os-custom/lib/libutils/ext/trace.c:177
     ba8:	58d3      	ldr	r3, [r2, r3]
     baa:	681a      	ldr	r2, [r3, #0]
     bac:	9b45      	ldr	r3, [sp, #276]	; 0x114
     bae:	405a      	eors	r2, r3
     bb0:	f04f 0300 	mov.w	r3, #0
     bb4:	d017      	beq.n	be6 <trace_vprintf+0x142>
     bb6:	f007 fbd8 	bl	836a <__stack_chk_fail>
trace_level_to_string():
/home/aom1/Work/Linux/target/STM32MP1-DK2/buildroot/buildroot/output/build/optee-os-custom/lib/libutils/ext/trace.c:49
     bba:	234d      	movs	r3, #77	; 0x4d
     bbc:	e793      	b.n	ae6 <trace_vprintf+0x42>
print_thread_id():
/home/aom1/Work/Linux/target/STM32MP1-DK2/buildroot/buildroot/output/build/optee-os-custom/lib/libutils/ext/trace.c:71
     bbe:	4b16      	ldr	r3, [pc, #88]	; (c18 <trace_vprintf+0x174>)
     bc0:	4a16      	ldr	r2, [pc, #88]	; (c1c <trace_vprintf+0x178>)
     bc2:	447b      	add	r3, pc
     bc4:	9300      	str	r3, [sp, #0]
     bc6:	2301      	movs	r3, #1
     bc8:	447a      	add	r2, pc
     bca:	e7bb      	b.n	b44 <trace_vprintf+0xa0>
trace_vprintf():
/home/aom1/Work/Linux/target/STM32MP1-DK2/buildroot/buildroot/output/build/optee-os-custom/lib/libutils/ext/trace.c:157
     bcc:	f1ba 0ffe 	cmp.w	sl, #254	; 0xfe
     bd0:	d8e7      	bhi.n	ba2 <trace_vprintf+0xfe>
/home/aom1/Work/Linux/target/STM32MP1-DK2/buildroot/buildroot/output/build/optee-os-custom/lib/libutils/ext/trace.c:159
     bd2:	2320      	movs	r3, #32
     bd4:	f10a 0401 	add.w	r4, sl, #1
     bd8:	f805 300a 	strb.w	r3, [r5, sl]
/home/aom1/Work/Linux/target/STM32MP1-DK2/buildroot/buildroot/output/build/optee-os-custom/lib/libutils/ext/trace.c:160
     bdc:	2300      	movs	r3, #0
     bde:	552b      	strb	r3, [r5, r4]
     be0:	e7c5      	b.n	b6e <trace_vprintf+0xca>
/home/aom1/Work/Linux/target/STM32MP1-DK2/buildroot/buildroot/output/build/optee-os-custom/lib/libutils/ext/trace.c:172
     be2:	3c01      	subs	r4, #1
     be4:	e7d3      	b.n	b8e <trace_vprintf+0xea>
/home/aom1/Work/Linux/target/STM32MP1-DK2/buildroot/buildroot/output/build/optee-os-custom/lib/libutils/ext/trace.c:177
     be6:	b047      	add	sp, #284	; 0x11c
     be8:	e8bd 8ff0 	ldmia.w	sp!, {r4, r5, r6, r7, r8, r9, sl, fp, pc}
     bec:	000095d2 	.word	0x000095d2
     bf0:	0000000c 	.word	0x0000000c
     bf4:	000095c8 	.word	0x000095c8
     bf8:	00000014 	.word	0x00000014
     bfc:	00007e53 	.word	0x00007e53
     c00:	00007e2b 	.word	0x00007e2b
     c04:	00000018 	.word	0x00000018
     c08:	00007e19 	.word	0x00007e19
     c0c:	00007de1 	.word	0x00007de1
     c10:	00007dd0 	.word	0x00007dd0
     c14:	000094de 	.word	0x000094de
     c18:	0000859f 	.word	0x0000859f
     c1c:	00007d61 	.word	0x00007d61

00000c20 <trace_printf>:
trace_printf():
/home/aom1/Work/Linux/target/STM32MP1-DK2/buildroot/buildroot/output/build/optee-os-custom/lib/libutils/ext/trace.c:104
     c20:	b530      	push	{r4, r5, lr}
     c22:	b085      	sub	sp, #20
     c24:	f8df e044 	ldr.w	lr, [pc, #68]	; c6c <trace_printf+0x4c>
     c28:	ac08      	add	r4, sp, #32
     c2a:	f8df c044 	ldr.w	ip, [pc, #68]	; c70 <trace_printf+0x50>
     c2e:	44fe      	add	lr, pc
     c30:	f854 5b04 	ldr.w	r5, [r4], #4
     c34:	f85e c00c 	ldr.w	ip, [lr, ip]
     c38:	f8dc c000 	ldr.w	ip, [ip]
     c3c:	f8cd c00c 	str.w	ip, [sp, #12]
     c40:	f04f 0c00 	mov.w	ip, #0
/home/aom1/Work/Linux/target/STM32MP1-DK2/buildroot/buildroot/output/build/optee-os-custom/lib/libutils/ext/trace.c:108
     c44:	9401      	str	r4, [sp, #4]
     c46:	9500      	str	r5, [sp, #0]
/home/aom1/Work/Linux/target/STM32MP1-DK2/buildroot/buildroot/output/build/optee-os-custom/lib/libutils/ext/trace.c:107
     c48:	9402      	str	r4, [sp, #8]
/home/aom1/Work/Linux/target/STM32MP1-DK2/buildroot/buildroot/output/build/optee-os-custom/lib/libutils/ext/trace.c:108
     c4a:	f7ff ff2b 	bl	aa4 <trace_vprintf>
/home/aom1/Work/Linux/target/STM32MP1-DK2/buildroot/buildroot/output/build/optee-os-custom/lib/libutils/ext/trace.c:104
     c4e:	4a09      	ldr	r2, [pc, #36]	; (c74 <trace_printf+0x54>)
/home/aom1/Work/Linux/target/STM32MP1-DK2/buildroot/buildroot/output/build/optee-os-custom/lib/libutils/ext/trace.c:110
     c50:	4b07      	ldr	r3, [pc, #28]	; (c70 <trace_printf+0x50>)
/home/aom1/Work/Linux/target/STM32MP1-DK2/buildroot/buildroot/output/build/optee-os-custom/lib/libutils/ext/trace.c:104
     c52:	447a      	add	r2, pc
/home/aom1/Work/Linux/target/STM32MP1-DK2/buildroot/buildroot/output/build/optee-os-custom/lib/libutils/ext/trace.c:110
     c54:	58d3      	ldr	r3, [r2, r3]
     c56:	681a      	ldr	r2, [r3, #0]
     c58:	9b03      	ldr	r3, [sp, #12]
     c5a:	405a      	eors	r2, r3
     c5c:	f04f 0300 	mov.w	r3, #0
     c60:	d001      	beq.n	c66 <trace_printf+0x46>
     c62:	f007 fb82 	bl	836a <__stack_chk_fail>
     c66:	b005      	add	sp, #20
     c68:	bd30      	pop	{r4, r5, pc}
     c6a:	bf00      	nop
     c6c:	00009456 	.word	0x00009456
     c70:	0000000c 	.word	0x0000000c
     c74:	00009432 	.word	0x00009432

00000c78 <dhex_dump>:
dhex_dump():
/home/aom1/Work/Linux/target/STM32MP1-DK2/buildroot/buildroot/output/build/optee-os-custom/lib/libutils/ext/trace.c:287
     c78:	4770      	bx	lr
     c7a:	bf00      	nop

00000c7c <__vsnprintf>:
__vsnprintf():
/home/aom1/Work/Linux/target/STM32MP1-DK2/buildroot/buildroot/output/build/optee-os-custom/lib/libutils/ext/snprintk.c:138
     c7c:	b57f      	push	{r0, r1, r2, r3, r4, r5, r6, lr}
     c7e:	460d      	mov	r5, r1
     c80:	4914      	ldr	r1, [pc, #80]	; (cd4 <__vsnprintf+0x58>)
     c82:	4604      	mov	r4, r0
/home/aom1/Work/Linux/target/STM32MP1-DK2/buildroot/buildroot/output/build/optee-os-custom/lib/libutils/ext/snprintk.c:142
     c84:	1966      	adds	r6, r4, r5
/home/aom1/Work/Linux/target/STM32MP1-DK2/buildroot/buildroot/output/build/optee-os-custom/lib/libutils/ext/snprintk.c:138
     c86:	4610      	mov	r0, r2
     c88:	4479      	add	r1, pc
     c8a:	4a13      	ldr	r2, [pc, #76]	; (cd8 <__vsnprintf+0x5c>)
     c8c:	588a      	ldr	r2, [r1, r2]
/home/aom1/Work/Linux/target/STM32MP1-DK2/buildroot/buildroot/output/build/optee-os-custom/lib/libutils/ext/snprintk.c:143
     c8e:	a902      	add	r1, sp, #8
/home/aom1/Work/Linux/target/STM32MP1-DK2/buildroot/buildroot/output/build/optee-os-custom/lib/libutils/ext/snprintk.c:138
     c90:	6812      	ldr	r2, [r2, #0]
     c92:	9203      	str	r2, [sp, #12]
     c94:	f04f 0200 	mov.w	r2, #0
/home/aom1/Work/Linux/target/STM32MP1-DK2/buildroot/buildroot/output/build/optee-os-custom/lib/libutils/ext/snprintk.c:143
     c98:	f89d 2020 	ldrb.w	r2, [sp, #32]
/home/aom1/Work/Linux/target/STM32MP1-DK2/buildroot/buildroot/output/build/optee-os-custom/lib/libutils/ext/snprintk.c:142
     c9c:	9602      	str	r6, [sp, #8]
/home/aom1/Work/Linux/target/STM32MP1-DK2/buildroot/buildroot/output/build/optee-os-custom/lib/libutils/ext/snprintk.c:143
     c9e:	9200      	str	r2, [sp, #0]
     ca0:	4622      	mov	r2, r4
     ca2:	f000 f851 	bl	d48 <kprintf.constprop.0>
/home/aom1/Work/Linux/target/STM32MP1-DK2/buildroot/buildroot/output/build/optee-os-custom/lib/libutils/ext/snprintk.c:144
     ca6:	b13c      	cbz	r4, cb8 <__vsnprintf+0x3c>
/home/aom1/Work/Linux/target/STM32MP1-DK2/buildroot/buildroot/output/build/optee-os-custom/lib/libutils/ext/snprintk.c:144 (discriminator 1)
     ca8:	b135      	cbz	r5, cb8 <__vsnprintf+0x3c>
/home/aom1/Work/Linux/target/STM32MP1-DK2/buildroot/buildroot/output/build/optee-os-custom/lib/libutils/ext/snprintk.c:146
     caa:	42a8      	cmp	r0, r5
     cac:	f04f 0300 	mov.w	r3, #0
/home/aom1/Work/Linux/target/STM32MP1-DK2/buildroot/buildroot/output/build/optee-os-custom/lib/libutils/ext/snprintk.c:147
     cb0:	bf2c      	ite	cs
     cb2:	f806 3c01 	strbcs.w	r3, [r6, #-1]
/home/aom1/Work/Linux/target/STM32MP1-DK2/buildroot/buildroot/output/build/optee-os-custom/lib/libutils/ext/snprintk.c:149
     cb6:	5423      	strbcc	r3, [r4, r0]
/home/aom1/Work/Linux/target/STM32MP1-DK2/buildroot/buildroot/output/build/optee-os-custom/lib/libutils/ext/snprintk.c:138
     cb8:	4a08      	ldr	r2, [pc, #32]	; (cdc <__vsnprintf+0x60>)
/home/aom1/Work/Linux/target/STM32MP1-DK2/buildroot/buildroot/output/build/optee-os-custom/lib/libutils/ext/snprintk.c:152
     cba:	4b07      	ldr	r3, [pc, #28]	; (cd8 <__vsnprintf+0x5c>)
/home/aom1/Work/Linux/target/STM32MP1-DK2/buildroot/buildroot/output/build/optee-os-custom/lib/libutils/ext/snprintk.c:138
     cbc:	447a      	add	r2, pc
/home/aom1/Work/Linux/target/STM32MP1-DK2/buildroot/buildroot/output/build/optee-os-custom/lib/libutils/ext/snprintk.c:152
     cbe:	58d3      	ldr	r3, [r2, r3]
     cc0:	681a      	ldr	r2, [r3, #0]
     cc2:	9b03      	ldr	r3, [sp, #12]
     cc4:	405a      	eors	r2, r3
     cc6:	f04f 0300 	mov.w	r3, #0
     cca:	d001      	beq.n	cd0 <__vsnprintf+0x54>
     ccc:	f007 fb4d 	bl	836a <__stack_chk_fail>
     cd0:	b004      	add	sp, #16
     cd2:	bd70      	pop	{r4, r5, r6, pc}
     cd4:	000093fc 	.word	0x000093fc
     cd8:	0000000c 	.word	0x0000000c
     cdc:	000093c8 	.word	0x000093c8

00000ce0 <vsnprintk>:
vsnprintk():
/home/aom1/Work/Linux/target/STM32MP1-DK2/buildroot/buildroot/output/build/optee-os-custom/lib/libutils/ext/snprintk.c:130
     ce0:	b513      	push	{r0, r1, r4, lr}
/home/aom1/Work/Linux/target/STM32MP1-DK2/buildroot/buildroot/output/build/optee-os-custom/lib/libutils/ext/snprintk.c:131
     ce2:	2401      	movs	r4, #1
     ce4:	9400      	str	r4, [sp, #0]
     ce6:	f7ff ffc9 	bl	c7c <__vsnprintf>
/home/aom1/Work/Linux/target/STM32MP1-DK2/buildroot/buildroot/output/build/optee-os-custom/lib/libutils/ext/snprintk.c:132
     cea:	b002      	add	sp, #8
     cec:	bd10      	pop	{r4, pc}

00000cee <snprintk>:
snprintk():
/home/aom1/Work/Linux/target/STM32MP1-DK2/buildroot/buildroot/output/build/optee-os-custom/lib/libutils/ext/snprintk.c:113
     cee:	b40c      	push	{r2, r3}
     cf0:	b507      	push	{r0, r1, r2, lr}
     cf2:	ab04      	add	r3, sp, #16
     cf4:	f8df e044 	ldr.w	lr, [pc, #68]	; d3c <snprintk+0x4e>
     cf8:	f8df c044 	ldr.w	ip, [pc, #68]	; d40 <snprintk+0x52>
     cfc:	44fe      	add	lr, pc
     cfe:	f853 2b04 	ldr.w	r2, [r3], #4
     d02:	f85e c00c 	ldr.w	ip, [lr, ip]
     d06:	f8dc c000 	ldr.w	ip, [ip]
     d0a:	f8cd c004 	str.w	ip, [sp, #4]
     d0e:	f04f 0c00 	mov.w	ip, #0
/home/aom1/Work/Linux/target/STM32MP1-DK2/buildroot/buildroot/output/build/optee-os-custom/lib/libutils/ext/snprintk.c:117
     d12:	9300      	str	r3, [sp, #0]
/home/aom1/Work/Linux/target/STM32MP1-DK2/buildroot/buildroot/output/build/optee-os-custom/lib/libutils/ext/snprintk.c:118
     d14:	f7ff ffe4 	bl	ce0 <vsnprintk>
/home/aom1/Work/Linux/target/STM32MP1-DK2/buildroot/buildroot/output/build/optee-os-custom/lib/libutils/ext/snprintk.c:113
     d18:	4a0a      	ldr	r2, [pc, #40]	; (d44 <snprintk+0x56>)
/home/aom1/Work/Linux/target/STM32MP1-DK2/buildroot/buildroot/output/build/optee-os-custom/lib/libutils/ext/snprintk.c:122
     d1a:	4b09      	ldr	r3, [pc, #36]	; (d40 <snprintk+0x52>)
/home/aom1/Work/Linux/target/STM32MP1-DK2/buildroot/buildroot/output/build/optee-os-custom/lib/libutils/ext/snprintk.c:113
     d1c:	447a      	add	r2, pc
/home/aom1/Work/Linux/target/STM32MP1-DK2/buildroot/buildroot/output/build/optee-os-custom/lib/libutils/ext/snprintk.c:122
     d1e:	58d3      	ldr	r3, [r2, r3]
     d20:	681a      	ldr	r2, [r3, #0]
     d22:	9b01      	ldr	r3, [sp, #4]
     d24:	405a      	eors	r2, r3
     d26:	f04f 0300 	mov.w	r3, #0
     d2a:	d001      	beq.n	d30 <snprintk+0x42>
     d2c:	f007 fb1d 	bl	836a <__stack_chk_fail>
     d30:	b003      	add	sp, #12
     d32:	f85d eb04 	ldr.w	lr, [sp], #4
     d36:	b002      	add	sp, #8
     d38:	4770      	bx	lr
     d3a:	bf00      	nop
     d3c:	00009388 	.word	0x00009388
     d40:	0000000c 	.word	0x0000000c
     d44:	00009368 	.word	0x00009368

00000d48 <kprintf.constprop.0>:
kprintf():
/home/aom1/Work/Linux/target/STM32MP1-DK2/buildroot/buildroot/output/build/optee-os-custom/lib/libutils/ext/snprintk.c:242
     d48:	e92d 4ff0 	stmdb	sp!, {r4, r5, r6, r7, r8, r9, sl, fp, lr}
     d4c:	b0a1      	sub	sp, #132	; 0x84
     d4e:	4690      	mov	r8, r2
     d50:	461f      	mov	r7, r3
     d52:	900b      	str	r0, [sp, #44]	; 0x2c
     d54:	f89d 20a8 	ldrb.w	r2, [sp, #168]	; 0xa8
     d58:	f8df 06f0 	ldr.w	r0, [pc, #1776]	; 144c <kprintf.constprop.0+0x704>
     d5c:	9213      	str	r2, [sp, #76]	; 0x4c
     d5e:	4478      	add	r0, pc
     d60:	f8df 26ec 	ldr.w	r2, [pc, #1772]	; 1450 <kprintf.constprop.0+0x708>
     d64:	5882      	ldr	r2, [r0, r2]
     d66:	6812      	ldr	r2, [r2, #0]
     d68:	921f      	str	r2, [sp, #124]	; 0x7c
     d6a:	f04f 0200 	mov.w	r2, #0
/home/aom1/Work/Linux/target/STM32MP1-DK2/buildroot/buildroot/output/build/optee-os-custom/lib/libutils/ext/snprintk.c:264
     d6e:	910e      	str	r1, [sp, #56]	; 0x38
     d70:	b1e1      	cbz	r1, dac <kprintf.constprop.0+0x64>
/home/aom1/Work/Linux/target/STM32MP1-DK2/buildroot/buildroot/output/build/optee-os-custom/lib/libutils/ext/snprintk.c:265
     d72:	680b      	ldr	r3, [r1, #0]
/home/aom1/Work/Linux/target/STM32MP1-DK2/buildroot/buildroot/output/build/optee-os-custom/lib/libutils/ext/snprintk.c:267
     d74:	9310      	str	r3, [sp, #64]	; 0x40
/home/aom1/Work/Linux/target/STM32MP1-DK2/buildroot/buildroot/output/build/optee-os-custom/lib/libutils/ext/snprintk.c:275
     d76:	2300      	movs	r3, #0
     d78:	9311      	str	r3, [sp, #68]	; 0x44
/home/aom1/Work/Linux/target/STM32MP1-DK2/buildroot/buildroot/output/build/optee-os-custom/lib/libutils/ext/snprintk.c:273
     d7a:	930d      	str	r3, [sp, #52]	; 0x34
/home/aom1/Work/Linux/target/STM32MP1-DK2/buildroot/buildroot/output/build/optee-os-custom/lib/libutils/ext/snprintk.c:281
     d7c:	9b0b      	ldr	r3, [sp, #44]	; 0x2c
     d7e:	781b      	ldrb	r3, [r3, #0]
     d80:	2b25      	cmp	r3, #37	; 0x25
     d82:	d026      	beq.n	dd2 <kprintf.constprop.0+0x8a>
     d84:	b9a3      	cbnz	r3, db0 <kprintf.constprop.0+0x68>
/home/aom1/Work/Linux/target/STM32MP1-DK2/buildroot/buildroot/output/build/optee-os-custom/lib/libutils/ext/snprintk.c:619
     d86:	9b0e      	ldr	r3, [sp, #56]	; 0x38
     d88:	b10b      	cbz	r3, d8e <kprintf.constprop.0+0x46>
/home/aom1/Work/Linux/target/STM32MP1-DK2/buildroot/buildroot/output/build/optee-os-custom/lib/libutils/ext/snprintk.c:620
     d8a:	f8c3 8000 	str.w	r8, [r3]
/home/aom1/Work/Linux/target/STM32MP1-DK2/buildroot/buildroot/output/build/optee-os-custom/lib/libutils/ext/snprintk.c:242
     d8e:	f8df 26c4 	ldr.w	r2, [pc, #1732]	; 1454 <kprintf.constprop.0+0x70c>
/home/aom1/Work/Linux/target/STM32MP1-DK2/buildroot/buildroot/output/build/optee-os-custom/lib/libutils/ext/snprintk.c:622
     d92:	f8df 36bc 	ldr.w	r3, [pc, #1724]	; 1450 <kprintf.constprop.0+0x708>
/home/aom1/Work/Linux/target/STM32MP1-DK2/buildroot/buildroot/output/build/optee-os-custom/lib/libutils/ext/snprintk.c:242
     d96:	447a      	add	r2, pc
/home/aom1/Work/Linux/target/STM32MP1-DK2/buildroot/buildroot/output/build/optee-os-custom/lib/libutils/ext/snprintk.c:622
     d98:	58d3      	ldr	r3, [r2, r3]
     d9a:	681a      	ldr	r2, [r3, #0]
     d9c:	9b1f      	ldr	r3, [sp, #124]	; 0x7c
     d9e:	405a      	eors	r2, r3
     da0:	f04f 0300 	mov.w	r3, #0
     da4:	f000 834d 	beq.w	1442 <kprintf.constprop.0+0x6fa>
     da8:	f007 fadf 	bl	836a <__stack_chk_fail>
/home/aom1/Work/Linux/target/STM32MP1-DK2/buildroot/buildroot/output/build/optee-os-custom/lib/libutils/ext/snprintk.c:267
     dac:	9b0e      	ldr	r3, [sp, #56]	; 0x38
     dae:	e7e1      	b.n	d74 <kprintf.constprop.0+0x2c>
/home/aom1/Work/Linux/target/STM32MP1-DK2/buildroot/buildroot/output/build/optee-os-custom/lib/libutils/ext/snprintk.c:282
     db0:	9a0d      	ldr	r2, [sp, #52]	; 0x34
     db2:	3201      	adds	r2, #1
     db4:	920d      	str	r2, [sp, #52]	; 0x34
/home/aom1/Work/Linux/target/STM32MP1-DK2/buildroot/buildroot/output/build/optee-os-custom/lib/libutils/ext/snprintk.c:283
     db6:	f1b8 0f00 	cmp.w	r8, #0
     dba:	d006      	beq.n	dca <kprintf.constprop.0+0x82>
     dbc:	9a0e      	ldr	r2, [sp, #56]	; 0x38
     dbe:	b112      	cbz	r2, dc6 <kprintf.constprop.0+0x7e>
     dc0:	9a10      	ldr	r2, [sp, #64]	; 0x40
     dc2:	4590      	cmp	r8, r2
     dc4:	d201      	bcs.n	dca <kprintf.constprop.0+0x82>
     dc6:	f808 3b01 	strb.w	r3, [r8], #1
/home/aom1/Work/Linux/target/STM32MP1-DK2/buildroot/buildroot/output/build/optee-os-custom/lib/libutils/ext/snprintk.c:281
     dca:	9b0b      	ldr	r3, [sp, #44]	; 0x2c
     dcc:	3301      	adds	r3, #1
     dce:	930b      	str	r3, [sp, #44]	; 0x2c
     dd0:	e7d4      	b.n	d7c <kprintf.constprop.0+0x34>
/home/aom1/Work/Linux/target/STM32MP1-DK2/buildroot/buildroot/output/build/optee-os-custom/lib/libutils/ext/snprintk.c:288
     dd2:	980b      	ldr	r0, [sp, #44]	; 0x2c
/home/aom1/Work/Linux/target/STM32MP1-DK2/buildroot/buildroot/output/build/optee-os-custom/lib/libutils/ext/snprintk.c:294
     dd4:	f04f 0900 	mov.w	r9, #0
/home/aom1/Work/Linux/target/STM32MP1-DK2/buildroot/buildroot/output/build/optee-os-custom/lib/libutils/ext/snprintk.c:292
     dd8:	f8cd 903c 	str.w	r9, [sp, #60]	; 0x3c
/home/aom1/Work/Linux/target/STM32MP1-DK2/buildroot/buildroot/output/build/optee-os-custom/lib/libutils/ext/snprintk.c:288
     ddc:	463b      	mov	r3, r7
     dde:	3001      	adds	r0, #1
/home/aom1/Work/Linux/target/STM32MP1-DK2/buildroot/buildroot/output/build/optee-os-custom/lib/libutils/ext/snprintk.c:293
     de0:	f04f 3bff 	mov.w	fp, #4294967295	; 0xffffffff
/home/aom1/Work/Linux/target/STM32MP1-DK2/buildroot/buildroot/output/build/optee-os-custom/lib/libutils/ext/snprintk.c:290
     de4:	464d      	mov	r5, r9
/home/aom1/Work/Linux/target/STM32MP1-DK2/buildroot/buildroot/output/build/optee-os-custom/lib/libutils/ext/snprintk.c:296
     de6:	4602      	mov	r2, r0
     de8:	f812 1b01 	ldrb.w	r1, [r2], #1
     dec:	910c      	str	r1, [sp, #48]	; 0x30
     dee:	920b      	str	r2, [sp, #44]	; 0x2c
/home/aom1/Work/Linux/target/STM32MP1-DK2/buildroot/buildroot/output/build/optee-os-custom/lib/libutils/ext/snprintk.c:297
     df0:	9a0c      	ldr	r2, [sp, #48]	; 0x30
     df2:	2a39      	cmp	r2, #57	; 0x39
     df4:	dc65      	bgt.n	ec2 <kprintf.constprop.0+0x17a>
     df6:	2a1f      	cmp	r2, #31
     df8:	f340 82c8 	ble.w	138c <kprintf.constprop.0+0x644>
     dfc:	9a0c      	ldr	r2, [sp, #48]	; 0x30
     dfe:	3a20      	subs	r2, #32
     e00:	2a19      	cmp	r2, #25
     e02:	d862      	bhi.n	eca <kprintf.constprop.0+0x182>
     e04:	e8df f002 	tbb	[pc, r2]
     e08:	6c616166 	.word	0x6c616166
     e0c:	61616161 	.word	0x61616161
     e10:	0d6f6161 	.word	0x0d6f6161
     e14:	61797661 	.word	0x61797661
     e18:	97979794 	.word	0x97979794
     e1c:	97979797 	.word	0x97979797
     e20:	9797      	.short	0x9797
/home/aom1/Work/Linux/target/STM32MP1-DK2/buildroot/buildroot/output/build/optee-os-custom/lib/libutils/ext/snprintk.c:325
     e22:	f04f 092b 	mov.w	r9, #43	; 0x2b
/home/aom1/Work/Linux/target/STM32MP1-DK2/buildroot/buildroot/output/build/optee-os-custom/lib/libutils/ext/snprintk.c:317
     e26:	980b      	ldr	r0, [sp, #44]	; 0x2c
     e28:	e7dd      	b.n	de6 <kprintf.constprop.0+0x9e>
/home/aom1/Work/Linux/target/STM32MP1-DK2/buildroot/buildroot/output/build/optee-os-custom/lib/libutils/ext/snprintk.c:297
     e2a:	2a36      	cmp	r2, #54	; 0x36
     e2c:	d84d      	bhi.n	eca <kprintf.constprop.0+0x182>
     e2e:	e8df f012 	tbh	[pc, r2, lsl #1]
     e32:	00b8      	.short	0x00b8
     e34:	004c004c 	.word	0x004c004c
     e38:	004c004c 	.word	0x004c004c
     e3c:	004c004c 	.word	0x004c004c
     e40:	004c004c 	.word	0x004c004c
     e44:	004c004c 	.word	0x004c004c
     e48:	004c017b 	.word	0x004c017b
     e4c:	004c004c 	.word	0x004c004c
     e50:	004c004c 	.word	0x004c004c
     e54:	004c0224 	.word	0x004c0224
     e58:	025e004c 	.word	0x025e004c
     e5c:	004c004c 	.word	0x004c004c
     e60:	004c004c 	.word	0x004c004c
     e64:	004c004c 	.word	0x004c004c
     e68:	004c004c 	.word	0x004c004c
     e6c:	004c004c 	.word	0x004c004c
     e70:	00ba00ac 	.word	0x00ba00ac
     e74:	004c004c 	.word	0x004c004c
     e78:	0093004c 	.word	0x0093004c
     e7c:	009600ba 	.word	0x009600ba
     e80:	0099004c 	.word	0x0099004c
     e84:	015e004c 	.word	0x015e004c
     e88:	01b7017d 	.word	0x01b7017d
     e8c:	004c00a0 	.word	0x004c00a0
     e90:	00a60206 	.word	0x00a60206
     e94:	004c0226 	.word	0x004c0226
     e98:	0037004c 	.word	0x0037004c
     e9c:	00a9004c 	.word	0x00a9004c
/home/aom1/Work/Linux/target/STM32MP1-DK2/buildroot/buildroot/output/build/optee-os-custom/lib/libutils/ext/snprintk.c:480
     ea0:	f8df 25b4 	ldr.w	r2, [pc, #1460]	; 1458 <kprintf.constprop.0+0x710>
     ea4:	447a      	add	r2, pc
     ea6:	3211      	adds	r2, #17
/home/aom1/Work/Linux/target/STM32MP1-DK2/buildroot/buildroot/output/build/optee-os-custom/lib/libutils/ext/snprintk.c:477
     ea8:	9211      	str	r2, [sp, #68]	; 0x44
/home/aom1/Work/Linux/target/STM32MP1-DK2/buildroot/buildroot/output/build/optee-os-custom/lib/libutils/ext/snprintk.c:481
     eaa:	f015 0180 	ands.w	r1, r5, #128	; 0x80
     eae:	f000 8221 	beq.w	12f4 <kprintf.constprop.0+0x5ac>
     eb2:	3307      	adds	r3, #7
     eb4:	f023 0307 	bic.w	r3, r3, #7
     eb8:	461f      	mov	r7, r3
     eba:	685e      	ldr	r6, [r3, #4]
     ebc:	f857 4b08 	ldr.w	r4, [r7], #8
     ec0:	e225      	b.n	130e <kprintf.constprop.0+0x5c6>
/home/aom1/Work/Linux/target/STM32MP1-DK2/buildroot/buildroot/output/build/optee-os-custom/lib/libutils/ext/snprintk.c:297
     ec2:	9a0c      	ldr	r2, [sp, #48]	; 0x30
     ec4:	3a44      	subs	r2, #68	; 0x44
     ec6:	2a36      	cmp	r2, #54	; 0x36
     ec8:	d9af      	bls.n	e2a <kprintf.constprop.0+0xe2>
/home/aom1/Work/Linux/target/STM32MP1-DK2/buildroot/buildroot/output/build/optee-os-custom/lib/libutils/ext/snprintk.c:551
     eca:	9a0c      	ldr	r2, [sp, #48]	; 0x30
/home/aom1/Work/Linux/target/STM32MP1-DK2/buildroot/buildroot/output/build/optee-os-custom/lib/libutils/ext/snprintk.c:554
     ecc:	461f      	mov	r7, r3
/home/aom1/Work/Linux/target/STM32MP1-DK2/buildroot/buildroot/output/build/optee-os-custom/lib/libutils/ext/snprintk.c:551
     ece:	f88d 2054 	strb.w	r2, [sp, #84]	; 0x54
/home/aom1/Work/Linux/target/STM32MP1-DK2/buildroot/buildroot/output/build/optee-os-custom/lib/libutils/ext/snprintk.c:554
     ed2:	e05f      	b.n	f94 <kprintf.constprop.0+0x24c>
/home/aom1/Work/Linux/target/STM32MP1-DK2/buildroot/buildroot/output/build/optee-os-custom/lib/libutils/ext/snprintk.c:305
     ed4:	f1b9 0f00 	cmp.w	r9, #0
     ed8:	bf08      	it	eq
     eda:	f04f 0920 	moveq.w	r9, #32
     ede:	e7a2      	b.n	e26 <kprintf.constprop.0+0xde>
/home/aom1/Work/Linux/target/STM32MP1-DK2/buildroot/buildroot/output/build/optee-os-custom/lib/libutils/ext/snprintk.c:308
     ee0:	f045 0501 	orr.w	r5, r5, #1
/home/aom1/Work/Linux/target/STM32MP1-DK2/buildroot/buildroot/output/build/optee-os-custom/lib/libutils/ext/snprintk.c:309
     ee4:	e79f      	b.n	e26 <kprintf.constprop.0+0xde>
/home/aom1/Work/Linux/target/STM32MP1-DK2/buildroot/buildroot/output/build/optee-os-custom/lib/libutils/ext/snprintk.c:317
     ee6:	f853 2b04 	ldr.w	r2, [r3], #4
     eea:	920f      	str	r2, [sp, #60]	; 0x3c
     eec:	2a00      	cmp	r2, #0
     eee:	da9a      	bge.n	e26 <kprintf.constprop.0+0xde>
/home/aom1/Work/Linux/target/STM32MP1-DK2/buildroot/buildroot/output/build/optee-os-custom/lib/libutils/ext/snprintk.c:319
     ef0:	4252      	negs	r2, r2
     ef2:	920f      	str	r2, [sp, #60]	; 0x3c
/home/aom1/Work/Linux/target/STM32MP1-DK2/buildroot/buildroot/output/build/optee-os-custom/lib/libutils/ext/snprintk.c:322
     ef4:	f045 0504 	orr.w	r5, r5, #4
/home/aom1/Work/Linux/target/STM32MP1-DK2/buildroot/buildroot/output/build/optee-os-custom/lib/libutils/ext/snprintk.c:323
     ef8:	e795      	b.n	e26 <kprintf.constprop.0+0xde>
/home/aom1/Work/Linux/target/STM32MP1-DK2/buildroot/buildroot/output/build/optee-os-custom/lib/libutils/ext/snprintk.c:328
     efa:	980b      	ldr	r0, [sp, #44]	; 0x2c
     efc:	f810 2b01 	ldrb.w	r2, [r0], #1
     f00:	920c      	str	r2, [sp, #48]	; 0x30
     f02:	2a2a      	cmp	r2, #42	; 0x2a
     f04:	d111      	bne.n	f2a <kprintf.constprop.0+0x1e2>
/home/aom1/Work/Linux/target/STM32MP1-DK2/buildroot/buildroot/output/build/optee-os-custom/lib/libutils/ext/snprintk.c:330
     f06:	f853 2b04 	ldr.w	r2, [r3], #4
/home/aom1/Work/Linux/target/STM32MP1-DK2/buildroot/buildroot/output/build/optee-os-custom/lib/libutils/ext/snprintk.c:328
     f0a:	900b      	str	r0, [sp, #44]	; 0x2c
/home/aom1/Work/Linux/target/STM32MP1-DK2/buildroot/buildroot/output/build/optee-os-custom/lib/libutils/ext/snprintk.c:330
     f0c:	ea42 7be2 	orr.w	fp, r2, r2, asr #31
/home/aom1/Work/Linux/target/STM32MP1-DK2/buildroot/buildroot/output/build/optee-os-custom/lib/libutils/ext/snprintk.c:331
     f10:	e789      	b.n	e26 <kprintf.constprop.0+0xde>
/home/aom1/Work/Linux/target/STM32MP1-DK2/buildroot/buildroot/output/build/optee-os-custom/lib/libutils/ext/snprintk.c:335
     f12:	210a      	movs	r1, #10
     f14:	fb01 2b0b 	mla	fp, r1, fp, r2
/home/aom1/Work/Linux/target/STM32MP1-DK2/buildroot/buildroot/output/build/optee-os-custom/lib/libutils/ext/snprintk.c:336
     f18:	f810 2b01 	ldrb.w	r2, [r0], #1
     f1c:	920c      	str	r2, [sp, #48]	; 0x30
/home/aom1/Work/Linux/target/STM32MP1-DK2/buildroot/buildroot/output/build/optee-os-custom/lib/libutils/ext/snprintk.c:334
     f1e:	9a0c      	ldr	r2, [sp, #48]	; 0x30
     f20:	3a30      	subs	r2, #48	; 0x30
     f22:	2a09      	cmp	r2, #9
     f24:	d9f5      	bls.n	f12 <kprintf.constprop.0+0x1ca>
/home/aom1/Work/Linux/target/STM32MP1-DK2/buildroot/buildroot/output/build/optee-os-custom/lib/libutils/ext/snprintk.c:290
     f26:	900b      	str	r0, [sp, #44]	; 0x2c
     f28:	e762      	b.n	df0 <kprintf.constprop.0+0xa8>
/home/aom1/Work/Linux/target/STM32MP1-DK2/buildroot/buildroot/output/build/optee-os-custom/lib/libutils/ext/snprintk.c:333
     f2a:	f04f 0b00 	mov.w	fp, #0
     f2e:	e7f6      	b.n	f1e <kprintf.constprop.0+0x1d6>
/home/aom1/Work/Linux/target/STM32MP1-DK2/buildroot/buildroot/output/build/optee-os-custom/lib/libutils/ext/snprintk.c:346
     f30:	f445 6580 	orr.w	r5, r5, #1024	; 0x400
/home/aom1/Work/Linux/target/STM32MP1-DK2/buildroot/buildroot/output/build/optee-os-custom/lib/libutils/ext/snprintk.c:347
     f34:	e777      	b.n	e26 <kprintf.constprop.0+0xde>
/home/aom1/Work/Linux/target/STM32MP1-DK2/buildroot/buildroot/output/build/optee-os-custom/lib/libutils/ext/snprintk.c:297
     f36:	980b      	ldr	r0, [sp, #44]	; 0x2c
     f38:	2200      	movs	r2, #0
     f3a:	920f      	str	r2, [sp, #60]	; 0x3c
/home/aom1/Work/Linux/target/STM32MP1-DK2/buildroot/buildroot/output/build/optee-os-custom/lib/libutils/ext/snprintk.c:352
     f3c:	9a0c      	ldr	r2, [sp, #48]	; 0x30
     f3e:	240a      	movs	r4, #10
     f40:	990f      	ldr	r1, [sp, #60]	; 0x3c
     f42:	3a30      	subs	r2, #48	; 0x30
     f44:	fb04 2201 	mla	r2, r4, r1, r2
     f48:	920f      	str	r2, [sp, #60]	; 0x3c
/home/aom1/Work/Linux/target/STM32MP1-DK2/buildroot/buildroot/output/build/optee-os-custom/lib/libutils/ext/snprintk.c:353
     f4a:	f810 2b01 	ldrb.w	r2, [r0], #1
     f4e:	920c      	str	r2, [sp, #48]	; 0x30
/home/aom1/Work/Linux/target/STM32MP1-DK2/buildroot/buildroot/output/build/optee-os-custom/lib/libutils/ext/snprintk.c:354
     f50:	3a30      	subs	r2, #48	; 0x30
     f52:	2a09      	cmp	r2, #9
     f54:	d9f2      	bls.n	f3c <kprintf.constprop.0+0x1f4>
     f56:	e7e6      	b.n	f26 <kprintf.constprop.0+0x1de>
/home/aom1/Work/Linux/target/STM32MP1-DK2/buildroot/buildroot/output/build/optee-os-custom/lib/libutils/ext/snprintk.c:358
     f58:	f045 0540 	orr.w	r5, r5, #64	; 0x40
/home/aom1/Work/Linux/target/STM32MP1-DK2/buildroot/buildroot/output/build/optee-os-custom/lib/libutils/ext/snprintk.c:359
     f5c:	e763      	b.n	e26 <kprintf.constprop.0+0xde>
/home/aom1/Work/Linux/target/STM32MP1-DK2/buildroot/buildroot/output/build/optee-os-custom/lib/libutils/ext/snprintk.c:361
     f5e:	f045 0580 	orr.w	r5, r5, #128	; 0x80
/home/aom1/Work/Linux/target/STM32MP1-DK2/buildroot/buildroot/output/build/optee-os-custom/lib/libutils/ext/snprintk.c:362
     f62:	e760      	b.n	e26 <kprintf.constprop.0+0xde>
/home/aom1/Work/Linux/target/STM32MP1-DK2/buildroot/buildroot/output/build/optee-os-custom/lib/libutils/ext/snprintk.c:364
     f64:	9a0b      	ldr	r2, [sp, #44]	; 0x2c
     f66:	7812      	ldrb	r2, [r2, #0]
     f68:	2a6c      	cmp	r2, #108	; 0x6c
     f6a:	d105      	bne.n	f78 <kprintf.constprop.0+0x230>
/home/aom1/Work/Linux/target/STM32MP1-DK2/buildroot/buildroot/output/build/optee-os-custom/lib/libutils/ext/snprintk.c:328
     f6c:	9a0b      	ldr	r2, [sp, #44]	; 0x2c
     f6e:	3201      	adds	r2, #1
     f70:	920b      	str	r2, [sp, #44]	; 0x2c
/home/aom1/Work/Linux/target/STM32MP1-DK2/buildroot/buildroot/output/build/optee-os-custom/lib/libutils/ext/snprintk.c:372
     f72:	f045 0520 	orr.w	r5, r5, #32
/home/aom1/Work/Linux/target/STM32MP1-DK2/buildroot/buildroot/output/build/optee-os-custom/lib/libutils/ext/snprintk.c:373
     f76:	e756      	b.n	e26 <kprintf.constprop.0+0xde>
/home/aom1/Work/Linux/target/STM32MP1-DK2/buildroot/buildroot/output/build/optee-os-custom/lib/libutils/ext/snprintk.c:368
     f78:	f045 0510 	orr.w	r5, r5, #16
     f7c:	e753      	b.n	e26 <kprintf.constprop.0+0xde>
/home/aom1/Work/Linux/target/STM32MP1-DK2/buildroot/buildroot/output/build/optee-os-custom/lib/libutils/ext/snprintk.c:375
     f7e:	f445 7580 	orr.w	r5, r5, #256	; 0x100
/home/aom1/Work/Linux/target/STM32MP1-DK2/buildroot/buildroot/output/build/optee-os-custom/lib/libutils/ext/snprintk.c:376
     f82:	e750      	b.n	e26 <kprintf.constprop.0+0xde>
/home/aom1/Work/Linux/target/STM32MP1-DK2/buildroot/buildroot/output/build/optee-os-custom/lib/libutils/ext/snprintk.c:378
     f84:	f445 7500 	orr.w	r5, r5, #512	; 0x200
/home/aom1/Work/Linux/target/STM32MP1-DK2/buildroot/buildroot/output/build/optee-os-custom/lib/libutils/ext/snprintk.c:379
     f88:	e74d      	b.n	e26 <kprintf.constprop.0+0xde>
/home/aom1/Work/Linux/target/STM32MP1-DK2/buildroot/buildroot/output/build/optee-os-custom/lib/libutils/ext/snprintk.c:381
     f8a:	461f      	mov	r7, r3
     f8c:	f857 3b04 	ldr.w	r3, [r7], #4
     f90:	f88d 3054 	strb.w	r3, [sp, #84]	; 0x54
/home/aom1/Work/Linux/target/STM32MP1-DK2/buildroot/buildroot/output/build/optee-os-custom/lib/libutils/ext/snprintk.c:291
     f94:	2000      	movs	r0, #0
/home/aom1/Work/Linux/target/STM32MP1-DK2/buildroot/buildroot/output/build/optee-os-custom/lib/libutils/ext/snprintk.c:552
     f96:	f04f 0b01 	mov.w	fp, #1
/home/aom1/Work/Linux/target/STM32MP1-DK2/buildroot/buildroot/output/build/optee-os-custom/lib/libutils/ext/snprintk.c:553
     f9a:	4681      	mov	r9, r0
/home/aom1/Work/Linux/target/STM32MP1-DK2/buildroot/buildroot/output/build/optee-os-custom/lib/libutils/ext/snprintk.c:550
     f9c:	f10d 0a54 	add.w	sl, sp, #84	; 0x54
/home/aom1/Work/Linux/target/STM32MP1-DK2/buildroot/buildroot/output/build/optee-os-custom/lib/libutils/ext/snprintk.c:554
     fa0:	e03c      	b.n	101c <kprintf.constprop.0+0x2d4>
/home/aom1/Work/Linux/target/STM32MP1-DK2/buildroot/buildroot/output/build/optee-os-custom/lib/libutils/ext/snprintk.c:386
     fa2:	f045 0510 	orr.w	r5, r5, #16
/home/aom1/Work/Linux/target/STM32MP1-DK2/buildroot/buildroot/output/build/optee-os-custom/lib/libutils/ext/snprintk.c:390
     fa6:	062c      	lsls	r4, r5, #24
     fa8:	f140 8088 	bpl.w	10bc <kprintf.constprop.0+0x374>
     fac:	3307      	adds	r3, #7
     fae:	f023 0307 	bic.w	r3, r3, #7
     fb2:	461f      	mov	r7, r3
     fb4:	685e      	ldr	r6, [r3, #4]
     fb6:	f857 4b08 	ldr.w	r4, [r7], #8
/home/aom1/Work/Linux/target/STM32MP1-DK2/buildroot/buildroot/output/build/optee-os-custom/lib/libutils/ext/snprintk.c:391
     fba:	2e00      	cmp	r6, #0
     fbc:	f280 816b 	bge.w	1296 <kprintf.constprop.0+0x54e>
/home/aom1/Work/Linux/target/STM32MP1-DK2/buildroot/buildroot/output/build/optee-os-custom/lib/libutils/ext/snprintk.c:392
     fc0:	4264      	negs	r4, r4
/home/aom1/Work/Linux/target/STM32MP1-DK2/buildroot/buildroot/output/build/optee-os-custom/lib/libutils/ext/snprintk.c:395
     fc2:	f04f 0301 	mov.w	r3, #1
/home/aom1/Work/Linux/target/STM32MP1-DK2/buildroot/buildroot/output/build/optee-os-custom/lib/libutils/ext/snprintk.c:392
     fc6:	eb66 0646 	sbc.w	r6, r6, r6, lsl #1
/home/aom1/Work/Linux/target/STM32MP1-DK2/buildroot/buildroot/output/build/optee-os-custom/lib/libutils/ext/snprintk.c:393
     fca:	f04f 092d 	mov.w	r9, #45	; 0x2d
/home/aom1/Work/Linux/target/STM32MP1-DK2/buildroot/buildroot/output/build/optee-os-custom/lib/libutils/ext/snprintk.c:494
     fce:	f1bb 3fff 	cmp.w	fp, #4294967295	; 0xffffffff
     fd2:	f040 80ca 	bne.w	116a <kprintf.constprop.0+0x422>
/home/aom1/Work/Linux/target/STM32MP1-DK2/buildroot/buildroot/output/build/optee-os-custom/lib/libutils/ext/snprintk.c:509
     fd6:	2b01      	cmp	r3, #1
     fd8:	f000 8160 	beq.w	129c <kprintf.constprop.0+0x554>
     fdc:	2b02      	cmp	r3, #2
     fde:	f000 811e 	beq.w	121e <kprintf.constprop.0+0x4d6>
/home/aom1/Work/Linux/target/STM32MP1-DK2/buildroot/buildroot/output/build/optee-os-custom/lib/libutils/ext/snprintk.c:494
     fe2:	f10d 0a79 	add.w	sl, sp, #121	; 0x79
/home/aom1/Work/Linux/target/STM32MP1-DK2/buildroot/buildroot/output/build/optee-os-custom/lib/libutils/ext/snprintk.c:512
     fe6:	f004 0307 	and.w	r3, r4, #7
     fea:	4652      	mov	r2, sl
/home/aom1/Work/Linux/target/STM32MP1-DK2/buildroot/buildroot/output/build/optee-os-custom/lib/libutils/ext/snprintk.c:513
     fec:	08e4      	lsrs	r4, r4, #3
/home/aom1/Work/Linux/target/STM32MP1-DK2/buildroot/buildroot/output/build/optee-os-custom/lib/libutils/ext/snprintk.c:512
     fee:	3330      	adds	r3, #48	; 0x30
/home/aom1/Work/Linux/target/STM32MP1-DK2/buildroot/buildroot/output/build/optee-os-custom/lib/libutils/ext/snprintk.c:513
     ff0:	ea44 7446 	orr.w	r4, r4, r6, lsl #29
     ff4:	08f6      	lsrs	r6, r6, #3
/home/aom1/Work/Linux/target/STM32MP1-DK2/buildroot/buildroot/output/build/optee-os-custom/lib/libutils/ext/snprintk.c:514
     ff6:	ea54 0106 	orrs.w	r1, r4, r6
/home/aom1/Work/Linux/target/STM32MP1-DK2/buildroot/buildroot/output/build/optee-os-custom/lib/libutils/ext/snprintk.c:512
     ffa:	f80a 3d01 	strb.w	r3, [sl, #-1]!
/home/aom1/Work/Linux/target/STM32MP1-DK2/buildroot/buildroot/output/build/optee-os-custom/lib/libutils/ext/snprintk.c:514
     ffe:	d1f2      	bne.n	fe6 <kprintf.constprop.0+0x29e>
/home/aom1/Work/Linux/target/STM32MP1-DK2/buildroot/buildroot/output/build/optee-os-custom/lib/libutils/ext/snprintk.c:516
    1000:	07ee      	lsls	r6, r5, #31
    1002:	d506      	bpl.n	1012 <kprintf.constprop.0+0x2ca>
    1004:	2b30      	cmp	r3, #48	; 0x30
    1006:	d004      	beq.n	1012 <kprintf.constprop.0+0x2ca>
/home/aom1/Work/Linux/target/STM32MP1-DK2/buildroot/buildroot/output/build/optee-os-custom/lib/libutils/ext/snprintk.c:517
    1008:	2330      	movs	r3, #48	; 0x30
    100a:	f80a 3c01 	strb.w	r3, [sl, #-1]
    100e:	f1a2 0a02 	sub.w	sl, r2, #2
/home/aom1/Work/Linux/target/STM32MP1-DK2/buildroot/buildroot/output/build/optee-os-custom/lib/libutils/ext/snprintk.c:543
    1012:	f10d 0379 	add.w	r3, sp, #121	; 0x79
    1016:	4658      	mov	r0, fp
    1018:	eba3 0b0a 	sub.w	fp, r3, sl
/home/aom1/Work/Linux/target/STM32MP1-DK2/buildroot/buildroot/output/build/optee-os-custom/lib/libutils/ext/snprintk.c:571
    101c:	4558      	cmp	r0, fp
    101e:	4603      	mov	r3, r0
    1020:	bfb8      	it	lt
    1022:	465b      	movlt	r3, fp
/home/aom1/Work/Linux/target/STM32MP1-DK2/buildroot/buildroot/output/build/optee-os-custom/lib/libutils/ext/snprintk.c:572
    1024:	f1b9 0f00 	cmp.w	r9, #0
    1028:	f000 81b5 	beq.w	1396 <kprintf.constprop.0+0x64e>
/home/aom1/Work/Linux/target/STM32MP1-DK2/buildroot/buildroot/output/build/optee-os-custom/lib/libutils/ext/snprintk.c:573
    102c:	3301      	adds	r3, #1
/home/aom1/Work/Linux/target/STM32MP1-DK2/buildroot/buildroot/output/build/optee-os-custom/lib/libutils/ext/snprintk.c:578
    102e:	9a0d      	ldr	r2, [sp, #52]	; 0x34
    1030:	990f      	ldr	r1, [sp, #60]	; 0x3c
    1032:	428b      	cmp	r3, r1
    1034:	bfac      	ite	ge
    1036:	18d2      	addge	r2, r2, r3
    1038:	1852      	addlt	r2, r2, r1
    103a:	920d      	str	r2, [sp, #52]	; 0x34
/home/aom1/Work/Linux/target/STM32MP1-DK2/buildroot/buildroot/output/build/optee-os-custom/lib/libutils/ext/snprintk.c:581
    103c:	f240 4204 	movw	r2, #1028	; 0x404
    1040:	402a      	ands	r2, r5
    1042:	d104      	bne.n	104e <kprintf.constprop.0+0x306>
/home/aom1/Work/Linux/target/STM32MP1-DK2/buildroot/buildroot/output/build/optee-os-custom/lib/libutils/ext/snprintk.c:582
    1044:	1ac9      	subs	r1, r1, r3
/home/aom1/Work/Linux/target/STM32MP1-DK2/buildroot/buildroot/output/build/optee-os-custom/lib/libutils/ext/snprintk.c:584
    1046:	2420      	movs	r4, #32
/home/aom1/Work/Linux/target/STM32MP1-DK2/buildroot/buildroot/output/build/optee-os-custom/lib/libutils/ext/snprintk.c:583
    1048:	2900      	cmp	r1, #0
    104a:	f300 81a8 	bgt.w	139e <kprintf.constprop.0+0x656>
/home/aom1/Work/Linux/target/STM32MP1-DK2/buildroot/buildroot/output/build/optee-os-custom/lib/libutils/ext/snprintk.c:588
    104e:	f1b9 0f00 	cmp.w	r9, #0
    1052:	f000 81b0 	beq.w	13b6 <kprintf.constprop.0+0x66e>
/home/aom1/Work/Linux/target/STM32MP1-DK2/buildroot/buildroot/output/build/optee-os-custom/lib/libutils/ext/snprintk.c:589
    1056:	f1b8 0f00 	cmp.w	r8, #0
    105a:	d006      	beq.n	106a <kprintf.constprop.0+0x322>
    105c:	990e      	ldr	r1, [sp, #56]	; 0x38
    105e:	b111      	cbz	r1, 1066 <kprintf.constprop.0+0x31e>
    1060:	9910      	ldr	r1, [sp, #64]	; 0x40
    1062:	4541      	cmp	r1, r8
    1064:	d901      	bls.n	106a <kprintf.constprop.0+0x322>
    1066:	f808 9b01 	strb.w	r9, [r8], #1
/home/aom1/Work/Linux/target/STM32MP1-DK2/buildroot/buildroot/output/build/optee-os-custom/lib/libutils/ext/snprintk.c:596
    106a:	f5b2 6f80 	cmp.w	r2, #1024	; 0x400
    106e:	d105      	bne.n	107c <kprintf.constprop.0+0x334>
/home/aom1/Work/Linux/target/STM32MP1-DK2/buildroot/buildroot/output/build/optee-os-custom/lib/libutils/ext/snprintk.c:597
    1070:	9a0f      	ldr	r2, [sp, #60]	; 0x3c
    1072:	1ad1      	subs	r1, r2, r3
/home/aom1/Work/Linux/target/STM32MP1-DK2/buildroot/buildroot/output/build/optee-os-custom/lib/libutils/ext/snprintk.c:599
    1074:	2230      	movs	r2, #48	; 0x30
/home/aom1/Work/Linux/target/STM32MP1-DK2/buildroot/buildroot/output/build/optee-os-custom/lib/libutils/ext/snprintk.c:598
    1076:	2900      	cmp	r1, #0
    1078:	f300 81bc 	bgt.w	13f4 <kprintf.constprop.0+0x6ac>
/home/aom1/Work/Linux/target/STM32MP1-DK2/buildroot/buildroot/output/build/optee-os-custom/lib/libutils/ext/snprintk.c:603
    107c:	eba0 000b 	sub.w	r0, r0, fp
/home/aom1/Work/Linux/target/STM32MP1-DK2/buildroot/buildroot/output/build/optee-os-custom/lib/libutils/ext/snprintk.c:605
    1080:	2230      	movs	r2, #48	; 0x30
/home/aom1/Work/Linux/target/STM32MP1-DK2/buildroot/buildroot/output/build/optee-os-custom/lib/libutils/ext/snprintk.c:604
    1082:	2800      	cmp	r0, #0
    1084:	f300 81c2 	bgt.w	140c <kprintf.constprop.0+0x6c4>
    1088:	eb0a 000b 	add.w	r0, sl, fp
/home/aom1/Work/Linux/target/STM32MP1-DK2/buildroot/buildroot/output/build/optee-os-custom/lib/libutils/ext/snprintk.c:608
    108c:	4582      	cmp	sl, r0
    108e:	f040 81c9 	bne.w	1424 <kprintf.constprop.0+0x6dc>
/home/aom1/Work/Linux/target/STM32MP1-DK2/buildroot/buildroot/output/build/optee-os-custom/lib/libutils/ext/snprintk.c:611
    1092:	076a      	lsls	r2, r5, #29
    1094:	f57f ae72 	bpl.w	d7c <kprintf.constprop.0+0x34>
/home/aom1/Work/Linux/target/STM32MP1-DK2/buildroot/buildroot/output/build/optee-os-custom/lib/libutils/ext/snprintk.c:612
    1098:	9a0f      	ldr	r2, [sp, #60]	; 0x3c
    109a:	1ad3      	subs	r3, r2, r3
/home/aom1/Work/Linux/target/STM32MP1-DK2/buildroot/buildroot/output/build/optee-os-custom/lib/libutils/ext/snprintk.c:614
    109c:	2220      	movs	r2, #32
/home/aom1/Work/Linux/target/STM32MP1-DK2/buildroot/buildroot/output/build/optee-os-custom/lib/libutils/ext/snprintk.c:613
    109e:	2b00      	cmp	r3, #0
    10a0:	f77f ae6c 	ble.w	d7c <kprintf.constprop.0+0x34>
/home/aom1/Work/Linux/target/STM32MP1-DK2/buildroot/buildroot/output/build/optee-os-custom/lib/libutils/ext/snprintk.c:614
    10a4:	f1b8 0f00 	cmp.w	r8, #0
    10a8:	d006      	beq.n	10b8 <kprintf.constprop.0+0x370>
    10aa:	990e      	ldr	r1, [sp, #56]	; 0x38
    10ac:	b111      	cbz	r1, 10b4 <kprintf.constprop.0+0x36c>
    10ae:	9910      	ldr	r1, [sp, #64]	; 0x40
    10b0:	4541      	cmp	r1, r8
    10b2:	d901      	bls.n	10b8 <kprintf.constprop.0+0x370>
    10b4:	f808 2b01 	strb.w	r2, [r8], #1
    10b8:	3b01      	subs	r3, #1
    10ba:	e7f0      	b.n	109e <kprintf.constprop.0+0x356>
/home/aom1/Work/Linux/target/STM32MP1-DK2/buildroot/buildroot/output/build/optee-os-custom/lib/libutils/ext/snprintk.c:390
    10bc:	05e8      	lsls	r0, r5, #23
    10be:	d504      	bpl.n	10ca <kprintf.constprop.0+0x382>
    10c0:	461f      	mov	r7, r3
    10c2:	f857 4b04 	ldr.w	r4, [r7], #4
    10c6:	17e6      	asrs	r6, r4, #31
    10c8:	e777      	b.n	fba <kprintf.constprop.0+0x272>
    10ca:	05a9      	lsls	r1, r5, #22
    10cc:	d4f8      	bmi.n	10c0 <kprintf.constprop.0+0x378>
    10ce:	06aa      	lsls	r2, r5, #26
    10d0:	f53f af6c 	bmi.w	fac <kprintf.constprop.0+0x264>
/home/aom1/Work/Linux/target/STM32MP1-DK2/buildroot/buildroot/output/build/optee-os-custom/lib/libutils/ext/snprintk.c:317
    10d4:	461f      	mov	r7, r3
/home/aom1/Work/Linux/target/STM32MP1-DK2/buildroot/buildroot/output/build/optee-os-custom/lib/libutils/ext/snprintk.c:390
    10d6:	06eb      	lsls	r3, r5, #27
/home/aom1/Work/Linux/target/STM32MP1-DK2/buildroot/buildroot/output/build/optee-os-custom/lib/libutils/ext/snprintk.c:317
    10d8:	f857 6b04 	ldr.w	r6, [r7], #4
/home/aom1/Work/Linux/target/STM32MP1-DK2/buildroot/buildroot/output/build/optee-os-custom/lib/libutils/ext/snprintk.c:390
    10dc:	d501      	bpl.n	10e2 <kprintf.constprop.0+0x39a>
    10de:	4634      	mov	r4, r6
    10e0:	e7f1      	b.n	10c6 <kprintf.constprop.0+0x37e>
    10e2:	066c      	lsls	r4, r5, #25
    10e4:	d5fb      	bpl.n	10de <kprintf.constprop.0+0x396>
    10e6:	b234      	sxth	r4, r6
    10e8:	f346 36c0 	sbfx	r6, r6, #15, #1
    10ec:	e765      	b.n	fba <kprintf.constprop.0+0x272>
/home/aom1/Work/Linux/target/STM32MP1-DK2/buildroot/buildroot/output/build/optee-os-custom/lib/libutils/ext/snprintk.c:398
    10ee:	0628      	lsls	r0, r5, #24
/home/aom1/Work/Linux/target/STM32MP1-DK2/buildroot/buildroot/output/build/optee-os-custom/lib/libutils/ext/snprintk.c:317
    10f0:	f103 0704 	add.w	r7, r3, #4
/home/aom1/Work/Linux/target/STM32MP1-DK2/buildroot/buildroot/output/build/optee-os-custom/lib/libutils/ext/snprintk.c:398
    10f4:	d506      	bpl.n	1104 <kprintf.constprop.0+0x3bc>
/home/aom1/Work/Linux/target/STM32MP1-DK2/buildroot/buildroot/output/build/optee-os-custom/lib/libutils/ext/snprintk.c:405
    10f6:	9a0d      	ldr	r2, [sp, #52]	; 0x34
    10f8:	681b      	ldr	r3, [r3, #0]
    10fa:	990d      	ldr	r1, [sp, #52]	; 0x34
    10fc:	17d2      	asrs	r2, r2, #31
    10fe:	e9c3 1200 	strd	r1, r2, [r3]
    1102:	e63b      	b.n	d7c <kprintf.constprop.0+0x34>
/home/aom1/Work/Linux/target/STM32MP1-DK2/buildroot/buildroot/output/build/optee-os-custom/lib/libutils/ext/snprintk.c:400
    1104:	05e9      	lsls	r1, r5, #23
    1106:	d503      	bpl.n	1110 <kprintf.constprop.0+0x3c8>
/home/aom1/Work/Linux/target/STM32MP1-DK2/buildroot/buildroot/output/build/optee-os-custom/lib/libutils/ext/snprintk.c:411
    1108:	681b      	ldr	r3, [r3, #0]
    110a:	9a0d      	ldr	r2, [sp, #52]	; 0x34
    110c:	601a      	str	r2, [r3, #0]
    110e:	e635      	b.n	d7c <kprintf.constprop.0+0x34>
/home/aom1/Work/Linux/target/STM32MP1-DK2/buildroot/buildroot/output/build/optee-os-custom/lib/libutils/ext/snprintk.c:402
    1110:	05aa      	lsls	r2, r5, #22
    1112:	d4f9      	bmi.n	1108 <kprintf.constprop.0+0x3c0>
/home/aom1/Work/Linux/target/STM32MP1-DK2/buildroot/buildroot/output/build/optee-os-custom/lib/libutils/ext/snprintk.c:404
    1114:	06ae      	lsls	r6, r5, #26
    1116:	d4ee      	bmi.n	10f6 <kprintf.constprop.0+0x3ae>
/home/aom1/Work/Linux/target/STM32MP1-DK2/buildroot/buildroot/output/build/optee-os-custom/lib/libutils/ext/snprintk.c:406
    1118:	06ec      	lsls	r4, r5, #27
    111a:	d4f5      	bmi.n	1108 <kprintf.constprop.0+0x3c0>
/home/aom1/Work/Linux/target/STM32MP1-DK2/buildroot/buildroot/output/build/optee-os-custom/lib/libutils/ext/snprintk.c:408
    111c:	0668      	lsls	r0, r5, #25
    111e:	d5f3      	bpl.n	1108 <kprintf.constprop.0+0x3c0>
/home/aom1/Work/Linux/target/STM32MP1-DK2/buildroot/buildroot/output/build/optee-os-custom/lib/libutils/ext/snprintk.c:409
    1120:	681b      	ldr	r3, [r3, #0]
    1122:	9a0d      	ldr	r2, [sp, #52]	; 0x34
    1124:	801a      	strh	r2, [r3, #0]
    1126:	e629      	b.n	d7c <kprintf.constprop.0+0x34>
/home/aom1/Work/Linux/target/STM32MP1-DK2/buildroot/buildroot/output/build/optee-os-custom/lib/libutils/ext/snprintk.c:414
    1128:	f045 0510 	orr.w	r5, r5, #16
/home/aom1/Work/Linux/target/STM32MP1-DK2/buildroot/buildroot/output/build/optee-os-custom/lib/libutils/ext/snprintk.c:417
    112c:	f015 0180 	ands.w	r1, r5, #128	; 0x80
    1130:	d007      	beq.n	1142 <kprintf.constprop.0+0x3fa>
    1132:	3307      	adds	r3, #7
    1134:	f023 0307 	bic.w	r3, r3, #7
    1138:	461f      	mov	r7, r3
    113a:	685e      	ldr	r6, [r3, #4]
    113c:	f857 4b08 	ldr.w	r4, [r7], #8
    1140:	e00c      	b.n	115c <kprintf.constprop.0+0x414>
    1142:	f415 7680 	ands.w	r6, r5, #256	; 0x100
    1146:	d004      	beq.n	1152 <kprintf.constprop.0+0x40a>
    1148:	461f      	mov	r7, r3
    114a:	f857 4b04 	ldr.w	r4, [r7], #4
    114e:	460e      	mov	r6, r1
    1150:	e004      	b.n	115c <kprintf.constprop.0+0x414>
    1152:	05a9      	lsls	r1, r5, #22
    1154:	d516      	bpl.n	1184 <kprintf.constprop.0+0x43c>
    1156:	461f      	mov	r7, r3
    1158:	f857 4b04 	ldr.w	r4, [r7], #4
/home/aom1/Work/Linux/target/STM32MP1-DK2/buildroot/buildroot/output/build/optee-os-custom/lib/libutils/ext/snprintk.c:494
    115c:	f1bb 3fff 	cmp.w	fp, #4294967295	; 0xffffffff
    1160:	f04f 0900 	mov.w	r9, #0
    1164:	f43f af3d 	beq.w	fe2 <kprintf.constprop.0+0x29a>
    1168:	464b      	mov	r3, r9
/home/aom1/Work/Linux/target/STM32MP1-DK2/buildroot/buildroot/output/build/optee-os-custom/lib/libutils/ext/snprintk.c:503
    116a:	ea54 0206 	orrs.w	r2, r4, r6
/home/aom1/Work/Linux/target/STM32MP1-DK2/buildroot/buildroot/output/build/optee-os-custom/lib/libutils/ext/snprintk.c:495
    116e:	f425 6580 	bic.w	r5, r5, #1024	; 0x400
/home/aom1/Work/Linux/target/STM32MP1-DK2/buildroot/buildroot/output/build/optee-os-custom/lib/libutils/ext/snprintk.c:503
    1172:	f47f af30 	bne.w	fd6 <kprintf.constprop.0+0x28e>
    1176:	f1bb 0f00 	cmp.w	fp, #0
    117a:	f47f af2c 	bne.w	fd6 <kprintf.constprop.0+0x28e>
/home/aom1/Work/Linux/target/STM32MP1-DK2/buildroot/buildroot/output/build/optee-os-custom/lib/libutils/ext/snprintk.c:502
    117e:	f10d 0a79 	add.w	sl, sp, #121	; 0x79
    1182:	e746      	b.n	1012 <kprintf.constprop.0+0x2ca>
/home/aom1/Work/Linux/target/STM32MP1-DK2/buildroot/buildroot/output/build/optee-os-custom/lib/libutils/ext/snprintk.c:417
    1184:	f015 0620 	ands.w	r6, r5, #32
    1188:	d1d3      	bne.n	1132 <kprintf.constprop.0+0x3ea>
/home/aom1/Work/Linux/target/STM32MP1-DK2/buildroot/buildroot/output/build/optee-os-custom/lib/libutils/ext/snprintk.c:317
    118a:	461f      	mov	r7, r3
/home/aom1/Work/Linux/target/STM32MP1-DK2/buildroot/buildroot/output/build/optee-os-custom/lib/libutils/ext/snprintk.c:417
    118c:	f015 0110 	ands.w	r1, r5, #16
/home/aom1/Work/Linux/target/STM32MP1-DK2/buildroot/buildroot/output/build/optee-os-custom/lib/libutils/ext/snprintk.c:317
    1190:	f857 4b04 	ldr.w	r4, [r7], #4
/home/aom1/Work/Linux/target/STM32MP1-DK2/buildroot/buildroot/output/build/optee-os-custom/lib/libutils/ext/snprintk.c:417
    1194:	d1e2      	bne.n	115c <kprintf.constprop.0+0x414>
    1196:	f015 0640 	ands.w	r6, r5, #64	; 0x40
    119a:	d0df      	beq.n	115c <kprintf.constprop.0+0x414>
    119c:	b2a4      	uxth	r4, r4
    119e:	e7d6      	b.n	114e <kprintf.constprop.0+0x406>
/home/aom1/Work/Linux/target/STM32MP1-DK2/buildroot/buildroot/output/build/optee-os-custom/lib/libutils/ext/snprintk.c:317
    11a0:	461f      	mov	r7, r3
/home/aom1/Work/Linux/target/STM32MP1-DK2/buildroot/buildroot/output/build/optee-os-custom/lib/libutils/ext/snprintk.c:421
    11a2:	9b13      	ldr	r3, [sp, #76]	; 0x4c
    11a4:	f857 4b04 	ldr.w	r4, [r7], #4
    11a8:	2b00      	cmp	r3, #0
    11aa:	d029      	beq.n	1200 <kprintf.constprop.0+0x4b8>
    11ac:	9b0b      	ldr	r3, [sp, #44]	; 0x2c
    11ae:	781b      	ldrb	r3, [r3, #0]
    11b0:	2b55      	cmp	r3, #85	; 0x55
    11b2:	d125      	bne.n	1200 <kprintf.constprop.0+0x4b8>
    11b4:	9b0b      	ldr	r3, [sp, #44]	; 0x2c
    11b6:	785b      	ldrb	r3, [r3, #1]
    11b8:	2b6c      	cmp	r3, #108	; 0x6c
    11ba:	d121      	bne.n	1200 <kprintf.constprop.0+0x4b8>
/home/aom1/Work/Linux/target/STM32MP1-DK2/buildroot/buildroot/output/build/optee-os-custom/lib/libutils/ext/snprintk.c:426
    11bc:	9b0b      	ldr	r3, [sp, #44]	; 0x2c
uuid2str():
/home/aom1/Work/Linux/target/STM32MP1-DK2/buildroot/buildroot/output/build/optee-os-custom/lib/libutils/ext/snprintk.c:229
    11be:	f10d 0a54 	add.w	sl, sp, #84	; 0x54
    11c2:	4aa6      	ldr	r2, [pc, #664]	; (145c <kprintf.constprop.0+0x714>)
    11c4:	2125      	movs	r1, #37	; 0x25
kprintf():
/home/aom1/Work/Linux/target/STM32MP1-DK2/buildroot/buildroot/output/build/optee-os-custom/lib/libutils/ext/snprintk.c:426
    11c6:	3302      	adds	r3, #2
uuid2str():
/home/aom1/Work/Linux/target/STM32MP1-DK2/buildroot/buildroot/output/build/optee-os-custom/lib/libutils/ext/snprintk.c:229
    11c8:	4650      	mov	r0, sl
kprintf():
/home/aom1/Work/Linux/target/STM32MP1-DK2/buildroot/buildroot/output/build/optee-os-custom/lib/libutils/ext/snprintk.c:426
    11ca:	930b      	str	r3, [sp, #44]	; 0x2c
uuid2str():
/home/aom1/Work/Linux/target/STM32MP1-DK2/buildroot/buildroot/output/build/optee-os-custom/lib/libutils/ext/snprintk.c:229
    11cc:	7be3      	ldrb	r3, [r4, #15]
    11ce:	447a      	add	r2, pc
    11d0:	9309      	str	r3, [sp, #36]	; 0x24
    11d2:	7ba3      	ldrb	r3, [r4, #14]
    11d4:	9308      	str	r3, [sp, #32]
    11d6:	7b63      	ldrb	r3, [r4, #13]
    11d8:	9307      	str	r3, [sp, #28]
    11da:	7b23      	ldrb	r3, [r4, #12]
    11dc:	9306      	str	r3, [sp, #24]
    11de:	7ae3      	ldrb	r3, [r4, #11]
    11e0:	9305      	str	r3, [sp, #20]
    11e2:	7aa3      	ldrb	r3, [r4, #10]
    11e4:	9304      	str	r3, [sp, #16]
    11e6:	7a63      	ldrb	r3, [r4, #9]
    11e8:	9303      	str	r3, [sp, #12]
    11ea:	7a23      	ldrb	r3, [r4, #8]
    11ec:	9302      	str	r3, [sp, #8]
    11ee:	88e3      	ldrh	r3, [r4, #6]
    11f0:	9301      	str	r3, [sp, #4]
    11f2:	88a3      	ldrh	r3, [r4, #4]
    11f4:	9300      	str	r3, [sp, #0]
    11f6:	6823      	ldr	r3, [r4, #0]
    11f8:	f7ff fd79 	bl	cee <snprintk>
kprintf():
/home/aom1/Work/Linux/target/STM32MP1-DK2/buildroot/buildroot/output/build/optee-os-custom/lib/libutils/ext/snprintk.c:466
    11fc:	4683      	mov	fp, r0
    11fe:	e035      	b.n	126c <kprintf.constprop.0+0x524>
/home/aom1/Work/Linux/target/STM32MP1-DK2/buildroot/buildroot/output/build/optee-os-custom/lib/libutils/ext/snprintk.c:443
    1200:	4b97      	ldr	r3, [pc, #604]	; (1460 <kprintf.constprop.0+0x718>)
/home/aom1/Work/Linux/target/STM32MP1-DK2/buildroot/buildroot/output/build/optee-os-custom/lib/libutils/ext/snprintk.c:441
    1202:	2600      	movs	r6, #0
/home/aom1/Work/Linux/target/STM32MP1-DK2/buildroot/buildroot/output/build/optee-os-custom/lib/libutils/ext/snprintk.c:444
    1204:	f045 0502 	orr.w	r5, r5, #2
/home/aom1/Work/Linux/target/STM32MP1-DK2/buildroot/buildroot/output/build/optee-os-custom/lib/libutils/ext/snprintk.c:443
    1208:	447b      	add	r3, pc
    120a:	3311      	adds	r3, #17
    120c:	9311      	str	r3, [sp, #68]	; 0x44
/home/aom1/Work/Linux/target/STM32MP1-DK2/buildroot/buildroot/output/build/optee-os-custom/lib/libutils/ext/snprintk.c:445
    120e:	2378      	movs	r3, #120	; 0x78
    1210:	930c      	str	r3, [sp, #48]	; 0x30
/home/aom1/Work/Linux/target/STM32MP1-DK2/buildroot/buildroot/output/build/optee-os-custom/lib/libutils/ext/snprintk.c:494
    1212:	f1bb 3fff 	cmp.w	fp, #4294967295	; 0xffffffff
    1216:	f04f 0900 	mov.w	r9, #0
    121a:	f040 8093 	bne.w	1344 <kprintf.constprop.0+0x5fc>
    121e:	f10d 0a79 	add.w	sl, sp, #121	; 0x79
/home/aom1/Work/Linux/target/STM32MP1-DK2/buildroot/buildroot/output/build/optee-os-custom/lib/libutils/ext/snprintk.c:531
    1222:	9a11      	ldr	r2, [sp, #68]	; 0x44
    1224:	f004 030f 	and.w	r3, r4, #15
/home/aom1/Work/Linux/target/STM32MP1-DK2/buildroot/buildroot/output/build/optee-os-custom/lib/libutils/ext/snprintk.c:532
    1228:	0924      	lsrs	r4, r4, #4
/home/aom1/Work/Linux/target/STM32MP1-DK2/buildroot/buildroot/output/build/optee-os-custom/lib/libutils/ext/snprintk.c:531
    122a:	5cd3      	ldrb	r3, [r2, r3]
/home/aom1/Work/Linux/target/STM32MP1-DK2/buildroot/buildroot/output/build/optee-os-custom/lib/libutils/ext/snprintk.c:532
    122c:	ea44 7406 	orr.w	r4, r4, r6, lsl #28
    1230:	0936      	lsrs	r6, r6, #4
/home/aom1/Work/Linux/target/STM32MP1-DK2/buildroot/buildroot/output/build/optee-os-custom/lib/libutils/ext/snprintk.c:531
    1232:	f80a 3d01 	strb.w	r3, [sl, #-1]!
/home/aom1/Work/Linux/target/STM32MP1-DK2/buildroot/buildroot/output/build/optee-os-custom/lib/libutils/ext/snprintk.c:533
    1236:	ea54 0306 	orrs.w	r3, r4, r6
    123a:	d1f2      	bne.n	1222 <kprintf.constprop.0+0x4da>
    123c:	e6e9      	b.n	1012 <kprintf.constprop.0+0x2ca>
/home/aom1/Work/Linux/target/STM32MP1-DK2/buildroot/buildroot/output/build/optee-os-custom/lib/libutils/ext/snprintk.c:448
    123e:	461f      	mov	r7, r3
    1240:	f857 ab04 	ldr.w	sl, [r7], #4
    1244:	f1ba 0f00 	cmp.w	sl, #0
    1248:	d102      	bne.n	1250 <kprintf.constprop.0+0x508>
/home/aom1/Work/Linux/target/STM32MP1-DK2/buildroot/buildroot/output/build/optee-os-custom/lib/libutils/ext/snprintk.c:450
    124a:	f8df a218 	ldr.w	sl, [pc, #536]	; 1464 <kprintf.constprop.0+0x71c>
    124e:	44fa      	add	sl, pc
/home/aom1/Work/Linux/target/STM32MP1-DK2/buildroot/buildroot/output/build/optee-os-custom/lib/libutils/ext/snprintk.c:451
    1250:	f1bb 3fff 	cmp.w	fp, #4294967295	; 0xffffffff
    1254:	d00d      	beq.n	1272 <kprintf.constprop.0+0x52a>
/home/aom1/Work/Linux/target/STM32MP1-DK2/buildroot/buildroot/output/build/optee-os-custom/lib/libutils/ext/snprintk.c:457
    1256:	465a      	mov	r2, fp
    1258:	2100      	movs	r1, #0
    125a:	4650      	mov	r0, sl
    125c:	f007 f88e 	bl	837c <memchr>
/home/aom1/Work/Linux/target/STM32MP1-DK2/buildroot/buildroot/output/build/optee-os-custom/lib/libutils/ext/snprintk.c:459
    1260:	b128      	cbz	r0, 126e <kprintf.constprop.0+0x526>
/home/aom1/Work/Linux/target/STM32MP1-DK2/buildroot/buildroot/output/build/optee-os-custom/lib/libutils/ext/snprintk.c:460
    1262:	eba0 000a 	sub.w	r0, r0, sl
    1266:	4583      	cmp	fp, r0
    1268:	bfa8      	it	ge
    126a:	4683      	movge	fp, r0
/home/aom1/Work/Linux/target/STM32MP1-DK2/buildroot/buildroot/output/build/optee-os-custom/lib/libutils/ext/snprintk.c:291
    126c:	2000      	movs	r0, #0
/home/aom1/Work/Linux/target/STM32MP1-DK2/buildroot/buildroot/output/build/optee-os-custom/lib/libutils/ext/snprintk.c:467
    126e:	4681      	mov	r9, r0
    1270:	e6d4      	b.n	101c <kprintf.constprop.0+0x2d4>
/home/aom1/Work/Linux/target/STM32MP1-DK2/buildroot/buildroot/output/build/optee-os-custom/lib/libutils/ext/snprintk.c:466
    1272:	4650      	mov	r0, sl
    1274:	f007 f890 	bl	8398 <strlen>
    1278:	e7c0      	b.n	11fc <kprintf.constprop.0+0x4b4>
/home/aom1/Work/Linux/target/STM32MP1-DK2/buildroot/buildroot/output/build/optee-os-custom/lib/libutils/ext/snprintk.c:470
    127a:	f045 0510 	orr.w	r5, r5, #16
/home/aom1/Work/Linux/target/STM32MP1-DK2/buildroot/buildroot/output/build/optee-os-custom/lib/libutils/ext/snprintk.c:473
    127e:	f015 0180 	ands.w	r1, r5, #128	; 0x80
    1282:	d00f      	beq.n	12a4 <kprintf.constprop.0+0x55c>
    1284:	3307      	adds	r3, #7
    1286:	f023 0307 	bic.w	r3, r3, #7
    128a:	461f      	mov	r7, r3
    128c:	685e      	ldr	r6, [r3, #4]
    128e:	f857 4b08 	ldr.w	r4, [r7], #8
/home/aom1/Work/Linux/target/STM32MP1-DK2/buildroot/buildroot/output/build/optee-os-custom/lib/libutils/ext/snprintk.c:488
    1292:	f04f 0900 	mov.w	r9, #0
/home/aom1/Work/Linux/target/STM32MP1-DK2/buildroot/buildroot/output/build/optee-os-custom/lib/libutils/ext/snprintk.c:494
    1296:	f1bb 3fff 	cmp.w	fp, #4294967295	; 0xffffffff
    129a:	d155      	bne.n	1348 <kprintf.constprop.0+0x600>
    129c:	f10d 0379 	add.w	r3, sp, #121	; 0x79
    12a0:	9312      	str	r3, [sp, #72]	; 0x48
    12a2:	e067      	b.n	1374 <kprintf.constprop.0+0x62c>
/home/aom1/Work/Linux/target/STM32MP1-DK2/buildroot/buildroot/output/build/optee-os-custom/lib/libutils/ext/snprintk.c:473
    12a4:	f415 7680 	ands.w	r6, r5, #256	; 0x100
    12a8:	d004      	beq.n	12b4 <kprintf.constprop.0+0x56c>
    12aa:	461f      	mov	r7, r3
    12ac:	f857 4b04 	ldr.w	r4, [r7], #4
    12b0:	460e      	mov	r6, r1
    12b2:	e7ee      	b.n	1292 <kprintf.constprop.0+0x54a>
    12b4:	f415 7900 	ands.w	r9, r5, #512	; 0x200
    12b8:	d003      	beq.n	12c2 <kprintf.constprop.0+0x57a>
    12ba:	461f      	mov	r7, r3
    12bc:	f857 4b04 	ldr.w	r4, [r7], #4
    12c0:	e7e7      	b.n	1292 <kprintf.constprop.0+0x54a>
    12c2:	f015 0620 	ands.w	r6, r5, #32
    12c6:	d007      	beq.n	12d8 <kprintf.constprop.0+0x590>
    12c8:	3307      	adds	r3, #7
    12ca:	f023 0307 	bic.w	r3, r3, #7
    12ce:	461f      	mov	r7, r3
    12d0:	685e      	ldr	r6, [r3, #4]
    12d2:	f857 4b08 	ldr.w	r4, [r7], #8
    12d6:	e7de      	b.n	1296 <kprintf.constprop.0+0x54e>
/home/aom1/Work/Linux/target/STM32MP1-DK2/buildroot/buildroot/output/build/optee-os-custom/lib/libutils/ext/snprintk.c:317
    12d8:	461f      	mov	r7, r3
/home/aom1/Work/Linux/target/STM32MP1-DK2/buildroot/buildroot/output/build/optee-os-custom/lib/libutils/ext/snprintk.c:473
    12da:	f015 0110 	ands.w	r1, r5, #16
/home/aom1/Work/Linux/target/STM32MP1-DK2/buildroot/buildroot/output/build/optee-os-custom/lib/libutils/ext/snprintk.c:317
    12de:	f857 4b04 	ldr.w	r4, [r7], #4
/home/aom1/Work/Linux/target/STM32MP1-DK2/buildroot/buildroot/output/build/optee-os-custom/lib/libutils/ext/snprintk.c:473
    12e2:	d1d6      	bne.n	1292 <kprintf.constprop.0+0x54a>
    12e4:	f015 0640 	ands.w	r6, r5, #64	; 0x40
    12e8:	d0d3      	beq.n	1292 <kprintf.constprop.0+0x54a>
    12ea:	b2a4      	uxth	r4, r4
    12ec:	e7e0      	b.n	12b0 <kprintf.constprop.0+0x568>
/home/aom1/Work/Linux/target/STM32MP1-DK2/buildroot/buildroot/output/build/optee-os-custom/lib/libutils/ext/snprintk.c:477
    12ee:	4a5e      	ldr	r2, [pc, #376]	; (1468 <kprintf.constprop.0+0x720>)
    12f0:	447a      	add	r2, pc
    12f2:	e5d9      	b.n	ea8 <kprintf.constprop.0+0x160>
/home/aom1/Work/Linux/target/STM32MP1-DK2/buildroot/buildroot/output/build/optee-os-custom/lib/libutils/ext/snprintk.c:481
    12f4:	f415 7680 	ands.w	r6, r5, #256	; 0x100
    12f8:	d004      	beq.n	1304 <kprintf.constprop.0+0x5bc>
    12fa:	461f      	mov	r7, r3
    12fc:	f857 4b04 	ldr.w	r4, [r7], #4
    1300:	460e      	mov	r6, r1
    1302:	e004      	b.n	130e <kprintf.constprop.0+0x5c6>
    1304:	05aa      	lsls	r2, r5, #22
    1306:	d50e      	bpl.n	1326 <kprintf.constprop.0+0x5de>
    1308:	461f      	mov	r7, r3
    130a:	f857 4b04 	ldr.w	r4, [r7], #4
/home/aom1/Work/Linux/target/STM32MP1-DK2/buildroot/buildroot/output/build/optee-os-custom/lib/libutils/ext/snprintk.c:484
    130e:	07eb      	lsls	r3, r5, #31
    1310:	f57f af7f 	bpl.w	1212 <kprintf.constprop.0+0x4ca>
    1314:	ea54 0306 	orrs.w	r3, r4, r6
/home/aom1/Work/Linux/target/STM32MP1-DK2/buildroot/buildroot/output/build/optee-os-custom/lib/libutils/ext/snprintk.c:488
    1318:	f04f 0900 	mov.w	r9, #0
/home/aom1/Work/Linux/target/STM32MP1-DK2/buildroot/buildroot/output/build/optee-os-custom/lib/libutils/ext/snprintk.c:485
    131c:	bf18      	it	ne
    131e:	f045 0502 	orrne.w	r5, r5, #2
/home/aom1/Work/Linux/target/STM32MP1-DK2/buildroot/buildroot/output/build/optee-os-custom/lib/libutils/ext/snprintk.c:482
    1322:	2302      	movs	r3, #2
    1324:	e653      	b.n	fce <kprintf.constprop.0+0x286>
/home/aom1/Work/Linux/target/STM32MP1-DK2/buildroot/buildroot/output/build/optee-os-custom/lib/libutils/ext/snprintk.c:481
    1326:	f015 0620 	ands.w	r6, r5, #32
    132a:	f47f adc2 	bne.w	eb2 <kprintf.constprop.0+0x16a>
/home/aom1/Work/Linux/target/STM32MP1-DK2/buildroot/buildroot/output/build/optee-os-custom/lib/libutils/ext/snprintk.c:317
    132e:	461f      	mov	r7, r3
/home/aom1/Work/Linux/target/STM32MP1-DK2/buildroot/buildroot/output/build/optee-os-custom/lib/libutils/ext/snprintk.c:481
    1330:	f015 0110 	ands.w	r1, r5, #16
/home/aom1/Work/Linux/target/STM32MP1-DK2/buildroot/buildroot/output/build/optee-os-custom/lib/libutils/ext/snprintk.c:317
    1334:	f857 4b04 	ldr.w	r4, [r7], #4
/home/aom1/Work/Linux/target/STM32MP1-DK2/buildroot/buildroot/output/build/optee-os-custom/lib/libutils/ext/snprintk.c:481
    1338:	d1e9      	bne.n	130e <kprintf.constprop.0+0x5c6>
    133a:	f015 0640 	ands.w	r6, r5, #64	; 0x40
    133e:	d0e6      	beq.n	130e <kprintf.constprop.0+0x5c6>
    1340:	b2a4      	uxth	r4, r4
    1342:	e7dd      	b.n	1300 <kprintf.constprop.0+0x5b8>
/home/aom1/Work/Linux/target/STM32MP1-DK2/buildroot/buildroot/output/build/optee-os-custom/lib/libutils/ext/snprintk.c:494
    1344:	2302      	movs	r3, #2
    1346:	e710      	b.n	116a <kprintf.constprop.0+0x422>
    1348:	2301      	movs	r3, #1
    134a:	e70e      	b.n	116a <kprintf.constprop.0+0x422>
/home/aom1/Work/Linux/target/STM32MP1-DK2/buildroot/buildroot/output/build/optee-os-custom/lib/libutils/ext/snprintk.c:523
    134c:	4620      	mov	r0, r4
    134e:	4631      	mov	r1, r6
    1350:	220a      	movs	r2, #10
    1352:	2300      	movs	r3, #0
    1354:	f000 e8a2 	blx	149c <__aeabi_uldivmod>
    1358:	9b12      	ldr	r3, [sp, #72]	; 0x48
    135a:	3230      	adds	r2, #48	; 0x30
/home/aom1/Work/Linux/target/STM32MP1-DK2/buildroot/buildroot/output/build/optee-os-custom/lib/libutils/ext/snprintk.c:524
    135c:	4620      	mov	r0, r4
    135e:	4631      	mov	r1, r6
/home/aom1/Work/Linux/target/STM32MP1-DK2/buildroot/buildroot/output/build/optee-os-custom/lib/libutils/ext/snprintk.c:523
    1360:	f803 2c01 	strb.w	r2, [r3, #-1]
/home/aom1/Work/Linux/target/STM32MP1-DK2/buildroot/buildroot/output/build/optee-os-custom/lib/libutils/ext/snprintk.c:524
    1364:	220a      	movs	r2, #10
    1366:	2300      	movs	r3, #0
    1368:	f000 e898 	blx	149c <__aeabi_uldivmod>
    136c:	f8cd a048 	str.w	sl, [sp, #72]	; 0x48
    1370:	4604      	mov	r4, r0
    1372:	460e      	mov	r6, r1
/home/aom1/Work/Linux/target/STM32MP1-DK2/buildroot/buildroot/output/build/optee-os-custom/lib/libutils/ext/snprintk.c:523
    1374:	9b12      	ldr	r3, [sp, #72]	; 0x48
/home/aom1/Work/Linux/target/STM32MP1-DK2/buildroot/buildroot/output/build/optee-os-custom/lib/libutils/ext/snprintk.c:522
    1376:	2c0a      	cmp	r4, #10
/home/aom1/Work/Linux/target/STM32MP1-DK2/buildroot/buildroot/output/build/optee-os-custom/lib/libutils/ext/snprintk.c:523
    1378:	f103 3aff 	add.w	sl, r3, #4294967295	; 0xffffffff
/home/aom1/Work/Linux/target/STM32MP1-DK2/buildroot/buildroot/output/build/optee-os-custom/lib/libutils/ext/snprintk.c:522
    137c:	f176 0300 	sbcs.w	r3, r6, #0
    1380:	d2e4      	bcs.n	134c <kprintf.constprop.0+0x604>
/home/aom1/Work/Linux/target/STM32MP1-DK2/buildroot/buildroot/output/build/optee-os-custom/lib/libutils/ext/snprintk.c:526
    1382:	9b12      	ldr	r3, [sp, #72]	; 0x48
    1384:	3430      	adds	r4, #48	; 0x30
    1386:	f803 4c01 	strb.w	r4, [r3, #-1]
/home/aom1/Work/Linux/target/STM32MP1-DK2/buildroot/buildroot/output/build/optee-os-custom/lib/libutils/ext/snprintk.c:527
    138a:	e642      	b.n	1012 <kprintf.constprop.0+0x2ca>
/home/aom1/Work/Linux/target/STM32MP1-DK2/buildroot/buildroot/output/build/optee-os-custom/lib/libutils/ext/snprintk.c:547
    138c:	9a0c      	ldr	r2, [sp, #48]	; 0x30
    138e:	2a00      	cmp	r2, #0
    1390:	f43f acf9 	beq.w	d86 <kprintf.constprop.0+0x3e>
    1394:	e599      	b.n	eca <kprintf.constprop.0+0x182>
/home/aom1/Work/Linux/target/STM32MP1-DK2/buildroot/buildroot/output/build/optee-os-custom/lib/libutils/ext/snprintk.c:574
    1396:	07ac      	lsls	r4, r5, #30
/home/aom1/Work/Linux/target/STM32MP1-DK2/buildroot/buildroot/output/build/optee-os-custom/lib/libutils/ext/snprintk.c:575
    1398:	bf48      	it	mi
    139a:	3302      	addmi	r3, #2
    139c:	e647      	b.n	102e <kprintf.constprop.0+0x2e6>
/home/aom1/Work/Linux/target/STM32MP1-DK2/buildroot/buildroot/output/build/optee-os-custom/lib/libutils/ext/snprintk.c:584
    139e:	f1b8 0f00 	cmp.w	r8, #0
    13a2:	d006      	beq.n	13b2 <kprintf.constprop.0+0x66a>
    13a4:	9e0e      	ldr	r6, [sp, #56]	; 0x38
    13a6:	b116      	cbz	r6, 13ae <kprintf.constprop.0+0x666>
    13a8:	9e10      	ldr	r6, [sp, #64]	; 0x40
    13aa:	4546      	cmp	r6, r8
    13ac:	d901      	bls.n	13b2 <kprintf.constprop.0+0x66a>
    13ae:	f808 4b01 	strb.w	r4, [r8], #1
    13b2:	3901      	subs	r1, #1
    13b4:	e648      	b.n	1048 <kprintf.constprop.0+0x300>
/home/aom1/Work/Linux/target/STM32MP1-DK2/buildroot/buildroot/output/build/optee-os-custom/lib/libutils/ext/snprintk.c:590
    13b6:	07a9      	lsls	r1, r5, #30
    13b8:	f57f ae57 	bpl.w	106a <kprintf.constprop.0+0x322>
/home/aom1/Work/Linux/target/STM32MP1-DK2/buildroot/buildroot/output/build/optee-os-custom/lib/libutils/ext/snprintk.c:591
    13bc:	f1b8 0f00 	cmp.w	r8, #0
    13c0:	f43f ae53 	beq.w	106a <kprintf.constprop.0+0x322>
    13c4:	990e      	ldr	r1, [sp, #56]	; 0x38
    13c6:	b119      	cbz	r1, 13d0 <kprintf.constprop.0+0x688>
    13c8:	9910      	ldr	r1, [sp, #64]	; 0x40
    13ca:	4541      	cmp	r1, r8
    13cc:	f67f ae4d 	bls.w	106a <kprintf.constprop.0+0x322>
    13d0:	2130      	movs	r1, #48	; 0x30
    13d2:	f888 1000 	strb.w	r1, [r8]
/home/aom1/Work/Linux/target/STM32MP1-DK2/buildroot/buildroot/output/build/optee-os-custom/lib/libutils/ext/snprintk.c:592
    13d6:	990e      	ldr	r1, [sp, #56]	; 0x38
    13d8:	b121      	cbz	r1, 13e4 <kprintf.constprop.0+0x69c>
    13da:	9c10      	ldr	r4, [sp, #64]	; 0x40
/home/aom1/Work/Linux/target/STM32MP1-DK2/buildroot/buildroot/output/build/optee-os-custom/lib/libutils/ext/snprintk.c:591
    13dc:	f108 0101 	add.w	r1, r8, #1
/home/aom1/Work/Linux/target/STM32MP1-DK2/buildroot/buildroot/output/build/optee-os-custom/lib/libutils/ext/snprintk.c:592
    13e0:	428c      	cmp	r4, r1
    13e2:	d905      	bls.n	13f0 <kprintf.constprop.0+0x6a8>
    13e4:	990c      	ldr	r1, [sp, #48]	; 0x30
    13e6:	f108 0802 	add.w	r8, r8, #2
    13ea:	f808 1c01 	strb.w	r1, [r8, #-1]
    13ee:	e63c      	b.n	106a <kprintf.constprop.0+0x322>
    13f0:	4688      	mov	r8, r1
    13f2:	e63a      	b.n	106a <kprintf.constprop.0+0x322>
/home/aom1/Work/Linux/target/STM32MP1-DK2/buildroot/buildroot/output/build/optee-os-custom/lib/libutils/ext/snprintk.c:599
    13f4:	f1b8 0f00 	cmp.w	r8, #0
    13f8:	d006      	beq.n	1408 <kprintf.constprop.0+0x6c0>
    13fa:	9c0e      	ldr	r4, [sp, #56]	; 0x38
    13fc:	b114      	cbz	r4, 1404 <kprintf.constprop.0+0x6bc>
    13fe:	9c10      	ldr	r4, [sp, #64]	; 0x40
    1400:	4544      	cmp	r4, r8
    1402:	d901      	bls.n	1408 <kprintf.constprop.0+0x6c0>
    1404:	f808 2b01 	strb.w	r2, [r8], #1
    1408:	3901      	subs	r1, #1
    140a:	e634      	b.n	1076 <kprintf.constprop.0+0x32e>
/home/aom1/Work/Linux/target/STM32MP1-DK2/buildroot/buildroot/output/build/optee-os-custom/lib/libutils/ext/snprintk.c:605
    140c:	f1b8 0f00 	cmp.w	r8, #0
    1410:	d006      	beq.n	1420 <kprintf.constprop.0+0x6d8>
    1412:	990e      	ldr	r1, [sp, #56]	; 0x38
    1414:	b111      	cbz	r1, 141c <kprintf.constprop.0+0x6d4>
    1416:	9910      	ldr	r1, [sp, #64]	; 0x40
    1418:	4541      	cmp	r1, r8
    141a:	d901      	bls.n	1420 <kprintf.constprop.0+0x6d8>
    141c:	f808 2b01 	strb.w	r2, [r8], #1
    1420:	3801      	subs	r0, #1
    1422:	e62e      	b.n	1082 <kprintf.constprop.0+0x33a>
/home/aom1/Work/Linux/target/STM32MP1-DK2/buildroot/buildroot/output/build/optee-os-custom/lib/libutils/ext/snprintk.c:609
    1424:	f1b8 0f00 	cmp.w	r8, #0
    1428:	d008      	beq.n	143c <kprintf.constprop.0+0x6f4>
    142a:	9a0e      	ldr	r2, [sp, #56]	; 0x38
    142c:	b112      	cbz	r2, 1434 <kprintf.constprop.0+0x6ec>
    142e:	9a10      	ldr	r2, [sp, #64]	; 0x40
    1430:	4542      	cmp	r2, r8
    1432:	d903      	bls.n	143c <kprintf.constprop.0+0x6f4>
    1434:	f89a 2000 	ldrb.w	r2, [sl]
    1438:	f808 2b01 	strb.w	r2, [r8], #1
/home/aom1/Work/Linux/target/STM32MP1-DK2/buildroot/buildroot/output/build/optee-os-custom/lib/libutils/ext/snprintk.c:608
    143c:	f10a 0a01 	add.w	sl, sl, #1
    1440:	e624      	b.n	108c <kprintf.constprop.0+0x344>
/home/aom1/Work/Linux/target/STM32MP1-DK2/buildroot/buildroot/output/build/optee-os-custom/lib/libutils/ext/snprintk.c:622
    1442:	980d      	ldr	r0, [sp, #52]	; 0x34
    1444:	b021      	add	sp, #132	; 0x84
    1446:	e8bd 8ff0 	ldmia.w	sp!, {r4, r5, r6, r7, r8, r9, sl, fp, pc}
    144a:	bf00      	nop
    144c:	00009326 	.word	0x00009326
    1450:	0000000c 	.word	0x0000000c
    1454:	000092ee 	.word	0x000092ee
    1458:	00007ace 	.word	0x00007ace
    145c:	00007773 	.word	0x00007773
    1460:	0000776a 	.word	0x0000776a
    1464:	000076ec 	.word	0x000076ec
    1468:	00007682 	.word	0x00007682

0000146c <__vsprintf>:
__vsprintf():
/home/aom1/Work/Linux/target/STM32MP1-DK2/buildroot/buildroot/output/build/optee-os-custom/lib/libutils/ext/snprintk.c:155
    146c:	b513      	push	{r0, r1, r4, lr}
    146e:	4604      	mov	r4, r0
    1470:	4608      	mov	r0, r1
/home/aom1/Work/Linux/target/STM32MP1-DK2/buildroot/buildroot/output/build/optee-os-custom/lib/libutils/ext/snprintk.c:156
    1472:	2100      	movs	r1, #0
    1474:	9100      	str	r1, [sp, #0]
/home/aom1/Work/Linux/target/STM32MP1-DK2/buildroot/buildroot/output/build/optee-os-custom/lib/libutils/ext/snprintk.c:155
    1476:	4613      	mov	r3, r2
/home/aom1/Work/Linux/target/STM32MP1-DK2/buildroot/buildroot/output/build/optee-os-custom/lib/libutils/ext/snprintk.c:156
    1478:	4622      	mov	r2, r4
    147a:	f7ff fc65 	bl	d48 <kprintf.constprop.0>
/home/aom1/Work/Linux/target/STM32MP1-DK2/buildroot/buildroot/output/build/optee-os-custom/lib/libutils/ext/snprintk.c:157
    147e:	b002      	add	sp, #8
    1480:	bd10      	pop	{r4, pc}
    1482:	bf00      	nop

00001484 <__aeabi_ldivmod>:
__aeabi_ldivmod():
/home/aom1/Work/Linux/target/STM32MP1-DK2/buildroot/buildroot/output/build/optee-os-custom/lib/libutils/isoc/arch/arm/arm32_aeabi_ldivmod_a32.S:12
    1484:	e92d5000 	push	{ip, lr}
/home/aom1/Work/Linux/target/STM32MP1-DK2/buildroot/buildroot/output/build/optee-os-custom/lib/libutils/isoc/arch/arm/arm32_aeabi_ldivmod_a32.S:14
    1488:	e92d000f 	push	{r0, r1, r2, r3}
/home/aom1/Work/Linux/target/STM32MP1-DK2/buildroot/buildroot/output/build/optee-os-custom/lib/libutils/isoc/arch/arm/arm32_aeabi_ldivmod_a32.S:16
    148c:	e1a0000d 	mov	r0, sp
/home/aom1/Work/Linux/target/STM32MP1-DK2/buildroot/buildroot/output/build/optee-os-custom/lib/libutils/isoc/arch/arm/arm32_aeabi_ldivmod_a32.S:17
    1490:	fa000048 	blx	15b8 <__l_divmod>
/home/aom1/Work/Linux/target/STM32MP1-DK2/buildroot/buildroot/output/build/optee-os-custom/lib/libutils/isoc/arch/arm/arm32_aeabi_ldivmod_a32.S:18
    1494:	e8bd000f 	pop	{r0, r1, r2, r3}
/home/aom1/Work/Linux/target/STM32MP1-DK2/buildroot/buildroot/output/build/optee-os-custom/lib/libutils/isoc/arch/arm/arm32_aeabi_ldivmod_a32.S:19
    1498:	e8bd9000 	pop	{ip, pc}

0000149c <__aeabi_uldivmod>:
__aeabi_uldivmod():
/home/aom1/Work/Linux/target/STM32MP1-DK2/buildroot/buildroot/output/build/optee-os-custom/lib/libutils/isoc/arch/arm/arm32_aeabi_ldivmod_a32.S:27
    149c:	e92d5000 	push	{ip, lr}
/home/aom1/Work/Linux/target/STM32MP1-DK2/buildroot/buildroot/output/build/optee-os-custom/lib/libutils/isoc/arch/arm/arm32_aeabi_ldivmod_a32.S:29
    14a0:	e92d000f 	push	{r0, r1, r2, r3}
/home/aom1/Work/Linux/target/STM32MP1-DK2/buildroot/buildroot/output/build/optee-os-custom/lib/libutils/isoc/arch/arm/arm32_aeabi_ldivmod_a32.S:31
    14a4:	e1a0000d 	mov	r0, sp
/home/aom1/Work/Linux/target/STM32MP1-DK2/buildroot/buildroot/output/build/optee-os-custom/lib/libutils/isoc/arch/arm/arm32_aeabi_ldivmod_a32.S:32
    14a8:	fb000024 	blx	1542 <__ul_divmod>
/home/aom1/Work/Linux/target/STM32MP1-DK2/buildroot/buildroot/output/build/optee-os-custom/lib/libutils/isoc/arch/arm/arm32_aeabi_ldivmod_a32.S:33
    14ac:	e8bd000f 	pop	{r0, r1, r2, r3}
/home/aom1/Work/Linux/target/STM32MP1-DK2/buildroot/buildroot/output/build/optee-os-custom/lib/libutils/isoc/arch/arm/arm32_aeabi_ldivmod_a32.S:34
    14b0:	e8bd9000 	pop	{ip, pc}

000014b4 <ul_div_qr>:
ul_div_qr():
/home/aom1/Work/Linux/target/STM32MP1-DK2/buildroot/buildroot/output/build/optee-os-custom/lib/libutils/isoc/arch/arm/arm32_aeabi_ldivmod.c:47
    14b4:	b5f0      	push	{r4, r5, r6, r7, lr}
division_lqr():
/home/aom1/Work/Linux/target/STM32MP1-DK2/buildroot/buildroot/output/build/optee-os-custom/lib/libutils/isoc/arch/arm/arm32_aeabi_ldivmod.c:22
    14b6:	ea52 0403 	orrs.w	r4, r2, r3
ul_div_qr():
/home/aom1/Work/Linux/target/STM32MP1-DK2/buildroot/buildroot/output/build/optee-os-custom/lib/libutils/isoc/arch/arm/arm32_aeabi_ldivmod.c:47
    14ba:	9d05      	ldr	r5, [sp, #20]
division_lqr():
/home/aom1/Work/Linux/target/STM32MP1-DK2/buildroot/buildroot/output/build/optee-os-custom/lib/libutils/isoc/arch/arm/arm32_aeabi_ldivmod.c:22
    14bc:	d128      	bne.n	1510 <ul_div_qr+0x5c>
/home/aom1/Work/Linux/target/STM32MP1-DK2/buildroot/buildroot/output/build/optee-os-custom/lib/libutils/isoc/arch/arm/arm32_aeabi_ldivmod.c:23
    14be:	f04f 32ff 	mov.w	r2, #4294967295	; 0xffffffff
    14c2:	f04f 33ff 	mov.w	r3, #4294967295	; 0xffffffff
    14c6:	e9c5 2302 	strd	r2, r3, [r5, #8]
ul_div_qr():
/home/aom1/Work/Linux/target/STM32MP1-DK2/buildroot/buildroot/output/build/optee-os-custom/lib/libutils/isoc/arch/arm/arm32_aeabi_ldivmod.c:52
    14ca:	692b      	ldr	r3, [r5, #16]
    14cc:	b133      	cbz	r3, 14dc <ul_div_qr+0x28>
/home/aom1/Work/Linux/target/STM32MP1-DK2/buildroot/buildroot/output/build/optee-os-custom/lib/libutils/isoc/arch/arm/arm32_aeabi_ldivmod.c:53
    14ce:	e9d5 3200 	ldrd	r3, r2, [r5]
    14d2:	425b      	negs	r3, r3
    14d4:	eb62 0242 	sbc.w	r2, r2, r2, lsl #1
    14d8:	e9c5 3200 	strd	r3, r2, [r5]
/home/aom1/Work/Linux/target/STM32MP1-DK2/buildroot/buildroot/output/build/optee-os-custom/lib/libutils/isoc/arch/arm/arm32_aeabi_ldivmod.c:54
    14dc:	696b      	ldr	r3, [r5, #20]
    14de:	b133      	cbz	r3, 14ee <ul_div_qr+0x3a>
/home/aom1/Work/Linux/target/STM32MP1-DK2/buildroot/buildroot/output/build/optee-os-custom/lib/libutils/isoc/arch/arm/arm32_aeabi_ldivmod.c:55
    14e0:	e9d5 3202 	ldrd	r3, r2, [r5, #8]
    14e4:	425b      	negs	r3, r3
    14e6:	eb62 0242 	sbc.w	r2, r2, r2, lsl #1
    14ea:	e9c5 3202 	strd	r3, r2, [r5, #8]
/home/aom1/Work/Linux/target/STM32MP1-DK2/buildroot/buildroot/output/build/optee-os-custom/lib/libutils/isoc/arch/arm/arm32_aeabi_ldivmod.c:56
    14ee:	bdf0      	pop	{r4, r5, r6, r7, pc}
division_lqr():
/home/aom1/Work/Linux/target/STM32MP1-DK2/buildroot/buildroot/output/build/optee-os-custom/lib/libutils/isoc/arch/arm/arm32_aeabi_ldivmod.c:28
    14f0:	19b6      	adds	r6, r6, r6
    14f2:	417f      	adcs	r7, r7
/home/aom1/Work/Linux/target/STM32MP1-DK2/buildroot/buildroot/output/build/optee-os-custom/lib/libutils/isoc/arch/arm/arm32_aeabi_ldivmod.c:29
    14f4:	1892      	adds	r2, r2, r2
    14f6:	415b      	adcs	r3, r3
/home/aom1/Work/Linux/target/STM32MP1-DK2/buildroot/buildroot/output/build/optee-os-custom/lib/libutils/isoc/arch/arm/arm32_aeabi_ldivmod.c:27
    14f8:	2b00      	cmp	r3, #0
    14fa:	daf9      	bge.n	14f0 <ul_div_qr+0x3c>
/home/aom1/Work/Linux/target/STM32MP1-DK2/buildroot/buildroot/output/build/optee-os-custom/lib/libutils/isoc/arch/arm/arm32_aeabi_ldivmod.c:21
    14fc:	2400      	movs	r4, #0
    14fe:	46a4      	mov	ip, r4
/home/aom1/Work/Linux/target/STM32MP1-DK2/buildroot/buildroot/output/build/optee-os-custom/lib/libutils/isoc/arch/arm/arm32_aeabi_ldivmod.c:32
    1500:	ea56 0e07 	orrs.w	lr, r6, r7
    1504:	d107      	bne.n	1516 <ul_div_qr+0x62>
/home/aom1/Work/Linux/target/STM32MP1-DK2/buildroot/buildroot/output/build/optee-os-custom/lib/libutils/isoc/arch/arm/arm32_aeabi_ldivmod.c:41
    1506:	e9c5 0102 	strd	r0, r1, [r5, #8]
/home/aom1/Work/Linux/target/STM32MP1-DK2/buildroot/buildroot/output/build/optee-os-custom/lib/libutils/isoc/arch/arm/arm32_aeabi_ldivmod.c:42
    150a:	e9c5 4c00 	strd	r4, ip, [r5]
    150e:	e7dc      	b.n	14ca <ul_div_qr+0x16>
/home/aom1/Work/Linux/target/STM32MP1-DK2/buildroot/buildroot/output/build/optee-os-custom/lib/libutils/isoc/arch/arm/arm32_aeabi_ldivmod.c:21
    1510:	2601      	movs	r6, #1
    1512:	2700      	movs	r7, #0
    1514:	e7f0      	b.n	14f8 <ul_div_qr+0x44>
/home/aom1/Work/Linux/target/STM32MP1-DK2/buildroot/buildroot/output/build/optee-os-custom/lib/libutils/isoc/arch/arm/arm32_aeabi_ldivmod.c:33
    1516:	1924      	adds	r4, r4, r4
    1518:	eb4c 0c0c 	adc.w	ip, ip, ip
/home/aom1/Work/Linux/target/STM32MP1-DK2/buildroot/buildroot/output/build/optee-os-custom/lib/libutils/isoc/arch/arm/arm32_aeabi_ldivmod.c:34
    151c:	4290      	cmp	r0, r2
    151e:	eb71 0e03 	sbcs.w	lr, r1, r3
    1522:	d305      	bcc.n	1530 <ul_div_qr+0x7c>
/home/aom1/Work/Linux/target/STM32MP1-DK2/buildroot/buildroot/output/build/optee-os-custom/lib/libutils/isoc/arch/arm/arm32_aeabi_ldivmod.c:35
    1524:	1a80      	subs	r0, r0, r2
    1526:	eb61 0103 	sbc.w	r1, r1, r3
/home/aom1/Work/Linux/target/STM32MP1-DK2/buildroot/buildroot/output/build/optee-os-custom/lib/libutils/isoc/arch/arm/arm32_aeabi_ldivmod.c:36
    152a:	3401      	adds	r4, #1
    152c:	f14c 0c00 	adc.w	ip, ip, #0
/home/aom1/Work/Linux/target/STM32MP1-DK2/buildroot/buildroot/output/build/optee-os-custom/lib/libutils/isoc/arch/arm/arm32_aeabi_ldivmod.c:38
    1530:	0852      	lsrs	r2, r2, #1
/home/aom1/Work/Linux/target/STM32MP1-DK2/buildroot/buildroot/output/build/optee-os-custom/lib/libutils/isoc/arch/arm/arm32_aeabi_ldivmod.c:39
    1532:	0876      	lsrs	r6, r6, #1
/home/aom1/Work/Linux/target/STM32MP1-DK2/buildroot/buildroot/output/build/optee-os-custom/lib/libutils/isoc/arch/arm/arm32_aeabi_ldivmod.c:38
    1534:	ea42 72c3 	orr.w	r2, r2, r3, lsl #31
/home/aom1/Work/Linux/target/STM32MP1-DK2/buildroot/buildroot/output/build/optee-os-custom/lib/libutils/isoc/arch/arm/arm32_aeabi_ldivmod.c:39
    1538:	ea46 76c7 	orr.w	r6, r6, r7, lsl #31
/home/aom1/Work/Linux/target/STM32MP1-DK2/buildroot/buildroot/output/build/optee-os-custom/lib/libutils/isoc/arch/arm/arm32_aeabi_ldivmod.c:38
    153c:	085b      	lsrs	r3, r3, #1
/home/aom1/Work/Linux/target/STM32MP1-DK2/buildroot/buildroot/output/build/optee-os-custom/lib/libutils/isoc/arch/arm/arm32_aeabi_ldivmod.c:39
    153e:	087f      	lsrs	r7, r7, #1
    1540:	e7de      	b.n	1500 <ul_div_qr+0x4c>

00001542 <__ul_divmod>:
__ul_divmod():
/home/aom1/Work/Linux/target/STM32MP1-DK2/buildroot/buildroot/output/build/optee-os-custom/lib/libutils/isoc/arch/arm/arm32_aeabi_ldivmod.c:66
    1542:	4a1a      	ldr	r2, [pc, #104]	; (15ac <__ul_divmod+0x6a>)
/home/aom1/Work/Linux/target/STM32MP1-DK2/buildroot/buildroot/output/build/optee-os-custom/lib/libutils/isoc/arch/arm/arm32_aeabi_ldivmod.c:69
    1544:	2100      	movs	r1, #0
/home/aom1/Work/Linux/target/STM32MP1-DK2/buildroot/buildroot/output/build/optee-os-custom/lib/libutils/isoc/arch/arm/arm32_aeabi_ldivmod.c:66
    1546:	4b1a      	ldr	r3, [pc, #104]	; (15b0 <__ul_divmod+0x6e>)
    1548:	447a      	add	r2, pc
    154a:	e92d 43d0 	stmdb	sp!, {r4, r6, r7, r8, r9, lr}
    154e:	b08a      	sub	sp, #40	; 0x28
    1550:	58d3      	ldr	r3, [r2, r3]
    1552:	4604      	mov	r4, r0
/home/aom1/Work/Linux/target/STM32MP1-DK2/buildroot/buildroot/output/build/optee-os-custom/lib/libutils/isoc/arch/arm/arm32_aeabi_ldivmod.c:67
    1554:	e9d0 6700 	ldrd	r6, r7, [r0]
/home/aom1/Work/Linux/target/STM32MP1-DK2/buildroot/buildroot/output/build/optee-os-custom/lib/libutils/isoc/arch/arm/arm32_aeabi_ldivmod.c:66
    1558:	681b      	ldr	r3, [r3, #0]
    155a:	9309      	str	r3, [sp, #36]	; 0x24
    155c:	f04f 0300 	mov.w	r3, #0
/home/aom1/Work/Linux/target/STM32MP1-DK2/buildroot/buildroot/output/build/optee-os-custom/lib/libutils/isoc/arch/arm/arm32_aeabi_ldivmod.c:69
    1560:	ab02      	add	r3, sp, #8
/home/aom1/Work/Linux/target/STM32MP1-DK2/buildroot/buildroot/output/build/optee-os-custom/lib/libutils/isoc/arch/arm/arm32_aeabi_ldivmod.c:68
    1562:	e9d0 8902 	ldrd	r8, r9, [r0, #8]
/home/aom1/Work/Linux/target/STM32MP1-DK2/buildroot/buildroot/output/build/optee-os-custom/lib/libutils/isoc/arch/arm/arm32_aeabi_ldivmod.c:69
    1566:	2218      	movs	r2, #24
    1568:	4618      	mov	r0, r3
    156a:	f006 feff 	bl	836c <memset>
/home/aom1/Work/Linux/target/STM32MP1-DK2/buildroot/buildroot/output/build/optee-os-custom/lib/libutils/isoc/arch/arm/arm32_aeabi_ldivmod.c:71
    156e:	9000      	str	r0, [sp, #0]
    1570:	4642      	mov	r2, r8
    1572:	464b      	mov	r3, r9
    1574:	4630      	mov	r0, r6
    1576:	4639      	mov	r1, r7
    1578:	f7ff ff9c 	bl	14b4 <ul_div_qr>
/home/aom1/Work/Linux/target/STM32MP1-DK2/buildroot/buildroot/output/build/optee-os-custom/lib/libutils/isoc/arch/arm/arm32_aeabi_ldivmod.c:73
    157c:	e9dd 2302 	ldrd	r2, r3, [sp, #8]
    1580:	e9c4 2300 	strd	r2, r3, [r4]
/home/aom1/Work/Linux/target/STM32MP1-DK2/buildroot/buildroot/output/build/optee-os-custom/lib/libutils/isoc/arch/arm/arm32_aeabi_ldivmod.c:74
    1584:	e9dd 2304 	ldrd	r2, r3, [sp, #16]
    1588:	e9c4 2302 	strd	r2, r3, [r4, #8]
/home/aom1/Work/Linux/target/STM32MP1-DK2/buildroot/buildroot/output/build/optee-os-custom/lib/libutils/isoc/arch/arm/arm32_aeabi_ldivmod.c:66
    158c:	4a09      	ldr	r2, [pc, #36]	; (15b4 <__ul_divmod+0x72>)
/home/aom1/Work/Linux/target/STM32MP1-DK2/buildroot/buildroot/output/build/optee-os-custom/lib/libutils/isoc/arch/arm/arm32_aeabi_ldivmod.c:75
    158e:	4b08      	ldr	r3, [pc, #32]	; (15b0 <__ul_divmod+0x6e>)
/home/aom1/Work/Linux/target/STM32MP1-DK2/buildroot/buildroot/output/build/optee-os-custom/lib/libutils/isoc/arch/arm/arm32_aeabi_ldivmod.c:66
    1590:	447a      	add	r2, pc
/home/aom1/Work/Linux/target/STM32MP1-DK2/buildroot/buildroot/output/build/optee-os-custom/lib/libutils/isoc/arch/arm/arm32_aeabi_ldivmod.c:75
    1592:	58d3      	ldr	r3, [r2, r3]
    1594:	681a      	ldr	r2, [r3, #0]
    1596:	9b09      	ldr	r3, [sp, #36]	; 0x24
    1598:	405a      	eors	r2, r3
    159a:	f04f 0300 	mov.w	r3, #0
    159e:	d001      	beq.n	15a4 <__ul_divmod+0x62>
    15a0:	f006 fee3 	bl	836a <__stack_chk_fail>
    15a4:	b00a      	add	sp, #40	; 0x28
    15a6:	e8bd 83d0 	ldmia.w	sp!, {r4, r6, r7, r8, r9, pc}
    15aa:	bf00      	nop
    15ac:	00008b3c 	.word	0x00008b3c
    15b0:	0000000c 	.word	0x0000000c
    15b4:	00008af4 	.word	0x00008af4

000015b8 <__l_divmod>:
__l_divmod():
/home/aom1/Work/Linux/target/STM32MP1-DK2/buildroot/buildroot/output/build/optee-os-custom/lib/libutils/isoc/arch/arm/arm32_aeabi_ldivmod.c:85
    15b8:	4a29      	ldr	r2, [pc, #164]	; (1660 <__l_divmod+0xa8>)
/home/aom1/Work/Linux/target/STM32MP1-DK2/buildroot/buildroot/output/build/optee-os-custom/lib/libutils/isoc/arch/arm/arm32_aeabi_ldivmod.c:88
    15ba:	2100      	movs	r1, #0
/home/aom1/Work/Linux/target/STM32MP1-DK2/buildroot/buildroot/output/build/optee-os-custom/lib/libutils/isoc/arch/arm/arm32_aeabi_ldivmod.c:85
    15bc:	4b29      	ldr	r3, [pc, #164]	; (1664 <__l_divmod+0xac>)
    15be:	447a      	add	r2, pc
    15c0:	e92d 43f0 	stmdb	sp!, {r4, r5, r6, r7, r8, r9, lr}
    15c4:	b08b      	sub	sp, #44	; 0x2c
    15c6:	58d3      	ldr	r3, [r2, r3]
/home/aom1/Work/Linux/target/STM32MP1-DK2/buildroot/buildroot/output/build/optee-os-custom/lib/libutils/isoc/arch/arm/arm32_aeabi_ldivmod.c:88
    15c8:	f10d 0908 	add.w	r9, sp, #8
/home/aom1/Work/Linux/target/STM32MP1-DK2/buildroot/buildroot/output/build/optee-os-custom/lib/libutils/isoc/arch/arm/arm32_aeabi_ldivmod.c:86
    15cc:	e9d0 7800 	ldrd	r7, r8, [r0]
/home/aom1/Work/Linux/target/STM32MP1-DK2/buildroot/buildroot/output/build/optee-os-custom/lib/libutils/isoc/arch/arm/arm32_aeabi_ldivmod.c:87
    15d0:	e9d0 4602 	ldrd	r4, r6, [r0, #8]
/home/aom1/Work/Linux/target/STM32MP1-DK2/buildroot/buildroot/output/build/optee-os-custom/lib/libutils/isoc/arch/arm/arm32_aeabi_ldivmod.c:85
    15d4:	4605      	mov	r5, r0
/home/aom1/Work/Linux/target/STM32MP1-DK2/buildroot/buildroot/output/build/optee-os-custom/lib/libutils/isoc/arch/arm/arm32_aeabi_ldivmod.c:88
    15d6:	2218      	movs	r2, #24
/home/aom1/Work/Linux/target/STM32MP1-DK2/buildroot/buildroot/output/build/optee-os-custom/lib/libutils/isoc/arch/arm/arm32_aeabi_ldivmod.c:85
    15d8:	681b      	ldr	r3, [r3, #0]
    15da:	9309      	str	r3, [sp, #36]	; 0x24
    15dc:	f04f 0300 	mov.w	r3, #0
/home/aom1/Work/Linux/target/STM32MP1-DK2/buildroot/buildroot/output/build/optee-os-custom/lib/libutils/isoc/arch/arm/arm32_aeabi_ldivmod.c:88
    15e0:	4648      	mov	r0, r9
    15e2:	f006 fec3 	bl	836c <memset>
/home/aom1/Work/Linux/target/STM32MP1-DK2/buildroot/buildroot/output/build/optee-os-custom/lib/libutils/isoc/arch/arm/arm32_aeabi_ldivmod.c:90
    15e6:	f1b8 0f00 	cmp.w	r8, #0
    15ea:	da29      	bge.n	1640 <__l_divmod+0x88>
/home/aom1/Work/Linux/target/STM32MP1-DK2/buildroot/buildroot/output/build/optee-os-custom/lib/libutils/isoc/arch/arm/arm32_aeabi_ldivmod.c:90 (discriminator 1)
    15ec:	2c01      	cmp	r4, #1
    15ee:	f176 0300 	sbcs.w	r3, r6, #0
    15f2:	da2a      	bge.n	164a <__l_divmod+0x92>
/home/aom1/Work/Linux/target/STM32MP1-DK2/buildroot/buildroot/output/build/optee-os-custom/lib/libutils/isoc/arch/arm/arm32_aeabi_ldivmod.c:94
    15f4:	427f      	negs	r7, r7
/home/aom1/Work/Linux/target/STM32MP1-DK2/buildroot/buildroot/output/build/optee-os-custom/lib/libutils/isoc/arch/arm/arm32_aeabi_ldivmod.c:95
    15f6:	f04f 0301 	mov.w	r3, #1
/home/aom1/Work/Linux/target/STM32MP1-DK2/buildroot/buildroot/output/build/optee-os-custom/lib/libutils/isoc/arch/arm/arm32_aeabi_ldivmod.c:94
    15fa:	eb68 0848 	sbc.w	r8, r8, r8, lsl #1
/home/aom1/Work/Linux/target/STM32MP1-DK2/buildroot/buildroot/output/build/optee-os-custom/lib/libutils/isoc/arch/arm/arm32_aeabi_ldivmod.c:95
    15fe:	9307      	str	r3, [sp, #28]
/home/aom1/Work/Linux/target/STM32MP1-DK2/buildroot/buildroot/output/build/optee-os-custom/lib/libutils/isoc/arch/arm/arm32_aeabi_ldivmod.c:100
    1600:	1e33      	subs	r3, r6, #0
    1602:	4622      	mov	r2, r4
    1604:	da02      	bge.n	160c <__l_divmod+0x54>
    1606:	4262      	negs	r2, r4
    1608:	eb63 0343 	sbc.w	r3, r3, r3, lsl #1
    160c:	f8cd 9000 	str.w	r9, [sp]
    1610:	4638      	mov	r0, r7
    1612:	4641      	mov	r1, r8
    1614:	f7ff ff4e 	bl	14b4 <ul_div_qr>
/home/aom1/Work/Linux/target/STM32MP1-DK2/buildroot/buildroot/output/build/optee-os-custom/lib/libutils/isoc/arch/arm/arm32_aeabi_ldivmod.c:102
    1618:	e9dd 2302 	ldrd	r2, r3, [sp, #8]
    161c:	e9c5 2300 	strd	r2, r3, [r5]
/home/aom1/Work/Linux/target/STM32MP1-DK2/buildroot/buildroot/output/build/optee-os-custom/lib/libutils/isoc/arch/arm/arm32_aeabi_ldivmod.c:103
    1620:	e9dd 2304 	ldrd	r2, r3, [sp, #16]
    1624:	e9c5 2302 	strd	r2, r3, [r5, #8]
/home/aom1/Work/Linux/target/STM32MP1-DK2/buildroot/buildroot/output/build/optee-os-custom/lib/libutils/isoc/arch/arm/arm32_aeabi_ldivmod.c:85
    1628:	4a0f      	ldr	r2, [pc, #60]	; (1668 <__l_divmod+0xb0>)
/home/aom1/Work/Linux/target/STM32MP1-DK2/buildroot/buildroot/output/build/optee-os-custom/lib/libutils/isoc/arch/arm/arm32_aeabi_ldivmod.c:104
    162a:	4b0e      	ldr	r3, [pc, #56]	; (1664 <__l_divmod+0xac>)
/home/aom1/Work/Linux/target/STM32MP1-DK2/buildroot/buildroot/output/build/optee-os-custom/lib/libutils/isoc/arch/arm/arm32_aeabi_ldivmod.c:85
    162c:	447a      	add	r2, pc
/home/aom1/Work/Linux/target/STM32MP1-DK2/buildroot/buildroot/output/build/optee-os-custom/lib/libutils/isoc/arch/arm/arm32_aeabi_ldivmod.c:104
    162e:	58d3      	ldr	r3, [r2, r3]
    1630:	681a      	ldr	r2, [r3, #0]
    1632:	9b09      	ldr	r3, [sp, #36]	; 0x24
    1634:	405a      	eors	r2, r3
    1636:	f04f 0300 	mov.w	r3, #0
    163a:	d00d      	beq.n	1658 <__l_divmod+0xa0>
    163c:	f006 fe95 	bl	836a <__stack_chk_fail>
/home/aom1/Work/Linux/target/STM32MP1-DK2/buildroot/buildroot/output/build/optee-os-custom/lib/libutils/isoc/arch/arm/arm32_aeabi_ldivmod.c:90 (discriminator 3)
    1640:	ea57 0308 	orrs.w	r3, r7, r8
    1644:	d0dc      	beq.n	1600 <__l_divmod+0x48>
/home/aom1/Work/Linux/target/STM32MP1-DK2/buildroot/buildroot/output/build/optee-os-custom/lib/libutils/isoc/arch/arm/arm32_aeabi_ldivmod.c:91
    1646:	2e00      	cmp	r6, #0
    1648:	dada      	bge.n	1600 <__l_divmod+0x48>
/home/aom1/Work/Linux/target/STM32MP1-DK2/buildroot/buildroot/output/build/optee-os-custom/lib/libutils/isoc/arch/arm/arm32_aeabi_ldivmod.c:93
    164a:	f1b8 0f00 	cmp.w	r8, #0
/home/aom1/Work/Linux/target/STM32MP1-DK2/buildroot/buildroot/output/build/optee-os-custom/lib/libutils/isoc/arch/arm/arm32_aeabi_ldivmod.c:92
    164e:	f04f 0301 	mov.w	r3, #1
    1652:	9306      	str	r3, [sp, #24]
/home/aom1/Work/Linux/target/STM32MP1-DK2/buildroot/buildroot/output/build/optee-os-custom/lib/libutils/isoc/arch/arm/arm32_aeabi_ldivmod.c:93
    1654:	dbce      	blt.n	15f4 <__l_divmod+0x3c>
    1656:	e7d3      	b.n	1600 <__l_divmod+0x48>
/home/aom1/Work/Linux/target/STM32MP1-DK2/buildroot/buildroot/output/build/optee-os-custom/lib/libutils/isoc/arch/arm/arm32_aeabi_ldivmod.c:104
    1658:	b00b      	add	sp, #44	; 0x2c
    165a:	e8bd 83f0 	ldmia.w	sp!, {r4, r5, r6, r7, r8, r9, pc}
    165e:	bf00      	nop
    1660:	00008ac6 	.word	0x00008ac6
    1664:	0000000c 	.word	0x0000000c
    1668:	00008a58 	.word	0x00008a58

0000166c <trace_ext_puts>:
trace_ext_puts():
/home/aom1/Work/Linux/target/STM32MP1-DK2/buildroot/buildroot/output/build/optee-os-custom/lib/libutee/trace_ext.c:22
    166c:	b510      	push	{r4, lr}
    166e:	4604      	mov	r4, r0
/home/aom1/Work/Linux/target/STM32MP1-DK2/buildroot/buildroot/output/build/optee-os-custom/lib/libutee/trace_ext.c:26
    1670:	f006 fe92 	bl	8398 <strlen>
    1674:	4601      	mov	r1, r0
    1676:	4620      	mov	r0, r4
/home/aom1/Work/Linux/target/STM32MP1-DK2/buildroot/buildroot/output/build/optee-os-custom/lib/libutee/trace_ext.c:28
    1678:	e8bd 4010 	ldmia.w	sp!, {r4, lr}
/home/aom1/Work/Linux/target/STM32MP1-DK2/buildroot/buildroot/output/build/optee-os-custom/lib/libutee/trace_ext.c:26
    167c:	f006 beec 	b.w	8458 <___utee_log_from_thumb>

00001680 <trace_ext_get_thread_id>:
trace_ext_get_thread_id():
/home/aom1/Work/Linux/target/STM32MP1-DK2/buildroot/buildroot/output/build/optee-os-custom/lib/libutee/trace_ext.c:33
    1680:	f04f 30ff 	mov.w	r0, #4294967295	; 0xffffffff
    1684:	4770      	bx	lr

00001686 <printf>:
printf():
/home/aom1/Work/Linux/target/STM32MP1-DK2/buildroot/buildroot/output/build/optee-os-custom/lib/libutee/trace_ext.c:41
    1686:	b40f      	push	{r0, r1, r2, r3}
    1688:	b530      	push	{r4, r5, lr}
    168a:	b0c5      	sub	sp, #276	; 0x114
    168c:	4b17      	ldr	r3, [pc, #92]	; (16ec <printf+0x66>)
    168e:	9a48      	ldr	r2, [sp, #288]	; 0x120
    1690:	9201      	str	r2, [sp, #4]
    1692:	4a17      	ldr	r2, [pc, #92]	; (16f0 <printf+0x6a>)
    1694:	447a      	add	r2, pc
    1696:	58d3      	ldr	r3, [r2, r3]
    1698:	681b      	ldr	r3, [r3, #0]
    169a:	9343      	str	r3, [sp, #268]	; 0x10c
    169c:	f04f 0300 	mov.w	r3, #0
/home/aom1/Work/Linux/target/STM32MP1-DK2/buildroot/buildroot/output/build/optee-os-custom/lib/libutee/trace_ext.c:46
    16a0:	f7ff f9f6 	bl	a90 <trace_get_level>
    16a4:	2800      	cmp	r0, #0
    16a6:	dd19      	ble.n	16dc <printf+0x56>
/home/aom1/Work/Linux/target/STM32MP1-DK2/buildroot/buildroot/output/build/optee-os-custom/lib/libutee/trace_ext.c:50
    16a8:	9a01      	ldr	r2, [sp, #4]
    16aa:	ad03      	add	r5, sp, #12
/home/aom1/Work/Linux/target/STM32MP1-DK2/buildroot/buildroot/output/build/optee-os-custom/lib/libutee/trace_ext.c:49
    16ac:	ab49      	add	r3, sp, #292	; 0x124
/home/aom1/Work/Linux/target/STM32MP1-DK2/buildroot/buildroot/output/build/optee-os-custom/lib/libutee/trace_ext.c:50
    16ae:	f44f 7180 	mov.w	r1, #256	; 0x100
/home/aom1/Work/Linux/target/STM32MP1-DK2/buildroot/buildroot/output/build/optee-os-custom/lib/libutee/trace_ext.c:49
    16b2:	9302      	str	r3, [sp, #8]
/home/aom1/Work/Linux/target/STM32MP1-DK2/buildroot/buildroot/output/build/optee-os-custom/lib/libutee/trace_ext.c:50
    16b4:	4628      	mov	r0, r5
    16b6:	f006 fd63 	bl	8180 <vsnprintf>
/home/aom1/Work/Linux/target/STM32MP1-DK2/buildroot/buildroot/output/build/optee-os-custom/lib/libutee/trace_ext.c:53
    16ba:	1e04      	subs	r4, r0, #0
    16bc:	db02      	blt.n	16c4 <printf+0x3e>
/home/aom1/Work/Linux/target/STM32MP1-DK2/buildroot/buildroot/output/build/optee-os-custom/lib/libutee/trace_ext.c:56
    16be:	4628      	mov	r0, r5
    16c0:	f7ff ffd4 	bl	166c <trace_ext_puts>
/home/aom1/Work/Linux/target/STM32MP1-DK2/buildroot/buildroot/output/build/optee-os-custom/lib/libutee/trace_ext.c:41
    16c4:	4a0b      	ldr	r2, [pc, #44]	; (16f4 <printf+0x6e>)
/home/aom1/Work/Linux/target/STM32MP1-DK2/buildroot/buildroot/output/build/optee-os-custom/lib/libutee/trace_ext.c:59
    16c6:	4b09      	ldr	r3, [pc, #36]	; (16ec <printf+0x66>)
/home/aom1/Work/Linux/target/STM32MP1-DK2/buildroot/buildroot/output/build/optee-os-custom/lib/libutee/trace_ext.c:41
    16c8:	447a      	add	r2, pc
/home/aom1/Work/Linux/target/STM32MP1-DK2/buildroot/buildroot/output/build/optee-os-custom/lib/libutee/trace_ext.c:59
    16ca:	58d3      	ldr	r3, [r2, r3]
    16cc:	681a      	ldr	r2, [r3, #0]
    16ce:	9b43      	ldr	r3, [sp, #268]	; 0x10c
    16d0:	405a      	eors	r2, r3
    16d2:	f04f 0300 	mov.w	r3, #0
    16d6:	d003      	beq.n	16e0 <printf+0x5a>
    16d8:	f006 fe47 	bl	836a <__stack_chk_fail>
/home/aom1/Work/Linux/target/STM32MP1-DK2/buildroot/buildroot/output/build/optee-os-custom/lib/libutee/trace_ext.c:47
    16dc:	2400      	movs	r4, #0
    16de:	e7f1      	b.n	16c4 <printf+0x3e>
/home/aom1/Work/Linux/target/STM32MP1-DK2/buildroot/buildroot/output/build/optee-os-custom/lib/libutee/trace_ext.c:59
    16e0:	4620      	mov	r0, r4
    16e2:	b045      	add	sp, #276	; 0x114
    16e4:	e8bd 4030 	ldmia.w	sp!, {r4, r5, lr}
    16e8:	b004      	add	sp, #16
    16ea:	4770      	bx	lr
    16ec:	0000000c 	.word	0x0000000c
    16f0:	000089f0 	.word	0x000089f0
    16f4:	000089bc 	.word	0x000089bc

000016f8 <puts>:
puts():
/home/aom1/Work/Linux/target/STM32MP1-DK2/buildroot/buildroot/output/build/optee-os-custom/lib/libutee/trace_ext.c:62
    16f8:	b510      	push	{r4, lr}
    16fa:	4604      	mov	r4, r0
/home/aom1/Work/Linux/target/STM32MP1-DK2/buildroot/buildroot/output/build/optee-os-custom/lib/libutee/trace_ext.c:63
    16fc:	f7ff f9c8 	bl	a90 <trace_get_level>
    1700:	2800      	cmp	r0, #0
    1702:	dd06      	ble.n	1712 <puts+0x1a>
/home/aom1/Work/Linux/target/STM32MP1-DK2/buildroot/buildroot/output/build/optee-os-custom/lib/libutee/trace_ext.c:64
    1704:	4620      	mov	r0, r4
    1706:	f7ff ffb1 	bl	166c <trace_ext_puts>
/home/aom1/Work/Linux/target/STM32MP1-DK2/buildroot/buildroot/output/build/optee-os-custom/lib/libutee/trace_ext.c:65
    170a:	4803      	ldr	r0, [pc, #12]	; (1718 <puts+0x20>)
    170c:	4478      	add	r0, pc
    170e:	f7ff ffad 	bl	166c <trace_ext_puts>
/home/aom1/Work/Linux/target/STM32MP1-DK2/buildroot/buildroot/output/build/optee-os-custom/lib/libutee/trace_ext.c:68
    1712:	2001      	movs	r0, #1
    1714:	bd10      	pop	{r4, pc}
    1716:	bf00      	nop
    1718:	00007a54 	.word	0x00007a54

0000171c <putchar>:
putchar():
/home/aom1/Work/Linux/target/STM32MP1-DK2/buildroot/buildroot/output/build/optee-os-custom/lib/libutee/trace_ext.c:71
    171c:	4a12      	ldr	r2, [pc, #72]	; (1768 <putchar+0x4c>)
    171e:	4b13      	ldr	r3, [pc, #76]	; (176c <putchar+0x50>)
    1720:	447a      	add	r2, pc
    1722:	b513      	push	{r0, r1, r4, lr}
    1724:	4604      	mov	r4, r0
    1726:	58d3      	ldr	r3, [r2, r3]
    1728:	681b      	ldr	r3, [r3, #0]
    172a:	9301      	str	r3, [sp, #4]
    172c:	f04f 0300 	mov.w	r3, #0
/home/aom1/Work/Linux/target/STM32MP1-DK2/buildroot/buildroot/output/build/optee-os-custom/lib/libutee/trace_ext.c:72
    1730:	2300      	movs	r3, #0
    1732:	f88d 0000 	strb.w	r0, [sp]
    1736:	f88d 3001 	strb.w	r3, [sp, #1]
/home/aom1/Work/Linux/target/STM32MP1-DK2/buildroot/buildroot/output/build/optee-os-custom/lib/libutee/trace_ext.c:74
    173a:	f7ff f9a9 	bl	a90 <trace_get_level>
    173e:	2800      	cmp	r0, #0
    1740:	dd02      	ble.n	1748 <putchar+0x2c>
/home/aom1/Work/Linux/target/STM32MP1-DK2/buildroot/buildroot/output/build/optee-os-custom/lib/libutee/trace_ext.c:75
    1742:	4668      	mov	r0, sp
    1744:	f7ff ff92 	bl	166c <trace_ext_puts>
/home/aom1/Work/Linux/target/STM32MP1-DK2/buildroot/buildroot/output/build/optee-os-custom/lib/libutee/trace_ext.c:71
    1748:	4a09      	ldr	r2, [pc, #36]	; (1770 <putchar+0x54>)
/home/aom1/Work/Linux/target/STM32MP1-DK2/buildroot/buildroot/output/build/optee-os-custom/lib/libutee/trace_ext.c:81
    174a:	b2e0      	uxtb	r0, r4
/home/aom1/Work/Linux/target/STM32MP1-DK2/buildroot/buildroot/output/build/optee-os-custom/lib/libutee/trace_ext.c:82
    174c:	4b07      	ldr	r3, [pc, #28]	; (176c <putchar+0x50>)
/home/aom1/Work/Linux/target/STM32MP1-DK2/buildroot/buildroot/output/build/optee-os-custom/lib/libutee/trace_ext.c:71
    174e:	447a      	add	r2, pc
/home/aom1/Work/Linux/target/STM32MP1-DK2/buildroot/buildroot/output/build/optee-os-custom/lib/libutee/trace_ext.c:82
    1750:	58d3      	ldr	r3, [r2, r3]
    1752:	681a      	ldr	r2, [r3, #0]
    1754:	9b01      	ldr	r3, [sp, #4]
    1756:	405a      	eors	r2, r3
    1758:	f04f 0300 	mov.w	r3, #0
    175c:	d001      	beq.n	1762 <putchar+0x46>
    175e:	f006 fe04 	bl	836a <__stack_chk_fail>
    1762:	b002      	add	sp, #8
    1764:	bd10      	pop	{r4, pc}
    1766:	bf00      	nop
    1768:	00008964 	.word	0x00008964
    176c:	0000000c 	.word	0x0000000c
    1770:	00008936 	.word	0x00008936

00001774 <__utee_from_attr>:
__utee_from_attr():
/home/aom1/Work/Linux/target/STM32MP1-DK2/buildroot/buildroot/output/build/optee-os-custom/lib/libutee/tee_api_objects.c:19
    1774:	2318      	movs	r3, #24
/home/aom1/Work/Linux/target/STM32MP1-DK2/buildroot/buildroot/output/build/optee-os-custom/lib/libutee/tee_api_objects.c:16
    1776:	b570      	push	{r4, r5, r6, lr}
/home/aom1/Work/Linux/target/STM32MP1-DK2/buildroot/buildroot/output/build/optee-os-custom/lib/libutee/tee_api_objects.c:23
    1778:	2400      	movs	r4, #0
    177a:	fb03 0202 	mla	r2, r3, r2, r0
/home/aom1/Work/Linux/target/STM32MP1-DK2/buildroot/buildroot/output/build/optee-os-custom/lib/libutee/tee_api_objects.c:19 (discriminator 1)
    177e:	4290      	cmp	r0, r2
    1780:	d100      	bne.n	1784 <__utee_from_attr+0x10>
/home/aom1/Work/Linux/target/STM32MP1-DK2/buildroot/buildroot/output/build/optee-os-custom/lib/libutee/tee_api_objects.c:29
    1782:	bd70      	pop	{r4, r5, r6, pc}
/home/aom1/Work/Linux/target/STM32MP1-DK2/buildroot/buildroot/output/build/optee-os-custom/lib/libutee/tee_api_objects.c:20
    1784:	680b      	ldr	r3, [r1, #0]
    1786:	310c      	adds	r1, #12
    1788:	6103      	str	r3, [r0, #16]
/home/aom1/Work/Linux/target/STM32MP1-DK2/buildroot/buildroot/output/build/optee-os-custom/lib/libutee/tee_api_objects.c:21
    178a:	f013 5300 	ands.w	r3, r3, #536870912	; 0x20000000
/home/aom1/Work/Linux/target/STM32MP1-DK2/buildroot/buildroot/output/build/optee-os-custom/lib/libutee/tee_api_objects.c:23
    178e:	f851 5c04 	ldr.w	r5, [r1, #-4]
/home/aom1/Work/Linux/target/STM32MP1-DK2/buildroot/buildroot/output/build/optee-os-custom/lib/libutee/tee_api_objects.c:22
    1792:	bf17      	itett	ne
    1794:	f851 3c08 	ldrne.w	r3, [r1, #-8]
/home/aom1/Work/Linux/target/STM32MP1-DK2/buildroot/buildroot/output/build/optee-os-custom/lib/libutee/tee_api_objects.c:25
    1798:	f851 6c08 	ldreq.w	r6, [r1, #-8]
/home/aom1/Work/Linux/target/STM32MP1-DK2/buildroot/buildroot/output/build/optee-os-custom/lib/libutee/tee_api_objects.c:22
    179c:	e9c0 3400 	strdne	r3, r4, [r0]
/home/aom1/Work/Linux/target/STM32MP1-DK2/buildroot/buildroot/output/build/optee-os-custom/lib/libutee/tee_api_objects.c:23
    17a0:	e9c0 5402 	strdne	r5, r4, [r0, #8]
/home/aom1/Work/Linux/target/STM32MP1-DK2/buildroot/buildroot/output/build/optee-os-custom/lib/libutee/tee_api_objects.c:25
    17a4:	bf04      	itt	eq
    17a6:	e9c0 6300 	strdeq	r6, r3, [r0]
/home/aom1/Work/Linux/target/STM32MP1-DK2/buildroot/buildroot/output/build/optee-os-custom/lib/libutee/tee_api_objects.c:26
    17aa:	e9c0 5302 	strdeq	r5, r3, [r0, #8]
/home/aom1/Work/Linux/target/STM32MP1-DK2/buildroot/buildroot/output/build/optee-os-custom/lib/libutee/tee_api_objects.c:19
    17ae:	3018      	adds	r0, #24
    17b0:	e7e5      	b.n	177e <__utee_from_attr+0xa>

000017b2 <TEE_GetObjectInfo>:
TEE_GetObjectInfo():
/home/aom1/Work/Linux/target/STM32MP1-DK2/buildroot/buildroot/output/build/optee-os-custom/lib/libutee/tee_api_objects.c:39
    17b2:	b510      	push	{r4, lr}
    17b4:	460c      	mov	r4, r1
/home/aom1/Work/Linux/target/STM32MP1-DK2/buildroot/buildroot/output/build/optee-os-custom/lib/libutee/tee_api_objects.c:42
    17b6:	f000 efec 	blx	2790 <_utee_cryp_obj_get_info>
/home/aom1/Work/Linux/target/STM32MP1-DK2/buildroot/buildroot/output/build/optee-os-custom/lib/libutee/tee_api_objects.c:44
    17ba:	b108      	cbz	r0, 17c0 <TEE_GetObjectInfo+0xe>
/home/aom1/Work/Linux/target/STM32MP1-DK2/buildroot/buildroot/output/build/optee-os-custom/lib/libutee/tee_api_objects.c:45
    17bc:	f000 fd84 	bl	22c8 <TEE_Panic>
/home/aom1/Work/Linux/target/STM32MP1-DK2/buildroot/buildroot/output/build/optee-os-custom/lib/libutee/tee_api_objects.c:47
    17c0:	6822      	ldr	r2, [r4, #0]
    17c2:	4b05      	ldr	r3, [pc, #20]	; (17d8 <TEE_GetObjectInfo+0x26>)
    17c4:	429a      	cmp	r2, r3
    17c6:	d106      	bne.n	17d6 <TEE_GetObjectInfo+0x24>
/home/aom1/Work/Linux/target/STM32MP1-DK2/buildroot/buildroot/output/build/optee-os-custom/lib/libutee/tee_api_objects.c:48
    17c8:	2300      	movs	r3, #0
    17ca:	6063      	str	r3, [r4, #4]
/home/aom1/Work/Linux/target/STM32MP1-DK2/buildroot/buildroot/output/build/optee-os-custom/lib/libutee/tee_api_objects.c:49
    17cc:	60a3      	str	r3, [r4, #8]
/home/aom1/Work/Linux/target/STM32MP1-DK2/buildroot/buildroot/output/build/optee-os-custom/lib/libutee/tee_api_objects.c:50
    17ce:	60e3      	str	r3, [r4, #12]
/home/aom1/Work/Linux/target/STM32MP1-DK2/buildroot/buildroot/output/build/optee-os-custom/lib/libutee/tee_api_objects.c:51
    17d0:	6123      	str	r3, [r4, #16]
/home/aom1/Work/Linux/target/STM32MP1-DK2/buildroot/buildroot/output/build/optee-os-custom/lib/libutee/tee_api_objects.c:52
    17d2:	6163      	str	r3, [r4, #20]
/home/aom1/Work/Linux/target/STM32MP1-DK2/buildroot/buildroot/output/build/optee-os-custom/lib/libutee/tee_api_objects.c:53
    17d4:	61a3      	str	r3, [r4, #24]
/home/aom1/Work/Linux/target/STM32MP1-DK2/buildroot/buildroot/output/build/optee-os-custom/lib/libutee/tee_api_objects.c:55
    17d6:	bd10      	pop	{r4, pc}
    17d8:	a00000be 	.word	0xa00000be

000017dc <TEE_GetObjectInfo1>:
TEE_GetObjectInfo1():
/home/aom1/Work/Linux/target/STM32MP1-DK2/buildroot/buildroot/output/build/optee-os-custom/lib/libutee/tee_api_objects.c:58
    17dc:	b510      	push	{r4, lr}
/home/aom1/Work/Linux/target/STM32MP1-DK2/buildroot/buildroot/output/build/optee-os-custom/lib/libutee/tee_api_objects.c:61
    17de:	f000 efd8 	blx	2790 <_utee_cryp_obj_get_info>
/home/aom1/Work/Linux/target/STM32MP1-DK2/buildroot/buildroot/output/build/optee-os-custom/lib/libutee/tee_api_objects.c:63
    17e2:	4604      	mov	r4, r0
    17e4:	b130      	cbz	r0, 17f4 <TEE_GetObjectInfo1+0x18>
/home/aom1/Work/Linux/target/STM32MP1-DK2/buildroot/buildroot/output/build/optee-os-custom/lib/libutee/tee_api_objects.c:63 (discriminator 1)
    17e6:	4b04      	ldr	r3, [pc, #16]	; (17f8 <TEE_GetObjectInfo1+0x1c>)
    17e8:	f020 0202 	bic.w	r2, r0, #2
    17ec:	429a      	cmp	r2, r3
    17ee:	d001      	beq.n	17f4 <TEE_GetObjectInfo1+0x18>
/home/aom1/Work/Linux/target/STM32MP1-DK2/buildroot/buildroot/output/build/optee-os-custom/lib/libutee/tee_api_objects.c:66
    17f0:	f000 fd6a 	bl	22c8 <TEE_Panic>
/home/aom1/Work/Linux/target/STM32MP1-DK2/buildroot/buildroot/output/build/optee-os-custom/lib/libutee/tee_api_objects.c:69
    17f4:	4620      	mov	r0, r4
    17f6:	bd10      	pop	{r4, pc}
    17f8:	f0100001 	.word	0xf0100001

000017fc <TEE_RestrictObjectUsage1>:
TEE_RestrictObjectUsage1():
/home/aom1/Work/Linux/target/STM32MP1-DK2/buildroot/buildroot/output/build/optee-os-custom/lib/libutee/tee_api_objects.c:93
    17fc:	b510      	push	{r4, lr}
/home/aom1/Work/Linux/target/STM32MP1-DK2/buildroot/buildroot/output/build/optee-os-custom/lib/libutee/tee_api_objects.c:96
    17fe:	f000 efd2 	blx	27a4 <_utee_cryp_obj_restrict_usage>
/home/aom1/Work/Linux/target/STM32MP1-DK2/buildroot/buildroot/output/build/optee-os-custom/lib/libutee/tee_api_objects.c:99
    1802:	4604      	mov	r4, r0
    1804:	b130      	cbz	r0, 1814 <TEE_RestrictObjectUsage1+0x18>
/home/aom1/Work/Linux/target/STM32MP1-DK2/buildroot/buildroot/output/build/optee-os-custom/lib/libutee/tee_api_objects.c:99 (discriminator 1)
    1806:	4b04      	ldr	r3, [pc, #16]	; (1818 <TEE_RestrictObjectUsage1+0x1c>)
    1808:	f020 0202 	bic.w	r2, r0, #2
    180c:	429a      	cmp	r2, r3
    180e:	d001      	beq.n	1814 <TEE_RestrictObjectUsage1+0x18>
/home/aom1/Work/Linux/target/STM32MP1-DK2/buildroot/buildroot/output/build/optee-os-custom/lib/libutee/tee_api_objects.c:102
    1810:	f000 fd5a 	bl	22c8 <TEE_Panic>
/home/aom1/Work/Linux/target/STM32MP1-DK2/buildroot/buildroot/output/build/optee-os-custom/lib/libutee/tee_api_objects.c:105
    1814:	4620      	mov	r0, r4
    1816:	bd10      	pop	{r4, pc}
    1818:	f0100001 	.word	0xf0100001

0000181c <TEE_RestrictObjectUsage>:
TEE_RestrictObjectUsage():
/home/aom1/Work/Linux/target/STM32MP1-DK2/buildroot/buildroot/output/build/optee-os-custom/lib/libutee/tee_api_objects.c:78
    181c:	4a14      	ldr	r2, [pc, #80]	; (1870 <TEE_RestrictObjectUsage+0x54>)
    181e:	4b15      	ldr	r3, [pc, #84]	; (1874 <TEE_RestrictObjectUsage+0x58>)
    1820:	447a      	add	r2, pc
    1822:	b530      	push	{r4, r5, lr}
    1824:	b089      	sub	sp, #36	; 0x24
    1826:	58d3      	ldr	r3, [r2, r3]
    1828:	460d      	mov	r5, r1
/home/aom1/Work/Linux/target/STM32MP1-DK2/buildroot/buildroot/output/build/optee-os-custom/lib/libutee/tee_api_objects.c:82
    182a:	4669      	mov	r1, sp
/home/aom1/Work/Linux/target/STM32MP1-DK2/buildroot/buildroot/output/build/optee-os-custom/lib/libutee/tee_api_objects.c:78
    182c:	4604      	mov	r4, r0
    182e:	681b      	ldr	r3, [r3, #0]
    1830:	9307      	str	r3, [sp, #28]
    1832:	f04f 0300 	mov.w	r3, #0
/home/aom1/Work/Linux/target/STM32MP1-DK2/buildroot/buildroot/output/build/optee-os-custom/lib/libutee/tee_api_objects.c:82
    1836:	f000 efac 	blx	2790 <_utee_cryp_obj_get_info>
/home/aom1/Work/Linux/target/STM32MP1-DK2/buildroot/buildroot/output/build/optee-os-custom/lib/libutee/tee_api_objects.c:83
    183a:	4b0c      	ldr	r3, [pc, #48]	; (186c <TEE_RestrictObjectUsage+0x50>)
    183c:	9a00      	ldr	r2, [sp, #0]
    183e:	429a      	cmp	r2, r3
    1840:	d006      	beq.n	1850 <TEE_RestrictObjectUsage+0x34>
/home/aom1/Work/Linux/target/STM32MP1-DK2/buildroot/buildroot/output/build/optee-os-custom/lib/libutee/tee_api_objects.c:86
    1842:	4629      	mov	r1, r5
    1844:	4620      	mov	r0, r4
    1846:	f7ff ffd9 	bl	17fc <TEE_RestrictObjectUsage1>
/home/aom1/Work/Linux/target/STM32MP1-DK2/buildroot/buildroot/output/build/optee-os-custom/lib/libutee/tee_api_objects.c:88
    184a:	b108      	cbz	r0, 1850 <TEE_RestrictObjectUsage+0x34>
/home/aom1/Work/Linux/target/STM32MP1-DK2/buildroot/buildroot/output/build/optee-os-custom/lib/libutee/tee_api_objects.c:89
    184c:	f000 fd3c 	bl	22c8 <TEE_Panic>
/home/aom1/Work/Linux/target/STM32MP1-DK2/buildroot/buildroot/output/build/optee-os-custom/lib/libutee/tee_api_objects.c:78
    1850:	4a09      	ldr	r2, [pc, #36]	; (1878 <TEE_RestrictObjectUsage+0x5c>)
/home/aom1/Work/Linux/target/STM32MP1-DK2/buildroot/buildroot/output/build/optee-os-custom/lib/libutee/tee_api_objects.c:90
    1852:	4b08      	ldr	r3, [pc, #32]	; (1874 <TEE_RestrictObjectUsage+0x58>)
/home/aom1/Work/Linux/target/STM32MP1-DK2/buildroot/buildroot/output/build/optee-os-custom/lib/libutee/tee_api_objects.c:78
    1854:	447a      	add	r2, pc
/home/aom1/Work/Linux/target/STM32MP1-DK2/buildroot/buildroot/output/build/optee-os-custom/lib/libutee/tee_api_objects.c:90
    1856:	58d3      	ldr	r3, [r2, r3]
    1858:	681a      	ldr	r2, [r3, #0]
    185a:	9b07      	ldr	r3, [sp, #28]
    185c:	405a      	eors	r2, r3
    185e:	f04f 0300 	mov.w	r3, #0
    1862:	d001      	beq.n	1868 <TEE_RestrictObjectUsage+0x4c>
    1864:	f006 fd81 	bl	836a <__stack_chk_fail>
    1868:	b009      	add	sp, #36	; 0x24
    186a:	bd30      	pop	{r4, r5, pc}
    186c:	a00000be 	.word	0xa00000be
    1870:	00008864 	.word	0x00008864
    1874:	0000000c 	.word	0x0000000c
    1878:	00008830 	.word	0x00008830

0000187c <TEE_GetObjectBufferAttribute>:
TEE_GetObjectBufferAttribute():
/home/aom1/Work/Linux/target/STM32MP1-DK2/buildroot/buildroot/output/build/optee-os-custom/lib/libutee/tee_api_objects.c:110
    187c:	b5f0      	push	{r4, r5, r6, r7, lr}
    187e:	b08d      	sub	sp, #52	; 0x34
    1880:	461d      	mov	r5, r3
    1882:	4606      	mov	r6, r0
    1884:	9201      	str	r2, [sp, #4]
/home/aom1/Work/Linux/target/STM32MP1-DK2/buildroot/buildroot/output/build/optee-os-custom/lib/libutee/tee_api_objects.c:115
    1886:	4628      	mov	r0, r5
/home/aom1/Work/Linux/target/STM32MP1-DK2/buildroot/buildroot/output/build/optee-os-custom/lib/libutee/tee_api_objects.c:110
    1888:	4a23      	ldr	r2, [pc, #140]	; (1918 <TEE_GetObjectBufferAttribute+0x9c>)
    188a:	460f      	mov	r7, r1
    188c:	4b23      	ldr	r3, [pc, #140]	; (191c <TEE_GetObjectBufferAttribute+0xa0>)
/home/aom1/Work/Linux/target/STM32MP1-DK2/buildroot/buildroot/output/build/optee-os-custom/lib/libutee/tee_api_objects.c:115
    188e:	2104      	movs	r1, #4
/home/aom1/Work/Linux/target/STM32MP1-DK2/buildroot/buildroot/output/build/optee-os-custom/lib/libutee/tee_api_objects.c:110
    1890:	447a      	add	r2, pc
    1892:	58d3      	ldr	r3, [r2, r3]
    1894:	681b      	ldr	r3, [r3, #0]
    1896:	930b      	str	r3, [sp, #44]	; 0x2c
    1898:	f04f 0300 	mov.w	r3, #0
/home/aom1/Work/Linux/target/STM32MP1-DK2/buildroot/buildroot/output/build/optee-os-custom/lib/libutee/tee_api_objects.c:115
    189c:	f000 fd69 	bl	2372 <__utee_check_inout_annotation>
/home/aom1/Work/Linux/target/STM32MP1-DK2/buildroot/buildroot/output/build/optee-os-custom/lib/libutee/tee_api_objects.c:117
    18a0:	a904      	add	r1, sp, #16
    18a2:	4630      	mov	r0, r6
    18a4:	f000 ef74 	blx	2790 <_utee_cryp_obj_get_info>
/home/aom1/Work/Linux/target/STM32MP1-DK2/buildroot/buildroot/output/build/optee-os-custom/lib/libutee/tee_api_objects.c:118
    18a8:	4604      	mov	r4, r0
    18aa:	b970      	cbnz	r0, 18ca <TEE_GetObjectBufferAttribute+0x4e>
/home/aom1/Work/Linux/target/STM32MP1-DK2/buildroot/buildroot/output/build/optee-os-custom/lib/libutee/tee_api_objects.c:122
    18ac:	00bb      	lsls	r3, r7, #2
    18ae:	d42a      	bmi.n	1906 <TEE_GetObjectBufferAttribute+0x8a>
/home/aom1/Work/Linux/target/STM32MP1-DK2/buildroot/buildroot/output/build/optee-os-custom/lib/libutee/tee_api_objects.c:127
    18b0:	682b      	ldr	r3, [r5, #0]
/home/aom1/Work/Linux/target/STM32MP1-DK2/buildroot/buildroot/output/build/optee-os-custom/lib/libutee/tee_api_objects.c:128
    18b2:	4639      	mov	r1, r7
    18b4:	9a01      	ldr	r2, [sp, #4]
/home/aom1/Work/Linux/target/STM32MP1-DK2/buildroot/buildroot/output/build/optee-os-custom/lib/libutee/tee_api_objects.c:127
    18b6:	e9cd 3002 	strd	r3, r0, [sp, #8]
/home/aom1/Work/Linux/target/STM32MP1-DK2/buildroot/buildroot/output/build/optee-os-custom/lib/libutee/tee_api_objects.c:128
    18ba:	ab02      	add	r3, sp, #8
    18bc:	4630      	mov	r0, r6
    18be:	f000 ef7c 	blx	27b8 <_utee_cryp_obj_get_attr>
/home/aom1/Work/Linux/target/STM32MP1-DK2/buildroot/buildroot/output/build/optee-os-custom/lib/libutee/tee_api_objects.c:130
    18c2:	9b02      	ldr	r3, [sp, #8]
/home/aom1/Work/Linux/target/STM32MP1-DK2/buildroot/buildroot/output/build/optee-os-custom/lib/libutee/tee_api_objects.c:133
    18c4:	4604      	mov	r4, r0
/home/aom1/Work/Linux/target/STM32MP1-DK2/buildroot/buildroot/output/build/optee-os-custom/lib/libutee/tee_api_objects.c:130
    18c6:	602b      	str	r3, [r5, #0]
/home/aom1/Work/Linux/target/STM32MP1-DK2/buildroot/buildroot/output/build/optee-os-custom/lib/libutee/tee_api_objects.c:133
    18c8:	b188      	cbz	r0, 18ee <TEE_GetObjectBufferAttribute+0x72>
    18ca:	4b11      	ldr	r3, [pc, #68]	; (1910 <TEE_GetObjectBufferAttribute+0x94>)
    18cc:	429c      	cmp	r4, r3
    18ce:	d00e      	beq.n	18ee <TEE_GetObjectBufferAttribute+0x72>
/home/aom1/Work/Linux/target/STM32MP1-DK2/buildroot/buildroot/output/build/optee-os-custom/lib/libutee/tee_api_objects.c:134
    18d0:	3308      	adds	r3, #8
    18d2:	429c      	cmp	r4, r3
    18d4:	d00b      	beq.n	18ee <TEE_GetObjectBufferAttribute+0x72>
/home/aom1/Work/Linux/target/STM32MP1-DK2/buildroot/buildroot/output/build/optee-os-custom/lib/libutee/tee_api_objects.c:135
    18d6:	f1a3 637e 	sub.w	r3, r3, #266338304	; 0xfe00000
    18da:	f1a3 130f 	sub.w	r3, r3, #983055	; 0xf000f
    18de:	429c      	cmp	r4, r3
    18e0:	d005      	beq.n	18ee <TEE_GetObjectBufferAttribute+0x72>
/home/aom1/Work/Linux/target/STM32MP1-DK2/buildroot/buildroot/output/build/optee-os-custom/lib/libutee/tee_api_objects.c:136
    18e2:	3302      	adds	r3, #2
    18e4:	429c      	cmp	r4, r3
    18e6:	d002      	beq.n	18ee <TEE_GetObjectBufferAttribute+0x72>
/home/aom1/Work/Linux/target/STM32MP1-DK2/buildroot/buildroot/output/build/optee-os-custom/lib/libutee/tee_api_objects.c:138
    18e8:	4620      	mov	r0, r4
    18ea:	f000 fced 	bl	22c8 <TEE_Panic>
/home/aom1/Work/Linux/target/STM32MP1-DK2/buildroot/buildroot/output/build/optee-os-custom/lib/libutee/tee_api_objects.c:110
    18ee:	4a0c      	ldr	r2, [pc, #48]	; (1920 <TEE_GetObjectBufferAttribute+0xa4>)
/home/aom1/Work/Linux/target/STM32MP1-DK2/buildroot/buildroot/output/build/optee-os-custom/lib/libutee/tee_api_objects.c:141
    18f0:	4b0a      	ldr	r3, [pc, #40]	; (191c <TEE_GetObjectBufferAttribute+0xa0>)
/home/aom1/Work/Linux/target/STM32MP1-DK2/buildroot/buildroot/output/build/optee-os-custom/lib/libutee/tee_api_objects.c:110
    18f2:	447a      	add	r2, pc
/home/aom1/Work/Linux/target/STM32MP1-DK2/buildroot/buildroot/output/build/optee-os-custom/lib/libutee/tee_api_objects.c:141
    18f4:	58d3      	ldr	r3, [r2, r3]
    18f6:	681a      	ldr	r2, [r3, #0]
    18f8:	9b0b      	ldr	r3, [sp, #44]	; 0x2c
    18fa:	405a      	eors	r2, r3
    18fc:	f04f 0300 	mov.w	r3, #0
    1900:	d003      	beq.n	190a <TEE_GetObjectBufferAttribute+0x8e>
    1902:	f006 fd32 	bl	836a <__stack_chk_fail>
/home/aom1/Work/Linux/target/STM32MP1-DK2/buildroot/buildroot/output/build/optee-os-custom/lib/libutee/tee_api_objects.c:123
    1906:	4c03      	ldr	r4, [pc, #12]	; (1914 <TEE_GetObjectBufferAttribute+0x98>)
    1908:	e7ee      	b.n	18e8 <TEE_GetObjectBufferAttribute+0x6c>
/home/aom1/Work/Linux/target/STM32MP1-DK2/buildroot/buildroot/output/build/optee-os-custom/lib/libutee/tee_api_objects.c:141
    190a:	4620      	mov	r0, r4
    190c:	b00d      	add	sp, #52	; 0x34
    190e:	bdf0      	pop	{r4, r5, r6, r7, pc}
    1910:	ffff0008 	.word	0xffff0008
    1914:	ffff0006 	.word	0xffff0006
    1918:	000087f4 	.word	0x000087f4
    191c:	0000000c 	.word	0x0000000c
    1920:	00008792 	.word	0x00008792

00001924 <TEE_GetObjectValueAttribute>:
TEE_GetObjectValueAttribute():
/home/aom1/Work/Linux/target/STM32MP1-DK2/buildroot/buildroot/output/build/optee-os-custom/lib/libutee/tee_api_objects.c:146
    1924:	e92d 41f0 	stmdb	sp!, {r4, r5, r6, r7, r8, lr}
    1928:	4688      	mov	r8, r1
    192a:	492f      	ldr	r1, [pc, #188]	; (19e8 <TEE_GetObjectValueAttribute+0xc4>)
    192c:	461d      	mov	r5, r3
    192e:	4b2f      	ldr	r3, [pc, #188]	; (19ec <TEE_GetObjectValueAttribute+0xc8>)
    1930:	b08c      	sub	sp, #48	; 0x30
    1932:	4479      	add	r1, pc
    1934:	4607      	mov	r7, r0
/home/aom1/Work/Linux/target/STM32MP1-DK2/buildroot/buildroot/output/build/optee-os-custom/lib/libutee/tee_api_objects.c:150
    1936:	2008      	movs	r0, #8
/home/aom1/Work/Linux/target/STM32MP1-DK2/buildroot/buildroot/output/build/optee-os-custom/lib/libutee/tee_api_objects.c:152
    1938:	4616      	mov	r6, r2
/home/aom1/Work/Linux/target/STM32MP1-DK2/buildroot/buildroot/output/build/optee-os-custom/lib/libutee/tee_api_objects.c:146
    193a:	58cb      	ldr	r3, [r1, r3]
