
build/ta/remoteproc/80a4c275-0a47-4905-8285-1486a9771a08.elf:     file format elf32-littlearm
build/ta/remoteproc/80a4c275-0a47-4905-8285-1486a9771a08.elf
architecture: armv7, flags 0x00000150:
HAS_SYMS, DYNAMIC, D_PAGED
start address 0x000009dc

Program Header:
    LOAD off    0x00001000 vaddr 0x00000000 paddr 0x00000000 align 2**12
         filesz 0x0000a69c memsz 0x0000a69c flags r-x
    LOAD off    0x0000c000 vaddr 0x0000b000 paddr 0x0000b000 align 2**12
         filesz 0x000002b8 memsz 0x00004310 flags rw-
 DYNAMIC off    0x0000c000 vaddr 0x0000b000 paddr 0x0000b000 align 2**2
         filesz 0x00000088 memsz 0x00000088 flags rw-
   STACK off    0x00000000 vaddr 0x00000000 paddr 0x00000000 align 2**4
         filesz 0x00000000 memsz 0x00000000 flags rwx

Dynamic Section:
  HASH                 0x0000a670
  GNU_HASH             0x0000a5b4
  STRTAB               0x0000a640
  SYMTAB               0x0000a5e0
  STRSZ                0x0000002e
  SYMENT               0x00000010
  DEBUG                0x00000000
  REL                  0x0000b0d0
  RELSZ                0x00000118
  RELENT               0x00000008
  FLAGS_1              0x08000000
  RELCOUNT             0x00000014
private flags = 0x5000400: [Version5 EABI] [hard-float ABI]

Sections:
Idx Name          Size      VMA       LMA       File off  Algn
  0 .ta_head      00000020  00000000  00000000  00001000  2**3
                  CONTENTS, ALLOC, LOAD, READONLY, DATA
  1 .text         000092d8  00000020  00000020  00001020  2**3
                  CONTENTS, ALLOC, LOAD, READONLY, CODE
  2 .rodata       000012bc  000092f8  000092f8  0000a2f8  2**2
                  CONTENTS, ALLOC, LOAD, READONLY, DATA
  3 .gnu.hash     0000002c  0000a5b4  0000a5b4  0000b5b4  2**2
                  CONTENTS, ALLOC, LOAD, READONLY, DATA
  4 .dynsym       00000060  0000a5e0  0000a5e0  0000b5e0  2**2
                  CONTENTS, ALLOC, LOAD, READONLY, DATA
  5 .dynstr       0000002e  0000a640  0000a640  0000b640  2**0
                  CONTENTS, ALLOC, LOAD, READONLY, DATA
  6 .hash         0000002c  0000a670  0000a670  0000b670  2**2
                  CONTENTS, ALLOC, LOAD, READONLY, DATA
  7 .dynamic      00000088  0000b000  0000b000  0000c000  2**2
                  CONTENTS, ALLOC, LOAD, DATA
  8 .got          00000048  0000b088  0000b088  0000c088  2**2
                  CONTENTS, ALLOC, LOAD, DATA
  9 .rel.got      00000078  0000b170  0000b170  0000c170  2**2
                  CONTENTS, ALLOC, LOAD, READONLY, DATA
 10 .data         000000d0  0000b1e8  0000b1e8  0000c1e8  2**2
                  CONTENTS, ALLOC, LOAD, DATA
 11 .bss          00004058  0000b2b8  0000b2b8  0000c2b8  2**2
                  ALLOC
 12 .debug_info   00018a76  00000000  00000000  0000c2b8  2**0
                  CONTENTS, READONLY, DEBUGGING, OCTETS
 13 .debug_abbrev 0000437c  00000000  00000000  00024d2e  2**0
                  CONTENTS, READONLY, DEBUGGING, OCTETS
 14 .debug_loclists 0000f1c9  00000000  00000000  000290aa  2**0
                  CONTENTS, READONLY, DEBUGGING, OCTETS
 15 .debug_aranges 000005c8  00000000  00000000  00038278  2**3
                  CONTENTS, READONLY, DEBUGGING, OCTETS
 16 .debug_rnglists 000007c9  00000000  00000000  00038840  2**0
                  CONTENTS, READONLY, DEBUGGING, OCTETS
 17 .debug_macro  0001ac79  00000000  00000000  00039009  2**0
                  CONTENTS, READONLY, DEBUGGING, OCTETS
 18 .debug_line   0001071a  00000000  00000000  00053c82  2**0
                  CONTENTS, READONLY, DEBUGGING, OCTETS
 19 .debug_str    000192f2  00000000  00000000  0006439c  2**0
                  CONTENTS, READONLY, DEBUGGING, OCTETS
 20 .comment      00000033  00000000  00000000  0007d68e  2**0
                  CONTENTS, READONLY
 21 .ARM.attributes 00000033  00000000  00000000  0007d6c1  2**0
                  CONTENTS, READONLY
 22 .debug_frame  000025bc  00000000  00000000  0007d6f4  2**2
                  CONTENTS, READONLY, DEBUGGING, OCTETS
 23 .rel.dyn      000000a0  0000b0d0  0000b0d0  0000c0d0  2**2
                  CONTENTS, ALLOC, LOAD, READONLY, DATA
 24 .debug_line_str 000000e0  00000000  00000000  0007fcb0  2**0
                  CONTENTS, READONLY, DEBUGGING, OCTETS
SYMBOL TABLE:
00000000 l    d  .ta_head	00000000 .ta_head
00000020 l    d  .text	00000000 .text
000092f8 l    d  .rodata	00000000 .rodata
0000a5b4 l    d  .gnu.hash	00000000 .gnu.hash
0000a5e0 l    d  .dynsym	00000000 .dynsym
0000a640 l    d  .dynstr	00000000 .dynstr
0000a670 l    d  .hash	00000000 .hash
0000b000 l    d  .dynamic	00000000 .dynamic
0000b088 l    d  .got	00000000 .got
0000b170 l    d  .rel.got	00000000 .rel.got
0000b1e8 l    d  .data	00000000 .data
0000b2b8 l    d  .bss	00000000 .bss
00000000 l    d  .debug_info	00000000 .debug_info
00000000 l    d  .debug_abbrev	00000000 .debug_abbrev
00000000 l    d  .debug_loclists	00000000 .debug_loclists
00000000 l    d  .debug_aranges	00000000 .debug_aranges
00000000 l    d  .debug_rnglists	00000000 .debug_rnglists
00000000 l    d  .debug_macro	00000000 .debug_macro
00000000 l    d  .debug_line	00000000 .debug_line
00000000 l    d  .debug_str	00000000 .debug_str
00000000 l    d  .comment	00000000 .comment
00000000 l    d  .ARM.attributes	00000000 .ARM.attributes
00000000 l    d  .debug_frame	00000000 .debug_frame
0000b0d0 l    d  .rel.dyn	00000000 .rel.dyn
00000000 l    d  .debug_line_str	00000000 .debug_line_str
00000000 l    df *ABS*	00000000 user_ta_header.c
000093ac l     O .rodata	00000004 __compound_literal.4
000093b0 l     O .rodata	00000004 __compound_literal.3
000093b4 l     O .rodata	00000001 __compound_literal.2
000093b5 l     O .rodata	00000001 __compound_literal.1
000093b6 l     O .rodata	00000001 __compound_literal.0
00000000 l    df *ABS*	00000000 remoteproc_core.c
00000020 l     F .text	0000001c remoteproc_find_firmware
0000003c l     F .text	00000120 remoteproc_load_segment
000092f8 l     O .rodata	00000018 __func__.1
00009310 l     O .rodata	00000010 uuid.6
00009320 l     O .rodata	0000001c __func__.4
0000933c l     O .rodata	00000018 rproc_ta_sign_algo
00009354 l     O .rodata	00000016 __func__.3
0000936a l     O .rodata	00000013 __func__.5
0000937d l     O .rodata	00000014 __func__.2
00009391 l     O .rodata	00000014 __func__.0
0000b2b8 l     O .bss	00000004 pta_session
0000b2bc l     O .bss	00000004 session_refcount
0000b1e8 l     O .data	00000008 firmware_head
00000000 l    df *ABS*	00000000 elf_parser.c
00000688 l     F .text	0000003c va_in_fwm_image_range
000098bb l     O .rodata	00000016 __func__.1
000098d1 l     O .rodata	0000000f __func__.2
000098e0 l     O .rodata	0000001a __func__.0
00000000 l    df *ABS*	00000000 ta_entry_a32.o
00000000 l    df *ABS*	00000000 memcpy.c
00000000 l    df *ABS*	00000000 trace.c
000099c3 l     O .rodata	00000005 lvl_strs.0
00000000 l    df *ABS*	00000000 snprintk.c
00000c94 l     F .text	00000684 kprintf.constprop.0
00009a00 l     O .rodata	00000011 hexdigits
00009a11 l     O .rodata	00000011 HEXDIGITS
00000000 l    df *ABS*	00000000 arm32_aeabi_ldivmod_a32.o
00000000 l    df *ABS*	00000000 assert.c
00000000 l    df *ABS*	00000000 trace_ext.c
00000000 l    df *ABS*	00000000 tee_api.c
00001434 l     F .text	00000066 update_out_param
0000150c l     F .text	0000012c copy_param
00009a5a l     O .rodata	0000000b __func__.0
0000b2c0 l     O .bss	00000004 tee_api_instance_data
00000000 l    df *ABS*	00000000 tee_api_operations.c
000018e0 l     F .text	00000158 tee_buffer_update
00000000 l    df *ABS*	00000000 tee_api_panic.c
00003478 l     F .text	00000020 check_access
0000349c l     F .text	0000000a check_res.constprop.0
00000000 l    df *ABS*	00000000 tee_system_pta.c
00003550 l     F .text	00000050 invoke_system_pta
000093c0 l     O .rodata	00000010 uuid.2
000093d0 l     O .rodata	0000000a __func__.1
000093da l     O .rodata	00000017 __func__.0
0000b2c4 l     O .bss	00000004 sess.3
00000000 l    df *ABS*	00000000 utee_syscalls_a32.o
00000000 l    df *ABS*	00000000 user_ta_entry.c
00003b5c l     F .text	0000006a _get_fn_array
00003bc6 l     F .text	00000032 _fini_iterate_phdr_cb
00003bf8 l     F .text	0000001c ta_header_get_session
00003c14 l     F .text	0000005a to_utee_params
00003c6e l     F .text	0000003c from_utee_params
00003caa l     F .text	00000062 _init_iterate_phdr_cb
00003dd4 l     F .text	0000006c ta_header_remove_session
00009ad3 l     O .rodata	00000016 __func__.0
0000b2c8 l     O .bss	00000004 _num_mod_init
0000b2cc l     O .bss	00000001 init_done
0000b248 l     O .data	00000008 ta_sessions
0000b250 l     O .data	00000008 __phdr_info_head
00000000 l    df *ABS*	00000000 abort.c
00000000 l    df *ABS*	00000000 tee_api_arith_mpi.c
00003ff0 l     F .text	00000020 api_panic
00004010 l     F .text	00000020 mpi_panic
00004030 l     F .text	00000050 get_mpi
00004080 l     F .text	00000040 copy_mpi_to_bigint
000040c0 l     F .text	000000a4 bigint_binary
00004164 l     F .text	00000010 mpi_is_odd
00004174 l     F .text	00000016 rng_read
0000418a l     F .text	0000045e mpi_egcd
0000b300 l     O .bss	00003000 data.17
0000481c l     F .text	0000010c bigint_binary_mod
00009ba7 l     O .rodata	00000008 __func__.14
00009baf l     O .rodata	0000000e __func__.10
00009bbd l     O .rodata	00000009 __func__.2
00009bc6 l     O .rodata	00000012 __func__.16
00009bd8 l     O .rodata	0000000f __func__.15
00009be7 l     O .rodata	0000001f __func__.13
00009c06 l     O .rodata	00000019 __func__.12
00009c1f l     O .rodata	00000012 __func__.6
00009c31 l     O .rodata	00000015 __func__.11
00009c46 l     O .rodata	0000000e __func__.9
00009c54 l     O .rodata	0000000e __func__.8
00009c62 l     O .rodata	0000000e __func__.7
00009c70 l     O .rodata	00000011 __func__.5
00009c81 l     O .rodata	00000018 __func__.4
00009c99 l     O .rodata	0000001d __func__.3
00009cb6 l     O .rodata	00000019 __func__.1
00009ccf l     O .rodata	00000015 __func__.0
00000000 l    df *ABS*	00000000 tee_api_objects.c
00000000 l    df *ABS*	00000000 tcb.c
00009d7a l     O .rodata	00000010 __func__.1
00009d8a l     O .rodata	00000010 __func__.0
0000e300 l     O .bss	00000004 _tls_size
0000e304 l     O .bss	00000004 _tcb
00000000 l    df *ABS*	00000000 bignum.c
00005bd8 l     F .text	00000024 mpi_safe_cond_assign
00005bfc l     F .text	0000003a mpi_get_digit
00005c36 l     F .text	00000364 mpi_mul_hlp
00005f9a l     F .text	000000e4 mpi_montmul
0000607e l     F .text	00000022 mpi_montred
000060a0 l     F .text	00000026 mpi_montg_init.isra.0
000060c6 l     F .text	00000052 mpi_bigendian_to_host.part.0
00006118 l     F .text	00000064 mpi_fill_random_internal
0000628c l     F .text	00000036 mbedtls_mpi_resize_clear
000074f4 l     F .text	00000050 mpi_check_small_factors
00007aec l     F .text	00000192 mpi_miller_rabin
000093f4 l     O .rodata	000002a0 small_prime
00009694 l     O .rodata	00000024 gcd_pairs
00000000 l    df *ABS*	00000000 platform_util.c
0000b258 l     O .data	00000004 memset_func
00000000 l    df *ABS*	00000000 bget_malloc.c
000085d8 l     F .text	00000020 raw_malloc_return_hook
00008d02 l     F .text	00000082 gen_malloc_add_pool
0000a4a7 l     O .rodata	00000005 __func__.8
0000a4ac l     O .rodata	00000006 __func__.7
0000a4b2 l     O .rodata	00000005 __func__.5
0000a4b7 l     O .rodata	00000006 __func__.6
0000a4bd l     O .rodata	00000006 __func__.4
0000a4c3 l     O .rodata	00000007 __func__.3
0000a4ca l     O .rodata	00000014 __func__.2
0000a4de l     O .rodata	0000000e __func__.1
0000a4ec l     O .rodata	00000013 __func__.0
0000b25c l     O .data	0000005c malloc_ctx
00000000 l    df *ABS*	00000000 mempool.c
0000a588 l     O .rodata	00000013 __func__.2
0000a59b l     O .rodata	0000000b __func__.1
0000a5a6 l     O .rodata	0000000e __func__.0
00000000 l    df *ABS*	00000000 memset.c
00000000 l    df *ABS*	00000000 strcmp.c
00000000 l    df *ABS*	00000000 memchr.c
00000000 l    df *ABS*	00000000 strlen.c
00000000 l    df *ABS*	00000000 arm32_aeabi_ldivmod.c
000090d8 l     F .text	0000008a ul_div_qr
00000000 l    df *ABS*	00000000 snprintf.c
00000000 l    df *ABS*	00000000 memmove.c
00000000 l    df *ABS*	00000000 consttime_memcmp.c
00000000 l    df *ABS*	00000000 
0000b000 l     O *ABS*	00000000 _DYNAMIC
0000b088 l     O *ABS*	00000000 _GLOBAL_OFFSET_TABLE_
000092b8 l     F .text	00000010 ___utee_cache_operation_from_thumb
000092c8 l     F .text	00000010 ___utee_panic_from_thumb
000092d8 l     F .text	00000010 ___utee_check_access_rights_from_thumb
000092e8 l     F .text	00000010 ___utee_log_from_thumb
00001410 g     F .text	00000022 putchar
00005440 g     F .text	00000078 TEE_PopulateTransientObject
0000508e g     F .text	00000004 TEE_BigIntConvertToFMM
00004d6c g     F .text	00000008 TEE_BigIntSquareMod
00004928 g     F .text	00000110 TEE_BigIntShiftRight
00008e2a g     F .text	00000002 raw_malloc_add_pool
00003624 g     F .text	00000088 tee_invoke_supp_plugin
000061f4 g     F .text	00000098 mbedtls_mpi_grow
0000919c g     F .text	00000072 __l_divmod
00002568 g     F .text	00000030 TEE_DigestUpdate
000018ae g     F .text	00000020 TEE_Realloc
000023c0 g     F .text	000000f4 TEE_SetOperationKey2
0000353e g     F .text	00000012 __utee_check_inout_annotation
00008c6e g     F .text	00000008 raw_free
000013b2 g     F .text	0000003a printf
000054b8 g     F .text	00000022 TEE_InitRefAttribute
000036d4 g     F .text	00000014 _utee_log
000016cc g     F .text	000000b4 TEE_InvokeTACommand
000034a6 g     F .text	0000002e __utee_check_outbuf_annotation
00006188 g     F .text	00000028 mbedtls_mpi_init_mempool
00003970 g     F .text	00000014 _utee_cryp_random_number_generate
00006712 g     F .text	0000006a mbedtls_mpi_write_binary
00002be8 g     F .text	0000011c TEE_AEEncryptFinal
00000828 g     F .text	000001b4 e32_parser_find_rsc_table
0000077c g     F .text	000000ac e32_parser_load_elf_image
00000c6c g     F .text	0000000e vsnprintk
00006ca0 g     F .text	0000002e mbedtls_mpi_sub_int
0000923a g     F .text	00000034 memmove
0000920e g     F .text	0000001e snprintf
000047f6 g     F .text	00000026 TEE_BigIntCmpS32
000054da g     F .text	00000022 TEE_InitValueAttribute
000062c2 g     F .text	000000b6 mbedtls_mpi_shrink
00004a84 g     F .text	0000001c TEE_BigIntAdd
000038d0 g     F .text	00000014 _utee_cryp_obj_restrict_usage
000093b8 g     O .rodata	00000004 ta_heap_size
00005410 g     F .text	00000030 TEE_ResetTransientObject
000039f8 g     F .text	00000018 _utee_asymm_operate
00006e10 g     F .text	0000011c mbedtls_mpi_read_string
0000261c g     F .text	00000074 TEE_CipherInit
000006c4 g     F .text	000000b8 e32_parse_ehdr
00004abc g     F .text	00000074 TEE_BigIntNeg
00003a94 g     F .text	00000014 _utee_storage_free_enum
00000020 g       .text	00000000 __text_start
000057b8 g     F .text	0000002c TEE_StartPersistentObjectEnumerator
00006820 g     F .text	00000078 mbedtls_mpi_shift_r
00008f34 g     F .text	00000054 malloc_buffer_overlaps_heap
00003838 g     F .text	00000014 _utee_hash_init
00004d34 g     F .text	0000001c TEE_BigIntSubMod
000080b8 g     F .text	00000210 mbedtls_mpi_gen_prime
0000653c g     F .text	00000020 mbedtls_mpi_get_bit
00006666 g     F .text	00000042 mbedtls_mpi_read_binary
00002a58 g     F .text	00000070 TEE_AEInit
00000c20 g     F .text	00000018 trace_printf
0000754a g     F .text	00000004 mbedtls_mpi_montmul
00003b48 g     F .text	00000014 _utee_cache_operation
000009e0 g     F .text	000000d8 memcpy
00005092 g     F .text	00000066 TEE_BigIntConvertFromFMM
00003498 g     F .text	00000004 TEE_Panic
00001348 g     F .text	00000018 __aeabi_uldivmod
000024b4 g     F .text	000000b4 TEE_CopyOperation
000013ec g     F .text	00000024 puts
000050f8 g     F .text	000000c0 TEE_BigIntComputeFMM
00008bfc g     F .text	0000001c malloc_get_stats
0000183c g     F .text	00000016 TEE_GetREETime
00008e2c g     F .text	00000018 raw_malloc_get_stats
0000575c g     F .text	00000034 TEE_AllocatePersistentObjectEnumerator
0000b1f4 g     O .data	00000054 ta_props
00002e00 g     F .text	000000c0 TEE_AsymmetricEncrypt
000034d4 g     F .text	00000018 __utee_check_instring_annotation
00008d84 g     F .text	00000014 malloc
00009078 g     F .text	0000000a __ta_entry_c
00005594 g     F .text	00000054 TEE_GenerateKey
0000922c g     F .text	0000000e vsnprintf
0000b1f0 g     O .data	00000004 trace_level
000047c0 g     F .text	00000036 TEE_BigIntCmp
000093a8 g     O .rodata	00000004 ta_num_props
00008a64 g     F .text	00000084 bgetr
00003a28 g     F .text	00000018 _utee_storage_obj_open
0000906c g     F .text	0000000c mempool_free
00002690 g     F .text	000000ec TEE_CipherUpdate
0000384c g     F .text	00000014 _utee_hash_update
000046bc g     F .text	00000058 TEE_BigIntConvertToOctetString
00002210 g     F .text	000000d8 TEE_GetOperationInfoMultiple
000065e0 g     F .text	00000036 mbedtls_mpi_bitlen
00004a38 g     F .text	0000002a TEE_BigIntGetBit
000093bc g     O .rodata	00000003 trace_ext_prefix
00003ad0 g     F .text	00000014 _utee_storage_next_enum
00008c5c g     F .text	00000012 raw_malloc
000087fc g     F .text	00000060 bgetz
0000178c g     F .text	0000000c TEE_GetInstanceData
000017ba g     F .text	0000001e TEE_Wait
00006cce g     F .text	000000e6 mbedtls_mpi_mul_mpi
000018d4 g     F .text	00000006 TEE_CacheFlush
00000ae8 g     F .text	00000138 trace_vprintf
00000160 g     F .text	00000002 TA_DestroyEntryPoint
0000617c g     F .text	0000000c mbedtls_mpi_init
00003a58 g     F .text	00000014 _utee_storage_obj_del
000065ac g     F .text	00000034 mbedtls_mpi_lsb
00001360 g     F .text	00000028 _assert_log
00003810 g     F .text	00000014 _utee_cryp_state_copy
0000508a g     F .text	00000004 TEE_BigIntFMMContextSizeInU32
000035d6 g     F .text	0000004e tee_unmap
000029d4 g     F .text	00000084 TEE_MACCompareFinal
00005722 g     F .text	0000003a TEE_RenamePersistentObject
00002598 g     F .text	00000084 TEE_DigestDoFinal
000045e8 g     F .text	00000044 _TEE_MathAPI_Init
0000599c g     F .text	0000017c __utee_tcb_init
00006be0 g     F .text	00000048 mbedtls_mpi_add_mpi
00003fd8 g     F .text	00000018 abort
00007c7e g     F .text	000000e6 mbedtls_mpi_random
00003518 g     F .text	00000012 __utee_check_out_annotation
0000e30c g     O .bss	00001000 ta_heap
00004d74 g     F .text	000000c0 TEE_BigIntInvMod
00003d0c g     F .text	000000b8 __utee_call_elf_init_fn
000001a4 g     F .text	00000018 TA_CloseSessionEntryPoint
00003740 g     F .text	00000014 _utee_close_ta_session
00002ec0 g     F .text	000000c0 TEE_AsymmetricDecrypt
000055e8 g     F .text	00000074 TEE_OpenPersistentObject
00006c28 g     F .text	0000004a mbedtls_mpi_sub_mpi
0000926e g     F .text	00000048 consttime_memcmp
000036c0 g     F .text	00000014 _utee_return
000036e8 g     F .text	00000014 __utee_panic
00005b18 g     F .text	00000018 __tls_get_addr
000001bc g     F .text	000004cc TA_InvokeCommandEntryPoint
00003dc4 g     F .text	00000010 __utee_call_elf_fini_fn
00008e04 g     F .text	00000010 free_wipe
0000900c g     F .text	0000003c mempool_alloc
000036ac g     F .text	00000014 _utee_panic
00008e18 g     F .text	00000012 raw_malloc_init_ctx
00009048 g     F .text	00000024 mempool_calloc
00003b34 g     F .text	00000014 _utee_cryp_obj_generate_key
00005564 g     F .text	00000030 TEE_CopyObjectAttributes
00003b0c g     F .text	00000014 _utee_storage_obj_trunc
00003794 g     F .text	00000014 _utee_unmask_cancellation
00008d98 g     F .text	00000020 calloc
00001852 g     F .text	00000052 TEE_Malloc
00001502 g     F .text	0000000a TEE_CheckMemoryAccessRights
00009162 g     F .text	0000003a __ul_divmod
000036fc g     F .text	00000018 _utee_get_property
00006504 g     F .text	00000038 mbedtls_mpi_lset
00005854 g     F .text	00000054 TEE_ReadObjectData
00005278 g     F .text	00000078 TEE_GetObjectBufferAttribute
00000162 g     F .text	00000042 TA_OpenSessionEntryPoint
00001a38 g     F .text	00000026 TEE_FreeOperation
00005b30 g     F .text	000000a8 dl_iterate_phdr
0000f310 g       .bss	00000000 __ftrace_buf_end
0000b2fc g     O .bss	00000004 ta_param_types
00007290 g     F .text	0000002e mbedtls_mpi_div_int
000051b8 g     F .text	0000002a __utee_from_attr
0000804a g     F .text	00000064 mbedtls_mpi_is_prime_ext
0000504c g     F .text	00000030 TEE_BigIntIsProbablePrime
00006db4 g     F .text	0000005c mbedtls_mpi_mul_int
000056e8 g     F .text	00000024 TEE_CloseAndDeletePersistentObject1
00007552 g     F .text	00000466 mbedtls_mpi_exp_mod
0000640c g     F .text	00000064 mbedtls_mpi_safe_cond_assign
00006980 g     F .text	000000a2 mbedtls_mpi_lt_mpi_ct
00002d04 g     F .text	000000fc TEE_AEDecryptFinal
0000462c g     F .text	00000038 TEE_BigIntInit
000034ec g     F .text	0000002c __utee_check_outstring_annotation
00001798 g     F .text	00000004 TEE_MemMove
000085c4 g     F .text	00000014 mbedtls_platform_zeroize
00004664 g     F .text	00000058 TEE_BigIntConvertFromOctetString
000039e0 g     F .text	00000018 _utee_authenc_dec_final
00006898 g     F .text	00000062 mbedtls_mpi_cmp_abs
00003ae4 g     F .text	00000014 _utee_storage_obj_read
000028b4 g     F .text	00000056 TEE_MACInit
00002f80 g     F .text	000000bc TEE_AsymmetricSignDigest
000090ac g     F .text	0000001c memchr
000014ca g     F .text	0000001c TEE_UnmaskCancellation
000051e2 g     F .text	0000002a TEE_GetObjectInfo
000082c8 g     F .text	000002fc mbedtls_mpi_self_test
00003b20 g     F .text	00000014 _utee_storage_obj_seek
00002b0e g     F .text	000000da TEE_AEUpdate
000053e0 g     F .text	00000030 TEE_FreeTransientObject
00003780 g     F .text	00000014 _utee_check_access_rights
00006a22 g     F .text	0000002e mbedtls_mpi_cmp_int
00003aa8 g     F .text	00000014 _utee_storage_reset_enum
000031d6 g     F .text	00000018 rand
0000352a g     F .text	00000014 __utee_check_attr_in_annotation
000039b0 g     F .text	00000018 _utee_authenc_update_payload
000021e0 g     F .text	00000030 TEE_GetOperationInfo
00004cc8 g     F .text	00000050 TEE_BigIntMod
00007322 g     F .text	0000006e mbedtls_mpi_mod_int
00006622 g     F .text	00000044 mbedtls_mpi_read_binary_le
00004bda g     F .text	000000ee TEE_BigIntDiv
000038f8 g     F .text	00000014 _utee_cryp_obj_alloc
0000f310 g       .bss	00000000 __ftrace_buf_start
00006378 g     F .text	00000066 mbedtls_mpi_copy
000031ee g     F .text	0000028a TEE_IsAlgorithmSupported
00008be8 g     F .text	00000014 malloc_reset_stats
00001318 g     F .text	00000016 __vsprintf
000037e4 g     F .text	00000014 _utee_set_ta_time
00003754 g     F .text	00000018 _utee_invoke_ta_command
0000522c g     F .text	00000020 TEE_RestrictObjectUsage1
00008db8 g     F .text	0000001c realloc
000063de g     F .text	0000002e mbedtls_mpi_swap
00008f88 g     F .text	00000084 mempool_alloc_pool
00004b30 g     F .text	000000a4 TEE_BigIntMul
000022e8 g     F .text	00000040 TEE_ResetOperation
00008e14 g     F .text	00000004 raw_malloc_get_ctx_size
0000677c g     F .text	000000a4 mbedtls_mpi_shift_l
000068fa g     F .text	00000086 mbedtls_mpi_cmp_mpi
000017a0 g     F .text	00000004 TEE_MemFill
00008e44 g     F .text	00000010 malloc_add_pool
0000290a g     F .text	0000004e TEE_MACUpdate
00000ad4 g     F .text	00000014 trace_get_level
00006a50 g     F .text	000000ae mbedtls_mpi_add_abs
0000524c g     F .text	0000002c TEE_RestrictObjectUsage
00005082 g     F .text	00000008 TEE_BigIntFMMSizeInU32
00008cbe g     F .text	00000044 raw_realloc
0000507c g     F .text	00000004 TEE_BigIntInitFMM
0000538c g     F .text	00000014 TEE_CloseObject
00003878 g     F .text	00000014 _utee_cipher_init
00003e40 g     F .text	00000198 __utee_entry
000092f8 g       .text	00000000 __text_end
00004e34 g     F .text	0000007c TEE_BigIntRelativePrime
000072be g     F .text	00000064 mbedtls_mpi_mod_mpi
000038bc g     F .text	00000014 _utee_cryp_obj_get_info
00008ae8 g     F .text	0000009c bpool
000037f8 g     F .text	00000018 _utee_cryp_state_alloc
000014ae g     F .text	0000001c TEE_GetCancellationFlag
000079b8 g     F .text	00000100 mbedtls_mpi_gcd
00001814 g     F .text	00000028 TEE_SetTAPersistentTime
000066a8 g     F .text	0000006a mbedtls_mpi_write_binary_le
00009086 g     F .text	00000010 memset
00008c18 g     F .text	00000044 raw_memalign
000017d8 g     F .text	0000003c TEE_GetTAPersistentTime
00000c38 g     F .text	00000002 dhex_dump
0000565c g     F .text	0000008c TEE_CreatePersistentObject
000014e6 g     F .text	0000001c TEE_MaskCancellation
00002ac8 g     F .text	00000046 TEE_AEUpdateAAD
000058e8 g     F .text	00000038 TEE_TruncateObjectData
000038e4 g     F .text	00000014 _utee_cryp_obj_get_attr
0000520c g     F .text	00000020 TEE_GetObjectInfo1
000038a4 g     F .text	00000018 _utee_cipher_final
00000ab8 g     F .text	0000001c trace_set_level
000052f0 g     F .text	0000009c TEE_GetObjectValueAttribute
00002328 g     F .text	00000098 TEE_SetOperationKey
00003824 g     F .text	00000014 _utee_cryp_state_free
00009096 g     F .text	00000016 strcmp
00003728 g     F .text	00000018 _utee_open_ta_session
00004764 g     F .text	0000005c TEE_BigIntConvertToS32
00004aa0 g     F .text	0000001c TEE_BigIntSub
00009082 g     F .text	00000004 tahead_get_trace_level
00003abc g     F .text	00000014 _utee_storage_start_enum
00005920 g     F .text	0000007c TEE_SeekObjectData
000035a0 g     F .text	00000036 tee_map_zi
0000754e g     F .text	00000004 mbedtls_mpi_montred
00008dd4 g     F .text	00000020 memalign
0000277c g     F .text	00000138 TEE_CipherDoFinal
00004714 g     F .text	00000050 TEE_BigIntConvertFromS32
00006c72 g     F .text	0000002e mbedtls_mpi_add_int
000039c8 g     F .text	00000018 _utee_authenc_enc_final
00008e54 g     F .text	000000e0 malloc_buffer_is_within_alloced
0000390c g     F .text	00000014 _utee_cryp_obj_close
00005080 g     F .text	00000002 TEE_BigIntInitFMMContext
000037a8 g     F .text	00000014 _utee_mask_cancellation
00003a6c g     F .text	00000014 _utee_storage_obj_rename
000058a8 g     F .text	00000040 TEE_WriteObjectData
000057a4 g     F .text	00000014 TEE_ResetPersistentObjectEnumerator
00004bd4 g     F .text	00000006 TEE_BigIntSquare
00003af8 g     F .text	00000014 _utee_storage_obj_write
0000015c g     F .text	00000004 TA_CreateEntryPoint
000009dc g     F .text	00000004 __ta_entry
0000399c g     F .text	00000014 _utee_authenc_update_aad
00007544 g     F .text	00000006 mbedtls_mpi_montg_init
00000c7a g     F .text	0000001a snprintk
00004a62 g     F .text	00000022 TEE_BigIntGetBitCount
00003948 g     F .text	00000014 _utee_cryp_obj_copy
00004d50 g     F .text	0000001c TEE_BigIntMulMod
00007d64 g     F .text	000002e6 mbedtls_mpi_inv_mod
000030e4 g     F .text	000000e0 TEE_DeriveKey
0000b2dc g     O .bss	00000020 ta_params
00006f2c g     F .text	00000364 mbedtls_mpi_div_mpi
00006616 g     F .text	0000000c mbedtls_mpi_size
000085f8 g     F .text	00000204 bget
000053a0 g     F .text	00000040 TEE_AllocateTransientObject
000037bc g     F .text	00000014 _utee_wait
0000655c g     F .text	00000050 mbedtls_mpi_set_bit
000018a4 g     F .text	0000000a TEE_Free
000080ae g     F .text	0000000a mbedtls_mpi_is_prime
000018da g     F .text	00000006 TEE_CacheInvalidate
00001388 g     F .text	00000010 _assert_break
00004d18 g     F .text	0000001c TEE_BigIntAddMod
000037d0 g     F .text	00000014 _utee_get_time
00001a5e g     F .text	00000782 TEE_AllocateOperation
00003934 g     F .text	00000014 _utee_cryp_obj_populate
000031c4 g     F .text	00000012 TEE_GenerateRandom
0000179c g     F .text	00000004 TEE_MemCompare
0000388c g     F .text	00000018 _utee_cipher_update
00000c3c g     F .text	00000030 __vsnprintf
0000b2d0 g     O .bss	0000000c __elf_phdr_info
00005790 g     F .text	00000014 TEE_FreePersistentObjectEnumerator
00001638 g     F .text	00000094 TEE_OpenTASession
00001398 g     F .text	00000014 trace_ext_puts
000013ac g     F .text	00000006 trace_ext_get_thread_id
0000570c g     F .text	00000016 TEE_CloseAndDeletePersistentObject
0000395c g     F .text	00000014 _utee_cryp_derive_key
000061b0 g     F .text	00000044 mbedtls_mpi_free
00003920 g     F .text	00000014 _utee_cryp_obj_reset
000018ce g     F .text	00000006 TEE_CacheClean
00003714 g     F .text	00000014 _utee_get_property_name_to_index
00008c76 g     F .text	00000048 raw_calloc
00006470 g     F .text	00000094 mbedtls_mpi_safe_cond_swap
00003984 g     F .text	00000018 _utee_authenc_init
000054fc g     F .text	00000068 TEE_CopyObjectAttributes1
000090c8 g     F .text	00000010 strlen
00004eb0 g     F .text	0000019c TEE_BigIntComputeExtendedGcd
00003a80 g     F .text	00000014 _utee_storage_alloc_enum
000017a4 g     F .text	00000016 TEE_GetSystemTime
00003a10 g     F .text	00000018 _utee_asymm_verify
00000000 g     O .ta_head	00000020 ta_head
0000885c g     F .text	00000208 brel
00006afe g     F .text	000000e2 mbedtls_mpi_sub_abs
00007ab8 g     F .text	00000034 mbedtls_mpi_fill_random
00001780 g     F .text	0000000c TEE_SetInstanceData
0000376c g     F .text	00000014 _utee_get_cancellation_flag
00001330 g     F .text	00000018 __aeabi_ldivmod
00007390 g     F .text	00000164 mbedtls_mpi_write_string
000057e4 g     F .text	00000070 TEE_GetNextPersistentObject
0000149a g     F .text	00000014 TEE_CloseTASession
0000303c g     F .text	000000a8 TEE_AsymmetricVerifyDigest
00003a40 g     F .text	00000018 _utee_storage_obj_create
00008df4 g     F .text	00000010 free
00008b84 g     F .text	00000064 bstats
00002958 g     F .text	0000007c TEE_MACComputeFinal
0000e308 g     O .bss	00000004 mbedtls_mpi_mempool
00003860 g     F .text	00000018 _utee_hash_final



Disassembly of section .text:

00000020 <remoteproc_find_firmware>:
remoteproc_find_firmware():
/home/aom1/Work/Linux/target/STM32MP1-DK2/bootloader/optee-os-custom/ta/remoteproc/remoteproc_core.c:157
      20:	4a05      	ldr	r2, [pc, #20]	; (38 <remoteproc_find_firmware+0x18>)
/home/aom1/Work/Linux/target/STM32MP1-DK2/bootloader/optee-os-custom/ta/remoteproc/remoteproc_core.c:154
      22:	4603      	mov	r3, r0
/home/aom1/Work/Linux/target/STM32MP1-DK2/bootloader/optee-os-custom/ta/remoteproc/remoteproc_core.c:157
      24:	447a      	add	r2, pc
      26:	6810      	ldr	r0, [r2, #0]
/home/aom1/Work/Linux/target/STM32MP1-DK2/bootloader/optee-os-custom/ta/remoteproc/remoteproc_core.c:157 (discriminator 1)
      28:	b900      	cbnz	r0, 2c <remoteproc_find_firmware+0xc>
/home/aom1/Work/Linux/target/STM32MP1-DK2/bootloader/optee-os-custom/ta/remoteproc/remoteproc_core.c:163
      2a:	4770      	bx	lr
/home/aom1/Work/Linux/target/STM32MP1-DK2/bootloader/optee-os-custom/ta/remoteproc/remoteproc_core.c:158
      2c:	6802      	ldr	r2, [r0, #0]
      2e:	429a      	cmp	r2, r3
      30:	d0fb      	beq.n	2a <remoteproc_find_firmware+0xa>
/home/aom1/Work/Linux/target/STM32MP1-DK2/bootloader/optee-os-custom/ta/remoteproc/remoteproc_core.c:157 (discriminator 2)
      32:	6a40      	ldr	r0, [r0, #36]	; 0x24
      34:	e7f8      	b.n	28 <remoteproc_find_firmware+0x8>
      36:	bf00      	nop
      38:	0000b1c0 	.word	0x0000b1c0

0000003c <remoteproc_load_segment>:
remoteproc_load_segment():
/home/aom1/Work/Linux/target/STM32MP1-DK2/bootloader/optee-os-custom/ta/remoteproc/remoteproc_core.c:500
      3c:	e92d 4ff0 	stmdb	sp!, {r4, r5, r6, r7, r8, r9, sl, fp, lr}
      40:	b08b      	sub	sp, #44	; 0x2c
/home/aom1/Work/Linux/target/STM32MP1-DK2/bootloader/optee-os-custom/ta/remoteproc/remoteproc_core.c:506
      42:	f10d 0908 	add.w	r9, sp, #8
/home/aom1/Work/Linux/target/STM32MP1-DK2/bootloader/optee-os-custom/ta/remoteproc/remoteproc_core.c:500
      46:	4682      	mov	sl, r0
      48:	f8dd b050 	ldr.w	fp, [sp, #80]	; 0x50
      4c:	460f      	mov	r7, r1
      4e:	4616      	mov	r6, r2
/home/aom1/Work/Linux/target/STM32MP1-DK2/bootloader/optee-os-custom/ta/remoteproc/remoteproc_core.c:506
      50:	2100      	movs	r1, #0
      52:	2220      	movs	r2, #32
      54:	4648      	mov	r0, r9
/home/aom1/Work/Linux/target/STM32MP1-DK2/bootloader/optee-os-custom/ta/remoteproc/remoteproc_core.c:500
      56:	461d      	mov	r5, r3
/home/aom1/Work/Linux/target/STM32MP1-DK2/bootloader/optee-os-custom/ta/remoteproc/remoteproc_core.c:506
      58:	f009 f815 	bl	9086 <memset>
get_segment_hash():
/home/aom1/Work/Linux/target/STM32MP1-DK2/bootloader/optee-os-custom/ta/remoteproc/remoteproc_core.c:464
      5c:	f8db 3004 	ldr.w	r3, [fp, #4]
/home/aom1/Work/Linux/target/STM32MP1-DK2/bootloader/optee-os-custom/ta/remoteproc/remoteproc_core.c:469
      60:	69dc      	ldr	r4, [r3, #28]
      62:	441c      	add	r4, r3
/home/aom1/Work/Linux/target/STM32MP1-DK2/bootloader/optee-os-custom/ta/remoteproc/remoteproc_core.c:467
      64:	699b      	ldr	r3, [r3, #24]
      66:	f023 033f 	bic.w	r3, r3, #63	; 0x3f
      6a:	4423      	add	r3, r4
/home/aom1/Work/Linux/target/STM32MP1-DK2/bootloader/optee-os-custom/ta/remoteproc/remoteproc_core.c:471
      6c:	429c      	cmp	r4, r3
      6e:	d104      	bne.n	7a <remoteproc_load_segment+0x3e>
      70:	4c33      	ldr	r4, [pc, #204]	; (140 <remoteproc_load_segment+0x104>)
remoteproc_load_segment():
/home/aom1/Work/Linux/target/STM32MP1-DK2/bootloader/optee-os-custom/ta/remoteproc/remoteproc_core.c:555
      72:	4620      	mov	r0, r4
      74:	b00b      	add	sp, #44	; 0x2c
      76:	e8bd 8ff0 	ldmia.w	sp!, {r4, r5, r6, r7, r8, r9, sl, fp, pc}
get_segment_hash():
/home/aom1/Work/Linux/target/STM32MP1-DK2/bootloader/optee-os-custom/ta/remoteproc/remoteproc_core.c:472
      7a:	68e2      	ldr	r2, [r4, #12]
      7c:	4296      	cmp	r6, r2
      7e:	d001      	beq.n	84 <remoteproc_load_segment+0x48>
/home/aom1/Work/Linux/target/STM32MP1-DK2/bootloader/optee-os-custom/ta/remoteproc/remoteproc_core.c:471
      80:	3440      	adds	r4, #64	; 0x40
      82:	e7f3      	b.n	6c <remoteproc_load_segment+0x30>
/home/aom1/Work/Linux/target/STM32MP1-DK2/bootloader/optee-os-custom/ta/remoteproc/remoteproc_core.c:480
      84:	f8d4 8000 	ldr.w	r8, [r4]
      88:	f1b8 0f01 	cmp.w	r8, #1
      8c:	d156      	bne.n	13c <remoteproc_load_segment+0x100>
/home/aom1/Work/Linux/target/STM32MP1-DK2/bootloader/optee-os-custom/ta/remoteproc/remoteproc_core.c:483
      8e:	6923      	ldr	r3, [r4, #16]
      90:	429f      	cmp	r7, r3
      92:	d153      	bne.n	13c <remoteproc_load_segment+0x100>
      94:	6963      	ldr	r3, [r4, #20]
      96:	429d      	cmp	r5, r3
      98:	d150      	bne.n	13c <remoteproc_load_segment+0x100>
/home/aom1/Work/Linux/target/STM32MP1-DK2/bootloader/optee-os-custom/ta/remoteproc/remoteproc_core.c:486
      9a:	f8db 3008 	ldr.w	r3, [fp, #8]
      9e:	6862      	ldr	r2, [r4, #4]
      a0:	ebaa 0303 	sub.w	r3, sl, r3
      a4:	4293      	cmp	r3, r2
      a6:	d149      	bne.n	13c <remoteproc_load_segment+0x100>
remoteproc_load_segment():
/home/aom1/Work/Linux/target/STM32MP1-DK2/bootloader/optee-os-custom/ta/remoteproc/remoteproc_core.c:522
      a8:	f8db 3000 	ldr.w	r3, [fp]
get_segment_hash():
/home/aom1/Work/Linux/target/STM32MP1-DK2/bootloader/optee-os-custom/ta/remoteproc/remoteproc_core.c:489
      ac:	3420      	adds	r4, #32
remoteproc_load_segment():
/home/aom1/Work/Linux/target/STM32MP1-DK2/bootloader/optee-os-custom/ta/remoteproc/remoteproc_core.c:524
      ae:	e9cd a704 	strd	sl, r7, [sp, #16]
/home/aom1/Work/Linux/target/STM32MP1-DK2/bootloader/optee-os-custom/ta/remoteproc/remoteproc_core.c:529
      b2:	f8df a094 	ldr.w	sl, [pc, #148]	; 148 <remoteproc_load_segment+0x10c>
      b6:	2203      	movs	r2, #3
/home/aom1/Work/Linux/target/STM32MP1-DK2/bootloader/optee-os-custom/ta/remoteproc/remoteproc_core.c:522
      b8:	9302      	str	r3, [sp, #8]
/home/aom1/Work/Linux/target/STM32MP1-DK2/bootloader/optee-os-custom/ta/remoteproc/remoteproc_core.c:527
      ba:	2320      	movs	r3, #32
/home/aom1/Work/Linux/target/STM32MP1-DK2/bootloader/optee-os-custom/ta/remoteproc/remoteproc_core.c:529
      bc:	44fa      	add	sl, pc
      be:	f04f 31ff 	mov.w	r1, #4294967295	; 0xffffffff
/home/aom1/Work/Linux/target/STM32MP1-DK2/bootloader/optee-os-custom/ta/remoteproc/remoteproc_core.c:527
      c2:	9309      	str	r3, [sp, #36]	; 0x24
/home/aom1/Work/Linux/target/STM32MP1-DK2/bootloader/optee-os-custom/ta/remoteproc/remoteproc_core.c:529
      c4:	2300      	movs	r3, #0
      c6:	9301      	str	r3, [sp, #4]
      c8:	f245 1351 	movw	r3, #20817	; 0x5151
      cc:	f8cd 9000 	str.w	r9, [sp]
      d0:	f8da 0000 	ldr.w	r0, [sl]
/home/aom1/Work/Linux/target/STM32MP1-DK2/bootloader/optee-os-custom/ta/remoteproc/remoteproc_core.c:526
      d4:	9408      	str	r4, [sp, #32]
/home/aom1/Work/Linux/target/STM32MP1-DK2/bootloader/optee-os-custom/ta/remoteproc/remoteproc_core.c:525
      d6:	9606      	str	r6, [sp, #24]
/home/aom1/Work/Linux/target/STM32MP1-DK2/bootloader/optee-os-custom/ta/remoteproc/remoteproc_core.c:529
      d8:	f001 faf8 	bl	16cc <TEE_InvokeTACommand>
/home/aom1/Work/Linux/target/STM32MP1-DK2/bootloader/optee-os-custom/ta/remoteproc/remoteproc_core.c:532
      dc:	4604      	mov	r4, r0
      de:	b160      	cbz	r0, fa <remoteproc_load_segment+0xbe>
/home/aom1/Work/Linux/target/STM32MP1-DK2/bootloader/optee-os-custom/ta/remoteproc/remoteproc_core.c:533
      e0:	4b1a      	ldr	r3, [pc, #104]	; (14c <remoteproc_load_segment+0x110>)
      e2:	4642      	mov	r2, r8
      e4:	9001      	str	r0, [sp, #4]
      e6:	f240 2115 	movw	r1, #533	; 0x215
      ea:	4819      	ldr	r0, [pc, #100]	; (150 <remoteproc_load_segment+0x114>)
      ec:	447b      	add	r3, pc
      ee:	9300      	str	r3, [sp, #0]
      f0:	4643      	mov	r3, r8
      f2:	4478      	add	r0, pc
/home/aom1/Work/Linux/target/STM32MP1-DK2/bootloader/optee-os-custom/ta/remoteproc/remoteproc_core.c:551
      f4:	f000 fd94 	bl	c20 <trace_printf>
      f8:	e7bb      	b.n	72 <remoteproc_load_segment+0x36>
/home/aom1/Work/Linux/target/STM32MP1-DK2/bootloader/optee-os-custom/ta/remoteproc/remoteproc_core.c:538
      fa:	42af      	cmp	r7, r5
      fc:	d2b9      	bcs.n	72 <remoteproc_load_segment+0x36>
/home/aom1/Work/Linux/target/STM32MP1-DK2/bootloader/optee-os-custom/ta/remoteproc/remoteproc_core.c:545
      fe:	9008      	str	r0, [sp, #32]
/home/aom1/Work/Linux/target/STM32MP1-DK2/bootloader/optee-os-custom/ta/remoteproc/remoteproc_core.c:547
     100:	f241 1311 	movw	r3, #4369	; 0x1111
     104:	9001      	str	r0, [sp, #4]
     106:	2204      	movs	r2, #4
     108:	f8cd 9000 	str.w	r9, [sp]
     10c:	f04f 31ff 	mov.w	r1, #4294967295	; 0xffffffff
/home/aom1/Work/Linux/target/STM32MP1-DK2/bootloader/optee-os-custom/ta/remoteproc/remoteproc_core.c:543
     110:	443e      	add	r6, r7
/home/aom1/Work/Linux/target/STM32MP1-DK2/bootloader/optee-os-custom/ta/remoteproc/remoteproc_core.c:544
     112:	1bed      	subs	r5, r5, r7
/home/aom1/Work/Linux/target/STM32MP1-DK2/bootloader/optee-os-custom/ta/remoteproc/remoteproc_core.c:547
     114:	f8da 0000 	ldr.w	r0, [sl]
/home/aom1/Work/Linux/target/STM32MP1-DK2/bootloader/optee-os-custom/ta/remoteproc/remoteproc_core.c:543
     118:	9604      	str	r6, [sp, #16]
/home/aom1/Work/Linux/target/STM32MP1-DK2/bootloader/optee-os-custom/ta/remoteproc/remoteproc_core.c:544
     11a:	9506      	str	r5, [sp, #24]
/home/aom1/Work/Linux/target/STM32MP1-DK2/bootloader/optee-os-custom/ta/remoteproc/remoteproc_core.c:547
     11c:	f001 fad6 	bl	16cc <TEE_InvokeTACommand>
/home/aom1/Work/Linux/target/STM32MP1-DK2/bootloader/optee-os-custom/ta/remoteproc/remoteproc_core.c:550
     120:	4604      	mov	r4, r0
     122:	2800      	cmp	r0, #0
     124:	d0a5      	beq.n	72 <remoteproc_load_segment+0x36>
/home/aom1/Work/Linux/target/STM32MP1-DK2/bootloader/optee-os-custom/ta/remoteproc/remoteproc_core.c:551
     126:	4b0b      	ldr	r3, [pc, #44]	; (154 <remoteproc_load_segment+0x118>)
     128:	4642      	mov	r2, r8
     12a:	9001      	str	r0, [sp, #4]
     12c:	f240 2127 	movw	r1, #551	; 0x227
     130:	4809      	ldr	r0, [pc, #36]	; (158 <remoteproc_load_segment+0x11c>)
     132:	447b      	add	r3, pc
     134:	9300      	str	r3, [sp, #0]
     136:	4643      	mov	r3, r8
     138:	4478      	add	r0, pc
     13a:	e7db      	b.n	f4 <remoteproc_load_segment+0xb8>
get_segment_hash():
/home/aom1/Work/Linux/target/STM32MP1-DK2/bootloader/optee-os-custom/ta/remoteproc/remoteproc_core.c:481
     13c:	4c01      	ldr	r4, [pc, #4]	; (144 <remoteproc_load_segment+0x108>)
     13e:	e798      	b.n	72 <remoteproc_load_segment+0x36>
     140:	ffff000b 	.word	0xffff000b
     144:	f0100001 	.word	0xf0100001
     148:	0000b1f8 	.word	0x0000b1f8
     14c:	000095c8 	.word	0x000095c8
     150:	00009202 	.word	0x00009202
     154:	000095a4 	.word	0x000095a4
     158:	000091bc 	.word	0x000091bc

0000015c <TA_CreateEntryPoint>:
TA_CreateEntryPoint():
/home/aom1/Work/Linux/target/STM32MP1-DK2/bootloader/optee-os-custom/ta/remoteproc/remoteproc_core.c:730
     15c:	2000      	movs	r0, #0
     15e:	4770      	bx	lr

00000160 <TA_DestroyEntryPoint>:
TA_DestroyEntryPoint():
/home/aom1/Work/Linux/target/STM32MP1-DK2/bootloader/optee-os-custom/ta/remoteproc/remoteproc_core.c:734
     160:	4770      	bx	lr

00000162 <TA_OpenSessionEntryPoint>:
TA_OpenSessionEntryPoint():
/home/aom1/Work/Linux/target/STM32MP1-DK2/bootloader/optee-os-custom/ta/remoteproc/remoteproc_core.c:739
     162:	b507      	push	{r0, r1, r2, lr}
/home/aom1/Work/Linux/target/STM32MP1-DK2/bootloader/optee-os-custom/ta/remoteproc/remoteproc_core.c:743
     164:	4a0c      	ldr	r2, [pc, #48]	; (198 <TA_OpenSessionEntryPoint+0x36>)
     166:	447a      	add	r2, pc
     168:	6853      	ldr	r3, [r2, #4]
     16a:	b143      	cbz	r3, 17e <TA_OpenSessionEntryPoint+0x1c>
/home/aom1/Work/Linux/target/STM32MP1-DK2/bootloader/optee-os-custom/ta/remoteproc/remoteproc_core.c:750
     16c:	4a0b      	ldr	r2, [pc, #44]	; (19c <TA_OpenSessionEntryPoint+0x3a>)
/home/aom1/Work/Linux/target/STM32MP1-DK2/bootloader/optee-os-custom/ta/remoteproc/remoteproc_core.c:752
     16e:	2000      	movs	r0, #0
/home/aom1/Work/Linux/target/STM32MP1-DK2/bootloader/optee-os-custom/ta/remoteproc/remoteproc_core.c:750
     170:	447a      	add	r2, pc
     172:	6853      	ldr	r3, [r2, #4]
     174:	3301      	adds	r3, #1
     176:	6053      	str	r3, [r2, #4]
/home/aom1/Work/Linux/target/STM32MP1-DK2/bootloader/optee-os-custom/ta/remoteproc/remoteproc_core.c:753
     178:	b003      	add	sp, #12
     17a:	f85d fb04 	ldr.w	pc, [sp], #4
/home/aom1/Work/Linux/target/STM32MP1-DK2/bootloader/optee-os-custom/ta/remoteproc/remoteproc_core.c:744
     17e:	4808      	ldr	r0, [pc, #32]	; (1a0 <TA_OpenSessionEntryPoint+0x3e>)
     180:	f04f 31ff 	mov.w	r1, #4294967295	; 0xffffffff
     184:	e9cd 2300 	strd	r2, r3, [sp]
     188:	4478      	add	r0, pc
     18a:	461a      	mov	r2, r3
     18c:	3018      	adds	r0, #24
     18e:	f001 fa53 	bl	1638 <TEE_OpenTASession>
/home/aom1/Work/Linux/target/STM32MP1-DK2/bootloader/optee-os-custom/ta/remoteproc/remoteproc_core.c:746
     192:	2800      	cmp	r0, #0
     194:	d0ea      	beq.n	16c <TA_OpenSessionEntryPoint+0xa>
     196:	e7ef      	b.n	178 <TA_OpenSessionEntryPoint+0x16>
     198:	0000b14e 	.word	0x0000b14e
     19c:	0000b144 	.word	0x0000b144
     1a0:	0000916c 	.word	0x0000916c

000001a4 <TA_CloseSessionEntryPoint>:
TA_CloseSessionEntryPoint():
/home/aom1/Work/Linux/target/STM32MP1-DK2/bootloader/optee-os-custom/ta/remoteproc/remoteproc_core.c:757
     1a4:	4a04      	ldr	r2, [pc, #16]	; (1b8 <TA_CloseSessionEntryPoint+0x14>)
     1a6:	447a      	add	r2, pc
     1a8:	6853      	ldr	r3, [r2, #4]
     1aa:	3b01      	subs	r3, #1
     1ac:	6053      	str	r3, [r2, #4]
/home/aom1/Work/Linux/target/STM32MP1-DK2/bootloader/optee-os-custom/ta/remoteproc/remoteproc_core.c:759
     1ae:	b913      	cbnz	r3, 1b6 <TA_CloseSessionEntryPoint+0x12>
/home/aom1/Work/Linux/target/STM32MP1-DK2/bootloader/optee-os-custom/ta/remoteproc/remoteproc_core.c:760
     1b0:	6810      	ldr	r0, [r2, #0]
     1b2:	f001 b972 	b.w	149a <TEE_CloseTASession>
/home/aom1/Work/Linux/target/STM32MP1-DK2/bootloader/optee-os-custom/ta/remoteproc/remoteproc_core.c:761
     1b6:	4770      	bx	lr
     1b8:	0000b10e 	.word	0x0000b10e

000001bc <TA_InvokeCommandEntryPoint>:
TA_InvokeCommandEntryPoint():
/home/aom1/Work/Linux/target/STM32MP1-DK2/bootloader/optee-os-custom/ta/remoteproc/remoteproc_core.c:767
     1bc:	3901      	subs	r1, #1
/home/aom1/Work/Linux/target/STM32MP1-DK2/bootloader/optee-os-custom/ta/remoteproc/remoteproc_core.c:766
     1be:	e92d 4ff0 	stmdb	sp!, {r4, r5, r6, r7, r8, r9, sl, fp, lr}
     1c2:	4615      	mov	r5, r2
     1c4:	b091      	sub	sp, #68	; 0x44
     1c6:	461e      	mov	r6, r3
/home/aom1/Work/Linux/target/STM32MP1-DK2/bootloader/optee-os-custom/ta/remoteproc/remoteproc_core.c:767
     1c8:	2904      	cmp	r1, #4
     1ca:	d809      	bhi.n	1e0 <TA_InvokeCommandEntryPoint+0x24>
     1cc:	e8df f011 	tbh	[pc, r1, lsl #1]
     1d0:	01df0005 	.word	0x01df0005
     1d4:	02260204 	.word	0x02260204
     1d8:	023d      	.short	0x023d
remoteproc_load_fw():
/home/aom1/Work/Linux/target/STM32MP1-DK2/bootloader/optee-os-custom/ta/remoteproc/remoteproc_core.c:579
     1da:	6834      	ldr	r4, [r6, #0]
/home/aom1/Work/Linux/target/STM32MP1-DK2/bootloader/optee-os-custom/ta/remoteproc/remoteproc_core.c:582
     1dc:	2a51      	cmp	r2, #81	; 0x51
     1de:	d004      	beq.n	1ea <TA_InvokeCommandEntryPoint+0x2e>
/home/aom1/Work/Linux/target/STM32MP1-DK2/bootloader/optee-os-custom/ta/remoteproc/remoteproc_core.c:583
     1e0:	4ca9      	ldr	r4, [pc, #676]	; (488 <TA_InvokeCommandEntryPoint+0x2cc>)
TA_InvokeCommandEntryPoint():
/home/aom1/Work/Linux/target/STM32MP1-DK2/bootloader/optee-os-custom/ta/remoteproc/remoteproc_core.c:781
     1e2:	4620      	mov	r0, r4
     1e4:	b011      	add	sp, #68	; 0x44
     1e6:	e8bd 8ff0 	ldmia.w	sp!, {r4, r5, r6, r7, r8, r9, sl, fp, pc}
remoteproc_load_fw():
/home/aom1/Work/Linux/target/STM32MP1-DK2/bootloader/optee-os-custom/ta/remoteproc/remoteproc_core.c:585
     1ea:	4620      	mov	r0, r4
     1ec:	f7ff ff18 	bl	20 <remoteproc_find_firmware>
/home/aom1/Work/Linux/target/STM32MP1-DK2/bootloader/optee-os-custom/ta/remoteproc/remoteproc_core.c:586
     1f0:	4605      	mov	r5, r0
     1f2:	b990      	cbnz	r0, 21a <TA_InvokeCommandEntryPoint+0x5e>
remoteproc_add_firmware():
/home/aom1/Work/Linux/target/STM32MP1-DK2/bootloader/optee-os-custom/ta/remoteproc/remoteproc_core.c:169
     1f4:	4601      	mov	r1, r0
     1f6:	202c      	movs	r0, #44	; 0x2c
     1f8:	f001 fb2b 	bl	1852 <TEE_Malloc>
/home/aom1/Work/Linux/target/STM32MP1-DK2/bootloader/optee-os-custom/ta/remoteproc/remoteproc_core.c:170
     1fc:	4605      	mov	r5, r0
     1fe:	2800      	cmp	r0, #0
     200:	f000 8225 	beq.w	64e <TA_InvokeCommandEntryPoint+0x492>
/home/aom1/Work/Linux/target/STM32MP1-DK2/bootloader/optee-os-custom/ta/remoteproc/remoteproc_core.c:173
     204:	6004      	str	r4, [r0, #0]
/home/aom1/Work/Linux/target/STM32MP1-DK2/bootloader/optee-os-custom/ta/remoteproc/remoteproc_core.c:175
     206:	2300      	movs	r3, #0
     208:	6243      	str	r3, [r0, #36]	; 0x24
     20a:	4ba6      	ldr	r3, [pc, #664]	; (4a4 <TA_InvokeCommandEntryPoint+0x2e8>)
     20c:	447b      	add	r3, pc
     20e:	685a      	ldr	r2, [r3, #4]
     210:	6282      	str	r2, [r0, #40]	; 0x28
     212:	6010      	str	r0, [r2, #0]
     214:	f100 0224 	add.w	r2, r0, #36	; 0x24
     218:	605a      	str	r2, [r3, #4]
remoteproc_load_fw():
/home/aom1/Work/Linux/target/STM32MP1-DK2/bootloader/optee-os-custom/ta/remoteproc/remoteproc_core.c:591
     21a:	69ac      	ldr	r4, [r5, #24]
     21c:	2c00      	cmp	r4, #0
     21e:	f040 820a 	bne.w	636 <TA_InvokeCommandEntryPoint+0x47a>
/home/aom1/Work/Linux/target/STM32MP1-DK2/bootloader/optee-os-custom/ta/remoteproc/remoteproc_core.c:594
     222:	68b7      	ldr	r7, [r6, #8]
     224:	2f00      	cmp	r7, #0
     226:	d0db      	beq.n	1e0 <TA_InvokeCommandEntryPoint+0x24>
     228:	68f6      	ldr	r6, [r6, #12]
     22a:	2e00      	cmp	r6, #0
     22c:	d0d8      	beq.n	1e0 <TA_InvokeCommandEntryPoint+0x24>
get_rproc_pta_capabilities():
/home/aom1/Work/Linux/target/STM32MP1-DK2/bootloader/optee-os-custom/ta/remoteproc/remoteproc_core.c:347
     22e:	ab09      	add	r3, sp, #36	; 0x24
     230:	4621      	mov	r1, r4
     232:	9304      	str	r3, [sp, #16]
     234:	221c      	movs	r2, #28
     236:	4618      	mov	r0, r3
     238:	f008 ff25 	bl	9086 <memset>
/home/aom1/Work/Linux/target/STM32MP1-DK2/bootloader/optee-os-custom/ta/remoteproc/remoteproc_core.c:352
     23c:	489a      	ldr	r0, [pc, #616]	; (4a8 <TA_InvokeCommandEntryPoint+0x2ec>)
     23e:	2201      	movs	r2, #1
/home/aom1/Work/Linux/target/STM32MP1-DK2/bootloader/optee-os-custom/ta/remoteproc/remoteproc_core.c:350
     240:	682b      	ldr	r3, [r5, #0]
/home/aom1/Work/Linux/target/STM32MP1-DK2/bootloader/optee-os-custom/ta/remoteproc/remoteproc_core.c:352
     242:	f04f 31ff 	mov.w	r1, #4294967295	; 0xffffffff
     246:	4478      	add	r0, pc
/home/aom1/Work/Linux/target/STM32MP1-DK2/bootloader/optee-os-custom/ta/remoteproc/remoteproc_core.c:350
     248:	9308      	str	r3, [sp, #32]
/home/aom1/Work/Linux/target/STM32MP1-DK2/bootloader/optee-os-custom/ta/remoteproc/remoteproc_core.c:352
     24a:	ab08      	add	r3, sp, #32
     24c:	9401      	str	r4, [sp, #4]
     24e:	9300      	str	r3, [sp, #0]
     250:	9303      	str	r3, [sp, #12]
     252:	f240 2321 	movw	r3, #545	; 0x221
     256:	6800      	ldr	r0, [r0, #0]
     258:	f001 fa38 	bl	16cc <TEE_InvokeTACommand>
/home/aom1/Work/Linux/target/STM32MP1-DK2/bootloader/optee-os-custom/ta/remoteproc/remoteproc_core.c:355
     25c:	4604      	mov	r4, r0
     25e:	2800      	cmp	r0, #0
     260:	d17e      	bne.n	360 <TA_InvokeCommandEntryPoint+0x1a4>
/home/aom1/Work/Linux/target/STM32MP1-DK2/bootloader/optee-os-custom/ta/remoteproc/remoteproc_core.c:359
     262:	9a0c      	ldr	r2, [sp, #48]	; 0x30
/home/aom1/Work/Linux/target/STM32MP1-DK2/bootloader/optee-os-custom/ta/remoteproc/remoteproc_core.c:358
     264:	9b0a      	ldr	r3, [sp, #40]	; 0x28
/home/aom1/Work/Linux/target/STM32MP1-DK2/bootloader/optee-os-custom/ta/remoteproc/remoteproc_core.c:359
     266:	622a      	str	r2, [r5, #32]
remoteproc_verify_firmware():
/home/aom1/Work/Linux/target/STM32MP1-DK2/bootloader/optee-os-custom/ta/remoteproc/remoteproc_core.c:376
     268:	0792      	lsls	r2, r2, #30
get_rproc_pta_capabilities():
/home/aom1/Work/Linux/target/STM32MP1-DK2/bootloader/optee-os-custom/ta/remoteproc/remoteproc_core.c:358
     26a:	61eb      	str	r3, [r5, #28]
remoteproc_verify_firmware():
/home/aom1/Work/Linux/target/STM32MP1-DK2/bootloader/optee-os-custom/ta/remoteproc/remoteproc_core.c:376
     26c:	f140 8106 	bpl.w	47c <TA_InvokeCommandEntryPoint+0x2c0>
     270:	2b02      	cmp	r3, #2
     272:	f040 8103 	bne.w	47c <TA_InvokeCommandEntryPoint+0x2c0>
remoteproc_save_fw_header():
/home/aom1/Work/Linux/target/STM32MP1-DK2/bootloader/optee-os-custom/ta/remoteproc/remoteproc_core.c:240
     276:	2e38      	cmp	r6, #56	; 0x38
     278:	f240 8102 	bls.w	480 <TA_InvokeCommandEntryPoint+0x2c4>
     27c:	68b8      	ldr	r0, [r7, #8]
     27e:	4286      	cmp	r6, r0
     280:	f240 80fe 	bls.w	480 <TA_InvokeCommandEntryPoint+0x2c4>
/home/aom1/Work/Linux/target/STM32MP1-DK2/bootloader/optee-os-custom/ta/remoteproc/remoteproc_core.c:243
     284:	4621      	mov	r1, r4
     286:	f001 fae4 	bl	1852 <TEE_Malloc>
     28a:	6068      	str	r0, [r5, #4]
/home/aom1/Work/Linux/target/STM32MP1-DK2/bootloader/optee-os-custom/ta/remoteproc/remoteproc_core.c:244
     28c:	2800      	cmp	r0, #0
     28e:	f000 80f9 	beq.w	484 <TA_InvokeCommandEntryPoint+0x2c8>
/home/aom1/Work/Linux/target/STM32MP1-DK2/bootloader/optee-os-custom/ta/remoteproc/remoteproc_core.c:247
     292:	68ba      	ldr	r2, [r7, #8]
     294:	4639      	mov	r1, r7
     296:	f000 fba3 	bl	9e0 <memcpy>
remoteproc_verify_header():
/home/aom1/Work/Linux/target/STM32MP1-DK2/bootloader/optee-os-custom/ta/remoteproc/remoteproc_core.c:300
     29a:	686e      	ldr	r6, [r5, #4]
/home/aom1/Work/Linux/target/STM32MP1-DK2/bootloader/optee-os-custom/ta/remoteproc/remoteproc_core.c:305
     29c:	4b7b      	ldr	r3, [pc, #492]	; (48c <TA_InvokeCommandEntryPoint+0x2d0>)
     29e:	6832      	ldr	r2, [r6, #0]
     2a0:	429a      	cmp	r2, r3
     2a2:	d10c      	bne.n	2be <TA_InvokeCommandEntryPoint+0x102>
/home/aom1/Work/Linux/target/STM32MP1-DK2/bootloader/optee-os-custom/ta/remoteproc/remoteproc_core.c:308
     2a4:	f8d6 a004 	ldr.w	sl, [r6, #4]
     2a8:	f1ba 0f01 	cmp.w	sl, #1
     2ac:	d107      	bne.n	2be <TA_InvokeCommandEntryPoint+0x102>
/home/aom1/Work/Linux/target/STM32MP1-DK2/bootloader/optee-os-custom/ta/remoteproc/remoteproc_core.c:316
     2ae:	f8d6 c00c 	ldr.w	ip, [r6, #12]
/home/aom1/Work/Linux/target/STM32MP1-DK2/bootloader/optee-os-custom/ta/remoteproc/remoteproc_core.c:320
     2b2:	f11c 0338 	adds.w	r3, ip, #56	; 0x38
     2b6:	d202      	bcs.n	2be <TA_InvokeCommandEntryPoint+0x102>
/home/aom1/Work/Linux/target/STM32MP1-DK2/bootloader/optee-os-custom/ta/remoteproc/remoteproc_core.c:317
     2b8:	69b1      	ldr	r1, [r6, #24]
/home/aom1/Work/Linux/target/STM32MP1-DK2/bootloader/optee-os-custom/ta/remoteproc/remoteproc_core.c:321
     2ba:	185b      	adds	r3, r3, r1
     2bc:	d301      	bcc.n	2c2 <TA_InvokeCommandEntryPoint+0x106>
/home/aom1/Work/Linux/target/STM32MP1-DK2/bootloader/optee-os-custom/ta/remoteproc/remoteproc_core.c:306
     2be:	4c74      	ldr	r4, [pc, #464]	; (490 <TA_InvokeCommandEntryPoint+0x2d4>)
     2c0:	e048      	b.n	354 <TA_InvokeCommandEntryPoint+0x198>
/home/aom1/Work/Linux/target/STM32MP1-DK2/bootloader/optee-os-custom/ta/remoteproc/remoteproc_core.c:318
     2c2:	6a70      	ldr	r0, [r6, #36]	; 0x24
/home/aom1/Work/Linux/target/STM32MP1-DK2/bootloader/optee-os-custom/ta/remoteproc/remoteproc_core.c:322
     2c4:	181a      	adds	r2, r3, r0
     2c6:	d2fa      	bcs.n	2be <TA_InvokeCommandEntryPoint+0x102>
/home/aom1/Work/Linux/target/STM32MP1-DK2/bootloader/optee-os-custom/ta/remoteproc/remoteproc_core.c:318
     2c8:	f000 0407 	and.w	r4, r0, #7
/home/aom1/Work/Linux/target/STM32MP1-DK2/bootloader/optee-os-custom/ta/remoteproc/remoteproc_core.c:317
     2cc:	f001 0307 	and.w	r3, r1, #7
/home/aom1/Work/Linux/target/STM32MP1-DK2/bootloader/optee-os-custom/ta/remoteproc/remoteproc_core.c:316
     2d0:	4423      	add	r3, r4
     2d2:	f00c 0407 	and.w	r4, ip, #7
     2d6:	4423      	add	r3, r4
/home/aom1/Work/Linux/target/STM32MP1-DK2/bootloader/optee-os-custom/ta/remoteproc/remoteproc_core.c:323
     2d8:	18d3      	adds	r3, r2, r3
     2da:	d2f0      	bcs.n	2be <TA_InvokeCommandEntryPoint+0x102>
     2dc:	68b4      	ldr	r4, [r6, #8]
     2de:	42a3      	cmp	r3, r4
     2e0:	d1ed      	bne.n	2be <TA_InvokeCommandEntryPoint+0x102>
/home/aom1/Work/Linux/target/STM32MP1-DK2/bootloader/optee-os-custom/ta/remoteproc/remoteproc_core.c:327
     2e2:	6932      	ldr	r2, [r6, #16]
     2e4:	eb12 020c 	adds.w	r2, r2, ip
     2e8:	d2e9      	bcs.n	2be <TA_InvokeCommandEntryPoint+0x102>
     2ea:	4293      	cmp	r3, r2
     2ec:	d3e7      	bcc.n	2be <TA_InvokeCommandEntryPoint+0x102>
/home/aom1/Work/Linux/target/STM32MP1-DK2/bootloader/optee-os-custom/ta/remoteproc/remoteproc_core.c:329
     2ee:	6ab2      	ldr	r2, [r6, #40]	; 0x28
     2f0:	1812      	adds	r2, r2, r0
     2f2:	d2e4      	bcs.n	2be <TA_InvokeCommandEntryPoint+0x102>
     2f4:	4293      	cmp	r3, r2
     2f6:	d3e2      	bcc.n	2be <TA_InvokeCommandEntryPoint+0x102>
/home/aom1/Work/Linux/target/STM32MP1-DK2/bootloader/optee-os-custom/ta/remoteproc/remoteproc_core.c:331
     2f8:	69f2      	ldr	r2, [r6, #28]
     2fa:	1852      	adds	r2, r2, r1
     2fc:	bf2c      	ite	cs
     2fe:	2001      	movcs	r0, #1
     300:	2000      	movcc	r0, #0
     302:	4293      	cmp	r3, r2
     304:	d3db      	bcc.n	2be <TA_InvokeCommandEntryPoint+0x102>
/home/aom1/Work/Linux/target/STM32MP1-DK2/bootloader/optee-os-custom/ta/remoteproc/remoteproc_core.c:335
     306:	f001 033f 	and.w	r3, r1, #63	; 0x3f
     30a:	4303      	orrs	r3, r0
     30c:	d1d7      	bne.n	2be <TA_InvokeCommandEntryPoint+0x102>
remoteproc_verify_signature():
/home/aom1/Work/Linux/target/STM32MP1-DK2/bootloader/optee-os-custom/ta/remoteproc/remoteproc_core.c:259
     30e:	e9cd 3306 	strd	r3, r3, [sp, #24]
/home/aom1/Work/Linux/target/STM32MP1-DK2/bootloader/optee-os-custom/ta/remoteproc/remoteproc_core.c:261
     312:	6972      	ldr	r2, [r6, #20]
remoteproc_get_algo():
/home/aom1/Work/Linux/target/STM32MP1-DK2/bootloader/optee-os-custom/ta/remoteproc/remoteproc_core.c:185
     314:	2a01      	cmp	r2, #1
     316:	d00d      	beq.n	334 <TA_InvokeCommandEntryPoint+0x178>
     318:	2a02      	cmp	r2, #2
     31a:	d10d      	bne.n	338 <TA_InvokeCommandEntryPoint+0x17c>
remoteproc_verify_signature():
/home/aom1/Work/Linux/target/STM32MP1-DK2/bootloader/optee-os-custom/ta/remoteproc/remoteproc_core.c:268
     31c:	f04f 0b20 	mov.w	fp, #32
/home/aom1/Work/Linux/target/STM32MP1-DK2/bootloader/optee-os-custom/ta/remoteproc/remoteproc_core.c:269
     320:	2100      	movs	r1, #0
/home/aom1/Work/Linux/target/STM32MP1-DK2/bootloader/optee-os-custom/ta/remoteproc/remoteproc_core.c:268
     322:	f8cd b01c 	str.w	fp, [sp, #28]
/home/aom1/Work/Linux/target/STM32MP1-DK2/bootloader/optee-os-custom/ta/remoteproc/remoteproc_core.c:269
     326:	4658      	mov	r0, fp
     328:	f001 fa93 	bl	1852 <TEE_Malloc>
/home/aom1/Work/Linux/target/STM32MP1-DK2/bootloader/optee-os-custom/ta/remoteproc/remoteproc_core.c:270
     32c:	4680      	mov	r8, r0
     32e:	bb40      	cbnz	r0, 382 <TA_InvokeCommandEntryPoint+0x1c6>
/home/aom1/Work/Linux/target/STM32MP1-DK2/bootloader/optee-os-custom/ta/remoteproc/remoteproc_core.c:271
     330:	4c58      	ldr	r4, [pc, #352]	; (494 <TA_InvokeCommandEntryPoint+0x2d8>)
     332:	e00f      	b.n	354 <TA_InvokeCommandEntryPoint+0x198>
remoteproc_get_algo():
/home/aom1/Work/Linux/target/STM32MP1-DK2/bootloader/optee-os-custom/ta/remoteproc/remoteproc_core.c:184
     334:	469a      	mov	sl, r3
     336:	e7f1      	b.n	31c <TA_InvokeCommandEntryPoint+0x160>
remoteproc_verify_signature():
/home/aom1/Work/Linux/target/STM32MP1-DK2/bootloader/optee-os-custom/ta/remoteproc/remoteproc_core.c:263
     338:	4b5c      	ldr	r3, [pc, #368]	; (4ac <TA_InvokeCommandEntryPoint+0x2f0>)
     33a:	f240 1107 	movw	r1, #263	; 0x107
     33e:	485c      	ldr	r0, [pc, #368]	; (4b0 <TA_InvokeCommandEntryPoint+0x2f4>)
     340:	447b      	add	r3, pc
     342:	9300      	str	r3, [sp, #0]
     344:	2301      	movs	r3, #1
     346:	4478      	add	r0, pc
     348:	9201      	str	r2, [sp, #4]
     34a:	3028      	adds	r0, #40	; 0x28
/home/aom1/Work/Linux/target/STM32MP1-DK2/bootloader/optee-os-custom/ta/remoteproc/remoteproc_core.c:264
     34c:	4c52      	ldr	r4, [pc, #328]	; (498 <TA_InvokeCommandEntryPoint+0x2dc>)
/home/aom1/Work/Linux/target/STM32MP1-DK2/bootloader/optee-os-custom/ta/remoteproc/remoteproc_core.c:263
     34e:	461a      	mov	r2, r3
     350:	f000 fc66 	bl	c20 <trace_printf>
remoteproc_verify_firmware():
/home/aom1/Work/Linux/target/STM32MP1-DK2/bootloader/optee-os-custom/ta/remoteproc/remoteproc_core.c:402
     354:	6868      	ldr	r0, [r5, #4]
     356:	f001 faa5 	bl	18a4 <TEE_Free>
remoteproc_load_fw():
/home/aom1/Work/Linux/target/STM32MP1-DK2/bootloader/optee-os-custom/ta/remoteproc/remoteproc_core.c:602
     35a:	2c00      	cmp	r4, #0
     35c:	f000 80b6 	beq.w	4cc <TA_InvokeCommandEntryPoint+0x310>
/home/aom1/Work/Linux/target/STM32MP1-DK2/bootloader/optee-os-custom/ta/remoteproc/remoteproc_core.c:603
     360:	4b54      	ldr	r3, [pc, #336]	; (4b4 <TA_InvokeCommandEntryPoint+0x2f8>)
     362:	f240 215b 	movw	r1, #603	; 0x25b
     366:	4854      	ldr	r0, [pc, #336]	; (4b8 <TA_InvokeCommandEntryPoint+0x2fc>)
     368:	447b      	add	r3, pc
     36a:	4478      	add	r0, pc
     36c:	9300      	str	r3, [sp, #0]
     36e:	2301      	movs	r3, #1
     370:	9401      	str	r4, [sp, #4]
     372:	461a      	mov	r2, r3
     374:	3072      	adds	r0, #114	; 0x72
remoteproc_load_elf():
/home/aom1/Work/Linux/target/STM32MP1-DK2/bootloader/optee-os-custom/ta/remoteproc/remoteproc_core.c:563
     376:	f000 fc53 	bl	c20 <trace_printf>
remoteproc_load_fw():
/home/aom1/Work/Linux/target/STM32MP1-DK2/bootloader/optee-os-custom/ta/remoteproc/remoteproc_core.c:618
     37a:	2300      	movs	r3, #0
     37c:	60ab      	str	r3, [r5, #8]
/home/aom1/Work/Linux/target/STM32MP1-DK2/bootloader/optee-os-custom/ta/remoteproc/remoteproc_core.c:619
     37e:	60eb      	str	r3, [r5, #12]
/home/aom1/Work/Linux/target/STM32MP1-DK2/bootloader/optee-os-custom/ta/remoteproc/remoteproc_core.c:621
     380:	e72f      	b.n	1e2 <TA_InvokeCommandEntryPoint+0x26>
remoteproc_verify_signature():
/home/aom1/Work/Linux/target/STM32MP1-DK2/bootloader/optee-os-custom/ta/remoteproc/remoteproc_core.c:273
     382:	4946      	ldr	r1, [pc, #280]	; (49c <TA_InvokeCommandEntryPoint+0x2e0>)
     384:	2300      	movs	r3, #0
     386:	2205      	movs	r2, #5
     388:	a806      	add	r0, sp, #24
     38a:	f001 fb68 	bl	1a5e <TEE_AllocateOperation>
/home/aom1/Work/Linux/target/STM32MP1-DK2/bootloader/optee-os-custom/ta/remoteproc/remoteproc_core.c:274
     38e:	4604      	mov	r4, r0
     390:	2800      	cmp	r0, #0
     392:	d164      	bne.n	45e <TA_InvokeCommandEntryPoint+0x2a2>
/home/aom1/Work/Linux/target/STM32MP1-DK2/bootloader/optee-os-custom/ta/remoteproc/remoteproc_core.c:277
     394:	9806      	ldr	r0, [sp, #24]
     396:	ab07      	add	r3, sp, #28
     398:	9300      	str	r3, [sp, #0]
     39a:	4631      	mov	r1, r6
     39c:	6932      	ldr	r2, [r6, #16]
     39e:	4643      	mov	r3, r8
     3a0:	f002 f8fa 	bl	2598 <TEE_DigestDoFinal>
/home/aom1/Work/Linux/target/STM32MP1-DK2/bootloader/optee-os-custom/ta/remoteproc/remoteproc_core.c:278
     3a4:	4604      	mov	r4, r0
     3a6:	2800      	cmp	r0, #0
     3a8:	d156      	bne.n	458 <TA_InvokeCommandEntryPoint+0x29c>
/home/aom1/Work/Linux/target/STM32MP1-DK2/bootloader/optee-os-custom/ta/remoteproc/remoteproc_core.c:288
     3aa:	9b07      	ldr	r3, [sp, #28]
remoteproc_pta_verify():
/home/aom1/Work/Linux/target/STM32MP1-DK2/bootloader/optee-os-custom/ta/remoteproc/remoteproc_core.c:202
     3ac:	4601      	mov	r1, r0
/home/aom1/Work/Linux/target/STM32MP1-DK2/bootloader/optee-os-custom/ta/remoteproc/remoteproc_core.c:196
     3ae:	f8d5 9004 	ldr.w	r9, [r5, #4]
/home/aom1/Work/Linux/target/STM32MP1-DK2/bootloader/optee-os-custom/ta/remoteproc/remoteproc_core.c:202
     3b2:	465a      	mov	r2, fp
     3b4:	9803      	ldr	r0, [sp, #12]
remoteproc_verify_signature():
/home/aom1/Work/Linux/target/STM32MP1-DK2/bootloader/optee-os-custom/ta/remoteproc/remoteproc_core.c:288
     3b6:	9305      	str	r3, [sp, #20]
remoteproc_pta_verify():
/home/aom1/Work/Linux/target/STM32MP1-DK2/bootloader/optee-os-custom/ta/remoteproc/remoteproc_core.c:202
     3b8:	f008 fe65 	bl	9086 <memset>
/home/aom1/Work/Linux/target/STM32MP1-DK2/bootloader/optee-os-custom/ta/remoteproc/remoteproc_core.c:204
     3bc:	f8d9 0024 	ldr.w	r0, [r9, #36]	; 0x24
     3c0:	4621      	mov	r1, r4
     3c2:	3008      	adds	r0, #8
     3c4:	f001 fa45 	bl	1852 <TEE_Malloc>
/home/aom1/Work/Linux/target/STM32MP1-DK2/bootloader/optee-os-custom/ta/remoteproc/remoteproc_core.c:205
     3c8:	4606      	mov	r6, r0
     3ca:	2800      	cmp	r0, #0
     3cc:	d054      	beq.n	478 <TA_InvokeCommandEntryPoint+0x2bc>
/home/aom1/Work/Linux/target/STM32MP1-DK2/bootloader/optee-os-custom/ta/remoteproc/remoteproc_core.c:208
     3ce:	4a3b      	ldr	r2, [pc, #236]	; (4bc <TA_InvokeCommandEntryPoint+0x300>)
     3d0:	210c      	movs	r1, #12
/home/aom1/Work/Linux/target/STM32MP1-DK2/bootloader/optee-os-custom/ta/remoteproc/remoteproc_core.c:210
     3d2:	3008      	adds	r0, #8
/home/aom1/Work/Linux/target/STM32MP1-DK2/bootloader/optee-os-custom/ta/remoteproc/remoteproc_core.c:208
     3d4:	447a      	add	r2, pc
     3d6:	fb01 220a 	mla	r2, r1, sl, r2
/home/aom1/Work/Linux/target/STM32MP1-DK2/bootloader/optee-os-custom/ta/remoteproc/remoteproc_core.c:209
     3da:	f8d9 a024 	ldr.w	sl, [r9, #36]	; 0x24
/home/aom1/Work/Linux/target/STM32MP1-DK2/bootloader/optee-os-custom/ta/remoteproc/remoteproc_core.c:208
     3de:	6c92      	ldr	r2, [r2, #72]	; 0x48
/home/aom1/Work/Linux/target/STM32MP1-DK2/bootloader/optee-os-custom/ta/remoteproc/remoteproc_core.c:210
     3e0:	f8d9 1028 	ldr.w	r1, [r9, #40]	; 0x28
/home/aom1/Work/Linux/target/STM32MP1-DK2/bootloader/optee-os-custom/ta/remoteproc/remoteproc_core.c:208
     3e4:	f840 2c08 	str.w	r2, [r0, #-8]
/home/aom1/Work/Linux/target/STM32MP1-DK2/bootloader/optee-os-custom/ta/remoteproc/remoteproc_core.c:210
     3e8:	4652      	mov	r2, sl
/home/aom1/Work/Linux/target/STM32MP1-DK2/bootloader/optee-os-custom/ta/remoteproc/remoteproc_core.c:209
     3ea:	f840 ac04 	str.w	sl, [r0, #-4]
/home/aom1/Work/Linux/target/STM32MP1-DK2/bootloader/optee-os-custom/ta/remoteproc/remoteproc_core.c:210
     3ee:	4449      	add	r1, r9
     3f0:	f000 faf6 	bl	9e0 <memcpy>
/home/aom1/Work/Linux/target/STM32MP1-DK2/bootloader/optee-os-custom/ta/remoteproc/remoteproc_core.c:217
     3f4:	9b05      	ldr	r3, [sp, #20]
rproc_pta_get_keyinfo_size():
/home/aom1/Work/Linux/target/STM32MP1-DK2/bootloader/optee-os-custom/build/export-ta_arm32/include/remoteproc_pta.h:49
     3f6:	f11a 0a08 	adds.w	sl, sl, #8
remoteproc_pta_verify():
/home/aom1/Work/Linux/target/STM32MP1-DK2/bootloader/optee-os-custom/ta/remoteproc/remoteproc_core.c:213
     3fa:	682a      	ldr	r2, [r5, #0]
rproc_pta_get_keyinfo_size():
/home/aom1/Work/Linux/target/STM32MP1-DK2/bootloader/optee-os-custom/build/export-ta_arm32/include/remoteproc_pta.h:49
     3fc:	bf38      	it	cc
     3fe:	4654      	movcc	r4, sl
remoteproc_pta_verify():
/home/aom1/Work/Linux/target/STM32MP1-DK2/bootloader/optee-os-custom/ta/remoteproc/remoteproc_core.c:217
     400:	930d      	str	r3, [sp, #52]	; 0x34
/home/aom1/Work/Linux/target/STM32MP1-DK2/bootloader/optee-os-custom/ta/remoteproc/remoteproc_core.c:221
     402:	f04f 31ff 	mov.w	r1, #4294967295	; 0xffffffff
/home/aom1/Work/Linux/target/STM32MP1-DK2/bootloader/optee-os-custom/ta/remoteproc/remoteproc_core.c:219
     406:	f8d9 300c 	ldr.w	r3, [r9, #12]
/home/aom1/Work/Linux/target/STM32MP1-DK2/bootloader/optee-os-custom/ta/remoteproc/remoteproc_core.c:221
     40a:	482d      	ldr	r0, [pc, #180]	; (4c0 <TA_InvokeCommandEntryPoint+0x304>)
/home/aom1/Work/Linux/target/STM32MP1-DK2/bootloader/optee-os-custom/ta/remoteproc/remoteproc_core.c:213
     40c:	9208      	str	r2, [sp, #32]
/home/aom1/Work/Linux/target/STM32MP1-DK2/bootloader/optee-os-custom/ta/remoteproc/remoteproc_core.c:218
     40e:	f8d9 2010 	ldr.w	r2, [r9, #16]
/home/aom1/Work/Linux/target/STM32MP1-DK2/bootloader/optee-os-custom/ta/remoteproc/remoteproc_core.c:219
     412:	930f      	str	r3, [sp, #60]	; 0x3c
/home/aom1/Work/Linux/target/STM32MP1-DK2/bootloader/optee-os-custom/ta/remoteproc/remoteproc_core.c:221
     414:	2300      	movs	r3, #0
     416:	9301      	str	r3, [sp, #4]
     418:	4478      	add	r0, pc
     41a:	9b03      	ldr	r3, [sp, #12]
/home/aom1/Work/Linux/target/STM32MP1-DK2/bootloader/optee-os-custom/ta/remoteproc/remoteproc_core.c:218
     41c:	444a      	add	r2, r9
/home/aom1/Work/Linux/target/STM32MP1-DK2/bootloader/optee-os-custom/ta/remoteproc/remoteproc_core.c:221
     41e:	9300      	str	r3, [sp, #0]
     420:	f245 5351 	movw	r3, #21841	; 0x5551
/home/aom1/Work/Linux/target/STM32MP1-DK2/bootloader/optee-os-custom/ta/remoteproc/remoteproc_core.c:218
     424:	920e      	str	r2, [sp, #56]	; 0x38
/home/aom1/Work/Linux/target/STM32MP1-DK2/bootloader/optee-os-custom/ta/remoteproc/remoteproc_core.c:221
     426:	2208      	movs	r2, #8
     428:	6800      	ldr	r0, [r0, #0]
/home/aom1/Work/Linux/target/STM32MP1-DK2/bootloader/optee-os-custom/ta/remoteproc/remoteproc_core.c:215
     42a:	940b      	str	r4, [sp, #44]	; 0x2c
/home/aom1/Work/Linux/target/STM32MP1-DK2/bootloader/optee-os-custom/ta/remoteproc/remoteproc_core.c:214
     42c:	960a      	str	r6, [sp, #40]	; 0x28
/home/aom1/Work/Linux/target/STM32MP1-DK2/bootloader/optee-os-custom/ta/remoteproc/remoteproc_core.c:216
     42e:	f8cd 8030 	str.w	r8, [sp, #48]	; 0x30
/home/aom1/Work/Linux/target/STM32MP1-DK2/bootloader/optee-os-custom/ta/remoteproc/remoteproc_core.c:221
     432:	f001 f94b 	bl	16cc <TEE_InvokeTACommand>
/home/aom1/Work/Linux/target/STM32MP1-DK2/bootloader/optee-os-custom/ta/remoteproc/remoteproc_core.c:224
     436:	4604      	mov	r4, r0
     438:	b158      	cbz	r0, 452 <TA_InvokeCommandEntryPoint+0x296>
/home/aom1/Work/Linux/target/STM32MP1-DK2/bootloader/optee-os-custom/ta/remoteproc/remoteproc_core.c:225
     43a:	4b22      	ldr	r3, [pc, #136]	; (4c4 <TA_InvokeCommandEntryPoint+0x308>)
     43c:	21e1      	movs	r1, #225	; 0xe1
     43e:	9001      	str	r0, [sp, #4]
     440:	4821      	ldr	r0, [pc, #132]	; (4c8 <TA_InvokeCommandEntryPoint+0x30c>)
     442:	447b      	add	r3, pc
     444:	4478      	add	r0, pc
     446:	9300      	str	r3, [sp, #0]
     448:	2301      	movs	r3, #1
     44a:	461a      	mov	r2, r3
     44c:	305c      	adds	r0, #92	; 0x5c
     44e:	f000 fbe7 	bl	c20 <trace_printf>
/home/aom1/Work/Linux/target/STM32MP1-DK2/bootloader/optee-os-custom/ta/remoteproc/remoteproc_core.c:227
     452:	4630      	mov	r0, r6
     454:	f001 fa26 	bl	18a4 <TEE_Free>
remoteproc_verify_signature():
/home/aom1/Work/Linux/target/STM32MP1-DK2/bootloader/optee-os-custom/ta/remoteproc/remoteproc_core.c:291
     458:	9806      	ldr	r0, [sp, #24]
     45a:	f001 faed 	bl	1a38 <TEE_FreeOperation>
/home/aom1/Work/Linux/target/STM32MP1-DK2/bootloader/optee-os-custom/ta/remoteproc/remoteproc_core.c:293
     45e:	4640      	mov	r0, r8
     460:	f001 fa20 	bl	18a4 <TEE_Free>
remoteproc_verify_firmware():
/home/aom1/Work/Linux/target/STM32MP1-DK2/bootloader/optee-os-custom/ta/remoteproc/remoteproc_core.c:390
     464:	2c00      	cmp	r4, #0
     466:	f47f af75 	bne.w	354 <TA_InvokeCommandEntryPoint+0x198>
/home/aom1/Work/Linux/target/STM32MP1-DK2/bootloader/optee-os-custom/ta/remoteproc/remoteproc_core.c:394
     46a:	686b      	ldr	r3, [r5, #4]
/home/aom1/Work/Linux/target/STM32MP1-DK2/bootloader/optee-os-custom/ta/remoteproc/remoteproc_core.c:395
     46c:	6ada      	ldr	r2, [r3, #44]	; 0x2c
/home/aom1/Work/Linux/target/STM32MP1-DK2/bootloader/optee-os-custom/ta/remoteproc/remoteproc_core.c:396
     46e:	6b1b      	ldr	r3, [r3, #48]	; 0x30
/home/aom1/Work/Linux/target/STM32MP1-DK2/bootloader/optee-os-custom/ta/remoteproc/remoteproc_core.c:395
     470:	60ea      	str	r2, [r5, #12]
/home/aom1/Work/Linux/target/STM32MP1-DK2/bootloader/optee-os-custom/ta/remoteproc/remoteproc_core.c:396
     472:	441f      	add	r7, r3
     474:	60af      	str	r7, [r5, #8]
     476:	e76d      	b.n	354 <TA_InvokeCommandEntryPoint+0x198>
remoteproc_pta_verify():
/home/aom1/Work/Linux/target/STM32MP1-DK2/bootloader/optee-os-custom/ta/remoteproc/remoteproc_core.c:206
     478:	4c06      	ldr	r4, [pc, #24]	; (494 <TA_InvokeCommandEntryPoint+0x2d8>)
     47a:	e7ed      	b.n	458 <TA_InvokeCommandEntryPoint+0x29c>
remoteproc_verify_firmware():
/home/aom1/Work/Linux/target/STM32MP1-DK2/bootloader/optee-os-custom/ta/remoteproc/remoteproc_core.c:382
     47c:	4c08      	ldr	r4, [pc, #32]	; (4a0 <TA_InvokeCommandEntryPoint+0x2e4>)
     47e:	e76f      	b.n	360 <TA_InvokeCommandEntryPoint+0x1a4>
remoteproc_save_fw_header():
/home/aom1/Work/Linux/target/STM32MP1-DK2/bootloader/optee-os-custom/ta/remoteproc/remoteproc_core.c:241
     480:	4c03      	ldr	r4, [pc, #12]	; (490 <TA_InvokeCommandEntryPoint+0x2d4>)
     482:	e76d      	b.n	360 <TA_InvokeCommandEntryPoint+0x1a4>
/home/aom1/Work/Linux/target/STM32MP1-DK2/bootloader/optee-os-custom/ta/remoteproc/remoteproc_core.c:245
     484:	4c03      	ldr	r4, [pc, #12]	; (494 <TA_InvokeCommandEntryPoint+0x2d8>)
     486:	e76b      	b.n	360 <TA_InvokeCommandEntryPoint+0x1a4>
     488:	ffff0006 	.word	0xffff0006
     48c:	3543a468 	.word	0x3543a468
     490:	f0100001 	.word	0xf0100001
     494:	ffff000c 	.word	0xffff000c
     498:	ffff000a 	.word	0xffff000a
     49c:	50000004 	.word	0x50000004
     4a0:	ffff0009 	.word	0xffff0009
     4a4:	0000afd8 	.word	0x0000afd8
     4a8:	0000b06e 	.word	0x0000b06e
     4ac:	000093b9 	.word	0x000093b9
     4b0:	00008fae 	.word	0x00008fae
     4b4:	000093d5 	.word	0x000093d5
     4b8:	00008f8a 	.word	0x00008f8a
     4bc:	00008f20 	.word	0x00008f20
     4c0:	0000ae9c 	.word	0x0000ae9c
     4c4:	000092d5 	.word	0x000092d5
     4c8:	00008eb0 	.word	0x00008eb0
remoteproc_load_elf():
/home/aom1/Work/Linux/target/STM32MP1-DK2/bootloader/optee-os-custom/ta/remoteproc/remoteproc_core.c:561
     4cc:	68e9      	ldr	r1, [r5, #12]
     4ce:	68a8      	ldr	r0, [r5, #8]
     4d0:	f000 f8f8 	bl	6c4 <e32_parse_ehdr>
/home/aom1/Work/Linux/target/STM32MP1-DK2/bootloader/optee-os-custom/ta/remoteproc/remoteproc_core.c:562
     4d4:	4604      	mov	r4, r0
     4d6:	b158      	cbz	r0, 4f0 <TA_InvokeCommandEntryPoint+0x334>
/home/aom1/Work/Linux/target/STM32MP1-DK2/bootloader/optee-os-custom/ta/remoteproc/remoteproc_core.c:563
     4d8:	4b63      	ldr	r3, [pc, #396]	; (668 <TA_InvokeCommandEntryPoint+0x4ac>)
     4da:	f240 2133 	movw	r1, #563	; 0x233
     4de:	9001      	str	r0, [sp, #4]
     4e0:	4862      	ldr	r0, [pc, #392]	; (66c <TA_InvokeCommandEntryPoint+0x4b0>)
     4e2:	447b      	add	r3, pc
     4e4:	4478      	add	r0, pc
     4e6:	9300      	str	r3, [sp, #0]
     4e8:	2301      	movs	r3, #1
     4ea:	461a      	mov	r2, r3
     4ec:	3085      	adds	r0, #133	; 0x85
     4ee:	e742      	b.n	376 <TA_InvokeCommandEntryPoint+0x1ba>
/home/aom1/Work/Linux/target/STM32MP1-DK2/bootloader/optee-os-custom/ta/remoteproc/remoteproc_core.c:567
     4f0:	4a5f      	ldr	r2, [pc, #380]	; (670 <TA_InvokeCommandEntryPoint+0x4b4>)
     4f2:	462b      	mov	r3, r5
     4f4:	68e9      	ldr	r1, [r5, #12]
     4f6:	447a      	add	r2, pc
     4f8:	68a8      	ldr	r0, [r5, #8]
     4fa:	f000 f93f 	bl	77c <e32_parser_load_elf_image>
remoteproc_load_fw():
/home/aom1/Work/Linux/target/STM32MP1-DK2/bootloader/optee-os-custom/ta/remoteproc/remoteproc_core.c:608
     4fe:	4604      	mov	r4, r0
     500:	2800      	cmp	r0, #0
     502:	f47f af3a 	bne.w	37a <TA_InvokeCommandEntryPoint+0x1be>
remoteproc_parse_rsc_table():
/home/aom1/Work/Linux/target/STM32MP1-DK2/bootloader/optee-os-custom/ta/remoteproc/remoteproc_core.c:434
     506:	9007      	str	r0, [sp, #28]
/home/aom1/Work/Linux/target/STM32MP1-DK2/bootloader/optee-os-custom/ta/remoteproc/remoteproc_core.c:437
     508:	f105 0314 	add.w	r3, r5, #20
     50c:	68e9      	ldr	r1, [r5, #12]
     50e:	aa07      	add	r2, sp, #28
     510:	68a8      	ldr	r0, [r5, #8]
     512:	f000 f989 	bl	828 <e32_parser_find_rsc_table>
/home/aom1/Work/Linux/target/STM32MP1-DK2/bootloader/optee-os-custom/ta/remoteproc/remoteproc_core.c:439
     516:	4b4f      	ldr	r3, [pc, #316]	; (654 <TA_InvokeCommandEntryPoint+0x498>)
     518:	4298      	cmp	r0, r3
     51a:	d104      	bne.n	526 <TA_InvokeCommandEntryPoint+0x36a>
/home/aom1/Work/Linux/target/STM32MP1-DK2/bootloader/optee-os-custom/ta/remoteproc/remoteproc_core.c:441
     51c:	616c      	str	r4, [r5, #20]
/home/aom1/Work/Linux/target/STM32MP1-DK2/bootloader/optee-os-custom/ta/remoteproc/remoteproc_core.c:442
     51e:	612c      	str	r4, [r5, #16]
remoteproc_load_fw():
/home/aom1/Work/Linux/target/STM32MP1-DK2/bootloader/optee-os-custom/ta/remoteproc/remoteproc_core.c:614
     520:	2301      	movs	r3, #1
     522:	61ab      	str	r3, [r5, #24]
     524:	e729      	b.n	37a <TA_InvokeCommandEntryPoint+0x1be>
remoteproc_parse_rsc_table():
/home/aom1/Work/Linux/target/STM32MP1-DK2/bootloader/optee-os-custom/ta/remoteproc/remoteproc_core.c:445
     526:	2800      	cmp	r0, #0
     528:	d12f      	bne.n	58a <TA_InvokeCommandEntryPoint+0x3ce>
/home/aom1/Work/Linux/target/STM32MP1-DK2/bootloader/optee-os-custom/ta/remoteproc/remoteproc_core.c:448
     52a:	9e07      	ldr	r6, [sp, #28]
     52c:	2e00      	cmp	r6, #0
     52e:	d0f7      	beq.n	520 <TA_InvokeCommandEntryPoint+0x364>
remoteproc_da_to_pa():
/home/aom1/Work/Linux/target/STM32MP1-DK2/bootloader/optee-os-custom/ta/remoteproc/remoteproc_core.c:414
     530:	9804      	ldr	r0, [sp, #16]
     532:	221c      	movs	r2, #28
remoteproc_parse_rsc_table():
/home/aom1/Work/Linux/target/STM32MP1-DK2/bootloader/optee-os-custom/ta/remoteproc/remoteproc_core.c:452
     534:	696f      	ldr	r7, [r5, #20]
remoteproc_da_to_pa():
/home/aom1/Work/Linux/target/STM32MP1-DK2/bootloader/optee-os-custom/ta/remoteproc/remoteproc_core.c:414
     536:	4621      	mov	r1, r4
     538:	f008 fda5 	bl	9086 <memset>
/home/aom1/Work/Linux/target/STM32MP1-DK2/bootloader/optee-os-custom/ta/remoteproc/remoteproc_core.c:417
     53c:	682b      	ldr	r3, [r5, #0]
/home/aom1/Work/Linux/target/STM32MP1-DK2/bootloader/optee-os-custom/ta/remoteproc/remoteproc_core.c:421
     53e:	2207      	movs	r2, #7
     540:	484c      	ldr	r0, [pc, #304]	; (674 <TA_InvokeCommandEntryPoint+0x4b8>)
     542:	f04f 31ff 	mov.w	r1, #4294967295	; 0xffffffff
/home/aom1/Work/Linux/target/STM32MP1-DK2/bootloader/optee-os-custom/ta/remoteproc/remoteproc_core.c:417
     546:	9308      	str	r3, [sp, #32]
/home/aom1/Work/Linux/target/STM32MP1-DK2/bootloader/optee-os-custom/ta/remoteproc/remoteproc_core.c:421
     548:	4478      	add	r0, pc
     54a:	9b03      	ldr	r3, [sp, #12]
     54c:	9401      	str	r4, [sp, #4]
     54e:	9300      	str	r3, [sp, #0]
     550:	f242 1311 	movw	r3, #8465	; 0x2111
     554:	6800      	ldr	r0, [r0, #0]
/home/aom1/Work/Linux/target/STM32MP1-DK2/bootloader/optee-os-custom/ta/remoteproc/remoteproc_core.c:418
     556:	960a      	str	r6, [sp, #40]	; 0x28
/home/aom1/Work/Linux/target/STM32MP1-DK2/bootloader/optee-os-custom/ta/remoteproc/remoteproc_core.c:419
     558:	970c      	str	r7, [sp, #48]	; 0x30
/home/aom1/Work/Linux/target/STM32MP1-DK2/bootloader/optee-os-custom/ta/remoteproc/remoteproc_core.c:421
     55a:	f001 f8b7 	bl	16cc <TEE_InvokeTACommand>
/home/aom1/Work/Linux/target/STM32MP1-DK2/bootloader/optee-os-custom/ta/remoteproc/remoteproc_core.c:424
     55e:	b178      	cbz	r0, 580 <TA_InvokeCommandEntryPoint+0x3c4>
/home/aom1/Work/Linux/target/STM32MP1-DK2/bootloader/optee-os-custom/ta/remoteproc/remoteproc_core.c:425
     560:	4b45      	ldr	r3, [pc, #276]	; (678 <TA_InvokeCommandEntryPoint+0x4bc>)
     562:	f240 11a9 	movw	r1, #425	; 0x1a9
     566:	4845      	ldr	r0, [pc, #276]	; (67c <TA_InvokeCommandEntryPoint+0x4c0>)
     568:	447b      	add	r3, pc
     56a:	9300      	str	r3, [sp, #0]
     56c:	2301      	movs	r3, #1
     56e:	4478      	add	r0, pc
     570:	461a      	mov	r2, r3
     572:	9601      	str	r6, [sp, #4]
     574:	3099      	adds	r0, #153	; 0x99
     576:	f000 fb53 	bl	c20 <trace_printf>
remoteproc_parse_rsc_table():
/home/aom1/Work/Linux/target/STM32MP1-DK2/bootloader/optee-os-custom/ta/remoteproc/remoteproc_core.c:452
     57a:	612c      	str	r4, [r5, #16]
/home/aom1/Work/Linux/target/STM32MP1-DK2/bootloader/optee-os-custom/ta/remoteproc/remoteproc_core.c:454
     57c:	4c36      	ldr	r4, [pc, #216]	; (658 <TA_InvokeCommandEntryPoint+0x49c>)
     57e:	e6fc      	b.n	37a <TA_InvokeCommandEntryPoint+0x1be>
remoteproc_da_to_pa():
/home/aom1/Work/Linux/target/STM32MP1-DK2/bootloader/optee-os-custom/ta/remoteproc/remoteproc_core.c:429
     580:	9b0e      	ldr	r3, [sp, #56]	; 0x38
remoteproc_parse_rsc_table():
/home/aom1/Work/Linux/target/STM32MP1-DK2/bootloader/optee-os-custom/ta/remoteproc/remoteproc_core.c:452
     582:	612b      	str	r3, [r5, #16]
/home/aom1/Work/Linux/target/STM32MP1-DK2/bootloader/optee-os-custom/ta/remoteproc/remoteproc_core.c:453
     584:	2b00      	cmp	r3, #0
     586:	d1cb      	bne.n	520 <TA_InvokeCommandEntryPoint+0x364>
     588:	e7f8      	b.n	57c <TA_InvokeCommandEntryPoint+0x3c0>
remoteproc_load_fw():
/home/aom1/Work/Linux/target/STM32MP1-DK2/bootloader/optee-os-custom/ta/remoteproc/remoteproc_core.c:616
     58a:	4604      	mov	r4, r0
     58c:	e6f5      	b.n	37a <TA_InvokeCommandEntryPoint+0x1be>
remoteproc_start_fw():
/home/aom1/Work/Linux/target/STM32MP1-DK2/bootloader/optee-os-custom/ta/remoteproc/remoteproc_core.c:634
     58e:	2a01      	cmp	r2, #1
     590:	f47f ae26 	bne.w	1e0 <TA_InvokeCommandEntryPoint+0x24>
/home/aom1/Work/Linux/target/STM32MP1-DK2/bootloader/optee-os-custom/ta/remoteproc/remoteproc_core.c:637
     594:	6830      	ldr	r0, [r6, #0]
     596:	f7ff fd43 	bl	20 <remoteproc_find_firmware>
/home/aom1/Work/Linux/target/STM32MP1-DK2/bootloader/optee-os-custom/ta/remoteproc/remoteproc_core.c:638
     59a:	4607      	mov	r7, r0
     59c:	2800      	cmp	r0, #0
     59e:	f43f ae1f 	beq.w	1e0 <TA_InvokeCommandEntryPoint+0x24>
/home/aom1/Work/Linux/target/STM32MP1-DK2/bootloader/optee-os-custom/ta/remoteproc/remoteproc_core.c:641
     5a2:	6983      	ldr	r3, [r0, #24]
     5a4:	2b01      	cmp	r3, #1
     5a6:	d004      	beq.n	5b2 <TA_InvokeCommandEntryPoint+0x3f6>
     5a8:	4c2c      	ldr	r4, [pc, #176]	; (65c <TA_InvokeCommandEntryPoint+0x4a0>)
     5aa:	2b02      	cmp	r3, #2
     5ac:	bf08      	it	eq
     5ae:	2400      	moveq	r4, #0
     5b0:	e617      	b.n	1e2 <TA_InvokeCommandEntryPoint+0x26>
/home/aom1/Work/Linux/target/STM32MP1-DK2/bootloader/optee-os-custom/ta/remoteproc/remoteproc_core.c:649
     5b2:	4833      	ldr	r0, [pc, #204]	; (680 <TA_InvokeCommandEntryPoint+0x4c4>)
     5b4:	2300      	movs	r3, #0
     5b6:	9301      	str	r3, [sp, #4]
     5b8:	2205      	movs	r2, #5
     5ba:	4478      	add	r0, pc
     5bc:	462b      	mov	r3, r5
     5be:	9600      	str	r6, [sp, #0]
     5c0:	f04f 31ff 	mov.w	r1, #4294967295	; 0xffffffff
     5c4:	6800      	ldr	r0, [r0, #0]
     5c6:	f001 f881 	bl	16cc <TEE_InvokeTACommand>
/home/aom1/Work/Linux/target/STM32MP1-DK2/bootloader/optee-os-custom/ta/remoteproc/remoteproc_core.c:652
     5ca:	4604      	mov	r4, r0
     5cc:	2800      	cmp	r0, #0
     5ce:	f47f ae08 	bne.w	1e2 <TA_InvokeCommandEntryPoint+0x26>
/home/aom1/Work/Linux/target/STM32MP1-DK2/bootloader/optee-os-custom/ta/remoteproc/remoteproc_core.c:653
     5d2:	2302      	movs	r3, #2
     5d4:	61bb      	str	r3, [r7, #24]
     5d6:	e604      	b.n	1e2 <TA_InvokeCommandEntryPoint+0x26>
remoteproc_stop_fw():
/home/aom1/Work/Linux/target/STM32MP1-DK2/bootloader/optee-os-custom/ta/remoteproc/remoteproc_core.c:672
     5d8:	2a01      	cmp	r2, #1
     5da:	f47f ae01 	bne.w	1e0 <TA_InvokeCommandEntryPoint+0x24>
/home/aom1/Work/Linux/target/STM32MP1-DK2/bootloader/optee-os-custom/ta/remoteproc/remoteproc_core.c:675
     5de:	6830      	ldr	r0, [r6, #0]
     5e0:	f7ff fd1e 	bl	20 <remoteproc_find_firmware>
/home/aom1/Work/Linux/target/STM32MP1-DK2/bootloader/optee-os-custom/ta/remoteproc/remoteproc_core.c:676
     5e4:	4607      	mov	r7, r0
     5e6:	2800      	cmp	r0, #0
     5e8:	f43f adfa 	beq.w	1e0 <TA_InvokeCommandEntryPoint+0x24>
/home/aom1/Work/Linux/target/STM32MP1-DK2/bootloader/optee-os-custom/ta/remoteproc/remoteproc_core.c:679
     5ec:	6984      	ldr	r4, [r0, #24]
     5ee:	2c00      	cmp	r4, #0
     5f0:	f43f adf7 	beq.w	1e2 <TA_InvokeCommandEntryPoint+0x26>
     5f4:	2c02      	cmp	r4, #2
     5f6:	d11e      	bne.n	636 <TA_InvokeCommandEntryPoint+0x47a>
/home/aom1/Work/Linux/target/STM32MP1-DK2/bootloader/optee-os-custom/ta/remoteproc/remoteproc_core.c:687
     5f8:	4822      	ldr	r0, [pc, #136]	; (684 <TA_InvokeCommandEntryPoint+0x4c8>)
     5fa:	2300      	movs	r3, #0
     5fc:	9301      	str	r3, [sp, #4]
     5fe:	2206      	movs	r2, #6
     600:	4478      	add	r0, pc
     602:	462b      	mov	r3, r5
     604:	9600      	str	r6, [sp, #0]
     606:	f04f 31ff 	mov.w	r1, #4294967295	; 0xffffffff
     60a:	6800      	ldr	r0, [r0, #0]
     60c:	f001 f85e 	bl	16cc <TEE_InvokeTACommand>
/home/aom1/Work/Linux/target/STM32MP1-DK2/bootloader/optee-os-custom/ta/remoteproc/remoteproc_core.c:690
     610:	4604      	mov	r4, r0
     612:	2800      	cmp	r0, #0
     614:	f47f ade5 	bne.w	1e2 <TA_InvokeCommandEntryPoint+0x26>
/home/aom1/Work/Linux/target/STM32MP1-DK2/bootloader/optee-os-custom/ta/remoteproc/remoteproc_core.c:691
     618:	61b8      	str	r0, [r7, #24]
     61a:	e5e2      	b.n	1e2 <TA_InvokeCommandEntryPoint+0x26>
remoteproc_get_rsc_table():
/home/aom1/Work/Linux/target/STM32MP1-DK2/bootloader/optee-os-custom/ta/remoteproc/remoteproc_core.c:709
     61c:	f240 2321 	movw	r3, #545	; 0x221
     620:	429a      	cmp	r2, r3
     622:	f47f addd 	bne.w	1e0 <TA_InvokeCommandEntryPoint+0x24>
/home/aom1/Work/Linux/target/STM32MP1-DK2/bootloader/optee-os-custom/ta/remoteproc/remoteproc_core.c:712
     626:	6830      	ldr	r0, [r6, #0]
     628:	f7ff fcfa 	bl	20 <remoteproc_find_firmware>
/home/aom1/Work/Linux/target/STM32MP1-DK2/bootloader/optee-os-custom/ta/remoteproc/remoteproc_core.c:713
     62c:	2800      	cmp	r0, #0
     62e:	f43f add7 	beq.w	1e0 <TA_InvokeCommandEntryPoint+0x24>
/home/aom1/Work/Linux/target/STM32MP1-DK2/bootloader/optee-os-custom/ta/remoteproc/remoteproc_core.c:716
     632:	6983      	ldr	r3, [r0, #24]
     634:	b90b      	cbnz	r3, 63a <TA_InvokeCommandEntryPoint+0x47e>
remoteproc_start_fw():
/home/aom1/Work/Linux/target/STM32MP1-DK2/bootloader/optee-os-custom/ta/remoteproc/remoteproc_core.c:643
     636:	4c09      	ldr	r4, [pc, #36]	; (65c <TA_InvokeCommandEntryPoint+0x4a0>)
     638:	e5d3      	b.n	1e2 <TA_InvokeCommandEntryPoint+0x26>
remoteproc_get_rsc_table():
/home/aom1/Work/Linux/target/STM32MP1-DK2/bootloader/optee-os-custom/ta/remoteproc/remoteproc_core.c:719
     63a:	6903      	ldr	r3, [r0, #16]
reg_pair_from_64():
/home/aom1/Work/Linux/target/STM32MP1-DK2/bootloader/optee-os-custom/build/export-ta_arm32/include/util.h:172
     63c:	2400      	movs	r4, #0
     63e:	60f4      	str	r4, [r6, #12]
/home/aom1/Work/Linux/target/STM32MP1-DK2/bootloader/optee-os-custom/build/export-ta_arm32/include/util.h:173
     640:	60b3      	str	r3, [r6, #8]
remoteproc_get_rsc_table():
/home/aom1/Work/Linux/target/STM32MP1-DK2/bootloader/optee-os-custom/ta/remoteproc/remoteproc_core.c:721
     642:	6943      	ldr	r3, [r0, #20]
reg_pair_from_64():
/home/aom1/Work/Linux/target/STM32MP1-DK2/bootloader/optee-os-custom/build/export-ta_arm32/include/util.h:172
     644:	6174      	str	r4, [r6, #20]
/home/aom1/Work/Linux/target/STM32MP1-DK2/bootloader/optee-os-custom/build/export-ta_arm32/include/util.h:173
     646:	6133      	str	r3, [r6, #16]
remoteproc_get_rsc_table():
/home/aom1/Work/Linux/target/STM32MP1-DK2/bootloader/optee-os-custom/ta/remoteproc/remoteproc_core.c:724
     648:	e5cb      	b.n	1e2 <TA_InvokeCommandEntryPoint+0x26>
TA_InvokeCommandEntryPoint():
/home/aom1/Work/Linux/target/STM32MP1-DK2/bootloader/optee-os-custom/ta/remoteproc/remoteproc_core.c:777
     64a:	4c05      	ldr	r4, [pc, #20]	; (660 <TA_InvokeCommandEntryPoint+0x4a4>)
     64c:	e5c9      	b.n	1e2 <TA_InvokeCommandEntryPoint+0x26>
remoteproc_load_fw():
/home/aom1/Work/Linux/target/STM32MP1-DK2/bootloader/optee-os-custom/ta/remoteproc/remoteproc_core.c:589
     64e:	4c05      	ldr	r4, [pc, #20]	; (664 <TA_InvokeCommandEntryPoint+0x4a8>)
     650:	e5c7      	b.n	1e2 <TA_InvokeCommandEntryPoint+0x26>
     652:	bf00      	nop
     654:	ffff000b 	.word	0xffff000b
     658:	ffff0001 	.word	0xffff0001
     65c:	ffff0007 	.word	0xffff0007
     660:	ffff0009 	.word	0xffff0009
     664:	ffff000c 	.word	0xffff000c
     668:	00009286 	.word	0x00009286
     66c:	00008e10 	.word	0x00008e10
     670:	fffffb43 	.word	0xfffffb43
     674:	0000ad6c 	.word	0x0000ad6c
     678:	00009224 	.word	0x00009224
     67c:	00008d86 	.word	0x00008d86
     680:	0000acfa 	.word	0x0000acfa
     684:	0000acb4 	.word	0x0000acb4

00000688 <va_in_fwm_image_range>:
va_in_fwm_image_range():
/home/aom1/Work/Linux/target/STM32MP1-DK2/bootloader/optee-os-custom/ta/remoteproc/elf_parser.c:17
     688:	2a00      	cmp	r2, #0
/home/aom1/Work/Linux/target/STM32MP1-DK2/bootloader/optee-os-custom/ta/remoteproc/elf_parser.c:14
     68a:	b508      	push	{r3, lr}
/home/aom1/Work/Linux/target/STM32MP1-DK2/bootloader/optee-os-custom/ta/remoteproc/elf_parser.c:17
     68c:	da0a      	bge.n	6a4 <va_in_fwm_image_range+0x1c>
     68e:	4b0a      	ldr	r3, [pc, #40]	; (6b8 <va_in_fwm_image_range+0x30>)
     690:	2211      	movs	r2, #17
     692:	490a      	ldr	r1, [pc, #40]	; (6bc <va_in_fwm_image_range+0x34>)
     694:	480a      	ldr	r0, [pc, #40]	; (6c0 <va_in_fwm_image_range+0x38>)
     696:	447b      	add	r3, pc
     698:	4479      	add	r1, pc
     69a:	4478      	add	r0, pc
     69c:	f000 fe60 	bl	1360 <_assert_log>
     6a0:	f000 fe72 	bl	1388 <_assert_break>
/home/aom1/Work/Linux/target/STM32MP1-DK2/bootloader/optee-os-custom/ta/remoteproc/elf_parser.c:18 (discriminator 2)
     6a4:	4288      	cmp	r0, r1
     6a6:	d305      	bcc.n	6b4 <va_in_fwm_image_range+0x2c>
/home/aom1/Work/Linux/target/STM32MP1-DK2/bootloader/optee-os-custom/ta/remoteproc/elf_parser.c:18 (discriminator 1)
     6a8:	4411      	add	r1, r2
     6aa:	4288      	cmp	r0, r1
     6ac:	bf2c      	ite	cs
     6ae:	2000      	movcs	r0, #0
     6b0:	2001      	movcc	r0, #1
/home/aom1/Work/Linux/target/STM32MP1-DK2/bootloader/optee-os-custom/ta/remoteproc/elf_parser.c:19 (discriminator 6)
     6b2:	bd08      	pop	{r3, pc}
/home/aom1/Work/Linux/target/STM32MP1-DK2/bootloader/optee-os-custom/ta/remoteproc/elf_parser.c:18
     6b4:	2000      	movs	r0, #0
     6b6:	e7fc      	b.n	6b2 <va_in_fwm_image_range+0x2a>
     6b8:	00009221 	.word	0x00009221
     6bc:	0000911b 	.word	0x0000911b
     6c0:	00009134 	.word	0x00009134

000006c4 <e32_parse_ehdr>:
e32_parse_ehdr():
/home/aom1/Work/Linux/target/STM32MP1-DK2/bootloader/optee-os-custom/ta/remoteproc/elf_parser.c:31
     6c4:	4603      	mov	r3, r0
/home/aom1/Work/Linux/target/STM32MP1-DK2/bootloader/optee-os-custom/ta/remoteproc/elf_parser.c:28
     6c6:	b507      	push	{r0, r1, r2, lr}
/home/aom1/Work/Linux/target/STM32MP1-DK2/bootloader/optee-os-custom/ta/remoteproc/elf_parser.c:31
     6c8:	b110      	cbz	r0, 6d0 <e32_parse_ehdr+0xc>
/home/aom1/Work/Linux/target/STM32MP1-DK2/bootloader/optee-os-custom/ta/remoteproc/elf_parser.c:31 (discriminator 1)
     6ca:	f010 0003 	ands.w	r0, r0, #3
     6ce:	d00f      	beq.n	6f0 <e32_parse_ehdr+0x2c>
/home/aom1/Work/Linux/target/STM32MP1-DK2/bootloader/optee-os-custom/ta/remoteproc/elf_parser.c:32
     6d0:	9301      	str	r3, [sp, #4]
     6d2:	2120      	movs	r1, #32
     6d4:	4b23      	ldr	r3, [pc, #140]	; (764 <e32_parse_ehdr+0xa0>)
     6d6:	4824      	ldr	r0, [pc, #144]	; (768 <e32_parse_ehdr+0xa4>)
     6d8:	447b      	add	r3, pc
     6da:	9300      	str	r3, [sp, #0]
     6dc:	2301      	movs	r3, #1
     6de:	4478      	add	r0, pc
     6e0:	461a      	mov	r2, r3
     6e2:	3016      	adds	r0, #22
     6e4:	f000 fa9c 	bl	c20 <trace_printf>
/home/aom1/Work/Linux/target/STM32MP1-DK2/bootloader/optee-os-custom/ta/remoteproc/elf_parser.c:33
     6e8:	481a      	ldr	r0, [pc, #104]	; (754 <e32_parse_ehdr+0x90>)
/home/aom1/Work/Linux/target/STM32MP1-DK2/bootloader/optee-os-custom/ta/remoteproc/elf_parser.c:56
     6ea:	b003      	add	sp, #12
     6ec:	f85d fb04 	ldr.w	pc, [sp], #4
/home/aom1/Work/Linux/target/STM32MP1-DK2/bootloader/optee-os-custom/ta/remoteproc/elf_parser.c:36
     6f0:	2933      	cmp	r1, #51	; 0x33
     6f2:	d92c      	bls.n	74e <e32_parse_ehdr+0x8a>
/home/aom1/Work/Linux/target/STM32MP1-DK2/bootloader/optee-os-custom/ta/remoteproc/elf_parser.c:37 (discriminator 1)
     6f4:	6a1a      	ldr	r2, [r3, #32]
     6f6:	3228      	adds	r2, #40	; 0x28
/home/aom1/Work/Linux/target/STM32MP1-DK2/bootloader/optee-os-custom/ta/remoteproc/elf_parser.c:36 (discriminator 1)
     6f8:	428a      	cmp	r2, r1
     6fa:	d828      	bhi.n	74e <e32_parse_ehdr+0x8a>
/home/aom1/Work/Linux/target/STM32MP1-DK2/bootloader/optee-os-custom/ta/remoteproc/elf_parser.c:40
     6fc:	6819      	ldr	r1, [r3, #0]
     6fe:	4a16      	ldr	r2, [pc, #88]	; (758 <e32_parse_ehdr+0x94>)
     700:	4291      	cmp	r1, r2
     702:	d10b      	bne.n	71c <e32_parse_ehdr+0x58>
/home/aom1/Work/Linux/target/STM32MP1-DK2/bootloader/optee-os-custom/ta/remoteproc/elf_parser.c:41
     704:	685a      	ldr	r2, [r3, #4]
     706:	f002 12ff 	and.w	r2, r2, #16711935	; 0xff00ff
     70a:	f1b2 1f01 	cmp.w	r2, #65537	; 0x10001
     70e:	d105      	bne.n	71c <e32_parse_ehdr+0x58>
/home/aom1/Work/Linux/target/STM32MP1-DK2/bootloader/optee-os-custom/ta/remoteproc/elf_parser.c:42
     710:	8d5a      	ldrh	r2, [r3, #42]	; 0x2a
     712:	2a20      	cmp	r2, #32
     714:	d102      	bne.n	71c <e32_parse_ehdr+0x58>
/home/aom1/Work/Linux/target/STM32MP1-DK2/bootloader/optee-os-custom/ta/remoteproc/elf_parser.c:43
     716:	8dda      	ldrh	r2, [r3, #46]	; 0x2e
     718:	2a28      	cmp	r2, #40	; 0x28
     71a:	d00c      	beq.n	736 <e32_parse_ehdr+0x72>
/home/aom1/Work/Linux/target/STM32MP1-DK2/bootloader/optee-os-custom/ta/remoteproc/elf_parser.c:45
     71c:	4b13      	ldr	r3, [pc, #76]	; (76c <e32_parse_ehdr+0xa8>)
     71e:	212d      	movs	r1, #45	; 0x2d
     720:	4813      	ldr	r0, [pc, #76]	; (770 <e32_parse_ehdr+0xac>)
     722:	447b      	add	r3, pc
     724:	9300      	str	r3, [sp, #0]
     726:	2301      	movs	r3, #1
     728:	4478      	add	r0, pc
     72a:	461a      	mov	r2, r3
/home/aom1/Work/Linux/target/STM32MP1-DK2/bootloader/optee-os-custom/ta/remoteproc/elf_parser.c:51
     72c:	3016      	adds	r0, #22
     72e:	f000 fa77 	bl	c20 <trace_printf>
/home/aom1/Work/Linux/target/STM32MP1-DK2/bootloader/optee-os-custom/ta/remoteproc/elf_parser.c:52
     732:	480a      	ldr	r0, [pc, #40]	; (75c <e32_parse_ehdr+0x98>)
     734:	e7d9      	b.n	6ea <e32_parse_ehdr+0x26>
/home/aom1/Work/Linux/target/STM32MP1-DK2/bootloader/optee-os-custom/ta/remoteproc/elf_parser.c:50
     736:	8d9b      	ldrh	r3, [r3, #44]	; 0x2c
     738:	2b00      	cmp	r3, #0
     73a:	d1d6      	bne.n	6ea <e32_parse_ehdr+0x26>
/home/aom1/Work/Linux/target/STM32MP1-DK2/bootloader/optee-os-custom/ta/remoteproc/elf_parser.c:51
     73c:	4b0d      	ldr	r3, [pc, #52]	; (774 <e32_parse_ehdr+0xb0>)
     73e:	2133      	movs	r1, #51	; 0x33
     740:	480d      	ldr	r0, [pc, #52]	; (778 <e32_parse_ehdr+0xb4>)
     742:	447b      	add	r3, pc
     744:	9300      	str	r3, [sp, #0]
     746:	2301      	movs	r3, #1
     748:	4478      	add	r0, pc
     74a:	461a      	mov	r2, r3
     74c:	e7ee      	b.n	72c <e32_parse_ehdr+0x68>
/home/aom1/Work/Linux/target/STM32MP1-DK2/bootloader/optee-os-custom/ta/remoteproc/elf_parser.c:38
     74e:	4804      	ldr	r0, [pc, #16]	; (760 <e32_parse_ehdr+0x9c>)
     750:	e7cb      	b.n	6ea <e32_parse_ehdr+0x26>
     752:	bf00      	nop
     754:	ffff0006 	.word	0xffff0006
     758:	464c457f 	.word	0x464c457f
     75c:	ffff0005 	.word	0xffff0005
     760:	f0100001 	.word	0xf0100001
     764:	00009109 	.word	0x00009109
     768:	000091d9 	.word	0x000091d9
     76c:	000090d5 	.word	0x000090d5
     770:	0000918f 	.word	0x0000918f
     774:	000090c4 	.word	0x000090c4
     778:	0000916f 	.word	0x0000916f

0000077c <e32_parser_load_elf_image>:
e32_parser_load_elf_image():
/home/aom1/Work/Linux/target/STM32MP1-DK2/bootloader/optee-os-custom/ta/remoteproc/elf_parser.c:72
     77c:	e92d 4ff0 	stmdb	sp!, {r4, r5, r6, r7, r8, r9, sl, fp, lr}
     780:	b085      	sub	sp, #20
/home/aom1/Work/Linux/target/STM32MP1-DK2/bootloader/optee-os-custom/ta/remoteproc/elf_parser.c:74
     782:	69c4      	ldr	r4, [r0, #28]
/home/aom1/Work/Linux/target/STM32MP1-DK2/bootloader/optee-os-custom/ta/remoteproc/elf_parser.c:72
     784:	4605      	mov	r5, r0
     786:	9303      	str	r3, [sp, #12]
     788:	460e      	mov	r6, r1
/home/aom1/Work/Linux/target/STM32MP1-DK2/bootloader/optee-os-custom/ta/remoteproc/elf_parser.c:74
     78a:	4404      	add	r4, r0
/home/aom1/Work/Linux/target/STM32MP1-DK2/bootloader/optee-os-custom/ta/remoteproc/elf_parser.c:78
     78c:	4691      	mov	r9, r2
     78e:	2a00      	cmp	r2, #0
     790:	d043      	beq.n	81a <e32_parser_load_elf_image+0x9e>
/home/aom1/Work/Linux/target/STM32MP1-DK2/bootloader/optee-os-custom/ta/remoteproc/elf_parser.c:81
     792:	f014 0703 	ands.w	r7, r4, #3
     796:	d003      	beq.n	7a0 <e32_parser_load_elf_image+0x24>
/home/aom1/Work/Linux/target/STM32MP1-DK2/bootloader/optee-os-custom/ta/remoteproc/elf_parser.c:83
     798:	4821      	ldr	r0, [pc, #132]	; (820 <e32_parser_load_elf_image+0xa4>)
/home/aom1/Work/Linux/target/STM32MP1-DK2/bootloader/optee-os-custom/ta/remoteproc/elf_parser.c:109
     79a:	b005      	add	sp, #20
     79c:	e8bd 8ff0 	ldmia.w	sp!, {r4, r5, r6, r7, r8, r9, sl, fp, pc}
/home/aom1/Work/Linux/target/STM32MP1-DK2/bootloader/optee-os-custom/ta/remoteproc/elf_parser.c:82 (discriminator 1)
     7a0:	460a      	mov	r2, r1
     7a2:	4601      	mov	r1, r0
     7a4:	4620      	mov	r0, r4
     7a6:	f7ff ff6f 	bl	688 <va_in_fwm_image_range>
/home/aom1/Work/Linux/target/STM32MP1-DK2/bootloader/optee-os-custom/ta/remoteproc/elf_parser.c:81 (discriminator 1)
     7aa:	2800      	cmp	r0, #0
     7ac:	d0f4      	beq.n	798 <e32_parser_load_elf_image+0x1c>
     7ae:	341f      	adds	r4, #31
/home/aom1/Work/Linux/target/STM32MP1-DK2/bootloader/optee-os-custom/ta/remoteproc/elf_parser.c:85 (discriminator 1)
     7b0:	8dab      	ldrh	r3, [r5, #44]	; 0x2c
     7b2:	42bb      	cmp	r3, r7
     7b4:	d801      	bhi.n	7ba <e32_parser_load_elf_image+0x3e>
/home/aom1/Work/Linux/target/STM32MP1-DK2/bootloader/optee-os-custom/ta/remoteproc/elf_parser.c:108
     7b6:	2000      	movs	r0, #0
     7b8:	e7ef      	b.n	79a <e32_parser_load_elf_image+0x1e>
/home/aom1/Work/Linux/target/STM32MP1-DK2/bootloader/optee-os-custom/ta/remoteproc/elf_parser.c:86
     7ba:	f854 bc13 	ldr.w	fp, [r4, #-19]
/home/aom1/Work/Linux/target/STM32MP1-DK2/bootloader/optee-os-custom/ta/remoteproc/elf_parser.c:89
     7be:	4632      	mov	r2, r6
     7c0:	4629      	mov	r1, r5
     7c2:	4620      	mov	r0, r4
     7c4:	f7ff ff60 	bl	688 <va_in_fwm_image_range>
     7c8:	2800      	cmp	r0, #0
     7ca:	d0e5      	beq.n	798 <e32_parser_load_elf_image+0x1c>
/home/aom1/Work/Linux/target/STM32MP1-DK2/bootloader/optee-os-custom/ta/remoteproc/elf_parser.c:93
     7cc:	f854 3c1f 	ldr.w	r3, [r4, #-31]
     7d0:	2b01      	cmp	r3, #1
     7d2:	d002      	beq.n	7da <e32_parser_load_elf_image+0x5e>
/home/aom1/Work/Linux/target/STM32MP1-DK2/bootloader/optee-os-custom/ta/remoteproc/elf_parser.c:85
     7d4:	3701      	adds	r7, #1
     7d6:	3420      	adds	r4, #32
     7d8:	e7ea      	b.n	7b0 <e32_parser_load_elf_image+0x34>
/home/aom1/Work/Linux/target/STM32MP1-DK2/bootloader/optee-os-custom/ta/remoteproc/elf_parser.c:96
     7da:	f854 3c1b 	ldr.w	r3, [r4, #-27]
/home/aom1/Work/Linux/target/STM32MP1-DK2/bootloader/optee-os-custom/ta/remoteproc/elf_parser.c:98
     7de:	4632      	mov	r2, r6
     7e0:	4629      	mov	r1, r5
/home/aom1/Work/Linux/target/STM32MP1-DK2/bootloader/optee-os-custom/ta/remoteproc/elf_parser.c:96
     7e2:	eb05 0803 	add.w	r8, r5, r3
/home/aom1/Work/Linux/target/STM32MP1-DK2/bootloader/optee-os-custom/ta/remoteproc/elf_parser.c:98
     7e6:	4640      	mov	r0, r8
     7e8:	f7ff ff4e 	bl	688 <va_in_fwm_image_range>
     7ec:	2800      	cmp	r0, #0
     7ee:	d0d3      	beq.n	798 <e32_parser_load_elf_image+0x1c>
/home/aom1/Work/Linux/target/STM32MP1-DK2/bootloader/optee-os-custom/ta/remoteproc/elf_parser.c:99 (discriminator 1)
     7f0:	f854 ac0f 	ldr.w	sl, [r4, #-15]
     7f4:	4632      	mov	r2, r6
     7f6:	4629      	mov	r1, r5
     7f8:	eb08 000a 	add.w	r0, r8, sl
     7fc:	f7ff ff44 	bl	688 <va_in_fwm_image_range>
/home/aom1/Work/Linux/target/STM32MP1-DK2/bootloader/optee-os-custom/ta/remoteproc/elf_parser.c:98 (discriminator 1)
     800:	2800      	cmp	r0, #0
     802:	d0c9      	beq.n	798 <e32_parser_load_elf_image+0x1c>
/home/aom1/Work/Linux/target/STM32MP1-DK2/bootloader/optee-os-custom/ta/remoteproc/elf_parser.c:102
     804:	9b03      	ldr	r3, [sp, #12]
     806:	465a      	mov	r2, fp
     808:	4651      	mov	r1, sl
     80a:	4640      	mov	r0, r8
     80c:	9300      	str	r3, [sp, #0]
     80e:	f854 3c0b 	ldr.w	r3, [r4, #-11]
     812:	47c8      	blx	r9
/home/aom1/Work/Linux/target/STM32MP1-DK2/bootloader/optee-os-custom/ta/remoteproc/elf_parser.c:104
     814:	2800      	cmp	r0, #0
     816:	d0dd      	beq.n	7d4 <e32_parser_load_elf_image+0x58>
     818:	e7bf      	b.n	79a <e32_parser_load_elf_image+0x1e>
/home/aom1/Work/Linux/target/STM32MP1-DK2/bootloader/optee-os-custom/ta/remoteproc/elf_parser.c:79
     81a:	4802      	ldr	r0, [pc, #8]	; (824 <e32_parser_load_elf_image+0xa8>)
     81c:	e7bd      	b.n	79a <e32_parser_load_elf_image+0x1e>
     81e:	bf00      	nop
     820:	f0100001 	.word	0xf0100001
     824:	ffff0006 	.word	0xffff0006

00000828 <e32_parser_find_rsc_table>:
e32_parser_find_rsc_table():
/home/aom1/Work/Linux/target/STM32MP1-DK2/bootloader/optee-os-custom/ta/remoteproc/elf_parser.c:114
     828:	e92d 4ff0 	stmdb	sp!, {r4, r5, r6, r7, r8, r9, sl, fp, lr}
     82c:	b085      	sub	sp, #20
/home/aom1/Work/Linux/target/STM32MP1-DK2/bootloader/optee-os-custom/ta/remoteproc/elf_parser.c:122
     82e:	6a04      	ldr	r4, [r0, #32]
/home/aom1/Work/Linux/target/STM32MP1-DK2/bootloader/optee-os-custom/ta/remoteproc/elf_parser.c:114
     830:	4605      	mov	r5, r0
     832:	9203      	str	r2, [sp, #12]
     834:	460e      	mov	r6, r1
/home/aom1/Work/Linux/target/STM32MP1-DK2/bootloader/optee-os-custom/ta/remoteproc/elf_parser.c:122
     836:	4404      	add	r4, r0
/home/aom1/Work/Linux/target/STM32MP1-DK2/bootloader/optee-os-custom/ta/remoteproc/elf_parser.c:114
     838:	4699      	mov	r9, r3
/home/aom1/Work/Linux/target/STM32MP1-DK2/bootloader/optee-os-custom/ta/remoteproc/elf_parser.c:123
     83a:	f014 0803 	ands.w	r8, r4, #3
     83e:	f040 80af 	bne.w	9a0 <e32_parser_find_rsc_table+0x178>
/home/aom1/Work/Linux/target/STM32MP1-DK2/bootloader/optee-os-custom/ta/remoteproc/elf_parser.c:124 (discriminator 1)
     842:	460a      	mov	r2, r1
     844:	4601      	mov	r1, r0
     846:	4620      	mov	r0, r4
     848:	f7ff ff1e 	bl	688 <va_in_fwm_image_range>
/home/aom1/Work/Linux/target/STM32MP1-DK2/bootloader/optee-os-custom/ta/remoteproc/elf_parser.c:123 (discriminator 1)
     84c:	2800      	cmp	r0, #0
     84e:	f000 80a7 	beq.w	9a0 <e32_parser_find_rsc_table+0x178>
/home/aom1/Work/Linux/target/STM32MP1-DK2/bootloader/optee-os-custom/ta/remoteproc/elf_parser.c:127
     852:	8e6b      	ldrh	r3, [r5, #50]	; 0x32
     854:	2228      	movs	r2, #40	; 0x28
/home/aom1/Work/Linux/target/STM32MP1-DK2/bootloader/optee-os-custom/ta/remoteproc/elf_parser.c:128
     856:	4629      	mov	r1, r5
/home/aom1/Work/Linux/target/STM32MP1-DK2/bootloader/optee-os-custom/ta/remoteproc/elf_parser.c:127
     858:	fb02 4303 	mla	r3, r2, r3, r4
/home/aom1/Work/Linux/target/STM32MP1-DK2/bootloader/optee-os-custom/ta/remoteproc/elf_parser.c:128
     85c:	4632      	mov	r2, r6
/home/aom1/Work/Linux/target/STM32MP1-DK2/bootloader/optee-os-custom/ta/remoteproc/elf_parser.c:127
     85e:	691f      	ldr	r7, [r3, #16]
     860:	442f      	add	r7, r5
/home/aom1/Work/Linux/target/STM32MP1-DK2/bootloader/optee-os-custom/ta/remoteproc/elf_parser.c:128
     862:	4638      	mov	r0, r7
     864:	f7ff ff10 	bl	688 <va_in_fwm_image_range>
     868:	2800      	cmp	r0, #0
     86a:	f000 8099 	beq.w	9a0 <e32_parser_find_rsc_table+0x178>
/home/aom1/Work/Linux/target/STM32MP1-DK2/bootloader/optee-os-custom/ta/remoteproc/elf_parser.c:138
     86e:	f8df b140 	ldr.w	fp, [pc, #320]	; 9b0 <e32_parser_find_rsc_table+0x188>
/home/aom1/Work/Linux/target/STM32MP1-DK2/bootloader/optee-os-custom/ta/remoteproc/elf_parser.c:131
     872:	f8b5 a030 	ldrh.w	sl, [r5, #48]	; 0x30
/home/aom1/Work/Linux/target/STM32MP1-DK2/bootloader/optee-os-custom/ta/remoteproc/elf_parser.c:138
     876:	44fb      	add	fp, pc
/home/aom1/Work/Linux/target/STM32MP1-DK2/bootloader/optee-os-custom/ta/remoteproc/elf_parser.c:131 (discriminator 1)
     878:	45c2      	cmp	sl, r8
     87a:	dc01      	bgt.n	880 <e32_parser_find_rsc_table+0x58>
/home/aom1/Work/Linux/target/STM32MP1-DK2/bootloader/optee-os-custom/ta/remoteproc/elf_parser.c:143
     87c:	4849      	ldr	r0, [pc, #292]	; (9a4 <e32_parser_find_rsc_table+0x17c>)
     87e:	e028      	b.n	8d2 <e32_parser_find_rsc_table+0xaa>
/home/aom1/Work/Linux/target/STM32MP1-DK2/bootloader/optee-os-custom/ta/remoteproc/elf_parser.c:135
     880:	4632      	mov	r2, r6
     882:	4629      	mov	r1, r5
     884:	4620      	mov	r0, r4
     886:	f7ff feff 	bl	688 <va_in_fwm_image_range>
     88a:	2800      	cmp	r0, #0
     88c:	f000 8088 	beq.w	9a0 <e32_parser_find_rsc_table+0x178>
/home/aom1/Work/Linux/target/STM32MP1-DK2/bootloader/optee-os-custom/ta/remoteproc/elf_parser.c:138
     890:	6820      	ldr	r0, [r4, #0]
     892:	4659      	mov	r1, fp
     894:	4438      	add	r0, r7
     896:	f008 fbfe 	bl	9096 <strcmp>
     89a:	b118      	cbz	r0, 8a4 <e32_parser_find_rsc_table+0x7c>
/home/aom1/Work/Linux/target/STM32MP1-DK2/bootloader/optee-os-custom/ta/remoteproc/elf_parser.c:131 (discriminator 1)
     89c:	f108 0801 	add.w	r8, r8, #1
     8a0:	3428      	adds	r4, #40	; 0x28
     8a2:	e7e9      	b.n	878 <e32_parser_find_rsc_table+0x50>
/home/aom1/Work/Linux/target/STM32MP1-DK2/bootloader/optee-os-custom/ta/remoteproc/elf_parser.c:132
     8a4:	6961      	ldr	r1, [r4, #20]
/home/aom1/Work/Linux/target/STM32MP1-DK2/bootloader/optee-os-custom/ta/remoteproc/elf_parser.c:141
     8a6:	2900      	cmp	r1, #0
     8a8:	d0e8      	beq.n	87c <e32_parser_find_rsc_table+0x54>
/home/aom1/Work/Linux/target/STM32MP1-DK2/bootloader/optee-os-custom/ta/remoteproc/elf_parser.c:133
     8aa:	6922      	ldr	r2, [r4, #16]
/home/aom1/Work/Linux/target/STM32MP1-DK2/bootloader/optee-os-custom/ta/remoteproc/elf_parser.c:146
     8ac:	188f      	adds	r7, r1, r2
     8ae:	bf2c      	ite	cs
     8b0:	2301      	movcs	r3, #1
     8b2:	2300      	movcc	r3, #0
     8b4:	42b7      	cmp	r7, r6
     8b6:	d800      	bhi.n	8ba <e32_parser_find_rsc_table+0x92>
/home/aom1/Work/Linux/target/STM32MP1-DK2/bootloader/optee-os-custom/ta/remoteproc/elf_parser.c:146 (discriminator 1)
     8b8:	b173      	cbz	r3, 8d8 <e32_parser_find_rsc_table+0xb0>
/home/aom1/Work/Linux/target/STM32MP1-DK2/bootloader/optee-os-custom/ta/remoteproc/elf_parser.c:147
     8ba:	4b3e      	ldr	r3, [pc, #248]	; (9b4 <e32_parser_find_rsc_table+0x18c>)
     8bc:	2193      	movs	r1, #147	; 0x93
     8be:	483e      	ldr	r0, [pc, #248]	; (9b8 <e32_parser_find_rsc_table+0x190>)
     8c0:	447b      	add	r3, pc
     8c2:	9300      	str	r3, [sp, #0]
     8c4:	2301      	movs	r3, #1
     8c6:	4478      	add	r0, pc
     8c8:	461a      	mov	r2, r3
/home/aom1/Work/Linux/target/STM32MP1-DK2/bootloader/optee-os-custom/ta/remoteproc/elf_parser.c:152
     8ca:	3025      	adds	r0, #37	; 0x25
     8cc:	f000 f9a8 	bl	c20 <trace_printf>
/home/aom1/Work/Linux/target/STM32MP1-DK2/bootloader/optee-os-custom/ta/remoteproc/elf_parser.c:153
     8d0:	4835      	ldr	r0, [pc, #212]	; (9a8 <e32_parser_find_rsc_table+0x180>)
/home/aom1/Work/Linux/target/STM32MP1-DK2/bootloader/optee-os-custom/ta/remoteproc/elf_parser.c:186
     8d2:	b005      	add	sp, #20
     8d4:	e8bd 8ff0 	ldmia.w	sp!, {r4, r5, r6, r7, r8, r9, sl, fp, pc}
/home/aom1/Work/Linux/target/STM32MP1-DK2/bootloader/optee-os-custom/ta/remoteproc/elf_parser.c:151
     8d8:	290f      	cmp	r1, #15
     8da:	d808      	bhi.n	8ee <e32_parser_find_rsc_table+0xc6>
/home/aom1/Work/Linux/target/STM32MP1-DK2/bootloader/optee-os-custom/ta/remoteproc/elf_parser.c:152
     8dc:	4b37      	ldr	r3, [pc, #220]	; (9bc <e32_parser_find_rsc_table+0x194>)
     8de:	2198      	movs	r1, #152	; 0x98
     8e0:	4837      	ldr	r0, [pc, #220]	; (9c0 <e32_parser_find_rsc_table+0x198>)
     8e2:	447b      	add	r3, pc
     8e4:	9300      	str	r3, [sp, #0]
     8e6:	2301      	movs	r3, #1
     8e8:	4478      	add	r0, pc
     8ea:	461a      	mov	r2, r3
     8ec:	e7ed      	b.n	8ca <e32_parser_find_rsc_table+0xa2>
/home/aom1/Work/Linux/target/STM32MP1-DK2/bootloader/optee-os-custom/ta/remoteproc/elf_parser.c:156
     8ee:	18ab      	adds	r3, r5, r2
/home/aom1/Work/Linux/target/STM32MP1-DK2/bootloader/optee-os-custom/ta/remoteproc/elf_parser.c:157
     8f0:	079e      	lsls	r6, r3, #30
     8f2:	d155      	bne.n	9a0 <e32_parser_find_rsc_table+0x178>
/home/aom1/Work/Linux/target/STM32MP1-DK2/bootloader/optee-os-custom/ta/remoteproc/elf_parser.c:160
     8f4:	5caa      	ldrb	r2, [r5, r2]
     8f6:	785d      	ldrb	r5, [r3, #1]
     8f8:	ea42 2205 	orr.w	r2, r2, r5, lsl #8
     8fc:	789d      	ldrb	r5, [r3, #2]
     8fe:	ea42 4205 	orr.w	r2, r2, r5, lsl #16
     902:	78dd      	ldrb	r5, [r3, #3]
     904:	ea42 6205 	orr.w	r2, r2, r5, lsl #24
     908:	2a01      	cmp	r2, #1
     90a:	d00c      	beq.n	926 <e32_parser_find_rsc_table+0xfe>
/home/aom1/Work/Linux/target/STM32MP1-DK2/bootloader/optee-os-custom/ta/remoteproc/elf_parser.c:161
     90c:	4b2d      	ldr	r3, [pc, #180]	; (9c4 <e32_parser_find_rsc_table+0x19c>)
     90e:	21a1      	movs	r1, #161	; 0xa1
     910:	482d      	ldr	r0, [pc, #180]	; (9c8 <e32_parser_find_rsc_table+0x1a0>)
     912:	447b      	add	r3, pc
     914:	9300      	str	r3, [sp, #0]
     916:	2301      	movs	r3, #1
     918:	4478      	add	r0, pc
     91a:	9201      	str	r2, [sp, #4]
     91c:	3025      	adds	r0, #37	; 0x25
     91e:	461a      	mov	r2, r3
     920:	f000 f97e 	bl	c20 <trace_printf>
/home/aom1/Work/Linux/target/STM32MP1-DK2/bootloader/optee-os-custom/ta/remoteproc/elf_parser.c:162
     924:	e7d4      	b.n	8d0 <e32_parser_find_rsc_table+0xa8>
/home/aom1/Work/Linux/target/STM32MP1-DK2/bootloader/optee-os-custom/ta/remoteproc/elf_parser.c:165
     926:	7a5d      	ldrb	r5, [r3, #9]
     928:	7a1a      	ldrb	r2, [r3, #8]
     92a:	ea42 2205 	orr.w	r2, r2, r5, lsl #8
     92e:	7a9d      	ldrb	r5, [r3, #10]
     930:	ea42 4205 	orr.w	r2, r2, r5, lsl #16
     934:	7add      	ldrb	r5, [r3, #11]
     936:	ea52 6205 	orrs.w	r2, r2, r5, lsl #24
     93a:	d10a      	bne.n	952 <e32_parser_find_rsc_table+0x12a>
/home/aom1/Work/Linux/target/STM32MP1-DK2/bootloader/optee-os-custom/ta/remoteproc/elf_parser.c:165 (discriminator 1)
     93c:	7b5d      	ldrb	r5, [r3, #13]
     93e:	7b1a      	ldrb	r2, [r3, #12]
     940:	ea42 2205 	orr.w	r2, r2, r5, lsl #8
     944:	7b9d      	ldrb	r5, [r3, #14]
     946:	ea42 4205 	orr.w	r2, r2, r5, lsl #16
     94a:	7bdd      	ldrb	r5, [r3, #15]
     94c:	ea52 6205 	orrs.w	r2, r2, r5, lsl #24
     950:	d008      	beq.n	964 <e32_parser_find_rsc_table+0x13c>
/home/aom1/Work/Linux/target/STM32MP1-DK2/bootloader/optee-os-custom/ta/remoteproc/elf_parser.c:166
     952:	4b1e      	ldr	r3, [pc, #120]	; (9cc <e32_parser_find_rsc_table+0x1a4>)
     954:	21a6      	movs	r1, #166	; 0xa6
     956:	481e      	ldr	r0, [pc, #120]	; (9d0 <e32_parser_find_rsc_table+0x1a8>)
     958:	447b      	add	r3, pc
     95a:	9300      	str	r3, [sp, #0]
     95c:	2301      	movs	r3, #1
     95e:	4478      	add	r0, pc
     960:	461a      	mov	r2, r3
     962:	e7b2      	b.n	8ca <e32_parser_find_rsc_table+0xa2>
/home/aom1/Work/Linux/target/STM32MP1-DK2/bootloader/optee-os-custom/ta/remoteproc/elf_parser.c:170
     964:	795d      	ldrb	r5, [r3, #5]
     966:	791a      	ldrb	r2, [r3, #4]
     968:	ea42 2205 	orr.w	r2, r2, r5, lsl #8
     96c:	799d      	ldrb	r5, [r3, #6]
     96e:	79db      	ldrb	r3, [r3, #7]
     970:	ea42 4205 	orr.w	r2, r2, r5, lsl #16
     974:	ea42 6303 	orr.w	r3, r2, r3, lsl #24
     978:	3304      	adds	r3, #4
     97a:	ebb1 0f83 	cmp.w	r1, r3, lsl #2
     97e:	d208      	bcs.n	992 <e32_parser_find_rsc_table+0x16a>
/home/aom1/Work/Linux/target/STM32MP1-DK2/bootloader/optee-os-custom/ta/remoteproc/elf_parser.c:172
     980:	4b14      	ldr	r3, [pc, #80]	; (9d4 <e32_parser_find_rsc_table+0x1ac>)
     982:	21ac      	movs	r1, #172	; 0xac
     984:	4814      	ldr	r0, [pc, #80]	; (9d8 <e32_parser_find_rsc_table+0x1b0>)
     986:	447b      	add	r3, pc
     988:	9300      	str	r3, [sp, #0]
     98a:	2301      	movs	r3, #1
     98c:	4478      	add	r0, pc
     98e:	461a      	mov	r2, r3
     990:	e79b      	b.n	8ca <e32_parser_find_rsc_table+0xa2>
/home/aom1/Work/Linux/target/STM32MP1-DK2/bootloader/optee-os-custom/ta/remoteproc/elf_parser.c:179
     992:	68e3      	ldr	r3, [r4, #12]
     994:	9a03      	ldr	r2, [sp, #12]
     996:	6013      	str	r3, [r2, #0]
/home/aom1/Work/Linux/target/STM32MP1-DK2/bootloader/optee-os-custom/ta/remoteproc/elf_parser.c:180
     998:	6963      	ldr	r3, [r4, #20]
     99a:	f8c9 3000 	str.w	r3, [r9]
/home/aom1/Work/Linux/target/STM32MP1-DK2/bootloader/optee-os-custom/ta/remoteproc/elf_parser.c:182
     99e:	e798      	b.n	8d2 <e32_parser_find_rsc_table+0xaa>
/home/aom1/Work/Linux/target/STM32MP1-DK2/bootloader/optee-os-custom/ta/remoteproc/elf_parser.c:125
     9a0:	4802      	ldr	r0, [pc, #8]	; (9ac <e32_parser_find_rsc_table+0x184>)
     9a2:	e796      	b.n	8d2 <e32_parser_find_rsc_table+0xaa>
     9a4:	ffff000b 	.word	0xffff000b
     9a8:	ffff0005 	.word	0xffff0005
     9ac:	f0100001 	.word	0xf0100001
     9b0:	00008faa 	.word	0x00008faa
     9b4:	00008f70 	.word	0x00008f70
     9b8:	00008ff1 	.word	0x00008ff1
     9bc:	00008f67 	.word	0x00008f67
     9c0:	00008fcf 	.word	0x00008fcf
     9c4:	00008f59 	.word	0x00008f59
     9c8:	00008f9f 	.word	0x00008f9f
     9cc:	00008f2d 	.word	0x00008f2d
     9d0:	00008f59 	.word	0x00008f59
     9d4:	00008f17 	.word	0x00008f17
     9d8:	00008f2b 	.word	0x00008f2b

000009dc <__ta_entry>:
__ta_entry():
/home/aom1/Work/Linux/target/STM32MP1-DK2/bootloader/optee-os-custom/build/export-ta_arm32/src/ta_entry_a32.S:20
     9dc:	fa0021a5 	blx	9078 <__ta_entry_c>

000009e0 <memcpy>:
memcpy():
/home/aom1/Work/Linux/target/STM32MP1-DK2/bootloader/optee-os-custom/lib/libutils/isoc/newlib/memcpy.c:106
     9e0:	2a0f      	cmp	r2, #15
     9e2:	d956      	bls.n	a92 <memcpy+0xb2>
/home/aom1/Work/Linux/target/STM32MP1-DK2/bootloader/optee-os-custom/lib/libutils/isoc/newlib/memcpy.c:106 (discriminator 1)
     9e4:	ea40 0301 	orr.w	r3, r0, r1
     9e8:	079b      	lsls	r3, r3, #30
     9ea:	d161      	bne.n	ab0 <memcpy+0xd0>
     9ec:	f1a2 0310 	sub.w	r3, r2, #16
     9f0:	f101 0c20 	add.w	ip, r1, #32
/home/aom1/Work/Linux/target/STM32MP1-DK2/bootloader/optee-os-custom/lib/libutils/isoc/newlib/memcpy.c:87
     9f4:	b570      	push	{r4, r5, r6, lr}
     9f6:	f101 0410 	add.w	r4, r1, #16
     9fa:	f023 060f 	bic.w	r6, r3, #15
     9fe:	f100 0510 	add.w	r5, r0, #16
     a02:	44b4      	add	ip, r6
     a04:	ea4f 1e13 	mov.w	lr, r3, lsr #4
/home/aom1/Work/Linux/target/STM32MP1-DK2/bootloader/optee-os-custom/lib/libutils/isoc/newlib/memcpy.c:112
     a08:	f854 3c10 	ldr.w	r3, [r4, #-16]
/home/aom1/Work/Linux/target/STM32MP1-DK2/bootloader/optee-os-custom/lib/libutils/isoc/newlib/memcpy.c:111
     a0c:	3410      	adds	r4, #16
     a0e:	4564      	cmp	r4, ip
     a10:	f105 0510 	add.w	r5, r5, #16
/home/aom1/Work/Linux/target/STM32MP1-DK2/bootloader/optee-os-custom/lib/libutils/isoc/newlib/memcpy.c:112
     a14:	f845 3c20 	str.w	r3, [r5, #-32]
/home/aom1/Work/Linux/target/STM32MP1-DK2/bootloader/optee-os-custom/lib/libutils/isoc/newlib/memcpy.c:113
     a18:	f854 3c1c 	ldr.w	r3, [r4, #-28]
     a1c:	f845 3c1c 	str.w	r3, [r5, #-28]
/home/aom1/Work/Linux/target/STM32MP1-DK2/bootloader/optee-os-custom/lib/libutils/isoc/newlib/memcpy.c:114
     a20:	f854 3c18 	ldr.w	r3, [r4, #-24]
     a24:	f845 3c18 	str.w	r3, [r5, #-24]
/home/aom1/Work/Linux/target/STM32MP1-DK2/bootloader/optee-os-custom/lib/libutils/isoc/newlib/memcpy.c:115
     a28:	f854 3c14 	ldr.w	r3, [r4, #-20]
     a2c:	f845 3c14 	str.w	r3, [r5, #-20]
/home/aom1/Work/Linux/target/STM32MP1-DK2/bootloader/optee-os-custom/lib/libutils/isoc/newlib/memcpy.c:111
     a30:	d1ea      	bne.n	a08 <memcpy+0x28>
     a32:	f10e 0301 	add.w	r3, lr, #1
/home/aom1/Work/Linux/target/STM32MP1-DK2/bootloader/optee-os-custom/lib/libutils/isoc/newlib/memcpy.c:120
     a36:	f012 0f0c 	tst.w	r2, #12
/home/aom1/Work/Linux/target/STM32MP1-DK2/bootloader/optee-os-custom/lib/libutils/isoc/newlib/memcpy.c:116
     a3a:	f002 040f 	and.w	r4, r2, #15
     a3e:	ea4f 1303 	mov.w	r3, r3, lsl #4
/home/aom1/Work/Linux/target/STM32MP1-DK2/bootloader/optee-os-custom/lib/libutils/isoc/newlib/memcpy.c:120
     a42:	bf08      	it	eq
     a44:	4622      	moveq	r2, r4
/home/aom1/Work/Linux/target/STM32MP1-DK2/bootloader/optee-os-custom/lib/libutils/isoc/newlib/memcpy.c:115
     a46:	4419      	add	r1, r3
     a48:	4403      	add	r3, r0
/home/aom1/Work/Linux/target/STM32MP1-DK2/bootloader/optee-os-custom/lib/libutils/isoc/newlib/memcpy.c:120
     a4a:	d014      	beq.n	a76 <memcpy+0x96>
     a4c:	f1a3 0e04 	sub.w	lr, r3, #4
/home/aom1/Work/Linux/target/STM32MP1-DK2/bootloader/optee-os-custom/lib/libutils/isoc/newlib/memcpy.c:115
     a50:	460d      	mov	r5, r1
/home/aom1/Work/Linux/target/STM32MP1-DK2/bootloader/optee-os-custom/lib/libutils/isoc/newlib/memcpy.c:121
     a52:	f855 6b04 	ldr.w	r6, [r5], #4
     a56:	eba4 0c05 	sub.w	ip, r4, r5
/home/aom1/Work/Linux/target/STM32MP1-DK2/bootloader/optee-os-custom/lib/libutils/isoc/newlib/memcpy.c:120
     a5a:	448c      	add	ip, r1
/home/aom1/Work/Linux/target/STM32MP1-DK2/bootloader/optee-os-custom/lib/libutils/isoc/newlib/memcpy.c:121
     a5c:	f84e 6f04 	str.w	r6, [lr, #4]!
/home/aom1/Work/Linux/target/STM32MP1-DK2/bootloader/optee-os-custom/lib/libutils/isoc/newlib/memcpy.c:120
     a60:	f1bc 0f03 	cmp.w	ip, #3
     a64:	d8f5      	bhi.n	a52 <memcpy+0x72>
     a66:	3c04      	subs	r4, #4
/home/aom1/Work/Linux/target/STM32MP1-DK2/bootloader/optee-os-custom/lib/libutils/isoc/newlib/memcpy.c:122
     a68:	f002 0203 	and.w	r2, r2, #3
     a6c:	f024 0403 	bic.w	r4, r4, #3
     a70:	3404      	adds	r4, #4
/home/aom1/Work/Linux/target/STM32MP1-DK2/bootloader/optee-os-custom/lib/libutils/isoc/newlib/memcpy.c:121
     a72:	4423      	add	r3, r4
     a74:	4421      	add	r1, r4
/home/aom1/Work/Linux/target/STM32MP1-DK2/bootloader/optee-os-custom/lib/libutils/isoc/newlib/memcpy.c:130
     a76:	f102 3cff 	add.w	ip, r2, #4294967295	; 0xffffffff
     a7a:	3b01      	subs	r3, #1
     a7c:	f10c 0c01 	add.w	ip, ip, #1
     a80:	448c      	add	ip, r1
     a82:	b12a      	cbz	r2, a90 <memcpy+0xb0>
/home/aom1/Work/Linux/target/STM32MP1-DK2/bootloader/optee-os-custom/lib/libutils/isoc/newlib/memcpy.c:131
     a84:	f811 2b01 	ldrb.w	r2, [r1], #1
/home/aom1/Work/Linux/target/STM32MP1-DK2/bootloader/optee-os-custom/lib/libutils/isoc/newlib/memcpy.c:130
     a88:	4561      	cmp	r1, ip
/home/aom1/Work/Linux/target/STM32MP1-DK2/bootloader/optee-os-custom/lib/libutils/isoc/newlib/memcpy.c:131
     a8a:	f803 2f01 	strb.w	r2, [r3, #1]!
/home/aom1/Work/Linux/target/STM32MP1-DK2/bootloader/optee-os-custom/lib/libutils/isoc/newlib/memcpy.c:130
     a8e:	d1f9      	bne.n	a84 <memcpy+0xa4>
/home/aom1/Work/Linux/target/STM32MP1-DK2/bootloader/optee-os-custom/lib/libutils/isoc/newlib/memcpy.c:135
     a90:	bd70      	pop	{r4, r5, r6, pc}
/home/aom1/Work/Linux/target/STM32MP1-DK2/bootloader/optee-os-custom/lib/libutils/isoc/newlib/memcpy.c:99
     a92:	4603      	mov	r3, r0
/home/aom1/Work/Linux/target/STM32MP1-DK2/bootloader/optee-os-custom/lib/libutils/isoc/newlib/memcpy.c:130
     a94:	f102 3cff 	add.w	ip, r2, #4294967295	; 0xffffffff
     a98:	b14a      	cbz	r2, aae <memcpy+0xce>
     a9a:	f10c 0c01 	add.w	ip, ip, #1
     a9e:	3b01      	subs	r3, #1
     aa0:	448c      	add	ip, r1
/home/aom1/Work/Linux/target/STM32MP1-DK2/bootloader/optee-os-custom/lib/libutils/isoc/newlib/memcpy.c:131
     aa2:	f811 2b01 	ldrb.w	r2, [r1], #1
/home/aom1/Work/Linux/target/STM32MP1-DK2/bootloader/optee-os-custom/lib/libutils/isoc/newlib/memcpy.c:130
     aa6:	4561      	cmp	r1, ip
/home/aom1/Work/Linux/target/STM32MP1-DK2/bootloader/optee-os-custom/lib/libutils/isoc/newlib/memcpy.c:131
     aa8:	f803 2f01 	strb.w	r2, [r3, #1]!
/home/aom1/Work/Linux/target/STM32MP1-DK2/bootloader/optee-os-custom/lib/libutils/isoc/newlib/memcpy.c:130
     aac:	d1f9      	bne.n	aa2 <memcpy+0xc2>
/home/aom1/Work/Linux/target/STM32MP1-DK2/bootloader/optee-os-custom/lib/libutils/isoc/newlib/memcpy.c:135
     aae:	4770      	bx	lr
/home/aom1/Work/Linux/target/STM32MP1-DK2/bootloader/optee-os-custom/lib/libutils/isoc/newlib/memcpy.c:130
     ab0:	f102 3cff 	add.w	ip, r2, #4294967295	; 0xffffffff
/home/aom1/Work/Linux/target/STM32MP1-DK2/bootloader/optee-os-custom/lib/libutils/isoc/newlib/memcpy.c:99
     ab4:	4603      	mov	r3, r0
     ab6:	e7f0      	b.n	a9a <memcpy+0xba>

00000ab8 <trace_set_level>:
trace_set_level():
/home/aom1/Work/Linux/target/STM32MP1-DK2/bootloader/optee-os-custom/lib/libutils/ext/trace.c:24
     ab8:	4b04      	ldr	r3, [pc, #16]	; (acc <trace_set_level+0x14>)
/home/aom1/Work/Linux/target/STM32MP1-DK2/bootloader/optee-os-custom/lib/libutils/ext/trace.c:28
     aba:	2805      	cmp	r0, #5
     abc:	4a04      	ldr	r2, [pc, #16]	; (ad0 <trace_set_level+0x18>)
     abe:	bf28      	it	cs
     ac0:	2004      	movcs	r0, #4
/home/aom1/Work/Linux/target/STM32MP1-DK2/bootloader/optee-os-custom/lib/libutils/ext/trace.c:24
     ac2:	447b      	add	r3, pc
     ac4:	589b      	ldr	r3, [r3, r2]
     ac6:	6018      	str	r0, [r3, #0]
/home/aom1/Work/Linux/target/STM32MP1-DK2/bootloader/optee-os-custom/lib/libutils/ext/trace.c:29
     ac8:	4770      	bx	lr
     aca:	bf00      	nop
     acc:	0000a5c2 	.word	0x0000a5c2
     ad0:	00000010 	.word	0x00000010

00000ad4 <trace_get_level>:
trace_get_level():
/home/aom1/Work/Linux/target/STM32MP1-DK2/bootloader/optee-os-custom/lib/libutils/ext/trace.c:32
     ad4:	4b02      	ldr	r3, [pc, #8]	; (ae0 <trace_get_level+0xc>)
/home/aom1/Work/Linux/target/STM32MP1-DK2/bootloader/optee-os-custom/lib/libutils/ext/trace.c:33
     ad6:	4a03      	ldr	r2, [pc, #12]	; (ae4 <trace_get_level+0x10>)
/home/aom1/Work/Linux/target/STM32MP1-DK2/bootloader/optee-os-custom/lib/libutils/ext/trace.c:32
     ad8:	447b      	add	r3, pc
/home/aom1/Work/Linux/target/STM32MP1-DK2/bootloader/optee-os-custom/lib/libutils/ext/trace.c:33
     ada:	589b      	ldr	r3, [r3, r2]
/home/aom1/Work/Linux/target/STM32MP1-DK2/bootloader/optee-os-custom/lib/libutils/ext/trace.c:34
     adc:	6818      	ldr	r0, [r3, #0]
     ade:	4770      	bx	lr
     ae0:	0000a5ac 	.word	0x0000a5ac
     ae4:	00000010 	.word	0x00000010

00000ae8 <trace_vprintf>:
trace_vprintf():
/home/aom1/Work/Linux/target/STM32MP1-DK2/bootloader/optee-os-custom/lib/libutils/ext/trace.c:113
     ae8:	e92d 47f0 	stmdb	sp!, {r4, r5, r6, r7, r8, r9, sl, lr}
     aec:	4607      	mov	r7, r0
     aee:	4e42      	ldr	r6, [pc, #264]	; (bf8 <trace_vprintf+0x110>)
     af0:	b0c2      	sub	sp, #264	; 0x108
     af2:	4688      	mov	r8, r1
     af4:	4614      	mov	r4, r2
     af6:	447e      	add	r6, pc
/home/aom1/Work/Linux/target/STM32MP1-DK2/bootloader/optee-os-custom/lib/libutils/ext/trace.c:118
     af8:	469a      	mov	sl, r3
     afa:	2b00      	cmp	r3, #0
     afc:	d068      	beq.n	bd0 <trace_vprintf+0xe8>
/home/aom1/Work/Linux/target/STM32MP1-DK2/bootloader/optee-os-custom/lib/libutils/ext/trace.c:118 (discriminator 1)
     afe:	4b3f      	ldr	r3, [pc, #252]	; (bfc <trace_vprintf+0x114>)
     b00:	58f3      	ldr	r3, [r6, r3]
     b02:	681b      	ldr	r3, [r3, #0]
     b04:	4293      	cmp	r3, r2
     b06:	db60      	blt.n	bca <trace_vprintf+0xe2>
trace_level_to_string():
/home/aom1/Work/Linux/target/STM32MP1-DK2/bootloader/optee-os-custom/lib/libutils/ext/trace.c:51
     b08:	2a04      	cmp	r2, #4
     b0a:	bf94      	ite	ls
     b0c:	4613      	movls	r3, r2
     b0e:	2300      	movhi	r3, #0
/home/aom1/Work/Linux/target/STM32MP1-DK2/bootloader/optee-os-custom/lib/libutils/ext/trace.c:54
     b10:	4a3b      	ldr	r2, [pc, #236]	; (c00 <trace_vprintf+0x118>)
     b12:	447a      	add	r2, pc
     b14:	5cd3      	ldrb	r3, [r2, r3]
trace_vprintf():
/home/aom1/Work/Linux/target/STM32MP1-DK2/bootloader/optee-os-custom/lib/libutils/ext/trace.c:122
     b16:	4a3b      	ldr	r2, [pc, #236]	; (c04 <trace_vprintf+0x11c>)
     b18:	ad02      	add	r5, sp, #8
     b1a:	f44f 7180 	mov.w	r1, #256	; 0x100
     b1e:	4628      	mov	r0, r5
     b20:	447a      	add	r2, pc
     b22:	f000 f8aa 	bl	c7a <snprintk>
/home/aom1/Work/Linux/target/STM32MP1-DK2/bootloader/optee-os-custom/lib/libutils/ext/trace.c:124
     b26:	f1b0 0900 	subs.w	r9, r0, #0
     b2a:	db4e      	blt.n	bca <trace_vprintf+0xe2>
/home/aom1/Work/Linux/target/STM32MP1-DK2/bootloader/optee-os-custom/lib/libutils/ext/trace.c:129
     b2c:	4b36      	ldr	r3, [pc, #216]	; (c08 <trace_vprintf+0x120>)
     b2e:	f5c9 7180 	rsb	r1, r9, #256	; 0x100
     b32:	4a36      	ldr	r2, [pc, #216]	; (c0c <trace_vprintf+0x124>)
     b34:	58f3      	ldr	r3, [r6, r3]
     b36:	447a      	add	r2, pc
     b38:	eb05 0009 	add.w	r0, r5, r9
     b3c:	f000 f89d 	bl	c7a <snprintk>
/home/aom1/Work/Linux/target/STM32MP1-DK2/bootloader/optee-os-custom/lib/libutils/ext/trace.c:131
     b40:	2800      	cmp	r0, #0
     b42:	db42      	blt.n	bca <trace_vprintf+0xe2>
/home/aom1/Work/Linux/target/STM32MP1-DK2/bootloader/optee-os-custom/lib/libutils/ext/trace.c:133
     b44:	eb00 0609 	add.w	r6, r0, r9
/home/aom1/Work/Linux/target/STM32MP1-DK2/bootloader/optee-os-custom/lib/libutils/ext/trace.c:135
     b48:	f1ba 0f00 	cmp.w	sl, #0
     b4c:	d049      	beq.n	be2 <trace_vprintf+0xfa>
/home/aom1/Work/Linux/target/STM32MP1-DK2/bootloader/optee-os-custom/lib/libutils/ext/trace.c:135 (discriminator 1)
     b4e:	231a      	movs	r3, #26
     b50:	40e3      	lsrs	r3, r4
     b52:	07db      	lsls	r3, r3, #31
     b54:	d545      	bpl.n	be2 <trace_vprintf+0xfa>
/home/aom1/Work/Linux/target/STM32MP1-DK2/bootloader/optee-os-custom/lib/libutils/ext/trace.c:137
     b56:	19ac      	adds	r4, r5, r6
print_thread_id():
/home/aom1/Work/Linux/target/STM32MP1-DK2/bootloader/optee-os-custom/lib/libutils/ext/trace.c:66
     b58:	f000 fc28 	bl	13ac <trace_ext_get_thread_id>
/home/aom1/Work/Linux/target/STM32MP1-DK2/bootloader/optee-os-custom/lib/libutils/ext/trace.c:68
     b5c:	2800      	cmp	r0, #0
trace_vprintf():
/home/aom1/Work/Linux/target/STM32MP1-DK2/bootloader/optee-os-custom/lib/libutils/ext/trace.c:137
     b5e:	f5c6 7980 	rsb	r9, r6, #256	; 0x100
print_thread_id():
/home/aom1/Work/Linux/target/STM32MP1-DK2/bootloader/optee-os-custom/lib/libutils/ext/trace.c:68
     b62:	db37      	blt.n	bd4 <trace_vprintf+0xec>
/home/aom1/Work/Linux/target/STM32MP1-DK2/bootloader/optee-os-custom/lib/libutils/ext/trace.c:69
     b64:	4a2a      	ldr	r2, [pc, #168]	; (c10 <trace_vprintf+0x128>)
     b66:	2301      	movs	r3, #1
     b68:	9000      	str	r0, [sp, #0]
     b6a:	447a      	add	r2, pc
/home/aom1/Work/Linux/target/STM32MP1-DK2/bootloader/optee-os-custom/lib/libutils/ext/trace.c:71
     b6c:	4649      	mov	r1, r9
     b6e:	4620      	mov	r0, r4
     b70:	f000 f883 	bl	c7a <snprintk>
trace_vprintf():
/home/aom1/Work/Linux/target/STM32MP1-DK2/bootloader/optee-os-custom/lib/libutils/ext/trace.c:144
     b74:	2800      	cmp	r0, #0
     b76:	db28      	blt.n	bca <trace_vprintf+0xe2>
/home/aom1/Work/Linux/target/STM32MP1-DK2/bootloader/optee-os-custom/lib/libutils/ext/trace.c:146
     b78:	1984      	adds	r4, r0, r6
/home/aom1/Work/Linux/target/STM32MP1-DK2/bootloader/optee-os-custom/lib/libutils/ext/trace.c:148
     b7a:	b167      	cbz	r7, b96 <trace_vprintf+0xae>
/home/aom1/Work/Linux/target/STM32MP1-DK2/bootloader/optee-os-custom/lib/libutils/ext/trace.c:149
     b7c:	4a25      	ldr	r2, [pc, #148]	; (c14 <trace_vprintf+0x12c>)
     b7e:	463b      	mov	r3, r7
     b80:	1928      	adds	r0, r5, r4
     b82:	f5c4 7180 	rsb	r1, r4, #256	; 0x100
     b86:	447a      	add	r2, pc
     b88:	f8cd 8000 	str.w	r8, [sp]
     b8c:	f000 f875 	bl	c7a <snprintk>
/home/aom1/Work/Linux/target/STM32MP1-DK2/bootloader/optee-os-custom/lib/libutils/ext/trace.c:151
     b90:	2800      	cmp	r0, #0
     b92:	db1a      	blt.n	bca <trace_vprintf+0xe2>
/home/aom1/Work/Linux/target/STM32MP1-DK2/bootloader/optee-os-custom/lib/libutils/ext/trace.c:153
     b94:	4404      	add	r4, r0
/home/aom1/Work/Linux/target/STM32MP1-DK2/bootloader/optee-os-custom/lib/libutils/ext/trace.c:163
     b96:	1928      	adds	r0, r5, r4
     b98:	f5c4 7180 	rsb	r1, r4, #256	; 0x100
     b9c:	e9dd 234a 	ldrd	r2, r3, [sp, #296]	; 0x128
     ba0:	f000 f864 	bl	c6c <vsnprintk>
/home/aom1/Work/Linux/target/STM32MP1-DK2/bootloader/optee-os-custom/lib/libutils/ext/trace.c:164
     ba4:	2800      	cmp	r0, #0
/home/aom1/Work/Linux/target/STM32MP1-DK2/bootloader/optee-os-custom/lib/libutils/ext/trace.c:170
     ba6:	f04f 030a 	mov.w	r3, #10
/home/aom1/Work/Linux/target/STM32MP1-DK2/bootloader/optee-os-custom/lib/libutils/ext/trace.c:165
     baa:	bfc8      	it	gt
     bac:	1824      	addgt	r4, r4, r0
/home/aom1/Work/Linux/target/STM32MP1-DK2/bootloader/optee-os-custom/lib/libutils/ext/trace.c:167
     bae:	2cfe      	cmp	r4, #254	; 0xfe
     bb0:	bf28      	it	cs
     bb2:	24fe      	movcs	r4, #254	; 0xfe
/home/aom1/Work/Linux/target/STM32MP1-DK2/bootloader/optee-os-custom/lib/libutils/ext/trace.c:170
     bb4:	552b      	strb	r3, [r5, r4]
/home/aom1/Work/Linux/target/STM32MP1-DK2/bootloader/optee-os-custom/lib/libutils/ext/trace.c:171
     bb6:	b114      	cbz	r4, bbe <trace_vprintf+0xd6>
/home/aom1/Work/Linux/target/STM32MP1-DK2/bootloader/optee-os-custom/lib/libutils/ext/trace.c:171 (discriminator 1)
     bb8:	5d2b      	ldrb	r3, [r5, r4]
     bba:	2b0a      	cmp	r3, #10
     bbc:	d019      	beq.n	bf2 <trace_vprintf+0x10a>
/home/aom1/Work/Linux/target/STM32MP1-DK2/bootloader/optee-os-custom/lib/libutils/ext/trace.c:174
     bbe:	442c      	add	r4, r5
     bc0:	2300      	movs	r3, #0
/home/aom1/Work/Linux/target/STM32MP1-DK2/bootloader/optee-os-custom/lib/libutils/ext/trace.c:176
     bc2:	4628      	mov	r0, r5
/home/aom1/Work/Linux/target/STM32MP1-DK2/bootloader/optee-os-custom/lib/libutils/ext/trace.c:174
     bc4:	70a3      	strb	r3, [r4, #2]
/home/aom1/Work/Linux/target/STM32MP1-DK2/bootloader/optee-os-custom/lib/libutils/ext/trace.c:176
     bc6:	f000 fbe7 	bl	1398 <trace_ext_puts>
/home/aom1/Work/Linux/target/STM32MP1-DK2/bootloader/optee-os-custom/lib/libutils/ext/trace.c:177
     bca:	b042      	add	sp, #264	; 0x108
     bcc:	e8bd 87f0 	ldmia.w	sp!, {r4, r5, r6, r7, r8, r9, sl, pc}
trace_level_to_string():
/home/aom1/Work/Linux/target/STM32MP1-DK2/bootloader/optee-os-custom/lib/libutils/ext/trace.c:49
     bd0:	234d      	movs	r3, #77	; 0x4d
     bd2:	e7a0      	b.n	b16 <trace_vprintf+0x2e>
print_thread_id():
/home/aom1/Work/Linux/target/STM32MP1-DK2/bootloader/optee-os-custom/lib/libutils/ext/trace.c:71
     bd4:	4b10      	ldr	r3, [pc, #64]	; (c18 <trace_vprintf+0x130>)
     bd6:	4a11      	ldr	r2, [pc, #68]	; (c1c <trace_vprintf+0x134>)
     bd8:	447b      	add	r3, pc
     bda:	9300      	str	r3, [sp, #0]
     bdc:	2301      	movs	r3, #1
     bde:	447a      	add	r2, pc
     be0:	e7c4      	b.n	b6c <trace_vprintf+0x84>
trace_vprintf():
/home/aom1/Work/Linux/target/STM32MP1-DK2/bootloader/optee-os-custom/lib/libutils/ext/trace.c:157
     be2:	2efe      	cmp	r6, #254	; 0xfe
     be4:	d8f1      	bhi.n	bca <trace_vprintf+0xe2>
/home/aom1/Work/Linux/target/STM32MP1-DK2/bootloader/optee-os-custom/lib/libutils/ext/trace.c:159
     be6:	2320      	movs	r3, #32
     be8:	1c74      	adds	r4, r6, #1
     bea:	55ab      	strb	r3, [r5, r6]
/home/aom1/Work/Linux/target/STM32MP1-DK2/bootloader/optee-os-custom/lib/libutils/ext/trace.c:160
     bec:	2300      	movs	r3, #0
     bee:	552b      	strb	r3, [r5, r4]
     bf0:	e7d1      	b.n	b96 <trace_vprintf+0xae>
/home/aom1/Work/Linux/target/STM32MP1-DK2/bootloader/optee-os-custom/lib/libutils/ext/trace.c:172
     bf2:	3c01      	subs	r4, #1
     bf4:	e7df      	b.n	bb6 <trace_vprintf+0xce>
     bf6:	bf00      	nop
     bf8:	0000a58e 	.word	0x0000a58e
     bfc:	00000010 	.word	0x00000010
     c00:	00008ead 	.word	0x00008ead
     c04:	00008e85 	.word	0x00008e85
     c08:	00000014 	.word	0x00000014
     c0c:	00008e73 	.word	0x00008e73
     c10:	00008e43 	.word	0x00008e43
     c14:	00008e32 	.word	0x00008e32
     c18:	00009613 	.word	0x00009613
     c1c:	00008dd5 	.word	0x00008dd5

00000c20 <trace_printf>:
trace_printf():
/home/aom1/Work/Linux/target/STM32MP1-DK2/bootloader/optee-os-custom/lib/libutils/ext/trace.c:104
     c20:	b530      	push	{r4, r5, lr}
     c22:	b085      	sub	sp, #20
     c24:	ac08      	add	r4, sp, #32
     c26:	f854 5b04 	ldr.w	r5, [r4], #4
/home/aom1/Work/Linux/target/STM32MP1-DK2/bootloader/optee-os-custom/lib/libutils/ext/trace.c:108
     c2a:	9401      	str	r4, [sp, #4]
     c2c:	9500      	str	r5, [sp, #0]
/home/aom1/Work/Linux/target/STM32MP1-DK2/bootloader/optee-os-custom/lib/libutils/ext/trace.c:107
     c2e:	9403      	str	r4, [sp, #12]
/home/aom1/Work/Linux/target/STM32MP1-DK2/bootloader/optee-os-custom/lib/libutils/ext/trace.c:108
     c30:	f7ff ff5a 	bl	ae8 <trace_vprintf>
/home/aom1/Work/Linux/target/STM32MP1-DK2/bootloader/optee-os-custom/lib/libutils/ext/trace.c:110
     c34:	b005      	add	sp, #20
     c36:	bd30      	pop	{r4, r5, pc}

00000c38 <dhex_dump>:
dhex_dump():
/home/aom1/Work/Linux/target/STM32MP1-DK2/bootloader/optee-os-custom/lib/libutils/ext/trace.c:287
     c38:	4770      	bx	lr
     c3a:	bf00      	nop

00000c3c <__vsnprintf>:
__vsnprintf():
/home/aom1/Work/Linux/target/STM32MP1-DK2/bootloader/optee-os-custom/lib/libutils/ext/snprintk.c:138
     c3c:	b57f      	push	{r0, r1, r2, r3, r4, r5, r6, lr}
     c3e:	4604      	mov	r4, r0
/home/aom1/Work/Linux/target/STM32MP1-DK2/bootloader/optee-os-custom/lib/libutils/ext/snprintk.c:142
     c40:	1866      	adds	r6, r4, r1
/home/aom1/Work/Linux/target/STM32MP1-DK2/bootloader/optee-os-custom/lib/libutils/ext/snprintk.c:138
     c42:	4610      	mov	r0, r2
/home/aom1/Work/Linux/target/STM32MP1-DK2/bootloader/optee-os-custom/lib/libutils/ext/snprintk.c:143
     c44:	f89d 2020 	ldrb.w	r2, [sp, #32]
/home/aom1/Work/Linux/target/STM32MP1-DK2/bootloader/optee-os-custom/lib/libutils/ext/snprintk.c:138
     c48:	460d      	mov	r5, r1
/home/aom1/Work/Linux/target/STM32MP1-DK2/bootloader/optee-os-custom/lib/libutils/ext/snprintk.c:142
     c4a:	9603      	str	r6, [sp, #12]
/home/aom1/Work/Linux/target/STM32MP1-DK2/bootloader/optee-os-custom/lib/libutils/ext/snprintk.c:143
     c4c:	a903      	add	r1, sp, #12
     c4e:	9200      	str	r2, [sp, #0]
     c50:	4622      	mov	r2, r4
     c52:	f000 f81f 	bl	c94 <kprintf.constprop.0>
/home/aom1/Work/Linux/target/STM32MP1-DK2/bootloader/optee-os-custom/lib/libutils/ext/snprintk.c:144
     c56:	b13c      	cbz	r4, c68 <__vsnprintf+0x2c>
/home/aom1/Work/Linux/target/STM32MP1-DK2/bootloader/optee-os-custom/lib/libutils/ext/snprintk.c:144 (discriminator 1)
     c58:	b135      	cbz	r5, c68 <__vsnprintf+0x2c>
/home/aom1/Work/Linux/target/STM32MP1-DK2/bootloader/optee-os-custom/lib/libutils/ext/snprintk.c:146
     c5a:	42a8      	cmp	r0, r5
     c5c:	f04f 0300 	mov.w	r3, #0
/home/aom1/Work/Linux/target/STM32MP1-DK2/bootloader/optee-os-custom/lib/libutils/ext/snprintk.c:147
     c60:	bf2c      	ite	cs
     c62:	f806 3c01 	strbcs.w	r3, [r6, #-1]
/home/aom1/Work/Linux/target/STM32MP1-DK2/bootloader/optee-os-custom/lib/libutils/ext/snprintk.c:149
     c66:	5423      	strbcc	r3, [r4, r0]
/home/aom1/Work/Linux/target/STM32MP1-DK2/bootloader/optee-os-custom/lib/libutils/ext/snprintk.c:152
     c68:	b004      	add	sp, #16
     c6a:	bd70      	pop	{r4, r5, r6, pc}

00000c6c <vsnprintk>:
vsnprintk():
/home/aom1/Work/Linux/target/STM32MP1-DK2/bootloader/optee-os-custom/lib/libutils/ext/snprintk.c:130
     c6c:	b513      	push	{r0, r1, r4, lr}
/home/aom1/Work/Linux/target/STM32MP1-DK2/bootloader/optee-os-custom/lib/libutils/ext/snprintk.c:131
     c6e:	2401      	movs	r4, #1
     c70:	9400      	str	r4, [sp, #0]
     c72:	f7ff ffe3 	bl	c3c <__vsnprintf>
/home/aom1/Work/Linux/target/STM32MP1-DK2/bootloader/optee-os-custom/lib/libutils/ext/snprintk.c:132
     c76:	b002      	add	sp, #8
     c78:	bd10      	pop	{r4, pc}

00000c7a <snprintk>:
snprintk():
/home/aom1/Work/Linux/target/STM32MP1-DK2/bootloader/optee-os-custom/lib/libutils/ext/snprintk.c:113
     c7a:	b40c      	push	{r2, r3}
     c7c:	b507      	push	{r0, r1, r2, lr}
     c7e:	ab04      	add	r3, sp, #16
     c80:	f853 2b04 	ldr.w	r2, [r3], #4
/home/aom1/Work/Linux/target/STM32MP1-DK2/bootloader/optee-os-custom/lib/libutils/ext/snprintk.c:117
     c84:	9301      	str	r3, [sp, #4]
/home/aom1/Work/Linux/target/STM32MP1-DK2/bootloader/optee-os-custom/lib/libutils/ext/snprintk.c:118
     c86:	f7ff fff1 	bl	c6c <vsnprintk>
/home/aom1/Work/Linux/target/STM32MP1-DK2/bootloader/optee-os-custom/lib/libutils/ext/snprintk.c:122
     c8a:	b003      	add	sp, #12
     c8c:	f85d eb04 	ldr.w	lr, [sp], #4
     c90:	b002      	add	sp, #8
     c92:	4770      	bx	lr

00000c94 <kprintf.constprop.0>:
kprintf():
/home/aom1/Work/Linux/target/STM32MP1-DK2/bootloader/optee-os-custom/lib/libutils/ext/snprintk.c:242
     c94:	e92d 4ff0 	stmdb	sp!, {r4, r5, r6, r7, r8, r9, sl, fp, lr}
     c98:	b09d      	sub	sp, #116	; 0x74
     c9a:	4616      	mov	r6, r2
     c9c:	4607      	mov	r7, r0
     c9e:	f89d 2098 	ldrb.w	r2, [sp, #152]	; 0x98
     ca2:	461d      	mov	r5, r3
/home/aom1/Work/Linux/target/STM32MP1-DK2/bootloader/optee-os-custom/lib/libutils/ext/snprintk.c:264
     ca4:	910c      	str	r1, [sp, #48]	; 0x30
/home/aom1/Work/Linux/target/STM32MP1-DK2/bootloader/optee-os-custom/lib/libutils/ext/snprintk.c:242
     ca6:	9211      	str	r2, [sp, #68]	; 0x44
/home/aom1/Work/Linux/target/STM32MP1-DK2/bootloader/optee-os-custom/lib/libutils/ext/snprintk.c:264
     ca8:	b179      	cbz	r1, cca <kprintf.constprop.0+0x36>
/home/aom1/Work/Linux/target/STM32MP1-DK2/bootloader/optee-os-custom/lib/libutils/ext/snprintk.c:265
     caa:	680b      	ldr	r3, [r1, #0]
/home/aom1/Work/Linux/target/STM32MP1-DK2/bootloader/optee-os-custom/lib/libutils/ext/snprintk.c:267
     cac:	930e      	str	r3, [sp, #56]	; 0x38
/home/aom1/Work/Linux/target/STM32MP1-DK2/bootloader/optee-os-custom/lib/libutils/ext/snprintk.c:275
     cae:	2300      	movs	r3, #0
     cb0:	930f      	str	r3, [sp, #60]	; 0x3c
/home/aom1/Work/Linux/target/STM32MP1-DK2/bootloader/optee-os-custom/lib/libutils/ext/snprintk.c:273
     cb2:	930b      	str	r3, [sp, #44]	; 0x2c
/home/aom1/Work/Linux/target/STM32MP1-DK2/bootloader/optee-os-custom/lib/libutils/ext/snprintk.c:281
     cb4:	783b      	ldrb	r3, [r7, #0]
     cb6:	2b25      	cmp	r3, #37	; 0x25
     cb8:	d016      	beq.n	ce8 <kprintf.constprop.0+0x54>
     cba:	b943      	cbnz	r3, cce <kprintf.constprop.0+0x3a>
/home/aom1/Work/Linux/target/STM32MP1-DK2/bootloader/optee-os-custom/lib/libutils/ext/snprintk.c:619
     cbc:	9b0c      	ldr	r3, [sp, #48]	; 0x30
     cbe:	b103      	cbz	r3, cc2 <kprintf.constprop.0+0x2e>
/home/aom1/Work/Linux/target/STM32MP1-DK2/bootloader/optee-os-custom/lib/libutils/ext/snprintk.c:620
     cc0:	601e      	str	r6, [r3, #0]
/home/aom1/Work/Linux/target/STM32MP1-DK2/bootloader/optee-os-custom/lib/libutils/ext/snprintk.c:622
     cc2:	980b      	ldr	r0, [sp, #44]	; 0x2c
     cc4:	b01d      	add	sp, #116	; 0x74
     cc6:	e8bd 8ff0 	ldmia.w	sp!, {r4, r5, r6, r7, r8, r9, sl, fp, pc}
/home/aom1/Work/Linux/target/STM32MP1-DK2/bootloader/optee-os-custom/lib/libutils/ext/snprintk.c:267
     cca:	9b0c      	ldr	r3, [sp, #48]	; 0x30
     ccc:	e7ee      	b.n	cac <kprintf.constprop.0+0x18>
/home/aom1/Work/Linux/target/STM32MP1-DK2/bootloader/optee-os-custom/lib/libutils/ext/snprintk.c:282
     cce:	9a0b      	ldr	r2, [sp, #44]	; 0x2c
     cd0:	3201      	adds	r2, #1
     cd2:	920b      	str	r2, [sp, #44]	; 0x2c
/home/aom1/Work/Linux/target/STM32MP1-DK2/bootloader/optee-os-custom/lib/libutils/ext/snprintk.c:283
     cd4:	b136      	cbz	r6, ce4 <kprintf.constprop.0+0x50>
     cd6:	9a0c      	ldr	r2, [sp, #48]	; 0x30
     cd8:	b112      	cbz	r2, ce0 <kprintf.constprop.0+0x4c>
     cda:	9a0e      	ldr	r2, [sp, #56]	; 0x38
     cdc:	4296      	cmp	r6, r2
     cde:	d201      	bcs.n	ce4 <kprintf.constprop.0+0x50>
     ce0:	f806 3b01 	strb.w	r3, [r6], #1
/home/aom1/Work/Linux/target/STM32MP1-DK2/bootloader/optee-os-custom/lib/libutils/ext/snprintk.c:281
     ce4:	3701      	adds	r7, #1
     ce6:	e7e5      	b.n	cb4 <kprintf.constprop.0+0x20>
/home/aom1/Work/Linux/target/STM32MP1-DK2/bootloader/optee-os-custom/lib/libutils/ext/snprintk.c:294
     ce8:	f04f 0800 	mov.w	r8, #0
/home/aom1/Work/Linux/target/STM32MP1-DK2/bootloader/optee-os-custom/lib/libutils/ext/snprintk.c:288
     cec:	3701      	adds	r7, #1
/home/aom1/Work/Linux/target/STM32MP1-DK2/bootloader/optee-os-custom/lib/libutils/ext/snprintk.c:292
     cee:	f8cd 8034 	str.w	r8, [sp, #52]	; 0x34
/home/aom1/Work/Linux/target/STM32MP1-DK2/bootloader/optee-os-custom/lib/libutils/ext/snprintk.c:288
     cf2:	462b      	mov	r3, r5
/home/aom1/Work/Linux/target/STM32MP1-DK2/bootloader/optee-os-custom/lib/libutils/ext/snprintk.c:293
     cf4:	f04f 39ff 	mov.w	r9, #4294967295	; 0xffffffff
/home/aom1/Work/Linux/target/STM32MP1-DK2/bootloader/optee-os-custom/lib/libutils/ext/snprintk.c:290
     cf8:	4644      	mov	r4, r8
/home/aom1/Work/Linux/target/STM32MP1-DK2/bootloader/optee-os-custom/lib/libutils/ext/snprintk.c:296
     cfa:	f817 bb01 	ldrb.w	fp, [r7], #1
/home/aom1/Work/Linux/target/STM32MP1-DK2/bootloader/optee-os-custom/lib/libutils/ext/snprintk.c:297
     cfe:	f1bb 0f39 	cmp.w	fp, #57	; 0x39
     d02:	dc54      	bgt.n	dae <kprintf.constprop.0+0x11a>
     d04:	f1bb 0f1f 	cmp.w	fp, #31
     d08:	f340 82ad 	ble.w	1266 <kprintf.constprop.0+0x5d2>
     d0c:	f1ab 0220 	sub.w	r2, fp, #32
     d10:	2a19      	cmp	r2, #25
     d12:	d850      	bhi.n	db6 <kprintf.constprop.0+0x122>
     d14:	e8df f002 	tbb	[pc, r2]
     d18:	594f4f53 	.word	0x594f4f53
     d1c:	4f4f4f4f 	.word	0x4f4f4f4f
     d20:	0d5c4f4f 	.word	0x0d5c4f4f
     d24:	4f66634f 	.word	0x4f66634f
     d28:	8080807d 	.word	0x8080807d
     d2c:	80808080 	.word	0x80808080
     d30:	8080      	.short	0x8080
     d32:	f04f 082b 	mov.w	r8, #43	; 0x2b
     d36:	e7e0      	b.n	cfa <kprintf.constprop.0+0x66>
     d38:	2a36      	cmp	r2, #54	; 0x36
     d3a:	d83c      	bhi.n	db6 <kprintf.constprop.0+0x122>
     d3c:	e8df f012 	tbh	[pc, r2, lsl #1]
     d40:	003b009e 	.word	0x003b009e
     d44:	003b003b 	.word	0x003b003b
     d48:	003b003b 	.word	0x003b003b
     d4c:	003b003b 	.word	0x003b003b
     d50:	003b003b 	.word	0x003b003b
     d54:	0160003b 	.word	0x0160003b
     d58:	003b003b 	.word	0x003b003b
     d5c:	003b003b 	.word	0x003b003b
     d60:	0204003b 	.word	0x0204003b
     d64:	003b003b 	.word	0x003b003b
     d68:	003b023f 	.word	0x003b023f
     d6c:	003b003b 	.word	0x003b003b
     d70:	003b003b 	.word	0x003b003b
     d74:	003b003b 	.word	0x003b003b
     d78:	003b003b 	.word	0x003b003b
     d7c:	0092003b 	.word	0x0092003b
     d80:	003b00a0 	.word	0x003b00a0
     d84:	003b003b 	.word	0x003b003b
     d88:	00a0007c 	.word	0x00a0007c
     d8c:	003b007f 	.word	0x003b007f
     d90:	003b0082 	.word	0x003b0082
     d94:	01620143 	.word	0x01620143
     d98:	0086019d 	.word	0x0086019d
     d9c:	01e6003b 	.word	0x01e6003b
     da0:	0206008c 	.word	0x0206008c
     da4:	003b003b 	.word	0x003b003b
     da8:	003b024e 	.word	0x003b024e
     dac:	008f      	.short	0x008f
     dae:	f1ab 0244 	sub.w	r2, fp, #68	; 0x44
     db2:	2a36      	cmp	r2, #54	; 0x36
     db4:	d9c0      	bls.n	d38 <kprintf.constprop.0+0xa4>
/home/aom1/Work/Linux/target/STM32MP1-DK2/bootloader/optee-os-custom/lib/libutils/ext/snprintk.c:551
     db6:	f88d b048 	strb.w	fp, [sp, #72]	; 0x48
/home/aom1/Work/Linux/target/STM32MP1-DK2/bootloader/optee-os-custom/lib/libutils/ext/snprintk.c:554
     dba:	461d      	mov	r5, r3
     dbc:	e057      	b.n	e6e <kprintf.constprop.0+0x1da>
/home/aom1/Work/Linux/target/STM32MP1-DK2/bootloader/optee-os-custom/lib/libutils/ext/snprintk.c:305
     dbe:	f1b8 0f00 	cmp.w	r8, #0
     dc2:	bf08      	it	eq
     dc4:	f04f 0820 	moveq.w	r8, #32
     dc8:	e797      	b.n	cfa <kprintf.constprop.0+0x66>
/home/aom1/Work/Linux/target/STM32MP1-DK2/bootloader/optee-os-custom/lib/libutils/ext/snprintk.c:308
     dca:	f044 0401 	orr.w	r4, r4, #1
/home/aom1/Work/Linux/target/STM32MP1-DK2/bootloader/optee-os-custom/lib/libutils/ext/snprintk.c:309
     dce:	e794      	b.n	cfa <kprintf.constprop.0+0x66>
/home/aom1/Work/Linux/target/STM32MP1-DK2/bootloader/optee-os-custom/lib/libutils/ext/snprintk.c:317
     dd0:	f853 2b04 	ldr.w	r2, [r3], #4
     dd4:	920d      	str	r2, [sp, #52]	; 0x34
     dd6:	2a00      	cmp	r2, #0
     dd8:	da8f      	bge.n	cfa <kprintf.constprop.0+0x66>
/home/aom1/Work/Linux/target/STM32MP1-DK2/bootloader/optee-os-custom/lib/libutils/ext/snprintk.c:319
     dda:	4252      	negs	r2, r2
     ddc:	920d      	str	r2, [sp, #52]	; 0x34
/home/aom1/Work/Linux/target/STM32MP1-DK2/bootloader/optee-os-custom/lib/libutils/ext/snprintk.c:322
     dde:	f044 0404 	orr.w	r4, r4, #4
/home/aom1/Work/Linux/target/STM32MP1-DK2/bootloader/optee-os-custom/lib/libutils/ext/snprintk.c:323
     de2:	e78a      	b.n	cfa <kprintf.constprop.0+0x66>
/home/aom1/Work/Linux/target/STM32MP1-DK2/bootloader/optee-os-custom/lib/libutils/ext/snprintk.c:328
     de4:	f817 bb01 	ldrb.w	fp, [r7], #1
     de8:	f1bb 0f2a 	cmp.w	fp, #42	; 0x2a
     dec:	d10e      	bne.n	e0c <kprintf.constprop.0+0x178>
/home/aom1/Work/Linux/target/STM32MP1-DK2/bootloader/optee-os-custom/lib/libutils/ext/snprintk.c:330
     dee:	f853 2b04 	ldr.w	r2, [r3], #4
     df2:	ea42 79e2 	orr.w	r9, r2, r2, asr #31
/home/aom1/Work/Linux/target/STM32MP1-DK2/bootloader/optee-os-custom/lib/libutils/ext/snprintk.c:331
     df6:	e780      	b.n	cfa <kprintf.constprop.0+0x66>
/home/aom1/Work/Linux/target/STM32MP1-DK2/bootloader/optee-os-custom/lib/libutils/ext/snprintk.c:336
     df8:	f817 bb01 	ldrb.w	fp, [r7], #1
/home/aom1/Work/Linux/target/STM32MP1-DK2/bootloader/optee-os-custom/lib/libutils/ext/snprintk.c:335
     dfc:	210a      	movs	r1, #10
     dfe:	fb01 2909 	mla	r9, r1, r9, r2
/home/aom1/Work/Linux/target/STM32MP1-DK2/bootloader/optee-os-custom/lib/libutils/ext/snprintk.c:334
     e02:	f1ab 0230 	sub.w	r2, fp, #48	; 0x30
     e06:	2a09      	cmp	r2, #9
     e08:	d9f6      	bls.n	df8 <kprintf.constprop.0+0x164>
     e0a:	e778      	b.n	cfe <kprintf.constprop.0+0x6a>
/home/aom1/Work/Linux/target/STM32MP1-DK2/bootloader/optee-os-custom/lib/libutils/ext/snprintk.c:333
     e0c:	f04f 0900 	mov.w	r9, #0
     e10:	e7f7      	b.n	e02 <kprintf.constprop.0+0x16e>
/home/aom1/Work/Linux/target/STM32MP1-DK2/bootloader/optee-os-custom/lib/libutils/ext/snprintk.c:346
     e12:	f444 6480 	orr.w	r4, r4, #1024	; 0x400
/home/aom1/Work/Linux/target/STM32MP1-DK2/bootloader/optee-os-custom/lib/libutils/ext/snprintk.c:347
     e16:	e770      	b.n	cfa <kprintf.constprop.0+0x66>
/home/aom1/Work/Linux/target/STM32MP1-DK2/bootloader/optee-os-custom/lib/libutils/ext/snprintk.c:297
     e18:	2200      	movs	r2, #0
     e1a:	920d      	str	r2, [sp, #52]	; 0x34
/home/aom1/Work/Linux/target/STM32MP1-DK2/bootloader/optee-os-custom/lib/libutils/ext/snprintk.c:352
     e1c:	990d      	ldr	r1, [sp, #52]	; 0x34
     e1e:	f1ab 0230 	sub.w	r2, fp, #48	; 0x30
/home/aom1/Work/Linux/target/STM32MP1-DK2/bootloader/optee-os-custom/lib/libutils/ext/snprintk.c:353
     e22:	f817 bb01 	ldrb.w	fp, [r7], #1
/home/aom1/Work/Linux/target/STM32MP1-DK2/bootloader/optee-os-custom/lib/libutils/ext/snprintk.c:352
     e26:	200a      	movs	r0, #10
     e28:	fb00 2201 	mla	r2, r0, r1, r2
     e2c:	920d      	str	r2, [sp, #52]	; 0x34
/home/aom1/Work/Linux/target/STM32MP1-DK2/bootloader/optee-os-custom/lib/libutils/ext/snprintk.c:354
     e2e:	f1ab 0230 	sub.w	r2, fp, #48	; 0x30
     e32:	2a09      	cmp	r2, #9
     e34:	d9f2      	bls.n	e1c <kprintf.constprop.0+0x188>
     e36:	e762      	b.n	cfe <kprintf.constprop.0+0x6a>
/home/aom1/Work/Linux/target/STM32MP1-DK2/bootloader/optee-os-custom/lib/libutils/ext/snprintk.c:358
     e38:	f044 0440 	orr.w	r4, r4, #64	; 0x40
/home/aom1/Work/Linux/target/STM32MP1-DK2/bootloader/optee-os-custom/lib/libutils/ext/snprintk.c:359
     e3c:	e75d      	b.n	cfa <kprintf.constprop.0+0x66>
/home/aom1/Work/Linux/target/STM32MP1-DK2/bootloader/optee-os-custom/lib/libutils/ext/snprintk.c:361
     e3e:	f044 0480 	orr.w	r4, r4, #128	; 0x80
/home/aom1/Work/Linux/target/STM32MP1-DK2/bootloader/optee-os-custom/lib/libutils/ext/snprintk.c:362
     e42:	e75a      	b.n	cfa <kprintf.constprop.0+0x66>
/home/aom1/Work/Linux/target/STM32MP1-DK2/bootloader/optee-os-custom/lib/libutils/ext/snprintk.c:364
     e44:	783a      	ldrb	r2, [r7, #0]
     e46:	2a6c      	cmp	r2, #108	; 0x6c
     e48:	d103      	bne.n	e52 <kprintf.constprop.0+0x1be>
/home/aom1/Work/Linux/target/STM32MP1-DK2/bootloader/optee-os-custom/lib/libutils/ext/snprintk.c:328
     e4a:	3701      	adds	r7, #1
/home/aom1/Work/Linux/target/STM32MP1-DK2/bootloader/optee-os-custom/lib/libutils/ext/snprintk.c:372
     e4c:	f044 0420 	orr.w	r4, r4, #32
/home/aom1/Work/Linux/target/STM32MP1-DK2/bootloader/optee-os-custom/lib/libutils/ext/snprintk.c:373
     e50:	e753      	b.n	cfa <kprintf.constprop.0+0x66>
/home/aom1/Work/Linux/target/STM32MP1-DK2/bootloader/optee-os-custom/lib/libutils/ext/snprintk.c:368
     e52:	f044 0410 	orr.w	r4, r4, #16
     e56:	e750      	b.n	cfa <kprintf.constprop.0+0x66>
/home/aom1/Work/Linux/target/STM32MP1-DK2/bootloader/optee-os-custom/lib/libutils/ext/snprintk.c:375
     e58:	f444 7480 	orr.w	r4, r4, #256	; 0x100
/home/aom1/Work/Linux/target/STM32MP1-DK2/bootloader/optee-os-custom/lib/libutils/ext/snprintk.c:376
     e5c:	e74d      	b.n	cfa <kprintf.constprop.0+0x66>
/home/aom1/Work/Linux/target/STM32MP1-DK2/bootloader/optee-os-custom/lib/libutils/ext/snprintk.c:378
     e5e:	f444 7400 	orr.w	r4, r4, #512	; 0x200
/home/aom1/Work/Linux/target/STM32MP1-DK2/bootloader/optee-os-custom/lib/libutils/ext/snprintk.c:379
     e62:	e74a      	b.n	cfa <kprintf.constprop.0+0x66>
/home/aom1/Work/Linux/target/STM32MP1-DK2/bootloader/optee-os-custom/lib/libutils/ext/snprintk.c:381
     e64:	461d      	mov	r5, r3
     e66:	f855 3b04 	ldr.w	r3, [r5], #4
     e6a:	f88d 3048 	strb.w	r3, [sp, #72]	; 0x48
/home/aom1/Work/Linux/target/STM32MP1-DK2/bootloader/optee-os-custom/lib/libutils/ext/snprintk.c:291
     e6e:	2000      	movs	r0, #0
/home/aom1/Work/Linux/target/STM32MP1-DK2/bootloader/optee-os-custom/lib/libutils/ext/snprintk.c:552
     e70:	f04f 0901 	mov.w	r9, #1
/home/aom1/Work/Linux/target/STM32MP1-DK2/bootloader/optee-os-custom/lib/libutils/ext/snprintk.c:553
     e74:	4680      	mov	r8, r0
/home/aom1/Work/Linux/target/STM32MP1-DK2/bootloader/optee-os-custom/lib/libutils/ext/snprintk.c:550
     e76:	f10d 0a48 	add.w	sl, sp, #72	; 0x48
/home/aom1/Work/Linux/target/STM32MP1-DK2/bootloader/optee-os-custom/lib/libutils/ext/snprintk.c:554
     e7a:	e03c      	b.n	ef6 <kprintf.constprop.0+0x262>
/home/aom1/Work/Linux/target/STM32MP1-DK2/bootloader/optee-os-custom/lib/libutils/ext/snprintk.c:386
     e7c:	f044 0410 	orr.w	r4, r4, #16
/home/aom1/Work/Linux/target/STM32MP1-DK2/bootloader/optee-os-custom/lib/libutils/ext/snprintk.c:390
     e80:	0625      	lsls	r5, r4, #24
     e82:	f140 8087 	bpl.w	f94 <kprintf.constprop.0+0x300>
     e86:	3307      	adds	r3, #7
     e88:	f023 0307 	bic.w	r3, r3, #7
     e8c:	461d      	mov	r5, r3
     e8e:	6859      	ldr	r1, [r3, #4]
     e90:	f855 0b08 	ldr.w	r0, [r5], #8
/home/aom1/Work/Linux/target/STM32MP1-DK2/bootloader/optee-os-custom/lib/libutils/ext/snprintk.c:391
     e94:	2900      	cmp	r1, #0
     e96:	f280 8165 	bge.w	1164 <kprintf.constprop.0+0x4d0>
/home/aom1/Work/Linux/target/STM32MP1-DK2/bootloader/optee-os-custom/lib/libutils/ext/snprintk.c:392
     e9a:	4240      	negs	r0, r0
/home/aom1/Work/Linux/target/STM32MP1-DK2/bootloader/optee-os-custom/lib/libutils/ext/snprintk.c:395
     e9c:	f04f 0301 	mov.w	r3, #1
/home/aom1/Work/Linux/target/STM32MP1-DK2/bootloader/optee-os-custom/lib/libutils/ext/snprintk.c:392
     ea0:	eb61 0141 	sbc.w	r1, r1, r1, lsl #1
/home/aom1/Work/Linux/target/STM32MP1-DK2/bootloader/optee-os-custom/lib/libutils/ext/snprintk.c:393
     ea4:	f04f 082d 	mov.w	r8, #45	; 0x2d
/home/aom1/Work/Linux/target/STM32MP1-DK2/bootloader/optee-os-custom/lib/libutils/ext/snprintk.c:494
     ea8:	f1b9 3fff 	cmp.w	r9, #4294967295	; 0xffffffff
     eac:	f040 80c3 	bne.w	1036 <kprintf.constprop.0+0x3a2>
/home/aom1/Work/Linux/target/STM32MP1-DK2/bootloader/optee-os-custom/lib/libutils/ext/snprintk.c:509
     eb0:	2b01      	cmp	r3, #1
     eb2:	f000 815a 	beq.w	116a <kprintf.constprop.0+0x4d6>
     eb6:	2b02      	cmp	r3, #2
     eb8:	f000 8118 	beq.w	10ec <kprintf.constprop.0+0x458>
/home/aom1/Work/Linux/target/STM32MP1-DK2/bootloader/optee-os-custom/lib/libutils/ext/snprintk.c:494
     ebc:	f10d 0a6d 	add.w	sl, sp, #109	; 0x6d
/home/aom1/Work/Linux/target/STM32MP1-DK2/bootloader/optee-os-custom/lib/libutils/ext/snprintk.c:512
     ec0:	f000 0307 	and.w	r3, r0, #7
     ec4:	4652      	mov	r2, sl
/home/aom1/Work/Linux/target/STM32MP1-DK2/bootloader/optee-os-custom/lib/libutils/ext/snprintk.c:513
     ec6:	08c0      	lsrs	r0, r0, #3
/home/aom1/Work/Linux/target/STM32MP1-DK2/bootloader/optee-os-custom/lib/libutils/ext/snprintk.c:512
     ec8:	3330      	adds	r3, #48	; 0x30
/home/aom1/Work/Linux/target/STM32MP1-DK2/bootloader/optee-os-custom/lib/libutils/ext/snprintk.c:513
     eca:	ea40 7041 	orr.w	r0, r0, r1, lsl #29
     ece:	08c9      	lsrs	r1, r1, #3
/home/aom1/Work/Linux/target/STM32MP1-DK2/bootloader/optee-os-custom/lib/libutils/ext/snprintk.c:514
     ed0:	ea50 0c01 	orrs.w	ip, r0, r1
/home/aom1/Work/Linux/target/STM32MP1-DK2/bootloader/optee-os-custom/lib/libutils/ext/snprintk.c:512
     ed4:	f80a 3d01 	strb.w	r3, [sl, #-1]!
/home/aom1/Work/Linux/target/STM32MP1-DK2/bootloader/optee-os-custom/lib/libutils/ext/snprintk.c:514
     ed8:	d1f2      	bne.n	ec0 <kprintf.constprop.0+0x22c>
/home/aom1/Work/Linux/target/STM32MP1-DK2/bootloader/optee-os-custom/lib/libutils/ext/snprintk.c:516
     eda:	07e1      	lsls	r1, r4, #31
     edc:	d506      	bpl.n	eec <kprintf.constprop.0+0x258>
     ede:	2b30      	cmp	r3, #48	; 0x30
     ee0:	d004      	beq.n	eec <kprintf.constprop.0+0x258>
/home/aom1/Work/Linux/target/STM32MP1-DK2/bootloader/optee-os-custom/lib/libutils/ext/snprintk.c:517
     ee2:	2330      	movs	r3, #48	; 0x30
     ee4:	f80a 3c01 	strb.w	r3, [sl, #-1]
     ee8:	f1a2 0a02 	sub.w	sl, r2, #2
/home/aom1/Work/Linux/target/STM32MP1-DK2/bootloader/optee-os-custom/lib/libutils/ext/snprintk.c:543
     eec:	4648      	mov	r0, r9
     eee:	f10d 096d 	add.w	r9, sp, #109	; 0x6d
     ef2:	eba9 090a 	sub.w	r9, r9, sl
/home/aom1/Work/Linux/target/STM32MP1-DK2/bootloader/optee-os-custom/lib/libutils/ext/snprintk.c:571
     ef6:	4548      	cmp	r0, r9
     ef8:	4603      	mov	r3, r0
     efa:	bfb8      	it	lt
     efc:	464b      	movlt	r3, r9
/home/aom1/Work/Linux/target/STM32MP1-DK2/bootloader/optee-os-custom/lib/libutils/ext/snprintk.c:572
     efe:	f1b8 0f00 	cmp.w	r8, #0
     f02:	f000 81b5 	beq.w	1270 <kprintf.constprop.0+0x5dc>
/home/aom1/Work/Linux/target/STM32MP1-DK2/bootloader/optee-os-custom/lib/libutils/ext/snprintk.c:573
     f06:	3301      	adds	r3, #1
/home/aom1/Work/Linux/target/STM32MP1-DK2/bootloader/optee-os-custom/lib/libutils/ext/snprintk.c:578
     f08:	9a0b      	ldr	r2, [sp, #44]	; 0x2c
     f0a:	990d      	ldr	r1, [sp, #52]	; 0x34
     f0c:	428b      	cmp	r3, r1
     f0e:	bfac      	ite	ge
     f10:	18d2      	addge	r2, r2, r3
     f12:	1852      	addlt	r2, r2, r1
/home/aom1/Work/Linux/target/STM32MP1-DK2/bootloader/optee-os-custom/lib/libutils/ext/snprintk.c:581
     f14:	f240 4104 	movw	r1, #1028	; 0x404
     f18:	ea14 0e01 	ands.w	lr, r4, r1
/home/aom1/Work/Linux/target/STM32MP1-DK2/bootloader/optee-os-custom/lib/libutils/ext/snprintk.c:578
     f1c:	920b      	str	r2, [sp, #44]	; 0x2c
/home/aom1/Work/Linux/target/STM32MP1-DK2/bootloader/optee-os-custom/lib/libutils/ext/snprintk.c:581
     f1e:	d106      	bne.n	f2e <kprintf.constprop.0+0x29a>
/home/aom1/Work/Linux/target/STM32MP1-DK2/bootloader/optee-os-custom/lib/libutils/ext/snprintk.c:582
     f20:	9a0d      	ldr	r2, [sp, #52]	; 0x34
/home/aom1/Work/Linux/target/STM32MP1-DK2/bootloader/optee-os-custom/lib/libutils/ext/snprintk.c:584
     f22:	f04f 0c20 	mov.w	ip, #32
/home/aom1/Work/Linux/target/STM32MP1-DK2/bootloader/optee-os-custom/lib/libutils/ext/snprintk.c:582
     f26:	1ad2      	subs	r2, r2, r3
/home/aom1/Work/Linux/target/STM32MP1-DK2/bootloader/optee-os-custom/lib/libutils/ext/snprintk.c:583
     f28:	2a00      	cmp	r2, #0
     f2a:	f300 81a5 	bgt.w	1278 <kprintf.constprop.0+0x5e4>
/home/aom1/Work/Linux/target/STM32MP1-DK2/bootloader/optee-os-custom/lib/libutils/ext/snprintk.c:588
     f2e:	f1b8 0f00 	cmp.w	r8, #0
     f32:	f000 81ab 	beq.w	128c <kprintf.constprop.0+0x5f8>
/home/aom1/Work/Linux/target/STM32MP1-DK2/bootloader/optee-os-custom/lib/libutils/ext/snprintk.c:589
     f36:	b136      	cbz	r6, f46 <kprintf.constprop.0+0x2b2>
     f38:	9a0c      	ldr	r2, [sp, #48]	; 0x30
     f3a:	b112      	cbz	r2, f42 <kprintf.constprop.0+0x2ae>
     f3c:	9a0e      	ldr	r2, [sp, #56]	; 0x38
     f3e:	42b2      	cmp	r2, r6
     f40:	d901      	bls.n	f46 <kprintf.constprop.0+0x2b2>
     f42:	f806 8b01 	strb.w	r8, [r6], #1
/home/aom1/Work/Linux/target/STM32MP1-DK2/bootloader/optee-os-custom/lib/libutils/ext/snprintk.c:596
     f46:	f5be 6f80 	cmp.w	lr, #1024	; 0x400
     f4a:	d106      	bne.n	f5a <kprintf.constprop.0+0x2c6>
/home/aom1/Work/Linux/target/STM32MP1-DK2/bootloader/optee-os-custom/lib/libutils/ext/snprintk.c:597
     f4c:	9a0d      	ldr	r2, [sp, #52]	; 0x34
/home/aom1/Work/Linux/target/STM32MP1-DK2/bootloader/optee-os-custom/lib/libutils/ext/snprintk.c:599
     f4e:	f04f 0c30 	mov.w	ip, #48	; 0x30
/home/aom1/Work/Linux/target/STM32MP1-DK2/bootloader/optee-os-custom/lib/libutils/ext/snprintk.c:597
     f52:	1ad2      	subs	r2, r2, r3
/home/aom1/Work/Linux/target/STM32MP1-DK2/bootloader/optee-os-custom/lib/libutils/ext/snprintk.c:598
     f54:	2a00      	cmp	r2, #0
     f56:	f300 81b3 	bgt.w	12c0 <kprintf.constprop.0+0x62c>
/home/aom1/Work/Linux/target/STM32MP1-DK2/bootloader/optee-os-custom/lib/libutils/ext/snprintk.c:603
     f5a:	eba0 0009 	sub.w	r0, r0, r9
/home/aom1/Work/Linux/target/STM32MP1-DK2/bootloader/optee-os-custom/lib/libutils/ext/snprintk.c:605
     f5e:	2230      	movs	r2, #48	; 0x30
/home/aom1/Work/Linux/target/STM32MP1-DK2/bootloader/optee-os-custom/lib/libutils/ext/snprintk.c:604
     f60:	2800      	cmp	r0, #0
     f62:	f300 81b7 	bgt.w	12d4 <kprintf.constprop.0+0x640>
     f66:	44d1      	add	r9, sl
/home/aom1/Work/Linux/target/STM32MP1-DK2/bootloader/optee-os-custom/lib/libutils/ext/snprintk.c:608
     f68:	45ca      	cmp	sl, r9
     f6a:	f040 81bd 	bne.w	12e8 <kprintf.constprop.0+0x654>
/home/aom1/Work/Linux/target/STM32MP1-DK2/bootloader/optee-os-custom/lib/libutils/ext/snprintk.c:611
     f6e:	0762      	lsls	r2, r4, #29
     f70:	f57f aea0 	bpl.w	cb4 <kprintf.constprop.0+0x20>
/home/aom1/Work/Linux/target/STM32MP1-DK2/bootloader/optee-os-custom/lib/libutils/ext/snprintk.c:612
     f74:	9a0d      	ldr	r2, [sp, #52]	; 0x34
     f76:	1ad3      	subs	r3, r2, r3
/home/aom1/Work/Linux/target/STM32MP1-DK2/bootloader/optee-os-custom/lib/libutils/ext/snprintk.c:614
     f78:	2220      	movs	r2, #32
/home/aom1/Work/Linux/target/STM32MP1-DK2/bootloader/optee-os-custom/lib/libutils/ext/snprintk.c:613
     f7a:	2b00      	cmp	r3, #0
     f7c:	f77f ae9a 	ble.w	cb4 <kprintf.constprop.0+0x20>
/home/aom1/Work/Linux/target/STM32MP1-DK2/bootloader/optee-os-custom/lib/libutils/ext/snprintk.c:614
     f80:	b136      	cbz	r6, f90 <kprintf.constprop.0+0x2fc>
     f82:	990c      	ldr	r1, [sp, #48]	; 0x30
     f84:	b111      	cbz	r1, f8c <kprintf.constprop.0+0x2f8>
     f86:	990e      	ldr	r1, [sp, #56]	; 0x38
     f88:	42b1      	cmp	r1, r6
     f8a:	d901      	bls.n	f90 <kprintf.constprop.0+0x2fc>
     f8c:	f806 2b01 	strb.w	r2, [r6], #1
     f90:	3b01      	subs	r3, #1
     f92:	e7f2      	b.n	f7a <kprintf.constprop.0+0x2e6>
/home/aom1/Work/Linux/target/STM32MP1-DK2/bootloader/optee-os-custom/lib/libutils/ext/snprintk.c:390
     f94:	05e0      	lsls	r0, r4, #23
     f96:	d504      	bpl.n	fa2 <kprintf.constprop.0+0x30e>
     f98:	461d      	mov	r5, r3
     f9a:	f855 0b04 	ldr.w	r0, [r5], #4
     f9e:	17c1      	asrs	r1, r0, #31
     fa0:	e778      	b.n	e94 <kprintf.constprop.0+0x200>
     fa2:	05a1      	lsls	r1, r4, #22
     fa4:	d4f8      	bmi.n	f98 <kprintf.constprop.0+0x304>
     fa6:	06a2      	lsls	r2, r4, #26
     fa8:	f53f af6d 	bmi.w	e86 <kprintf.constprop.0+0x1f2>
/home/aom1/Work/Linux/target/STM32MP1-DK2/bootloader/optee-os-custom/lib/libutils/ext/snprintk.c:317
     fac:	461d      	mov	r5, r3
/home/aom1/Work/Linux/target/STM32MP1-DK2/bootloader/optee-os-custom/lib/libutils/ext/snprintk.c:390
     fae:	06e3      	lsls	r3, r4, #27
/home/aom1/Work/Linux/target/STM32MP1-DK2/bootloader/optee-os-custom/lib/libutils/ext/snprintk.c:317
     fb0:	f855 1b04 	ldr.w	r1, [r5], #4
/home/aom1/Work/Linux/target/STM32MP1-DK2/bootloader/optee-os-custom/lib/libutils/ext/snprintk.c:390
     fb4:	d501      	bpl.n	fba <kprintf.constprop.0+0x326>
     fb6:	4608      	mov	r0, r1
     fb8:	e7f1      	b.n	f9e <kprintf.constprop.0+0x30a>
     fba:	0660      	lsls	r0, r4, #25
     fbc:	d5fb      	bpl.n	fb6 <kprintf.constprop.0+0x322>
     fbe:	b208      	sxth	r0, r1
     fc0:	f341 31c0 	sbfx	r1, r1, #15, #1
     fc4:	e766      	b.n	e94 <kprintf.constprop.0+0x200>
/home/aom1/Work/Linux/target/STM32MP1-DK2/bootloader/optee-os-custom/lib/libutils/ext/snprintk.c:398
     fc6:	0621      	lsls	r1, r4, #24
/home/aom1/Work/Linux/target/STM32MP1-DK2/bootloader/optee-os-custom/lib/libutils/ext/snprintk.c:317
     fc8:	f103 0504 	add.w	r5, r3, #4
/home/aom1/Work/Linux/target/STM32MP1-DK2/bootloader/optee-os-custom/lib/libutils/ext/snprintk.c:398
     fcc:	d506      	bpl.n	fdc <kprintf.constprop.0+0x348>
/home/aom1/Work/Linux/target/STM32MP1-DK2/bootloader/optee-os-custom/lib/libutils/ext/snprintk.c:405
     fce:	9a0b      	ldr	r2, [sp, #44]	; 0x2c
     fd0:	681b      	ldr	r3, [r3, #0]
     fd2:	990b      	ldr	r1, [sp, #44]	; 0x2c
     fd4:	17d2      	asrs	r2, r2, #31
     fd6:	e9c3 1200 	strd	r1, r2, [r3]
     fda:	e66b      	b.n	cb4 <kprintf.constprop.0+0x20>
/home/aom1/Work/Linux/target/STM32MP1-DK2/bootloader/optee-os-custom/lib/libutils/ext/snprintk.c:400
     fdc:	05e2      	lsls	r2, r4, #23
     fde:	d503      	bpl.n	fe8 <kprintf.constprop.0+0x354>
/home/aom1/Work/Linux/target/STM32MP1-DK2/bootloader/optee-os-custom/lib/libutils/ext/snprintk.c:411
     fe0:	681b      	ldr	r3, [r3, #0]
     fe2:	9a0b      	ldr	r2, [sp, #44]	; 0x2c
     fe4:	601a      	str	r2, [r3, #0]
     fe6:	e665      	b.n	cb4 <kprintf.constprop.0+0x20>
/home/aom1/Work/Linux/target/STM32MP1-DK2/bootloader/optee-os-custom/lib/libutils/ext/snprintk.c:402
     fe8:	05a0      	lsls	r0, r4, #22
     fea:	d4f9      	bmi.n	fe0 <kprintf.constprop.0+0x34c>
/home/aom1/Work/Linux/target/STM32MP1-DK2/bootloader/optee-os-custom/lib/libutils/ext/snprintk.c:404
     fec:	06a1      	lsls	r1, r4, #26
     fee:	d4ee      	bmi.n	fce <kprintf.constprop.0+0x33a>
/home/aom1/Work/Linux/target/STM32MP1-DK2/bootloader/optee-os-custom/lib/libutils/ext/snprintk.c:406
     ff0:	06e2      	lsls	r2, r4, #27
     ff2:	d4f5      	bmi.n	fe0 <kprintf.constprop.0+0x34c>
/home/aom1/Work/Linux/target/STM32MP1-DK2/bootloader/optee-os-custom/lib/libutils/ext/snprintk.c:408
     ff4:	0664      	lsls	r4, r4, #25
     ff6:	d5f3      	bpl.n	fe0 <kprintf.constprop.0+0x34c>
/home/aom1/Work/Linux/target/STM32MP1-DK2/bootloader/optee-os-custom/lib/libutils/ext/snprintk.c:409
     ff8:	681b      	ldr	r3, [r3, #0]
     ffa:	9a0b      	ldr	r2, [sp, #44]	; 0x2c
     ffc:	801a      	strh	r2, [r3, #0]
     ffe:	e659      	b.n	cb4 <kprintf.constprop.0+0x20>
/home/aom1/Work/Linux/target/STM32MP1-DK2/bootloader/optee-os-custom/lib/libutils/ext/snprintk.c:414
    1000:	f044 0410 	orr.w	r4, r4, #16
/home/aom1/Work/Linux/target/STM32MP1-DK2/bootloader/optee-os-custom/lib/libutils/ext/snprintk.c:417
    1004:	f014 0280 	ands.w	r2, r4, #128	; 0x80
    1008:	d007      	beq.n	101a <kprintf.constprop.0+0x386>
    100a:	3307      	adds	r3, #7
    100c:	f023 0307 	bic.w	r3, r3, #7
    1010:	461d      	mov	r5, r3
    1012:	6859      	ldr	r1, [r3, #4]
    1014:	f855 0b08 	ldr.w	r0, [r5], #8
    1018:	e006      	b.n	1028 <kprintf.constprop.0+0x394>
    101a:	f414 7180 	ands.w	r1, r4, #256	; 0x100
    101e:	d017      	beq.n	1050 <kprintf.constprop.0+0x3bc>
    1020:	461d      	mov	r5, r3
    1022:	4611      	mov	r1, r2
    1024:	f855 0b04 	ldr.w	r0, [r5], #4
/home/aom1/Work/Linux/target/STM32MP1-DK2/bootloader/optee-os-custom/lib/libutils/ext/snprintk.c:494
    1028:	f1b9 3fff 	cmp.w	r9, #4294967295	; 0xffffffff
    102c:	f04f 0800 	mov.w	r8, #0
    1030:	f43f af44 	beq.w	ebc <kprintf.constprop.0+0x228>
    1034:	4643      	mov	r3, r8
/home/aom1/Work/Linux/target/STM32MP1-DK2/bootloader/optee-os-custom/lib/libutils/ext/snprintk.c:503
    1036:	ea50 0201 	orrs.w	r2, r0, r1
/home/aom1/Work/Linux/target/STM32MP1-DK2/bootloader/optee-os-custom/lib/libutils/ext/snprintk.c:495
    103a:	f424 6480 	bic.w	r4, r4, #1024	; 0x400
/home/aom1/Work/Linux/target/STM32MP1-DK2/bootloader/optee-os-custom/lib/libutils/ext/snprintk.c:503
    103e:	f47f af37 	bne.w	eb0 <kprintf.constprop.0+0x21c>
    1042:	f1b9 0f00 	cmp.w	r9, #0
    1046:	f47f af33 	bne.w	eb0 <kprintf.constprop.0+0x21c>
/home/aom1/Work/Linux/target/STM32MP1-DK2/bootloader/optee-os-custom/lib/libutils/ext/snprintk.c:502
    104a:	f10d 0a6d 	add.w	sl, sp, #109	; 0x6d
    104e:	e74d      	b.n	eec <kprintf.constprop.0+0x258>
/home/aom1/Work/Linux/target/STM32MP1-DK2/bootloader/optee-os-custom/lib/libutils/ext/snprintk.c:417
    1050:	05a0      	lsls	r0, r4, #22
    1052:	d503      	bpl.n	105c <kprintf.constprop.0+0x3c8>
    1054:	461d      	mov	r5, r3
    1056:	f855 0b04 	ldr.w	r0, [r5], #4
    105a:	e7e5      	b.n	1028 <kprintf.constprop.0+0x394>
    105c:	f014 0120 	ands.w	r1, r4, #32
    1060:	d1d3      	bne.n	100a <kprintf.constprop.0+0x376>
/home/aom1/Work/Linux/target/STM32MP1-DK2/bootloader/optee-os-custom/lib/libutils/ext/snprintk.c:317
    1062:	461d      	mov	r5, r3
/home/aom1/Work/Linux/target/STM32MP1-DK2/bootloader/optee-os-custom/lib/libutils/ext/snprintk.c:417
    1064:	f014 0310 	ands.w	r3, r4, #16
/home/aom1/Work/Linux/target/STM32MP1-DK2/bootloader/optee-os-custom/lib/libutils/ext/snprintk.c:317
    1068:	f855 0b04 	ldr.w	r0, [r5], #4
/home/aom1/Work/Linux/target/STM32MP1-DK2/bootloader/optee-os-custom/lib/libutils/ext/snprintk.c:417
    106c:	d1dc      	bne.n	1028 <kprintf.constprop.0+0x394>
    106e:	f014 0140 	ands.w	r1, r4, #64	; 0x40
    1072:	d0d9      	beq.n	1028 <kprintf.constprop.0+0x394>
    1074:	b280      	uxth	r0, r0
    1076:	4619      	mov	r1, r3
    1078:	e7d6      	b.n	1028 <kprintf.constprop.0+0x394>
/home/aom1/Work/Linux/target/STM32MP1-DK2/bootloader/optee-os-custom/lib/libutils/ext/snprintk.c:317
    107a:	461d      	mov	r5, r3
/home/aom1/Work/Linux/target/STM32MP1-DK2/bootloader/optee-os-custom/lib/libutils/ext/snprintk.c:421
    107c:	9b11      	ldr	r3, [sp, #68]	; 0x44
    107e:	f855 0b04 	ldr.w	r0, [r5], #4
    1082:	b32b      	cbz	r3, 10d0 <kprintf.constprop.0+0x43c>
    1084:	783b      	ldrb	r3, [r7, #0]
    1086:	2b55      	cmp	r3, #85	; 0x55
    1088:	d122      	bne.n	10d0 <kprintf.constprop.0+0x43c>
    108a:	787b      	ldrb	r3, [r7, #1]
    108c:	2b6c      	cmp	r3, #108	; 0x6c
    108e:	d11f      	bne.n	10d0 <kprintf.constprop.0+0x43c>
uuid2str():
/home/aom1/Work/Linux/target/STM32MP1-DK2/bootloader/optee-os-custom/lib/libutils/ext/snprintk.c:229
    1090:	7bc3      	ldrb	r3, [r0, #15]
    1092:	f10d 0a48 	add.w	sl, sp, #72	; 0x48
    1096:	4a9b      	ldr	r2, [pc, #620]	; (1304 <kprintf.constprop.0+0x670>)
    1098:	2125      	movs	r1, #37	; 0x25
    109a:	9309      	str	r3, [sp, #36]	; 0x24
kprintf():
/home/aom1/Work/Linux/target/STM32MP1-DK2/bootloader/optee-os-custom/lib/libutils/ext/snprintk.c:426
    109c:	3702      	adds	r7, #2
uuid2str():
/home/aom1/Work/Linux/target/STM32MP1-DK2/bootloader/optee-os-custom/lib/libutils/ext/snprintk.c:229
    109e:	7b83      	ldrb	r3, [r0, #14]
    10a0:	447a      	add	r2, pc
    10a2:	9308      	str	r3, [sp, #32]
    10a4:	7b43      	ldrb	r3, [r0, #13]
    10a6:	9307      	str	r3, [sp, #28]
    10a8:	7b03      	ldrb	r3, [r0, #12]
    10aa:	9306      	str	r3, [sp, #24]
    10ac:	7ac3      	ldrb	r3, [r0, #11]
    10ae:	9305      	str	r3, [sp, #20]
    10b0:	7a83      	ldrb	r3, [r0, #10]
    10b2:	9304      	str	r3, [sp, #16]
    10b4:	7a43      	ldrb	r3, [r0, #9]
    10b6:	9303      	str	r3, [sp, #12]
    10b8:	7a03      	ldrb	r3, [r0, #8]
    10ba:	9302      	str	r3, [sp, #8]
    10bc:	88c3      	ldrh	r3, [r0, #6]
    10be:	9301      	str	r3, [sp, #4]
    10c0:	8883      	ldrh	r3, [r0, #4]
    10c2:	9300      	str	r3, [sp, #0]
    10c4:	6803      	ldr	r3, [r0, #0]
    10c6:	4650      	mov	r0, sl
    10c8:	f7ff fdd7 	bl	c7a <snprintk>
kprintf():
/home/aom1/Work/Linux/target/STM32MP1-DK2/bootloader/optee-os-custom/lib/libutils/ext/snprintk.c:466
    10cc:	4681      	mov	r9, r0
    10ce:	e034      	b.n	113a <kprintf.constprop.0+0x4a6>
/home/aom1/Work/Linux/target/STM32MP1-DK2/bootloader/optee-os-custom/lib/libutils/ext/snprintk.c:443
    10d0:	4b8d      	ldr	r3, [pc, #564]	; (1308 <kprintf.constprop.0+0x674>)
/home/aom1/Work/Linux/target/STM32MP1-DK2/bootloader/optee-os-custom/lib/libutils/ext/snprintk.c:441
    10d2:	2100      	movs	r1, #0
/home/aom1/Work/Linux/target/STM32MP1-DK2/bootloader/optee-os-custom/lib/libutils/ext/snprintk.c:444
    10d4:	f044 0402 	orr.w	r4, r4, #2
/home/aom1/Work/Linux/target/STM32MP1-DK2/bootloader/optee-os-custom/lib/libutils/ext/snprintk.c:445
    10d8:	f04f 0b78 	mov.w	fp, #120	; 0x78
/home/aom1/Work/Linux/target/STM32MP1-DK2/bootloader/optee-os-custom/lib/libutils/ext/snprintk.c:443
    10dc:	447b      	add	r3, pc
    10de:	930f      	str	r3, [sp, #60]	; 0x3c
/home/aom1/Work/Linux/target/STM32MP1-DK2/bootloader/optee-os-custom/lib/libutils/ext/snprintk.c:494
    10e0:	f1b9 3fff 	cmp.w	r9, #4294967295	; 0xffffffff
    10e4:	f04f 0800 	mov.w	r8, #0
    10e8:	f040 80a3 	bne.w	1232 <kprintf.constprop.0+0x59e>
    10ec:	f10d 0a6d 	add.w	sl, sp, #109	; 0x6d
/home/aom1/Work/Linux/target/STM32MP1-DK2/bootloader/optee-os-custom/lib/libutils/ext/snprintk.c:531
    10f0:	9a0f      	ldr	r2, [sp, #60]	; 0x3c
    10f2:	f000 030f 	and.w	r3, r0, #15
/home/aom1/Work/Linux/target/STM32MP1-DK2/bootloader/optee-os-custom/lib/libutils/ext/snprintk.c:532
    10f6:	0900      	lsrs	r0, r0, #4
/home/aom1/Work/Linux/target/STM32MP1-DK2/bootloader/optee-os-custom/lib/libutils/ext/snprintk.c:531
    10f8:	5cd3      	ldrb	r3, [r2, r3]
/home/aom1/Work/Linux/target/STM32MP1-DK2/bootloader/optee-os-custom/lib/libutils/ext/snprintk.c:532
    10fa:	ea40 7001 	orr.w	r0, r0, r1, lsl #28
    10fe:	0909      	lsrs	r1, r1, #4
/home/aom1/Work/Linux/target/STM32MP1-DK2/bootloader/optee-os-custom/lib/libutils/ext/snprintk.c:531
    1100:	f80a 3d01 	strb.w	r3, [sl, #-1]!
/home/aom1/Work/Linux/target/STM32MP1-DK2/bootloader/optee-os-custom/lib/libutils/ext/snprintk.c:533
    1104:	ea50 0301 	orrs.w	r3, r0, r1
    1108:	d1f2      	bne.n	10f0 <kprintf.constprop.0+0x45c>
    110a:	e6ef      	b.n	eec <kprintf.constprop.0+0x258>
/home/aom1/Work/Linux/target/STM32MP1-DK2/bootloader/optee-os-custom/lib/libutils/ext/snprintk.c:448
    110c:	461d      	mov	r5, r3
    110e:	f855 ab04 	ldr.w	sl, [r5], #4
    1112:	f1ba 0f00 	cmp.w	sl, #0
    1116:	d102      	bne.n	111e <kprintf.constprop.0+0x48a>
/home/aom1/Work/Linux/target/STM32MP1-DK2/bootloader/optee-os-custom/lib/libutils/ext/snprintk.c:450
    1118:	f8df a1f0 	ldr.w	sl, [pc, #496]	; 130c <kprintf.constprop.0+0x678>
    111c:	44fa      	add	sl, pc
/home/aom1/Work/Linux/target/STM32MP1-DK2/bootloader/optee-os-custom/lib/libutils/ext/snprintk.c:451
    111e:	f1b9 3fff 	cmp.w	r9, #4294967295	; 0xffffffff
    1122:	d00d      	beq.n	1140 <kprintf.constprop.0+0x4ac>
/home/aom1/Work/Linux/target/STM32MP1-DK2/bootloader/optee-os-custom/lib/libutils/ext/snprintk.c:457
    1124:	464a      	mov	r2, r9
    1126:	2100      	movs	r1, #0
    1128:	4650      	mov	r0, sl
    112a:	f007 ffbf 	bl	90ac <memchr>
/home/aom1/Work/Linux/target/STM32MP1-DK2/bootloader/optee-os-custom/lib/libutils/ext/snprintk.c:459
    112e:	b128      	cbz	r0, 113c <kprintf.constprop.0+0x4a8>
/home/aom1/Work/Linux/target/STM32MP1-DK2/bootloader/optee-os-custom/lib/libutils/ext/snprintk.c:460
    1130:	eba0 000a 	sub.w	r0, r0, sl
    1134:	4581      	cmp	r9, r0
    1136:	bfa8      	it	ge
    1138:	4681      	movge	r9, r0
/home/aom1/Work/Linux/target/STM32MP1-DK2/bootloader/optee-os-custom/lib/libutils/ext/snprintk.c:291
    113a:	2000      	movs	r0, #0
/home/aom1/Work/Linux/target/STM32MP1-DK2/bootloader/optee-os-custom/lib/libutils/ext/snprintk.c:467
    113c:	4680      	mov	r8, r0
    113e:	e6da      	b.n	ef6 <kprintf.constprop.0+0x262>
/home/aom1/Work/Linux/target/STM32MP1-DK2/bootloader/optee-os-custom/lib/libutils/ext/snprintk.c:466
    1140:	4650      	mov	r0, sl
    1142:	f007 ffc1 	bl	90c8 <strlen>
    1146:	e7c1      	b.n	10cc <kprintf.constprop.0+0x438>
/home/aom1/Work/Linux/target/STM32MP1-DK2/bootloader/optee-os-custom/lib/libutils/ext/snprintk.c:470
    1148:	f044 0410 	orr.w	r4, r4, #16
/home/aom1/Work/Linux/target/STM32MP1-DK2/bootloader/optee-os-custom/lib/libutils/ext/snprintk.c:473
    114c:	f014 0280 	ands.w	r2, r4, #128	; 0x80
    1150:	d00f      	beq.n	1172 <kprintf.constprop.0+0x4de>
    1152:	3307      	adds	r3, #7
    1154:	f023 0307 	bic.w	r3, r3, #7
    1158:	461d      	mov	r5, r3
    115a:	6859      	ldr	r1, [r3, #4]
    115c:	f855 0b08 	ldr.w	r0, [r5], #8
/home/aom1/Work/Linux/target/STM32MP1-DK2/bootloader/optee-os-custom/lib/libutils/ext/snprintk.c:488
    1160:	f04f 0800 	mov.w	r8, #0
/home/aom1/Work/Linux/target/STM32MP1-DK2/bootloader/optee-os-custom/lib/libutils/ext/snprintk.c:494
    1164:	f1b9 3fff 	cmp.w	r9, #4294967295	; 0xffffffff
    1168:	d165      	bne.n	1236 <kprintf.constprop.0+0x5a2>
    116a:	f10d 036d 	add.w	r3, sp, #109	; 0x6d
    116e:	9310      	str	r3, [sp, #64]	; 0x40
    1170:	e06d      	b.n	124e <kprintf.constprop.0+0x5ba>
/home/aom1/Work/Linux/target/STM32MP1-DK2/bootloader/optee-os-custom/lib/libutils/ext/snprintk.c:473
    1172:	f414 7180 	ands.w	r1, r4, #256	; 0x100
    1176:	d004      	beq.n	1182 <kprintf.constprop.0+0x4ee>
    1178:	461d      	mov	r5, r3
    117a:	4611      	mov	r1, r2
    117c:	f855 0b04 	ldr.w	r0, [r5], #4
    1180:	e7ee      	b.n	1160 <kprintf.constprop.0+0x4cc>
    1182:	f414 7800 	ands.w	r8, r4, #512	; 0x200
    1186:	d003      	beq.n	1190 <kprintf.constprop.0+0x4fc>
    1188:	461d      	mov	r5, r3
    118a:	f855 0b04 	ldr.w	r0, [r5], #4
    118e:	e7e7      	b.n	1160 <kprintf.constprop.0+0x4cc>
    1190:	f014 0120 	ands.w	r1, r4, #32
    1194:	d007      	beq.n	11a6 <kprintf.constprop.0+0x512>
    1196:	3307      	adds	r3, #7
    1198:	f023 0307 	bic.w	r3, r3, #7
    119c:	461d      	mov	r5, r3
    119e:	6859      	ldr	r1, [r3, #4]
    11a0:	f855 0b08 	ldr.w	r0, [r5], #8
    11a4:	e7de      	b.n	1164 <kprintf.constprop.0+0x4d0>
/home/aom1/Work/Linux/target/STM32MP1-DK2/bootloader/optee-os-custom/lib/libutils/ext/snprintk.c:317
    11a6:	461d      	mov	r5, r3
/home/aom1/Work/Linux/target/STM32MP1-DK2/bootloader/optee-os-custom/lib/libutils/ext/snprintk.c:473
    11a8:	f014 0310 	ands.w	r3, r4, #16
/home/aom1/Work/Linux/target/STM32MP1-DK2/bootloader/optee-os-custom/lib/libutils/ext/snprintk.c:317
    11ac:	f855 0b04 	ldr.w	r0, [r5], #4
/home/aom1/Work/Linux/target/STM32MP1-DK2/bootloader/optee-os-custom/lib/libutils/ext/snprintk.c:473
    11b0:	d1d6      	bne.n	1160 <kprintf.constprop.0+0x4cc>
    11b2:	f014 0140 	ands.w	r1, r4, #64	; 0x40
    11b6:	d0d3      	beq.n	1160 <kprintf.constprop.0+0x4cc>
    11b8:	b280      	uxth	r0, r0
    11ba:	4619      	mov	r1, r3
    11bc:	e7d0      	b.n	1160 <kprintf.constprop.0+0x4cc>
/home/aom1/Work/Linux/target/STM32MP1-DK2/bootloader/optee-os-custom/lib/libutils/ext/snprintk.c:297
    11be:	4a54      	ldr	r2, [pc, #336]	; (1310 <kprintf.constprop.0+0x67c>)
    11c0:	447a      	add	r2, pc
    11c2:	3211      	adds	r2, #17
/home/aom1/Work/Linux/target/STM32MP1-DK2/bootloader/optee-os-custom/lib/libutils/ext/snprintk.c:480
    11c4:	920f      	str	r2, [sp, #60]	; 0x3c
/home/aom1/Work/Linux/target/STM32MP1-DK2/bootloader/optee-os-custom/lib/libutils/ext/snprintk.c:481
    11c6:	f014 0280 	ands.w	r2, r4, #128	; 0x80
    11ca:	d00a      	beq.n	11e2 <kprintf.constprop.0+0x54e>
    11cc:	3307      	adds	r3, #7
    11ce:	f023 0307 	bic.w	r3, r3, #7
    11d2:	461d      	mov	r5, r3
    11d4:	6859      	ldr	r1, [r3, #4]
    11d6:	f855 0b08 	ldr.w	r0, [r5], #8
    11da:	e009      	b.n	11f0 <kprintf.constprop.0+0x55c>
/home/aom1/Work/Linux/target/STM32MP1-DK2/bootloader/optee-os-custom/lib/libutils/ext/snprintk.c:480
    11dc:	4a4d      	ldr	r2, [pc, #308]	; (1314 <kprintf.constprop.0+0x680>)
    11de:	447a      	add	r2, pc
    11e0:	e7f0      	b.n	11c4 <kprintf.constprop.0+0x530>
/home/aom1/Work/Linux/target/STM32MP1-DK2/bootloader/optee-os-custom/lib/libutils/ext/snprintk.c:481
    11e2:	f414 7180 	ands.w	r1, r4, #256	; 0x100
    11e6:	d00f      	beq.n	1208 <kprintf.constprop.0+0x574>
    11e8:	461d      	mov	r5, r3
    11ea:	4611      	mov	r1, r2
    11ec:	f855 0b04 	ldr.w	r0, [r5], #4
/home/aom1/Work/Linux/target/STM32MP1-DK2/bootloader/optee-os-custom/lib/libutils/ext/snprintk.c:484
    11f0:	07e3      	lsls	r3, r4, #31
    11f2:	f57f af75 	bpl.w	10e0 <kprintf.constprop.0+0x44c>
    11f6:	ea50 0301 	orrs.w	r3, r0, r1
/home/aom1/Work/Linux/target/STM32MP1-DK2/bootloader/optee-os-custom/lib/libutils/ext/snprintk.c:488
    11fa:	f04f 0800 	mov.w	r8, #0
/home/aom1/Work/Linux/target/STM32MP1-DK2/bootloader/optee-os-custom/lib/libutils/ext/snprintk.c:485
    11fe:	bf18      	it	ne
    1200:	f044 0402 	orrne.w	r4, r4, #2
/home/aom1/Work/Linux/target/STM32MP1-DK2/bootloader/optee-os-custom/lib/libutils/ext/snprintk.c:482
    1204:	2302      	movs	r3, #2
    1206:	e64f      	b.n	ea8 <kprintf.constprop.0+0x214>
/home/aom1/Work/Linux/target/STM32MP1-DK2/bootloader/optee-os-custom/lib/libutils/ext/snprintk.c:481
    1208:	05a2      	lsls	r2, r4, #22
    120a:	d503      	bpl.n	1214 <kprintf.constprop.0+0x580>
    120c:	461d      	mov	r5, r3
    120e:	f855 0b04 	ldr.w	r0, [r5], #4
    1212:	e7ed      	b.n	11f0 <kprintf.constprop.0+0x55c>
    1214:	f014 0120 	ands.w	r1, r4, #32
    1218:	d1d8      	bne.n	11cc <kprintf.constprop.0+0x538>
/home/aom1/Work/Linux/target/STM32MP1-DK2/bootloader/optee-os-custom/lib/libutils/ext/snprintk.c:317
    121a:	461d      	mov	r5, r3
/home/aom1/Work/Linux/target/STM32MP1-DK2/bootloader/optee-os-custom/lib/libutils/ext/snprintk.c:481
    121c:	f014 0310 	ands.w	r3, r4, #16
/home/aom1/Work/Linux/target/STM32MP1-DK2/bootloader/optee-os-custom/lib/libutils/ext/snprintk.c:317
    1220:	f855 0b04 	ldr.w	r0, [r5], #4
/home/aom1/Work/Linux/target/STM32MP1-DK2/bootloader/optee-os-custom/lib/libutils/ext/snprintk.c:481
    1224:	d1e4      	bne.n	11f0 <kprintf.constprop.0+0x55c>
    1226:	f014 0140 	ands.w	r1, r4, #64	; 0x40
    122a:	bf1c      	itt	ne
    122c:	b280      	uxthne	r0, r0
    122e:	4619      	movne	r1, r3
    1230:	e7de      	b.n	11f0 <kprintf.constprop.0+0x55c>
/home/aom1/Work/Linux/target/STM32MP1-DK2/bootloader/optee-os-custom/lib/libutils/ext/snprintk.c:494
    1232:	2302      	movs	r3, #2
    1234:	e6ff      	b.n	1036 <kprintf.constprop.0+0x3a2>
    1236:	2301      	movs	r3, #1
    1238:	e6fd      	b.n	1036 <kprintf.constprop.0+0x3a2>
/home/aom1/Work/Linux/target/STM32MP1-DK2/bootloader/optee-os-custom/lib/libutils/ext/snprintk.c:523
    123a:	220a      	movs	r2, #10
    123c:	2300      	movs	r3, #0
    123e:	f000 e884 	blx	1348 <__aeabi_uldivmod>
    1242:	9b10      	ldr	r3, [sp, #64]	; 0x40
    1244:	3230      	adds	r2, #48	; 0x30
/home/aom1/Work/Linux/target/STM32MP1-DK2/bootloader/optee-os-custom/lib/libutils/ext/snprintk.c:524
    1246:	f8cd a040 	str.w	sl, [sp, #64]	; 0x40
/home/aom1/Work/Linux/target/STM32MP1-DK2/bootloader/optee-os-custom/lib/libutils/ext/snprintk.c:523
    124a:	f803 2c01 	strb.w	r2, [r3, #-1]
    124e:	9b10      	ldr	r3, [sp, #64]	; 0x40
/home/aom1/Work/Linux/target/STM32MP1-DK2/bootloader/optee-os-custom/lib/libutils/ext/snprintk.c:522
    1250:	280a      	cmp	r0, #10
/home/aom1/Work/Linux/target/STM32MP1-DK2/bootloader/optee-os-custom/lib/libutils/ext/snprintk.c:523
    1252:	f103 3aff 	add.w	sl, r3, #4294967295	; 0xffffffff
/home/aom1/Work/Linux/target/STM32MP1-DK2/bootloader/optee-os-custom/lib/libutils/ext/snprintk.c:522
    1256:	f171 0300 	sbcs.w	r3, r1, #0
    125a:	d2ee      	bcs.n	123a <kprintf.constprop.0+0x5a6>
/home/aom1/Work/Linux/target/STM32MP1-DK2/bootloader/optee-os-custom/lib/libutils/ext/snprintk.c:526
    125c:	9b10      	ldr	r3, [sp, #64]	; 0x40
    125e:	3030      	adds	r0, #48	; 0x30
    1260:	f803 0c01 	strb.w	r0, [r3, #-1]
/home/aom1/Work/Linux/target/STM32MP1-DK2/bootloader/optee-os-custom/lib/libutils/ext/snprintk.c:527
    1264:	e642      	b.n	eec <kprintf.constprop.0+0x258>
/home/aom1/Work/Linux/target/STM32MP1-DK2/bootloader/optee-os-custom/lib/libutils/ext/snprintk.c:547
    1266:	f1bb 0f00 	cmp.w	fp, #0
    126a:	f43f ad27 	beq.w	cbc <kprintf.constprop.0+0x28>
    126e:	e5a2      	b.n	db6 <kprintf.constprop.0+0x122>
/home/aom1/Work/Linux/target/STM32MP1-DK2/bootloader/optee-os-custom/lib/libutils/ext/snprintk.c:574
    1270:	07a2      	lsls	r2, r4, #30
/home/aom1/Work/Linux/target/STM32MP1-DK2/bootloader/optee-os-custom/lib/libutils/ext/snprintk.c:575
    1272:	bf48      	it	mi
    1274:	3302      	addmi	r3, #2
    1276:	e647      	b.n	f08 <kprintf.constprop.0+0x274>
/home/aom1/Work/Linux/target/STM32MP1-DK2/bootloader/optee-os-custom/lib/libutils/ext/snprintk.c:584
    1278:	b136      	cbz	r6, 1288 <kprintf.constprop.0+0x5f4>
    127a:	990c      	ldr	r1, [sp, #48]	; 0x30
    127c:	b111      	cbz	r1, 1284 <kprintf.constprop.0+0x5f0>
    127e:	990e      	ldr	r1, [sp, #56]	; 0x38
    1280:	42b1      	cmp	r1, r6
    1282:	d901      	bls.n	1288 <kprintf.constprop.0+0x5f4>
    1284:	f806 cb01 	strb.w	ip, [r6], #1
    1288:	3a01      	subs	r2, #1
    128a:	e64d      	b.n	f28 <kprintf.constprop.0+0x294>
/home/aom1/Work/Linux/target/STM32MP1-DK2/bootloader/optee-os-custom/lib/libutils/ext/snprintk.c:590
    128c:	07a1      	lsls	r1, r4, #30
    128e:	f57f ae5a 	bpl.w	f46 <kprintf.constprop.0+0x2b2>
/home/aom1/Work/Linux/target/STM32MP1-DK2/bootloader/optee-os-custom/lib/libutils/ext/snprintk.c:591
    1292:	2e00      	cmp	r6, #0
    1294:	f43f ae57 	beq.w	f46 <kprintf.constprop.0+0x2b2>
    1298:	9a0c      	ldr	r2, [sp, #48]	; 0x30
    129a:	b11a      	cbz	r2, 12a4 <kprintf.constprop.0+0x610>
    129c:	9a0e      	ldr	r2, [sp, #56]	; 0x38
    129e:	42b2      	cmp	r2, r6
    12a0:	f67f ae51 	bls.w	f46 <kprintf.constprop.0+0x2b2>
    12a4:	2230      	movs	r2, #48	; 0x30
    12a6:	7032      	strb	r2, [r6, #0]
/home/aom1/Work/Linux/target/STM32MP1-DK2/bootloader/optee-os-custom/lib/libutils/ext/snprintk.c:592
    12a8:	9a0c      	ldr	r2, [sp, #48]	; 0x30
    12aa:	b11a      	cbz	r2, 12b4 <kprintf.constprop.0+0x620>
    12ac:	990e      	ldr	r1, [sp, #56]	; 0x38
/home/aom1/Work/Linux/target/STM32MP1-DK2/bootloader/optee-os-custom/lib/libutils/ext/snprintk.c:591
    12ae:	1c72      	adds	r2, r6, #1
/home/aom1/Work/Linux/target/STM32MP1-DK2/bootloader/optee-os-custom/lib/libutils/ext/snprintk.c:592
    12b0:	4291      	cmp	r1, r2
    12b2:	d903      	bls.n	12bc <kprintf.constprop.0+0x628>
    12b4:	f886 b001 	strb.w	fp, [r6, #1]
    12b8:	3602      	adds	r6, #2
    12ba:	e644      	b.n	f46 <kprintf.constprop.0+0x2b2>
    12bc:	4616      	mov	r6, r2
    12be:	e642      	b.n	f46 <kprintf.constprop.0+0x2b2>
/home/aom1/Work/Linux/target/STM32MP1-DK2/bootloader/optee-os-custom/lib/libutils/ext/snprintk.c:599
    12c0:	b136      	cbz	r6, 12d0 <kprintf.constprop.0+0x63c>
    12c2:	990c      	ldr	r1, [sp, #48]	; 0x30
    12c4:	b111      	cbz	r1, 12cc <kprintf.constprop.0+0x638>
    12c6:	990e      	ldr	r1, [sp, #56]	; 0x38
    12c8:	42b1      	cmp	r1, r6
    12ca:	d901      	bls.n	12d0 <kprintf.constprop.0+0x63c>
    12cc:	f806 cb01 	strb.w	ip, [r6], #1
    12d0:	3a01      	subs	r2, #1
    12d2:	e63f      	b.n	f54 <kprintf.constprop.0+0x2c0>
/home/aom1/Work/Linux/target/STM32MP1-DK2/bootloader/optee-os-custom/lib/libutils/ext/snprintk.c:605
    12d4:	b136      	cbz	r6, 12e4 <kprintf.constprop.0+0x650>
    12d6:	990c      	ldr	r1, [sp, #48]	; 0x30
    12d8:	b111      	cbz	r1, 12e0 <kprintf.constprop.0+0x64c>
    12da:	990e      	ldr	r1, [sp, #56]	; 0x38
    12dc:	42b1      	cmp	r1, r6
    12de:	d901      	bls.n	12e4 <kprintf.constprop.0+0x650>
    12e0:	f806 2b01 	strb.w	r2, [r6], #1
    12e4:	3801      	subs	r0, #1
    12e6:	e63b      	b.n	f60 <kprintf.constprop.0+0x2cc>
/home/aom1/Work/Linux/target/STM32MP1-DK2/bootloader/optee-os-custom/lib/libutils/ext/snprintk.c:609
    12e8:	b146      	cbz	r6, 12fc <kprintf.constprop.0+0x668>
    12ea:	9a0c      	ldr	r2, [sp, #48]	; 0x30
    12ec:	b112      	cbz	r2, 12f4 <kprintf.constprop.0+0x660>
    12ee:	9a0e      	ldr	r2, [sp, #56]	; 0x38
    12f0:	42b2      	cmp	r2, r6
    12f2:	d903      	bls.n	12fc <kprintf.constprop.0+0x668>
    12f4:	f89a 2000 	ldrb.w	r2, [sl]
    12f8:	f806 2b01 	strb.w	r2, [r6], #1
/home/aom1/Work/Linux/target/STM32MP1-DK2/bootloader/optee-os-custom/lib/libutils/ext/snprintk.c:608
    12fc:	f10a 0a01 	add.w	sl, sl, #1
    1300:	e632      	b.n	f68 <kprintf.constprop.0+0x2d4>
    1302:	bf00      	nop
    1304:	0000892b 	.word	0x0000892b
    1308:	00008920 	.word	0x00008920
    130c:	000088a8 	.word	0x000088a8
    1310:	0000883c 	.word	0x0000883c
    1314:	0000881e 	.word	0x0000881e

00001318 <__vsprintf>:
__vsprintf():
/home/aom1/Work/Linux/target/STM32MP1-DK2/bootloader/optee-os-custom/lib/libutils/ext/snprintk.c:155
    1318:	b513      	push	{r0, r1, r4, lr}
    131a:	4604      	mov	r4, r0
    131c:	4608      	mov	r0, r1
/home/aom1/Work/Linux/target/STM32MP1-DK2/bootloader/optee-os-custom/lib/libutils/ext/snprintk.c:156
    131e:	2100      	movs	r1, #0
    1320:	9100      	str	r1, [sp, #0]
/home/aom1/Work/Linux/target/STM32MP1-DK2/bootloader/optee-os-custom/lib/libutils/ext/snprintk.c:155
    1322:	4613      	mov	r3, r2
/home/aom1/Work/Linux/target/STM32MP1-DK2/bootloader/optee-os-custom/lib/libutils/ext/snprintk.c:156
    1324:	4622      	mov	r2, r4
    1326:	f7ff fcb5 	bl	c94 <kprintf.constprop.0>
/home/aom1/Work/Linux/target/STM32MP1-DK2/bootloader/optee-os-custom/lib/libutils/ext/snprintk.c:157
    132a:	b002      	add	sp, #8
    132c:	bd10      	pop	{r4, pc}
    132e:	bf00      	nop

00001330 <__aeabi_ldivmod>:
__aeabi_ldivmod():
/home/aom1/Work/Linux/target/STM32MP1-DK2/bootloader/optee-os-custom/lib/libutils/isoc/arch/arm/arm32_aeabi_ldivmod_a32.S:12
    1330:	e92d5000 	push	{ip, lr}
/home/aom1/Work/Linux/target/STM32MP1-DK2/bootloader/optee-os-custom/lib/libutils/isoc/arch/arm/arm32_aeabi_ldivmod_a32.S:14
    1334:	e92d000f 	push	{r0, r1, r2, r3}
/home/aom1/Work/Linux/target/STM32MP1-DK2/bootloader/optee-os-custom/lib/libutils/isoc/arch/arm/arm32_aeabi_ldivmod_a32.S:16
    1338:	e1a0000d 	mov	r0, sp
/home/aom1/Work/Linux/target/STM32MP1-DK2/bootloader/optee-os-custom/lib/libutils/isoc/arch/arm/arm32_aeabi_ldivmod_a32.S:17
    133c:	fa001f96 	blx	919c <__l_divmod>
/home/aom1/Work/Linux/target/STM32MP1-DK2/bootloader/optee-os-custom/lib/libutils/isoc/arch/arm/arm32_aeabi_ldivmod_a32.S:18
    1340:	e8bd000f 	pop	{r0, r1, r2, r3}
/home/aom1/Work/Linux/target/STM32MP1-DK2/bootloader/optee-os-custom/lib/libutils/isoc/arch/arm/arm32_aeabi_ldivmod_a32.S:19
    1344:	e8bd9000 	pop	{ip, pc}

00001348 <__aeabi_uldivmod>:
__aeabi_uldivmod():
/home/aom1/Work/Linux/target/STM32MP1-DK2/bootloader/optee-os-custom/lib/libutils/isoc/arch/arm/arm32_aeabi_ldivmod_a32.S:27
    1348:	e92d5000 	push	{ip, lr}
/home/aom1/Work/Linux/target/STM32MP1-DK2/bootloader/optee-os-custom/lib/libutils/isoc/arch/arm/arm32_aeabi_ldivmod_a32.S:29
    134c:	e92d000f 	push	{r0, r1, r2, r3}
/home/aom1/Work/Linux/target/STM32MP1-DK2/bootloader/optee-os-custom/lib/libutils/isoc/arch/arm/arm32_aeabi_ldivmod_a32.S:31
    1350:	e1a0000d 	mov	r0, sp
/home/aom1/Work/Linux/target/STM32MP1-DK2/bootloader/optee-os-custom/lib/libutils/isoc/arch/arm/arm32_aeabi_ldivmod_a32.S:32
    1354:	fb001f81 	blx	9162 <__ul_divmod>
/home/aom1/Work/Linux/target/STM32MP1-DK2/bootloader/optee-os-custom/lib/libutils/isoc/arch/arm/arm32_aeabi_ldivmod_a32.S:33
    1358:	e8bd000f 	pop	{r0, r1, r2, r3}
/home/aom1/Work/Linux/target/STM32MP1-DK2/bootloader/optee-os-custom/lib/libutils/isoc/arch/arm/arm32_aeabi_ldivmod_a32.S:34
    135c:	e8bd9000 	pop	{ip, pc}

00001360 <_assert_log>:
_assert_log():
/home/aom1/Work/Linux/target/STM32MP1-DK2/bootloader/optee-os-custom/lib/libutee/assert.c:17
    1360:	b57f      	push	{r0, r1, r2, r3, r4, r5, r6, lr}
/home/aom1/Work/Linux/target/STM32MP1-DK2/bootloader/optee-os-custom/lib/libutee/assert.c:18
    1362:	9304      	str	r3, [sp, #16]
    1364:	4b07      	ldr	r3, [pc, #28]	; (1384 <_assert_log+0x24>)
    1366:	9102      	str	r1, [sp, #8]
    1368:	2100      	movs	r1, #0
    136a:	447b      	add	r3, pc
    136c:	9300      	str	r3, [sp, #0]
    136e:	2301      	movs	r3, #1
    1370:	9203      	str	r2, [sp, #12]
    1372:	461a      	mov	r2, r3
    1374:	9001      	str	r0, [sp, #4]
    1376:	4608      	mov	r0, r1
    1378:	f7ff fc52 	bl	c20 <trace_printf>
/home/aom1/Work/Linux/target/STM32MP1-DK2/bootloader/optee-os-custom/lib/libutee/assert.c:20
    137c:	b007      	add	sp, #28
    137e:	f85d fb04 	ldr.w	pc, [sp], #4
    1382:	bf00      	nop
    1384:	000086b4 	.word	0x000086b4

00001388 <_assert_break>:
_assert_break():
/home/aom1/Work/Linux/target/STM32MP1-DK2/bootloader/optee-os-custom/lib/libutee/assert.c:24
    1388:	4802      	ldr	r0, [pc, #8]	; (1394 <_assert_break+0xc>)
/home/aom1/Work/Linux/target/STM32MP1-DK2/bootloader/optee-os-custom/lib/libutee/assert.c:23
    138a:	b508      	push	{r3, lr}
/home/aom1/Work/Linux/target/STM32MP1-DK2/bootloader/optee-os-custom/lib/libutee/assert.c:24
    138c:	f002 e98e 	blx	36ac <_utee_panic>
/home/aom1/Work/Linux/target/STM32MP1-DK2/bootloader/optee-os-custom/lib/libutee/assert.c:26 (discriminator 1)
    1390:	e7fe      	b.n	1390 <_assert_break+0x8>
    1392:	bf00      	nop
    1394:	ffff0000 	.word	0xffff0000

00001398 <trace_ext_puts>:
trace_ext_puts():
/home/aom1/Work/Linux/target/STM32MP1-DK2/bootloader/optee-os-custom/lib/libutee/trace_ext.c:22
    1398:	b510      	push	{r4, lr}
    139a:	4604      	mov	r4, r0
/home/aom1/Work/Linux/target/STM32MP1-DK2/bootloader/optee-os-custom/lib/libutee/trace_ext.c:26
    139c:	f007 fe94 	bl	90c8 <strlen>
    13a0:	4601      	mov	r1, r0
    13a2:	4620      	mov	r0, r4
/home/aom1/Work/Linux/target/STM32MP1-DK2/bootloader/optee-os-custom/lib/libutee/trace_ext.c:28
    13a4:	e8bd 4010 	ldmia.w	sp!, {r4, lr}
/home/aom1/Work/Linux/target/STM32MP1-DK2/bootloader/optee-os-custom/lib/libutee/trace_ext.c:26
    13a8:	f007 bf9e 	b.w	92e8 <___utee_log_from_thumb>

000013ac <trace_ext_get_thread_id>:
trace_ext_get_thread_id():
/home/aom1/Work/Linux/target/STM32MP1-DK2/bootloader/optee-os-custom/lib/libutee/trace_ext.c:33
    13ac:	f04f 30ff 	mov.w	r0, #4294967295	; 0xffffffff
    13b0:	4770      	bx	lr

000013b2 <printf>:
printf():
/home/aom1/Work/Linux/target/STM32MP1-DK2/bootloader/optee-os-custom/lib/libutee/trace_ext.c:41
    13b2:	b40f      	push	{r0, r1, r2, r3}
    13b4:	b530      	push	{r4, r5, lr}
    13b6:	b0c3      	sub	sp, #268	; 0x10c
/home/aom1/Work/Linux/target/STM32MP1-DK2/bootloader/optee-os-custom/lib/libutee/trace_ext.c:46
    13b8:	f7ff fb8c 	bl	ad4 <trace_get_level>
    13bc:	2800      	cmp	r0, #0
    13be:	dd13      	ble.n	13e8 <printf+0x36>
/home/aom1/Work/Linux/target/STM32MP1-DK2/bootloader/optee-os-custom/lib/libutee/trace_ext.c:50
    13c0:	9a46      	ldr	r2, [sp, #280]	; 0x118
    13c2:	ad02      	add	r5, sp, #8
/home/aom1/Work/Linux/target/STM32MP1-DK2/bootloader/optee-os-custom/lib/libutee/trace_ext.c:49
    13c4:	ab47      	add	r3, sp, #284	; 0x11c
/home/aom1/Work/Linux/target/STM32MP1-DK2/bootloader/optee-os-custom/lib/libutee/trace_ext.c:50
    13c6:	f44f 7180 	mov.w	r1, #256	; 0x100
/home/aom1/Work/Linux/target/STM32MP1-DK2/bootloader/optee-os-custom/lib/libutee/trace_ext.c:49
    13ca:	9301      	str	r3, [sp, #4]
/home/aom1/Work/Linux/target/STM32MP1-DK2/bootloader/optee-os-custom/lib/libutee/trace_ext.c:50
    13cc:	4628      	mov	r0, r5
    13ce:	f007 ff2d 	bl	922c <vsnprintf>
/home/aom1/Work/Linux/target/STM32MP1-DK2/bootloader/optee-os-custom/lib/libutee/trace_ext.c:53
    13d2:	1e04      	subs	r4, r0, #0
    13d4:	db02      	blt.n	13dc <printf+0x2a>
/home/aom1/Work/Linux/target/STM32MP1-DK2/bootloader/optee-os-custom/lib/libutee/trace_ext.c:56
    13d6:	4628      	mov	r0, r5
    13d8:	f7ff ffde 	bl	1398 <trace_ext_puts>
/home/aom1/Work/Linux/target/STM32MP1-DK2/bootloader/optee-os-custom/lib/libutee/trace_ext.c:59
    13dc:	4620      	mov	r0, r4
    13de:	b043      	add	sp, #268	; 0x10c
    13e0:	e8bd 4030 	ldmia.w	sp!, {r4, r5, lr}
    13e4:	b004      	add	sp, #16
    13e6:	4770      	bx	lr
/home/aom1/Work/Linux/target/STM32MP1-DK2/bootloader/optee-os-custom/lib/libutee/trace_ext.c:47
    13e8:	2400      	movs	r4, #0
    13ea:	e7f7      	b.n	13dc <printf+0x2a>

000013ec <puts>:
puts():
/home/aom1/Work/Linux/target/STM32MP1-DK2/bootloader/optee-os-custom/lib/libutee/trace_ext.c:62
    13ec:	b510      	push	{r4, lr}
    13ee:	4604      	mov	r4, r0
/home/aom1/Work/Linux/target/STM32MP1-DK2/bootloader/optee-os-custom/lib/libutee/trace_ext.c:63
    13f0:	f7ff fb70 	bl	ad4 <trace_get_level>
    13f4:	2800      	cmp	r0, #0
    13f6:	dd06      	ble.n	1406 <puts+0x1a>
/home/aom1/Work/Linux/target/STM32MP1-DK2/bootloader/optee-os-custom/lib/libutee/trace_ext.c:64
    13f8:	4620      	mov	r0, r4
    13fa:	f7ff ffcd 	bl	1398 <trace_ext_puts>
/home/aom1/Work/Linux/target/STM32MP1-DK2/bootloader/optee-os-custom/lib/libutee/trace_ext.c:65
    13fe:	4803      	ldr	r0, [pc, #12]	; (140c <puts+0x20>)
    1400:	4478      	add	r0, pc
    1402:	f7ff ffc9 	bl	1398 <trace_ext_puts>
/home/aom1/Work/Linux/target/STM32MP1-DK2/bootloader/optee-os-custom/lib/libutee/trace_ext.c:68
    1406:	2001      	movs	r0, #1
    1408:	bd10      	pop	{r4, pc}
    140a:	bf00      	nop
    140c:	00008dea 	.word	0x00008dea

00001410 <putchar>:
putchar():
/home/aom1/Work/Linux/target/STM32MP1-DK2/bootloader/optee-os-custom/lib/libutee/trace_ext.c:71
    1410:	b513      	push	{r0, r1, r4, lr}
/home/aom1/Work/Linux/target/STM32MP1-DK2/bootloader/optee-os-custom/lib/libutee/trace_ext.c:72
    1412:	2300      	movs	r3, #0
    1414:	f88d 0004 	strb.w	r0, [sp, #4]
/home/aom1/Work/Linux/target/STM32MP1-DK2/bootloader/optee-os-custom/lib/libutee/trace_ext.c:71
    1418:	4604      	mov	r4, r0
/home/aom1/Work/Linux/target/STM32MP1-DK2/bootloader/optee-os-custom/lib/libutee/trace_ext.c:72
    141a:	f88d 3005 	strb.w	r3, [sp, #5]
/home/aom1/Work/Linux/target/STM32MP1-DK2/bootloader/optee-os-custom/lib/libutee/trace_ext.c:74
    141e:	f7ff fb59 	bl	ad4 <trace_get_level>
    1422:	2800      	cmp	r0, #0
    1424:	dd02      	ble.n	142c <putchar+0x1c>
/home/aom1/Work/Linux/target/STM32MP1-DK2/bootloader/optee-os-custom/lib/libutee/trace_ext.c:75
    1426:	a801      	add	r0, sp, #4
    1428:	f7ff ffb6 	bl	1398 <trace_ext_puts>
/home/aom1/Work/Linux/target/STM32MP1-DK2/bootloader/optee-os-custom/lib/libutee/trace_ext.c:82
    142c:	b2e0      	uxtb	r0, r4
    142e:	b002      	add	sp, #8
    1430:	bd10      	pop	{r4, pc}
    1432:	bf00      	nop

00001434 <update_out_param>:
update_out_param():
/home/aom1/Work/Linux/target/STM32MP1-DK2/bootloader/optee-os-custom/lib/libutee/tee_api.c:121
    1434:	e92d 47f0 	stmdb	sp!, {r4, r5, r6, r7, r8, r9, sl, lr}
    1438:	4607      	mov	r7, r0
/home/aom1/Work/Linux/target/STM32MP1-DK2/bootloader/optee-os-custom/lib/libutee/tee_api.c:123
    143a:	f8d2 a000 	ldr.w	sl, [r2]
/home/aom1/Work/Linux/target/STM32MP1-DK2/bootloader/optee-os-custom/lib/libutee/tee_api.c:121
    143e:	4688      	mov	r8, r1
    1440:	4614      	mov	r4, r2
    1442:	4606      	mov	r6, r0
/home/aom1/Work/Linux/target/STM32MP1-DK2/bootloader/optee-os-custom/lib/libutee/tee_api.c:123
    1444:	2500      	movs	r5, #0
/home/aom1/Work/Linux/target/STM32MP1-DK2/bootloader/optee-os-custom/lib/libutee/tee_api.c:129
    1446:	fa2a f205 	lsr.w	r2, sl, r5
/home/aom1/Work/Linux/target/STM32MP1-DK2/bootloader/optee-os-custom/lib/libutee/tee_api.c:126
    144a:	68a1      	ldr	r1, [r4, #8]
/home/aom1/Work/Linux/target/STM32MP1-DK2/bootloader/optee-os-custom/lib/libutee/tee_api.c:129
    144c:	f012 0f0c 	tst.w	r2, #12
/home/aom1/Work/Linux/target/STM32MP1-DK2/bootloader/optee-os-custom/lib/libutee/tee_api.c:127
    1450:	f8d4 9010 	ldr.w	r9, [r4, #16]
/home/aom1/Work/Linux/target/STM32MP1-DK2/bootloader/optee-os-custom/lib/libutee/tee_api.c:129
    1454:	f002 030f 	and.w	r3, r2, #15
    1458:	d107      	bne.n	146a <update_out_param+0x36>
    145a:	f012 0f0e 	tst.w	r2, #14
    145e:	d007      	beq.n	1470 <update_out_param+0x3c>
/home/aom1/Work/Linux/target/STM32MP1-DK2/bootloader/optee-os-custom/lib/libutee/tee_api.c:126
    1460:	f847 1015 	str.w	r1, [r7, r5, lsl #1]
/home/aom1/Work/Linux/target/STM32MP1-DK2/bootloader/optee-os-custom/lib/libutee/tee_api.c:140
    1464:	f8c6 9004 	str.w	r9, [r6, #4]
/home/aom1/Work/Linux/target/STM32MP1-DK2/bootloader/optee-os-custom/lib/libutee/tee_api.c:141
    1468:	e002      	b.n	1470 <update_out_param+0x3c>
/home/aom1/Work/Linux/target/STM32MP1-DK2/bootloader/optee-os-custom/lib/libutee/tee_api.c:129
    146a:	3b06      	subs	r3, #6
    146c:	2b01      	cmp	r3, #1
    146e:	d907      	bls.n	1480 <update_out_param+0x4c>
/home/aom1/Work/Linux/target/STM32MP1-DK2/bootloader/optee-os-custom/lib/libutee/tee_api.c:125 (discriminator 2)
    1470:	3504      	adds	r5, #4
    1472:	3410      	adds	r4, #16
    1474:	2d10      	cmp	r5, #16
    1476:	f106 0608 	add.w	r6, r6, #8
    147a:	d1e4      	bne.n	1446 <update_out_param+0x12>
/home/aom1/Work/Linux/target/STM32MP1-DK2/bootloader/optee-os-custom/lib/libutee/tee_api.c:146
    147c:	e8bd 87f0 	ldmia.w	sp!, {r4, r5, r6, r7, r8, r9, sl, pc}
/home/aom1/Work/Linux/target/STM32MP1-DK2/bootloader/optee-os-custom/lib/libutee/tee_api.c:137
    1480:	f858 1005 	ldr.w	r1, [r8, r5]
    1484:	2900      	cmp	r1, #0
    1486:	d0ed      	beq.n	1464 <update_out_param+0x30>
/home/aom1/Work/Linux/target/STM32MP1-DK2/bootloader/optee-os-custom/lib/libutee/tee_api.c:139
    1488:	6872      	ldr	r2, [r6, #4]
/home/aom1/Work/Linux/target/STM32MP1-DK2/bootloader/optee-os-custom/lib/libutee/tee_api.c:138
    148a:	f857 0015 	ldr.w	r0, [r7, r5, lsl #1]
    148e:	454a      	cmp	r2, r9
    1490:	bf28      	it	cs
    1492:	464a      	movcs	r2, r9
    1494:	f7ff faa4 	bl	9e0 <memcpy>
    1498:	e7e4      	b.n	1464 <update_out_param+0x30>

0000149a <TEE_CloseTASession>:
TEE_CloseTASession():
/home/aom1/Work/Linux/target/STM32MP1-DK2/bootloader/optee-os-custom/lib/libutee/tee_api.c:195
    149a:	b508      	push	{r3, lr}
/home/aom1/Work/Linux/target/STM32MP1-DK2/bootloader/optee-os-custom/lib/libutee/tee_api.c:196
    149c:	b130      	cbz	r0, 14ac <TEE_CloseTASession+0x12>
/home/aom1/Work/Linux/target/STM32MP1-DK2/bootloader/optee-os-custom/lib/libutee/tee_api.c:197
    149e:	f002 e950 	blx	3740 <_utee_close_ta_session>
/home/aom1/Work/Linux/target/STM32MP1-DK2/bootloader/optee-os-custom/lib/libutee/tee_api.c:199
    14a2:	b118      	cbz	r0, 14ac <TEE_CloseTASession+0x12>
/home/aom1/Work/Linux/target/STM32MP1-DK2/bootloader/optee-os-custom/lib/libutee/tee_api.c:202
    14a4:	e8bd 4008 	ldmia.w	sp!, {r3, lr}
/home/aom1/Work/Linux/target/STM32MP1-DK2/bootloader/optee-os-custom/lib/libutee/tee_api.c:200
    14a8:	f001 bff6 	b.w	3498 <TEE_Panic>
/home/aom1/Work/Linux/target/STM32MP1-DK2/bootloader/optee-os-custom/lib/libutee/tee_api.c:202
    14ac:	bd08      	pop	{r3, pc}

000014ae <TEE_GetCancellationFlag>:
TEE_GetCancellationFlag():
/home/aom1/Work/Linux/target/STM32MP1-DK2/bootloader/optee-os-custom/lib/libutee/tee_api.c:257
    14ae:	b507      	push	{r0, r1, r2, lr}
/home/aom1/Work/Linux/target/STM32MP1-DK2/bootloader/optee-os-custom/lib/libutee/tee_api.c:259
    14b0:	a801      	add	r0, sp, #4
    14b2:	f002 e95c 	blx	376c <_utee_get_cancellation_flag>
/home/aom1/Work/Linux/target/STM32MP1-DK2/bootloader/optee-os-custom/lib/libutee/tee_api.c:261
    14b6:	b108      	cbz	r0, 14bc <TEE_GetCancellationFlag+0xe>
/home/aom1/Work/Linux/target/STM32MP1-DK2/bootloader/optee-os-custom/lib/libutee/tee_api.c:262
    14b8:	2300      	movs	r3, #0
    14ba:	9301      	str	r3, [sp, #4]
/home/aom1/Work/Linux/target/STM32MP1-DK2/bootloader/optee-os-custom/lib/libutee/tee_api.c:264
    14bc:	9801      	ldr	r0, [sp, #4]
    14be:	3800      	subs	r0, #0
    14c0:	bf18      	it	ne
    14c2:	2001      	movne	r0, #1
    14c4:	b003      	add	sp, #12
    14c6:	f85d fb04 	ldr.w	pc, [sp], #4

000014ca <TEE_UnmaskCancellation>:
TEE_UnmaskCancellation():
/home/aom1/Work/Linux/target/STM32MP1-DK2/bootloader/optee-os-custom/lib/libutee/tee_api.c:267
    14ca:	b507      	push	{r0, r1, r2, lr}
/home/aom1/Work/Linux/target/STM32MP1-DK2/bootloader/optee-os-custom/lib/libutee/tee_api.c:269
    14cc:	a801      	add	r0, sp, #4
    14ce:	f002 e962 	blx	3794 <_utee_unmask_cancellation>
/home/aom1/Work/Linux/target/STM32MP1-DK2/bootloader/optee-os-custom/lib/libutee/tee_api.c:271
    14d2:	b108      	cbz	r0, 14d8 <TEE_UnmaskCancellation+0xe>
/home/aom1/Work/Linux/target/STM32MP1-DK2/bootloader/optee-os-custom/lib/libutee/tee_api.c:272
    14d4:	f001 ffe0 	bl	3498 <TEE_Panic>
/home/aom1/Work/Linux/target/STM32MP1-DK2/bootloader/optee-os-custom/lib/libutee/tee_api.c:274
    14d8:	9801      	ldr	r0, [sp, #4]
    14da:	3800      	subs	r0, #0
    14dc:	bf18      	it	ne
    14de:	2001      	movne	r0, #1
    14e0:	b003      	add	sp, #12
    14e2:	f85d fb04 	ldr.w	pc, [sp], #4

000014e6 <TEE_MaskCancellation>:
TEE_MaskCancellation():
/home/aom1/Work/Linux/target/STM32MP1-DK2/bootloader/optee-os-custom/lib/libutee/tee_api.c:277
    14e6:	b507      	push	{r0, r1, r2, lr}
/home/aom1/Work/Linux/target/STM32MP1-DK2/bootloader/optee-os-custom/lib/libutee/tee_api.c:279
    14e8:	a801      	add	r0, sp, #4
    14ea:	f002 e95e 	blx	37a8 <_utee_mask_cancellation>
/home/aom1/Work/Linux/target/STM32MP1-DK2/bootloader/optee-os-custom/lib/libutee/tee_api.c:281
    14ee:	b108      	cbz	r0, 14f4 <TEE_MaskCancellation+0xe>
/home/aom1/Work/Linux/target/STM32MP1-DK2/bootloader/optee-os-custom/lib/libutee/tee_api.c:282
    14f0:	f001 ffd2 	bl	3498 <TEE_Panic>
/home/aom1/Work/Linux/target/STM32MP1-DK2/bootloader/optee-os-custom/lib/libutee/tee_api.c:284
    14f4:	9801      	ldr	r0, [sp, #4]
    14f6:	3800      	subs	r0, #0
    14f8:	bf18      	it	ne
    14fa:	2001      	movne	r0, #1
    14fc:	b003      	add	sp, #12
    14fe:	f85d fb04 	ldr.w	pc, [sp], #4

00001502 <TEE_CheckMemoryAccessRights>:
TEE_CheckMemoryAccessRights():
/home/aom1/Work/Linux/target/STM32MP1-DK2/bootloader/optee-os-custom/lib/libutee/tee_api.c:293
    1502:	b10a      	cbz	r2, 1508 <TEE_CheckMemoryAccessRights+0x6>
/home/aom1/Work/Linux/target/STM32MP1-DK2/bootloader/optee-os-custom/lib/libutee/tee_api.c:297
    1504:	f007 bee8 	b.w	92d8 <___utee_check_access_rights_from_thumb>
/home/aom1/Work/Linux/target/STM32MP1-DK2/bootloader/optee-os-custom/lib/libutee/tee_api.c:309
    1508:	4610      	mov	r0, r2
    150a:	4770      	bx	lr

0000150c <copy_param>:
copy_param():
/home/aom1/Work/Linux/target/STM32MP1-DK2/bootloader/optee-os-custom/lib/libutee/tee_api.c:29
    150c:	e92d 4ff0 	stmdb	sp!, {r4, r5, r6, r7, r8, r9, sl, fp, lr}
/home/aom1/Work/Linux/target/STM32MP1-DK2/bootloader/optee-os-custom/lib/libutee/tee_api.c:34
    1510:	2500      	movs	r5, #0
/home/aom1/Work/Linux/target/STM32MP1-DK2/bootloader/optee-os-custom/lib/libutee/tee_api.c:29
    1512:	ed2d 8b02 	vpush	{d8}
/home/aom1/Work/Linux/target/STM32MP1-DK2/bootloader/optee-os-custom/lib/libutee/tee_api.c:45
    1516:	601d      	str	r5, [r3, #0]
/home/aom1/Work/Linux/target/STM32MP1-DK2/bootloader/optee-os-custom/lib/libutee/tee_api.c:29
    1518:	b085      	sub	sp, #20
    151a:	4699      	mov	r9, r3
    151c:	4604      	mov	r4, r0
/home/aom1/Work/Linux/target/STM32MP1-DK2/bootloader/optee-os-custom/lib/libutee/tee_api.c:46
    151e:	9b10      	ldr	r3, [sp, #64]	; 0x40
/home/aom1/Work/Linux/target/STM32MP1-DK2/bootloader/optee-os-custom/lib/libutee/tee_api.c:29
    1520:	4688      	mov	r8, r1
/home/aom1/Work/Linux/target/STM32MP1-DK2/bootloader/optee-os-custom/lib/libutee/tee_api.c:34
    1522:	9503      	str	r5, [sp, #12]
/home/aom1/Work/Linux/target/STM32MP1-DK2/bootloader/optee-os-custom/lib/libutee/tee_api.c:29
    1524:	4617      	mov	r7, r2
/home/aom1/Work/Linux/target/STM32MP1-DK2/bootloader/optee-os-custom/lib/libutee/tee_api.c:46
    1526:	601d      	str	r5, [r3, #0]
/home/aom1/Work/Linux/target/STM32MP1-DK2/bootloader/optee-os-custom/lib/libutee/tee_api.c:47
    1528:	462e      	mov	r6, r5
/home/aom1/Work/Linux/target/STM32MP1-DK2/bootloader/optee-os-custom/lib/libutee/tee_api.c:48
    152a:	462b      	mov	r3, r5
/home/aom1/Work/Linux/target/STM32MP1-DK2/bootloader/optee-os-custom/lib/libutee/tee_api.c:54
    152c:	f102 0b04 	add.w	fp, r2, #4
/home/aom1/Work/Linux/target/STM32MP1-DK2/bootloader/optee-os-custom/lib/libutee/tee_api.c:65
    1530:	f04f 0a01 	mov.w	sl, #1
/home/aom1/Work/Linux/target/STM32MP1-DK2/bootloader/optee-os-custom/lib/libutee/tee_api.c:48
    1534:	9a11      	ldr	r2, [sp, #68]	; 0x44
    1536:	f842 3026 	str.w	r3, [r2, r6, lsl #2]
/home/aom1/Work/Linux/target/STM32MP1-DK2/bootloader/optee-os-custom/lib/libutee/tee_api.c:49
    153a:	00b2      	lsls	r2, r6, #2
    153c:	fa28 f202 	lsr.w	r2, r8, r2
    1540:	f002 020f 	and.w	r2, r2, #15
    1544:	3a05      	subs	r2, #5
    1546:	2a02      	cmp	r2, #2
    1548:	d813      	bhi.n	1572 <copy_param+0x66>
/home/aom1/Work/Linux/target/STM32MP1-DK2/bootloader/optee-os-custom/lib/libutee/tee_api.c:53
    154a:	f857 1036 	ldr.w	r1, [r7, r6, lsl #3]
/home/aom1/Work/Linux/target/STM32MP1-DK2/bootloader/optee-os-custom/lib/libutee/tee_api.c:64
    154e:	b181      	cbz	r1, 1572 <copy_param+0x66>
/home/aom1/Work/Linux/target/STM32MP1-DK2/bootloader/optee-os-custom/lib/libutee/tee_api.c:54 (discriminator 1)
    1550:	f85b 2036 	ldr.w	r2, [fp, r6, lsl #3]
/home/aom1/Work/Linux/target/STM32MP1-DK2/bootloader/optee-os-custom/lib/libutee/tee_api.c:64 (discriminator 1)
    1554:	b16a      	cbz	r2, 1572 <copy_param+0x66>
/home/aom1/Work/Linux/target/STM32MP1-DK2/bootloader/optee-os-custom/lib/libutee/tee_api.c:65 (discriminator 2)
    1556:	9201      	str	r2, [sp, #4]
    1558:	2001      	movs	r0, #1
    155a:	f7ff ffd2 	bl	1502 <TEE_CheckMemoryAccessRights>
/home/aom1/Work/Linux/target/STM32MP1-DK2/bootloader/optee-os-custom/lib/libutee/tee_api.c:64 (discriminator 2)
    155e:	2300      	movs	r3, #0
    1560:	b938      	cbnz	r0, 1572 <copy_param+0x66>
/home/aom1/Work/Linux/target/STM32MP1-DK2/bootloader/optee-os-custom/lib/libutee/tee_api.c:67
    1562:	9a01      	ldr	r2, [sp, #4]
/home/aom1/Work/Linux/target/STM32MP1-DK2/bootloader/optee-os-custom/lib/libutee/tee_api.c:66
    1564:	a903      	add	r1, sp, #12
    1566:	f806 a001 	strb.w	sl, [r6, r1]
/home/aom1/Work/Linux/target/STM32MP1-DK2/bootloader/optee-os-custom/lib/libutee/tee_api.c:67
    156a:	3207      	adds	r2, #7
    156c:	f022 0207 	bic.w	r2, r2, #7
    1570:	4415      	add	r5, r2
/home/aom1/Work/Linux/target/STM32MP1-DK2/bootloader/optee-os-custom/lib/libutee/tee_api.c:47 (discriminator 2)
    1572:	3601      	adds	r6, #1
    1574:	2e04      	cmp	r6, #4
    1576:	d1dd      	bne.n	1534 <copy_param+0x28>
/home/aom1/Work/Linux/target/STM32MP1-DK2/bootloader/optee-os-custom/lib/libutee/tee_api.c:75
    1578:	b315      	cbz	r5, 15c0 <copy_param+0xb4>
/home/aom1/Work/Linux/target/STM32MP1-DK2/bootloader/optee-os-custom/lib/libutee/tee_api.c:76
    157a:	4631      	mov	r1, r6
    157c:	4628      	mov	r0, r5
    157e:	f002 f80f 	bl	35a0 <tee_map_zi>
/home/aom1/Work/Linux/target/STM32MP1-DK2/bootloader/optee-os-custom/lib/libutee/tee_api.c:77
    1582:	4603      	mov	r3, r0
    1584:	2800      	cmp	r0, #0
    1586:	d053      	beq.n	1630 <copy_param+0x124>
/home/aom1/Work/Linux/target/STM32MP1-DK2/bootloader/optee-os-custom/lib/libutee/tee_api.c:80
    1588:	9a10      	ldr	r2, [sp, #64]	; 0x40
/home/aom1/Work/Linux/target/STM32MP1-DK2/bootloader/optee-os-custom/lib/libutee/tee_api.c:79
    158a:	f8c9 0000 	str.w	r0, [r9]
/home/aom1/Work/Linux/target/STM32MP1-DK2/bootloader/optee-os-custom/lib/libutee/tee_api.c:80
    158e:	6015      	str	r5, [r2, #0]
/home/aom1/Work/Linux/target/STM32MP1-DK2/bootloader/optee-os-custom/lib/libutee/tee_api.c:109
    1590:	ef80 8010 	vmov.i32	d8, #0	; 0x00000000
/home/aom1/Work/Linux/target/STM32MP1-DK2/bootloader/optee-os-custom/lib/libutee/tee_api.c:83
    1594:	2500      	movs	r5, #0
    1596:	46b9      	mov	r9, r7
/home/aom1/Work/Linux/target/STM32MP1-DK2/bootloader/optee-os-custom/lib/libutee/tee_api.c:88
    1598:	46aa      	mov	sl, r5
/home/aom1/Work/Linux/target/STM32MP1-DK2/bootloader/optee-os-custom/lib/libutee/tee_api.c:89
    159a:	46ab      	mov	fp, r5
/home/aom1/Work/Linux/target/STM32MP1-DK2/bootloader/optee-os-custom/lib/libutee/tee_api.c:83
    159c:	e9c4 8500 	strd	r8, r5, [r4]
/home/aom1/Work/Linux/target/STM32MP1-DK2/bootloader/optee-os-custom/lib/libutee/tee_api.c:85
    15a0:	00aa      	lsls	r2, r5, #2
    15a2:	fa28 f202 	lsr.w	r2, r8, r2
    15a6:	f002 010f 	and.w	r1, r2, #15
    15aa:	2903      	cmp	r1, #3
    15ac:	d027      	beq.n	15fe <copy_param+0xf2>
    15ae:	f012 0f0c 	tst.w	r2, #12
    15b2:	d107      	bne.n	15c4 <copy_param+0xb8>
    15b4:	2901      	cmp	r1, #1
    15b6:	d022      	beq.n	15fe <copy_param+0xf2>
/home/aom1/Work/Linux/target/STM32MP1-DK2/bootloader/optee-os-custom/lib/libutee/tee_api.c:111
    15b8:	2200      	movs	r2, #0
/home/aom1/Work/Linux/target/STM32MP1-DK2/bootloader/optee-os-custom/lib/libutee/tee_api.c:109
    15ba:	ed84 8b02 	vstr	d8, [r4, #8]
/home/aom1/Work/Linux/target/STM32MP1-DK2/bootloader/optee-os-custom/lib/libutee/tee_api.c:111
    15be:	e024      	b.n	160a <copy_param+0xfe>
/home/aom1/Work/Linux/target/STM32MP1-DK2/bootloader/optee-os-custom/lib/libutee/tee_api.c:31
    15c0:	462b      	mov	r3, r5
    15c2:	e7e5      	b.n	1590 <copy_param+0x84>
/home/aom1/Work/Linux/target/STM32MP1-DK2/bootloader/optee-os-custom/lib/libutee/tee_api.c:85
    15c4:	1f4a      	subs	r2, r1, #5
    15c6:	2a02      	cmp	r2, #2
    15c8:	d8f6      	bhi.n	15b8 <copy_param+0xac>
/home/aom1/Work/Linux/target/STM32MP1-DK2/bootloader/optee-os-custom/lib/libutee/tee_api.c:94
    15ca:	f8d9 2004 	ldr.w	r2, [r9, #4]
/home/aom1/Work/Linux/target/STM32MP1-DK2/bootloader/optee-os-custom/lib/libutee/tee_api.c:95
    15ce:	a803      	add	r0, sp, #12
    15d0:	5c28      	ldrb	r0, [r5, r0]
    15d2:	b348      	cbz	r0, 1628 <copy_param+0x11c>
/home/aom1/Work/Linux/target/STM32MP1-DK2/bootloader/optee-os-custom/lib/libutee/tee_api.c:97
    15d4:	9811      	ldr	r0, [sp, #68]	; 0x44
/home/aom1/Work/Linux/target/STM32MP1-DK2/bootloader/optee-os-custom/lib/libutee/tee_api.c:98
    15d6:	1dd6      	adds	r6, r2, #7
    15d8:	f026 0607 	bic.w	r6, r6, #7
/home/aom1/Work/Linux/target/STM32MP1-DK2/bootloader/optee-os-custom/lib/libutee/tee_api.c:99
    15dc:	2906      	cmp	r1, #6
/home/aom1/Work/Linux/target/STM32MP1-DK2/bootloader/optee-os-custom/lib/libutee/tee_api.c:98
    15de:	441e      	add	r6, r3
/home/aom1/Work/Linux/target/STM32MP1-DK2/bootloader/optee-os-custom/lib/libutee/tee_api.c:97
    15e0:	f840 3025 	str.w	r3, [r0, r5, lsl #2]
/home/aom1/Work/Linux/target/STM32MP1-DK2/bootloader/optee-os-custom/lib/libutee/tee_api.c:99
    15e4:	d007      	beq.n	15f6 <copy_param+0xea>
/home/aom1/Work/Linux/target/STM32MP1-DK2/bootloader/optee-os-custom/lib/libutee/tee_api.c:101
    15e6:	f857 1035 	ldr.w	r1, [r7, r5, lsl #3]
    15ea:	4618      	mov	r0, r3
    15ec:	9201      	str	r2, [sp, #4]
    15ee:	f7ff f9f7 	bl	9e0 <memcpy>
    15f2:	9a01      	ldr	r2, [sp, #4]
    15f4:	4603      	mov	r3, r0
/home/aom1/Work/Linux/target/STM32MP1-DK2/bootloader/optee-os-custom/lib/libutee/tee_api.c:105
    15f6:	e9c4 3a02 	strd	r3, sl, [r4, #8]
/home/aom1/Work/Linux/target/STM32MP1-DK2/bootloader/optee-os-custom/lib/libutee/tee_api.c:107
    15fa:	4633      	mov	r3, r6
    15fc:	e005      	b.n	160a <copy_param+0xfe>
/home/aom1/Work/Linux/target/STM32MP1-DK2/bootloader/optee-os-custom/lib/libutee/tee_api.c:88
    15fe:	f857 2035 	ldr.w	r2, [r7, r5, lsl #3]
    1602:	e9c4 2a02 	strd	r2, sl, [r4, #8]
/home/aom1/Work/Linux/target/STM32MP1-DK2/bootloader/optee-os-custom/lib/libutee/tee_api.c:89
    1606:	f8d9 2004 	ldr.w	r2, [r9, #4]
/home/aom1/Work/Linux/target/STM32MP1-DK2/bootloader/optee-os-custom/lib/libutee/tee_api.c:84 (discriminator 2)
    160a:	3501      	adds	r5, #1
    160c:	f109 0908 	add.w	r9, r9, #8
    1610:	2d04      	cmp	r5, #4
/home/aom1/Work/Linux/target/STM32MP1-DK2/bootloader/optee-os-custom/lib/libutee/tee_api.c:89 (discriminator 2)
    1612:	e9c4 2b04 	strd	r2, fp, [r4, #16]
/home/aom1/Work/Linux/target/STM32MP1-DK2/bootloader/optee-os-custom/lib/libutee/tee_api.c:84 (discriminator 2)
    1616:	f104 0410 	add.w	r4, r4, #16
    161a:	d1c1      	bne.n	15a0 <copy_param+0x94>
/home/aom1/Work/Linux/target/STM32MP1-DK2/bootloader/optee-os-custom/lib/libutee/tee_api.c:115
    161c:	2000      	movs	r0, #0
/home/aom1/Work/Linux/target/STM32MP1-DK2/bootloader/optee-os-custom/lib/libutee/tee_api.c:116
    161e:	b005      	add	sp, #20
    1620:	ecbd 8b02 	vpop	{d8}
    1624:	e8bd 8ff0 	ldmia.w	sp!, {r4, r5, r6, r7, r8, r9, sl, fp, pc}
/home/aom1/Work/Linux/target/STM32MP1-DK2/bootloader/optee-os-custom/lib/libutee/tee_api.c:103
    1628:	461e      	mov	r6, r3
    162a:	f857 3035 	ldr.w	r3, [r7, r5, lsl #3]
    162e:	e7e2      	b.n	15f6 <copy_param+0xea>
/home/aom1/Work/Linux/target/STM32MP1-DK2/bootloader/optee-os-custom/lib/libutee/tee_api.c:78
    1630:	4800      	ldr	r0, [pc, #0]	; (1634 <copy_param+0x128>)
    1632:	e7f4      	b.n	161e <copy_param+0x112>
    1634:	ffff000c 	.word	0xffff000c

00001638 <TEE_OpenTASession>:
TEE_OpenTASession():
/home/aom1/Work/Linux/target/STM32MP1-DK2/bootloader/optee-os-custom/lib/libutee/tee_api.c:160
    1638:	efc0 0010 	vmov.i32	d16, #0	; 0x00000000
/home/aom1/Work/Linux/target/STM32MP1-DK2/bootloader/optee-os-custom/lib/libutee/tee_api.c:154
    163c:	e92d 47f0 	stmdb	sp!, {r4, r5, r6, r7, r8, r9, sl, lr}
    1640:	b09c      	sub	sp, #112	; 0x70
    1642:	461d      	mov	r5, r3
/home/aom1/Work/Linux/target/STM32MP1-DK2/bootloader/optee-os-custom/lib/libutee/tee_api.c:157
    1644:	2300      	movs	r3, #0
/home/aom1/Work/Linux/target/STM32MP1-DK2/bootloader/optee-os-custom/lib/libutee/tee_api.c:154
    1646:	f8dd 9090 	ldr.w	r9, [sp, #144]	; 0x90
/home/aom1/Work/Linux/target/STM32MP1-DK2/bootloader/optee-os-custom/lib/libutee/tee_api.c:160
    164a:	ae06      	add	r6, sp, #24
    164c:	edcd 0b06 	vstr	d16, [sp, #24]
/home/aom1/Work/Linux/target/STM32MP1-DK2/bootloader/optee-os-custom/lib/libutee/tee_api.c:157
    1650:	9303      	str	r3, [sp, #12]
/home/aom1/Work/Linux/target/STM32MP1-DK2/bootloader/optee-os-custom/lib/libutee/tee_api.c:154
    1652:	4607      	mov	r7, r0
    1654:	4688      	mov	r8, r1
/home/aom1/Work/Linux/target/STM32MP1-DK2/bootloader/optee-os-custom/lib/libutee/tee_api.c:162
    1656:	4614      	mov	r4, r2
/home/aom1/Work/Linux/target/STM32MP1-DK2/bootloader/optee-os-custom/lib/libutee/tee_api.c:159
    1658:	e9cd 3304 	strd	r3, r3, [sp, #16]
/home/aom1/Work/Linux/target/STM32MP1-DK2/bootloader/optee-os-custom/lib/libutee/tee_api.c:160
    165c:	edc6 0b02 	vstr	d16, [r6, #8]
/home/aom1/Work/Linux/target/STM32MP1-DK2/bootloader/optee-os-custom/lib/libutee/tee_api.c:162
    1660:	b11a      	cbz	r2, 166a <TEE_OpenTASession+0x32>
/home/aom1/Work/Linux/target/STM32MP1-DK2/bootloader/optee-os-custom/lib/libutee/tee_api.c:163
    1662:	2120      	movs	r1, #32
    1664:	4628      	mov	r0, r5
    1666:	f001 ff6a 	bl	353e <__utee_check_inout_annotation>
/home/aom1/Work/Linux/target/STM32MP1-DK2/bootloader/optee-os-custom/lib/libutee/tee_api.c:166
    166a:	2104      	movs	r1, #4
    166c:	4648      	mov	r0, r9
/home/aom1/Work/Linux/target/STM32MP1-DK2/bootloader/optee-os-custom/lib/libutee/tee_api.c:168
    166e:	f10d 0a28 	add.w	sl, sp, #40	; 0x28
/home/aom1/Work/Linux/target/STM32MP1-DK2/bootloader/optee-os-custom/lib/libutee/tee_api.c:166
    1672:	f001 ff51 	bl	3518 <__utee_check_out_annotation>
/home/aom1/Work/Linux/target/STM32MP1-DK2/bootloader/optee-os-custom/lib/libutee/tee_api.c:168
    1676:	9601      	str	r6, [sp, #4]
    1678:	ab05      	add	r3, sp, #20
    167a:	9300      	str	r3, [sp, #0]
    167c:	4621      	mov	r1, r4
    167e:	ab04      	add	r3, sp, #16
    1680:	462a      	mov	r2, r5
    1682:	4650      	mov	r0, sl
    1684:	f7ff ff42 	bl	150c <copy_param>
/home/aom1/Work/Linux/target/STM32MP1-DK2/bootloader/optee-os-custom/lib/libutee/tee_api.c:169
    1688:	4604      	mov	r4, r0
    168a:	b9b0      	cbnz	r0, 16ba <TEE_OpenTASession+0x82>
/home/aom1/Work/Linux/target/STM32MP1-DK2/bootloader/optee-os-custom/lib/libutee/tee_api.c:171
    168c:	9b25      	ldr	r3, [sp, #148]	; 0x94
    168e:	4652      	mov	r2, sl
    1690:	4641      	mov	r1, r8
    1692:	4638      	mov	r0, r7
    1694:	9300      	str	r3, [sp, #0]
    1696:	ab03      	add	r3, sp, #12
    1698:	f002 e846 	blx	3728 <_utee_open_ta_session>
    169c:	4604      	mov	r4, r0
/home/aom1/Work/Linux/target/STM32MP1-DK2/bootloader/optee-os-custom/lib/libutee/tee_api.c:173
    169e:	4652      	mov	r2, sl
    16a0:	4628      	mov	r0, r5
    16a2:	4631      	mov	r1, r6
    16a4:	f7ff fec6 	bl	1434 <update_out_param>
/home/aom1/Work/Linux/target/STM32MP1-DK2/bootloader/optee-os-custom/lib/libutee/tee_api.c:174
    16a8:	9804      	ldr	r0, [sp, #16]
    16aa:	b128      	cbz	r0, 16b8 <TEE_OpenTASession+0x80>
/home/aom1/Work/Linux/target/STM32MP1-DK2/bootloader/optee-os-custom/lib/libutee/tee_api.c:175
    16ac:	9905      	ldr	r1, [sp, #20]
    16ae:	f001 ff92 	bl	35d6 <tee_unmap>
/home/aom1/Work/Linux/target/STM32MP1-DK2/bootloader/optee-os-custom/lib/libutee/tee_api.c:177
    16b2:	b108      	cbz	r0, 16b8 <TEE_OpenTASession+0x80>
/home/aom1/Work/Linux/target/STM32MP1-DK2/bootloader/optee-os-custom/lib/libutee/tee_api.c:178
    16b4:	f001 fef0 	bl	3498 <TEE_Panic>
/home/aom1/Work/Linux/target/STM32MP1-DK2/bootloader/optee-os-custom/lib/libutee/tee_api.c:187
    16b8:	b10c      	cbz	r4, 16be <TEE_OpenTASession+0x86>
/home/aom1/Work/Linux/target/STM32MP1-DK2/bootloader/optee-os-custom/lib/libutee/tee_api.c:188
    16ba:	2300      	movs	r3, #0
    16bc:	9303      	str	r3, [sp, #12]
/home/aom1/Work/Linux/target/STM32MP1-DK2/bootloader/optee-os-custom/lib/libutee/tee_api.c:190
    16be:	9b03      	ldr	r3, [sp, #12]
/home/aom1/Work/Linux/target/STM32MP1-DK2/bootloader/optee-os-custom/lib/libutee/tee_api.c:192
    16c0:	4620      	mov	r0, r4
/home/aom1/Work/Linux/target/STM32MP1-DK2/bootloader/optee-os-custom/lib/libutee/tee_api.c:190
    16c2:	f8c9 3000 	str.w	r3, [r9]
/home/aom1/Work/Linux/target/STM32MP1-DK2/bootloader/optee-os-custom/lib/libutee/tee_api.c:192
    16c6:	b01c      	add	sp, #112	; 0x70
    16c8:	e8bd 87f0 	ldmia.w	sp!, {r4, r5, r6, r7, r8, r9, sl, pc}

000016cc <TEE_InvokeTACommand>:
TEE_InvokeTACommand():
/home/aom1/Work/Linux/target/STM32MP1-DK2/bootloader/optee-os-custom/lib/libutee/tee_api.c:215
    16cc:	efc0 0010 	vmov.i32	d16, #0	; 0x00000000
/home/aom1/Work/Linux/target/STM32MP1-DK2/bootloader/optee-os-custom/lib/libutee/tee_api.c:209
    16d0:	e92d 4ff0 	stmdb	sp!, {r4, r5, r6, r7, r8, r9, sl, fp, lr}
    16d4:	b09d      	sub	sp, #116	; 0x74
    16d6:	4693      	mov	fp, r2
/home/aom1/Work/Linux/target/STM32MP1-DK2/bootloader/optee-os-custom/lib/libutee/tee_api.c:211
    16d8:	2203      	movs	r2, #3
    16da:	9203      	str	r2, [sp, #12]
/home/aom1/Work/Linux/target/STM32MP1-DK2/bootloader/optee-os-custom/lib/libutee/tee_api.c:213
    16dc:	2200      	movs	r2, #0
/home/aom1/Work/Linux/target/STM32MP1-DK2/bootloader/optee-os-custom/lib/libutee/tee_api.c:215
    16de:	af06      	add	r7, sp, #24
/home/aom1/Work/Linux/target/STM32MP1-DK2/bootloader/optee-os-custom/lib/libutee/tee_api.c:209
    16e0:	4681      	mov	r9, r0
/home/aom1/Work/Linux/target/STM32MP1-DK2/bootloader/optee-os-custom/lib/libutee/tee_api.c:215
    16e2:	edcd 0b06 	vstr	d16, [sp, #24]
/home/aom1/Work/Linux/target/STM32MP1-DK2/bootloader/optee-os-custom/lib/libutee/tee_api.c:209
    16e6:	468a      	mov	sl, r1
/home/aom1/Work/Linux/target/STM32MP1-DK2/bootloader/optee-os-custom/lib/libutee/tee_api.c:217
    16e8:	461c      	mov	r4, r3
/home/aom1/Work/Linux/target/STM32MP1-DK2/bootloader/optee-os-custom/lib/libutee/tee_api.c:209
    16ea:	e9dd 6526 	ldrd	r6, r5, [sp, #152]	; 0x98
/home/aom1/Work/Linux/target/STM32MP1-DK2/bootloader/optee-os-custom/lib/libutee/tee_api.c:214
    16ee:	e9cd 2204 	strd	r2, r2, [sp, #16]
/home/aom1/Work/Linux/target/STM32MP1-DK2/bootloader/optee-os-custom/lib/libutee/tee_api.c:215
    16f2:	edc7 0b02 	vstr	d16, [r7, #8]
/home/aom1/Work/Linux/target/STM32MP1-DK2/bootloader/optee-os-custom/lib/libutee/tee_api.c:217
    16f6:	b11b      	cbz	r3, 1700 <TEE_InvokeTACommand+0x34>
/home/aom1/Work/Linux/target/STM32MP1-DK2/bootloader/optee-os-custom/lib/libutee/tee_api.c:218
    16f8:	2120      	movs	r1, #32
    16fa:	4630      	mov	r0, r6
    16fc:	f001 ff1f 	bl	353e <__utee_check_inout_annotation>
/home/aom1/Work/Linux/target/STM32MP1-DK2/bootloader/optee-os-custom/lib/libutee/tee_api.c:221
    1700:	b11d      	cbz	r5, 170a <TEE_InvokeTACommand+0x3e>
/home/aom1/Work/Linux/target/STM32MP1-DK2/bootloader/optee-os-custom/lib/libutee/tee_api.c:222
    1702:	2104      	movs	r1, #4
    1704:	4628      	mov	r0, r5
    1706:	f001 ff07 	bl	3518 <__utee_check_out_annotation>
/home/aom1/Work/Linux/target/STM32MP1-DK2/bootloader/optee-os-custom/lib/libutee/tee_api.c:225
    170a:	9701      	str	r7, [sp, #4]
    170c:	ab05      	add	r3, sp, #20
    170e:	9300      	str	r3, [sp, #0]
    1710:	f10d 0828 	add.w	r8, sp, #40	; 0x28
    1714:	4621      	mov	r1, r4
    1716:	ab04      	add	r3, sp, #16
    1718:	4632      	mov	r2, r6
    171a:	4640      	mov	r0, r8
    171c:	f7ff fef6 	bl	150c <copy_param>
/home/aom1/Work/Linux/target/STM32MP1-DK2/bootloader/optee-os-custom/lib/libutee/tee_api.c:226
    1720:	4604      	mov	r4, r0
    1722:	b9a8      	cbnz	r0, 1750 <TEE_InvokeTACommand+0x84>
/home/aom1/Work/Linux/target/STM32MP1-DK2/bootloader/optee-os-custom/lib/libutee/tee_api.c:228
    1724:	ab03      	add	r3, sp, #12
    1726:	465a      	mov	r2, fp
    1728:	9300      	str	r3, [sp, #0]
    172a:	4651      	mov	r1, sl
    172c:	4643      	mov	r3, r8
    172e:	4648      	mov	r0, r9
    1730:	f002 e810 	blx	3754 <_utee_invoke_ta_command>
    1734:	4604      	mov	r4, r0
/home/aom1/Work/Linux/target/STM32MP1-DK2/bootloader/optee-os-custom/lib/libutee/tee_api.c:231
    1736:	4642      	mov	r2, r8
    1738:	4630      	mov	r0, r6
    173a:	4639      	mov	r1, r7
    173c:	f7ff fe7a 	bl	1434 <update_out_param>
/home/aom1/Work/Linux/target/STM32MP1-DK2/bootloader/optee-os-custom/lib/libutee/tee_api.c:232
    1740:	9804      	ldr	r0, [sp, #16]
    1742:	b128      	cbz	r0, 1750 <TEE_InvokeTACommand+0x84>
/home/aom1/Work/Linux/target/STM32MP1-DK2/bootloader/optee-os-custom/lib/libutee/tee_api.c:233
    1744:	9905      	ldr	r1, [sp, #20]
    1746:	f001 ff46 	bl	35d6 <tee_unmap>
/home/aom1/Work/Linux/target/STM32MP1-DK2/bootloader/optee-os-custom/lib/libutee/tee_api.c:235
    174a:	b108      	cbz	r0, 1750 <TEE_InvokeTACommand+0x84>
/home/aom1/Work/Linux/target/STM32MP1-DK2/bootloader/optee-os-custom/lib/libutee/tee_api.c:236
    174c:	f001 fea4 	bl	3498 <TEE_Panic>
/home/aom1/Work/Linux/target/STM32MP1-DK2/bootloader/optee-os-custom/lib/libutee/tee_api.c:241
    1750:	9b03      	ldr	r3, [sp, #12]
/home/aom1/Work/Linux/target/STM32MP1-DK2/bootloader/optee-os-custom/lib/libutee/tee_api.c:240
    1752:	b105      	cbz	r5, 1756 <TEE_InvokeTACommand+0x8a>
/home/aom1/Work/Linux/target/STM32MP1-DK2/bootloader/optee-os-custom/lib/libutee/tee_api.c:241
    1754:	602b      	str	r3, [r5, #0]
/home/aom1/Work/Linux/target/STM32MP1-DK2/bootloader/optee-os-custom/lib/libutee/tee_api.c:243
    1756:	2b04      	cmp	r3, #4
    1758:	d009      	beq.n	176e <TEE_InvokeTACommand+0xa2>
/home/aom1/Work/Linux/target/STM32MP1-DK2/bootloader/optee-os-custom/lib/libutee/tee_api.c:246
    175a:	b144      	cbz	r4, 176e <TEE_InvokeTACommand+0xa2>
/home/aom1/Work/Linux/target/STM32MP1-DK2/bootloader/optee-os-custom/lib/libutee/tee_api.c:246 (discriminator 1)
    175c:	4b06      	ldr	r3, [pc, #24]	; (1778 <TEE_InvokeTACommand+0xac>)
    175e:	429c      	cmp	r4, r3
    1760:	d005      	beq.n	176e <TEE_InvokeTACommand+0xa2>
/home/aom1/Work/Linux/target/STM32MP1-DK2/bootloader/optee-os-custom/lib/libutee/tee_api.c:247
    1762:	4b06      	ldr	r3, [pc, #24]	; (177c <TEE_InvokeTACommand+0xb0>)
    1764:	429c      	cmp	r4, r3
    1766:	d002      	beq.n	176e <TEE_InvokeTACommand+0xa2>
/home/aom1/Work/Linux/target/STM32MP1-DK2/bootloader/optee-os-custom/lib/libutee/tee_api.c:249
    1768:	4620      	mov	r0, r4
    176a:	f001 fe95 	bl	3498 <TEE_Panic>
/home/aom1/Work/Linux/target/STM32MP1-DK2/bootloader/optee-os-custom/lib/libutee/tee_api.c:252
    176e:	4620      	mov	r0, r4
    1770:	b01d      	add	sp, #116	; 0x74
    1772:	e8bd 8ff0 	ldmia.w	sp!, {r4, r5, r6, r7, r8, r9, sl, fp, pc}
    1776:	bf00      	nop
    1778:	ffff000c 	.word	0xffff000c
    177c:	ffff3024 	.word	0xffff3024

00001780 <TEE_SetInstanceData>:
TEE_SetInstanceData():
/home/aom1/Work/Linux/target/STM32MP1-DK2/bootloader/optee-os-custom/lib/libutee/tee_api.c:313
    1780:	4b01      	ldr	r3, [pc, #4]	; (1788 <TEE_SetInstanceData+0x8>)
    1782:	447b      	add	r3, pc
    1784:	6018      	str	r0, [r3, #0]
/home/aom1/Work/Linux/target/STM32MP1-DK2/bootloader/optee-os-custom/lib/libutee/tee_api.c:314
    1786:	4770      	bx	lr
    1788:	00009b3a 	.word	0x00009b3a

0000178c <TEE_GetInstanceData>:
TEE_GetInstanceData():
/home/aom1/Work/Linux/target/STM32MP1-DK2/bootloader/optee-os-custom/lib/libutee/tee_api.c:319
    178c:	4b01      	ldr	r3, [pc, #4]	; (1794 <TEE_GetInstanceData+0x8>)
    178e:	447b      	add	r3, pc
    1790:	6818      	ldr	r0, [r3, #0]
    1792:	4770      	bx	lr
    1794:	00009b2e 	.word	0x00009b2e

00001798 <TEE_MemMove>:
TEE_MemMove():
/home/aom1/Work/Linux/target/STM32MP1-DK2/bootloader/optee-os-custom/lib/libutee/tee_api.c:323
    1798:	f007 bd4f 	b.w	923a <memmove>

0000179c <TEE_MemCompare>:
TEE_MemCompare():
/home/aom1/Work/Linux/target/STM32MP1-DK2/bootloader/optee-os-custom/lib/libutee/tee_api.c:328
    179c:	f007 bd67 	b.w	926e <consttime_memcmp>

000017a0 <TEE_MemFill>:
TEE_MemFill():
/home/aom1/Work/Linux/target/STM32MP1-DK2/bootloader/optee-os-custom/lib/libutee/tee_api.c:333
    17a0:	f007 bc71 	b.w	9086 <memset>

000017a4 <TEE_GetSystemTime>:
TEE_GetSystemTime():
/home/aom1/Work/Linux/target/STM32MP1-DK2/bootloader/optee-os-custom/lib/libutee/tee_api.c:339
    17a4:	4601      	mov	r1, r0
/home/aom1/Work/Linux/target/STM32MP1-DK2/bootloader/optee-os-custom/lib/libutee/tee_api.c:340
    17a6:	2000      	movs	r0, #0
/home/aom1/Work/Linux/target/STM32MP1-DK2/bootloader/optee-os-custom/lib/libutee/tee_api.c:339
    17a8:	b508      	push	{r3, lr}
/home/aom1/Work/Linux/target/STM32MP1-DK2/bootloader/optee-os-custom/lib/libutee/tee_api.c:340
    17aa:	f002 e812 	blx	37d0 <_utee_get_time>
/home/aom1/Work/Linux/target/STM32MP1-DK2/bootloader/optee-os-custom/lib/libutee/tee_api.c:342
    17ae:	b118      	cbz	r0, 17b8 <TEE_GetSystemTime+0x14>
/home/aom1/Work/Linux/target/STM32MP1-DK2/bootloader/optee-os-custom/lib/libutee/tee_api.c:344
    17b0:	e8bd 4008 	ldmia.w	sp!, {r3, lr}
/home/aom1/Work/Linux/target/STM32MP1-DK2/bootloader/optee-os-custom/lib/libutee/tee_api.c:343
    17b4:	f001 be70 	b.w	3498 <TEE_Panic>
/home/aom1/Work/Linux/target/STM32MP1-DK2/bootloader/optee-os-custom/lib/libutee/tee_api.c:344
    17b8:	bd08      	pop	{r3, pc}

000017ba <TEE_Wait>:
TEE_Wait():
/home/aom1/Work/Linux/target/STM32MP1-DK2/bootloader/optee-os-custom/lib/libutee/tee_api.c:347
    17ba:	b510      	push	{r4, lr}
/home/aom1/Work/Linux/target/STM32MP1-DK2/bootloader/optee-os-custom/lib/libutee/tee_api.c:348
    17bc:	f001 effe 	blx	37bc <_utee_wait>
/home/aom1/Work/Linux/target/STM32MP1-DK2/bootloader/optee-os-custom/lib/libutee/tee_api.c:350
    17c0:	4604      	mov	r4, r0
    17c2:	b120      	cbz	r0, 17ce <TEE_Wait+0x14>
/home/aom1/Work/Linux/target/STM32MP1-DK2/bootloader/optee-os-custom/lib/libutee/tee_api.c:350 (discriminator 1)
    17c4:	4b03      	ldr	r3, [pc, #12]	; (17d4 <TEE_Wait+0x1a>)
    17c6:	4298      	cmp	r0, r3
    17c8:	d001      	beq.n	17ce <TEE_Wait+0x14>
/home/aom1/Work/Linux/target/STM32MP1-DK2/bootloader/optee-os-custom/lib/libutee/tee_api.c:351
    17ca:	f001 fe65 	bl	3498 <TEE_Panic>
/home/aom1/Work/Linux/target/STM32MP1-DK2/bootloader/optee-os-custom/lib/libutee/tee_api.c:354
    17ce:	4620      	mov	r0, r4
    17d0:	bd10      	pop	{r4, pc}
    17d2:	bf00      	nop
    17d4:	ffff0002 	.word	0xffff0002

000017d8 <TEE_GetTAPersistentTime>:
TEE_GetTAPersistentTime():
/home/aom1/Work/Linux/target/STM32MP1-DK2/bootloader/optee-os-custom/lib/libutee/tee_api.c:357
    17d8:	b538      	push	{r3, r4, r5, lr}
/home/aom1/Work/Linux/target/STM32MP1-DK2/bootloader/optee-os-custom/lib/libutee/tee_api.c:360
    17da:	4601      	mov	r1, r0
/home/aom1/Work/Linux/target/STM32MP1-DK2/bootloader/optee-os-custom/lib/libutee/tee_api.c:357
    17dc:	4605      	mov	r5, r0
/home/aom1/Work/Linux/target/STM32MP1-DK2/bootloader/optee-os-custom/lib/libutee/tee_api.c:360
    17de:	2001      	movs	r0, #1
    17e0:	f001 eff6 	blx	37d0 <_utee_get_time>
    17e4:	4604      	mov	r4, r0
/home/aom1/Work/Linux/target/STM32MP1-DK2/bootloader/optee-os-custom/lib/libutee/tee_api.c:362
    17e6:	b170      	cbz	r0, 1806 <TEE_GetTAPersistentTime+0x2e>
/home/aom1/Work/Linux/target/STM32MP1-DK2/bootloader/optee-os-custom/lib/libutee/tee_api.c:362 (discriminator 1)
    17e8:	4b08      	ldr	r3, [pc, #32]	; (180c <TEE_GetTAPersistentTime+0x34>)
    17ea:	4298      	cmp	r0, r3
    17ec:	d00b      	beq.n	1806 <TEE_GetTAPersistentTime+0x2e>
/home/aom1/Work/Linux/target/STM32MP1-DK2/bootloader/optee-os-custom/lib/libutee/tee_api.c:363
    17ee:	2300      	movs	r3, #0
    17f0:	602b      	str	r3, [r5, #0]
/home/aom1/Work/Linux/target/STM32MP1-DK2/bootloader/optee-os-custom/lib/libutee/tee_api.c:364
    17f2:	606b      	str	r3, [r5, #4]
/home/aom1/Work/Linux/target/STM32MP1-DK2/bootloader/optee-os-custom/lib/libutee/tee_api.c:367
    17f4:	f500 4330 	add.w	r3, r0, #45056	; 0xb000
    17f8:	2b01      	cmp	r3, #1
    17fa:	d904      	bls.n	1806 <TEE_GetTAPersistentTime+0x2e>
/home/aom1/Work/Linux/target/STM32MP1-DK2/bootloader/optee-os-custom/lib/libutee/tee_api.c:370
    17fc:	4b04      	ldr	r3, [pc, #16]	; (1810 <TEE_GetTAPersistentTime+0x38>)
    17fe:	4298      	cmp	r0, r3
    1800:	d001      	beq.n	1806 <TEE_GetTAPersistentTime+0x2e>
/home/aom1/Work/Linux/target/STM32MP1-DK2/bootloader/optee-os-custom/lib/libutee/tee_api.c:372
    1802:	f001 fe49 	bl	3498 <TEE_Panic>
/home/aom1/Work/Linux/target/STM32MP1-DK2/bootloader/optee-os-custom/lib/libutee/tee_api.c:375
    1806:	4620      	mov	r0, r4
    1808:	bd38      	pop	{r3, r4, r5, pc}
    180a:	bf00      	nop
    180c:	ffff300f 	.word	0xffff300f
    1810:	ffff000c 	.word	0xffff000c

00001814 <TEE_SetTAPersistentTime>:
TEE_SetTAPersistentTime():
/home/aom1/Work/Linux/target/STM32MP1-DK2/bootloader/optee-os-custom/lib/libutee/tee_api.c:378
    1814:	b510      	push	{r4, lr}
/home/aom1/Work/Linux/target/STM32MP1-DK2/bootloader/optee-os-custom/lib/libutee/tee_api.c:381
    1816:	f001 efe6 	blx	37e4 <_utee_set_ta_time>
/home/aom1/Work/Linux/target/STM32MP1-DK2/bootloader/optee-os-custom/lib/libutee/tee_api.c:383
    181a:	4604      	mov	r4, r0
    181c:	b138      	cbz	r0, 182e <TEE_SetTAPersistentTime+0x1a>
/home/aom1/Work/Linux/target/STM32MP1-DK2/bootloader/optee-os-custom/lib/libutee/tee_api.c:383 (discriminator 1)
    181e:	4b05      	ldr	r3, [pc, #20]	; (1834 <TEE_SetTAPersistentTime+0x20>)
    1820:	4298      	cmp	r0, r3
    1822:	d004      	beq.n	182e <TEE_SetTAPersistentTime+0x1a>
/home/aom1/Work/Linux/target/STM32MP1-DK2/bootloader/optee-os-custom/lib/libutee/tee_api.c:384
    1824:	4b04      	ldr	r3, [pc, #16]	; (1838 <TEE_SetTAPersistentTime+0x24>)
    1826:	4298      	cmp	r0, r3
    1828:	d001      	beq.n	182e <TEE_SetTAPersistentTime+0x1a>
/home/aom1/Work/Linux/target/STM32MP1-DK2/bootloader/optee-os-custom/lib/libutee/tee_api.c:386
    182a:	f001 fe35 	bl	3498 <TEE_Panic>
/home/aom1/Work/Linux/target/STM32MP1-DK2/bootloader/optee-os-custom/lib/libutee/tee_api.c:389
    182e:	4620      	mov	r0, r4
    1830:	bd10      	pop	{r4, pc}
    1832:	bf00      	nop
    1834:	ffff000c 	.word	0xffff000c
    1838:	ffff3041 	.word	0xffff3041

0000183c <TEE_GetREETime>:
TEE_GetREETime():
/home/aom1/Work/Linux/target/STM32MP1-DK2/bootloader/optee-os-custom/lib/libutee/tee_api.c:392
    183c:	4601      	mov	r1, r0
/home/aom1/Work/Linux/target/STM32MP1-DK2/bootloader/optee-os-custom/lib/libutee/tee_api.c:393
    183e:	2002      	movs	r0, #2
/home/aom1/Work/Linux/target/STM32MP1-DK2/bootloader/optee-os-custom/lib/libutee/tee_api.c:392
    1840:	b508      	push	{r3, lr}
/home/aom1/Work/Linux/target/STM32MP1-DK2/bootloader/optee-os-custom/lib/libutee/tee_api.c:393
    1842:	f001 efc6 	blx	37d0 <_utee_get_time>
/home/aom1/Work/Linux/target/STM32MP1-DK2/bootloader/optee-os-custom/lib/libutee/tee_api.c:395
    1846:	b118      	cbz	r0, 1850 <TEE_GetREETime+0x14>
/home/aom1/Work/Linux/target/STM32MP1-DK2/bootloader/optee-os-custom/lib/libutee/tee_api.c:397
    1848:	e8bd 4008 	ldmia.w	sp!, {r3, lr}
/home/aom1/Work/Linux/target/STM32MP1-DK2/bootloader/optee-os-custom/lib/libutee/tee_api.c:396
    184c:	f001 be24 	b.w	3498 <TEE_Panic>
/home/aom1/Work/Linux/target/STM32MP1-DK2/bootloader/optee-os-custom/lib/libutee/tee_api.c:397
    1850:	bd08      	pop	{r3, pc}

00001852 <TEE_Malloc>:
TEE_Malloc():
/home/aom1/Work/Linux/target/STM32MP1-DK2/bootloader/optee-os-custom/lib/libutee/tee_api.c:400
    1852:	460b      	mov	r3, r1
    1854:	b507      	push	{r0, r1, r2, lr}
/home/aom1/Work/Linux/target/STM32MP1-DK2/bootloader/optee-os-custom/lib/libutee/tee_api.c:401
    1856:	4601      	mov	r1, r0
    1858:	b1f0      	cbz	r0, 1898 <TEE_Malloc+0x46>
/home/aom1/Work/Linux/target/STM32MP1-DK2/bootloader/optee-os-custom/lib/libutee/tee_api.c:404
    185a:	b92b      	cbnz	r3, 1868 <TEE_Malloc+0x16>
/home/aom1/Work/Linux/target/STM32MP1-DK2/bootloader/optee-os-custom/lib/libutee/tee_api.c:405
    185c:	2001      	movs	r0, #1
/home/aom1/Work/Linux/target/STM32MP1-DK2/bootloader/optee-os-custom/lib/libutee/tee_api.c:412
    185e:	b003      	add	sp, #12
    1860:	f85d eb04 	ldr.w	lr, [sp], #4
/home/aom1/Work/Linux/target/STM32MP1-DK2/bootloader/optee-os-custom/lib/libutee/tee_api.c:405
    1864:	f007 ba98 	b.w	8d98 <calloc>
/home/aom1/Work/Linux/target/STM32MP1-DK2/bootloader/optee-os-custom/lib/libutee/tee_api.c:406
    1868:	f1b3 4f00 	cmp.w	r3, #2147483648	; 0x80000000
    186c:	d104      	bne.n	1878 <TEE_Malloc+0x26>
/home/aom1/Work/Linux/target/STM32MP1-DK2/bootloader/optee-os-custom/lib/libutee/tee_api.c:412
    186e:	b003      	add	sp, #12
    1870:	f85d eb04 	ldr.w	lr, [sp], #4
/home/aom1/Work/Linux/target/STM32MP1-DK2/bootloader/optee-os-custom/lib/libutee/tee_api.c:407
    1874:	f007 ba86 	b.w	8d84 <malloc>
/home/aom1/Work/Linux/target/STM32MP1-DK2/bootloader/optee-os-custom/lib/libutee/tee_api.c:409
    1878:	9301      	str	r3, [sp, #4]
    187a:	f240 1199 	movw	r1, #409	; 0x199
    187e:	4b07      	ldr	r3, [pc, #28]	; (189c <TEE_Malloc+0x4a>)
    1880:	4807      	ldr	r0, [pc, #28]	; (18a0 <TEE_Malloc+0x4e>)
    1882:	447b      	add	r3, pc
    1884:	9300      	str	r3, [sp, #0]
    1886:	2301      	movs	r3, #1
    1888:	4478      	add	r0, pc
    188a:	461a      	mov	r2, r3
    188c:	f7ff f9c8 	bl	c20 <trace_printf>
/home/aom1/Work/Linux/target/STM32MP1-DK2/bootloader/optee-os-custom/lib/libutee/tee_api.c:411
    1890:	2000      	movs	r0, #0
/home/aom1/Work/Linux/target/STM32MP1-DK2/bootloader/optee-os-custom/lib/libutee/tee_api.c:412
    1892:	b003      	add	sp, #12
    1894:	f85d fb04 	ldr.w	pc, [sp], #4
/home/aom1/Work/Linux/target/STM32MP1-DK2/bootloader/optee-os-custom/lib/libutee/tee_api.c:402
    1898:	2001      	movs	r0, #1
    189a:	e7fa      	b.n	1892 <TEE_Malloc+0x40>
    189c:	000081c3 	.word	0x000081c3
    18a0:	000081ce 	.word	0x000081ce

000018a4 <TEE_Free>:
TEE_Free():
/home/aom1/Work/Linux/target/STM32MP1-DK2/bootloader/optee-os-custom/lib/libutee/tee_api.c:429
    18a4:	2801      	cmp	r0, #1
    18a6:	d001      	beq.n	18ac <TEE_Free+0x8>
/home/aom1/Work/Linux/target/STM32MP1-DK2/bootloader/optee-os-custom/lib/libutee/tee_api.c:430
    18a8:	f007 baa4 	b.w	8df4 <free>
/home/aom1/Work/Linux/target/STM32MP1-DK2/bootloader/optee-os-custom/lib/libutee/tee_api.c:431
    18ac:	4770      	bx	lr

000018ae <TEE_Realloc>:
TEE_Realloc():
/home/aom1/Work/Linux/target/STM32MP1-DK2/bootloader/optee-os-custom/lib/libutee/tee_api.c:415
    18ae:	b508      	push	{r3, lr}
/home/aom1/Work/Linux/target/STM32MP1-DK2/bootloader/optee-os-custom/lib/libutee/tee_api.c:416
    18b0:	b149      	cbz	r1, 18c6 <TEE_Realloc+0x18>
/home/aom1/Work/Linux/target/STM32MP1-DK2/bootloader/optee-os-custom/lib/libutee/tee_api.c:421
    18b2:	2801      	cmp	r0, #1
    18b4:	d103      	bne.n	18be <TEE_Realloc+0x10>
/home/aom1/Work/Linux/target/STM32MP1-DK2/bootloader/optee-os-custom/lib/libutee/tee_api.c:425
    18b6:	e8bd 4008 	ldmia.w	sp!, {r3, lr}
/home/aom1/Work/Linux/target/STM32MP1-DK2/bootloader/optee-os-custom/lib/libutee/tee_api.c:422
    18ba:	f007 ba6d 	b.w	8d98 <calloc>
/home/aom1/Work/Linux/target/STM32MP1-DK2/bootloader/optee-os-custom/lib/libutee/tee_api.c:425
    18be:	e8bd 4008 	ldmia.w	sp!, {r3, lr}
/home/aom1/Work/Linux/target/STM32MP1-DK2/bootloader/optee-os-custom/lib/libutee/tee_api.c:424
    18c2:	f007 ba79 	b.w	8db8 <realloc>
/home/aom1/Work/Linux/target/STM32MP1-DK2/bootloader/optee-os-custom/lib/libutee/tee_api.c:417
    18c6:	f7ff ffed 	bl	18a4 <TEE_Free>
/home/aom1/Work/Linux/target/STM32MP1-DK2/bootloader/optee-os-custom/lib/libutee/tee_api.c:425
    18ca:	2001      	movs	r0, #1
    18cc:	bd08      	pop	{r3, pc}

000018ce <TEE_CacheClean>:
TEE_CacheClean():
/home/aom1/Work/Linux/target/STM32MP1-DK2/bootloader/optee-os-custom/lib/libutee/tee_api.c:436
    18ce:	2200      	movs	r2, #0
    18d0:	f007 bcf2 	b.w	92b8 <___utee_cache_operation_from_thumb>

000018d4 <TEE_CacheFlush>:
TEE_CacheFlush():
/home/aom1/Work/Linux/target/STM32MP1-DK2/bootloader/optee-os-custom/lib/libutee/tee_api.c:440
    18d4:	2201      	movs	r2, #1
    18d6:	f007 bcef 	b.w	92b8 <___utee_cache_operation_from_thumb>

000018da <TEE_CacheInvalidate>:
TEE_CacheInvalidate():
/home/aom1/Work/Linux/target/STM32MP1-DK2/bootloader/optee-os-custom/lib/libutee/tee_api.c:445
    18da:	2202      	movs	r2, #2
    18dc:	f007 bcec 	b.w	92b8 <___utee_cache_operation_from_thumb>

000018e0 <tee_buffer_update>:
tee_buffer_update():
/home/aom1/Work/Linux/target/STM32MP1-DK2/bootloader/optee-os-custom/lib/libutee/tee_api_operations.c:876
    18e0:	e92d 4ff0 	stmdb	sp!, {r4, r5, r6, r7, r8, r9, sl, fp, lr}
    18e4:	b087      	sub	sp, #28
    18e6:	461d      	mov	r5, r3
    18e8:	4604      	mov	r4, r0
/home/aom1/Work/Linux/target/STM32MP1-DK2/bootloader/optee-os-custom/lib/libutee/tee_api_operations.c:881
    18ea:	e9dd b310 	ldrd	fp, r3, [sp, #64]	; 0x40
/home/aom1/Work/Linux/target/STM32MP1-DK2/bootloader/optee-os-custom/lib/libutee/tee_api_operations.c:876
    18ee:	9103      	str	r1, [sp, #12]
/home/aom1/Work/Linux/target/STM32MP1-DK2/bootloader/optee-os-custom/lib/libutee/tee_api_operations.c:881
    18f0:	681b      	ldr	r3, [r3, #0]
/home/aom1/Work/Linux/target/STM32MP1-DK2/bootloader/optee-os-custom/lib/libutee/tee_api_operations.c:888
    18f2:	9202      	str	r2, [sp, #8]
/home/aom1/Work/Linux/target/STM32MP1-DK2/bootloader/optee-os-custom/lib/libutee/tee_api_operations.c:881
    18f4:	461e      	mov	r6, r3
/home/aom1/Work/Linux/target/STM32MP1-DK2/bootloader/optee-os-custom/lib/libutee/tee_api_operations.c:888
    18f6:	b962      	cbnz	r2, 1912 <tee_buffer_update+0x32>
/home/aom1/Work/Linux/target/STM32MP1-DK2/bootloader/optee-os-custom/lib/libutee/tee_api_operations.c:889
    18f8:	b93d      	cbnz	r5, 190a <tee_buffer_update+0x2a>
/home/aom1/Work/Linux/target/STM32MP1-DK2/bootloader/optee-os-custom/lib/libutee/tee_api_operations.c:882
    18fa:	2700      	movs	r7, #0
/home/aom1/Work/Linux/target/STM32MP1-DK2/bootloader/optee-os-custom/lib/libutee/tee_api_operations.c:964
    18fc:	9b11      	ldr	r3, [sp, #68]	; 0x44
    18fe:	2000      	movs	r0, #0
    1900:	e9c3 7000 	strd	r7, r0, [r3]
/home/aom1/Work/Linux/target/STM32MP1-DK2/bootloader/optee-os-custom/lib/libutee/tee_api_operations.c:966
    1904:	b007      	add	sp, #28
    1906:	e8bd 8ff0 	ldmia.w	sp!, {r4, r5, r6, r7, r8, r9, sl, fp, pc}
/home/aom1/Work/Linux/target/STM32MP1-DK2/bootloader/optee-os-custom/lib/libutee/tee_api_operations.c:890
    190a:	9802      	ldr	r0, [sp, #8]
    190c:	f001 fdc4 	bl	3498 <TEE_Panic>
    1910:	e7f3      	b.n	18fa <tee_buffer_update+0x1a>
/home/aom1/Work/Linux/target/STM32MP1-DK2/bootloader/optee-os-custom/lib/libutee/tee_api_operations.c:894
    1912:	f890 9030 	ldrb.w	r9, [r0, #48]	; 0x30
/home/aom1/Work/Linux/target/STM32MP1-DK2/bootloader/optee-os-custom/lib/libutee/tee_api_operations.c:895
    1916:	6b47      	ldr	r7, [r0, #52]	; 0x34
/home/aom1/Work/Linux/target/STM32MP1-DK2/bootloader/optee-os-custom/lib/libutee/tee_api_operations.c:894
    1918:	f1b9 0f00 	cmp.w	r9, #0
    191c:	d05e      	beq.n	19dc <tee_buffer_update+0xfc>
/home/aom1/Work/Linux/target/STM32MP1-DK2/bootloader/optee-os-custom/lib/libutee/tee_api_operations.c:895
    191e:	ea4f 0a47 	mov.w	sl, r7, lsl #1
/home/aom1/Work/Linux/target/STM32MP1-DK2/bootloader/optee-os-custom/lib/libutee/tee_api_operations.c:896
    1922:	f04f 0901 	mov.w	r9, #1
/home/aom1/Work/Linux/target/STM32MP1-DK2/bootloader/optee-os-custom/lib/libutee/tee_api_operations.c:902
    1926:	6ba0      	ldr	r0, [r4, #56]	; 0x38
    1928:	b1d8      	cbz	r0, 1962 <tee_buffer_update+0x82>
/home/aom1/Work/Linux/target/STM32MP1-DK2/bootloader/optee-os-custom/lib/libutee/tee_api_operations.c:904
    192a:	42b8      	cmp	r0, r7
/home/aom1/Work/Linux/target/STM32MP1-DK2/bootloader/optee-os-custom/lib/libutee/tee_api_operations.c:907
    192c:	bf2c      	ite	cs
    192e:	ebaa 0700 	subcs.w	r7, sl, r0
/home/aom1/Work/Linux/target/STM32MP1-DK2/bootloader/optee-os-custom/lib/libutee/tee_api_operations.c:905
    1932:	1a3f      	subcc	r7, r7, r0
/home/aom1/Work/Linux/target/STM32MP1-DK2/bootloader/optee-os-custom/lib/libutee/tee_api_operations.c:908
    1934:	6ae3      	ldr	r3, [r4, #44]	; 0x2c
/home/aom1/Work/Linux/target/STM32MP1-DK2/bootloader/optee-os-custom/lib/libutee/tee_api_operations.c:907
    1936:	42af      	cmp	r7, r5
/home/aom1/Work/Linux/target/STM32MP1-DK2/bootloader/optee-os-custom/lib/libutee/tee_api_operations.c:908
    1938:	9902      	ldr	r1, [sp, #8]
/home/aom1/Work/Linux/target/STM32MP1-DK2/bootloader/optee-os-custom/lib/libutee/tee_api_operations.c:907
    193a:	bf28      	it	cs
    193c:	462f      	movcs	r7, r5
/home/aom1/Work/Linux/target/STM32MP1-DK2/bootloader/optee-os-custom/lib/libutee/tee_api_operations.c:908
    193e:	4418      	add	r0, r3
    1940:	463a      	mov	r2, r7
    1942:	f7ff f84d 	bl	9e0 <memcpy>
/home/aom1/Work/Linux/target/STM32MP1-DK2/bootloader/optee-os-custom/lib/libutee/tee_api_operations.c:909
    1946:	6ba3      	ldr	r3, [r4, #56]	; 0x38
/home/aom1/Work/Linux/target/STM32MP1-DK2/bootloader/optee-os-custom/lib/libutee/tee_api_operations.c:912
    1948:	6b62      	ldr	r2, [r4, #52]	; 0x34
/home/aom1/Work/Linux/target/STM32MP1-DK2/bootloader/optee-os-custom/lib/libutee/tee_api_operations.c:909
    194a:	443b      	add	r3, r7
    194c:	63a3      	str	r3, [r4, #56]	; 0x38
/home/aom1/Work/Linux/target/STM32MP1-DK2/bootloader/optee-os-custom/lib/libutee/tee_api_operations.c:912
    194e:	fbb3 f1f2 	udiv	r1, r3, r2
    1952:	fb02 3311 	mls	r3, r2, r1, r3
    1956:	2b00      	cmp	r3, #0
    1958:	d1cf      	bne.n	18fa <tee_buffer_update+0x1a>
/home/aom1/Work/Linux/target/STM32MP1-DK2/bootloader/optee-os-custom/lib/libutee/tee_api_operations.c:910
    195a:	9b02      	ldr	r3, [sp, #8]
/home/aom1/Work/Linux/target/STM32MP1-DK2/bootloader/optee-os-custom/lib/libutee/tee_api_operations.c:911
    195c:	1bed      	subs	r5, r5, r7
/home/aom1/Work/Linux/target/STM32MP1-DK2/bootloader/optee-os-custom/lib/libutee/tee_api_operations.c:910
    195e:	443b      	add	r3, r7
    1960:	9302      	str	r3, [sp, #8]
/home/aom1/Work/Linux/target/STM32MP1-DK2/bootloader/optee-os-custom/lib/libutee/tee_api_operations.c:917
    1962:	6ba7      	ldr	r7, [r4, #56]	; 0x38
/home/aom1/Work/Linux/target/STM32MP1-DK2/bootloader/optee-os-custom/lib/libutee/tee_api_operations.c:881
    1964:	46b4      	mov	ip, r6
/home/aom1/Work/Linux/target/STM32MP1-DK2/bootloader/optee-os-custom/lib/libutee/tee_api_operations.c:918
    1966:	44d1      	add	r9, sl
/home/aom1/Work/Linux/target/STM32MP1-DK2/bootloader/optee-os-custom/lib/libutee/tee_api_operations.c:917
    1968:	2f00      	cmp	r7, #0
    196a:	d03a      	beq.n	19e2 <tee_buffer_update+0x102>
/home/aom1/Work/Linux/target/STM32MP1-DK2/bootloader/optee-os-custom/lib/libutee/tee_api_operations.c:918 (discriminator 1)
    196c:	1979      	adds	r1, r7, r5
/home/aom1/Work/Linux/target/STM32MP1-DK2/bootloader/optee-os-custom/lib/libutee/tee_api_operations.c:917 (discriminator 1)
    196e:	4549      	cmp	r1, r9
    1970:	d336      	bcc.n	19e0 <tee_buffer_update+0x100>
/home/aom1/Work/Linux/target/STM32MP1-DK2/bootloader/optee-os-custom/lib/libutee/tee_api_operations.c:919
    1972:	6b63      	ldr	r3, [r4, #52]	; 0x34
/home/aom1/Work/Linux/target/STM32MP1-DK2/bootloader/optee-os-custom/lib/libutee/tee_api_operations.c:923
    1974:	6be0      	ldr	r0, [r4, #60]	; 0x3c
/home/aom1/Work/Linux/target/STM32MP1-DK2/bootloader/optee-os-custom/lib/libutee/tee_api_operations.c:922
    1976:	9604      	str	r6, [sp, #16]
/home/aom1/Work/Linux/target/STM32MP1-DK2/bootloader/optee-os-custom/lib/libutee/tee_api_operations.c:919
    1978:	f103 38ff 	add.w	r8, r3, #4294967295	; 0xffffffff
    197c:	eba8 080a 	sub.w	r8, r8, sl
    1980:	425b      	negs	r3, r3
    1982:	4488      	add	r8, r1
    1984:	ea08 0803 	and.w	r8, r8, r3
/home/aom1/Work/Linux/target/STM32MP1-DK2/bootloader/optee-os-custom/lib/libutee/tee_api_operations.c:922
    1988:	2300      	movs	r3, #0
/home/aom1/Work/Linux/target/STM32MP1-DK2/bootloader/optee-os-custom/lib/libutee/tee_api_operations.c:921
    198a:	45b8      	cmp	r8, r7
/home/aom1/Work/Linux/target/STM32MP1-DK2/bootloader/optee-os-custom/lib/libutee/tee_api_operations.c:922
    198c:	9305      	str	r3, [sp, #20]
/home/aom1/Work/Linux/target/STM32MP1-DK2/bootloader/optee-os-custom/lib/libutee/tee_api_operations.c:921
    198e:	bf28      	it	cs
    1990:	46b8      	movcs	r8, r7
/home/aom1/Work/Linux/target/STM32MP1-DK2/bootloader/optee-os-custom/lib/libutee/tee_api_operations.c:923
    1992:	6ae1      	ldr	r1, [r4, #44]	; 0x2c
    1994:	ab04      	add	r3, sp, #16
    1996:	9300      	str	r3, [sp, #0]
    1998:	4642      	mov	r2, r8
    199a:	9f03      	ldr	r7, [sp, #12]
    199c:	465b      	mov	r3, fp
    199e:	47b8      	blx	r7
/home/aom1/Work/Linux/target/STM32MP1-DK2/bootloader/optee-os-custom/lib/libutee/tee_api_operations.c:924
    19a0:	b108      	cbz	r0, 19a6 <tee_buffer_update+0xc6>
/home/aom1/Work/Linux/target/STM32MP1-DK2/bootloader/optee-os-custom/lib/libutee/tee_api_operations.c:925
    19a2:	f001 fd79 	bl	3498 <TEE_Panic>
/home/aom1/Work/Linux/target/STM32MP1-DK2/bootloader/optee-os-custom/lib/libutee/tee_api_operations.c:929
    19a6:	6ba3      	ldr	r3, [r4, #56]	; 0x38
/home/aom1/Work/Linux/target/STM32MP1-DK2/bootloader/optee-os-custom/lib/libutee/tee_api_operations.c:926
    19a8:	9f04      	ldr	r7, [sp, #16]
/home/aom1/Work/Linux/target/STM32MP1-DK2/bootloader/optee-os-custom/lib/libutee/tee_api_operations.c:929
    19aa:	eba3 0308 	sub.w	r3, r3, r8
/home/aom1/Work/Linux/target/STM32MP1-DK2/bootloader/optee-os-custom/lib/libutee/tee_api_operations.c:926
    19ae:	44bb      	add	fp, r7
/home/aom1/Work/Linux/target/STM32MP1-DK2/bootloader/optee-os-custom/lib/libutee/tee_api_operations.c:927
    19b0:	eba6 0c07 	sub.w	ip, r6, r7
/home/aom1/Work/Linux/target/STM32MP1-DK2/bootloader/optee-os-custom/lib/libutee/tee_api_operations.c:929
    19b4:	63a3      	str	r3, [r4, #56]	; 0x38
/home/aom1/Work/Linux/target/STM32MP1-DK2/bootloader/optee-os-custom/lib/libutee/tee_api_operations.c:930
    19b6:	b1a3      	cbz	r3, 19e2 <tee_buffer_update+0x102>
/home/aom1/Work/Linux/target/STM32MP1-DK2/bootloader/optee-os-custom/lib/libutee/tee_api_operations.c:934
    19b8:	6ae0      	ldr	r0, [r4, #44]	; 0x2c
    19ba:	ebaa 0208 	sub.w	r2, sl, r8
    19be:	eb00 0108 	add.w	r1, r0, r8
    19c2:	f7ff f80d 	bl	9e0 <memcpy>
/home/aom1/Work/Linux/target/STM32MP1-DK2/bootloader/optee-os-custom/lib/libutee/tee_api_operations.c:960
    19c6:	6ba3      	ldr	r3, [r4, #56]	; 0x38
    19c8:	462a      	mov	r2, r5
    19ca:	6ae0      	ldr	r0, [r4, #44]	; 0x2c
    19cc:	9902      	ldr	r1, [sp, #8]
    19ce:	4418      	add	r0, r3
    19d0:	f7ff f806 	bl	9e0 <memcpy>
/home/aom1/Work/Linux/target/STM32MP1-DK2/bootloader/optee-os-custom/lib/libutee/tee_api_operations.c:961
    19d4:	6ba3      	ldr	r3, [r4, #56]	; 0x38
    19d6:	442b      	add	r3, r5
    19d8:	63a3      	str	r3, [r4, #56]	; 0x38
    19da:	e78f      	b.n	18fc <tee_buffer_update+0x1c>
/home/aom1/Work/Linux/target/STM32MP1-DK2/bootloader/optee-os-custom/lib/libutee/tee_api_operations.c:895
    19dc:	46ba      	mov	sl, r7
    19de:	e7a2      	b.n	1926 <tee_buffer_update+0x46>
/home/aom1/Work/Linux/target/STM32MP1-DK2/bootloader/optee-os-custom/lib/libutee/tee_api_operations.c:882
    19e0:	2700      	movs	r7, #0
/home/aom1/Work/Linux/target/STM32MP1-DK2/bootloader/optee-os-custom/lib/libutee/tee_api_operations.c:941
    19e2:	454d      	cmp	r5, r9
    19e4:	d3ef      	bcc.n	19c6 <tee_buffer_update+0xe6>
/home/aom1/Work/Linux/target/STM32MP1-DK2/bootloader/optee-os-custom/lib/libutee/tee_api_operations.c:943
    19e6:	4813      	ldr	r0, [pc, #76]	; (1a34 <tee_buffer_update+0x154>)
    19e8:	6822      	ldr	r2, [r4, #0]
/home/aom1/Work/Linux/target/STM32MP1-DK2/bootloader/optee-os-custom/lib/libutee/tee_api_operations.c:944
    19ea:	6b63      	ldr	r3, [r4, #52]	; 0x34
/home/aom1/Work/Linux/target/STM32MP1-DK2/bootloader/optee-os-custom/lib/libutee/tee_api_operations.c:943
    19ec:	4282      	cmp	r2, r0
/home/aom1/Work/Linux/target/STM32MP1-DK2/bootloader/optee-os-custom/lib/libutee/tee_api_operations.c:946
    19ee:	bf12      	itee	ne
    19f0:	eba3 080a 	subne.w	r8, r3, sl
/home/aom1/Work/Linux/target/STM32MP1-DK2/bootloader/optee-os-custom/lib/libutee/tee_api_operations.c:944
    19f4:	f103 38ff 	addeq.w	r8, r3, #4294967295	; 0xffffffff
