
out/ta/stm32mp_nvmem/1a8342cc-81a5-4512-99fe-9e2b3e37d626.elf:     file format elf32-littlearm
out/ta/stm32mp_nvmem/1a8342cc-81a5-4512-99fe-9e2b3e37d626.elf
architecture: armv7, flags 0x00000150:
HAS_SYMS, DYNAMIC, D_PAGED
start address 0x00000900

Program Header:
    LOAD off    0x00001000 vaddr 0x00000000 paddr 0x00000000 align 2**12
         filesz 0x000093e8 memsz 0x000093e8 flags r-x
    LOAD off    0x0000b000 vaddr 0x0000a000 paddr 0x0000a000 align 2**12
         filesz 0x00000350 memsz 0x000073a8 flags rw-
 DYNAMIC off    0x0000b000 vaddr 0x0000a000 paddr 0x0000a000 align 2**2
         filesz 0x00000088 memsz 0x00000088 flags rw-
   STACK off    0x00000000 vaddr 0x00000000 paddr 0x00000000 align 2**4
         filesz 0x00000000 memsz 0x00000000 flags rwx

Dynamic Section:
  HASH                 0x000093bc
  GNU_HASH             0x00009300
  STRTAB               0x0000938c
  SYMTAB               0x0000932c
  STRSZ                0x0000002e
  SYMENT               0x00000010
  DEBUG                0x00000000
  REL                  0x0000a0d8
  RELSZ                0x00000170
  RELENT               0x00000008
  FLAGS_1              0x08000000
  RELCOUNT             0x0000001d
private flags = 0x5000400: [Version5 EABI] [hard-float ABI]

Sections:
Idx Name          Size      VMA       LMA       File off  Algn
  0 .ta_head      00000020  00000000  00000000  00001000  2**3
                  CONTENTS, ALLOC, LOAD, READONLY, DATA
  1 .text         000081e0  00000020  00000020  00001020  2**3
                  CONTENTS, ALLOC, LOAD, READONLY, CODE
  2 .rodata       000010ff  00008200  00008200  00009200  2**2
                  CONTENTS, ALLOC, LOAD, READONLY, DATA
  3 .gnu.hash     0000002c  00009300  00009300  0000a300  2**2
                  CONTENTS, ALLOC, LOAD, READONLY, DATA
  4 .dynsym       00000060  0000932c  0000932c  0000a32c  2**2
                  CONTENTS, ALLOC, LOAD, READONLY, DATA
  5 .dynstr       0000002e  0000938c  0000938c  0000a38c  2**0
                  CONTENTS, ALLOC, LOAD, READONLY, DATA
  6 .hash         0000002c  000093bc  000093bc  0000a3bc  2**2
                  CONTENTS, ALLOC, LOAD, READONLY, DATA
  7 .dynamic      00000088  0000a000  0000a000  0000b000  2**2
                  CONTENTS, ALLOC, LOAD, DATA
  8 .got          00000050  0000a088  0000a088  0000b088  2**2
                  CONTENTS, ALLOC, LOAD, DATA
  9 .rel.got      00000088  0000a1c0  0000a1c0  0000b1c0  2**2
                  CONTENTS, ALLOC, LOAD, READONLY, DATA
 10 .data         00000108  0000a248  0000a248  0000b248  2**2
                  CONTENTS, ALLOC, LOAD, DATA
 11 .bss          00007058  0000a350  0000a350  0000b350  2**2
                  ALLOC
 12 .debug_info   00013df5  00000000  00000000  0000b350  2**0
                  CONTENTS, READONLY, DEBUGGING, OCTETS
 13 .debug_abbrev 00003ae8  00000000  00000000  0001f145  2**0
                  CONTENTS, READONLY, DEBUGGING, OCTETS
 14 .debug_loc    00013632  00000000  00000000  00022c2d  2**0
                  CONTENTS, READONLY, DEBUGGING, OCTETS
 15 .debug_aranges 000005e8  00000000  00000000  00036260  2**3
                  CONTENTS, READONLY, DEBUGGING, OCTETS
 16 .debug_ranges 00000cc0  00000000  00000000  00036848  2**3
                  CONTENTS, READONLY, DEBUGGING, OCTETS
 17 .debug_macro  0001a2fe  00000000  00000000  00037508  2**0
                  CONTENTS, READONLY, DEBUGGING, OCTETS
 18 .debug_line   0000ec6c  00000000  00000000  00051806  2**0
                  CONTENTS, READONLY, DEBUGGING, OCTETS
 19 .debug_str    0001832d  00000000  00000000  00060472  2**0
                  CONTENTS, READONLY, DEBUGGING, OCTETS
 20 .comment      0000005d  00000000  00000000  0007879f  2**0
                  CONTENTS, READONLY
 21 .ARM.attributes 00000031  00000000  00000000  000787fc  2**0
                  CONTENTS, READONLY
 22 .debug_frame  00001f10  00000000  00000000  00078830  2**2
                  CONTENTS, READONLY, DEBUGGING, OCTETS
 23 .rel.dyn      000000e8  0000a0d8  0000a0d8  0000b0d8  2**2
                  CONTENTS, ALLOC, LOAD, READONLY, DATA
SYMBOL TABLE:
00000000 l    d  .ta_head	00000000 .ta_head
00000020 l    d  .text	00000000 .text
00008200 l    d  .rodata	00000000 .rodata
00009300 l    d  .gnu.hash	00000000 .gnu.hash
0000932c l    d  .dynsym	00000000 .dynsym
0000938c l    d  .dynstr	00000000 .dynstr
000093bc l    d  .hash	00000000 .hash
0000a000 l    d  .dynamic	00000000 .dynamic
0000a088 l    d  .got	00000000 .got
0000a1c0 l    d  .rel.got	00000000 .rel.got
0000a248 l    d  .data	00000000 .data
0000a350 l    d  .bss	00000000 .bss
00000000 l    d  .debug_info	00000000 .debug_info
00000000 l    d  .debug_abbrev	00000000 .debug_abbrev
00000000 l    d  .debug_loc	00000000 .debug_loc
00000000 l    d  .debug_aranges	00000000 .debug_aranges
00000000 l    d  .debug_ranges	00000000 .debug_ranges
00000000 l    d  .debug_macro	00000000 .debug_macro
00000000 l    d  .debug_line	00000000 .debug_line
00000000 l    d  .debug_str	00000000 .debug_str
00000000 l    d  .comment	00000000 .comment
00000000 l    d  .ARM.attributes	00000000 .ARM.attributes
00000000 l    d  .debug_frame	00000000 .debug_frame
0000a0d8 l    d  .rel.dyn	00000000 .rel.dyn
00000000 l    df *ABS*	00000000 user_ta_header.c
00008230 l     O .rodata	00000004 __compound_literal.4
00008234 l     O .rodata	00000004 __compound_literal.3
00008238 l     O .rodata	00000001 __compound_literal.2
00008239 l     O .rodata	00000001 __compound_literal.1
0000823a l     O .rodata	00000001 __compound_literal.0
00000000 l    df *ABS*	00000000 tee_api.c
00000020 l     F .text	00000066 update_out_param
00000196 l     F .text	00000182 copy_param
000086a4 l     O .rodata	0000000b __func__.0
0000a358 l     O .bss	00000004 tee_api_instance_data
00000000 l    df *ABS*	00000000 ta_stm32mp_nvmem.c
00008200 l     O .rodata	00000010 uuid.2
00008210 l     O .rodata	0000001b __func__.1
0000a350 l     O .bss	00000004 session_refcount
0000a354 l     O .bss	00000004 pta_session
00000000 l    df *ABS*	00000000 ta_entry_a32.o
00000000 l    df *ABS*	00000000 trace.c
00008634 l     O .rodata	00000005 lvl_strs.0
00000000 l    df *ABS*	00000000 snprintk.c
00000bd8 l     F .text	00000724 kprintf.constprop.0
00008671 l     O .rodata	00000011 HEXDIGITS
00008682 l     O .rodata	00000011 hexdigits
00000000 l    df *ABS*	00000000 arm32_aeabi_ldivmod_a32.o
00000000 l    df *ABS*	00000000 arm32_aeabi_ldivmod.c
00001344 l     F .text	0000008e ul_div_qr
00000000 l    df *ABS*	00000000 trace_ext.c
00000000 l    df *ABS*	00000000 tee_api_panic.c
00001604 l     F .text	00000020 check_access
00001628 l     F .text	0000000a check_res.constprop.0
00000000 l    df *ABS*	00000000 tee_api_property.c
000016e0 l     F .text	00000050 propset_get
00001730 l     F .text	00000014 is_propset_pseudo_handle
00001744 l     F .text	000000c0 propget_get_ext_prop
00001804 l     F .text	00000124 propget_get_property
00008244 l     O .rodata	00000004 __compound_literal.3
00008248 l     O .rodata	00000004 __compound_literal.2
0000824c l     O .rodata	00000004 __compound_literal.1
00008250 l     O .rodata	00000004 __compound_literal.0
00000000 l    df *ABS*	00000000 tee_system_pta.c
00001f40 l     F .text	00000050 invoke_system_pta
00008254 l     O .rodata	00000010 uuid.2
00008264 l     O .rodata	0000000a __func__.1
0000826e l     O .rodata	00000017 __func__.0
0000a35c l     O .bss	00000004 sess.3
00000000 l    df *ABS*	00000000 utee_syscalls_a32.o
00000000 l    df *ABS*	00000000 user_ta_entry.c
000025ec l     F .text	0000006a _get_fn_array
00002656 l     F .text	0000006a _fini_iterate_phdr_cb
000026c0 l     F .text	0000001c ta_header_get_session
000026dc l     F .text	00000064 to_utee_params
00002740 l     F .text	0000003c from_utee_params
0000277c l     F .text	00000064 _init_iterate_phdr_cb
000027e0 l     F .text	00000020 ta_header_save_params.part.0
000028fc l     F .text	0000006c ta_header_remove_session
000087b4 l     O .rodata	00000016 __func__.0
0000a360 l     O .bss	00000004 _num_mod_init
0000a364 l     O .bss	00000001 init_done
0000a2e0 l     O .data	00000008 ta_sessions
0000a2e8 l     O .data	00000008 __phdr_info_head
00000000 l    df *ABS*	00000000 abort.c
00000000 l    df *ABS*	00000000 base64.c
000087d1 l     O .rodata	00000041 base64_table
00000000 l    df *ABS*	00000000 tee_api_arith_mpi.c
00002cfc l     F .text	00000020 api_panic
00002d1c l     F .text	00000020 mpi_panic
00002d3c l     F .text	00000050 get_mpi
00002d8c l     F .text	00000040 copy_mpi_to_bigint
00002dcc l     F .text	000000d8 bigint_binary
00002ea4 l     F .text	00000010 mpi_is_odd
00002eb4 l     F .text	00000016 rng_read
00002eca l     F .text	000004ba mpi_egcd
0000a398 l     O .bss	00003000 data.17
000036f8 l     F .text	00000144 bigint_binary_mod
000088c9 l     O .rodata	00000008 __func__.14
000088d1 l     O .rodata	0000000e __func__.10
000088df l     O .rodata	00000009 __func__.2
000088e8 l     O .rodata	00000012 __func__.16
000088fa l     O .rodata	0000000f __func__.15
00008909 l     O .rodata	0000001f __func__.13
00008928 l     O .rodata	00000019 __func__.12
00008941 l     O .rodata	00000012 __func__.6
00008953 l     O .rodata	00000015 __func__.11
00008968 l     O .rodata	0000000e __func__.9
00008976 l     O .rodata	0000000e __func__.8
00008984 l     O .rodata	0000000e __func__.7
00008992 l     O .rodata	00000011 __func__.5
000089a3 l     O .rodata	00000018 __func__.4
000089bb l     O .rodata	0000001d __func__.3
000089d8 l     O .rodata	00000019 __func__.1
000089f1 l     O .rodata	00000015 __func__.0
00000000 l    df *ABS*	00000000 tcb.c
00008a9c l     O .rodata	00000010 __func__.1
00008aac l     O .rodata	00000010 __func__.0
0000d398 l     O .bss	00000004 _tls_size
0000d39c l     O .bss	00000004 _tcb
00000000 l    df *ABS*	00000000 assert.c
00000000 l    df *ABS*	00000000 bignum.c
000045cc l     F .text	00000024 mpi_safe_cond_assign
000045f0 l     F .text	0000003a mpi_get_digit
0000462a l     F .text	00000364 mpi_mul_hlp
0000498e l     F .text	000000f4 mpi_montmul
00004a82 l     F .text	0000005a mpi_montred
00004adc l     F .text	00000026 mpi_montg_init.isra.0
00004b02 l     F .text	00000086 mpi_bigendian_to_host.part.0
00004b88 l     F .text	00000064 mpi_fill_random_internal
00004cfc l     F .text	00000036 mbedtls_mpi_resize_clear
000061a8 l     F .text	00000084 mpi_check_small_factors
0000684c l     F .text	000001d8 mpi_miller_rabin
00008288 l     O .rodata	000002a0 small_prime
00008528 l     O .rodata	00000024 gcd_pairs
00000000 l    df *ABS*	00000000 platform_util.c
0000a2f0 l     O .data	00000004 memset_func
00000000 l    df *ABS*	00000000 bget_malloc.c
000074d0 l     F .text	00000020 raw_malloc_return_hook
00007bfe l     F .text	00000082 gen_malloc_add_pool
000091f2 l     O .rodata	00000005 __func__.8
000091f7 l     O .rodata	00000006 __func__.7
000091fd l     O .rodata	00000005 __func__.5
00009202 l     O .rodata	00000006 __func__.6
00009208 l     O .rodata	00000006 __func__.4
0000920e l     O .rodata	00000007 __func__.3
00009215 l     O .rodata	00000014 __func__.2
00009229 l     O .rodata	0000000e __func__.1
00009237 l     O .rodata	00000013 __func__.0
0000a2f4 l     O .data	0000005c malloc_ctx
00000000 l    df *ABS*	00000000 snprintf.c
00000000 l    df *ABS*	00000000 memcpy.c
00000000 l    df *ABS*	00000000 mempool.c
000092d3 l     O .rodata	00000013 __func__.2
000092e6 l     O .rodata	0000000b __func__.1
000092f1 l     O .rodata	0000000e __func__.0
00000000 l    df *ABS*	00000000 stack_check.c
00000000 l    df *ABS*	00000000 memset.c
00000000 l    df *ABS*	00000000 memchr.c
00000000 l    df *ABS*	00000000 strlen.c
00000000 l    df *ABS*	00000000 memmove.c
00000000 l    df *ABS*	00000000 strcmp.c
00000000 l    df *ABS*	00000000 strlcpy.c
00000000 l    df *ABS*	00000000 consttime_memcmp.c
00000000 l    df *ABS*	00000000 
0000a000 l     O *ABS*	00000000 _DYNAMIC
0000a088 l     O *ABS*	00000000 _GLOBAL_OFFSET_TABLE_
000081c0 l     F .text	00000010 ___utee_log_from_thumb
000081d0 l     F .text	00000010 ___utee_check_access_rights_from_thumb
000081e0 l     F .text	00000010 ___utee_cache_operation_from_thumb
000081f0 l     F .text	00000010 ___utee_panic_from_thumb
000015ac g     F .text	00000058 putchar
000041c6 g     F .text	00000004 TEE_BigIntConvertToFMM
00003dc8 g     F .text	00000008 TEE_BigIntSquareMod
0000383c g     F .text	00000144 TEE_BigIntShiftRight
00007d26 g     F .text	00000002 raw_malloc_add_pool
0000207c g     F .text	000000c0 tee_invoke_supp_plugin
00004c64 g     F .text	00000098 mbedtls_mpi_grow
00001448 g     F .text	000000b4 __l_divmod
000005ee g     F .text	00000020 TEE_Realloc
000016ce g     F .text	00000012 __utee_check_inout_annotation
00007b6a g     F .text	00000008 raw_free
00001516 g     F .text	00000072 printf
00002164 g     F .text	00000014 _utee_log
000003dc g     F .text	000000e4 TEE_InvokeTACommand
00001632 g     F .text	0000002e __utee_check_outbuf_annotation
00004bf8 g     F .text	00000028 mbedtls_mpi_init_mempool
00002400 g     F .text	00000014 _utee_cryp_random_number_generate
000051b2 g     F .text	0000006c mbedtls_mpi_write_binary
00000b70 g     F .text	0000000e vsnprintk
000057b4 g     F .text	00000068 mbedtls_mpi_sub_int
00008104 g     F .text	00000034 memmove
00007e84 g     F .text	00000058 snprintf
0000369c g     F .text	0000005c TEE_BigIntCmpS32
0000a2a0 g     O .data	00000004 __stack_chk_guard
00004d32 g     F .text	000000b6 mbedtls_mpi_shrink
00003a38 g     F .text	00000020 TEE_BigIntAdd
00002360 g     F .text	00000014 _utee_cryp_obj_restrict_usage
0000823c g     O .rodata	00000004 ta_heap_size
00002488 g     F .text	00000018 _utee_asymm_operate
00002b5c g     F .text	0000000e _base64_enc_len
00005994 g     F .text	00000158 mbedtls_mpi_read_string
00003a78 g     F .text	000000a8 TEE_BigIntNeg
00002524 g     F .text	00000014 _utee_storage_free_enum
00000020 g       .text	00000000 __text_start
00001ea8 g     F .text	00000098 TEE_GetNextProperty
000052c2 g     F .text	00000078 mbedtls_mpi_shift_r
00007e30 g     F .text	00000054 malloc_buffer_overlaps_heap
000022c8 g     F .text	00000014 _utee_hash_init
00003d90 g     F .text	0000001c TEE_BigIntSubMod
00006f42 g     F .text	00000246 mbedtls_mpi_gen_prime
00001bdc g     F .text	0000009c TEE_GetPropertyAsBinaryBlock
00004fd4 g     F .text	00000022 mbedtls_mpi_get_bit
00005104 g     F .text	00000042 mbedtls_mpi_read_binary
00000ab0 g     F .text	00000058 trace_printf
00006232 g     F .text	00000004 mbedtls_mpi_montmul
000025d8 g     F .text	00000014 _utee_cache_operation
00007eec g     F .text	000000d8 memcpy
000041ca g     F .text	0000009a TEE_BigIntConvertFromFMM
00001624 g     F .text	00000004 TEE_Panic
0000132c g     F .text	00000018 __aeabi_uldivmod
00001588 g     F .text	00000024 puts
00004264 g     F .text	000000f4 TEE_BigIntComputeFMM
00007af8 g     F .text	0000001c malloc_get_stats
0000057c g     F .text	00000016 TEE_GetREETime
00007d28 g     F .text	00000018 raw_malloc_get_stats
0000a24c g     O .data	00000054 ta_props
00001660 g     F .text	0000001a __utee_check_instring_annotation
00007c80 g     F .text	00000014 malloc
000080b8 g     F .text	0000000a __ta_entry_c
00001dd8 g     F .text	00000004 TEE_FreePropertyEnumerator
00007edc g     F .text	0000000e vsnprintf
0000a248 g     O .data	00000004 trace_level
00003630 g     F .text	0000006c TEE_BigIntCmp
0000822c g     O .rodata	00000004 ta_num_props
00007960 g     F .text	00000084 bgetr
000024b8 g     F .text	00000018 _utee_storage_obj_open
000080ac g     F .text	0000000c mempool_free
000022dc g     F .text	00000014 _utee_hash_update
0000348c g     F .text	0000008c TEE_BigIntConvertToOctetString
0000507c g     F .text	00000036 mbedtls_mpi_bitlen
00003980 g     F .text	00000060 TEE_BigIntGetBit
00008240 g     O .rodata	00000003 trace_ext_prefix
00002560 g     F .text	00000014 _utee_storage_next_enum
00007b58 g     F .text	00000012 raw_malloc
000076f8 g     F .text	00000060 bgetz
000004cc g     F .text	0000000c TEE_GetInstanceData
000004fa g     F .text	0000001e TEE_Wait
0000581c g     F .text	0000011c mbedtls_mpi_mul_mpi
00000614 g     F .text	00000006 TEE_CacheFlush
00000934 g     F .text	0000017c trace_vprintf
00000624 g     F .text	00000002 TA_DestroyEntryPoint
00004bec g     F .text	0000000c mbedtls_mpi_init
000024e8 g     F .text	00000014 _utee_storage_obj_del
00005048 g     F .text	00000034 mbedtls_mpi_lsb
00004594 g     F .text	00000028 _assert_log
000022a0 g     F .text	00000014 _utee_cryp_state_copy
000041c2 g     F .text	00000004 TEE_BigIntFMMContextSizeInU32
00001ffc g     F .text	00000080 tee_unmap
00003384 g     F .text	00000044 _TEE_MathAPI_Init
00004358 g     F .text	0000017c __utee_tcb_init
000056bc g     F .text	00000048 mbedtls_mpi_add_mpi
00002b44 g     F .text	00000018 abort
00006a24 g     F .text	00000128 mbedtls_mpi_random
000080c6 g     F .text	00000002 __stack_chk_fail
000016a8 g     F .text	00000012 __utee_check_out_annotation
0000d3a4 g     O .bss	00004000 ta_heap
00003dd0 g     F .text	000000f4 TEE_BigIntInvMod
00002800 g     F .text	000000ec __utee_call_elf_init_fn
000006e8 g     F .text	00000018 TA_CloseSessionEntryPoint
000021d0 g     F .text	00000014 _utee_close_ta_session
00005704 g     F .text	0000004a mbedtls_mpi_sub_mpi
00008178 g     F .text	00000048 consttime_memcmp
00002150 g     F .text	00000014 _utee_return
00002178 g     F .text	00000014 __utee_panic
000044d4 g     F .text	00000018 __tls_get_addr
00000700 g     F .text	00000200 TA_InvokeCommandEntryPoint
000028ec g     F .text	00000010 __utee_call_elf_fini_fn
00007d00 g     F .text	00000010 free_wipe
00008048 g     F .text	0000003c mempool_alloc
0000213c g     F .text	00000014 _utee_panic
00007d14 g     F .text	00000012 raw_malloc_init_ctx
00008084 g     F .text	00000028 mempool_calloc
000025c4 g     F .text	00000014 _utee_cryp_obj_generate_key
0000259c g     F .text	00000014 _utee_storage_obj_trunc
0000a2a4 g     O .data	0000003c tee_props
00002224 g     F .text	00000014 _utee_unmask_cancellation
00001da8 g     F .text	00000008 TEE_ResetPropertyEnumerator
00007c94 g     F .text	00000020 calloc
00000592 g     F .text	00000052 TEE_Malloc
0000018c g     F .text	0000000a TEE_CheckMemoryAccessRights
00001c78 g     F .text	00000098 TEE_GetPropertyAsUUID
000013d2 g     F .text	00000076 __ul_divmod
0000218c g     F .text	00000018 _utee_get_property
00004f9c g     F .text	00000038 mbedtls_mpi_lset
00000626 g     F .text	000000c2 TA_OpenSessionEntryPoint
000044ec g     F .text	000000a8 dl_iterate_phdr
000113a8 g       .bss	00000000 __ftrace_buf_end
0000a394 g     O .bss	00000004 ta_param_types
00005ec8 g     F .text	00000068 mbedtls_mpi_div_int
00006ea0 g     F .text	00000098 mbedtls_mpi_is_prime_ext
00004150 g     F .text	00000064 TEE_BigIntIsProbablePrime
00005938 g     F .text	0000005c mbedtls_mpi_mul_int
0000623a g     F .text	000004aa mbedtls_mpi_exp_mod
00004eac g     F .text	0000005c mbedtls_mpi_safe_cond_assign
00001928 g     F .text	00000188 TEE_GetPropertyAsString
00005420 g     F .text	000000a8 mbedtls_mpi_lt_mpi_ct
000033c8 g     F .text	00000038 TEE_BigIntInit
0000167a g     F .text	0000002e __utee_check_outstring_annotation
000004d8 g     F .text	00000004 TEE_MemMove
000074bc g     F .text	00000014 mbedtls_platform_zeroize
00003400 g     F .text	0000008c TEE_BigIntConvertFromOctetString
00002470 g     F .text	00000018 _utee_authenc_dec_final
0000533a g     F .text	00000062 mbedtls_mpi_cmp_abs
00002574 g     F .text	00000014 _utee_storage_obj_read
000080d8 g     F .text	0000001c memchr
000000ec g     F .text	00000050 TEE_UnmaskCancellation
00007188 g     F .text	00000334 mbedtls_mpi_self_test
000025b0 g     F .text	00000014 _utee_storage_obj_seek
00002210 g     F .text	00000014 _utee_check_access_rights
000054c8 g     F .text	00000064 mbedtls_mpi_cmp_int
00002c38 g     F .text	000000c4 _base64_dec
00002538 g     F .text	00000014 _utee_storage_reset_enum
000016ba g     F .text	00000014 __utee_check_attr_in_annotation
00002440 g     F .text	00000018 _utee_authenc_update_payload
00003d24 g     F .text	00000050 TEE_BigIntMod
00005f94 g     F .text	0000006c mbedtls_mpi_mod_int
000050be g     F .text	00000046 mbedtls_mpi_read_binary_le
00003c02 g     F .text	00000122 TEE_BigIntDiv
00002388 g     F .text	00000014 _utee_cryp_obj_alloc
000113a8 g       .bss	00000000 __ftrace_buf_start
0000814e g     F .text	0000002a strlcpy
00004de8 g     F .text	00000066 mbedtls_mpi_copy
00007ae4 g     F .text	00000014 malloc_reset_stats
00001d10 g     F .text	00000098 TEE_GetPropertyAsIdentity
000012fc g     F .text	00000016 __vsprintf
00002274 g     F .text	00000014 _utee_set_ta_time
000021e4 g     F .text	00000018 _utee_invoke_ta_command
00007cb4 g     F .text	0000001c realloc
00004e4e g     F .text	0000005e mbedtls_mpi_swap
00007fc4 g     F .text	00000084 mempool_alloc_pool
00003b20 g     F .text	000000dc TEE_BigIntMul
00007d10 g     F .text	00000004 raw_malloc_get_ctx_size
0000521e g     F .text	000000a4 mbedtls_mpi_shift_l
0000539c g     F .text	00000084 mbedtls_mpi_cmp_mpi
000004e0 g     F .text	00000004 TEE_MemFill
00007d40 g     F .text	00000010 malloc_add_pool
00000920 g     F .text	00000014 trace_get_level
0000552c g     F .text	000000ae mbedtls_mpi_add_abs
000041ba g     F .text	00000008 TEE_BigIntFMMSizeInU32
00001ab0 g     F .text	00000094 TEE_GetPropertyAsBool
00007bba g     F .text	00000044 raw_realloc
000041b4 g     F .text	00000004 TEE_BigIntInitFMM
00002308 g     F .text	00000014 _utee_cipher_init
00002968 g     F .text	000001dc __utee_entry
00001b44 g     F .text	00000098 TEE_GetPropertyAsU32
00008200 g       .text	00000000 __text_end
00003ec4 g     F .text	000000b0 TEE_BigIntRelativePrime
00005f30 g     F .text	00000064 mbedtls_mpi_mod_mpi
0000234c g     F .text	00000014 _utee_cryp_obj_get_info
000079e4 g     F .text	0000009c bpool
00001db0 g     F .text	00000028 TEE_AllocatePropertyEnumerator
00002288 g     F .text	00000018 _utee_cryp_state_alloc
0000009a g     F .text	00000052 TEE_GetCancellationFlag
000066e4 g     F .text	00000134 mbedtls_mpi_gcd
00000554 g     F .text	00000028 TEE_SetTAPersistentTime
00005146 g     F .text	0000006c mbedtls_mpi_write_binary_le
000080c8 g     F .text	00000010 memset
00007b14 g     F .text	00000044 raw_memalign
00000518 g     F .text	0000003c TEE_GetTAPersistentTime
00000b08 g     F .text	00000002 dhex_dump
0000013c g     F .text	00000050 TEE_MaskCancellation
00002374 g     F .text	00000014 _utee_cryp_obj_get_attr
00002334 g     F .text	00000018 _utee_cipher_final
00000904 g     F .text	0000001c trace_set_level
000022b4 g     F .text	00000014 _utee_cryp_state_free
00008138 g     F .text	00000016 strcmp
000021b8 g     F .text	00000018 _utee_open_ta_session
0000359c g     F .text	00000094 TEE_BigIntConvertToS32
00003a58 g     F .text	00000020 TEE_BigIntSub
000080c2 g     F .text	00000004 tahead_get_trace_level
0000254c g     F .text	00000014 _utee_storage_start_enum
00001f90 g     F .text	0000006c tee_map_zi
00006236 g     F .text	00000004 mbedtls_mpi_montred
00007cd0 g     F .text	00000020 memalign
00003518 g     F .text	00000084 TEE_BigIntConvertFromS32
0000574e g     F .text	00000066 mbedtls_mpi_add_int
00002458 g     F .text	00000018 _utee_authenc_enc_final
00007d50 g     F .text	000000e0 malloc_buffer_is_within_alloced
0000239c g     F .text	00000014 _utee_cryp_obj_close
000041b8 g     F .text	00000002 TEE_BigIntInitFMMContext
00002238 g     F .text	00000014 _utee_mask_cancellation
000024fc g     F .text	00000014 _utee_storage_obj_rename
00003bfc g     F .text	00000006 TEE_BigIntSquare
00002588 g     F .text	00000014 _utee_storage_obj_write
00000620 g     F .text	00000004 TA_CreateEntryPoint
00000900 g     F .text	00000004 __ta_entry
0000242c g     F .text	00000014 _utee_authenc_update_aad
0000622c g     F .text	00000006 mbedtls_mpi_montg_init
00000b7e g     F .text	0000005a snprintk
000039e0 g     F .text	00000058 TEE_BigIntGetBitCount
000023d8 g     F .text	00000014 _utee_cryp_obj_copy
00003dac g     F .text	0000001c TEE_BigIntMulMod
00006b4c g     F .text	00000354 mbedtls_mpi_inv_mod
0000a374 g     O .bss	00000020 ta_params
00005aec g     F .text	000003dc mbedtls_mpi_div_mpi
000050b2 g     F .text	0000000c mbedtls_mpi_size
000074f0 g     F .text	00000208 bget
00001ddc g     F .text	0000000a TEE_StartPropertyEnumerator
0000224c g     F .text	00000014 _utee_wait
00004ff6 g     F .text	00000052 mbedtls_mpi_set_bit
000005e4 g     F .text	0000000a TEE_Free
00006f38 g     F .text	0000000a mbedtls_mpi_is_prime
0000061a g     F .text	00000006 TEE_CacheInvalidate
000045bc g     F .text	00000010 _assert_break
00003d74 g     F .text	0000001c TEE_BigIntAddMod
00002260 g     F .text	00000014 _utee_get_time
00001de6 g     F .text	000000c2 TEE_GetPropertyName
000023c4 g     F .text	00000014 _utee_cryp_obj_populate
000004dc g     F .text	00000004 TEE_MemCompare
0000231c g     F .text	00000018 _utee_cipher_update
00000b0c g     F .text	00000064 __vsnprintf
0000a368 g     O .bss	0000000c __elf_phdr_info
00000318 g     F .text	000000c4 TEE_OpenTASession
000014fc g     F .text	00000014 trace_ext_puts
00001510 g     F .text	00000006 trace_ext_get_thread_id
000023ec g     F .text	00000014 _utee_cryp_derive_key
00004c20 g     F .text	00000044 mbedtls_mpi_free
000023b0 g     F .text	00000014 _utee_cryp_obj_reset
0000060e g     F .text	00000006 TEE_CacheClean
000021a4 g     F .text	00000014 _utee_get_property_name_to_index
00007b72 g     F .text	00000048 raw_calloc
00002b6a g     F .text	000000ce _base64_enc
00004f08 g     F .text	00000094 mbedtls_mpi_safe_cond_swap
00002414 g     F .text	00000018 _utee_authenc_init
000080f4 g     F .text	00000010 strlen
00003f74 g     F .text	000001dc TEE_BigIntComputeExtendedGcd
00002510 g     F .text	00000014 _utee_storage_alloc_enum
000004e4 g     F .text	00000016 TEE_GetSystemTime
000024a0 g     F .text	00000018 _utee_asymm_verify
00000000 g     O .ta_head	00000020 ta_head
00007758 g     F .text	00000208 brel
000055da g     F .text	000000e2 mbedtls_mpi_sub_abs
00006818 g     F .text	00000034 mbedtls_mpi_fill_random
000004c0 g     F .text	0000000c TEE_SetInstanceData
000021fc g     F .text	00000014 _utee_get_cancellation_flag
00001314 g     F .text	00000018 __aeabi_ldivmod
00006000 g     F .text	000001a8 mbedtls_mpi_write_string
00000086 g     F .text	00000014 TEE_CloseTASession
000024d0 g     F .text	00000018 _utee_storage_obj_create
00007cf0 g     F .text	00000010 free
00007a80 g     F .text	00000064 bstats
0000d3a0 g     O .bss	00000004 mbedtls_mpi_mempool
000022f0 g     F .text	00000018 _utee_hash_final



Disassembly of section .text:

00000020 <update_out_param>:
update_out_param():
/home/aom1/Work/Linux/target/STM32MP1-DK2/buildroot/buildroot/output/build/optee-os-custom/lib/libutee/tee_api.c:121
      20:	e92d 47f0 	stmdb	sp!, {r4, r5, r6, r7, r8, r9, sl, lr}
      24:	4607      	mov	r7, r0
/home/aom1/Work/Linux/target/STM32MP1-DK2/buildroot/buildroot/output/build/optee-os-custom/lib/libutee/tee_api.c:123
      26:	f8d2 a000 	ldr.w	sl, [r2]
/home/aom1/Work/Linux/target/STM32MP1-DK2/buildroot/buildroot/output/build/optee-os-custom/lib/libutee/tee_api.c:121
      2a:	4688      	mov	r8, r1
/home/aom1/Work/Linux/target/STM32MP1-DK2/buildroot/buildroot/output/build/optee-os-custom/lib/libutee/tee_api.c:125
      2c:	4614      	mov	r4, r2
      2e:	4606      	mov	r6, r0
/home/aom1/Work/Linux/target/STM32MP1-DK2/buildroot/buildroot/output/build/optee-os-custom/lib/libutee/tee_api.c:123
      30:	2500      	movs	r5, #0
/home/aom1/Work/Linux/target/STM32MP1-DK2/buildroot/buildroot/output/build/optee-os-custom/lib/libutee/tee_api.c:129
      32:	fa2a f205 	lsr.w	r2, sl, r5
/home/aom1/Work/Linux/target/STM32MP1-DK2/buildroot/buildroot/output/build/optee-os-custom/lib/libutee/tee_api.c:127
      36:	f8d4 9010 	ldr.w	r9, [r4, #16]
/home/aom1/Work/Linux/target/STM32MP1-DK2/buildroot/buildroot/output/build/optee-os-custom/lib/libutee/tee_api.c:129
      3a:	f012 0f0c 	tst.w	r2, #12
      3e:	f002 030f 	and.w	r3, r2, #15
      42:	d108      	bne.n	56 <update_out_param+0x36>
      44:	f012 0f0e 	tst.w	r2, #14
      48:	d008      	beq.n	5c <update_out_param+0x3c>
/home/aom1/Work/Linux/target/STM32MP1-DK2/buildroot/buildroot/output/build/optee-os-custom/lib/libutee/tee_api.c:126
      4a:	68a3      	ldr	r3, [r4, #8]
      4c:	f847 3015 	str.w	r3, [r7, r5, lsl #1]
/home/aom1/Work/Linux/target/STM32MP1-DK2/buildroot/buildroot/output/build/optee-os-custom/lib/libutee/tee_api.c:140
      50:	f8c6 9004 	str.w	r9, [r6, #4]
/home/aom1/Work/Linux/target/STM32MP1-DK2/buildroot/buildroot/output/build/optee-os-custom/lib/libutee/tee_api.c:141
      54:	e002      	b.n	5c <update_out_param+0x3c>
/home/aom1/Work/Linux/target/STM32MP1-DK2/buildroot/buildroot/output/build/optee-os-custom/lib/libutee/tee_api.c:129
      56:	3b06      	subs	r3, #6
      58:	2b01      	cmp	r3, #1
      5a:	d907      	bls.n	6c <update_out_param+0x4c>
/home/aom1/Work/Linux/target/STM32MP1-DK2/buildroot/buildroot/output/build/optee-os-custom/lib/libutee/tee_api.c:125 (discriminator 2)
      5c:	3504      	adds	r5, #4
      5e:	3410      	adds	r4, #16
      60:	2d10      	cmp	r5, #16
      62:	f106 0608 	add.w	r6, r6, #8
      66:	d1e4      	bne.n	32 <update_out_param+0x12>
/home/aom1/Work/Linux/target/STM32MP1-DK2/buildroot/buildroot/output/build/optee-os-custom/lib/libutee/tee_api.c:146
      68:	e8bd 87f0 	ldmia.w	sp!, {r4, r5, r6, r7, r8, r9, sl, pc}
/home/aom1/Work/Linux/target/STM32MP1-DK2/buildroot/buildroot/output/build/optee-os-custom/lib/libutee/tee_api.c:137
      6c:	f858 1005 	ldr.w	r1, [r8, r5]
      70:	2900      	cmp	r1, #0
      72:	d0ed      	beq.n	50 <update_out_param+0x30>
/home/aom1/Work/Linux/target/STM32MP1-DK2/buildroot/buildroot/output/build/optee-os-custom/lib/libutee/tee_api.c:139
      74:	6872      	ldr	r2, [r6, #4]
/home/aom1/Work/Linux/target/STM32MP1-DK2/buildroot/buildroot/output/build/optee-os-custom/lib/libutee/tee_api.c:138
      76:	f857 0015 	ldr.w	r0, [r7, r5, lsl #1]
      7a:	454a      	cmp	r2, r9
      7c:	bf28      	it	cs
      7e:	464a      	movcs	r2, r9
      80:	f007 ff34 	bl	7eec <memcpy>
      84:	e7e4      	b.n	50 <update_out_param+0x30>

00000086 <TEE_CloseTASession>:
TEE_CloseTASession():
/home/aom1/Work/Linux/target/STM32MP1-DK2/buildroot/buildroot/output/build/optee-os-custom/lib/libutee/tee_api.c:195
      86:	b508      	push	{r3, lr}
/home/aom1/Work/Linux/target/STM32MP1-DK2/buildroot/buildroot/output/build/optee-os-custom/lib/libutee/tee_api.c:196
      88:	b130      	cbz	r0, 98 <TEE_CloseTASession+0x12>
/home/aom1/Work/Linux/target/STM32MP1-DK2/buildroot/buildroot/output/build/optee-os-custom/lib/libutee/tee_api.c:197
      8a:	f002 e8a2 	blx	21d0 <_utee_close_ta_session>
/home/aom1/Work/Linux/target/STM32MP1-DK2/buildroot/buildroot/output/build/optee-os-custom/lib/libutee/tee_api.c:199
      8e:	b118      	cbz	r0, 98 <TEE_CloseTASession+0x12>
/home/aom1/Work/Linux/target/STM32MP1-DK2/buildroot/buildroot/output/build/optee-os-custom/lib/libutee/tee_api.c:202
      90:	e8bd 4008 	ldmia.w	sp!, {r3, lr}
/home/aom1/Work/Linux/target/STM32MP1-DK2/buildroot/buildroot/output/build/optee-os-custom/lib/libutee/tee_api.c:200
      94:	f001 bac6 	b.w	1624 <TEE_Panic>
/home/aom1/Work/Linux/target/STM32MP1-DK2/buildroot/buildroot/output/build/optee-os-custom/lib/libutee/tee_api.c:202
      98:	bd08      	pop	{r3, pc}

0000009a <TEE_GetCancellationFlag>:
TEE_GetCancellationFlag():
/home/aom1/Work/Linux/target/STM32MP1-DK2/buildroot/buildroot/output/build/optee-os-custom/lib/libutee/tee_api.c:257
      9a:	b507      	push	{r0, r1, r2, lr}
/home/aom1/Work/Linux/target/STM32MP1-DK2/buildroot/buildroot/output/build/optee-os-custom/lib/libutee/tee_api.c:259
      9c:	4668      	mov	r0, sp
/home/aom1/Work/Linux/target/STM32MP1-DK2/buildroot/buildroot/output/build/optee-os-custom/lib/libutee/tee_api.c:257
      9e:	4a10      	ldr	r2, [pc, #64]	; (e0 <TEE_GetCancellationFlag+0x46>)
      a0:	4b10      	ldr	r3, [pc, #64]	; (e4 <TEE_GetCancellationFlag+0x4a>)
      a2:	447a      	add	r2, pc
      a4:	58d3      	ldr	r3, [r2, r3]
      a6:	681b      	ldr	r3, [r3, #0]
      a8:	9301      	str	r3, [sp, #4]
      aa:	f04f 0300 	mov.w	r3, #0
/home/aom1/Work/Linux/target/STM32MP1-DK2/buildroot/buildroot/output/build/optee-os-custom/lib/libutee/tee_api.c:259
      ae:	f002 e8a6 	blx	21fc <_utee_get_cancellation_flag>
/home/aom1/Work/Linux/target/STM32MP1-DK2/buildroot/buildroot/output/build/optee-os-custom/lib/libutee/tee_api.c:261
      b2:	b108      	cbz	r0, b8 <TEE_GetCancellationFlag+0x1e>
/home/aom1/Work/Linux/target/STM32MP1-DK2/buildroot/buildroot/output/build/optee-os-custom/lib/libutee/tee_api.c:262
      b4:	2300      	movs	r3, #0
      b6:	9300      	str	r3, [sp, #0]
/home/aom1/Work/Linux/target/STM32MP1-DK2/buildroot/buildroot/output/build/optee-os-custom/lib/libutee/tee_api.c:257
      b8:	4a0b      	ldr	r2, [pc, #44]	; (e8 <TEE_GetCancellationFlag+0x4e>)
/home/aom1/Work/Linux/target/STM32MP1-DK2/buildroot/buildroot/output/build/optee-os-custom/lib/libutee/tee_api.c:264
      ba:	4b0a      	ldr	r3, [pc, #40]	; (e4 <TEE_GetCancellationFlag+0x4a>)
/home/aom1/Work/Linux/target/STM32MP1-DK2/buildroot/buildroot/output/build/optee-os-custom/lib/libutee/tee_api.c:257
      bc:	447a      	add	r2, pc
/home/aom1/Work/Linux/target/STM32MP1-DK2/buildroot/buildroot/output/build/optee-os-custom/lib/libutee/tee_api.c:263
      be:	9800      	ldr	r0, [sp, #0]
/home/aom1/Work/Linux/target/STM32MP1-DK2/buildroot/buildroot/output/build/optee-os-custom/lib/libutee/tee_api.c:264
      c0:	58d3      	ldr	r3, [r2, r3]
/home/aom1/Work/Linux/target/STM32MP1-DK2/buildroot/buildroot/output/build/optee-os-custom/lib/libutee/tee_api.c:263
      c2:	3800      	subs	r0, #0
      c4:	bf18      	it	ne
      c6:	2001      	movne	r0, #1
/home/aom1/Work/Linux/target/STM32MP1-DK2/buildroot/buildroot/output/build/optee-os-custom/lib/libutee/tee_api.c:264
      c8:	681a      	ldr	r2, [r3, #0]
      ca:	9b01      	ldr	r3, [sp, #4]
      cc:	405a      	eors	r2, r3
      ce:	f04f 0300 	mov.w	r3, #0
      d2:	d001      	beq.n	d8 <TEE_GetCancellationFlag+0x3e>
      d4:	f007 fff7 	bl	80c6 <__stack_chk_fail>
      d8:	b003      	add	sp, #12
      da:	f85d fb04 	ldr.w	pc, [sp], #4
      de:	bf00      	nop
      e0:	00009fe2 	.word	0x00009fe2
      e4:	0000000c 	.word	0x0000000c
      e8:	00009fc8 	.word	0x00009fc8

000000ec <TEE_UnmaskCancellation>:
TEE_UnmaskCancellation():
/home/aom1/Work/Linux/target/STM32MP1-DK2/buildroot/buildroot/output/build/optee-os-custom/lib/libutee/tee_api.c:267
      ec:	b507      	push	{r0, r1, r2, lr}
/home/aom1/Work/Linux/target/STM32MP1-DK2/buildroot/buildroot/output/build/optee-os-custom/lib/libutee/tee_api.c:269
      ee:	4668      	mov	r0, sp
/home/aom1/Work/Linux/target/STM32MP1-DK2/buildroot/buildroot/output/build/optee-os-custom/lib/libutee/tee_api.c:267
      f0:	4a0f      	ldr	r2, [pc, #60]	; (130 <TEE_UnmaskCancellation+0x44>)
      f2:	4b10      	ldr	r3, [pc, #64]	; (134 <TEE_UnmaskCancellation+0x48>)
      f4:	447a      	add	r2, pc
      f6:	58d3      	ldr	r3, [r2, r3]
      f8:	681b      	ldr	r3, [r3, #0]
      fa:	9301      	str	r3, [sp, #4]
      fc:	f04f 0300 	mov.w	r3, #0
/home/aom1/Work/Linux/target/STM32MP1-DK2/buildroot/buildroot/output/build/optee-os-custom/lib/libutee/tee_api.c:269
     100:	f002 e890 	blx	2224 <_utee_unmask_cancellation>
/home/aom1/Work/Linux/target/STM32MP1-DK2/buildroot/buildroot/output/build/optee-os-custom/lib/libutee/tee_api.c:271
     104:	b108      	cbz	r0, 10a <TEE_UnmaskCancellation+0x1e>
/home/aom1/Work/Linux/target/STM32MP1-DK2/buildroot/buildroot/output/build/optee-os-custom/lib/libutee/tee_api.c:272
     106:	f001 fa8d 	bl	1624 <TEE_Panic>
/home/aom1/Work/Linux/target/STM32MP1-DK2/buildroot/buildroot/output/build/optee-os-custom/lib/libutee/tee_api.c:267
     10a:	4a0b      	ldr	r2, [pc, #44]	; (138 <TEE_UnmaskCancellation+0x4c>)
/home/aom1/Work/Linux/target/STM32MP1-DK2/buildroot/buildroot/output/build/optee-os-custom/lib/libutee/tee_api.c:274
     10c:	4b09      	ldr	r3, [pc, #36]	; (134 <TEE_UnmaskCancellation+0x48>)
/home/aom1/Work/Linux/target/STM32MP1-DK2/buildroot/buildroot/output/build/optee-os-custom/lib/libutee/tee_api.c:267
     10e:	447a      	add	r2, pc
/home/aom1/Work/Linux/target/STM32MP1-DK2/buildroot/buildroot/output/build/optee-os-custom/lib/libutee/tee_api.c:273
     110:	9800      	ldr	r0, [sp, #0]
/home/aom1/Work/Linux/target/STM32MP1-DK2/buildroot/buildroot/output/build/optee-os-custom/lib/libutee/tee_api.c:274
     112:	58d3      	ldr	r3, [r2, r3]
/home/aom1/Work/Linux/target/STM32MP1-DK2/buildroot/buildroot/output/build/optee-os-custom/lib/libutee/tee_api.c:273
     114:	3800      	subs	r0, #0
     116:	bf18      	it	ne
     118:	2001      	movne	r0, #1
/home/aom1/Work/Linux/target/STM32MP1-DK2/buildroot/buildroot/output/build/optee-os-custom/lib/libutee/tee_api.c:274
     11a:	681a      	ldr	r2, [r3, #0]
     11c:	9b01      	ldr	r3, [sp, #4]
     11e:	405a      	eors	r2, r3
     120:	f04f 0300 	mov.w	r3, #0
     124:	d001      	beq.n	12a <TEE_UnmaskCancellation+0x3e>
     126:	f007 ffce 	bl	80c6 <__stack_chk_fail>
     12a:	b003      	add	sp, #12
     12c:	f85d fb04 	ldr.w	pc, [sp], #4
     130:	00009f90 	.word	0x00009f90
     134:	0000000c 	.word	0x0000000c
     138:	00009f76 	.word	0x00009f76

0000013c <TEE_MaskCancellation>:
TEE_MaskCancellation():
/home/aom1/Work/Linux/target/STM32MP1-DK2/buildroot/buildroot/output/build/optee-os-custom/lib/libutee/tee_api.c:277
     13c:	b507      	push	{r0, r1, r2, lr}
/home/aom1/Work/Linux/target/STM32MP1-DK2/buildroot/buildroot/output/build/optee-os-custom/lib/libutee/tee_api.c:279
     13e:	4668      	mov	r0, sp
/home/aom1/Work/Linux/target/STM32MP1-DK2/buildroot/buildroot/output/build/optee-os-custom/lib/libutee/tee_api.c:277
     140:	4a0f      	ldr	r2, [pc, #60]	; (180 <TEE_MaskCancellation+0x44>)
     142:	4b10      	ldr	r3, [pc, #64]	; (184 <TEE_MaskCancellation+0x48>)
     144:	447a      	add	r2, pc
     146:	58d3      	ldr	r3, [r2, r3]
     148:	681b      	ldr	r3, [r3, #0]
     14a:	9301      	str	r3, [sp, #4]
     14c:	f04f 0300 	mov.w	r3, #0
/home/aom1/Work/Linux/target/STM32MP1-DK2/buildroot/buildroot/output/build/optee-os-custom/lib/libutee/tee_api.c:279
     150:	f002 e872 	blx	2238 <_utee_mask_cancellation>
/home/aom1/Work/Linux/target/STM32MP1-DK2/buildroot/buildroot/output/build/optee-os-custom/lib/libutee/tee_api.c:281
     154:	b108      	cbz	r0, 15a <TEE_MaskCancellation+0x1e>
/home/aom1/Work/Linux/target/STM32MP1-DK2/buildroot/buildroot/output/build/optee-os-custom/lib/libutee/tee_api.c:282
     156:	f001 fa65 	bl	1624 <TEE_Panic>
/home/aom1/Work/Linux/target/STM32MP1-DK2/buildroot/buildroot/output/build/optee-os-custom/lib/libutee/tee_api.c:277
     15a:	4a0b      	ldr	r2, [pc, #44]	; (188 <TEE_MaskCancellation+0x4c>)
/home/aom1/Work/Linux/target/STM32MP1-DK2/buildroot/buildroot/output/build/optee-os-custom/lib/libutee/tee_api.c:284
     15c:	4b09      	ldr	r3, [pc, #36]	; (184 <TEE_MaskCancellation+0x48>)
/home/aom1/Work/Linux/target/STM32MP1-DK2/buildroot/buildroot/output/build/optee-os-custom/lib/libutee/tee_api.c:277
     15e:	447a      	add	r2, pc
/home/aom1/Work/Linux/target/STM32MP1-DK2/buildroot/buildroot/output/build/optee-os-custom/lib/libutee/tee_api.c:283
     160:	9800      	ldr	r0, [sp, #0]
/home/aom1/Work/Linux/target/STM32MP1-DK2/buildroot/buildroot/output/build/optee-os-custom/lib/libutee/tee_api.c:284
     162:	58d3      	ldr	r3, [r2, r3]
/home/aom1/Work/Linux/target/STM32MP1-DK2/buildroot/buildroot/output/build/optee-os-custom/lib/libutee/tee_api.c:283
     164:	3800      	subs	r0, #0
     166:	bf18      	it	ne
     168:	2001      	movne	r0, #1
/home/aom1/Work/Linux/target/STM32MP1-DK2/buildroot/buildroot/output/build/optee-os-custom/lib/libutee/tee_api.c:284
     16a:	681a      	ldr	r2, [r3, #0]
     16c:	9b01      	ldr	r3, [sp, #4]
     16e:	405a      	eors	r2, r3
     170:	f04f 0300 	mov.w	r3, #0
     174:	d001      	beq.n	17a <TEE_MaskCancellation+0x3e>
     176:	f007 ffa6 	bl	80c6 <__stack_chk_fail>
     17a:	b003      	add	sp, #12
     17c:	f85d fb04 	ldr.w	pc, [sp], #4
     180:	00009f40 	.word	0x00009f40
     184:	0000000c 	.word	0x0000000c
     188:	00009f26 	.word	0x00009f26

0000018c <TEE_CheckMemoryAccessRights>:
TEE_CheckMemoryAccessRights():
/home/aom1/Work/Linux/target/STM32MP1-DK2/buildroot/buildroot/output/build/optee-os-custom/lib/libutee/tee_api.c:293
     18c:	b10a      	cbz	r2, 192 <TEE_CheckMemoryAccessRights+0x6>
/home/aom1/Work/Linux/target/STM32MP1-DK2/buildroot/buildroot/output/build/optee-os-custom/lib/libutee/tee_api.c:297
     18e:	f008 b81f 	b.w	81d0 <___utee_check_access_rights_from_thumb>
/home/aom1/Work/Linux/target/STM32MP1-DK2/buildroot/buildroot/output/build/optee-os-custom/lib/libutee/tee_api.c:309
     192:	4610      	mov	r0, r2
     194:	4770      	bx	lr

00000196 <copy_param>:
copy_param():
/home/aom1/Work/Linux/target/STM32MP1-DK2/buildroot/buildroot/output/build/optee-os-custom/lib/libutee/tee_api.c:29
     196:	e92d 4ff0 	stmdb	sp!, {r4, r5, r6, r7, r8, r9, sl, fp, lr}
     19a:	4617      	mov	r7, r2
     19c:	ed2d 8b02 	vpush	{d8}
     1a0:	4a5a      	ldr	r2, [pc, #360]	; (30c <copy_param+0x176>)
     1a2:	b087      	sub	sp, #28
     1a4:	4698      	mov	r8, r3
/home/aom1/Work/Linux/target/STM32MP1-DK2/buildroot/buildroot/output/build/optee-os-custom/lib/libutee/tee_api.c:34
     1a6:	2500      	movs	r5, #0
/home/aom1/Work/Linux/target/STM32MP1-DK2/buildroot/buildroot/output/build/optee-os-custom/lib/libutee/tee_api.c:29
     1a8:	e9dd 9312 	ldrd	r9, r3, [sp, #72]	; 0x48
     1ac:	447a      	add	r2, pc
     1ae:	4604      	mov	r4, r0
     1b0:	9302      	str	r3, [sp, #8]
/home/aom1/Work/Linux/target/STM32MP1-DK2/buildroot/buildroot/output/build/optee-os-custom/lib/libutee/tee_api.c:47
     1b2:	462e      	mov	r6, r5
/home/aom1/Work/Linux/target/STM32MP1-DK2/buildroot/buildroot/output/build/optee-os-custom/lib/libutee/tee_api.c:29
     1b4:	4b56      	ldr	r3, [pc, #344]	; (310 <copy_param+0x17a>)
/home/aom1/Work/Linux/target/STM32MP1-DK2/buildroot/buildroot/output/build/optee-os-custom/lib/libutee/tee_api.c:54
     1b6:	f107 0b04 	add.w	fp, r7, #4
/home/aom1/Work/Linux/target/STM32MP1-DK2/buildroot/buildroot/output/build/optee-os-custom/lib/libutee/tee_api.c:29
     1ba:	9101      	str	r1, [sp, #4]
/home/aom1/Work/Linux/target/STM32MP1-DK2/buildroot/buildroot/output/build/optee-os-custom/lib/libutee/tee_api.c:65
     1bc:	f04f 0a01 	mov.w	sl, #1
/home/aom1/Work/Linux/target/STM32MP1-DK2/buildroot/buildroot/output/build/optee-os-custom/lib/libutee/tee_api.c:29
     1c0:	58d3      	ldr	r3, [r2, r3]
     1c2:	681b      	ldr	r3, [r3, #0]
     1c4:	9305      	str	r3, [sp, #20]
     1c6:	f04f 0300 	mov.w	r3, #0
/home/aom1/Work/Linux/target/STM32MP1-DK2/buildroot/buildroot/output/build/optee-os-custom/lib/libutee/tee_api.c:48
     1ca:	462b      	mov	r3, r5
/home/aom1/Work/Linux/target/STM32MP1-DK2/buildroot/buildroot/output/build/optee-os-custom/lib/libutee/tee_api.c:45
     1cc:	f8c8 5000 	str.w	r5, [r8]
/home/aom1/Work/Linux/target/STM32MP1-DK2/buildroot/buildroot/output/build/optee-os-custom/lib/libutee/tee_api.c:34
     1d0:	9504      	str	r5, [sp, #16]
/home/aom1/Work/Linux/target/STM32MP1-DK2/buildroot/buildroot/output/build/optee-os-custom/lib/libutee/tee_api.c:46
     1d2:	f8c9 5000 	str.w	r5, [r9]
/home/aom1/Work/Linux/target/STM32MP1-DK2/buildroot/buildroot/output/build/optee-os-custom/lib/libutee/tee_api.c:48
     1d6:	9a02      	ldr	r2, [sp, #8]
/home/aom1/Work/Linux/target/STM32MP1-DK2/buildroot/buildroot/output/build/optee-os-custom/lib/libutee/tee_api.c:49
     1d8:	9901      	ldr	r1, [sp, #4]
/home/aom1/Work/Linux/target/STM32MP1-DK2/buildroot/buildroot/output/build/optee-os-custom/lib/libutee/tee_api.c:48
     1da:	f842 3026 	str.w	r3, [r2, r6, lsl #2]
/home/aom1/Work/Linux/target/STM32MP1-DK2/buildroot/buildroot/output/build/optee-os-custom/lib/libutee/tee_api.c:49
     1de:	00b2      	lsls	r2, r6, #2
     1e0:	fa21 f202 	lsr.w	r2, r1, r2
     1e4:	f002 020f 	and.w	r2, r2, #15
     1e8:	3a05      	subs	r2, #5
     1ea:	2a02      	cmp	r2, #2
     1ec:	d813      	bhi.n	216 <copy_param+0x80>
/home/aom1/Work/Linux/target/STM32MP1-DK2/buildroot/buildroot/output/build/optee-os-custom/lib/libutee/tee_api.c:53
     1ee:	f857 1036 	ldr.w	r1, [r7, r6, lsl #3]
/home/aom1/Work/Linux/target/STM32MP1-DK2/buildroot/buildroot/output/build/optee-os-custom/lib/libutee/tee_api.c:64
     1f2:	b181      	cbz	r1, 216 <copy_param+0x80>
/home/aom1/Work/Linux/target/STM32MP1-DK2/buildroot/buildroot/output/build/optee-os-custom/lib/libutee/tee_api.c:54 (discriminator 1)
     1f4:	f85b 2036 	ldr.w	r2, [fp, r6, lsl #3]
/home/aom1/Work/Linux/target/STM32MP1-DK2/buildroot/buildroot/output/build/optee-os-custom/lib/libutee/tee_api.c:64 (discriminator 1)
     1f8:	b16a      	cbz	r2, 216 <copy_param+0x80>
/home/aom1/Work/Linux/target/STM32MP1-DK2/buildroot/buildroot/output/build/optee-os-custom/lib/libutee/tee_api.c:65 (discriminator 2)
     1fa:	9203      	str	r2, [sp, #12]
     1fc:	2001      	movs	r0, #1
     1fe:	f7ff ffc5 	bl	18c <TEE_CheckMemoryAccessRights>
/home/aom1/Work/Linux/target/STM32MP1-DK2/buildroot/buildroot/output/build/optee-os-custom/lib/libutee/tee_api.c:64 (discriminator 2)
     202:	2300      	movs	r3, #0
     204:	b938      	cbnz	r0, 216 <copy_param+0x80>
/home/aom1/Work/Linux/target/STM32MP1-DK2/buildroot/buildroot/output/build/optee-os-custom/lib/libutee/tee_api.c:67
     206:	9a03      	ldr	r2, [sp, #12]
/home/aom1/Work/Linux/target/STM32MP1-DK2/buildroot/buildroot/output/build/optee-os-custom/lib/libutee/tee_api.c:66
     208:	a904      	add	r1, sp, #16
     20a:	f806 a001 	strb.w	sl, [r6, r1]
/home/aom1/Work/Linux/target/STM32MP1-DK2/buildroot/buildroot/output/build/optee-os-custom/lib/libutee/tee_api.c:67
     20e:	3207      	adds	r2, #7
     210:	f022 0207 	bic.w	r2, r2, #7
     214:	4415      	add	r5, r2
/home/aom1/Work/Linux/target/STM32MP1-DK2/buildroot/buildroot/output/build/optee-os-custom/lib/libutee/tee_api.c:47 (discriminator 2)
     216:	3601      	adds	r6, #1
     218:	2e04      	cmp	r6, #4
     21a:	d1dc      	bne.n	1d6 <copy_param+0x40>
/home/aom1/Work/Linux/target/STM32MP1-DK2/buildroot/buildroot/output/build/optee-os-custom/lib/libutee/tee_api.c:75
     21c:	b335      	cbz	r5, 26c <copy_param+0xd6>
/home/aom1/Work/Linux/target/STM32MP1-DK2/buildroot/buildroot/output/build/optee-os-custom/lib/libutee/tee_api.c:76
     21e:	4631      	mov	r1, r6
     220:	4628      	mov	r0, r5
     222:	f001 feb5 	bl	1f90 <tee_map_zi>
/home/aom1/Work/Linux/target/STM32MP1-DK2/buildroot/buildroot/output/build/optee-os-custom/lib/libutee/tee_api.c:77
     226:	4603      	mov	r3, r0
     228:	2800      	cmp	r0, #0
     22a:	d060      	beq.n	2ee <copy_param+0x158>
/home/aom1/Work/Linux/target/STM32MP1-DK2/buildroot/buildroot/output/build/optee-os-custom/lib/libutee/tee_api.c:79
     22c:	f8c8 0000 	str.w	r0, [r8]
/home/aom1/Work/Linux/target/STM32MP1-DK2/buildroot/buildroot/output/build/optee-os-custom/lib/libutee/tee_api.c:80
     230:	f8c9 5000 	str.w	r5, [r9]
/home/aom1/Work/Linux/target/STM32MP1-DK2/buildroot/buildroot/output/build/optee-os-custom/lib/libutee/tee_api.c:109
     234:	ed9f 8b32 	vldr	d8, [pc, #200]	; 300 <copy_param+0x16a>
/home/aom1/Work/Linux/target/STM32MP1-DK2/buildroot/buildroot/output/build/optee-os-custom/lib/libutee/tee_api.c:83
     238:	9a01      	ldr	r2, [sp, #4]
     23a:	2500      	movs	r5, #0
     23c:	46b8      	mov	r8, r7
/home/aom1/Work/Linux/target/STM32MP1-DK2/buildroot/buildroot/output/build/optee-os-custom/lib/libutee/tee_api.c:88
     23e:	46a9      	mov	r9, r5
/home/aom1/Work/Linux/target/STM32MP1-DK2/buildroot/buildroot/output/build/optee-os-custom/lib/libutee/tee_api.c:95
     240:	f10d 0a10 	add.w	sl, sp, #16
/home/aom1/Work/Linux/target/STM32MP1-DK2/buildroot/buildroot/output/build/optee-os-custom/lib/libutee/tee_api.c:83
     244:	e9c4 2500 	strd	r2, r5, [r4]
/home/aom1/Work/Linux/target/STM32MP1-DK2/buildroot/buildroot/output/build/optee-os-custom/lib/libutee/tee_api.c:85
     248:	9a01      	ldr	r2, [sp, #4]
     24a:	00a9      	lsls	r1, r5, #2
     24c:	fa22 f101 	lsr.w	r1, r2, r1
     250:	f001 020f 	and.w	r2, r1, #15
     254:	2a03      	cmp	r2, #3
     256:	d02a      	beq.n	2ae <copy_param+0x118>
     258:	f011 0f0c 	tst.w	r1, #12
     25c:	d108      	bne.n	270 <copy_param+0xda>
     25e:	2a01      	cmp	r2, #1
     260:	d025      	beq.n	2ae <copy_param+0x118>
/home/aom1/Work/Linux/target/STM32MP1-DK2/buildroot/buildroot/output/build/optee-os-custom/lib/libutee/tee_api.c:109
     262:	ed84 8b02 	vstr	d8, [r4, #8]
/home/aom1/Work/Linux/target/STM32MP1-DK2/buildroot/buildroot/output/build/optee-os-custom/lib/libutee/tee_api.c:110
     266:	ed84 8b04 	vstr	d8, [r4, #16]
/home/aom1/Work/Linux/target/STM32MP1-DK2/buildroot/buildroot/output/build/optee-os-custom/lib/libutee/tee_api.c:111
     26a:	e028      	b.n	2be <copy_param+0x128>
/home/aom1/Work/Linux/target/STM32MP1-DK2/buildroot/buildroot/output/build/optee-os-custom/lib/libutee/tee_api.c:31
     26c:	462b      	mov	r3, r5
     26e:	e7e1      	b.n	234 <copy_param+0x9e>
/home/aom1/Work/Linux/target/STM32MP1-DK2/buildroot/buildroot/output/build/optee-os-custom/lib/libutee/tee_api.c:85
     270:	1f51      	subs	r1, r2, #5
     272:	2902      	cmp	r1, #2
     274:	d8f5      	bhi.n	262 <copy_param+0xcc>
/home/aom1/Work/Linux/target/STM32MP1-DK2/buildroot/buildroot/output/build/optee-os-custom/lib/libutee/tee_api.c:95
     276:	f815 100a 	ldrb.w	r1, [r5, sl]
/home/aom1/Work/Linux/target/STM32MP1-DK2/buildroot/buildroot/output/build/optee-os-custom/lib/libutee/tee_api.c:94
     27a:	f8d8 b004 	ldr.w	fp, [r8, #4]
/home/aom1/Work/Linux/target/STM32MP1-DK2/buildroot/buildroot/output/build/optee-os-custom/lib/libutee/tee_api.c:95
     27e:	b391      	cbz	r1, 2e6 <copy_param+0x150>
/home/aom1/Work/Linux/target/STM32MP1-DK2/buildroot/buildroot/output/build/optee-os-custom/lib/libutee/tee_api.c:97
     280:	9902      	ldr	r1, [sp, #8]
/home/aom1/Work/Linux/target/STM32MP1-DK2/buildroot/buildroot/output/build/optee-os-custom/lib/libutee/tee_api.c:98
     282:	f10b 0607 	add.w	r6, fp, #7
     286:	f026 0607 	bic.w	r6, r6, #7
/home/aom1/Work/Linux/target/STM32MP1-DK2/buildroot/buildroot/output/build/optee-os-custom/lib/libutee/tee_api.c:99
     28a:	2a06      	cmp	r2, #6
/home/aom1/Work/Linux/target/STM32MP1-DK2/buildroot/buildroot/output/build/optee-os-custom/lib/libutee/tee_api.c:98
     28c:	441e      	add	r6, r3
/home/aom1/Work/Linux/target/STM32MP1-DK2/buildroot/buildroot/output/build/optee-os-custom/lib/libutee/tee_api.c:97
     28e:	f841 3025 	str.w	r3, [r1, r5, lsl #2]
/home/aom1/Work/Linux/target/STM32MP1-DK2/buildroot/buildroot/output/build/optee-os-custom/lib/libutee/tee_api.c:99
     292:	d006      	beq.n	2a2 <copy_param+0x10c>
/home/aom1/Work/Linux/target/STM32MP1-DK2/buildroot/buildroot/output/build/optee-os-custom/lib/libutee/tee_api.c:101
     294:	f857 1035 	ldr.w	r1, [r7, r5, lsl #3]
     298:	4618      	mov	r0, r3
     29a:	465a      	mov	r2, fp
     29c:	f007 fe26 	bl	7eec <memcpy>
     2a0:	4603      	mov	r3, r0
/home/aom1/Work/Linux/target/STM32MP1-DK2/buildroot/buildroot/output/build/optee-os-custom/lib/libutee/tee_api.c:105
     2a2:	e9c4 3902 	strd	r3, r9, [r4, #8]
/home/aom1/Work/Linux/target/STM32MP1-DK2/buildroot/buildroot/output/build/optee-os-custom/lib/libutee/tee_api.c:106
     2a6:	e9c4 b904 	strd	fp, r9, [r4, #16]
/home/aom1/Work/Linux/target/STM32MP1-DK2/buildroot/buildroot/output/build/optee-os-custom/lib/libutee/tee_api.c:107
     2aa:	4633      	mov	r3, r6
     2ac:	e007      	b.n	2be <copy_param+0x128>
/home/aom1/Work/Linux/target/STM32MP1-DK2/buildroot/buildroot/output/build/optee-os-custom/lib/libutee/tee_api.c:88
     2ae:	f857 2035 	ldr.w	r2, [r7, r5, lsl #3]
     2b2:	e9c4 2902 	strd	r2, r9, [r4, #8]
/home/aom1/Work/Linux/target/STM32MP1-DK2/buildroot/buildroot/output/build/optee-os-custom/lib/libutee/tee_api.c:89
     2b6:	f8d8 2004 	ldr.w	r2, [r8, #4]
     2ba:	e9c4 2904 	strd	r2, r9, [r4, #16]
/home/aom1/Work/Linux/target/STM32MP1-DK2/buildroot/buildroot/output/build/optee-os-custom/lib/libutee/tee_api.c:84 (discriminator 2)
     2be:	3501      	adds	r5, #1
     2c0:	f108 0808 	add.w	r8, r8, #8
     2c4:	2d04      	cmp	r5, #4
     2c6:	f104 0410 	add.w	r4, r4, #16
     2ca:	d1bd      	bne.n	248 <copy_param+0xb2>
/home/aom1/Work/Linux/target/STM32MP1-DK2/buildroot/buildroot/output/build/optee-os-custom/lib/libutee/tee_api.c:115
     2cc:	2000      	movs	r0, #0
/home/aom1/Work/Linux/target/STM32MP1-DK2/buildroot/buildroot/output/build/optee-os-custom/lib/libutee/tee_api.c:29
     2ce:	4a11      	ldr	r2, [pc, #68]	; (314 <copy_param+0x17e>)
/home/aom1/Work/Linux/target/STM32MP1-DK2/buildroot/buildroot/output/build/optee-os-custom/lib/libutee/tee_api.c:116
     2d0:	4b0f      	ldr	r3, [pc, #60]	; (310 <copy_param+0x17a>)
/home/aom1/Work/Linux/target/STM32MP1-DK2/buildroot/buildroot/output/build/optee-os-custom/lib/libutee/tee_api.c:29
     2d2:	447a      	add	r2, pc
/home/aom1/Work/Linux/target/STM32MP1-DK2/buildroot/buildroot/output/build/optee-os-custom/lib/libutee/tee_api.c:116
     2d4:	58d3      	ldr	r3, [r2, r3]
     2d6:	681a      	ldr	r2, [r3, #0]
     2d8:	9b05      	ldr	r3, [sp, #20]
     2da:	405a      	eors	r2, r3
     2dc:	f04f 0300 	mov.w	r3, #0
     2e0:	d007      	beq.n	2f2 <copy_param+0x15c>
     2e2:	f007 fef0 	bl	80c6 <__stack_chk_fail>
/home/aom1/Work/Linux/target/STM32MP1-DK2/buildroot/buildroot/output/build/optee-os-custom/lib/libutee/tee_api.c:103
     2e6:	461e      	mov	r6, r3
     2e8:	f857 3035 	ldr.w	r3, [r7, r5, lsl #3]
     2ec:	e7d9      	b.n	2a2 <copy_param+0x10c>
/home/aom1/Work/Linux/target/STM32MP1-DK2/buildroot/buildroot/output/build/optee-os-custom/lib/libutee/tee_api.c:78
     2ee:	4806      	ldr	r0, [pc, #24]	; (308 <copy_param+0x172>)
     2f0:	e7ed      	b.n	2ce <copy_param+0x138>
/home/aom1/Work/Linux/target/STM32MP1-DK2/buildroot/buildroot/output/build/optee-os-custom/lib/libutee/tee_api.c:116
     2f2:	b007      	add	sp, #28
     2f4:	ecbd 8b02 	vpop	{d8}
     2f8:	e8bd 8ff0 	ldmia.w	sp!, {r4, r5, r6, r7, r8, r9, sl, fp, pc}
     2fc:	f3af 8000 	nop.w
	...
     308:	ffff000c 	.word	0xffff000c
     30c:	00009ed8 	.word	0x00009ed8
     310:	0000000c 	.word	0x0000000c
     314:	00009db2 	.word	0x00009db2

00000318 <TEE_OpenTASession>:
TEE_OpenTASession():
/home/aom1/Work/Linux/target/STM32MP1-DK2/buildroot/buildroot/output/build/optee-os-custom/lib/libutee/tee_api.c:154
     318:	e92d 4ff0 	stmdb	sp!, {r4, r5, r6, r7, r8, r9, sl, fp, lr}
     31c:	4614      	mov	r4, r2
     31e:	4a2c      	ldr	r2, [pc, #176]	; (3d0 <TEE_OpenTASession+0xb8>)
     320:	461d      	mov	r5, r3
     322:	4b2c      	ldr	r3, [pc, #176]	; (3d4 <TEE_OpenTASession+0xbc>)
     324:	b09f      	sub	sp, #124	; 0x7c
     326:	447a      	add	r2, pc
/home/aom1/Work/Linux/target/STM32MP1-DK2/buildroot/buildroot/output/build/optee-os-custom/lib/libutee/tee_api.c:160
     328:	ae06      	add	r6, sp, #24
/home/aom1/Work/Linux/target/STM32MP1-DK2/buildroot/buildroot/output/build/optee-os-custom/lib/libutee/tee_api.c:154
     32a:	4680      	mov	r8, r0
     32c:	4689      	mov	r9, r1
     32e:	58d3      	ldr	r3, [r2, r3]
/home/aom1/Work/Linux/target/STM32MP1-DK2/buildroot/buildroot/output/build/optee-os-custom/lib/libutee/tee_api.c:157
     330:	2100      	movs	r1, #0
/home/aom1/Work/Linux/target/STM32MP1-DK2/buildroot/buildroot/output/build/optee-os-custom/lib/libutee/tee_api.c:160
     332:	4630      	mov	r0, r6
     334:	2210      	movs	r2, #16
/home/aom1/Work/Linux/target/STM32MP1-DK2/buildroot/buildroot/output/build/optee-os-custom/lib/libutee/tee_api.c:154
     336:	681b      	ldr	r3, [r3, #0]
     338:	931d      	str	r3, [sp, #116]	; 0x74
     33a:	f04f 0300 	mov.w	r3, #0
     33e:	e9dd ab28 	ldrd	sl, fp, [sp, #160]	; 0xa0
/home/aom1/Work/Linux/target/STM32MP1-DK2/buildroot/buildroot/output/build/optee-os-custom/lib/libutee/tee_api.c:157
     342:	9103      	str	r1, [sp, #12]
/home/aom1/Work/Linux/target/STM32MP1-DK2/buildroot/buildroot/output/build/optee-os-custom/lib/libutee/tee_api.c:159
     344:	e9cd 1104 	strd	r1, r1, [sp, #16]
/home/aom1/Work/Linux/target/STM32MP1-DK2/buildroot/buildroot/output/build/optee-os-custom/lib/libutee/tee_api.c:160
     348:	f007 febe 	bl	80c8 <memset>
/home/aom1/Work/Linux/target/STM32MP1-DK2/buildroot/buildroot/output/build/optee-os-custom/lib/libutee/tee_api.c:162
     34c:	b11c      	cbz	r4, 356 <TEE_OpenTASession+0x3e>
/home/aom1/Work/Linux/target/STM32MP1-DK2/buildroot/buildroot/output/build/optee-os-custom/lib/libutee/tee_api.c:163
     34e:	2120      	movs	r1, #32
     350:	4628      	mov	r0, r5
     352:	f001 f9bc 	bl	16ce <__utee_check_inout_annotation>
/home/aom1/Work/Linux/target/STM32MP1-DK2/buildroot/buildroot/output/build/optee-os-custom/lib/libutee/tee_api.c:166
     356:	2104      	movs	r1, #4
     358:	4650      	mov	r0, sl
/home/aom1/Work/Linux/target/STM32MP1-DK2/buildroot/buildroot/output/build/optee-os-custom/lib/libutee/tee_api.c:168
     35a:	af0a      	add	r7, sp, #40	; 0x28
/home/aom1/Work/Linux/target/STM32MP1-DK2/buildroot/buildroot/output/build/optee-os-custom/lib/libutee/tee_api.c:166
     35c:	f001 f9a4 	bl	16a8 <__utee_check_out_annotation>
/home/aom1/Work/Linux/target/STM32MP1-DK2/buildroot/buildroot/output/build/optee-os-custom/lib/libutee/tee_api.c:168
     360:	9601      	str	r6, [sp, #4]
     362:	ab05      	add	r3, sp, #20
     364:	9300      	str	r3, [sp, #0]
     366:	4621      	mov	r1, r4
     368:	ab04      	add	r3, sp, #16
     36a:	462a      	mov	r2, r5
     36c:	4638      	mov	r0, r7
     36e:	f7ff ff12 	bl	196 <copy_param>
/home/aom1/Work/Linux/target/STM32MP1-DK2/buildroot/buildroot/output/build/optee-os-custom/lib/libutee/tee_api.c:169
     372:	4604      	mov	r4, r0
     374:	b9b0      	cbnz	r0, 3a4 <TEE_OpenTASession+0x8c>
/home/aom1/Work/Linux/target/STM32MP1-DK2/buildroot/buildroot/output/build/optee-os-custom/lib/libutee/tee_api.c:171
     376:	f8cd b000 	str.w	fp, [sp]
     37a:	ab03      	add	r3, sp, #12
     37c:	463a      	mov	r2, r7
     37e:	4649      	mov	r1, r9
     380:	4640      	mov	r0, r8
     382:	f001 ef1a 	blx	21b8 <_utee_open_ta_session>
     386:	4604      	mov	r4, r0
/home/aom1/Work/Linux/target/STM32MP1-DK2/buildroot/buildroot/output/build/optee-os-custom/lib/libutee/tee_api.c:173
     388:	463a      	mov	r2, r7
     38a:	4628      	mov	r0, r5
     38c:	4631      	mov	r1, r6
     38e:	f7ff fe47 	bl	20 <update_out_param>
/home/aom1/Work/Linux/target/STM32MP1-DK2/buildroot/buildroot/output/build/optee-os-custom/lib/libutee/tee_api.c:174
     392:	9804      	ldr	r0, [sp, #16]
     394:	b128      	cbz	r0, 3a2 <TEE_OpenTASession+0x8a>
/home/aom1/Work/Linux/target/STM32MP1-DK2/buildroot/buildroot/output/build/optee-os-custom/lib/libutee/tee_api.c:175
     396:	9905      	ldr	r1, [sp, #20]
     398:	f001 fe30 	bl	1ffc <tee_unmap>
/home/aom1/Work/Linux/target/STM32MP1-DK2/buildroot/buildroot/output/build/optee-os-custom/lib/libutee/tee_api.c:177
     39c:	b108      	cbz	r0, 3a2 <TEE_OpenTASession+0x8a>
/home/aom1/Work/Linux/target/STM32MP1-DK2/buildroot/buildroot/output/build/optee-os-custom/lib/libutee/tee_api.c:178
     39e:	f001 f941 	bl	1624 <TEE_Panic>
/home/aom1/Work/Linux/target/STM32MP1-DK2/buildroot/buildroot/output/build/optee-os-custom/lib/libutee/tee_api.c:187
     3a2:	b10c      	cbz	r4, 3a8 <TEE_OpenTASession+0x90>
/home/aom1/Work/Linux/target/STM32MP1-DK2/buildroot/buildroot/output/build/optee-os-custom/lib/libutee/tee_api.c:188
     3a4:	2300      	movs	r3, #0
     3a6:	9303      	str	r3, [sp, #12]
/home/aom1/Work/Linux/target/STM32MP1-DK2/buildroot/buildroot/output/build/optee-os-custom/lib/libutee/tee_api.c:190
     3a8:	9b03      	ldr	r3, [sp, #12]
/home/aom1/Work/Linux/target/STM32MP1-DK2/buildroot/buildroot/output/build/optee-os-custom/lib/libutee/tee_api.c:154
     3aa:	4a0b      	ldr	r2, [pc, #44]	; (3d8 <TEE_OpenTASession+0xc0>)
/home/aom1/Work/Linux/target/STM32MP1-DK2/buildroot/buildroot/output/build/optee-os-custom/lib/libutee/tee_api.c:190
     3ac:	f8ca 3000 	str.w	r3, [sl]
/home/aom1/Work/Linux/target/STM32MP1-DK2/buildroot/buildroot/output/build/optee-os-custom/lib/libutee/tee_api.c:154
     3b0:	447a      	add	r2, pc
/home/aom1/Work/Linux/target/STM32MP1-DK2/buildroot/buildroot/output/build/optee-os-custom/lib/libutee/tee_api.c:192
     3b2:	4b08      	ldr	r3, [pc, #32]	; (3d4 <TEE_OpenTASession+0xbc>)
     3b4:	58d3      	ldr	r3, [r2, r3]
     3b6:	681a      	ldr	r2, [r3, #0]
     3b8:	9b1d      	ldr	r3, [sp, #116]	; 0x74
     3ba:	405a      	eors	r2, r3
     3bc:	f04f 0300 	mov.w	r3, #0
     3c0:	d001      	beq.n	3c6 <TEE_OpenTASession+0xae>
     3c2:	f007 fe80 	bl	80c6 <__stack_chk_fail>
     3c6:	4620      	mov	r0, r4
     3c8:	b01f      	add	sp, #124	; 0x7c
     3ca:	e8bd 8ff0 	ldmia.w	sp!, {r4, r5, r6, r7, r8, r9, sl, fp, pc}
     3ce:	bf00      	nop
     3d0:	00009d5e 	.word	0x00009d5e
     3d4:	0000000c 	.word	0x0000000c
     3d8:	00009cd4 	.word	0x00009cd4

000003dc <TEE_InvokeTACommand>:
TEE_InvokeTACommand():
/home/aom1/Work/Linux/target/STM32MP1-DK2/buildroot/buildroot/output/build/optee-os-custom/lib/libutee/tee_api.c:209
     3dc:	e92d 4ff0 	stmdb	sp!, {r4, r5, r6, r7, r8, r9, sl, fp, lr}
     3e0:	4693      	mov	fp, r2
     3e2:	4a34      	ldr	r2, [pc, #208]	; (4b4 <TEE_InvokeTACommand+0xd8>)
     3e4:	461c      	mov	r4, r3
     3e6:	4b34      	ldr	r3, [pc, #208]	; (4b8 <TEE_InvokeTACommand+0xdc>)
     3e8:	b09f      	sub	sp, #124	; 0x7c
     3ea:	447a      	add	r2, pc
/home/aom1/Work/Linux/target/STM32MP1-DK2/buildroot/buildroot/output/build/optee-os-custom/lib/libutee/tee_api.c:215
     3ec:	af06      	add	r7, sp, #24
/home/aom1/Work/Linux/target/STM32MP1-DK2/buildroot/buildroot/output/build/optee-os-custom/lib/libutee/tee_api.c:209
     3ee:	4681      	mov	r9, r0
     3f0:	468a      	mov	sl, r1
     3f2:	58d3      	ldr	r3, [r2, r3]
/home/aom1/Work/Linux/target/STM32MP1-DK2/buildroot/buildroot/output/build/optee-os-custom/lib/libutee/tee_api.c:213
     3f4:	2100      	movs	r1, #0
/home/aom1/Work/Linux/target/STM32MP1-DK2/buildroot/buildroot/output/build/optee-os-custom/lib/libutee/tee_api.c:215
     3f6:	4638      	mov	r0, r7
     3f8:	2210      	movs	r2, #16
/home/aom1/Work/Linux/target/STM32MP1-DK2/buildroot/buildroot/output/build/optee-os-custom/lib/libutee/tee_api.c:209
     3fa:	681b      	ldr	r3, [r3, #0]
     3fc:	931d      	str	r3, [sp, #116]	; 0x74
     3fe:	f04f 0300 	mov.w	r3, #0
/home/aom1/Work/Linux/target/STM32MP1-DK2/buildroot/buildroot/output/build/optee-os-custom/lib/libutee/tee_api.c:211
     402:	2303      	movs	r3, #3
/home/aom1/Work/Linux/target/STM32MP1-DK2/buildroot/buildroot/output/build/optee-os-custom/lib/libutee/tee_api.c:209
     404:	e9dd 6528 	ldrd	r6, r5, [sp, #160]	; 0xa0
/home/aom1/Work/Linux/target/STM32MP1-DK2/buildroot/buildroot/output/build/optee-os-custom/lib/libutee/tee_api.c:211
     408:	9303      	str	r3, [sp, #12]
/home/aom1/Work/Linux/target/STM32MP1-DK2/buildroot/buildroot/output/build/optee-os-custom/lib/libutee/tee_api.c:214
     40a:	e9cd 1104 	strd	r1, r1, [sp, #16]
/home/aom1/Work/Linux/target/STM32MP1-DK2/buildroot/buildroot/output/build/optee-os-custom/lib/libutee/tee_api.c:215
     40e:	f007 fe5b 	bl	80c8 <memset>
/home/aom1/Work/Linux/target/STM32MP1-DK2/buildroot/buildroot/output/build/optee-os-custom/lib/libutee/tee_api.c:217
     412:	b11c      	cbz	r4, 41c <TEE_InvokeTACommand+0x40>
/home/aom1/Work/Linux/target/STM32MP1-DK2/buildroot/buildroot/output/build/optee-os-custom/lib/libutee/tee_api.c:218
     414:	2120      	movs	r1, #32
     416:	4630      	mov	r0, r6
     418:	f001 f959 	bl	16ce <__utee_check_inout_annotation>
/home/aom1/Work/Linux/target/STM32MP1-DK2/buildroot/buildroot/output/build/optee-os-custom/lib/libutee/tee_api.c:221
     41c:	b11d      	cbz	r5, 426 <TEE_InvokeTACommand+0x4a>
/home/aom1/Work/Linux/target/STM32MP1-DK2/buildroot/buildroot/output/build/optee-os-custom/lib/libutee/tee_api.c:222
     41e:	2104      	movs	r1, #4
     420:	4628      	mov	r0, r5
     422:	f001 f941 	bl	16a8 <__utee_check_out_annotation>
/home/aom1/Work/Linux/target/STM32MP1-DK2/buildroot/buildroot/output/build/optee-os-custom/lib/libutee/tee_api.c:225
     426:	9701      	str	r7, [sp, #4]
     428:	ab05      	add	r3, sp, #20
     42a:	9300      	str	r3, [sp, #0]
     42c:	f10d 0828 	add.w	r8, sp, #40	; 0x28
     430:	4621      	mov	r1, r4
     432:	ab04      	add	r3, sp, #16
     434:	4632      	mov	r2, r6
     436:	4640      	mov	r0, r8
     438:	f7ff fead 	bl	196 <copy_param>
/home/aom1/Work/Linux/target/STM32MP1-DK2/buildroot/buildroot/output/build/optee-os-custom/lib/libutee/tee_api.c:226
     43c:	4604      	mov	r4, r0
     43e:	b9a8      	cbnz	r0, 46c <TEE_InvokeTACommand+0x90>
/home/aom1/Work/Linux/target/STM32MP1-DK2/buildroot/buildroot/output/build/optee-os-custom/lib/libutee/tee_api.c:228
     440:	ab03      	add	r3, sp, #12
     442:	465a      	mov	r2, fp
     444:	9300      	str	r3, [sp, #0]
     446:	4651      	mov	r1, sl
     448:	4643      	mov	r3, r8
     44a:	4648      	mov	r0, r9
     44c:	f001 eeca 	blx	21e4 <_utee_invoke_ta_command>
     450:	4604      	mov	r4, r0
/home/aom1/Work/Linux/target/STM32MP1-DK2/buildroot/buildroot/output/build/optee-os-custom/lib/libutee/tee_api.c:231
     452:	4642      	mov	r2, r8
     454:	4630      	mov	r0, r6
     456:	4639      	mov	r1, r7
     458:	f7ff fde2 	bl	20 <update_out_param>
/home/aom1/Work/Linux/target/STM32MP1-DK2/buildroot/buildroot/output/build/optee-os-custom/lib/libutee/tee_api.c:232
     45c:	9804      	ldr	r0, [sp, #16]
     45e:	b128      	cbz	r0, 46c <TEE_InvokeTACommand+0x90>
/home/aom1/Work/Linux/target/STM32MP1-DK2/buildroot/buildroot/output/build/optee-os-custom/lib/libutee/tee_api.c:233
     460:	9905      	ldr	r1, [sp, #20]
     462:	f001 fdcb 	bl	1ffc <tee_unmap>
/home/aom1/Work/Linux/target/STM32MP1-DK2/buildroot/buildroot/output/build/optee-os-custom/lib/libutee/tee_api.c:235
     466:	b108      	cbz	r0, 46c <TEE_InvokeTACommand+0x90>
/home/aom1/Work/Linux/target/STM32MP1-DK2/buildroot/buildroot/output/build/optee-os-custom/lib/libutee/tee_api.c:236
     468:	f001 f8dc 	bl	1624 <TEE_Panic>
/home/aom1/Work/Linux/target/STM32MP1-DK2/buildroot/buildroot/output/build/optee-os-custom/lib/libutee/tee_api.c:241
     46c:	9b03      	ldr	r3, [sp, #12]
/home/aom1/Work/Linux/target/STM32MP1-DK2/buildroot/buildroot/output/build/optee-os-custom/lib/libutee/tee_api.c:240
     46e:	b105      	cbz	r5, 472 <TEE_InvokeTACommand+0x96>
/home/aom1/Work/Linux/target/STM32MP1-DK2/buildroot/buildroot/output/build/optee-os-custom/lib/libutee/tee_api.c:241
     470:	602b      	str	r3, [r5, #0]
/home/aom1/Work/Linux/target/STM32MP1-DK2/buildroot/buildroot/output/build/optee-os-custom/lib/libutee/tee_api.c:243
     472:	2b04      	cmp	r3, #4
     474:	d009      	beq.n	48a <TEE_InvokeTACommand+0xae>
/home/aom1/Work/Linux/target/STM32MP1-DK2/buildroot/buildroot/output/build/optee-os-custom/lib/libutee/tee_api.c:246
     476:	b144      	cbz	r4, 48a <TEE_InvokeTACommand+0xae>
/home/aom1/Work/Linux/target/STM32MP1-DK2/buildroot/buildroot/output/build/optee-os-custom/lib/libutee/tee_api.c:246 (discriminator 1)
     478:	4b0c      	ldr	r3, [pc, #48]	; (4ac <TEE_InvokeTACommand+0xd0>)
     47a:	429c      	cmp	r4, r3
     47c:	d005      	beq.n	48a <TEE_InvokeTACommand+0xae>
/home/aom1/Work/Linux/target/STM32MP1-DK2/buildroot/buildroot/output/build/optee-os-custom/lib/libutee/tee_api.c:247
     47e:	4b0c      	ldr	r3, [pc, #48]	; (4b0 <TEE_InvokeTACommand+0xd4>)
     480:	429c      	cmp	r4, r3
     482:	d002      	beq.n	48a <TEE_InvokeTACommand+0xae>
/home/aom1/Work/Linux/target/STM32MP1-DK2/buildroot/buildroot/output/build/optee-os-custom/lib/libutee/tee_api.c:249
     484:	4620      	mov	r0, r4
     486:	f001 f8cd 	bl	1624 <TEE_Panic>
/home/aom1/Work/Linux/target/STM32MP1-DK2/buildroot/buildroot/output/build/optee-os-custom/lib/libutee/tee_api.c:209
     48a:	4a0c      	ldr	r2, [pc, #48]	; (4bc <TEE_InvokeTACommand+0xe0>)
/home/aom1/Work/Linux/target/STM32MP1-DK2/buildroot/buildroot/output/build/optee-os-custom/lib/libutee/tee_api.c:252
     48c:	4b0a      	ldr	r3, [pc, #40]	; (4b8 <TEE_InvokeTACommand+0xdc>)
/home/aom1/Work/Linux/target/STM32MP1-DK2/buildroot/buildroot/output/build/optee-os-custom/lib/libutee/tee_api.c:209
     48e:	447a      	add	r2, pc
/home/aom1/Work/Linux/target/STM32MP1-DK2/buildroot/buildroot/output/build/optee-os-custom/lib/libutee/tee_api.c:252
     490:	58d3      	ldr	r3, [r2, r3]
     492:	681a      	ldr	r2, [r3, #0]
     494:	9b1d      	ldr	r3, [sp, #116]	; 0x74
     496:	405a      	eors	r2, r3
     498:	f04f 0300 	mov.w	r3, #0
     49c:	d001      	beq.n	4a2 <TEE_InvokeTACommand+0xc6>
     49e:	f007 fe12 	bl	80c6 <__stack_chk_fail>
     4a2:	4620      	mov	r0, r4
     4a4:	b01f      	add	sp, #124	; 0x7c
     4a6:	e8bd 8ff0 	ldmia.w	sp!, {r4, r5, r6, r7, r8, r9, sl, fp, pc}
     4aa:	bf00      	nop
     4ac:	ffff000c 	.word	0xffff000c
     4b0:	ffff3024 	.word	0xffff3024
     4b4:	00009c9a 	.word	0x00009c9a
     4b8:	0000000c 	.word	0x0000000c
     4bc:	00009bf6 	.word	0x00009bf6

000004c0 <TEE_SetInstanceData>:
TEE_SetInstanceData():
/home/aom1/Work/Linux/target/STM32MP1-DK2/buildroot/buildroot/output/build/optee-os-custom/lib/libutee/tee_api.c:313
     4c0:	4b01      	ldr	r3, [pc, #4]	; (4c8 <TEE_SetInstanceData+0x8>)
     4c2:	447b      	add	r3, pc
     4c4:	6018      	str	r0, [r3, #0]
/home/aom1/Work/Linux/target/STM32MP1-DK2/buildroot/buildroot/output/build/optee-os-custom/lib/libutee/tee_api.c:314
     4c6:	4770      	bx	lr
     4c8:	00009e92 	.word	0x00009e92

000004cc <TEE_GetInstanceData>:
TEE_GetInstanceData():
/home/aom1/Work/Linux/target/STM32MP1-DK2/buildroot/buildroot/output/build/optee-os-custom/lib/libutee/tee_api.c:319
     4cc:	4b01      	ldr	r3, [pc, #4]	; (4d4 <TEE_GetInstanceData+0x8>)
     4ce:	447b      	add	r3, pc
     4d0:	6818      	ldr	r0, [r3, #0]
     4d2:	4770      	bx	lr
     4d4:	00009e86 	.word	0x00009e86

000004d8 <TEE_MemMove>:
TEE_MemMove():
/home/aom1/Work/Linux/target/STM32MP1-DK2/buildroot/buildroot/output/build/optee-os-custom/lib/libutee/tee_api.c:323
     4d8:	f007 be14 	b.w	8104 <memmove>

000004dc <TEE_MemCompare>:
TEE_MemCompare():
/home/aom1/Work/Linux/target/STM32MP1-DK2/buildroot/buildroot/output/build/optee-os-custom/lib/libutee/tee_api.c:328
     4dc:	f007 be4c 	b.w	8178 <consttime_memcmp>

000004e0 <TEE_MemFill>:
TEE_MemFill():
/home/aom1/Work/Linux/target/STM32MP1-DK2/buildroot/buildroot/output/build/optee-os-custom/lib/libutee/tee_api.c:333
     4e0:	f007 bdf2 	b.w	80c8 <memset>

000004e4 <TEE_GetSystemTime>:
TEE_GetSystemTime():
/home/aom1/Work/Linux/target/STM32MP1-DK2/buildroot/buildroot/output/build/optee-os-custom/lib/libutee/tee_api.c:339
     4e4:	4601      	mov	r1, r0
/home/aom1/Work/Linux/target/STM32MP1-DK2/buildroot/buildroot/output/build/optee-os-custom/lib/libutee/tee_api.c:340
     4e6:	2000      	movs	r0, #0
/home/aom1/Work/Linux/target/STM32MP1-DK2/buildroot/buildroot/output/build/optee-os-custom/lib/libutee/tee_api.c:339
     4e8:	b508      	push	{r3, lr}
/home/aom1/Work/Linux/target/STM32MP1-DK2/buildroot/buildroot/output/build/optee-os-custom/lib/libutee/tee_api.c:340
     4ea:	f001 eeba 	blx	2260 <_utee_get_time>
/home/aom1/Work/Linux/target/STM32MP1-DK2/buildroot/buildroot/output/build/optee-os-custom/lib/libutee/tee_api.c:342
     4ee:	b118      	cbz	r0, 4f8 <TEE_GetSystemTime+0x14>
/home/aom1/Work/Linux/target/STM32MP1-DK2/buildroot/buildroot/output/build/optee-os-custom/lib/libutee/tee_api.c:344
     4f0:	e8bd 4008 	ldmia.w	sp!, {r3, lr}
/home/aom1/Work/Linux/target/STM32MP1-DK2/buildroot/buildroot/output/build/optee-os-custom/lib/libutee/tee_api.c:343
     4f4:	f001 b896 	b.w	1624 <TEE_Panic>
/home/aom1/Work/Linux/target/STM32MP1-DK2/buildroot/buildroot/output/build/optee-os-custom/lib/libutee/tee_api.c:344
     4f8:	bd08      	pop	{r3, pc}

000004fa <TEE_Wait>:
TEE_Wait():
/home/aom1/Work/Linux/target/STM32MP1-DK2/buildroot/buildroot/output/build/optee-os-custom/lib/libutee/tee_api.c:347
     4fa:	b510      	push	{r4, lr}
/home/aom1/Work/Linux/target/STM32MP1-DK2/buildroot/buildroot/output/build/optee-os-custom/lib/libutee/tee_api.c:348
     4fc:	f001 eea6 	blx	224c <_utee_wait>
/home/aom1/Work/Linux/target/STM32MP1-DK2/buildroot/buildroot/output/build/optee-os-custom/lib/libutee/tee_api.c:350
     500:	4604      	mov	r4, r0
     502:	b120      	cbz	r0, 50e <TEE_Wait+0x14>
/home/aom1/Work/Linux/target/STM32MP1-DK2/buildroot/buildroot/output/build/optee-os-custom/lib/libutee/tee_api.c:350 (discriminator 1)
     504:	4b03      	ldr	r3, [pc, #12]	; (514 <TEE_Wait+0x1a>)
     506:	4298      	cmp	r0, r3
     508:	d001      	beq.n	50e <TEE_Wait+0x14>
/home/aom1/Work/Linux/target/STM32MP1-DK2/buildroot/buildroot/output/build/optee-os-custom/lib/libutee/tee_api.c:351
     50a:	f001 f88b 	bl	1624 <TEE_Panic>
/home/aom1/Work/Linux/target/STM32MP1-DK2/buildroot/buildroot/output/build/optee-os-custom/lib/libutee/tee_api.c:354
     50e:	4620      	mov	r0, r4
     510:	bd10      	pop	{r4, pc}
     512:	bf00      	nop
     514:	ffff0002 	.word	0xffff0002

00000518 <TEE_GetTAPersistentTime>:
TEE_GetTAPersistentTime():
/home/aom1/Work/Linux/target/STM32MP1-DK2/buildroot/buildroot/output/build/optee-os-custom/lib/libutee/tee_api.c:357
     518:	b538      	push	{r3, r4, r5, lr}
/home/aom1/Work/Linux/target/STM32MP1-DK2/buildroot/buildroot/output/build/optee-os-custom/lib/libutee/tee_api.c:360
     51a:	4601      	mov	r1, r0
/home/aom1/Work/Linux/target/STM32MP1-DK2/buildroot/buildroot/output/build/optee-os-custom/lib/libutee/tee_api.c:357
     51c:	4605      	mov	r5, r0
/home/aom1/Work/Linux/target/STM32MP1-DK2/buildroot/buildroot/output/build/optee-os-custom/lib/libutee/tee_api.c:360
     51e:	2001      	movs	r0, #1
     520:	f001 ee9e 	blx	2260 <_utee_get_time>
/home/aom1/Work/Linux/target/STM32MP1-DK2/buildroot/buildroot/output/build/optee-os-custom/lib/libutee/tee_api.c:362
     524:	4604      	mov	r4, r0
     526:	b170      	cbz	r0, 546 <TEE_GetTAPersistentTime+0x2e>
/home/aom1/Work/Linux/target/STM32MP1-DK2/buildroot/buildroot/output/build/optee-os-custom/lib/libutee/tee_api.c:362 (discriminator 1)
     528:	4b08      	ldr	r3, [pc, #32]	; (54c <TEE_GetTAPersistentTime+0x34>)
     52a:	4298      	cmp	r0, r3
     52c:	d00b      	beq.n	546 <TEE_GetTAPersistentTime+0x2e>
/home/aom1/Work/Linux/target/STM32MP1-DK2/buildroot/buildroot/output/build/optee-os-custom/lib/libutee/tee_api.c:363
     52e:	2300      	movs	r3, #0
     530:	602b      	str	r3, [r5, #0]
/home/aom1/Work/Linux/target/STM32MP1-DK2/buildroot/buildroot/output/build/optee-os-custom/lib/libutee/tee_api.c:364
     532:	606b      	str	r3, [r5, #4]
/home/aom1/Work/Linux/target/STM32MP1-DK2/buildroot/buildroot/output/build/optee-os-custom/lib/libutee/tee_api.c:367
     534:	f500 4330 	add.w	r3, r0, #45056	; 0xb000
     538:	2b01      	cmp	r3, #1
     53a:	d904      	bls.n	546 <TEE_GetTAPersistentTime+0x2e>
/home/aom1/Work/Linux/target/STM32MP1-DK2/buildroot/buildroot/output/build/optee-os-custom/lib/libutee/tee_api.c:370
     53c:	4b04      	ldr	r3, [pc, #16]	; (550 <TEE_GetTAPersistentTime+0x38>)
     53e:	4298      	cmp	r0, r3
     540:	d001      	beq.n	546 <TEE_GetTAPersistentTime+0x2e>
/home/aom1/Work/Linux/target/STM32MP1-DK2/buildroot/buildroot/output/build/optee-os-custom/lib/libutee/tee_api.c:372
     542:	f001 f86f 	bl	1624 <TEE_Panic>
/home/aom1/Work/Linux/target/STM32MP1-DK2/buildroot/buildroot/output/build/optee-os-custom/lib/libutee/tee_api.c:375
     546:	4620      	mov	r0, r4
     548:	bd38      	pop	{r3, r4, r5, pc}
     54a:	bf00      	nop
     54c:	ffff300f 	.word	0xffff300f
     550:	ffff000c 	.word	0xffff000c

00000554 <TEE_SetTAPersistentTime>:
TEE_SetTAPersistentTime():
/home/aom1/Work/Linux/target/STM32MP1-DK2/buildroot/buildroot/output/build/optee-os-custom/lib/libutee/tee_api.c:378
     554:	b510      	push	{r4, lr}
/home/aom1/Work/Linux/target/STM32MP1-DK2/buildroot/buildroot/output/build/optee-os-custom/lib/libutee/tee_api.c:381
     556:	f001 ee8e 	blx	2274 <_utee_set_ta_time>
/home/aom1/Work/Linux/target/STM32MP1-DK2/buildroot/buildroot/output/build/optee-os-custom/lib/libutee/tee_api.c:383
     55a:	4604      	mov	r4, r0
     55c:	b138      	cbz	r0, 56e <TEE_SetTAPersistentTime+0x1a>
/home/aom1/Work/Linux/target/STM32MP1-DK2/buildroot/buildroot/output/build/optee-os-custom/lib/libutee/tee_api.c:383 (discriminator 1)
     55e:	4b05      	ldr	r3, [pc, #20]	; (574 <TEE_SetTAPersistentTime+0x20>)
     560:	4298      	cmp	r0, r3
     562:	d004      	beq.n	56e <TEE_SetTAPersistentTime+0x1a>
/home/aom1/Work/Linux/target/STM32MP1-DK2/buildroot/buildroot/output/build/optee-os-custom/lib/libutee/tee_api.c:384
     564:	4b04      	ldr	r3, [pc, #16]	; (578 <TEE_SetTAPersistentTime+0x24>)
     566:	4298      	cmp	r0, r3
     568:	d001      	beq.n	56e <TEE_SetTAPersistentTime+0x1a>
/home/aom1/Work/Linux/target/STM32MP1-DK2/buildroot/buildroot/output/build/optee-os-custom/lib/libutee/tee_api.c:386
     56a:	f001 f85b 	bl	1624 <TEE_Panic>
/home/aom1/Work/Linux/target/STM32MP1-DK2/buildroot/buildroot/output/build/optee-os-custom/lib/libutee/tee_api.c:389
     56e:	4620      	mov	r0, r4
     570:	bd10      	pop	{r4, pc}
     572:	bf00      	nop
     574:	ffff000c 	.word	0xffff000c
     578:	ffff3041 	.word	0xffff3041

0000057c <TEE_GetREETime>:
TEE_GetREETime():
/home/aom1/Work/Linux/target/STM32MP1-DK2/buildroot/buildroot/output/build/optee-os-custom/lib/libutee/tee_api.c:392
     57c:	4601      	mov	r1, r0
/home/aom1/Work/Linux/target/STM32MP1-DK2/buildroot/buildroot/output/build/optee-os-custom/lib/libutee/tee_api.c:393
     57e:	2002      	movs	r0, #2
/home/aom1/Work/Linux/target/STM32MP1-DK2/buildroot/buildroot/output/build/optee-os-custom/lib/libutee/tee_api.c:392
     580:	b508      	push	{r3, lr}
/home/aom1/Work/Linux/target/STM32MP1-DK2/buildroot/buildroot/output/build/optee-os-custom/lib/libutee/tee_api.c:393
     582:	f001 ee6e 	blx	2260 <_utee_get_time>
/home/aom1/Work/Linux/target/STM32MP1-DK2/buildroot/buildroot/output/build/optee-os-custom/lib/libutee/tee_api.c:395
     586:	b118      	cbz	r0, 590 <TEE_GetREETime+0x14>
/home/aom1/Work/Linux/target/STM32MP1-DK2/buildroot/buildroot/output/build/optee-os-custom/lib/libutee/tee_api.c:397
     588:	e8bd 4008 	ldmia.w	sp!, {r3, lr}
/home/aom1/Work/Linux/target/STM32MP1-DK2/buildroot/buildroot/output/build/optee-os-custom/lib/libutee/tee_api.c:396
     58c:	f001 b84a 	b.w	1624 <TEE_Panic>
/home/aom1/Work/Linux/target/STM32MP1-DK2/buildroot/buildroot/output/build/optee-os-custom/lib/libutee/tee_api.c:397
     590:	bd08      	pop	{r3, pc}

00000592 <TEE_Malloc>:
TEE_Malloc():
/home/aom1/Work/Linux/target/STM32MP1-DK2/buildroot/buildroot/output/build/optee-os-custom/lib/libutee/tee_api.c:400
     592:	460b      	mov	r3, r1
     594:	b507      	push	{r0, r1, r2, lr}
/home/aom1/Work/Linux/target/STM32MP1-DK2/buildroot/buildroot/output/build/optee-os-custom/lib/libutee/tee_api.c:401
     596:	4601      	mov	r1, r0
     598:	b1f0      	cbz	r0, 5d8 <TEE_Malloc+0x46>
/home/aom1/Work/Linux/target/STM32MP1-DK2/buildroot/buildroot/output/build/optee-os-custom/lib/libutee/tee_api.c:404
     59a:	b92b      	cbnz	r3, 5a8 <TEE_Malloc+0x16>
/home/aom1/Work/Linux/target/STM32MP1-DK2/buildroot/buildroot/output/build/optee-os-custom/lib/libutee/tee_api.c:405
     59c:	2001      	movs	r0, #1
/home/aom1/Work/Linux/target/STM32MP1-DK2/buildroot/buildroot/output/build/optee-os-custom/lib/libutee/tee_api.c:412
     59e:	b003      	add	sp, #12
     5a0:	f85d eb04 	ldr.w	lr, [sp], #4
/home/aom1/Work/Linux/target/STM32MP1-DK2/buildroot/buildroot/output/build/optee-os-custom/lib/libutee/tee_api.c:405
     5a4:	f007 bb76 	b.w	7c94 <calloc>
/home/aom1/Work/Linux/target/STM32MP1-DK2/buildroot/buildroot/output/build/optee-os-custom/lib/libutee/tee_api.c:406
     5a8:	f1b3 4f00 	cmp.w	r3, #2147483648	; 0x80000000
     5ac:	d104      	bne.n	5b8 <TEE_Malloc+0x26>
/home/aom1/Work/Linux/target/STM32MP1-DK2/buildroot/buildroot/output/build/optee-os-custom/lib/libutee/tee_api.c:412
     5ae:	b003      	add	sp, #12
     5b0:	f85d eb04 	ldr.w	lr, [sp], #4
/home/aom1/Work/Linux/target/STM32MP1-DK2/buildroot/buildroot/output/build/optee-os-custom/lib/libutee/tee_api.c:407
     5b4:	f007 bb64 	b.w	7c80 <malloc>
/home/aom1/Work/Linux/target/STM32MP1-DK2/buildroot/buildroot/output/build/optee-os-custom/lib/libutee/tee_api.c:409
     5b8:	9301      	str	r3, [sp, #4]
     5ba:	f240 1199 	movw	r1, #409	; 0x199
     5be:	4b07      	ldr	r3, [pc, #28]	; (5dc <TEE_Malloc+0x4a>)
     5c0:	4807      	ldr	r0, [pc, #28]	; (5e0 <TEE_Malloc+0x4e>)
     5c2:	447b      	add	r3, pc
     5c4:	9300      	str	r3, [sp, #0]
     5c6:	2301      	movs	r3, #1
     5c8:	4478      	add	r0, pc
     5ca:	461a      	mov	r2, r3
     5cc:	f000 fa70 	bl	ab0 <trace_printf>
/home/aom1/Work/Linux/target/STM32MP1-DK2/buildroot/buildroot/output/build/optee-os-custom/lib/libutee/tee_api.c:411
     5d0:	2000      	movs	r0, #0
/home/aom1/Work/Linux/target/STM32MP1-DK2/buildroot/buildroot/output/build/optee-os-custom/lib/libutee/tee_api.c:412
     5d2:	b003      	add	sp, #12
     5d4:	f85d fb04 	ldr.w	pc, [sp], #4
/home/aom1/Work/Linux/target/STM32MP1-DK2/buildroot/buildroot/output/build/optee-os-custom/lib/libutee/tee_api.c:402
     5d8:	2001      	movs	r0, #1
     5da:	e7fa      	b.n	5d2 <TEE_Malloc+0x40>
     5dc:	000080cd 	.word	0x000080cd
     5e0:	000080d8 	.word	0x000080d8

000005e4 <TEE_Free>:
TEE_Free():
/home/aom1/Work/Linux/target/STM32MP1-DK2/buildroot/buildroot/output/build/optee-os-custom/lib/libutee/tee_api.c:429
     5e4:	2801      	cmp	r0, #1
     5e6:	d001      	beq.n	5ec <TEE_Free+0x8>
/home/aom1/Work/Linux/target/STM32MP1-DK2/buildroot/buildroot/output/build/optee-os-custom/lib/libutee/tee_api.c:430
     5e8:	f007 bb82 	b.w	7cf0 <free>
/home/aom1/Work/Linux/target/STM32MP1-DK2/buildroot/buildroot/output/build/optee-os-custom/lib/libutee/tee_api.c:431
     5ec:	4770      	bx	lr

000005ee <TEE_Realloc>:
TEE_Realloc():
/home/aom1/Work/Linux/target/STM32MP1-DK2/buildroot/buildroot/output/build/optee-os-custom/lib/libutee/tee_api.c:415
     5ee:	b508      	push	{r3, lr}
/home/aom1/Work/Linux/target/STM32MP1-DK2/buildroot/buildroot/output/build/optee-os-custom/lib/libutee/tee_api.c:416
     5f0:	b149      	cbz	r1, 606 <TEE_Realloc+0x18>
/home/aom1/Work/Linux/target/STM32MP1-DK2/buildroot/buildroot/output/build/optee-os-custom/lib/libutee/tee_api.c:421
     5f2:	2801      	cmp	r0, #1
     5f4:	d103      	bne.n	5fe <TEE_Realloc+0x10>
/home/aom1/Work/Linux/target/STM32MP1-DK2/buildroot/buildroot/output/build/optee-os-custom/lib/libutee/tee_api.c:425
     5f6:	e8bd 4008 	ldmia.w	sp!, {r3, lr}
/home/aom1/Work/Linux/target/STM32MP1-DK2/buildroot/buildroot/output/build/optee-os-custom/lib/libutee/tee_api.c:422
     5fa:	f007 bb4b 	b.w	7c94 <calloc>
/home/aom1/Work/Linux/target/STM32MP1-DK2/buildroot/buildroot/output/build/optee-os-custom/lib/libutee/tee_api.c:425
     5fe:	e8bd 4008 	ldmia.w	sp!, {r3, lr}
/home/aom1/Work/Linux/target/STM32MP1-DK2/buildroot/buildroot/output/build/optee-os-custom/lib/libutee/tee_api.c:424
     602:	f007 bb57 	b.w	7cb4 <realloc>
/home/aom1/Work/Linux/target/STM32MP1-DK2/buildroot/buildroot/output/build/optee-os-custom/lib/libutee/tee_api.c:417
     606:	f7ff ffed 	bl	5e4 <TEE_Free>
/home/aom1/Work/Linux/target/STM32MP1-DK2/buildroot/buildroot/output/build/optee-os-custom/lib/libutee/tee_api.c:425
     60a:	2001      	movs	r0, #1
     60c:	bd08      	pop	{r3, pc}

0000060e <TEE_CacheClean>:
TEE_CacheClean():
/home/aom1/Work/Linux/target/STM32MP1-DK2/buildroot/buildroot/output/build/optee-os-custom/lib/libutee/tee_api.c:436
     60e:	2200      	movs	r2, #0
     610:	f007 bde6 	b.w	81e0 <___utee_cache_operation_from_thumb>

00000614 <TEE_CacheFlush>:
TEE_CacheFlush():
/home/aom1/Work/Linux/target/STM32MP1-DK2/buildroot/buildroot/output/build/optee-os-custom/lib/libutee/tee_api.c:440
     614:	2201      	movs	r2, #1
     616:	f007 bde3 	b.w	81e0 <___utee_cache_operation_from_thumb>

0000061a <TEE_CacheInvalidate>:
TEE_CacheInvalidate():
/home/aom1/Work/Linux/target/STM32MP1-DK2/buildroot/buildroot/output/build/optee-os-custom/lib/libutee/tee_api.c:445
     61a:	2202      	movs	r2, #2
     61c:	f007 bde0 	b.w	81e0 <___utee_cache_operation_from_thumb>

00000620 <TA_CreateEntryPoint>:
TA_CreateEntryPoint():
/home/aom1/Work/Linux/target/STM32MP1-DK2/buildroot/buildroot/output/build/optee-os-custom/ta/stm32mp_nvmem/ta_stm32mp_nvmem.c:184
     620:	2000      	movs	r0, #0
     622:	4770      	bx	lr

00000624 <TA_DestroyEntryPoint>:
TA_DestroyEntryPoint():
/home/aom1/Work/Linux/target/STM32MP1-DK2/buildroot/buildroot/output/build/optee-os-custom/ta/stm32mp_nvmem/ta_stm32mp_nvmem.c:188
     624:	4770      	bx	lr

00000626 <TA_OpenSessionEntryPoint>:
TA_OpenSessionEntryPoint():
/home/aom1/Work/Linux/target/STM32MP1-DK2/buildroot/buildroot/output/build/optee-os-custom/ta/stm32mp_nvmem/ta_stm32mp_nvmem.c:193
     626:	4a2a      	ldr	r2, [pc, #168]	; (6d0 <TA_OpenSessionEntryPoint+0xaa>)
/home/aom1/Work/Linux/target/STM32MP1-DK2/buildroot/buildroot/output/build/optee-os-custom/ta/stm32mp_nvmem/ta_stm32mp_nvmem.c:196
     628:	2100      	movs	r1, #0
/home/aom1/Work/Linux/target/STM32MP1-DK2/buildroot/buildroot/output/build/optee-os-custom/ta/stm32mp_nvmem/ta_stm32mp_nvmem.c:193
     62a:	4b2a      	ldr	r3, [pc, #168]	; (6d4 <TA_OpenSessionEntryPoint+0xae>)
     62c:	447a      	add	r2, pc
     62e:	b530      	push	{r4, r5, lr}
     630:	b08b      	sub	sp, #44	; 0x2c
     632:	58d3      	ldr	r3, [r2, r3]
/home/aom1/Work/Linux/target/STM32MP1-DK2/buildroot/buildroot/output/build/optee-os-custom/ta/stm32mp_nvmem/ta_stm32mp_nvmem.c:197
     634:	ad04      	add	r5, sp, #16
     636:	2214      	movs	r2, #20
     638:	4628      	mov	r0, r5
/home/aom1/Work/Linux/target/STM32MP1-DK2/buildroot/buildroot/output/build/optee-os-custom/ta/stm32mp_nvmem/ta_stm32mp_nvmem.c:193
     63a:	681b      	ldr	r3, [r3, #0]
     63c:	9309      	str	r3, [sp, #36]	; 0x24
     63e:	f04f 0300 	mov.w	r3, #0
/home/aom1/Work/Linux/target/STM32MP1-DK2/buildroot/buildroot/output/build/optee-os-custom/ta/stm32mp_nvmem/ta_stm32mp_nvmem.c:196
     642:	9103      	str	r1, [sp, #12]
/home/aom1/Work/Linux/target/STM32MP1-DK2/buildroot/buildroot/output/build/optee-os-custom/ta/stm32mp_nvmem/ta_stm32mp_nvmem.c:197
     644:	f007 fd40 	bl	80c8 <memset>
/home/aom1/Work/Linux/target/STM32MP1-DK2/buildroot/buildroot/output/build/optee-os-custom/ta/stm32mp_nvmem/ta_stm32mp_nvmem.c:199
     648:	a803      	add	r0, sp, #12
     64a:	f001 fbb1 	bl	1db0 <TEE_AllocatePropertyEnumerator>
/home/aom1/Work/Linux/target/STM32MP1-DK2/buildroot/buildroot/output/build/optee-os-custom/ta/stm32mp_nvmem/ta_stm32mp_nvmem.c:200
     64e:	4604      	mov	r4, r0
     650:	b9c0      	cbnz	r0, 684 <TA_OpenSessionEntryPoint+0x5e>
/home/aom1/Work/Linux/target/STM32MP1-DK2/buildroot/buildroot/output/build/optee-os-custom/ta/stm32mp_nvmem/ta_stm32mp_nvmem.c:203
     652:	f06f 0101 	mvn.w	r1, #1
     656:	9803      	ldr	r0, [sp, #12]
     658:	f001 fbc0 	bl	1ddc <TEE_StartPropertyEnumerator>
/home/aom1/Work/Linux/target/STM32MP1-DK2/buildroot/buildroot/output/build/optee-os-custom/ta/stm32mp_nvmem/ta_stm32mp_nvmem.c:205
     65c:	9803      	ldr	r0, [sp, #12]
     65e:	4621      	mov	r1, r4
     660:	462a      	mov	r2, r5
     662:	f001 fb55 	bl	1d10 <TEE_GetPropertyAsIdentity>
/home/aom1/Work/Linux/target/STM32MP1-DK2/buildroot/buildroot/output/build/optee-os-custom/ta/stm32mp_nvmem/ta_stm32mp_nvmem.c:206
     666:	4604      	mov	r4, r0
     668:	b960      	cbnz	r0, 684 <TA_OpenSessionEntryPoint+0x5e>
/home/aom1/Work/Linux/target/STM32MP1-DK2/buildroot/buildroot/output/build/optee-os-custom/ta/stm32mp_nvmem/ta_stm32mp_nvmem.c:209
     66a:	9b04      	ldr	r3, [sp, #16]
     66c:	f1b3 4f00 	cmp.w	r3, #2147483648	; 0x80000000
     670:	d027      	beq.n	6c2 <TA_OpenSessionEntryPoint+0x9c>
/home/aom1/Work/Linux/target/STM32MP1-DK2/buildroot/buildroot/output/build/optee-os-custom/ta/stm32mp_nvmem/ta_stm32mp_nvmem.c:214
     672:	4b19      	ldr	r3, [pc, #100]	; (6d8 <TA_OpenSessionEntryPoint+0xb2>)
     674:	447b      	add	r3, pc
     676:	681a      	ldr	r2, [r3, #0]
     678:	b1a2      	cbz	r2, 6a4 <TA_OpenSessionEntryPoint+0x7e>
/home/aom1/Work/Linux/target/STM32MP1-DK2/buildroot/buildroot/output/build/optee-os-custom/ta/stm32mp_nvmem/ta_stm32mp_nvmem.c:221
     67a:	4a18      	ldr	r2, [pc, #96]	; (6dc <TA_OpenSessionEntryPoint+0xb6>)
     67c:	447a      	add	r2, pc
     67e:	6813      	ldr	r3, [r2, #0]
     680:	3301      	adds	r3, #1
     682:	6013      	str	r3, [r2, #0]
/home/aom1/Work/Linux/target/STM32MP1-DK2/buildroot/buildroot/output/build/optee-os-custom/ta/stm32mp_nvmem/ta_stm32mp_nvmem.c:224
     684:	9803      	ldr	r0, [sp, #12]
     686:	b108      	cbz	r0, 68c <TA_OpenSessionEntryPoint+0x66>
/home/aom1/Work/Linux/target/STM32MP1-DK2/buildroot/buildroot/output/build/optee-os-custom/ta/stm32mp_nvmem/ta_stm32mp_nvmem.c:225
     688:	f001 fba6 	bl	1dd8 <TEE_FreePropertyEnumerator>
/home/aom1/Work/Linux/target/STM32MP1-DK2/buildroot/buildroot/output/build/optee-os-custom/ta/stm32mp_nvmem/ta_stm32mp_nvmem.c:193
     68c:	4a14      	ldr	r2, [pc, #80]	; (6e0 <TA_OpenSessionEntryPoint+0xba>)
/home/aom1/Work/Linux/target/STM32MP1-DK2/buildroot/buildroot/output/build/optee-os-custom/ta/stm32mp_nvmem/ta_stm32mp_nvmem.c:228
     68e:	4b11      	ldr	r3, [pc, #68]	; (6d4 <TA_OpenSessionEntryPoint+0xae>)
/home/aom1/Work/Linux/target/STM32MP1-DK2/buildroot/buildroot/output/build/optee-os-custom/ta/stm32mp_nvmem/ta_stm32mp_nvmem.c:193
     690:	447a      	add	r2, pc
/home/aom1/Work/Linux/target/STM32MP1-DK2/buildroot/buildroot/output/build/optee-os-custom/ta/stm32mp_nvmem/ta_stm32mp_nvmem.c:228
     692:	58d3      	ldr	r3, [r2, r3]
     694:	681a      	ldr	r2, [r3, #0]
     696:	9b09      	ldr	r3, [sp, #36]	; 0x24
     698:	405a      	eors	r2, r3
     69a:	f04f 0300 	mov.w	r3, #0
     69e:	d012      	beq.n	6c6 <TA_OpenSessionEntryPoint+0xa0>
     6a0:	f007 fd11 	bl	80c6 <__stack_chk_fail>
/home/aom1/Work/Linux/target/STM32MP1-DK2/buildroot/buildroot/output/build/optee-os-custom/ta/stm32mp_nvmem/ta_stm32mp_nvmem.c:215
     6a4:	9001      	str	r0, [sp, #4]
     6a6:	3304      	adds	r3, #4
     6a8:	9300      	str	r3, [sp, #0]
     6aa:	4602      	mov	r2, r0
     6ac:	4603      	mov	r3, r0
     6ae:	f04f 31ff 	mov.w	r1, #4294967295	; 0xffffffff
     6b2:	480c      	ldr	r0, [pc, #48]	; (6e4 <TA_OpenSessionEntryPoint+0xbe>)
     6b4:	4478      	add	r0, pc
     6b6:	f7ff fe2f 	bl	318 <TEE_OpenTASession>
/home/aom1/Work/Linux/target/STM32MP1-DK2/buildroot/buildroot/output/build/optee-os-custom/ta/stm32mp_nvmem/ta_stm32mp_nvmem.c:217
     6ba:	2800      	cmp	r0, #0
     6bc:	d0dd      	beq.n	67a <TA_OpenSessionEntryPoint+0x54>
     6be:	4604      	mov	r4, r0
     6c0:	e7e0      	b.n	684 <TA_OpenSessionEntryPoint+0x5e>
/home/aom1/Work/Linux/target/STM32MP1-DK2/buildroot/buildroot/output/build/optee-os-custom/ta/stm32mp_nvmem/ta_stm32mp_nvmem.c:210
     6c2:	4c02      	ldr	r4, [pc, #8]	; (6cc <TA_OpenSessionEntryPoint+0xa6>)
     6c4:	e7de      	b.n	684 <TA_OpenSessionEntryPoint+0x5e>
/home/aom1/Work/Linux/target/STM32MP1-DK2/buildroot/buildroot/output/build/optee-os-custom/ta/stm32mp_nvmem/ta_stm32mp_nvmem.c:228
     6c6:	4620      	mov	r0, r4
     6c8:	b00b      	add	sp, #44	; 0x2c
     6ca:	bd30      	pop	{r4, r5, pc}
     6cc:	ffff0001 	.word	0xffff0001
     6d0:	00009a58 	.word	0x00009a58
     6d4:	0000000c 	.word	0x0000000c
     6d8:	00009cd8 	.word	0x00009cd8
     6dc:	00009cd0 	.word	0x00009cd0
     6e0:	000099f4 	.word	0x000099f4
     6e4:	00007b48 	.word	0x00007b48

000006e8 <TA_CloseSessionEntryPoint>:
TA_CloseSessionEntryPoint():
/home/aom1/Work/Linux/target/STM32MP1-DK2/buildroot/buildroot/output/build/optee-os-custom/ta/stm32mp_nvmem/ta_stm32mp_nvmem.c:232
     6e8:	4a04      	ldr	r2, [pc, #16]	; (6fc <TA_CloseSessionEntryPoint+0x14>)
     6ea:	447a      	add	r2, pc
     6ec:	6813      	ldr	r3, [r2, #0]
     6ee:	3b01      	subs	r3, #1
     6f0:	6013      	str	r3, [r2, #0]
/home/aom1/Work/Linux/target/STM32MP1-DK2/buildroot/buildroot/output/build/optee-os-custom/ta/stm32mp_nvmem/ta_stm32mp_nvmem.c:234
     6f2:	b913      	cbnz	r3, 6fa <TA_CloseSessionEntryPoint+0x12>
/home/aom1/Work/Linux/target/STM32MP1-DK2/buildroot/buildroot/output/build/optee-os-custom/ta/stm32mp_nvmem/ta_stm32mp_nvmem.c:235
     6f4:	6850      	ldr	r0, [r2, #4]
     6f6:	f7ff bcc6 	b.w	86 <TEE_CloseTASession>
/home/aom1/Work/Linux/target/STM32MP1-DK2/buildroot/buildroot/output/build/optee-os-custom/ta/stm32mp_nvmem/ta_stm32mp_nvmem.c:236
     6fa:	4770      	bx	lr
     6fc:	00009c62 	.word	0x00009c62

00000700 <TA_InvokeCommandEntryPoint>:
TA_InvokeCommandEntryPoint():
/home/aom1/Work/Linux/target/STM32MP1-DK2/buildroot/buildroot/output/build/optee-os-custom/ta/stm32mp_nvmem/ta_stm32mp_nvmem.c:241
     700:	e92d 4ff0 	stmdb	sp!, {r4, r5, r6, r7, r8, r9, sl, fp, lr}
     704:	b08f      	sub	sp, #60	; 0x3c
     706:	4c77      	ldr	r4, [pc, #476]	; (8e4 <TA_InvokeCommandEntryPoint+0x1e4>)
     708:	4877      	ldr	r0, [pc, #476]	; (8e8 <TA_InvokeCommandEntryPoint+0x1e8>)
     70a:	447c      	add	r4, pc
     70c:	5820      	ldr	r0, [r4, r0]
     70e:	6800      	ldr	r0, [r0, #0]
     710:	900d      	str	r0, [sp, #52]	; 0x34
     712:	f04f 0000 	mov.w	r0, #0
/home/aom1/Work/Linux/target/STM32MP1-DK2/buildroot/buildroot/output/build/optee-os-custom/ta/stm32mp_nvmem/ta_stm32mp_nvmem.c:242
     716:	b179      	cbz	r1, 738 <TA_InvokeCommandEntryPoint+0x38>
     718:	2901      	cmp	r1, #1
     71a:	d07e      	beq.n	81a <TA_InvokeCommandEntryPoint+0x11a>
/home/aom1/Work/Linux/target/STM32MP1-DK2/buildroot/buildroot/output/build/optee-os-custom/ta/stm32mp_nvmem/ta_stm32mp_nvmem.c:248
     71c:	4b73      	ldr	r3, [pc, #460]	; (8ec <TA_InvokeCommandEntryPoint+0x1ec>)
     71e:	4874      	ldr	r0, [pc, #464]	; (8f0 <TA_InvokeCommandEntryPoint+0x1f0>)
     720:	447b      	add	r3, pc
     722:	9300      	str	r3, [sp, #0]
     724:	2301      	movs	r3, #1
     726:	4478      	add	r0, pc
     728:	461a      	mov	r2, r3
     72a:	9101      	str	r1, [sp, #4]
     72c:	3010      	adds	r0, #16
/home/aom1/Work/Linux/target/STM32MP1-DK2/buildroot/buildroot/output/build/optee-os-custom/ta/stm32mp_nvmem/ta_stm32mp_nvmem.c:249
     72e:	4c6b      	ldr	r4, [pc, #428]	; (8dc <TA_InvokeCommandEntryPoint+0x1dc>)
/home/aom1/Work/Linux/target/STM32MP1-DK2/buildroot/buildroot/output/build/optee-os-custom/ta/stm32mp_nvmem/ta_stm32mp_nvmem.c:248
     730:	21f8      	movs	r1, #248	; 0xf8
     732:	f000 f9bd 	bl	ab0 <trace_printf>
/home/aom1/Work/Linux/target/STM32MP1-DK2/buildroot/buildroot/output/build/optee-os-custom/ta/stm32mp_nvmem/ta_stm32mp_nvmem.c:249
     736:	e064      	b.n	802 <TA_InvokeCommandEntryPoint+0x102>
nvmem_read():
/home/aom1/Work/Linux/target/STM32MP1-DK2/buildroot/buildroot/output/build/optee-os-custom/ta/stm32mp_nvmem/ta_stm32mp_nvmem.c:66
     738:	2a61      	cmp	r2, #97	; 0x61
     73a:	f040 80c9 	bne.w	8d0 <TA_InvokeCommandEntryPoint+0x1d0>
/home/aom1/Work/Linux/target/STM32MP1-DK2/buildroot/buildroot/output/build/optee-os-custom/ta/stm32mp_nvmem/ta_stm32mp_nvmem.c:61
     73e:	f8d3 8008 	ldr.w	r8, [r3, #8]
/home/aom1/Work/Linux/target/STM32MP1-DK2/buildroot/buildroot/output/build/optee-os-custom/ta/stm32mp_nvmem/ta_stm32mp_nvmem.c:66
     742:	f1b8 0f00 	cmp.w	r8, #0
     746:	f000 80c3 	beq.w	8d0 <TA_InvokeCommandEntryPoint+0x1d0>
/home/aom1/Work/Linux/target/STM32MP1-DK2/buildroot/buildroot/output/build/optee-os-custom/ta/stm32mp_nvmem/ta_stm32mp_nvmem.c:62
     74a:	68d9      	ldr	r1, [r3, #12]
/home/aom1/Work/Linux/target/STM32MP1-DK2/buildroot/buildroot/output/build/optee-os-custom/ta/stm32mp_nvmem/ta_stm32mp_nvmem.c:66
     74c:	2900      	cmp	r1, #0
     74e:	f000 80bf 	beq.w	8d0 <TA_InvokeCommandEntryPoint+0x1d0>
/home/aom1/Work/Linux/target/STM32MP1-DK2/buildroot/buildroot/output/build/optee-os-custom/ta/stm32mp_nvmem/ta_stm32mp_nvmem.c:69
     752:	681a      	ldr	r2, [r3, #0]
     754:	2a00      	cmp	r2, #0
     756:	f040 80bb 	bne.w	8d0 <TA_InvokeCommandEntryPoint+0x1d0>
     75a:	f5b1 7f42 	cmp.w	r1, #776	; 0x308
     75e:	f0c0 80b7 	bcc.w	8d0 <TA_InvokeCommandEntryPoint+0x1d0>
nvmem_get_state():
/home/aom1/Work/Linux/target/STM32MP1-DK2/buildroot/buildroot/output/build/optee-os-custom/ta/stm32mp_nvmem/ta_stm32mp_nvmem.c:46
     762:	4e64      	ldr	r6, [pc, #400]	; (8f4 <TA_InvokeCommandEntryPoint+0x1f4>)
nvmem_read():
/home/aom1/Work/Linux/target/STM32MP1-DK2/buildroot/buildroot/output/build/optee-os-custom/ta/stm32mp_nvmem/ta_stm32mp_nvmem.c:74
     764:	2302      	movs	r3, #2
     766:	f8c8 3000 	str.w	r3, [r8]
nvmem_get_state():
/home/aom1/Work/Linux/target/STM32MP1-DK2/buildroot/buildroot/output/build/optee-os-custom/ta/stm32mp_nvmem/ta_stm32mp_nvmem.c:46
     76a:	af05      	add	r7, sp, #20
     76c:	447e      	add	r6, pc
     76e:	f04f 31ff 	mov.w	r1, #4294967295	; 0xffffffff
     772:	9201      	str	r2, [sp, #4]
     774:	2203      	movs	r2, #3
     776:	9700      	str	r7, [sp, #0]
     778:	6870      	ldr	r0, [r6, #4]
     77a:	f7ff fe2f 	bl	3dc <TEE_InvokeTACommand>
/home/aom1/Work/Linux/target/STM32MP1-DK2/buildroot/buildroot/output/build/optee-os-custom/ta/stm32mp_nvmem/ta_stm32mp_nvmem.c:49
     77e:	4604      	mov	r4, r0
     780:	2800      	cmp	r0, #0
     782:	d13e      	bne.n	802 <TA_InvokeCommandEntryPoint+0x102>
/home/aom1/Work/Linux/target/STM32MP1-DK2/buildroot/buildroot/output/build/optee-os-custom/ta/stm32mp_nvmem/ta_stm32mp_nvmem.c:50
     784:	9b05      	ldr	r3, [sp, #20]
nvmem_read():
/home/aom1/Work/Linux/target/STM32MP1-DK2/buildroot/buildroot/output/build/optee-os-custom/ta/stm32mp_nvmem/ta_stm32mp_nvmem.c:77
     786:	f108 0508 	add.w	r5, r8, #8
/home/aom1/Work/Linux/target/STM32MP1-DK2/buildroot/buildroot/output/build/optee-os-custom/ta/stm32mp_nvmem/ta_stm32mp_nvmem.c:82
     78a:	f10d 0b24 	add.w	fp, sp, #36	; 0x24
     78e:	4681      	mov	r9, r0
nvmem_get_state():
/home/aom1/Work/Linux/target/STM32MP1-DK2/buildroot/buildroot/output/build/optee-os-custom/ta/stm32mp_nvmem/ta_stm32mp_nvmem.c:50
     790:	f8c8 3004 	str.w	r3, [r8, #4]
nvmem_read():
/home/aom1/Work/Linux/target/STM32MP1-DK2/buildroot/buildroot/output/build/optee-os-custom/ta/stm32mp_nvmem/ta_stm32mp_nvmem.c:82
     794:	2210      	movs	r2, #16
     796:	2100      	movs	r1, #0
     798:	4658      	mov	r0, fp
/home/aom1/Work/Linux/target/STM32MP1-DK2/buildroot/buildroot/output/build/optee-os-custom/ta/stm32mp_nvmem/ta_stm32mp_nvmem.c:88
     79a:	f04f 0a04 	mov.w	sl, #4
/home/aom1/Work/Linux/target/STM32MP1-DK2/buildroot/buildroot/output/build/optee-os-custom/ta/stm32mp_nvmem/ta_stm32mp_nvmem.c:86
     79e:	f04f 0801 	mov.w	r8, #1
/home/aom1/Work/Linux/target/STM32MP1-DK2/buildroot/buildroot/output/build/optee-os-custom/ta/stm32mp_nvmem/ta_stm32mp_nvmem.c:82
     7a2:	f007 fc91 	bl	80c8 <memset>
/home/aom1/Work/Linux/target/STM32MP1-DK2/buildroot/buildroot/output/build/optee-os-custom/ta/stm32mp_nvmem/ta_stm32mp_nvmem.c:85
     7a6:	9405      	str	r4, [sp, #20]
/home/aom1/Work/Linux/target/STM32MP1-DK2/buildroot/buildroot/output/build/optee-os-custom/ta/stm32mp_nvmem/ta_stm32mp_nvmem.c:90
     7a8:	2361      	movs	r3, #97	; 0x61
     7aa:	e9cd 7900 	strd	r7, r9, [sp]
     7ae:	6870      	ldr	r0, [r6, #4]
     7b0:	2200      	movs	r2, #0
/home/aom1/Work/Linux/target/STM32MP1-DK2/buildroot/buildroot/output/build/optee-os-custom/ta/stm32mp_nvmem/ta_stm32mp_nvmem.c:86
     7b2:	f8cd 8018 	str.w	r8, [sp, #24]
/home/aom1/Work/Linux/target/STM32MP1-DK2/buildroot/buildroot/output/build/optee-os-custom/ta/stm32mp_nvmem/ta_stm32mp_nvmem.c:90
     7b6:	f04f 31ff 	mov.w	r1, #4294967295	; 0xffffffff
/home/aom1/Work/Linux/target/STM32MP1-DK2/buildroot/buildroot/output/build/optee-os-custom/ta/stm32mp_nvmem/ta_stm32mp_nvmem.c:87
     7ba:	9507      	str	r5, [sp, #28]
/home/aom1/Work/Linux/target/STM32MP1-DK2/buildroot/buildroot/output/build/optee-os-custom/ta/stm32mp_nvmem/ta_stm32mp_nvmem.c:88
     7bc:	f8cd a020 	str.w	sl, [sp, #32]
/home/aom1/Work/Linux/target/STM32MP1-DK2/buildroot/buildroot/output/build/optee-os-custom/ta/stm32mp_nvmem/ta_stm32mp_nvmem.c:90
     7c0:	f7ff fe0c 	bl	3dc <TEE_InvokeTACommand>
/home/aom1/Work/Linux/target/STM32MP1-DK2/buildroot/buildroot/output/build/optee-os-custom/ta/stm32mp_nvmem/ta_stm32mp_nvmem.c:93
     7c4:	eb05 030a 	add.w	r3, r5, sl
     7c8:	b120      	cbz	r0, 7d4 <TA_InvokeCommandEntryPoint+0xd4>
/home/aom1/Work/Linux/target/STM32MP1-DK2/buildroot/buildroot/output/build/optee-os-custom/ta/stm32mp_nvmem/ta_stm32mp_nvmem.c:94
     7ca:	f8c5 9000 	str.w	r9, [r5]
/home/aom1/Work/Linux/target/STM32MP1-DK2/buildroot/buildroot/output/build/optee-os-custom/ta/stm32mp_nvmem/ta_stm32mp_nvmem.c:110
     7ce:	f8c5 8004 	str.w	r8, [r5, #4]
     7d2:	e010      	b.n	7f6 <TA_InvokeCommandEntryPoint+0xf6>
/home/aom1/Work/Linux/target/STM32MP1-DK2/buildroot/buildroot/output/build/optee-os-custom/ta/stm32mp_nvmem/ta_stm32mp_nvmem.c:104
     7d4:	9307      	str	r3, [sp, #28]
/home/aom1/Work/Linux/target/STM32MP1-DK2/buildroot/buildroot/output/build/optee-os-custom/ta/stm32mp_nvmem/ta_stm32mp_nvmem.c:103
     7d6:	2202      	movs	r2, #2
     7d8:	9206      	str	r2, [sp, #24]
/home/aom1/Work/Linux/target/STM32MP1-DK2/buildroot/buildroot/output/build/optee-os-custom/ta/stm32mp_nvmem/ta_stm32mp_nvmem.c:106
     7da:	2361      	movs	r3, #97	; 0x61
     7dc:	9001      	str	r0, [sp, #4]
     7de:	4602      	mov	r2, r0
     7e0:	9700      	str	r7, [sp, #0]
     7e2:	f04f 31ff 	mov.w	r1, #4294967295	; 0xffffffff
     7e6:	6870      	ldr	r0, [r6, #4]
/home/aom1/Work/Linux/target/STM32MP1-DK2/buildroot/buildroot/output/build/optee-os-custom/ta/stm32mp_nvmem/ta_stm32mp_nvmem.c:102
     7e8:	9405      	str	r4, [sp, #20]
/home/aom1/Work/Linux/target/STM32MP1-DK2/buildroot/buildroot/output/build/optee-os-custom/ta/stm32mp_nvmem/ta_stm32mp_nvmem.c:105
     7ea:	f8cd a020 	str.w	sl, [sp, #32]
/home/aom1/Work/Linux/target/STM32MP1-DK2/buildroot/buildroot/output/build/optee-os-custom/ta/stm32mp_nvmem/ta_stm32mp_nvmem.c:106
     7ee:	f7ff fdf5 	bl	3dc <TEE_InvokeTACommand>
/home/aom1/Work/Linux/target/STM32MP1-DK2/buildroot/buildroot/output/build/optee-os-custom/ta/stm32mp_nvmem/ta_stm32mp_nvmem.c:109
     7f2:	2800      	cmp	r0, #0
     7f4:	d1eb      	bne.n	7ce <TA_InvokeCommandEntryPoint+0xce>
/home/aom1/Work/Linux/target/STM32MP1-DK2/buildroot/buildroot/output/build/optee-os-custom/ta/stm32mp_nvmem/ta_stm32mp_nvmem.c:81
     7f6:	3404      	adds	r4, #4
     7f8:	3508      	adds	r5, #8
     7fa:	f5b4 7fc0 	cmp.w	r4, #384	; 0x180
     7fe:	d1c9      	bne.n	794 <TA_InvokeCommandEntryPoint+0x94>
/home/aom1/Work/Linux/target/STM32MP1-DK2/buildroot/buildroot/output/build/optee-os-custom/ta/stm32mp_nvmem/ta_stm32mp_nvmem.c:113
     800:	2400      	movs	r4, #0
TA_InvokeCommandEntryPoint():
/home/aom1/Work/Linux/target/STM32MP1-DK2/buildroot/buildroot/output/build/optee-os-custom/ta/stm32mp_nvmem/ta_stm32mp_nvmem.c:241
     802:	4a3d      	ldr	r2, [pc, #244]	; (8f8 <TA_InvokeCommandEntryPoint+0x1f8>)
/home/aom1/Work/Linux/target/STM32MP1-DK2/buildroot/buildroot/output/build/optee-os-custom/ta/stm32mp_nvmem/ta_stm32mp_nvmem.c:251
     804:	4b38      	ldr	r3, [pc, #224]	; (8e8 <TA_InvokeCommandEntryPoint+0x1e8>)
/home/aom1/Work/Linux/target/STM32MP1-DK2/buildroot/buildroot/output/build/optee-os-custom/ta/stm32mp_nvmem/ta_stm32mp_nvmem.c:241
     806:	447a      	add	r2, pc
/home/aom1/Work/Linux/target/STM32MP1-DK2/buildroot/buildroot/output/build/optee-os-custom/ta/stm32mp_nvmem/ta_stm32mp_nvmem.c:251
     808:	58d3      	ldr	r3, [r2, r3]
     80a:	681a      	ldr	r2, [r3, #0]
     80c:	9b0d      	ldr	r3, [sp, #52]	; 0x34
     80e:	405a      	eors	r2, r3
     810:	f04f 0300 	mov.w	r3, #0
     814:	d05e      	beq.n	8d4 <TA_InvokeCommandEntryPoint+0x1d4>
     816:	f007 fc56 	bl	80c6 <__stack_chk_fail>
nvmem_write():
/home/aom1/Work/Linux/target/STM32MP1-DK2/buildroot/buildroot/output/build/optee-os-custom/ta/stm32mp_nvmem/ta_stm32mp_nvmem.c:126
     81a:	2a51      	cmp	r2, #81	; 0x51
     81c:	d158      	bne.n	8d0 <TA_InvokeCommandEntryPoint+0x1d0>
/home/aom1/Work/Linux/target/STM32MP1-DK2/buildroot/buildroot/output/build/optee-os-custom/ta/stm32mp_nvmem/ta_stm32mp_nvmem.c:122
     81e:	689d      	ldr	r5, [r3, #8]
/home/aom1/Work/Linux/target/STM32MP1-DK2/buildroot/buildroot/output/build/optee-os-custom/ta/stm32mp_nvmem/ta_stm32mp_nvmem.c:126
     820:	2d00      	cmp	r5, #0
     822:	d055      	beq.n	8d0 <TA_InvokeCommandEntryPoint+0x1d0>
/home/aom1/Work/Linux/target/STM32MP1-DK2/buildroot/buildroot/output/build/optee-os-custom/ta/stm32mp_nvmem/ta_stm32mp_nvmem.c:123
     824:	68da      	ldr	r2, [r3, #12]
/home/aom1/Work/Linux/target/STM32MP1-DK2/buildroot/buildroot/output/build/optee-os-custom/ta/stm32mp_nvmem/ta_stm32mp_nvmem.c:126
     826:	2a00      	cmp	r2, #0
     828:	d052      	beq.n	8d0 <TA_InvokeCommandEntryPoint+0x1d0>
/home/aom1/Work/Linux/target/STM32MP1-DK2/buildroot/buildroot/output/build/optee-os-custom/ta/stm32mp_nvmem/ta_stm32mp_nvmem.c:129
     82a:	681f      	ldr	r7, [r3, #0]
     82c:	2f00      	cmp	r7, #0
     82e:	d14f      	bne.n	8d0 <TA_InvokeCommandEntryPoint+0x1d0>
     830:	f5b2 7f42 	cmp.w	r2, #776	; 0x308
     834:	d34c      	bcc.n	8d0 <TA_InvokeCommandEntryPoint+0x1d0>
/home/aom1/Work/Linux/target/STM32MP1-DK2/buildroot/buildroot/output/build/optee-os-custom/ta/stm32mp_nvmem/ta_stm32mp_nvmem.c:134
     836:	682b      	ldr	r3, [r5, #0]
     838:	2b02      	cmp	r3, #2
     83a:	d149      	bne.n	8d0 <TA_InvokeCommandEntryPoint+0x1d0>
/home/aom1/Work/Linux/target/STM32MP1-DK2/buildroot/buildroot/output/build/optee-os-custom/ta/stm32mp_nvmem/ta_stm32mp_nvmem.c:154
     83c:	f8df 80bc 	ldr.w	r8, [pc, #188]	; 8fc <TA_InvokeCommandEntryPoint+0x1fc>
     840:	3510      	adds	r5, #16
/home/aom1/Work/Linux/target/STM32MP1-DK2/buildroot/buildroot/output/build/optee-os-custom/ta/stm32mp_nvmem/ta_stm32mp_nvmem.c:141
     842:	ae05      	add	r6, sp, #20
/home/aom1/Work/Linux/target/STM32MP1-DK2/buildroot/buildroot/output/build/optee-os-custom/ta/stm32mp_nvmem/ta_stm32mp_nvmem.c:154
     844:	44f8      	add	r8, pc
/home/aom1/Work/Linux/target/STM32MP1-DK2/buildroot/buildroot/output/build/optee-os-custom/ta/stm32mp_nvmem/ta_stm32mp_nvmem.c:141
     846:	2220      	movs	r2, #32
     848:	2100      	movs	r1, #0
     84a:	4630      	mov	r0, r6
     84c:	f007 fc3c 	bl	80c8 <memset>
/home/aom1/Work/Linux/target/STM32MP1-DK2/buildroot/buildroot/output/build/optee-os-custom/ta/stm32mp_nvmem/ta_stm32mp_nvmem.c:142
     850:	f855 3c08 	ldr.w	r3, [r5, #-8]
     854:	9303      	str	r3, [sp, #12]
/home/aom1/Work/Linux/target/STM32MP1-DK2/buildroot/buildroot/output/build/optee-os-custom/ta/stm32mp_nvmem/ta_stm32mp_nvmem.c:143
     856:	f855 ac04 	ldr.w	sl, [r5, #-4]
/home/aom1/Work/Linux/target/STM32MP1-DK2/buildroot/buildroot/output/build/optee-os-custom/ta/stm32mp_nvmem/ta_stm32mp_nvmem.c:146
     85a:	f1ba 0f00 	cmp.w	sl, #0
     85e:	db05      	blt.n	86c <TA_InvokeCommandEntryPoint+0x16c>
/home/aom1/Work/Linux/target/STM32MP1-DK2/buildroot/buildroot/output/build/optee-os-custom/ta/stm32mp_nvmem/ta_stm32mp_nvmem.c:140
     860:	3704      	adds	r7, #4
     862:	3508      	adds	r5, #8
     864:	f5b7 7fc0 	cmp.w	r7, #384	; 0x180
     868:	d1ed      	bne.n	846 <TA_InvokeCommandEntryPoint+0x146>
     86a:	e7c9      	b.n	800 <TA_InvokeCommandEntryPoint+0x100>
/home/aom1/Work/Linux/target/STM32MP1-DK2/buildroot/buildroot/output/build/optee-os-custom/ta/stm32mp_nvmem/ta_stm32mp_nvmem.c:154
     86c:	9600      	str	r6, [sp, #0]
/home/aom1/Work/Linux/target/STM32MP1-DK2/buildroot/buildroot/output/build/optee-os-custom/ta/stm32mp_nvmem/ta_stm32mp_nvmem.c:152
     86e:	ab03      	add	r3, sp, #12
     870:	9307      	str	r3, [sp, #28]
/home/aom1/Work/Linux/target/STM32MP1-DK2/buildroot/buildroot/output/build/optee-os-custom/ta/stm32mp_nvmem/ta_stm32mp_nvmem.c:154
     872:	2300      	movs	r3, #0
     874:	9301      	str	r3, [sp, #4]
/home/aom1/Work/Linux/target/STM32MP1-DK2/buildroot/buildroot/output/build/optee-os-custom/ta/stm32mp_nvmem/ta_stm32mp_nvmem.c:151
     876:	2201      	movs	r2, #1
/home/aom1/Work/Linux/target/STM32MP1-DK2/buildroot/buildroot/output/build/optee-os-custom/ta/stm32mp_nvmem/ta_stm32mp_nvmem.c:154
     878:	f8d8 0004 	ldr.w	r0, [r8, #4]
/home/aom1/Work/Linux/target/STM32MP1-DK2/buildroot/buildroot/output/build/optee-os-custom/ta/stm32mp_nvmem/ta_stm32mp_nvmem.c:153
     87c:	f04f 0904 	mov.w	r9, #4
/home/aom1/Work/Linux/target/STM32MP1-DK2/buildroot/buildroot/output/build/optee-os-custom/ta/stm32mp_nvmem/ta_stm32mp_nvmem.c:150
     880:	9705      	str	r7, [sp, #20]
/home/aom1/Work/Linux/target/STM32MP1-DK2/buildroot/buildroot/output/build/optee-os-custom/ta/stm32mp_nvmem/ta_stm32mp_nvmem.c:154
     882:	2351      	movs	r3, #81	; 0x51
/home/aom1/Work/Linux/target/STM32MP1-DK2/buildroot/buildroot/output/build/optee-os-custom/ta/stm32mp_nvmem/ta_stm32mp_nvmem.c:151
     884:	9206      	str	r2, [sp, #24]
/home/aom1/Work/Linux/target/STM32MP1-DK2/buildroot/buildroot/output/build/optee-os-custom/ta/stm32mp_nvmem/ta_stm32mp_nvmem.c:154
     886:	f04f 31ff 	mov.w	r1, #4294967295	; 0xffffffff
/home/aom1/Work/Linux/target/STM32MP1-DK2/buildroot/buildroot/output/build/optee-os-custom/ta/stm32mp_nvmem/ta_stm32mp_nvmem.c:153
     88a:	f8cd 9020 	str.w	r9, [sp, #32]
/home/aom1/Work/Linux/target/STM32MP1-DK2/buildroot/buildroot/output/build/optee-os-custom/ta/stm32mp_nvmem/ta_stm32mp_nvmem.c:154
     88e:	f7ff fda5 	bl	3dc <TEE_InvokeTACommand>
/home/aom1/Work/Linux/target/STM32MP1-DK2/buildroot/buildroot/output/build/optee-os-custom/ta/stm32mp_nvmem/ta_stm32mp_nvmem.c:157
     892:	4604      	mov	r4, r0
     894:	2800      	cmp	r0, #0
     896:	d1b4      	bne.n	802 <TA_InvokeCommandEntryPoint+0x102>
/home/aom1/Work/Linux/target/STM32MP1-DK2/buildroot/buildroot/output/build/optee-os-custom/ta/stm32mp_nvmem/ta_stm32mp_nvmem.c:161
     898:	f01a 4f80 	tst.w	sl, #1073741824	; 0x40000000
     89c:	f04f 0201 	mov.w	r2, #1
     8a0:	d0de      	beq.n	860 <TA_InvokeCommandEntryPoint+0x160>
/home/aom1/Work/Linux/target/STM32MP1-DK2/buildroot/buildroot/output/build/optee-os-custom/ta/stm32mp_nvmem/ta_stm32mp_nvmem.c:169
     8a2:	9001      	str	r0, [sp, #4]
/home/aom1/Work/Linux/target/STM32MP1-DK2/buildroot/buildroot/output/build/optee-os-custom/ta/stm32mp_nvmem/ta_stm32mp_nvmem.c:162
     8a4:	f04f 4380 	mov.w	r3, #1073741824	; 0x40000000
/home/aom1/Work/Linux/target/STM32MP1-DK2/buildroot/buildroot/output/build/optee-os-custom/ta/stm32mp_nvmem/ta_stm32mp_nvmem.c:165
     8a8:	e9cd 3704 	strd	r3, r7, [sp, #16]
/home/aom1/Work/Linux/target/STM32MP1-DK2/buildroot/buildroot/output/build/optee-os-custom/ta/stm32mp_nvmem/ta_stm32mp_nvmem.c:169
     8ac:	9600      	str	r6, [sp, #0]
/home/aom1/Work/Linux/target/STM32MP1-DK2/buildroot/buildroot/output/build/optee-os-custom/ta/stm32mp_nvmem/ta_stm32mp_nvmem.c:166
     8ae:	2302      	movs	r3, #2
     8b0:	9306      	str	r3, [sp, #24]
/home/aom1/Work/Linux/target/STM32MP1-DK2/buildroot/buildroot/output/build/optee-os-custom/ta/stm32mp_nvmem/ta_stm32mp_nvmem.c:167
     8b2:	ab04      	add	r3, sp, #16
     8b4:	9307      	str	r3, [sp, #28]
/home/aom1/Work/Linux/target/STM32MP1-DK2/buildroot/buildroot/output/build/optee-os-custom/ta/stm32mp_nvmem/ta_stm32mp_nvmem.c:169
     8b6:	f04f 31ff 	mov.w	r1, #4294967295	; 0xffffffff
     8ba:	f8d8 0004 	ldr.w	r0, [r8, #4]
     8be:	2351      	movs	r3, #81	; 0x51
/home/aom1/Work/Linux/target/STM32MP1-DK2/buildroot/buildroot/output/build/optee-os-custom/ta/stm32mp_nvmem/ta_stm32mp_nvmem.c:168
     8c0:	f8cd 9020 	str.w	r9, [sp, #32]
/home/aom1/Work/Linux/target/STM32MP1-DK2/buildroot/buildroot/output/build/optee-os-custom/ta/stm32mp_nvmem/ta_stm32mp_nvmem.c:169
     8c4:	f7ff fd8a 	bl	3dc <TEE_InvokeTACommand>
/home/aom1/Work/Linux/target/STM32MP1-DK2/buildroot/buildroot/output/build/optee-os-custom/ta/stm32mp_nvmem/ta_stm32mp_nvmem.c:173
     8c8:	4604      	mov	r4, r0
     8ca:	2800      	cmp	r0, #0
     8cc:	d0c8      	beq.n	860 <TA_InvokeCommandEntryPoint+0x160>
     8ce:	e798      	b.n	802 <TA_InvokeCommandEntryPoint+0x102>
nvmem_read():
/home/aom1/Work/Linux/target/STM32MP1-DK2/buildroot/buildroot/output/build/optee-os-custom/ta/stm32mp_nvmem/ta_stm32mp_nvmem.c:67
     8d0:	4c03      	ldr	r4, [pc, #12]	; (8e0 <TA_InvokeCommandEntryPoint+0x1e0>)
     8d2:	e796      	b.n	802 <TA_InvokeCommandEntryPoint+0x102>
TA_InvokeCommandEntryPoint():
/home/aom1/Work/Linux/target/STM32MP1-DK2/buildroot/buildroot/output/build/optee-os-custom/ta/stm32mp_nvmem/ta_stm32mp_nvmem.c:251
     8d4:	4620      	mov	r0, r4
     8d6:	b00f      	add	sp, #60	; 0x3c
     8d8:	e8bd 8ff0 	ldmia.w	sp!, {r4, r5, r6, r7, r8, r9, sl, fp, pc}
     8dc:	ffff000a 	.word	0xffff000a
     8e0:	ffff0006 	.word	0xffff0006
     8e4:	0000997a 	.word	0x0000997a
     8e8:	0000000c 	.word	0x0000000c
     8ec:	00007e28 	.word	0x00007e28
     8f0:	00007ad6 	.word	0x00007ad6
     8f4:	00009be0 	.word	0x00009be0
     8f8:	0000987e 	.word	0x0000987e
     8fc:	00009b08 	.word	0x00009b08

00000900 <__ta_entry>:
__ta_entry():
/home/aom1/Work/Linux/target/STM32MP1-DK2/buildroot/buildroot/output/build/optee-os-custom/out/export-ta_arm32/src/ta_entry_a32.S:20
     900:	fa001dec 	blx	80b8 <__ta_entry_c>

00000904 <trace_set_level>:
trace_set_level():
/home/aom1/Work/Linux/target/STM32MP1-DK2/buildroot/buildroot/output/build/optee-os-custom/lib/libutils/ext/trace.c:24
     904:	4b04      	ldr	r3, [pc, #16]	; (918 <trace_set_level+0x14>)
/home/aom1/Work/Linux/target/STM32MP1-DK2/buildroot/buildroot/output/build/optee-os-custom/lib/libutils/ext/trace.c:28
     906:	2805      	cmp	r0, #5
     908:	4a04      	ldr	r2, [pc, #16]	; (91c <trace_set_level+0x18>)
     90a:	bf28      	it	cs
     90c:	2004      	movcs	r0, #4
/home/aom1/Work/Linux/target/STM32MP1-DK2/buildroot/buildroot/output/build/optee-os-custom/lib/libutils/ext/trace.c:24
     90e:	447b      	add	r3, pc
     910:	589b      	ldr	r3, [r3, r2]
     912:	6018      	str	r0, [r3, #0]
/home/aom1/Work/Linux/target/STM32MP1-DK2/buildroot/buildroot/output/build/optee-os-custom/lib/libutils/ext/trace.c:29
     914:	4770      	bx	lr
     916:	bf00      	nop
     918:	00009776 	.word	0x00009776
     91c:	00000018 	.word	0x00000018

00000920 <trace_get_level>:
trace_get_level():
/home/aom1/Work/Linux/target/STM32MP1-DK2/buildroot/buildroot/output/build/optee-os-custom/lib/libutils/ext/trace.c:32
     920:	4b02      	ldr	r3, [pc, #8]	; (92c <trace_get_level+0xc>)
/home/aom1/Work/Linux/target/STM32MP1-DK2/buildroot/buildroot/output/build/optee-os-custom/lib/libutils/ext/trace.c:33
     922:	4a03      	ldr	r2, [pc, #12]	; (930 <trace_get_level+0x10>)
/home/aom1/Work/Linux/target/STM32MP1-DK2/buildroot/buildroot/output/build/optee-os-custom/lib/libutils/ext/trace.c:32
     924:	447b      	add	r3, pc
/home/aom1/Work/Linux/target/STM32MP1-DK2/buildroot/buildroot/output/build/optee-os-custom/lib/libutils/ext/trace.c:33
     926:	589b      	ldr	r3, [r3, r2]
/home/aom1/Work/Linux/target/STM32MP1-DK2/buildroot/buildroot/output/build/optee-os-custom/lib/libutils/ext/trace.c:34
     928:	6818      	ldr	r0, [r3, #0]
     92a:	4770      	bx	lr
     92c:	00009760 	.word	0x00009760
     930:	00000018 	.word	0x00000018

00000934 <trace_vprintf>:
trace_vprintf():
/home/aom1/Work/Linux/target/STM32MP1-DK2/buildroot/buildroot/output/build/optee-os-custom/lib/libutils/ext/trace.c:113
     934:	e92d 4ff0 	stmdb	sp!, {r4, r5, r6, r7, r8, r9, sl, fp, lr}
     938:	4688      	mov	r8, r1
     93a:	4950      	ldr	r1, [pc, #320]	; (a7c <trace_vprintf+0x148>)
     93c:	4614      	mov	r4, r2
     93e:	4a50      	ldr	r2, [pc, #320]	; (a80 <trace_vprintf+0x14c>)
     940:	b0c7      	sub	sp, #284	; 0x11c
     942:	4479      	add	r1, pc
     944:	4607      	mov	r7, r0
     946:	4e4f      	ldr	r6, [pc, #316]	; (a84 <trace_vprintf+0x150>)
/home/aom1/Work/Linux/target/STM32MP1-DK2/buildroot/buildroot/output/build/optee-os-custom/lib/libutils/ext/trace.c:118
     948:	469b      	mov	fp, r3
/home/aom1/Work/Linux/target/STM32MP1-DK2/buildroot/buildroot/output/build/optee-os-custom/lib/libutils/ext/trace.c:113
     94a:	588a      	ldr	r2, [r1, r2]
     94c:	447e      	add	r6, pc
     94e:	f8dd 9140 	ldr.w	r9, [sp, #320]	; 0x140
     952:	6812      	ldr	r2, [r2, #0]
     954:	9245      	str	r2, [sp, #276]	; 0x114
     956:	f04f 0200 	mov.w	r2, #0
/home/aom1/Work/Linux/target/STM32MP1-DK2/buildroot/buildroot/output/build/optee-os-custom/lib/libutils/ext/trace.c:118
     95a:	2b00      	cmp	r3, #0
     95c:	d075      	beq.n	a4a <trace_vprintf+0x116>
/home/aom1/Work/Linux/target/STM32MP1-DK2/buildroot/buildroot/output/build/optee-os-custom/lib/libutils/ext/trace.c:118 (discriminator 1)
     95e:	4b4a      	ldr	r3, [pc, #296]	; (a88 <trace_vprintf+0x154>)
     960:	58f3      	ldr	r3, [r6, r3]
     962:	681b      	ldr	r3, [r3, #0]
     964:	42a3      	cmp	r3, r4
     966:	db64      	blt.n	a32 <trace_vprintf+0xfe>
trace_level_to_string():
/home/aom1/Work/Linux/target/STM32MP1-DK2/buildroot/buildroot/output/build/optee-os-custom/lib/libutils/ext/trace.c:54
     968:	4a48      	ldr	r2, [pc, #288]	; (a8c <trace_vprintf+0x158>)
/home/aom1/Work/Linux/target/STM32MP1-DK2/buildroot/buildroot/output/build/optee-os-custom/lib/libutils/ext/trace.c:51
     96a:	2c04      	cmp	r4, #4
     96c:	bf94      	ite	ls
     96e:	4623      	movls	r3, r4
     970:	2300      	movhi	r3, #0
/home/aom1/Work/Linux/target/STM32MP1-DK2/buildroot/buildroot/output/build/optee-os-custom/lib/libutils/ext/trace.c:54
     972:	447a      	add	r2, pc
     974:	5cd3      	ldrb	r3, [r2, r3]
trace_vprintf():
/home/aom1/Work/Linux/target/STM32MP1-DK2/buildroot/buildroot/output/build/optee-os-custom/lib/libutils/ext/trace.c:122
     976:	4a46      	ldr	r2, [pc, #280]	; (a90 <trace_vprintf+0x15c>)
     978:	ad05      	add	r5, sp, #20
     97a:	f44f 7180 	mov.w	r1, #256	; 0x100
     97e:	4628      	mov	r0, r5
     980:	447a      	add	r2, pc
     982:	f000 f8fc 	bl	b7e <snprintk>
/home/aom1/Work/Linux/target/STM32MP1-DK2/buildroot/buildroot/output/build/optee-os-custom/lib/libutils/ext/trace.c:124
     986:	f1b0 0a00 	subs.w	sl, r0, #0
     98a:	db52      	blt.n	a32 <trace_vprintf+0xfe>
/home/aom1/Work/Linux/target/STM32MP1-DK2/buildroot/buildroot/output/build/optee-os-custom/lib/libutils/ext/trace.c:129
     98c:	4b41      	ldr	r3, [pc, #260]	; (a94 <trace_vprintf+0x160>)
     98e:	f5ca 7180 	rsb	r1, sl, #256	; 0x100
     992:	4a41      	ldr	r2, [pc, #260]	; (a98 <trace_vprintf+0x164>)
     994:	58f3      	ldr	r3, [r6, r3]
     996:	447a      	add	r2, pc
     998:	eb05 000a 	add.w	r0, r5, sl
     99c:	9303      	str	r3, [sp, #12]
     99e:	f000 f8ee 	bl	b7e <snprintk>
/home/aom1/Work/Linux/target/STM32MP1-DK2/buildroot/buildroot/output/build/optee-os-custom/lib/libutils/ext/trace.c:131
     9a2:	2800      	cmp	r0, #0
     9a4:	db45      	blt.n	a32 <trace_vprintf+0xfe>
/home/aom1/Work/Linux/target/STM32MP1-DK2/buildroot/buildroot/output/build/optee-os-custom/lib/libutils/ext/trace.c:133
     9a6:	4482      	add	sl, r0
/home/aom1/Work/Linux/target/STM32MP1-DK2/buildroot/buildroot/output/build/optee-os-custom/lib/libutils/ext/trace.c:135
     9a8:	f1bb 0f00 	cmp.w	fp, #0
     9ac:	d056      	beq.n	a5c <trace_vprintf+0x128>
/home/aom1/Work/Linux/target/STM32MP1-DK2/buildroot/buildroot/output/build/optee-os-custom/lib/libutils/ext/trace.c:135 (discriminator 1)
     9ae:	221a      	movs	r2, #26
     9b0:	fa22 f404 	lsr.w	r4, r2, r4
     9b4:	07e3      	lsls	r3, r4, #31
     9b6:	d551      	bpl.n	a5c <trace_vprintf+0x128>
/home/aom1/Work/Linux/target/STM32MP1-DK2/buildroot/buildroot/output/build/optee-os-custom/lib/libutils/ext/trace.c:137
     9b8:	eb05 040a 	add.w	r4, r5, sl
     9bc:	f5ca 7180 	rsb	r1, sl, #256	; 0x100
     9c0:	9103      	str	r1, [sp, #12]
print_thread_id():
/home/aom1/Work/Linux/target/STM32MP1-DK2/buildroot/buildroot/output/build/optee-os-custom/lib/libutils/ext/trace.c:66
     9c2:	f000 fda5 	bl	1510 <trace_ext_get_thread_id>
/home/aom1/Work/Linux/target/STM32MP1-DK2/buildroot/buildroot/output/build/optee-os-custom/lib/libutils/ext/trace.c:68
     9c6:	9903      	ldr	r1, [sp, #12]
     9c8:	2800      	cmp	r0, #0
     9ca:	db40      	blt.n	a4e <trace_vprintf+0x11a>
/home/aom1/Work/Linux/target/STM32MP1-DK2/buildroot/buildroot/output/build/optee-os-custom/lib/libutils/ext/trace.c:69
     9cc:	4a33      	ldr	r2, [pc, #204]	; (a9c <trace_vprintf+0x168>)
     9ce:	2301      	movs	r3, #1
     9d0:	9000      	str	r0, [sp, #0]
     9d2:	447a      	add	r2, pc
/home/aom1/Work/Linux/target/STM32MP1-DK2/buildroot/buildroot/output/build/optee-os-custom/lib/libutils/ext/trace.c:71
     9d4:	4620      	mov	r0, r4
     9d6:	f000 f8d2 	bl	b7e <snprintk>
trace_vprintf():
/home/aom1/Work/Linux/target/STM32MP1-DK2/buildroot/buildroot/output/build/optee-os-custom/lib/libutils/ext/trace.c:144
     9da:	2800      	cmp	r0, #0
     9dc:	db29      	blt.n	a32 <trace_vprintf+0xfe>
/home/aom1/Work/Linux/target/STM32MP1-DK2/buildroot/buildroot/output/build/optee-os-custom/lib/libutils/ext/trace.c:146
     9de:	eb00 040a 	add.w	r4, r0, sl
/home/aom1/Work/Linux/target/STM32MP1-DK2/buildroot/buildroot/output/build/optee-os-custom/lib/libutils/ext/trace.c:148
     9e2:	b167      	cbz	r7, 9fe <trace_vprintf+0xca>
/home/aom1/Work/Linux/target/STM32MP1-DK2/buildroot/buildroot/output/build/optee-os-custom/lib/libutils/ext/trace.c:149
     9e4:	4a2e      	ldr	r2, [pc, #184]	; (aa0 <trace_vprintf+0x16c>)
     9e6:	463b      	mov	r3, r7
     9e8:	1928      	adds	r0, r5, r4
     9ea:	f5c4 7180 	rsb	r1, r4, #256	; 0x100
     9ee:	447a      	add	r2, pc
     9f0:	f8cd 8000 	str.w	r8, [sp]
     9f4:	f000 f8c3 	bl	b7e <snprintk>
/home/aom1/Work/Linux/target/STM32MP1-DK2/buildroot/buildroot/output/build/optee-os-custom/lib/libutils/ext/trace.c:151
     9f8:	2800      	cmp	r0, #0
     9fa:	db1a      	blt.n	a32 <trace_vprintf+0xfe>
/home/aom1/Work/Linux/target/STM32MP1-DK2/buildroot/buildroot/output/build/optee-os-custom/lib/libutils/ext/trace.c:153
     9fc:	4404      	add	r4, r0
/home/aom1/Work/Linux/target/STM32MP1-DK2/buildroot/buildroot/output/build/optee-os-custom/lib/libutils/ext/trace.c:163
     9fe:	1928      	adds	r0, r5, r4
     a00:	f5c4 7180 	rsb	r1, r4, #256	; 0x100
     a04:	9b51      	ldr	r3, [sp, #324]	; 0x144
     a06:	464a      	mov	r2, r9
     a08:	f000 f8b2 	bl	b70 <vsnprintk>
/home/aom1/Work/Linux/target/STM32MP1-DK2/buildroot/buildroot/output/build/optee-os-custom/lib/libutils/ext/trace.c:164
     a0c:	2800      	cmp	r0, #0
/home/aom1/Work/Linux/target/STM32MP1-DK2/buildroot/buildroot/output/build/optee-os-custom/lib/libutils/ext/trace.c:170
     a0e:	f04f 030a 	mov.w	r3, #10
/home/aom1/Work/Linux/target/STM32MP1-DK2/buildroot/buildroot/output/build/optee-os-custom/lib/libutils/ext/trace.c:165
     a12:	bfc8      	it	gt
     a14:	1824      	addgt	r4, r4, r0
/home/aom1/Work/Linux/target/STM32MP1-DK2/buildroot/buildroot/output/build/optee-os-custom/lib/libutils/ext/trace.c:167
     a16:	2cfe      	cmp	r4, #254	; 0xfe
     a18:	bf28      	it	cs
     a1a:	24fe      	movcs	r4, #254	; 0xfe
/home/aom1/Work/Linux/target/STM32MP1-DK2/buildroot/buildroot/output/build/optee-os-custom/lib/libutils/ext/trace.c:170
     a1c:	552b      	strb	r3, [r5, r4]
/home/aom1/Work/Linux/target/STM32MP1-DK2/buildroot/buildroot/output/build/optee-os-custom/lib/libutils/ext/trace.c:171
     a1e:	b114      	cbz	r4, a26 <trace_vprintf+0xf2>
/home/aom1/Work/Linux/target/STM32MP1-DK2/buildroot/buildroot/output/build/optee-os-custom/lib/libutils/ext/trace.c:171 (discriminator 1)
     a20:	5d2b      	ldrb	r3, [r5, r4]
     a22:	2b0a      	cmp	r3, #10
     a24:	d025      	beq.n	a72 <trace_vprintf+0x13e>
/home/aom1/Work/Linux/target/STM32MP1-DK2/buildroot/buildroot/output/build/optee-os-custom/lib/libutils/ext/trace.c:174
     a26:	442c      	add	r4, r5
     a28:	2300      	movs	r3, #0
/home/aom1/Work/Linux/target/STM32MP1-DK2/buildroot/buildroot/output/build/optee-os-custom/lib/libutils/ext/trace.c:176
     a2a:	4628      	mov	r0, r5
/home/aom1/Work/Linux/target/STM32MP1-DK2/buildroot/buildroot/output/build/optee-os-custom/lib/libutils/ext/trace.c:174
     a2c:	70a3      	strb	r3, [r4, #2]
/home/aom1/Work/Linux/target/STM32MP1-DK2/buildroot/buildroot/output/build/optee-os-custom/lib/libutils/ext/trace.c:176
     a2e:	f000 fd65 	bl	14fc <trace_ext_puts>
/home/aom1/Work/Linux/target/STM32MP1-DK2/buildroot/buildroot/output/build/optee-os-custom/lib/libutils/ext/trace.c:113
     a32:	4a1c      	ldr	r2, [pc, #112]	; (aa4 <trace_vprintf+0x170>)
/home/aom1/Work/Linux/target/STM32MP1-DK2/buildroot/buildroot/output/build/optee-os-custom/lib/libutils/ext/trace.c:177
     a34:	4b12      	ldr	r3, [pc, #72]	; (a80 <trace_vprintf+0x14c>)
/home/aom1/Work/Linux/target/STM32MP1-DK2/buildroot/buildroot/output/build/optee-os-custom/lib/libutils/ext/trace.c:113
     a36:	447a      	add	r2, pc
/home/aom1/Work/Linux/target/STM32MP1-DK2/buildroot/buildroot/output/build/optee-os-custom/lib/libutils/ext/trace.c:177
     a38:	58d3      	ldr	r3, [r2, r3]
     a3a:	681a      	ldr	r2, [r3, #0]
     a3c:	9b45      	ldr	r3, [sp, #276]	; 0x114
     a3e:	405a      	eors	r2, r3
     a40:	f04f 0300 	mov.w	r3, #0
     a44:	d017      	beq.n	a76 <trace_vprintf+0x142>
     a46:	f007 fb3e 	bl	80c6 <__stack_chk_fail>
trace_level_to_string():
/home/aom1/Work/Linux/target/STM32MP1-DK2/buildroot/buildroot/output/build/optee-os-custom/lib/libutils/ext/trace.c:49
     a4a:	234d      	movs	r3, #77	; 0x4d
     a4c:	e793      	b.n	976 <trace_vprintf+0x42>
print_thread_id():
/home/aom1/Work/Linux/target/STM32MP1-DK2/buildroot/buildroot/output/build/optee-os-custom/lib/libutils/ext/trace.c:71
     a4e:	4b16      	ldr	r3, [pc, #88]	; (aa8 <trace_vprintf+0x174>)
     a50:	4a16      	ldr	r2, [pc, #88]	; (aac <trace_vprintf+0x178>)
     a52:	447b      	add	r3, pc
     a54:	9300      	str	r3, [sp, #0]
     a56:	2301      	movs	r3, #1
     a58:	447a      	add	r2, pc
     a5a:	e7bb      	b.n	9d4 <trace_vprintf+0xa0>
trace_vprintf():
/home/aom1/Work/Linux/target/STM32MP1-DK2/buildroot/buildroot/output/build/optee-os-custom/lib/libutils/ext/trace.c:157
     a5c:	f1ba 0ffe 	cmp.w	sl, #254	; 0xfe
     a60:	d8e7      	bhi.n	a32 <trace_vprintf+0xfe>
/home/aom1/Work/Linux/target/STM32MP1-DK2/buildroot/buildroot/output/build/optee-os-custom/lib/libutils/ext/trace.c:159
     a62:	2320      	movs	r3, #32
     a64:	f10a 0401 	add.w	r4, sl, #1
     a68:	f805 300a 	strb.w	r3, [r5, sl]
/home/aom1/Work/Linux/target/STM32MP1-DK2/buildroot/buildroot/output/build/optee-os-custom/lib/libutils/ext/trace.c:160
     a6c:	2300      	movs	r3, #0
     a6e:	552b      	strb	r3, [r5, r4]
     a70:	e7c5      	b.n	9fe <trace_vprintf+0xca>
/home/aom1/Work/Linux/target/STM32MP1-DK2/buildroot/buildroot/output/build/optee-os-custom/lib/libutils/ext/trace.c:172
     a72:	3c01      	subs	r4, #1
     a74:	e7d3      	b.n	a1e <trace_vprintf+0xea>
/home/aom1/Work/Linux/target/STM32MP1-DK2/buildroot/buildroot/output/build/optee-os-custom/lib/libutils/ext/trace.c:177
     a76:	b047      	add	sp, #284	; 0x11c
     a78:	e8bd 8ff0 	ldmia.w	sp!, {r4, r5, r6, r7, r8, r9, sl, fp, pc}
     a7c:	00009742 	.word	0x00009742
     a80:	0000000c 	.word	0x0000000c
     a84:	00009738 	.word	0x00009738
     a88:	00000018 	.word	0x00000018
     a8c:	00007cbe 	.word	0x00007cbe
     a90:	00007c96 	.word	0x00007c96
     a94:	00000020 	.word	0x00000020
     a98:	00007c84 	.word	0x00007c84
     a9c:	00007c4c 	.word	0x00007c4c
     aa0:	00007c3b 	.word	0x00007c3b
     aa4:	0000964e 	.word	0x0000964e
     aa8:	000084e2 	.word	0x000084e2
     aac:	00007bcc 	.word	0x00007bcc

00000ab0 <trace_printf>:
trace_printf():
/home/aom1/Work/Linux/target/STM32MP1-DK2/buildroot/buildroot/output/build/optee-os-custom/lib/libutils/ext/trace.c:104
     ab0:	b530      	push	{r4, r5, lr}
     ab2:	b085      	sub	sp, #20
     ab4:	f8df e044 	ldr.w	lr, [pc, #68]	; afc <trace_printf+0x4c>
     ab8:	ac08      	add	r4, sp, #32
     aba:	f8df c044 	ldr.w	ip, [pc, #68]	; b00 <trace_printf+0x50>
     abe:	44fe      	add	lr, pc
     ac0:	f854 5b04 	ldr.w	r5, [r4], #4
     ac4:	f85e c00c 	ldr.w	ip, [lr, ip]
     ac8:	f8dc c000 	ldr.w	ip, [ip]
     acc:	f8cd c00c 	str.w	ip, [sp, #12]
     ad0:	f04f 0c00 	mov.w	ip, #0
/home/aom1/Work/Linux/target/STM32MP1-DK2/buildroot/buildroot/output/build/optee-os-custom/lib/libutils/ext/trace.c:108
     ad4:	9401      	str	r4, [sp, #4]
     ad6:	9500      	str	r5, [sp, #0]
/home/aom1/Work/Linux/target/STM32MP1-DK2/buildroot/buildroot/output/build/optee-os-custom/lib/libutils/ext/trace.c:107
     ad8:	9402      	str	r4, [sp, #8]
/home/aom1/Work/Linux/target/STM32MP1-DK2/buildroot/buildroot/output/build/optee-os-custom/lib/libutils/ext/trace.c:108
     ada:	f7ff ff2b 	bl	934 <trace_vprintf>
/home/aom1/Work/Linux/target/STM32MP1-DK2/buildroot/buildroot/output/build/optee-os-custom/lib/libutils/ext/trace.c:104
     ade:	4a09      	ldr	r2, [pc, #36]	; (b04 <trace_printf+0x54>)
/home/aom1/Work/Linux/target/STM32MP1-DK2/buildroot/buildroot/output/build/optee-os-custom/lib/libutils/ext/trace.c:110
     ae0:	4b07      	ldr	r3, [pc, #28]	; (b00 <trace_printf+0x50>)
/home/aom1/Work/Linux/target/STM32MP1-DK2/buildroot/buildroot/output/build/optee-os-custom/lib/libutils/ext/trace.c:104
     ae2:	447a      	add	r2, pc
/home/aom1/Work/Linux/target/STM32MP1-DK2/buildroot/buildroot/output/build/optee-os-custom/lib/libutils/ext/trace.c:110
     ae4:	58d3      	ldr	r3, [r2, r3]
     ae6:	681a      	ldr	r2, [r3, #0]
     ae8:	9b03      	ldr	r3, [sp, #12]
     aea:	405a      	eors	r2, r3
     aec:	f04f 0300 	mov.w	r3, #0
     af0:	d001      	beq.n	af6 <trace_printf+0x46>
     af2:	f007 fae8 	bl	80c6 <__stack_chk_fail>
     af6:	b005      	add	sp, #20
     af8:	bd30      	pop	{r4, r5, pc}
     afa:	bf00      	nop
     afc:	000095c6 	.word	0x000095c6
     b00:	0000000c 	.word	0x0000000c
     b04:	000095a2 	.word	0x000095a2

00000b08 <dhex_dump>:
dhex_dump():
/home/aom1/Work/Linux/target/STM32MP1-DK2/buildroot/buildroot/output/build/optee-os-custom/lib/libutils/ext/trace.c:287
     b08:	4770      	bx	lr
     b0a:	bf00      	nop

00000b0c <__vsnprintf>:
__vsnprintf():
/home/aom1/Work/Linux/target/STM32MP1-DK2/buildroot/buildroot/output/build/optee-os-custom/lib/libutils/ext/snprintk.c:138
     b0c:	b57f      	push	{r0, r1, r2, r3, r4, r5, r6, lr}
     b0e:	460d      	mov	r5, r1
     b10:	4914      	ldr	r1, [pc, #80]	; (b64 <__vsnprintf+0x58>)
     b12:	4604      	mov	r4, r0
/home/aom1/Work/Linux/target/STM32MP1-DK2/buildroot/buildroot/output/build/optee-os-custom/lib/libutils/ext/snprintk.c:142
     b14:	1966      	adds	r6, r4, r5
/home/aom1/Work/Linux/target/STM32MP1-DK2/buildroot/buildroot/output/build/optee-os-custom/lib/libutils/ext/snprintk.c:138
     b16:	4610      	mov	r0, r2
     b18:	4479      	add	r1, pc
     b1a:	4a13      	ldr	r2, [pc, #76]	; (b68 <__vsnprintf+0x5c>)
     b1c:	588a      	ldr	r2, [r1, r2]
/home/aom1/Work/Linux/target/STM32MP1-DK2/buildroot/buildroot/output/build/optee-os-custom/lib/libutils/ext/snprintk.c:143
     b1e:	a902      	add	r1, sp, #8
/home/aom1/Work/Linux/target/STM32MP1-DK2/buildroot/buildroot/output/build/optee-os-custom/lib/libutils/ext/snprintk.c:138
     b20:	6812      	ldr	r2, [r2, #0]
     b22:	9203      	str	r2, [sp, #12]
     b24:	f04f 0200 	mov.w	r2, #0
/home/aom1/Work/Linux/target/STM32MP1-DK2/buildroot/buildroot/output/build/optee-os-custom/lib/libutils/ext/snprintk.c:143
     b28:	f89d 2020 	ldrb.w	r2, [sp, #32]
/home/aom1/Work/Linux/target/STM32MP1-DK2/buildroot/buildroot/output/build/optee-os-custom/lib/libutils/ext/snprintk.c:142
     b2c:	9602      	str	r6, [sp, #8]
/home/aom1/Work/Linux/target/STM32MP1-DK2/buildroot/buildroot/output/build/optee-os-custom/lib/libutils/ext/snprintk.c:143
     b2e:	9200      	str	r2, [sp, #0]
     b30:	4622      	mov	r2, r4
     b32:	f000 f851 	bl	bd8 <kprintf.constprop.0>
/home/aom1/Work/Linux/target/STM32MP1-DK2/buildroot/buildroot/output/build/optee-os-custom/lib/libutils/ext/snprintk.c:144
     b36:	b13c      	cbz	r4, b48 <__vsnprintf+0x3c>
/home/aom1/Work/Linux/target/STM32MP1-DK2/buildroot/buildroot/output/build/optee-os-custom/lib/libutils/ext/snprintk.c:144 (discriminator 1)
     b38:	b135      	cbz	r5, b48 <__vsnprintf+0x3c>
/home/aom1/Work/Linux/target/STM32MP1-DK2/buildroot/buildroot/output/build/optee-os-custom/lib/libutils/ext/snprintk.c:146
     b3a:	42a8      	cmp	r0, r5
     b3c:	f04f 0300 	mov.w	r3, #0
/home/aom1/Work/Linux/target/STM32MP1-DK2/buildroot/buildroot/output/build/optee-os-custom/lib/libutils/ext/snprintk.c:147
     b40:	bf2c      	ite	cs
     b42:	f806 3c01 	strbcs.w	r3, [r6, #-1]
/home/aom1/Work/Linux/target/STM32MP1-DK2/buildroot/buildroot/output/build/optee-os-custom/lib/libutils/ext/snprintk.c:149
     b46:	5423      	strbcc	r3, [r4, r0]
/home/aom1/Work/Linux/target/STM32MP1-DK2/buildroot/buildroot/output/build/optee-os-custom/lib/libutils/ext/snprintk.c:138
     b48:	4a08      	ldr	r2, [pc, #32]	; (b6c <__vsnprintf+0x60>)
/home/aom1/Work/Linux/target/STM32MP1-DK2/buildroot/buildroot/output/build/optee-os-custom/lib/libutils/ext/snprintk.c:152
     b4a:	4b07      	ldr	r3, [pc, #28]	; (b68 <__vsnprintf+0x5c>)
/home/aom1/Work/Linux/target/STM32MP1-DK2/buildroot/buildroot/output/build/optee-os-custom/lib/libutils/ext/snprintk.c:138
     b4c:	447a      	add	r2, pc
/home/aom1/Work/Linux/target/STM32MP1-DK2/buildroot/buildroot/output/build/optee-os-custom/lib/libutils/ext/snprintk.c:152
     b4e:	58d3      	ldr	r3, [r2, r3]
     b50:	681a      	ldr	r2, [r3, #0]
     b52:	9b03      	ldr	r3, [sp, #12]
     b54:	405a      	eors	r2, r3
     b56:	f04f 0300 	mov.w	r3, #0
     b5a:	d001      	beq.n	b60 <__vsnprintf+0x54>
     b5c:	f007 fab3 	bl	80c6 <__stack_chk_fail>
     b60:	b004      	add	sp, #16
     b62:	bd70      	pop	{r4, r5, r6, pc}
     b64:	0000956c 	.word	0x0000956c
     b68:	0000000c 	.word	0x0000000c
     b6c:	00009538 	.word	0x00009538

00000b70 <vsnprintk>:
vsnprintk():
/home/aom1/Work/Linux/target/STM32MP1-DK2/buildroot/buildroot/output/build/optee-os-custom/lib/libutils/ext/snprintk.c:130
     b70:	b513      	push	{r0, r1, r4, lr}
/home/aom1/Work/Linux/target/STM32MP1-DK2/buildroot/buildroot/output/build/optee-os-custom/lib/libutils/ext/snprintk.c:131
     b72:	2401      	movs	r4, #1
     b74:	9400      	str	r4, [sp, #0]
     b76:	f7ff ffc9 	bl	b0c <__vsnprintf>
/home/aom1/Work/Linux/target/STM32MP1-DK2/buildroot/buildroot/output/build/optee-os-custom/lib/libutils/ext/snprintk.c:132
     b7a:	b002      	add	sp, #8
     b7c:	bd10      	pop	{r4, pc}

00000b7e <snprintk>:
snprintk():
/home/aom1/Work/Linux/target/STM32MP1-DK2/buildroot/buildroot/output/build/optee-os-custom/lib/libutils/ext/snprintk.c:113
     b7e:	b40c      	push	{r2, r3}
     b80:	b507      	push	{r0, r1, r2, lr}
     b82:	ab04      	add	r3, sp, #16
     b84:	f8df e044 	ldr.w	lr, [pc, #68]	; bcc <snprintk+0x4e>
     b88:	f8df c044 	ldr.w	ip, [pc, #68]	; bd0 <snprintk+0x52>
     b8c:	44fe      	add	lr, pc
     b8e:	f853 2b04 	ldr.w	r2, [r3], #4
     b92:	f85e c00c 	ldr.w	ip, [lr, ip]
     b96:	f8dc c000 	ldr.w	ip, [ip]
     b9a:	f8cd c004 	str.w	ip, [sp, #4]
     b9e:	f04f 0c00 	mov.w	ip, #0
/home/aom1/Work/Linux/target/STM32MP1-DK2/buildroot/buildroot/output/build/optee-os-custom/lib/libutils/ext/snprintk.c:117
     ba2:	9300      	str	r3, [sp, #0]
/home/aom1/Work/Linux/target/STM32MP1-DK2/buildroot/buildroot/output/build/optee-os-custom/lib/libutils/ext/snprintk.c:118
     ba4:	f7ff ffe4 	bl	b70 <vsnprintk>
/home/aom1/Work/Linux/target/STM32MP1-DK2/buildroot/buildroot/output/build/optee-os-custom/lib/libutils/ext/snprintk.c:113
     ba8:	4a0a      	ldr	r2, [pc, #40]	; (bd4 <snprintk+0x56>)
/home/aom1/Work/Linux/target/STM32MP1-DK2/buildroot/buildroot/output/build/optee-os-custom/lib/libutils/ext/snprintk.c:122
     baa:	4b09      	ldr	r3, [pc, #36]	; (bd0 <snprintk+0x52>)
/home/aom1/Work/Linux/target/STM32MP1-DK2/buildroot/buildroot/output/build/optee-os-custom/lib/libutils/ext/snprintk.c:113
     bac:	447a      	add	r2, pc
/home/aom1/Work/Linux/target/STM32MP1-DK2/buildroot/buildroot/output/build/optee-os-custom/lib/libutils/ext/snprintk.c:122
     bae:	58d3      	ldr	r3, [r2, r3]
     bb0:	681a      	ldr	r2, [r3, #0]
     bb2:	9b01      	ldr	r3, [sp, #4]
     bb4:	405a      	eors	r2, r3
     bb6:	f04f 0300 	mov.w	r3, #0
     bba:	d001      	beq.n	bc0 <snprintk+0x42>
     bbc:	f007 fa83 	bl	80c6 <__stack_chk_fail>
     bc0:	b003      	add	sp, #12
     bc2:	f85d eb04 	ldr.w	lr, [sp], #4
     bc6:	b002      	add	sp, #8
     bc8:	4770      	bx	lr
     bca:	bf00      	nop
     bcc:	000094f8 	.word	0x000094f8
     bd0:	0000000c 	.word	0x0000000c
     bd4:	000094d8 	.word	0x000094d8

00000bd8 <kprintf.constprop.0>:
kprintf():
/home/aom1/Work/Linux/target/STM32MP1-DK2/buildroot/buildroot/output/build/optee-os-custom/lib/libutils/ext/snprintk.c:242
     bd8:	e92d 4ff0 	stmdb	sp!, {r4, r5, r6, r7, r8, r9, sl, fp, lr}
     bdc:	b0a1      	sub	sp, #132	; 0x84
     bde:	4690      	mov	r8, r2
     be0:	461f      	mov	r7, r3
     be2:	900b      	str	r0, [sp, #44]	; 0x2c
     be4:	f89d 20a8 	ldrb.w	r2, [sp, #168]	; 0xa8
     be8:	f8df 06f0 	ldr.w	r0, [pc, #1776]	; 12dc <kprintf.constprop.0+0x704>
     bec:	9213      	str	r2, [sp, #76]	; 0x4c
     bee:	4478      	add	r0, pc
     bf0:	f8df 26ec 	ldr.w	r2, [pc, #1772]	; 12e0 <kprintf.constprop.0+0x708>
     bf4:	5882      	ldr	r2, [r0, r2]
     bf6:	6812      	ldr	r2, [r2, #0]
     bf8:	921f      	str	r2, [sp, #124]	; 0x7c
     bfa:	f04f 0200 	mov.w	r2, #0
/home/aom1/Work/Linux/target/STM32MP1-DK2/buildroot/buildroot/output/build/optee-os-custom/lib/libutils/ext/snprintk.c:264
     bfe:	910e      	str	r1, [sp, #56]	; 0x38
     c00:	b1e1      	cbz	r1, c3c <kprintf.constprop.0+0x64>
/home/aom1/Work/Linux/target/STM32MP1-DK2/buildroot/buildroot/output/build/optee-os-custom/lib/libutils/ext/snprintk.c:265
     c02:	680b      	ldr	r3, [r1, #0]
/home/aom1/Work/Linux/target/STM32MP1-DK2/buildroot/buildroot/output/build/optee-os-custom/lib/libutils/ext/snprintk.c:267
     c04:	9310      	str	r3, [sp, #64]	; 0x40
/home/aom1/Work/Linux/target/STM32MP1-DK2/buildroot/buildroot/output/build/optee-os-custom/lib/libutils/ext/snprintk.c:275
     c06:	2300      	movs	r3, #0
     c08:	9311      	str	r3, [sp, #68]	; 0x44
/home/aom1/Work/Linux/target/STM32MP1-DK2/buildroot/buildroot/output/build/optee-os-custom/lib/libutils/ext/snprintk.c:273
     c0a:	930d      	str	r3, [sp, #52]	; 0x34
/home/aom1/Work/Linux/target/STM32MP1-DK2/buildroot/buildroot/output/build/optee-os-custom/lib/libutils/ext/snprintk.c:281
     c0c:	9b0b      	ldr	r3, [sp, #44]	; 0x2c
     c0e:	781b      	ldrb	r3, [r3, #0]
     c10:	2b25      	cmp	r3, #37	; 0x25
     c12:	d026      	beq.n	c62 <kprintf.constprop.0+0x8a>
     c14:	b9a3      	cbnz	r3, c40 <kprintf.constprop.0+0x68>
/home/aom1/Work/Linux/target/STM32MP1-DK2/buildroot/buildroot/output/build/optee-os-custom/lib/libutils/ext/snprintk.c:619
     c16:	9b0e      	ldr	r3, [sp, #56]	; 0x38
     c18:	b10b      	cbz	r3, c1e <kprintf.constprop.0+0x46>
/home/aom1/Work/Linux/target/STM32MP1-DK2/buildroot/buildroot/output/build/optee-os-custom/lib/libutils/ext/snprintk.c:620
     c1a:	f8c3 8000 	str.w	r8, [r3]
/home/aom1/Work/Linux/target/STM32MP1-DK2/buildroot/buildroot/output/build/optee-os-custom/lib/libutils/ext/snprintk.c:242
     c1e:	f8df 26c4 	ldr.w	r2, [pc, #1732]	; 12e4 <kprintf.constprop.0+0x70c>
/home/aom1/Work/Linux/target/STM32MP1-DK2/buildroot/buildroot/output/build/optee-os-custom/lib/libutils/ext/snprintk.c:622
     c22:	f8df 36bc 	ldr.w	r3, [pc, #1724]	; 12e0 <kprintf.constprop.0+0x708>
/home/aom1/Work/Linux/target/STM32MP1-DK2/buildroot/buildroot/output/build/optee-os-custom/lib/libutils/ext/snprintk.c:242
     c26:	447a      	add	r2, pc
/home/aom1/Work/Linux/target/STM32MP1-DK2/buildroot/buildroot/output/build/optee-os-custom/lib/libutils/ext/snprintk.c:622
     c28:	58d3      	ldr	r3, [r2, r3]
     c2a:	681a      	ldr	r2, [r3, #0]
     c2c:	9b1f      	ldr	r3, [sp, #124]	; 0x7c
     c2e:	405a      	eors	r2, r3
     c30:	f04f 0300 	mov.w	r3, #0
     c34:	f000 834d 	beq.w	12d2 <kprintf.constprop.0+0x6fa>
     c38:	f007 fa45 	bl	80c6 <__stack_chk_fail>
/home/aom1/Work/Linux/target/STM32MP1-DK2/buildroot/buildroot/output/build/optee-os-custom/lib/libutils/ext/snprintk.c:267
     c3c:	9b0e      	ldr	r3, [sp, #56]	; 0x38
     c3e:	e7e1      	b.n	c04 <kprintf.constprop.0+0x2c>
/home/aom1/Work/Linux/target/STM32MP1-DK2/buildroot/buildroot/output/build/optee-os-custom/lib/libutils/ext/snprintk.c:282
     c40:	9a0d      	ldr	r2, [sp, #52]	; 0x34
     c42:	3201      	adds	r2, #1
     c44:	920d      	str	r2, [sp, #52]	; 0x34
/home/aom1/Work/Linux/target/STM32MP1-DK2/buildroot/buildroot/output/build/optee-os-custom/lib/libutils/ext/snprintk.c:283
     c46:	f1b8 0f00 	cmp.w	r8, #0
     c4a:	d006      	beq.n	c5a <kprintf.constprop.0+0x82>
     c4c:	9a0e      	ldr	r2, [sp, #56]	; 0x38
     c4e:	b112      	cbz	r2, c56 <kprintf.constprop.0+0x7e>
     c50:	9a10      	ldr	r2, [sp, #64]	; 0x40
     c52:	4590      	cmp	r8, r2
     c54:	d201      	bcs.n	c5a <kprintf.constprop.0+0x82>
     c56:	f808 3b01 	strb.w	r3, [r8], #1
/home/aom1/Work/Linux/target/STM32MP1-DK2/buildroot/buildroot/output/build/optee-os-custom/lib/libutils/ext/snprintk.c:281
     c5a:	9b0b      	ldr	r3, [sp, #44]	; 0x2c
     c5c:	3301      	adds	r3, #1
     c5e:	930b      	str	r3, [sp, #44]	; 0x2c
     c60:	e7d4      	b.n	c0c <kprintf.constprop.0+0x34>
/home/aom1/Work/Linux/target/STM32MP1-DK2/buildroot/buildroot/output/build/optee-os-custom/lib/libutils/ext/snprintk.c:288
     c62:	980b      	ldr	r0, [sp, #44]	; 0x2c
/home/aom1/Work/Linux/target/STM32MP1-DK2/buildroot/buildroot/output/build/optee-os-custom/lib/libutils/ext/snprintk.c:294
     c64:	f04f 0900 	mov.w	r9, #0
/home/aom1/Work/Linux/target/STM32MP1-DK2/buildroot/buildroot/output/build/optee-os-custom/lib/libutils/ext/snprintk.c:292
     c68:	f8cd 903c 	str.w	r9, [sp, #60]	; 0x3c
/home/aom1/Work/Linux/target/STM32MP1-DK2/buildroot/buildroot/output/build/optee-os-custom/lib/libutils/ext/snprintk.c:288
     c6c:	463b      	mov	r3, r7
     c6e:	3001      	adds	r0, #1
/home/aom1/Work/Linux/target/STM32MP1-DK2/buildroot/buildroot/output/build/optee-os-custom/lib/libutils/ext/snprintk.c:293
     c70:	f04f 3bff 	mov.w	fp, #4294967295	; 0xffffffff
/home/aom1/Work/Linux/target/STM32MP1-DK2/buildroot/buildroot/output/build/optee-os-custom/lib/libutils/ext/snprintk.c:290
     c74:	464d      	mov	r5, r9
/home/aom1/Work/Linux/target/STM32MP1-DK2/buildroot/buildroot/output/build/optee-os-custom/lib/libutils/ext/snprintk.c:296
     c76:	4602      	mov	r2, r0
     c78:	f812 1b01 	ldrb.w	r1, [r2], #1
     c7c:	910c      	str	r1, [sp, #48]	; 0x30
     c7e:	920b      	str	r2, [sp, #44]	; 0x2c
/home/aom1/Work/Linux/target/STM32MP1-DK2/buildroot/buildroot/output/build/optee-os-custom/lib/libutils/ext/snprintk.c:297
     c80:	9a0c      	ldr	r2, [sp, #48]	; 0x30
     c82:	2a39      	cmp	r2, #57	; 0x39
     c84:	dc65      	bgt.n	d52 <kprintf.constprop.0+0x17a>
     c86:	2a1f      	cmp	r2, #31
     c88:	f340 82c8 	ble.w	121c <kprintf.constprop.0+0x644>
     c8c:	9a0c      	ldr	r2, [sp, #48]	; 0x30
     c8e:	3a20      	subs	r2, #32
     c90:	2a19      	cmp	r2, #25
     c92:	d862      	bhi.n	d5a <kprintf.constprop.0+0x182>
     c94:	e8df f002 	tbb	[pc, r2]
     c98:	6c616166 	.word	0x6c616166
     c9c:	61616161 	.word	0x61616161
     ca0:	0d6f6161 	.word	0x0d6f6161
     ca4:	61797661 	.word	0x61797661
     ca8:	97979794 	.word	0x97979794
     cac:	97979797 	.word	0x97979797
     cb0:	9797      	.short	0x9797
/home/aom1/Work/Linux/target/STM32MP1-DK2/buildroot/buildroot/output/build/optee-os-custom/lib/libutils/ext/snprintk.c:325
     cb2:	f04f 092b 	mov.w	r9, #43	; 0x2b
/home/aom1/Work/Linux/target/STM32MP1-DK2/buildroot/buildroot/output/build/optee-os-custom/lib/libutils/ext/snprintk.c:317
     cb6:	980b      	ldr	r0, [sp, #44]	; 0x2c
     cb8:	e7dd      	b.n	c76 <kprintf.constprop.0+0x9e>
/home/aom1/Work/Linux/target/STM32MP1-DK2/buildroot/buildroot/output/build/optee-os-custom/lib/libutils/ext/snprintk.c:297
     cba:	2a36      	cmp	r2, #54	; 0x36
     cbc:	d84d      	bhi.n	d5a <kprintf.constprop.0+0x182>
     cbe:	e8df f012 	tbh	[pc, r2, lsl #1]
     cc2:	00b8      	.short	0x00b8
     cc4:	004c004c 	.word	0x004c004c
     cc8:	004c004c 	.word	0x004c004c
     ccc:	004c004c 	.word	0x004c004c
     cd0:	004c004c 	.word	0x004c004c
     cd4:	004c004c 	.word	0x004c004c
     cd8:	004c017b 	.word	0x004c017b
     cdc:	004c004c 	.word	0x004c004c
     ce0:	004c004c 	.word	0x004c004c
     ce4:	004c0224 	.word	0x004c0224
     ce8:	025e004c 	.word	0x025e004c
     cec:	004c004c 	.word	0x004c004c
     cf0:	004c004c 	.word	0x004c004c
     cf4:	004c004c 	.word	0x004c004c
     cf8:	004c004c 	.word	0x004c004c
     cfc:	004c004c 	.word	0x004c004c
     d00:	00ba00ac 	.word	0x00ba00ac
     d04:	004c004c 	.word	0x004c004c
     d08:	0093004c 	.word	0x0093004c
     d0c:	009600ba 	.word	0x009600ba
     d10:	0099004c 	.word	0x0099004c
     d14:	015e004c 	.word	0x015e004c
     d18:	01b7017d 	.word	0x01b7017d
     d1c:	004c00a0 	.word	0x004c00a0
     d20:	00a60206 	.word	0x00a60206
     d24:	004c0226 	.word	0x004c0226
     d28:	0037004c 	.word	0x0037004c
     d2c:	00a9004c 	.word	0x00a9004c
/home/aom1/Work/Linux/target/STM32MP1-DK2/buildroot/buildroot/output/build/optee-os-custom/lib/libutils/ext/snprintk.c:480
     d30:	f8df 25b4 	ldr.w	r2, [pc, #1460]	; 12e8 <kprintf.constprop.0+0x710>
     d34:	447a      	add	r2, pc
     d36:	3211      	adds	r2, #17
/home/aom1/Work/Linux/target/STM32MP1-DK2/buildroot/buildroot/output/build/optee-os-custom/lib/libutils/ext/snprintk.c:477
     d38:	9211      	str	r2, [sp, #68]	; 0x44
/home/aom1/Work/Linux/target/STM32MP1-DK2/buildroot/buildroot/output/build/optee-os-custom/lib/libutils/ext/snprintk.c:481
     d3a:	f015 0180 	ands.w	r1, r5, #128	; 0x80
     d3e:	f000 8221 	beq.w	1184 <kprintf.constprop.0+0x5ac>
     d42:	3307      	adds	r3, #7
     d44:	f023 0307 	bic.w	r3, r3, #7
     d48:	461f      	mov	r7, r3
     d4a:	685e      	ldr	r6, [r3, #4]
     d4c:	f857 4b08 	ldr.w	r4, [r7], #8
     d50:	e225      	b.n	119e <kprintf.constprop.0+0x5c6>
/home/aom1/Work/Linux/target/STM32MP1-DK2/buildroot/buildroot/output/build/optee-os-custom/lib/libutils/ext/snprintk.c:297
     d52:	9a0c      	ldr	r2, [sp, #48]	; 0x30
     d54:	3a44      	subs	r2, #68	; 0x44
     d56:	2a36      	cmp	r2, #54	; 0x36
     d58:	d9af      	bls.n	cba <kprintf.constprop.0+0xe2>
/home/aom1/Work/Linux/target/STM32MP1-DK2/buildroot/buildroot/output/build/optee-os-custom/lib/libutils/ext/snprintk.c:551
     d5a:	9a0c      	ldr	r2, [sp, #48]	; 0x30
/home/aom1/Work/Linux/target/STM32MP1-DK2/buildroot/buildroot/output/build/optee-os-custom/lib/libutils/ext/snprintk.c:554
     d5c:	461f      	mov	r7, r3
/home/aom1/Work/Linux/target/STM32MP1-DK2/buildroot/buildroot/output/build/optee-os-custom/lib/libutils/ext/snprintk.c:551
     d5e:	f88d 2054 	strb.w	r2, [sp, #84]	; 0x54
/home/aom1/Work/Linux/target/STM32MP1-DK2/buildroot/buildroot/output/build/optee-os-custom/lib/libutils/ext/snprintk.c:554
     d62:	e05f      	b.n	e24 <kprintf.constprop.0+0x24c>
/home/aom1/Work/Linux/target/STM32MP1-DK2/buildroot/buildroot/output/build/optee-os-custom/lib/libutils/ext/snprintk.c:305
     d64:	f1b9 0f00 	cmp.w	r9, #0
     d68:	bf08      	it	eq
     d6a:	f04f 0920 	moveq.w	r9, #32
     d6e:	e7a2      	b.n	cb6 <kprintf.constprop.0+0xde>
/home/aom1/Work/Linux/target/STM32MP1-DK2/buildroot/buildroot/output/build/optee-os-custom/lib/libutils/ext/snprintk.c:308
     d70:	f045 0501 	orr.w	r5, r5, #1
/home/aom1/Work/Linux/target/STM32MP1-DK2/buildroot/buildroot/output/build/optee-os-custom/lib/libutils/ext/snprintk.c:309
     d74:	e79f      	b.n	cb6 <kprintf.constprop.0+0xde>
/home/aom1/Work/Linux/target/STM32MP1-DK2/buildroot/buildroot/output/build/optee-os-custom/lib/libutils/ext/snprintk.c:317
     d76:	f853 2b04 	ldr.w	r2, [r3], #4
     d7a:	920f      	str	r2, [sp, #60]	; 0x3c
     d7c:	2a00      	cmp	r2, #0
     d7e:	da9a      	bge.n	cb6 <kprintf.constprop.0+0xde>
/home/aom1/Work/Linux/target/STM32MP1-DK2/buildroot/buildroot/output/build/optee-os-custom/lib/libutils/ext/snprintk.c:319
     d80:	4252      	negs	r2, r2
     d82:	920f      	str	r2, [sp, #60]	; 0x3c
/home/aom1/Work/Linux/target/STM32MP1-DK2/buildroot/buildroot/output/build/optee-os-custom/lib/libutils/ext/snprintk.c:322
     d84:	f045 0504 	orr.w	r5, r5, #4
/home/aom1/Work/Linux/target/STM32MP1-DK2/buildroot/buildroot/output/build/optee-os-custom/lib/libutils/ext/snprintk.c:323
     d88:	e795      	b.n	cb6 <kprintf.constprop.0+0xde>
/home/aom1/Work/Linux/target/STM32MP1-DK2/buildroot/buildroot/output/build/optee-os-custom/lib/libutils/ext/snprintk.c:328
     d8a:	980b      	ldr	r0, [sp, #44]	; 0x2c
     d8c:	f810 2b01 	ldrb.w	r2, [r0], #1
     d90:	920c      	str	r2, [sp, #48]	; 0x30
     d92:	2a2a      	cmp	r2, #42	; 0x2a
     d94:	d111      	bne.n	dba <kprintf.constprop.0+0x1e2>
/home/aom1/Work/Linux/target/STM32MP1-DK2/buildroot/buildroot/output/build/optee-os-custom/lib/libutils/ext/snprintk.c:330
     d96:	f853 2b04 	ldr.w	r2, [r3], #4
/home/aom1/Work/Linux/target/STM32MP1-DK2/buildroot/buildroot/output/build/optee-os-custom/lib/libutils/ext/snprintk.c:328
     d9a:	900b      	str	r0, [sp, #44]	; 0x2c
/home/aom1/Work/Linux/target/STM32MP1-DK2/buildroot/buildroot/output/build/optee-os-custom/lib/libutils/ext/snprintk.c:330
     d9c:	ea42 7be2 	orr.w	fp, r2, r2, asr #31
/home/aom1/Work/Linux/target/STM32MP1-DK2/buildroot/buildroot/output/build/optee-os-custom/lib/libutils/ext/snprintk.c:331
     da0:	e789      	b.n	cb6 <kprintf.constprop.0+0xde>
/home/aom1/Work/Linux/target/STM32MP1-DK2/buildroot/buildroot/output/build/optee-os-custom/lib/libutils/ext/snprintk.c:335
     da2:	210a      	movs	r1, #10
     da4:	fb01 2b0b 	mla	fp, r1, fp, r2
/home/aom1/Work/Linux/target/STM32MP1-DK2/buildroot/buildroot/output/build/optee-os-custom/lib/libutils/ext/snprintk.c:336
     da8:	f810 2b01 	ldrb.w	r2, [r0], #1
     dac:	920c      	str	r2, [sp, #48]	; 0x30
/home/aom1/Work/Linux/target/STM32MP1-DK2/buildroot/buildroot/output/build/optee-os-custom/lib/libutils/ext/snprintk.c:334
     dae:	9a0c      	ldr	r2, [sp, #48]	; 0x30
     db0:	3a30      	subs	r2, #48	; 0x30
     db2:	2a09      	cmp	r2, #9
     db4:	d9f5      	bls.n	da2 <kprintf.constprop.0+0x1ca>
/home/aom1/Work/Linux/target/STM32MP1-DK2/buildroot/buildroot/output/build/optee-os-custom/lib/libutils/ext/snprintk.c:290
     db6:	900b      	str	r0, [sp, #44]	; 0x2c
     db8:	e762      	b.n	c80 <kprintf.constprop.0+0xa8>
/home/aom1/Work/Linux/target/STM32MP1-DK2/buildroot/buildroot/output/build/optee-os-custom/lib/libutils/ext/snprintk.c:333
     dba:	f04f 0b00 	mov.w	fp, #0
     dbe:	e7f6      	b.n	dae <kprintf.constprop.0+0x1d6>
/home/aom1/Work/Linux/target/STM32MP1-DK2/buildroot/buildroot/output/build/optee-os-custom/lib/libutils/ext/snprintk.c:346
     dc0:	f445 6580 	orr.w	r5, r5, #1024	; 0x400
/home/aom1/Work/Linux/target/STM32MP1-DK2/buildroot/buildroot/output/build/optee-os-custom/lib/libutils/ext/snprintk.c:347
     dc4:	e777      	b.n	cb6 <kprintf.constprop.0+0xde>
/home/aom1/Work/Linux/target/STM32MP1-DK2/buildroot/buildroot/output/build/optee-os-custom/lib/libutils/ext/snprintk.c:297
     dc6:	980b      	ldr	r0, [sp, #44]	; 0x2c
     dc8:	2200      	movs	r2, #0
     dca:	920f      	str	r2, [sp, #60]	; 0x3c
/home/aom1/Work/Linux/target/STM32MP1-DK2/buildroot/buildroot/output/build/optee-os-custom/lib/libutils/ext/snprintk.c:352
     dcc:	9a0c      	ldr	r2, [sp, #48]	; 0x30
     dce:	240a      	movs	r4, #10
     dd0:	990f      	ldr	r1, [sp, #60]	; 0x3c
     dd2:	3a30      	subs	r2, #48	; 0x30
     dd4:	fb04 2201 	mla	r2, r4, r1, r2
     dd8:	920f      	str	r2, [sp, #60]	; 0x3c
/home/aom1/Work/Linux/target/STM32MP1-DK2/buildroot/buildroot/output/build/optee-os-custom/lib/libutils/ext/snprintk.c:353
     dda:	f810 2b01 	ldrb.w	r2, [r0], #1
     dde:	920c      	str	r2, [sp, #48]	; 0x30
/home/aom1/Work/Linux/target/STM32MP1-DK2/buildroot/buildroot/output/build/optee-os-custom/lib/libutils/ext/snprintk.c:354
     de0:	3a30      	subs	r2, #48	; 0x30
     de2:	2a09      	cmp	r2, #9
     de4:	d9f2      	bls.n	dcc <kprintf.constprop.0+0x1f4>
     de6:	e7e6      	b.n	db6 <kprintf.constprop.0+0x1de>
/home/aom1/Work/Linux/target/STM32MP1-DK2/buildroot/buildroot/output/build/optee-os-custom/lib/libutils/ext/snprintk.c:358
     de8:	f045 0540 	orr.w	r5, r5, #64	; 0x40
/home/aom1/Work/Linux/target/STM32MP1-DK2/buildroot/buildroot/output/build/optee-os-custom/lib/libutils/ext/snprintk.c:359
     dec:	e763      	b.n	cb6 <kprintf.constprop.0+0xde>
/home/aom1/Work/Linux/target/STM32MP1-DK2/buildroot/buildroot/output/build/optee-os-custom/lib/libutils/ext/snprintk.c:361
     dee:	f045 0580 	orr.w	r5, r5, #128	; 0x80
/home/aom1/Work/Linux/target/STM32MP1-DK2/buildroot/buildroot/output/build/optee-os-custom/lib/libutils/ext/snprintk.c:362
     df2:	e760      	b.n	cb6 <kprintf.constprop.0+0xde>
/home/aom1/Work/Linux/target/STM32MP1-DK2/buildroot/buildroot/output/build/optee-os-custom/lib/libutils/ext/snprintk.c:364
     df4:	9a0b      	ldr	r2, [sp, #44]	; 0x2c
     df6:	7812      	ldrb	r2, [r2, #0]
     df8:	2a6c      	cmp	r2, #108	; 0x6c
     dfa:	d105      	bne.n	e08 <kprintf.constprop.0+0x230>
/home/aom1/Work/Linux/target/STM32MP1-DK2/buildroot/buildroot/output/build/optee-os-custom/lib/libutils/ext/snprintk.c:328
     dfc:	9a0b      	ldr	r2, [sp, #44]	; 0x2c
     dfe:	3201      	adds	r2, #1
     e00:	920b      	str	r2, [sp, #44]	; 0x2c
/home/aom1/Work/Linux/target/STM32MP1-DK2/buildroot/buildroot/output/build/optee-os-custom/lib/libutils/ext/snprintk.c:372
     e02:	f045 0520 	orr.w	r5, r5, #32
/home/aom1/Work/Linux/target/STM32MP1-DK2/buildroot/buildroot/output/build/optee-os-custom/lib/libutils/ext/snprintk.c:373
     e06:	e756      	b.n	cb6 <kprintf.constprop.0+0xde>
/home/aom1/Work/Linux/target/STM32MP1-DK2/buildroot/buildroot/output/build/optee-os-custom/lib/libutils/ext/snprintk.c:368
     e08:	f045 0510 	orr.w	r5, r5, #16
     e0c:	e753      	b.n	cb6 <kprintf.constprop.0+0xde>
/home/aom1/Work/Linux/target/STM32MP1-DK2/buildroot/buildroot/output/build/optee-os-custom/lib/libutils/ext/snprintk.c:375
     e0e:	f445 7580 	orr.w	r5, r5, #256	; 0x100
/home/aom1/Work/Linux/target/STM32MP1-DK2/buildroot/buildroot/output/build/optee-os-custom/lib/libutils/ext/snprintk.c:376
     e12:	e750      	b.n	cb6 <kprintf.constprop.0+0xde>
/home/aom1/Work/Linux/target/STM32MP1-DK2/buildroot/buildroot/output/build/optee-os-custom/lib/libutils/ext/snprintk.c:378
     e14:	f445 7500 	orr.w	r5, r5, #512	; 0x200
/home/aom1/Work/Linux/target/STM32MP1-DK2/buildroot/buildroot/output/build/optee-os-custom/lib/libutils/ext/snprintk.c:379
     e18:	e74d      	b.n	cb6 <kprintf.constprop.0+0xde>
/home/aom1/Work/Linux/target/STM32MP1-DK2/buildroot/buildroot/output/build/optee-os-custom/lib/libutils/ext/snprintk.c:381
     e1a:	461f      	mov	r7, r3
     e1c:	f857 3b04 	ldr.w	r3, [r7], #4
     e20:	f88d 3054 	strb.w	r3, [sp, #84]	; 0x54
/home/aom1/Work/Linux/target/STM32MP1-DK2/buildroot/buildroot/output/build/optee-os-custom/lib/libutils/ext/snprintk.c:291
     e24:	2000      	movs	r0, #0
/home/aom1/Work/Linux/target/STM32MP1-DK2/buildroot/buildroot/output/build/optee-os-custom/lib/libutils/ext/snprintk.c:552
     e26:	f04f 0b01 	mov.w	fp, #1
/home/aom1/Work/Linux/target/STM32MP1-DK2/buildroot/buildroot/output/build/optee-os-custom/lib/libutils/ext/snprintk.c:553
     e2a:	4681      	mov	r9, r0
/home/aom1/Work/Linux/target/STM32MP1-DK2/buildroot/buildroot/output/build/optee-os-custom/lib/libutils/ext/snprintk.c:550
     e2c:	f10d 0a54 	add.w	sl, sp, #84	; 0x54
/home/aom1/Work/Linux/target/STM32MP1-DK2/buildroot/buildroot/output/build/optee-os-custom/lib/libutils/ext/snprintk.c:554
     e30:	e03c      	b.n	eac <kprintf.constprop.0+0x2d4>
/home/aom1/Work/Linux/target/STM32MP1-DK2/buildroot/buildroot/output/build/optee-os-custom/lib/libutils/ext/snprintk.c:386
     e32:	f045 0510 	orr.w	r5, r5, #16
/home/aom1/Work/Linux/target/STM32MP1-DK2/buildroot/buildroot/output/build/optee-os-custom/lib/libutils/ext/snprintk.c:390
     e36:	062c      	lsls	r4, r5, #24
     e38:	f140 8088 	bpl.w	f4c <kprintf.constprop.0+0x374>
     e3c:	3307      	adds	r3, #7
     e3e:	f023 0307 	bic.w	r3, r3, #7
     e42:	461f      	mov	r7, r3
     e44:	685e      	ldr	r6, [r3, #4]
     e46:	f857 4b08 	ldr.w	r4, [r7], #8
/home/aom1/Work/Linux/target/STM32MP1-DK2/buildroot/buildroot/output/build/optee-os-custom/lib/libutils/ext/snprintk.c:391
     e4a:	2e00      	cmp	r6, #0
     e4c:	f280 816b 	bge.w	1126 <kprintf.constprop.0+0x54e>
/home/aom1/Work/Linux/target/STM32MP1-DK2/buildroot/buildroot/output/build/optee-os-custom/lib/libutils/ext/snprintk.c:392
     e50:	4264      	negs	r4, r4
/home/aom1/Work/Linux/target/STM32MP1-DK2/buildroot/buildroot/output/build/optee-os-custom/lib/libutils/ext/snprintk.c:395
     e52:	f04f 0301 	mov.w	r3, #1
/home/aom1/Work/Linux/target/STM32MP1-DK2/buildroot/buildroot/output/build/optee-os-custom/lib/libutils/ext/snprintk.c:392
     e56:	eb66 0646 	sbc.w	r6, r6, r6, lsl #1
/home/aom1/Work/Linux/target/STM32MP1-DK2/buildroot/buildroot/output/build/optee-os-custom/lib/libutils/ext/snprintk.c:393
     e5a:	f04f 092d 	mov.w	r9, #45	; 0x2d
/home/aom1/Work/Linux/target/STM32MP1-DK2/buildroot/buildroot/output/build/optee-os-custom/lib/libutils/ext/snprintk.c:494
     e5e:	f1bb 3fff 	cmp.w	fp, #4294967295	; 0xffffffff
     e62:	f040 80ca 	bne.w	ffa <kprintf.constprop.0+0x422>
/home/aom1/Work/Linux/target/STM32MP1-DK2/buildroot/buildroot/output/build/optee-os-custom/lib/libutils/ext/snprintk.c:509
     e66:	2b01      	cmp	r3, #1
     e68:	f000 8160 	beq.w	112c <kprintf.constprop.0+0x554>
     e6c:	2b02      	cmp	r3, #2
     e6e:	f000 811e 	beq.w	10ae <kprintf.constprop.0+0x4d6>
/home/aom1/Work/Linux/target/STM32MP1-DK2/buildroot/buildroot/output/build/optee-os-custom/lib/libutils/ext/snprintk.c:494
     e72:	f10d 0a79 	add.w	sl, sp, #121	; 0x79
/home/aom1/Work/Linux/target/STM32MP1-DK2/buildroot/buildroot/output/build/optee-os-custom/lib/libutils/ext/snprintk.c:512
     e76:	f004 0307 	and.w	r3, r4, #7
     e7a:	4652      	mov	r2, sl
/home/aom1/Work/Linux/target/STM32MP1-DK2/buildroot/buildroot/output/build/optee-os-custom/lib/libutils/ext/snprintk.c:513
     e7c:	08e4      	lsrs	r4, r4, #3
/home/aom1/Work/Linux/target/STM32MP1-DK2/buildroot/buildroot/output/build/optee-os-custom/lib/libutils/ext/snprintk.c:512
     e7e:	3330      	adds	r3, #48	; 0x30
/home/aom1/Work/Linux/target/STM32MP1-DK2/buildroot/buildroot/output/build/optee-os-custom/lib/libutils/ext/snprintk.c:513
     e80:	ea44 7446 	orr.w	r4, r4, r6, lsl #29
     e84:	08f6      	lsrs	r6, r6, #3
/home/aom1/Work/Linux/target/STM32MP1-DK2/buildroot/buildroot/output/build/optee-os-custom/lib/libutils/ext/snprintk.c:514
     e86:	ea54 0106 	orrs.w	r1, r4, r6
/home/aom1/Work/Linux/target/STM32MP1-DK2/buildroot/buildroot/output/build/optee-os-custom/lib/libutils/ext/snprintk.c:512
     e8a:	f80a 3d01 	strb.w	r3, [sl, #-1]!
/home/aom1/Work/Linux/target/STM32MP1-DK2/buildroot/buildroot/output/build/optee-os-custom/lib/libutils/ext/snprintk.c:514
     e8e:	d1f2      	bne.n	e76 <kprintf.constprop.0+0x29e>
/home/aom1/Work/Linux/target/STM32MP1-DK2/buildroot/buildroot/output/build/optee-os-custom/lib/libutils/ext/snprintk.c:516
     e90:	07ee      	lsls	r6, r5, #31
     e92:	d506      	bpl.n	ea2 <kprintf.constprop.0+0x2ca>
     e94:	2b30      	cmp	r3, #48	; 0x30
     e96:	d004      	beq.n	ea2 <kprintf.constprop.0+0x2ca>
/home/aom1/Work/Linux/target/STM32MP1-DK2/buildroot/buildroot/output/build/optee-os-custom/lib/libutils/ext/snprintk.c:517
     e98:	2330      	movs	r3, #48	; 0x30
     e9a:	f80a 3c01 	strb.w	r3, [sl, #-1]
     e9e:	f1a2 0a02 	sub.w	sl, r2, #2
/home/aom1/Work/Linux/target/STM32MP1-DK2/buildroot/buildroot/output/build/optee-os-custom/lib/libutils/ext/snprintk.c:543
     ea2:	f10d 0379 	add.w	r3, sp, #121	; 0x79
     ea6:	4658      	mov	r0, fp
     ea8:	eba3 0b0a 	sub.w	fp, r3, sl
/home/aom1/Work/Linux/target/STM32MP1-DK2/buildroot/buildroot/output/build/optee-os-custom/lib/libutils/ext/snprintk.c:571
     eac:	4558      	cmp	r0, fp
     eae:	4603      	mov	r3, r0
     eb0:	bfb8      	it	lt
     eb2:	465b      	movlt	r3, fp
/home/aom1/Work/Linux/target/STM32MP1-DK2/buildroot/buildroot/output/build/optee-os-custom/lib/libutils/ext/snprintk.c:572
     eb4:	f1b9 0f00 	cmp.w	r9, #0
     eb8:	f000 81b5 	beq.w	1226 <kprintf.constprop.0+0x64e>
/home/aom1/Work/Linux/target/STM32MP1-DK2/buildroot/buildroot/output/build/optee-os-custom/lib/libutils/ext/snprintk.c:573
     ebc:	3301      	adds	r3, #1
/home/aom1/Work/Linux/target/STM32MP1-DK2/buildroot/buildroot/output/build/optee-os-custom/lib/libutils/ext/snprintk.c:578
     ebe:	9a0d      	ldr	r2, [sp, #52]	; 0x34
     ec0:	990f      	ldr	r1, [sp, #60]	; 0x3c
     ec2:	428b      	cmp	r3, r1
     ec4:	bfac      	ite	ge
     ec6:	18d2      	addge	r2, r2, r3
     ec8:	1852      	addlt	r2, r2, r1
     eca:	920d      	str	r2, [sp, #52]	; 0x34
/home/aom1/Work/Linux/target/STM32MP1-DK2/buildroot/buildroot/output/build/optee-os-custom/lib/libutils/ext/snprintk.c:581
     ecc:	f240 4204 	movw	r2, #1028	; 0x404
     ed0:	402a      	ands	r2, r5
     ed2:	d104      	bne.n	ede <kprintf.constprop.0+0x306>
/home/aom1/Work/Linux/target/STM32MP1-DK2/buildroot/buildroot/output/build/optee-os-custom/lib/libutils/ext/snprintk.c:582
     ed4:	1ac9      	subs	r1, r1, r3
/home/aom1/Work/Linux/target/STM32MP1-DK2/buildroot/buildroot/output/build/optee-os-custom/lib/libutils/ext/snprintk.c:584
     ed6:	2420      	movs	r4, #32
/home/aom1/Work/Linux/target/STM32MP1-DK2/buildroot/buildroot/output/build/optee-os-custom/lib/libutils/ext/snprintk.c:583
     ed8:	2900      	cmp	r1, #0
     eda:	f300 81a8 	bgt.w	122e <kprintf.constprop.0+0x656>
/home/aom1/Work/Linux/target/STM32MP1-DK2/buildroot/buildroot/output/build/optee-os-custom/lib/libutils/ext/snprintk.c:588
     ede:	f1b9 0f00 	cmp.w	r9, #0
     ee2:	f000 81b0 	beq.w	1246 <kprintf.constprop.0+0x66e>
/home/aom1/Work/Linux/target/STM32MP1-DK2/buildroot/buildroot/output/build/optee-os-custom/lib/libutils/ext/snprintk.c:589
     ee6:	f1b8 0f00 	cmp.w	r8, #0
     eea:	d006      	beq.n	efa <kprintf.constprop.0+0x322>
     eec:	990e      	ldr	r1, [sp, #56]	; 0x38
     eee:	b111      	cbz	r1, ef6 <kprintf.constprop.0+0x31e>
     ef0:	9910      	ldr	r1, [sp, #64]	; 0x40
     ef2:	4541      	cmp	r1, r8
     ef4:	d901      	bls.n	efa <kprintf.constprop.0+0x322>
     ef6:	f808 9b01 	strb.w	r9, [r8], #1
/home/aom1/Work/Linux/target/STM32MP1-DK2/buildroot/buildroot/output/build/optee-os-custom/lib/libutils/ext/snprintk.c:596
     efa:	f5b2 6f80 	cmp.w	r2, #1024	; 0x400
     efe:	d105      	bne.n	f0c <kprintf.constprop.0+0x334>
/home/aom1/Work/Linux/target/STM32MP1-DK2/buildroot/buildroot/output/build/optee-os-custom/lib/libutils/ext/snprintk.c:597
     f00:	9a0f      	ldr	r2, [sp, #60]	; 0x3c
     f02:	1ad1      	subs	r1, r2, r3
/home/aom1/Work/Linux/target/STM32MP1-DK2/buildroot/buildroot/output/build/optee-os-custom/lib/libutils/ext/snprintk.c:599
     f04:	2230      	movs	r2, #48	; 0x30
/home/aom1/Work/Linux/target/STM32MP1-DK2/buildroot/buildroot/output/build/optee-os-custom/lib/libutils/ext/snprintk.c:598
     f06:	2900      	cmp	r1, #0
     f08:	f300 81bc 	bgt.w	1284 <kprintf.constprop.0+0x6ac>
/home/aom1/Work/Linux/target/STM32MP1-DK2/buildroot/buildroot/output/build/optee-os-custom/lib/libutils/ext/snprintk.c:603
     f0c:	eba0 000b 	sub.w	r0, r0, fp
/home/aom1/Work/Linux/target/STM32MP1-DK2/buildroot/buildroot/output/build/optee-os-custom/lib/libutils/ext/snprintk.c:605
     f10:	2230      	movs	r2, #48	; 0x30
/home/aom1/Work/Linux/target/STM32MP1-DK2/buildroot/buildroot/output/build/optee-os-custom/lib/libutils/ext/snprintk.c:604
     f12:	2800      	cmp	r0, #0
     f14:	f300 81c2 	bgt.w	129c <kprintf.constprop.0+0x6c4>
     f18:	eb0a 000b 	add.w	r0, sl, fp
/home/aom1/Work/Linux/target/STM32MP1-DK2/buildroot/buildroot/output/build/optee-os-custom/lib/libutils/ext/snprintk.c:608
     f1c:	4582      	cmp	sl, r0
     f1e:	f040 81c9 	bne.w	12b4 <kprintf.constprop.0+0x6dc>
/home/aom1/Work/Linux/target/STM32MP1-DK2/buildroot/buildroot/output/build/optee-os-custom/lib/libutils/ext/snprintk.c:611
     f22:	076a      	lsls	r2, r5, #29
     f24:	f57f ae72 	bpl.w	c0c <kprintf.constprop.0+0x34>
/home/aom1/Work/Linux/target/STM32MP1-DK2/buildroot/buildroot/output/build/optee-os-custom/lib/libutils/ext/snprintk.c:612
     f28:	9a0f      	ldr	r2, [sp, #60]	; 0x3c
     f2a:	1ad3      	subs	r3, r2, r3
/home/aom1/Work/Linux/target/STM32MP1-DK2/buildroot/buildroot/output/build/optee-os-custom/lib/libutils/ext/snprintk.c:614
     f2c:	2220      	movs	r2, #32
/home/aom1/Work/Linux/target/STM32MP1-DK2/buildroot/buildroot/output/build/optee-os-custom/lib/libutils/ext/snprintk.c:613
     f2e:	2b00      	cmp	r3, #0
     f30:	f77f ae6c 	ble.w	c0c <kprintf.constprop.0+0x34>
/home/aom1/Work/Linux/target/STM32MP1-DK2/buildroot/buildroot/output/build/optee-os-custom/lib/libutils/ext/snprintk.c:614
     f34:	f1b8 0f00 	cmp.w	r8, #0
     f38:	d006      	beq.n	f48 <kprintf.constprop.0+0x370>
     f3a:	990e      	ldr	r1, [sp, #56]	; 0x38
     f3c:	b111      	cbz	r1, f44 <kprintf.constprop.0+0x36c>
     f3e:	9910      	ldr	r1, [sp, #64]	; 0x40
     f40:	4541      	cmp	r1, r8
     f42:	d901      	bls.n	f48 <kprintf.constprop.0+0x370>
     f44:	f808 2b01 	strb.w	r2, [r8], #1
     f48:	3b01      	subs	r3, #1
     f4a:	e7f0      	b.n	f2e <kprintf.constprop.0+0x356>
/home/aom1/Work/Linux/target/STM32MP1-DK2/buildroot/buildroot/output/build/optee-os-custom/lib/libutils/ext/snprintk.c:390
     f4c:	05e8      	lsls	r0, r5, #23
     f4e:	d504      	bpl.n	f5a <kprintf.constprop.0+0x382>
     f50:	461f      	mov	r7, r3
     f52:	f857 4b04 	ldr.w	r4, [r7], #4
     f56:	17e6      	asrs	r6, r4, #31
     f58:	e777      	b.n	e4a <kprintf.constprop.0+0x272>
     f5a:	05a9      	lsls	r1, r5, #22
     f5c:	d4f8      	bmi.n	f50 <kprintf.constprop.0+0x378>
     f5e:	06aa      	lsls	r2, r5, #26
     f60:	f53f af6c 	bmi.w	e3c <kprintf.constprop.0+0x264>
/home/aom1/Work/Linux/target/STM32MP1-DK2/buildroot/buildroot/output/build/optee-os-custom/lib/libutils/ext/snprintk.c:317
     f64:	461f      	mov	r7, r3
/home/aom1/Work/Linux/target/STM32MP1-DK2/buildroot/buildroot/output/build/optee-os-custom/lib/libutils/ext/snprintk.c:390
     f66:	06eb      	lsls	r3, r5, #27
/home/aom1/Work/Linux/target/STM32MP1-DK2/buildroot/buildroot/output/build/optee-os-custom/lib/libutils/ext/snprintk.c:317
     f68:	f857 6b04 	ldr.w	r6, [r7], #4
/home/aom1/Work/Linux/target/STM32MP1-DK2/buildroot/buildroot/output/build/optee-os-custom/lib/libutils/ext/snprintk.c:390
     f6c:	d501      	bpl.n	f72 <kprintf.constprop.0+0x39a>
     f6e:	4634      	mov	r4, r6
     f70:	e7f1      	b.n	f56 <kprintf.constprop.0+0x37e>
     f72:	066c      	lsls	r4, r5, #25
     f74:	d5fb      	bpl.n	f6e <kprintf.constprop.0+0x396>
     f76:	b234      	sxth	r4, r6
     f78:	f346 36c0 	sbfx	r6, r6, #15, #1
     f7c:	e765      	b.n	e4a <kprintf.constprop.0+0x272>
/home/aom1/Work/Linux/target/STM32MP1-DK2/buildroot/buildroot/output/build/optee-os-custom/lib/libutils/ext/snprintk.c:398
     f7e:	0628      	lsls	r0, r5, #24
/home/aom1/Work/Linux/target/STM32MP1-DK2/buildroot/buildroot/output/build/optee-os-custom/lib/libutils/ext/snprintk.c:317
     f80:	f103 0704 	add.w	r7, r3, #4
/home/aom1/Work/Linux/target/STM32MP1-DK2/buildroot/buildroot/output/build/optee-os-custom/lib/libutils/ext/snprintk.c:398
     f84:	d506      	bpl.n	f94 <kprintf.constprop.0+0x3bc>
/home/aom1/Work/Linux/target/STM32MP1-DK2/buildroot/buildroot/output/build/optee-os-custom/lib/libutils/ext/snprintk.c:405
     f86:	9a0d      	ldr	r2, [sp, #52]	; 0x34
     f88:	681b      	ldr	r3, [r3, #0]
     f8a:	990d      	ldr	r1, [sp, #52]	; 0x34
     f8c:	17d2      	asrs	r2, r2, #31
     f8e:	e9c3 1200 	strd	r1, r2, [r3]
     f92:	e63b      	b.n	c0c <kprintf.constprop.0+0x34>
/home/aom1/Work/Linux/target/STM32MP1-DK2/buildroot/buildroot/output/build/optee-os-custom/lib/libutils/ext/snprintk.c:400
     f94:	05e9      	lsls	r1, r5, #23
     f96:	d503      	bpl.n	fa0 <kprintf.constprop.0+0x3c8>
/home/aom1/Work/Linux/target/STM32MP1-DK2/buildroot/buildroot/output/build/optee-os-custom/lib/libutils/ext/snprintk.c:411
     f98:	681b      	ldr	r3, [r3, #0]
     f9a:	9a0d      	ldr	r2, [sp, #52]	; 0x34
     f9c:	601a      	str	r2, [r3, #0]
     f9e:	e635      	b.n	c0c <kprintf.constprop.0+0x34>
/home/aom1/Work/Linux/target/STM32MP1-DK2/buildroot/buildroot/output/build/optee-os-custom/lib/libutils/ext/snprintk.c:402
     fa0:	05aa      	lsls	r2, r5, #22
     fa2:	d4f9      	bmi.n	f98 <kprintf.constprop.0+0x3c0>
/home/aom1/Work/Linux/target/STM32MP1-DK2/buildroot/buildroot/output/build/optee-os-custom/lib/libutils/ext/snprintk.c:404
     fa4:	06ae      	lsls	r6, r5, #26
     fa6:	d4ee      	bmi.n	f86 <kprintf.constprop.0+0x3ae>
/home/aom1/Work/Linux/target/STM32MP1-DK2/buildroot/buildroot/output/build/optee-os-custom/lib/libutils/ext/snprintk.c:406
     fa8:	06ec      	lsls	r4, r5, #27
     faa:	d4f5      	bmi.n	f98 <kprintf.constprop.0+0x3c0>
/home/aom1/Work/Linux/target/STM32MP1-DK2/buildroot/buildroot/output/build/optee-os-custom/lib/libutils/ext/snprintk.c:408
     fac:	0668      	lsls	r0, r5, #25
     fae:	d5f3      	bpl.n	f98 <kprintf.constprop.0+0x3c0>
/home/aom1/Work/Linux/target/STM32MP1-DK2/buildroot/buildroot/output/build/optee-os-custom/lib/libutils/ext/snprintk.c:409
     fb0:	681b      	ldr	r3, [r3, #0]
     fb2:	9a0d      	ldr	r2, [sp, #52]	; 0x34
     fb4:	801a      	strh	r2, [r3, #0]
     fb6:	e629      	b.n	c0c <kprintf.constprop.0+0x34>
/home/aom1/Work/Linux/target/STM32MP1-DK2/buildroot/buildroot/output/build/optee-os-custom/lib/libutils/ext/snprintk.c:414
     fb8:	f045 0510 	orr.w	r5, r5, #16
/home/aom1/Work/Linux/target/STM32MP1-DK2/buildroot/buildroot/output/build/optee-os-custom/lib/libutils/ext/snprintk.c:417
     fbc:	f015 0180 	ands.w	r1, r5, #128	; 0x80
     fc0:	d007      	beq.n	fd2 <kprintf.constprop.0+0x3fa>
     fc2:	3307      	adds	r3, #7
     fc4:	f023 0307 	bic.w	r3, r3, #7
     fc8:	461f      	mov	r7, r3
     fca:	685e      	ldr	r6, [r3, #4]
     fcc:	f857 4b08 	ldr.w	r4, [r7], #8
     fd0:	e00c      	b.n	fec <kprintf.constprop.0+0x414>
     fd2:	f415 7680 	ands.w	r6, r5, #256	; 0x100
     fd6:	d004      	beq.n	fe2 <kprintf.constprop.0+0x40a>
     fd8:	461f      	mov	r7, r3
     fda:	f857 4b04 	ldr.w	r4, [r7], #4
     fde:	460e      	mov	r6, r1
     fe0:	e004      	b.n	fec <kprintf.constprop.0+0x414>
     fe2:	05a9      	lsls	r1, r5, #22
     fe4:	d516      	bpl.n	1014 <kprintf.constprop.0+0x43c>
     fe6:	461f      	mov	r7, r3
     fe8:	f857 4b04 	ldr.w	r4, [r7], #4
/home/aom1/Work/Linux/target/STM32MP1-DK2/buildroot/buildroot/output/build/optee-os-custom/lib/libutils/ext/snprintk.c:494
     fec:	f1bb 3fff 	cmp.w	fp, #4294967295	; 0xffffffff
     ff0:	f04f 0900 	mov.w	r9, #0
     ff4:	f43f af3d 	beq.w	e72 <kprintf.constprop.0+0x29a>
     ff8:	464b      	mov	r3, r9
/home/aom1/Work/Linux/target/STM32MP1-DK2/buildroot/buildroot/output/build/optee-os-custom/lib/libutils/ext/snprintk.c:503
     ffa:	ea54 0206 	orrs.w	r2, r4, r6
/home/aom1/Work/Linux/target/STM32MP1-DK2/buildroot/buildroot/output/build/optee-os-custom/lib/libutils/ext/snprintk.c:495
     ffe:	f425 6580 	bic.w	r5, r5, #1024	; 0x400
/home/aom1/Work/Linux/target/STM32MP1-DK2/buildroot/buildroot/output/build/optee-os-custom/lib/libutils/ext/snprintk.c:503
    1002:	f47f af30 	bne.w	e66 <kprintf.constprop.0+0x28e>
    1006:	f1bb 0f00 	cmp.w	fp, #0
    100a:	f47f af2c 	bne.w	e66 <kprintf.constprop.0+0x28e>
/home/aom1/Work/Linux/target/STM32MP1-DK2/buildroot/buildroot/output/build/optee-os-custom/lib/libutils/ext/snprintk.c:502
    100e:	f10d 0a79 	add.w	sl, sp, #121	; 0x79
    1012:	e746      	b.n	ea2 <kprintf.constprop.0+0x2ca>
/home/aom1/Work/Linux/target/STM32MP1-DK2/buildroot/buildroot/output/build/optee-os-custom/lib/libutils/ext/snprintk.c:417
    1014:	f015 0620 	ands.w	r6, r5, #32
    1018:	d1d3      	bne.n	fc2 <kprintf.constprop.0+0x3ea>
/home/aom1/Work/Linux/target/STM32MP1-DK2/buildroot/buildroot/output/build/optee-os-custom/lib/libutils/ext/snprintk.c:317
    101a:	461f      	mov	r7, r3
/home/aom1/Work/Linux/target/STM32MP1-DK2/buildroot/buildroot/output/build/optee-os-custom/lib/libutils/ext/snprintk.c:417
    101c:	f015 0110 	ands.w	r1, r5, #16
/home/aom1/Work/Linux/target/STM32MP1-DK2/buildroot/buildroot/output/build/optee-os-custom/lib/libutils/ext/snprintk.c:317
    1020:	f857 4b04 	ldr.w	r4, [r7], #4
/home/aom1/Work/Linux/target/STM32MP1-DK2/buildroot/buildroot/output/build/optee-os-custom/lib/libutils/ext/snprintk.c:417
    1024:	d1e2      	bne.n	fec <kprintf.constprop.0+0x414>
    1026:	f015 0640 	ands.w	r6, r5, #64	; 0x40
    102a:	d0df      	beq.n	fec <kprintf.constprop.0+0x414>
    102c:	b2a4      	uxth	r4, r4
    102e:	e7d6      	b.n	fde <kprintf.constprop.0+0x406>
/home/aom1/Work/Linux/target/STM32MP1-DK2/buildroot/buildroot/output/build/optee-os-custom/lib/libutils/ext/snprintk.c:317
    1030:	461f      	mov	r7, r3
/home/aom1/Work/Linux/target/STM32MP1-DK2/buildroot/buildroot/output/build/optee-os-custom/lib/libutils/ext/snprintk.c:421
    1032:	9b13      	ldr	r3, [sp, #76]	; 0x4c
    1034:	f857 4b04 	ldr.w	r4, [r7], #4
    1038:	2b00      	cmp	r3, #0
    103a:	d029      	beq.n	1090 <kprintf.constprop.0+0x4b8>
    103c:	9b0b      	ldr	r3, [sp, #44]	; 0x2c
    103e:	781b      	ldrb	r3, [r3, #0]
    1040:	2b55      	cmp	r3, #85	; 0x55
    1042:	d125      	bne.n	1090 <kprintf.constprop.0+0x4b8>
    1044:	9b0b      	ldr	r3, [sp, #44]	; 0x2c
    1046:	785b      	ldrb	r3, [r3, #1]
    1048:	2b6c      	cmp	r3, #108	; 0x6c
    104a:	d121      	bne.n	1090 <kprintf.constprop.0+0x4b8>
/home/aom1/Work/Linux/target/STM32MP1-DK2/buildroot/buildroot/output/build/optee-os-custom/lib/libutils/ext/snprintk.c:426
    104c:	9b0b      	ldr	r3, [sp, #44]	; 0x2c
uuid2str():
/home/aom1/Work/Linux/target/STM32MP1-DK2/buildroot/buildroot/output/build/optee-os-custom/lib/libutils/ext/snprintk.c:229
    104e:	f10d 0a54 	add.w	sl, sp, #84	; 0x54
    1052:	4aa6      	ldr	r2, [pc, #664]	; (12ec <kprintf.constprop.0+0x714>)
    1054:	2125      	movs	r1, #37	; 0x25
kprintf():
/home/aom1/Work/Linux/target/STM32MP1-DK2/buildroot/buildroot/output/build/optee-os-custom/lib/libutils/ext/snprintk.c:426
    1056:	3302      	adds	r3, #2
uuid2str():
/home/aom1/Work/Linux/target/STM32MP1-DK2/buildroot/buildroot/output/build/optee-os-custom/lib/libutils/ext/snprintk.c:229
    1058:	4650      	mov	r0, sl
kprintf():
/home/aom1/Work/Linux/target/STM32MP1-DK2/buildroot/buildroot/output/build/optee-os-custom/lib/libutils/ext/snprintk.c:426
    105a:	930b      	str	r3, [sp, #44]	; 0x2c
uuid2str():
/home/aom1/Work/Linux/target/STM32MP1-DK2/buildroot/buildroot/output/build/optee-os-custom/lib/libutils/ext/snprintk.c:229
    105c:	7be3      	ldrb	r3, [r4, #15]
    105e:	447a      	add	r2, pc
    1060:	9309      	str	r3, [sp, #36]	; 0x24
    1062:	7ba3      	ldrb	r3, [r4, #14]
    1064:	9308      	str	r3, [sp, #32]
    1066:	7b63      	ldrb	r3, [r4, #13]
    1068:	9307      	str	r3, [sp, #28]
    106a:	7b23      	ldrb	r3, [r4, #12]
    106c:	9306      	str	r3, [sp, #24]
    106e:	7ae3      	ldrb	r3, [r4, #11]
    1070:	9305      	str	r3, [sp, #20]
    1072:	7aa3      	ldrb	r3, [r4, #10]
    1074:	9304      	str	r3, [sp, #16]
    1076:	7a63      	ldrb	r3, [r4, #9]
    1078:	9303      	str	r3, [sp, #12]
    107a:	7a23      	ldrb	r3, [r4, #8]
    107c:	9302      	str	r3, [sp, #8]
    107e:	88e3      	ldrh	r3, [r4, #6]
    1080:	9301      	str	r3, [sp, #4]
    1082:	88a3      	ldrh	r3, [r4, #4]
    1084:	9300      	str	r3, [sp, #0]
    1086:	6823      	ldr	r3, [r4, #0]
    1088:	f7ff fd79 	bl	b7e <snprintk>
kprintf():
/home/aom1/Work/Linux/target/STM32MP1-DK2/buildroot/buildroot/output/build/optee-os-custom/lib/libutils/ext/snprintk.c:466
    108c:	4683      	mov	fp, r0
    108e:	e035      	b.n	10fc <kprintf.constprop.0+0x524>
/home/aom1/Work/Linux/target/STM32MP1-DK2/buildroot/buildroot/output/build/optee-os-custom/lib/libutils/ext/snprintk.c:443
    1090:	4b97      	ldr	r3, [pc, #604]	; (12f0 <kprintf.constprop.0+0x718>)
/home/aom1/Work/Linux/target/STM32MP1-DK2/buildroot/buildroot/output/build/optee-os-custom/lib/libutils/ext/snprintk.c:441
    1092:	2600      	movs	r6, #0
/home/aom1/Work/Linux/target/STM32MP1-DK2/buildroot/buildroot/output/build/optee-os-custom/lib/libutils/ext/snprintk.c:444
    1094:	f045 0502 	orr.w	r5, r5, #2
/home/aom1/Work/Linux/target/STM32MP1-DK2/buildroot/buildroot/output/build/optee-os-custom/lib/libutils/ext/snprintk.c:443
    1098:	447b      	add	r3, pc
    109a:	3311      	adds	r3, #17
    109c:	9311      	str	r3, [sp, #68]	; 0x44
/home/aom1/Work/Linux/target/STM32MP1-DK2/buildroot/buildroot/output/build/optee-os-custom/lib/libutils/ext/snprintk.c:445
    109e:	2378      	movs	r3, #120	; 0x78
    10a0:	930c      	str	r3, [sp, #48]	; 0x30
/home/aom1/Work/Linux/target/STM32MP1-DK2/buildroot/buildroot/output/build/optee-os-custom/lib/libutils/ext/snprintk.c:494
    10a2:	f1bb 3fff 	cmp.w	fp, #4294967295	; 0xffffffff
    10a6:	f04f 0900 	mov.w	r9, #0
    10aa:	f040 8093 	bne.w	11d4 <kprintf.constprop.0+0x5fc>
    10ae:	f10d 0a79 	add.w	sl, sp, #121	; 0x79
/home/aom1/Work/Linux/target/STM32MP1-DK2/buildroot/buildroot/output/build/optee-os-custom/lib/libutils/ext/snprintk.c:531
    10b2:	9a11      	ldr	r2, [sp, #68]	; 0x44
    10b4:	f004 030f 	and.w	r3, r4, #15
/home/aom1/Work/Linux/target/STM32MP1-DK2/buildroot/buildroot/output/build/optee-os-custom/lib/libutils/ext/snprintk.c:532
    10b8:	0924      	lsrs	r4, r4, #4
/home/aom1/Work/Linux/target/STM32MP1-DK2/buildroot/buildroot/output/build/optee-os-custom/lib/libutils/ext/snprintk.c:531
    10ba:	5cd3      	ldrb	r3, [r2, r3]
/home/aom1/Work/Linux/target/STM32MP1-DK2/buildroot/buildroot/output/build/optee-os-custom/lib/libutils/ext/snprintk.c:532
    10bc:	ea44 7406 	orr.w	r4, r4, r6, lsl #28
    10c0:	0936      	lsrs	r6, r6, #4
/home/aom1/Work/Linux/target/STM32MP1-DK2/buildroot/buildroot/output/build/optee-os-custom/lib/libutils/ext/snprintk.c:531
    10c2:	f80a 3d01 	strb.w	r3, [sl, #-1]!
/home/aom1/Work/Linux/target/STM32MP1-DK2/buildroot/buildroot/output/build/optee-os-custom/lib/libutils/ext/snprintk.c:533
    10c6:	ea54 0306 	orrs.w	r3, r4, r6
    10ca:	d1f2      	bne.n	10b2 <kprintf.constprop.0+0x4da>
    10cc:	e6e9      	b.n	ea2 <kprintf.constprop.0+0x2ca>
/home/aom1/Work/Linux/target/STM32MP1-DK2/buildroot/buildroot/output/build/optee-os-custom/lib/libutils/ext/snprintk.c:448
    10ce:	461f      	mov	r7, r3
    10d0:	f857 ab04 	ldr.w	sl, [r7], #4
    10d4:	f1ba 0f00 	cmp.w	sl, #0
    10d8:	d102      	bne.n	10e0 <kprintf.constprop.0+0x508>
/home/aom1/Work/Linux/target/STM32MP1-DK2/buildroot/buildroot/output/build/optee-os-custom/lib/libutils/ext/snprintk.c:450
    10da:	f8df a218 	ldr.w	sl, [pc, #536]	; 12f4 <kprintf.constprop.0+0x71c>
    10de:	44fa      	add	sl, pc
/home/aom1/Work/Linux/target/STM32MP1-DK2/buildroot/buildroot/output/build/optee-os-custom/lib/libutils/ext/snprintk.c:451
    10e0:	f1bb 3fff 	cmp.w	fp, #4294967295	; 0xffffffff
    10e4:	d00d      	beq.n	1102 <kprintf.constprop.0+0x52a>
/home/aom1/Work/Linux/target/STM32MP1-DK2/buildroot/buildroot/output/build/optee-os-custom/lib/libutils/ext/snprintk.c:457
    10e6:	465a      	mov	r2, fp
    10e8:	2100      	movs	r1, #0
    10ea:	4650      	mov	r0, sl
    10ec:	f006 fff4 	bl	80d8 <memchr>
/home/aom1/Work/Linux/target/STM32MP1-DK2/buildroot/buildroot/output/build/optee-os-custom/lib/libutils/ext/snprintk.c:459
    10f0:	b128      	cbz	r0, 10fe <kprintf.constprop.0+0x526>
/home/aom1/Work/Linux/target/STM32MP1-DK2/buildroot/buildroot/output/build/optee-os-custom/lib/libutils/ext/snprintk.c:460
    10f2:	eba0 000a 	sub.w	r0, r0, sl
    10f6:	4583      	cmp	fp, r0
    10f8:	bfa8      	it	ge
    10fa:	4683      	movge	fp, r0
/home/aom1/Work/Linux/target/STM32MP1-DK2/buildroot/buildroot/output/build/optee-os-custom/lib/libutils/ext/snprintk.c:291
    10fc:	2000      	movs	r0, #0
/home/aom1/Work/Linux/target/STM32MP1-DK2/buildroot/buildroot/output/build/optee-os-custom/lib/libutils/ext/snprintk.c:467
    10fe:	4681      	mov	r9, r0
    1100:	e6d4      	b.n	eac <kprintf.constprop.0+0x2d4>
/home/aom1/Work/Linux/target/STM32MP1-DK2/buildroot/buildroot/output/build/optee-os-custom/lib/libutils/ext/snprintk.c:466
    1102:	4650      	mov	r0, sl
    1104:	f006 fff6 	bl	80f4 <strlen>
    1108:	e7c0      	b.n	108c <kprintf.constprop.0+0x4b4>
/home/aom1/Work/Linux/target/STM32MP1-DK2/buildroot/buildroot/output/build/optee-os-custom/lib/libutils/ext/snprintk.c:470
    110a:	f045 0510 	orr.w	r5, r5, #16
/home/aom1/Work/Linux/target/STM32MP1-DK2/buildroot/buildroot/output/build/optee-os-custom/lib/libutils/ext/snprintk.c:473
    110e:	f015 0180 	ands.w	r1, r5, #128	; 0x80
    1112:	d00f      	beq.n	1134 <kprintf.constprop.0+0x55c>
    1114:	3307      	adds	r3, #7
    1116:	f023 0307 	bic.w	r3, r3, #7
    111a:	461f      	mov	r7, r3
    111c:	685e      	ldr	r6, [r3, #4]
    111e:	f857 4b08 	ldr.w	r4, [r7], #8
/home/aom1/Work/Linux/target/STM32MP1-DK2/buildroot/buildroot/output/build/optee-os-custom/lib/libutils/ext/snprintk.c:488
    1122:	f04f 0900 	mov.w	r9, #0
/home/aom1/Work/Linux/target/STM32MP1-DK2/buildroot/buildroot/output/build/optee-os-custom/lib/libutils/ext/snprintk.c:494
    1126:	f1bb 3fff 	cmp.w	fp, #4294967295	; 0xffffffff
    112a:	d155      	bne.n	11d8 <kprintf.constprop.0+0x600>
    112c:	f10d 0379 	add.w	r3, sp, #121	; 0x79
    1130:	9312      	str	r3, [sp, #72]	; 0x48
    1132:	e067      	b.n	1204 <kprintf.constprop.0+0x62c>
/home/aom1/Work/Linux/target/STM32MP1-DK2/buildroot/buildroot/output/build/optee-os-custom/lib/libutils/ext/snprintk.c:473
    1134:	f415 7680 	ands.w	r6, r5, #256	; 0x100
    1138:	d004      	beq.n	1144 <kprintf.constprop.0+0x56c>
    113a:	461f      	mov	r7, r3
    113c:	f857 4b04 	ldr.w	r4, [r7], #4
    1140:	460e      	mov	r6, r1
    1142:	e7ee      	b.n	1122 <kprintf.constprop.0+0x54a>
    1144:	f415 7900 	ands.w	r9, r5, #512	; 0x200
    1148:	d003      	beq.n	1152 <kprintf.constprop.0+0x57a>
    114a:	461f      	mov	r7, r3
    114c:	f857 4b04 	ldr.w	r4, [r7], #4
    1150:	e7e7      	b.n	1122 <kprintf.constprop.0+0x54a>
    1152:	f015 0620 	ands.w	r6, r5, #32
    1156:	d007      	beq.n	1168 <kprintf.constprop.0+0x590>
    1158:	3307      	adds	r3, #7
    115a:	f023 0307 	bic.w	r3, r3, #7
    115e:	461f      	mov	r7, r3
    1160:	685e      	ldr	r6, [r3, #4]
    1162:	f857 4b08 	ldr.w	r4, [r7], #8
    1166:	e7de      	b.n	1126 <kprintf.constprop.0+0x54e>
/home/aom1/Work/Linux/target/STM32MP1-DK2/buildroot/buildroot/output/build/optee-os-custom/lib/libutils/ext/snprintk.c:317
    1168:	461f      	mov	r7, r3
/home/aom1/Work/Linux/target/STM32MP1-DK2/buildroot/buildroot/output/build/optee-os-custom/lib/libutils/ext/snprintk.c:473
    116a:	f015 0110 	ands.w	r1, r5, #16
/home/aom1/Work/Linux/target/STM32MP1-DK2/buildroot/buildroot/output/build/optee-os-custom/lib/libutils/ext/snprintk.c:317
    116e:	f857 4b04 	ldr.w	r4, [r7], #4
/home/aom1/Work/Linux/target/STM32MP1-DK2/buildroot/buildroot/output/build/optee-os-custom/lib/libutils/ext/snprintk.c:473
    1172:	d1d6      	bne.n	1122 <kprintf.constprop.0+0x54a>
    1174:	f015 0640 	ands.w	r6, r5, #64	; 0x40
    1178:	d0d3      	beq.n	1122 <kprintf.constprop.0+0x54a>
    117a:	b2a4      	uxth	r4, r4
    117c:	e7e0      	b.n	1140 <kprintf.constprop.0+0x568>
/home/aom1/Work/Linux/target/STM32MP1-DK2/buildroot/buildroot/output/build/optee-os-custom/lib/libutils/ext/snprintk.c:477
    117e:	4a5e      	ldr	r2, [pc, #376]	; (12f8 <kprintf.constprop.0+0x720>)
    1180:	447a      	add	r2, pc
    1182:	e5d9      	b.n	d38 <kprintf.constprop.0+0x160>
/home/aom1/Work/Linux/target/STM32MP1-DK2/buildroot/buildroot/output/build/optee-os-custom/lib/libutils/ext/snprintk.c:481
    1184:	f415 7680 	ands.w	r6, r5, #256	; 0x100
    1188:	d004      	beq.n	1194 <kprintf.constprop.0+0x5bc>
    118a:	461f      	mov	r7, r3
    118c:	f857 4b04 	ldr.w	r4, [r7], #4
    1190:	460e      	mov	r6, r1
    1192:	e004      	b.n	119e <kprintf.constprop.0+0x5c6>
    1194:	05aa      	lsls	r2, r5, #22
    1196:	d50e      	bpl.n	11b6 <kprintf.constprop.0+0x5de>
    1198:	461f      	mov	r7, r3
    119a:	f857 4b04 	ldr.w	r4, [r7], #4
/home/aom1/Work/Linux/target/STM32MP1-DK2/buildroot/buildroot/output/build/optee-os-custom/lib/libutils/ext/snprintk.c:484
    119e:	07eb      	lsls	r3, r5, #31
    11a0:	f57f af7f 	bpl.w	10a2 <kprintf.constprop.0+0x4ca>
    11a4:	ea54 0306 	orrs.w	r3, r4, r6
/home/aom1/Work/Linux/target/STM32MP1-DK2/buildroot/buildroot/output/build/optee-os-custom/lib/libutils/ext/snprintk.c:488
    11a8:	f04f 0900 	mov.w	r9, #0
/home/aom1/Work/Linux/target/STM32MP1-DK2/buildroot/buildroot/output/build/optee-os-custom/lib/libutils/ext/snprintk.c:485
    11ac:	bf18      	it	ne
    11ae:	f045 0502 	orrne.w	r5, r5, #2
/home/aom1/Work/Linux/target/STM32MP1-DK2/buildroot/buildroot/output/build/optee-os-custom/lib/libutils/ext/snprintk.c:482
    11b2:	2302      	movs	r3, #2
    11b4:	e653      	b.n	e5e <kprintf.constprop.0+0x286>
/home/aom1/Work/Linux/target/STM32MP1-DK2/buildroot/buildroot/output/build/optee-os-custom/lib/libutils/ext/snprintk.c:481
    11b6:	f015 0620 	ands.w	r6, r5, #32
    11ba:	f47f adc2 	bne.w	d42 <kprintf.constprop.0+0x16a>
/home/aom1/Work/Linux/target/STM32MP1-DK2/buildroot/buildroot/output/build/optee-os-custom/lib/libutils/ext/snprintk.c:317
    11be:	461f      	mov	r7, r3
/home/aom1/Work/Linux/target/STM32MP1-DK2/buildroot/buildroot/output/build/optee-os-custom/lib/libutils/ext/snprintk.c:481
    11c0:	f015 0110 	ands.w	r1, r5, #16
/home/aom1/Work/Linux/target/STM32MP1-DK2/buildroot/buildroot/output/build/optee-os-custom/lib/libutils/ext/snprintk.c:317
    11c4:	f857 4b04 	ldr.w	r4, [r7], #4
/home/aom1/Work/Linux/target/STM32MP1-DK2/buildroot/buildroot/output/build/optee-os-custom/lib/libutils/ext/snprintk.c:481
    11c8:	d1e9      	bne.n	119e <kprintf.constprop.0+0x5c6>
    11ca:	f015 0640 	ands.w	r6, r5, #64	; 0x40
    11ce:	d0e6      	beq.n	119e <kprintf.constprop.0+0x5c6>
    11d0:	b2a4      	uxth	r4, r4
    11d2:	e7dd      	b.n	1190 <kprintf.constprop.0+0x5b8>
/home/aom1/Work/Linux/target/STM32MP1-DK2/buildroot/buildroot/output/build/optee-os-custom/lib/libutils/ext/snprintk.c:494
    11d4:	2302      	movs	r3, #2
    11d6:	e710      	b.n	ffa <kprintf.constprop.0+0x422>
    11d8:	2301      	movs	r3, #1
    11da:	e70e      	b.n	ffa <kprintf.constprop.0+0x422>
/home/aom1/Work/Linux/target/STM32MP1-DK2/buildroot/buildroot/output/build/optee-os-custom/lib/libutils/ext/snprintk.c:523
    11dc:	4620      	mov	r0, r4
    11de:	4631      	mov	r1, r6
    11e0:	220a      	movs	r2, #10
    11e2:	2300      	movs	r3, #0
    11e4:	f000 e8a2 	blx	132c <__aeabi_uldivmod>
    11e8:	9b12      	ldr	r3, [sp, #72]	; 0x48
    11ea:	3230      	adds	r2, #48	; 0x30
/home/aom1/Work/Linux/target/STM32MP1-DK2/buildroot/buildroot/output/build/optee-os-custom/lib/libutils/ext/snprintk.c:524
    11ec:	4620      	mov	r0, r4
    11ee:	4631      	mov	r1, r6
/home/aom1/Work/Linux/target/STM32MP1-DK2/buildroot/buildroot/output/build/optee-os-custom/lib/libutils/ext/snprintk.c:523
    11f0:	f803 2c01 	strb.w	r2, [r3, #-1]
/home/aom1/Work/Linux/target/STM32MP1-DK2/buildroot/buildroot/output/build/optee-os-custom/lib/libutils/ext/snprintk.c:524
    11f4:	220a      	movs	r2, #10
    11f6:	2300      	movs	r3, #0
    11f8:	f000 e898 	blx	132c <__aeabi_uldivmod>
    11fc:	f8cd a048 	str.w	sl, [sp, #72]	; 0x48
    1200:	4604      	mov	r4, r0
    1202:	460e      	mov	r6, r1
/home/aom1/Work/Linux/target/STM32MP1-DK2/buildroot/buildroot/output/build/optee-os-custom/lib/libutils/ext/snprintk.c:523
    1204:	9b12      	ldr	r3, [sp, #72]	; 0x48
/home/aom1/Work/Linux/target/STM32MP1-DK2/buildroot/buildroot/output/build/optee-os-custom/lib/libutils/ext/snprintk.c:522
    1206:	2c0a      	cmp	r4, #10
/home/aom1/Work/Linux/target/STM32MP1-DK2/buildroot/buildroot/output/build/optee-os-custom/lib/libutils/ext/snprintk.c:523
    1208:	f103 3aff 	add.w	sl, r3, #4294967295	; 0xffffffff
/home/aom1/Work/Linux/target/STM32MP1-DK2/buildroot/buildroot/output/build/optee-os-custom/lib/libutils/ext/snprintk.c:522
    120c:	f176 0300 	sbcs.w	r3, r6, #0
    1210:	d2e4      	bcs.n	11dc <kprintf.constprop.0+0x604>
/home/aom1/Work/Linux/target/STM32MP1-DK2/buildroot/buildroot/output/build/optee-os-custom/lib/libutils/ext/snprintk.c:526
    1212:	9b12      	ldr	r3, [sp, #72]	; 0x48
    1214:	3430      	adds	r4, #48	; 0x30
    1216:	f803 4c01 	strb.w	r4, [r3, #-1]
/home/aom1/Work/Linux/target/STM32MP1-DK2/buildroot/buildroot/output/build/optee-os-custom/lib/libutils/ext/snprintk.c:527
    121a:	e642      	b.n	ea2 <kprintf.constprop.0+0x2ca>
/home/aom1/Work/Linux/target/STM32MP1-DK2/buildroot/buildroot/output/build/optee-os-custom/lib/libutils/ext/snprintk.c:547
    121c:	9a0c      	ldr	r2, [sp, #48]	; 0x30
    121e:	2a00      	cmp	r2, #0
    1220:	f43f acf9 	beq.w	c16 <kprintf.constprop.0+0x3e>
    1224:	e599      	b.n	d5a <kprintf.constprop.0+0x182>
/home/aom1/Work/Linux/target/STM32MP1-DK2/buildroot/buildroot/output/build/optee-os-custom/lib/libutils/ext/snprintk.c:574
    1226:	07ac      	lsls	r4, r5, #30
/home/aom1/Work/Linux/target/STM32MP1-DK2/buildroot/buildroot/output/build/optee-os-custom/lib/libutils/ext/snprintk.c:575
    1228:	bf48      	it	mi
    122a:	3302      	addmi	r3, #2
    122c:	e647      	b.n	ebe <kprintf.constprop.0+0x2e6>
/home/aom1/Work/Linux/target/STM32MP1-DK2/buildroot/buildroot/output/build/optee-os-custom/lib/libutils/ext/snprintk.c:584
    122e:	f1b8 0f00 	cmp.w	r8, #0
    1232:	d006      	beq.n	1242 <kprintf.constprop.0+0x66a>
    1234:	9e0e      	ldr	r6, [sp, #56]	; 0x38
    1236:	b116      	cbz	r6, 123e <kprintf.constprop.0+0x666>
    1238:	9e10      	ldr	r6, [sp, #64]	; 0x40
    123a:	4546      	cmp	r6, r8
    123c:	d901      	bls.n	1242 <kprintf.constprop.0+0x66a>
    123e:	f808 4b01 	strb.w	r4, [r8], #1
    1242:	3901      	subs	r1, #1
    1244:	e648      	b.n	ed8 <kprintf.constprop.0+0x300>
/home/aom1/Work/Linux/target/STM32MP1-DK2/buildroot/buildroot/output/build/optee-os-custom/lib/libutils/ext/snprintk.c:590
    1246:	07a9      	lsls	r1, r5, #30
    1248:	f57f ae57 	bpl.w	efa <kprintf.constprop.0+0x322>
/home/aom1/Work/Linux/target/STM32MP1-DK2/buildroot/buildroot/output/build/optee-os-custom/lib/libutils/ext/snprintk.c:591
    124c:	f1b8 0f00 	cmp.w	r8, #0
    1250:	f43f ae53 	beq.w	efa <kprintf.constprop.0+0x322>
    1254:	990e      	ldr	r1, [sp, #56]	; 0x38
    1256:	b119      	cbz	r1, 1260 <kprintf.constprop.0+0x688>
    1258:	9910      	ldr	r1, [sp, #64]	; 0x40
    125a:	4541      	cmp	r1, r8
    125c:	f67f ae4d 	bls.w	efa <kprintf.constprop.0+0x322>
    1260:	2130      	movs	r1, #48	; 0x30
    1262:	f888 1000 	strb.w	r1, [r8]
/home/aom1/Work/Linux/target/STM32MP1-DK2/buildroot/buildroot/output/build/optee-os-custom/lib/libutils/ext/snprintk.c:592
    1266:	990e      	ldr	r1, [sp, #56]	; 0x38
    1268:	b121      	cbz	r1, 1274 <kprintf.constprop.0+0x69c>
    126a:	9c10      	ldr	r4, [sp, #64]	; 0x40
/home/aom1/Work/Linux/target/STM32MP1-DK2/buildroot/buildroot/output/build/optee-os-custom/lib/libutils/ext/snprintk.c:591
    126c:	f108 0101 	add.w	r1, r8, #1
/home/aom1/Work/Linux/target/STM32MP1-DK2/buildroot/buildroot/output/build/optee-os-custom/lib/libutils/ext/snprintk.c:592
    1270:	428c      	cmp	r4, r1
    1272:	d905      	bls.n	1280 <kprintf.constprop.0+0x6a8>
    1274:	990c      	ldr	r1, [sp, #48]	; 0x30
    1276:	f108 0802 	add.w	r8, r8, #2
    127a:	f808 1c01 	strb.w	r1, [r8, #-1]
    127e:	e63c      	b.n	efa <kprintf.constprop.0+0x322>
    1280:	4688      	mov	r8, r1
    1282:	e63a      	b.n	efa <kprintf.constprop.0+0x322>
/home/aom1/Work/Linux/target/STM32MP1-DK2/buildroot/buildroot/output/build/optee-os-custom/lib/libutils/ext/snprintk.c:599
    1284:	f1b8 0f00 	cmp.w	r8, #0
    1288:	d006      	beq.n	1298 <kprintf.constprop.0+0x6c0>
    128a:	9c0e      	ldr	r4, [sp, #56]	; 0x38
    128c:	b114      	cbz	r4, 1294 <kprintf.constprop.0+0x6bc>
    128e:	9c10      	ldr	r4, [sp, #64]	; 0x40
    1290:	4544      	cmp	r4, r8
    1292:	d901      	bls.n	1298 <kprintf.constprop.0+0x6c0>
    1294:	f808 2b01 	strb.w	r2, [r8], #1
    1298:	3901      	subs	r1, #1
    129a:	e634      	b.n	f06 <kprintf.constprop.0+0x32e>
/home/aom1/Work/Linux/target/STM32MP1-DK2/buildroot/buildroot/output/build/optee-os-custom/lib/libutils/ext/snprintk.c:605
    129c:	f1b8 0f00 	cmp.w	r8, #0
    12a0:	d006      	beq.n	12b0 <kprintf.constprop.0+0x6d8>
    12a2:	990e      	ldr	r1, [sp, #56]	; 0x38
    12a4:	b111      	cbz	r1, 12ac <kprintf.constprop.0+0x6d4>
    12a6:	9910      	ldr	r1, [sp, #64]	; 0x40
    12a8:	4541      	cmp	r1, r8
    12aa:	d901      	bls.n	12b0 <kprintf.constprop.0+0x6d8>
    12ac:	f808 2b01 	strb.w	r2, [r8], #1
    12b0:	3801      	subs	r0, #1
    12b2:	e62e      	b.n	f12 <kprintf.constprop.0+0x33a>
/home/aom1/Work/Linux/target/STM32MP1-DK2/buildroot/buildroot/output/build/optee-os-custom/lib/libutils/ext/snprintk.c:609
    12b4:	f1b8 0f00 	cmp.w	r8, #0
    12b8:	d008      	beq.n	12cc <kprintf.constprop.0+0x6f4>
    12ba:	9a0e      	ldr	r2, [sp, #56]	; 0x38
    12bc:	b112      	cbz	r2, 12c4 <kprintf.constprop.0+0x6ec>
    12be:	9a10      	ldr	r2, [sp, #64]	; 0x40
    12c0:	4542      	cmp	r2, r8
    12c2:	d903      	bls.n	12cc <kprintf.constprop.0+0x6f4>
    12c4:	f89a 2000 	ldrb.w	r2, [sl]
    12c8:	f808 2b01 	strb.w	r2, [r8], #1
/home/aom1/Work/Linux/target/STM32MP1-DK2/buildroot/buildroot/output/build/optee-os-custom/lib/libutils/ext/snprintk.c:608
    12cc:	f10a 0a01 	add.w	sl, sl, #1
    12d0:	e624      	b.n	f1c <kprintf.constprop.0+0x344>
/home/aom1/Work/Linux/target/STM32MP1-DK2/buildroot/buildroot/output/build/optee-os-custom/lib/libutils/ext/snprintk.c:622
    12d2:	980d      	ldr	r0, [sp, #52]	; 0x34
    12d4:	b021      	add	sp, #132	; 0x84
    12d6:	e8bd 8ff0 	ldmia.w	sp!, {r4, r5, r6, r7, r8, r9, sl, fp, pc}
    12da:	bf00      	nop
    12dc:	00009496 	.word	0x00009496
    12e0:	0000000c 	.word	0x0000000c
    12e4:	0000945e 	.word	0x0000945e
    12e8:	00007939 	.word	0x00007939
    12ec:	000075de 	.word	0x000075de
    12f0:	000075d5 	.word	0x000075d5
    12f4:	00007557 	.word	0x00007557
    12f8:	000074ed 	.word	0x000074ed

000012fc <__vsprintf>:
__vsprintf():
/home/aom1/Work/Linux/target/STM32MP1-DK2/buildroot/buildroot/output/build/optee-os-custom/lib/libutils/ext/snprintk.c:155
    12fc:	b513      	push	{r0, r1, r4, lr}
    12fe:	4604      	mov	r4, r0
    1300:	4608      	mov	r0, r1
/home/aom1/Work/Linux/target/STM32MP1-DK2/buildroot/buildroot/output/build/optee-os-custom/lib/libutils/ext/snprintk.c:156
    1302:	2100      	movs	r1, #0
    1304:	9100      	str	r1, [sp, #0]
/home/aom1/Work/Linux/target/STM32MP1-DK2/buildroot/buildroot/output/build/optee-os-custom/lib/libutils/ext/snprintk.c:155
    1306:	4613      	mov	r3, r2
/home/aom1/Work/Linux/target/STM32MP1-DK2/buildroot/buildroot/output/build/optee-os-custom/lib/libutils/ext/snprintk.c:156
    1308:	4622      	mov	r2, r4
    130a:	f7ff fc65 	bl	bd8 <kprintf.constprop.0>
/home/aom1/Work/Linux/target/STM32MP1-DK2/buildroot/buildroot/output/build/optee-os-custom/lib/libutils/ext/snprintk.c:157
    130e:	b002      	add	sp, #8
    1310:	bd10      	pop	{r4, pc}
    1312:	bf00      	nop

00001314 <__aeabi_ldivmod>:
__aeabi_ldivmod():
/home/aom1/Work/Linux/target/STM32MP1-DK2/buildroot/buildroot/output/build/optee-os-custom/lib/libutils/isoc/arch/arm/arm32_aeabi_ldivmod_a32.S:12
    1314:	e92d5000 	push	{ip, lr}
/home/aom1/Work/Linux/target/STM32MP1-DK2/buildroot/buildroot/output/build/optee-os-custom/lib/libutils/isoc/arch/arm/arm32_aeabi_ldivmod_a32.S:14
    1318:	e92d000f 	push	{r0, r1, r2, r3}
/home/aom1/Work/Linux/target/STM32MP1-DK2/buildroot/buildroot/output/build/optee-os-custom/lib/libutils/isoc/arch/arm/arm32_aeabi_ldivmod_a32.S:16
    131c:	e1a0000d 	mov	r0, sp
/home/aom1/Work/Linux/target/STM32MP1-DK2/buildroot/buildroot/output/build/optee-os-custom/lib/libutils/isoc/arch/arm/arm32_aeabi_ldivmod_a32.S:17
    1320:	fa000048 	blx	1448 <__l_divmod>
/home/aom1/Work/Linux/target/STM32MP1-DK2/buildroot/buildroot/output/build/optee-os-custom/lib/libutils/isoc/arch/arm/arm32_aeabi_ldivmod_a32.S:18
    1324:	e8bd000f 	pop	{r0, r1, r2, r3}
/home/aom1/Work/Linux/target/STM32MP1-DK2/buildroot/buildroot/output/build/optee-os-custom/lib/libutils/isoc/arch/arm/arm32_aeabi_ldivmod_a32.S:19
    1328:	e8bd9000 	pop	{ip, pc}

0000132c <__aeabi_uldivmod>:
__aeabi_uldivmod():
/home/aom1/Work/Linux/target/STM32MP1-DK2/buildroot/buildroot/output/build/optee-os-custom/lib/libutils/isoc/arch/arm/arm32_aeabi_ldivmod_a32.S:27
    132c:	e92d5000 	push	{ip, lr}
/home/aom1/Work/Linux/target/STM32MP1-DK2/buildroot/buildroot/output/build/optee-os-custom/lib/libutils/isoc/arch/arm/arm32_aeabi_ldivmod_a32.S:29
    1330:	e92d000f 	push	{r0, r1, r2, r3}
/home/aom1/Work/Linux/target/STM32MP1-DK2/buildroot/buildroot/output/build/optee-os-custom/lib/libutils/isoc/arch/arm/arm32_aeabi_ldivmod_a32.S:31
    1334:	e1a0000d 	mov	r0, sp
/home/aom1/Work/Linux/target/STM32MP1-DK2/buildroot/buildroot/output/build/optee-os-custom/lib/libutils/isoc/arch/arm/arm32_aeabi_ldivmod_a32.S:32
    1338:	fb000024 	blx	13d2 <__ul_divmod>
/home/aom1/Work/Linux/target/STM32MP1-DK2/buildroot/buildroot/output/build/optee-os-custom/lib/libutils/isoc/arch/arm/arm32_aeabi_ldivmod_a32.S:33
    133c:	e8bd000f 	pop	{r0, r1, r2, r3}
/home/aom1/Work/Linux/target/STM32MP1-DK2/buildroot/buildroot/output/build/optee-os-custom/lib/libutils/isoc/arch/arm/arm32_aeabi_ldivmod_a32.S:34
    1340:	e8bd9000 	pop	{ip, pc}

00001344 <ul_div_qr>:
ul_div_qr():
/home/aom1/Work/Linux/target/STM32MP1-DK2/buildroot/buildroot/output/build/optee-os-custom/lib/libutils/isoc/arch/arm/arm32_aeabi_ldivmod.c:47
    1344:	b5f0      	push	{r4, r5, r6, r7, lr}
division_lqr():
/home/aom1/Work/Linux/target/STM32MP1-DK2/buildroot/buildroot/output/build/optee-os-custom/lib/libutils/isoc/arch/arm/arm32_aeabi_ldivmod.c:22
    1346:	ea52 0403 	orrs.w	r4, r2, r3
ul_div_qr():
/home/aom1/Work/Linux/target/STM32MP1-DK2/buildroot/buildroot/output/build/optee-os-custom/lib/libutils/isoc/arch/arm/arm32_aeabi_ldivmod.c:47
    134a:	9d05      	ldr	r5, [sp, #20]
division_lqr():
/home/aom1/Work/Linux/target/STM32MP1-DK2/buildroot/buildroot/output/build/optee-os-custom/lib/libutils/isoc/arch/arm/arm32_aeabi_ldivmod.c:22
    134c:	d128      	bne.n	13a0 <ul_div_qr+0x5c>
/home/aom1/Work/Linux/target/STM32MP1-DK2/buildroot/buildroot/output/build/optee-os-custom/lib/libutils/isoc/arch/arm/arm32_aeabi_ldivmod.c:23
    134e:	f04f 32ff 	mov.w	r2, #4294967295	; 0xffffffff
    1352:	f04f 33ff 	mov.w	r3, #4294967295	; 0xffffffff
    1356:	e9c5 2302 	strd	r2, r3, [r5, #8]
ul_div_qr():
/home/aom1/Work/Linux/target/STM32MP1-DK2/buildroot/buildroot/output/build/optee-os-custom/lib/libutils/isoc/arch/arm/arm32_aeabi_ldivmod.c:52
    135a:	692b      	ldr	r3, [r5, #16]
    135c:	b133      	cbz	r3, 136c <ul_div_qr+0x28>
/home/aom1/Work/Linux/target/STM32MP1-DK2/buildroot/buildroot/output/build/optee-os-custom/lib/libutils/isoc/arch/arm/arm32_aeabi_ldivmod.c:53
    135e:	e9d5 3200 	ldrd	r3, r2, [r5]
    1362:	425b      	negs	r3, r3
    1364:	eb62 0242 	sbc.w	r2, r2, r2, lsl #1
    1368:	e9c5 3200 	strd	r3, r2, [r5]
/home/aom1/Work/Linux/target/STM32MP1-DK2/buildroot/buildroot/output/build/optee-os-custom/lib/libutils/isoc/arch/arm/arm32_aeabi_ldivmod.c:54
    136c:	696b      	ldr	r3, [r5, #20]
    136e:	b133      	cbz	r3, 137e <ul_div_qr+0x3a>
/home/aom1/Work/Linux/target/STM32MP1-DK2/buildroot/buildroot/output/build/optee-os-custom/lib/libutils/isoc/arch/arm/arm32_aeabi_ldivmod.c:55
    1370:	e9d5 3202 	ldrd	r3, r2, [r5, #8]
    1374:	425b      	negs	r3, r3
    1376:	eb62 0242 	sbc.w	r2, r2, r2, lsl #1
    137a:	e9c5 3202 	strd	r3, r2, [r5, #8]
/home/aom1/Work/Linux/target/STM32MP1-DK2/buildroot/buildroot/output/build/optee-os-custom/lib/libutils/isoc/arch/arm/arm32_aeabi_ldivmod.c:56
    137e:	bdf0      	pop	{r4, r5, r6, r7, pc}
division_lqr():
/home/aom1/Work/Linux/target/STM32MP1-DK2/buildroot/buildroot/output/build/optee-os-custom/lib/libutils/isoc/arch/arm/arm32_aeabi_ldivmod.c:28
    1380:	19b6      	adds	r6, r6, r6
    1382:	417f      	adcs	r7, r7
/home/aom1/Work/Linux/target/STM32MP1-DK2/buildroot/buildroot/output/build/optee-os-custom/lib/libutils/isoc/arch/arm/arm32_aeabi_ldivmod.c:29
    1384:	1892      	adds	r2, r2, r2
    1386:	415b      	adcs	r3, r3
/home/aom1/Work/Linux/target/STM32MP1-DK2/buildroot/buildroot/output/build/optee-os-custom/lib/libutils/isoc/arch/arm/arm32_aeabi_ldivmod.c:27
    1388:	2b00      	cmp	r3, #0
    138a:	daf9      	bge.n	1380 <ul_div_qr+0x3c>
/home/aom1/Work/Linux/target/STM32MP1-DK2/buildroot/buildroot/output/build/optee-os-custom/lib/libutils/isoc/arch/arm/arm32_aeabi_ldivmod.c:21
    138c:	2400      	movs	r4, #0
    138e:	46a4      	mov	ip, r4
/home/aom1/Work/Linux/target/STM32MP1-DK2/buildroot/buildroot/output/build/optee-os-custom/lib/libutils/isoc/arch/arm/arm32_aeabi_ldivmod.c:32
    1390:	ea56 0e07 	orrs.w	lr, r6, r7
    1394:	d107      	bne.n	13a6 <ul_div_qr+0x62>
/home/aom1/Work/Linux/target/STM32MP1-DK2/buildroot/buildroot/output/build/optee-os-custom/lib/libutils/isoc/arch/arm/arm32_aeabi_ldivmod.c:41
    1396:	e9c5 0102 	strd	r0, r1, [r5, #8]
/home/aom1/Work/Linux/target/STM32MP1-DK2/buildroot/buildroot/output/build/optee-os-custom/lib/libutils/isoc/arch/arm/arm32_aeabi_ldivmod.c:42
    139a:	e9c5 4c00 	strd	r4, ip, [r5]
    139e:	e7dc      	b.n	135a <ul_div_qr+0x16>
/home/aom1/Work/Linux/target/STM32MP1-DK2/buildroot/buildroot/output/build/optee-os-custom/lib/libutils/isoc/arch/arm/arm32_aeabi_ldivmod.c:21
    13a0:	2601      	movs	r6, #1
    13a2:	2700      	movs	r7, #0
    13a4:	e7f0      	b.n	1388 <ul_div_qr+0x44>
/home/aom1/Work/Linux/target/STM32MP1-DK2/buildroot/buildroot/output/build/optee-os-custom/lib/libutils/isoc/arch/arm/arm32_aeabi_ldivmod.c:33
    13a6:	1924      	adds	r4, r4, r4
    13a8:	eb4c 0c0c 	adc.w	ip, ip, ip
/home/aom1/Work/Linux/target/STM32MP1-DK2/buildroot/buildroot/output/build/optee-os-custom/lib/libutils/isoc/arch/arm/arm32_aeabi_ldivmod.c:34
    13ac:	4290      	cmp	r0, r2
    13ae:	eb71 0e03 	sbcs.w	lr, r1, r3
    13b2:	d305      	bcc.n	13c0 <ul_div_qr+0x7c>
/home/aom1/Work/Linux/target/STM32MP1-DK2/buildroot/buildroot/output/build/optee-os-custom/lib/libutils/isoc/arch/arm/arm32_aeabi_ldivmod.c:35
    13b4:	1a80      	subs	r0, r0, r2
    13b6:	eb61 0103 	sbc.w	r1, r1, r3
/home/aom1/Work/Linux/target/STM32MP1-DK2/buildroot/buildroot/output/build/optee-os-custom/lib/libutils/isoc/arch/arm/arm32_aeabi_ldivmod.c:36
    13ba:	3401      	adds	r4, #1
    13bc:	f14c 0c00 	adc.w	ip, ip, #0
/home/aom1/Work/Linux/target/STM32MP1-DK2/buildroot/buildroot/output/build/optee-os-custom/lib/libutils/isoc/arch/arm/arm32_aeabi_ldivmod.c:38
    13c0:	0852      	lsrs	r2, r2, #1
/home/aom1/Work/Linux/target/STM32MP1-DK2/buildroot/buildroot/output/build/optee-os-custom/lib/libutils/isoc/arch/arm/arm32_aeabi_ldivmod.c:39
    13c2:	0876      	lsrs	r6, r6, #1
/home/aom1/Work/Linux/target/STM32MP1-DK2/buildroot/buildroot/output/build/optee-os-custom/lib/libutils/isoc/arch/arm/arm32_aeabi_ldivmod.c:38
    13c4:	ea42 72c3 	orr.w	r2, r2, r3, lsl #31
/home/aom1/Work/Linux/target/STM32MP1-DK2/buildroot/buildroot/output/build/optee-os-custom/lib/libutils/isoc/arch/arm/arm32_aeabi_ldivmod.c:39
    13c8:	ea46 76c7 	orr.w	r6, r6, r7, lsl #31
/home/aom1/Work/Linux/target/STM32MP1-DK2/buildroot/buildroot/output/build/optee-os-custom/lib/libutils/isoc/arch/arm/arm32_aeabi_ldivmod.c:38
    13cc:	085b      	lsrs	r3, r3, #1
/home/aom1/Work/Linux/target/STM32MP1-DK2/buildroot/buildroot/output/build/optee-os-custom/lib/libutils/isoc/arch/arm/arm32_aeabi_ldivmod.c:39
    13ce:	087f      	lsrs	r7, r7, #1
    13d0:	e7de      	b.n	1390 <ul_div_qr+0x4c>

000013d2 <__ul_divmod>:
__ul_divmod():
/home/aom1/Work/Linux/target/STM32MP1-DK2/buildroot/buildroot/output/build/optee-os-custom/lib/libutils/isoc/arch/arm/arm32_aeabi_ldivmod.c:66
    13d2:	4a1a      	ldr	r2, [pc, #104]	; (143c <__ul_divmod+0x6a>)
/home/aom1/Work/Linux/target/STM32MP1-DK2/buildroot/buildroot/output/build/optee-os-custom/lib/libutils/isoc/arch/arm/arm32_aeabi_ldivmod.c:69
    13d4:	2100      	movs	r1, #0
/home/aom1/Work/Linux/target/STM32MP1-DK2/buildroot/buildroot/output/build/optee-os-custom/lib/libutils/isoc/arch/arm/arm32_aeabi_ldivmod.c:66
    13d6:	4b1a      	ldr	r3, [pc, #104]	; (1440 <__ul_divmod+0x6e>)
    13d8:	447a      	add	r2, pc
    13da:	e92d 43d0 	stmdb	sp!, {r4, r6, r7, r8, r9, lr}
    13de:	b08a      	sub	sp, #40	; 0x28
    13e0:	58d3      	ldr	r3, [r2, r3]
    13e2:	4604      	mov	r4, r0
/home/aom1/Work/Linux/target/STM32MP1-DK2/buildroot/buildroot/output/build/optee-os-custom/lib/libutils/isoc/arch/arm/arm32_aeabi_ldivmod.c:67
    13e4:	e9d0 6700 	ldrd	r6, r7, [r0]
/home/aom1/Work/Linux/target/STM32MP1-DK2/buildroot/buildroot/output/build/optee-os-custom/lib/libutils/isoc/arch/arm/arm32_aeabi_ldivmod.c:66
    13e8:	681b      	ldr	r3, [r3, #0]
    13ea:	9309      	str	r3, [sp, #36]	; 0x24
    13ec:	f04f 0300 	mov.w	r3, #0
/home/aom1/Work/Linux/target/STM32MP1-DK2/buildroot/buildroot/output/build/optee-os-custom/lib/libutils/isoc/arch/arm/arm32_aeabi_ldivmod.c:69
    13f0:	ab02      	add	r3, sp, #8
/home/aom1/Work/Linux/target/STM32MP1-DK2/buildroot/buildroot/output/build/optee-os-custom/lib/libutils/isoc/arch/arm/arm32_aeabi_ldivmod.c:68
    13f2:	e9d0 8902 	ldrd	r8, r9, [r0, #8]
/home/aom1/Work/Linux/target/STM32MP1-DK2/buildroot/buildroot/output/build/optee-os-custom/lib/libutils/isoc/arch/arm/arm32_aeabi_ldivmod.c:69
    13f6:	2218      	movs	r2, #24
    13f8:	4618      	mov	r0, r3
    13fa:	f006 fe65 	bl	80c8 <memset>
/home/aom1/Work/Linux/target/STM32MP1-DK2/buildroot/buildroot/output/build/optee-os-custom/lib/libutils/isoc/arch/arm/arm32_aeabi_ldivmod.c:71
    13fe:	9000      	str	r0, [sp, #0]
    1400:	4642      	mov	r2, r8
    1402:	464b      	mov	r3, r9
    1404:	4630      	mov	r0, r6
    1406:	4639      	mov	r1, r7
    1408:	f7ff ff9c 	bl	1344 <ul_div_qr>
/home/aom1/Work/Linux/target/STM32MP1-DK2/buildroot/buildroot/output/build/optee-os-custom/lib/libutils/isoc/arch/arm/arm32_aeabi_ldivmod.c:73
    140c:	e9dd 2302 	ldrd	r2, r3, [sp, #8]
    1410:	e9c4 2300 	strd	r2, r3, [r4]
/home/aom1/Work/Linux/target/STM32MP1-DK2/buildroot/buildroot/output/build/optee-os-custom/lib/libutils/isoc/arch/arm/arm32_aeabi_ldivmod.c:74
    1414:	e9dd 2304 	ldrd	r2, r3, [sp, #16]
    1418:	e9c4 2302 	strd	r2, r3, [r4, #8]
/home/aom1/Work/Linux/target/STM32MP1-DK2/buildroot/buildroot/output/build/optee-os-custom/lib/libutils/isoc/arch/arm/arm32_aeabi_ldivmod.c:66
    141c:	4a09      	ldr	r2, [pc, #36]	; (1444 <__ul_divmod+0x72>)
/home/aom1/Work/Linux/target/STM32MP1-DK2/buildroot/buildroot/output/build/optee-os-custom/lib/libutils/isoc/arch/arm/arm32_aeabi_ldivmod.c:75
    141e:	4b08      	ldr	r3, [pc, #32]	; (1440 <__ul_divmod+0x6e>)
/home/aom1/Work/Linux/target/STM32MP1-DK2/buildroot/buildroot/output/build/optee-os-custom/lib/libutils/isoc/arch/arm/arm32_aeabi_ldivmod.c:66
    1420:	447a      	add	r2, pc
/home/aom1/Work/Linux/target/STM32MP1-DK2/buildroot/buildroot/output/build/optee-os-custom/lib/libutils/isoc/arch/arm/arm32_aeabi_ldivmod.c:75
    1422:	58d3      	ldr	r3, [r2, r3]
    1424:	681a      	ldr	r2, [r3, #0]
    1426:	9b09      	ldr	r3, [sp, #36]	; 0x24
    1428:	405a      	eors	r2, r3
    142a:	f04f 0300 	mov.w	r3, #0
    142e:	d001      	beq.n	1434 <__ul_divmod+0x62>
    1430:	f006 fe49 	bl	80c6 <__stack_chk_fail>
    1434:	b00a      	add	sp, #40	; 0x28
    1436:	e8bd 83d0 	ldmia.w	sp!, {r4, r6, r7, r8, r9, pc}
    143a:	bf00      	nop
    143c:	00008cac 	.word	0x00008cac
    1440:	0000000c 	.word	0x0000000c
    1444:	00008c64 	.word	0x00008c64

00001448 <__l_divmod>:
__l_divmod():
/home/aom1/Work/Linux/target/STM32MP1-DK2/buildroot/buildroot/output/build/optee-os-custom/lib/libutils/isoc/arch/arm/arm32_aeabi_ldivmod.c:85
    1448:	4a29      	ldr	r2, [pc, #164]	; (14f0 <__l_divmod+0xa8>)
/home/aom1/Work/Linux/target/STM32MP1-DK2/buildroot/buildroot/output/build/optee-os-custom/lib/libutils/isoc/arch/arm/arm32_aeabi_ldivmod.c:88
    144a:	2100      	movs	r1, #0
/home/aom1/Work/Linux/target/STM32MP1-DK2/buildroot/buildroot/output/build/optee-os-custom/lib/libutils/isoc/arch/arm/arm32_aeabi_ldivmod.c:85
    144c:	4b29      	ldr	r3, [pc, #164]	; (14f4 <__l_divmod+0xac>)
    144e:	447a      	add	r2, pc
    1450:	e92d 43f0 	stmdb	sp!, {r4, r5, r6, r7, r8, r9, lr}
    1454:	b08b      	sub	sp, #44	; 0x2c
    1456:	58d3      	ldr	r3, [r2, r3]
/home/aom1/Work/Linux/target/STM32MP1-DK2/buildroot/buildroot/output/build/optee-os-custom/lib/libutils/isoc/arch/arm/arm32_aeabi_ldivmod.c:88
    1458:	f10d 0908 	add.w	r9, sp, #8
/home/aom1/Work/Linux/target/STM32MP1-DK2/buildroot/buildroot/output/build/optee-os-custom/lib/libutils/isoc/arch/arm/arm32_aeabi_ldivmod.c:86
    145c:	e9d0 7800 	ldrd	r7, r8, [r0]
/home/aom1/Work/Linux/target/STM32MP1-DK2/buildroot/buildroot/output/build/optee-os-custom/lib/libutils/isoc/arch/arm/arm32_aeabi_ldivmod.c:87
    1460:	e9d0 4602 	ldrd	r4, r6, [r0, #8]
/home/aom1/Work/Linux/target/STM32MP1-DK2/buildroot/buildroot/output/build/optee-os-custom/lib/libutils/isoc/arch/arm/arm32_aeabi_ldivmod.c:85
    1464:	4605      	mov	r5, r0
/home/aom1/Work/Linux/target/STM32MP1-DK2/buildroot/buildroot/output/build/optee-os-custom/lib/libutils/isoc/arch/arm/arm32_aeabi_ldivmod.c:88
    1466:	2218      	movs	r2, #24
/home/aom1/Work/Linux/target/STM32MP1-DK2/buildroot/buildroot/output/build/optee-os-custom/lib/libutils/isoc/arch/arm/arm32_aeabi_ldivmod.c:85
    1468:	681b      	ldr	r3, [r3, #0]
    146a:	9309      	str	r3, [sp, #36]	; 0x24
    146c:	f04f 0300 	mov.w	r3, #0
/home/aom1/Work/Linux/target/STM32MP1-DK2/buildroot/buildroot/output/build/optee-os-custom/lib/libutils/isoc/arch/arm/arm32_aeabi_ldivmod.c:88
    1470:	4648      	mov	r0, r9
    1472:	f006 fe29 	bl	80c8 <memset>
/home/aom1/Work/Linux/target/STM32MP1-DK2/buildroot/buildroot/output/build/optee-os-custom/lib/libutils/isoc/arch/arm/arm32_aeabi_ldivmod.c:90
    1476:	f1b8 0f00 	cmp.w	r8, #0
    147a:	da29      	bge.n	14d0 <__l_divmod+0x88>
/home/aom1/Work/Linux/target/STM32MP1-DK2/buildroot/buildroot/output/build/optee-os-custom/lib/libutils/isoc/arch/arm/arm32_aeabi_ldivmod.c:90 (discriminator 1)
    147c:	2c01      	cmp	r4, #1
    147e:	f176 0300 	sbcs.w	r3, r6, #0
    1482:	da2a      	bge.n	14da <__l_divmod+0x92>
/home/aom1/Work/Linux/target/STM32MP1-DK2/buildroot/buildroot/output/build/optee-os-custom/lib/libutils/isoc/arch/arm/arm32_aeabi_ldivmod.c:94
    1484:	427f      	negs	r7, r7
/home/aom1/Work/Linux/target/STM32MP1-DK2/buildroot/buildroot/output/build/optee-os-custom/lib/libutils/isoc/arch/arm/arm32_aeabi_ldivmod.c:95
    1486:	f04f 0301 	mov.w	r3, #1
/home/aom1/Work/Linux/target/STM32MP1-DK2/buildroot/buildroot/output/build/optee-os-custom/lib/libutils/isoc/arch/arm/arm32_aeabi_ldivmod.c:94
    148a:	eb68 0848 	sbc.w	r8, r8, r8, lsl #1
/home/aom1/Work/Linux/target/STM32MP1-DK2/buildroot/buildroot/output/build/optee-os-custom/lib/libutils/isoc/arch/arm/arm32_aeabi_ldivmod.c:95
    148e:	9307      	str	r3, [sp, #28]
/home/aom1/Work/Linux/target/STM32MP1-DK2/buildroot/buildroot/output/build/optee-os-custom/lib/libutils/isoc/arch/arm/arm32_aeabi_ldivmod.c:100
    1490:	1e33      	subs	r3, r6, #0
    1492:	4622      	mov	r2, r4
    1494:	da02      	bge.n	149c <__l_divmod+0x54>
    1496:	4262      	negs	r2, r4
    1498:	eb63 0343 	sbc.w	r3, r3, r3, lsl #1
    149c:	f8cd 9000 	str.w	r9, [sp]
    14a0:	4638      	mov	r0, r7
    14a2:	4641      	mov	r1, r8
    14a4:	f7ff ff4e 	bl	1344 <ul_div_qr>
/home/aom1/Work/Linux/target/STM32MP1-DK2/buildroot/buildroot/output/build/optee-os-custom/lib/libutils/isoc/arch/arm/arm32_aeabi_ldivmod.c:102
    14a8:	e9dd 2302 	ldrd	r2, r3, [sp, #8]
    14ac:	e9c5 2300 	strd	r2, r3, [r5]
/home/aom1/Work/Linux/target/STM32MP1-DK2/buildroot/buildroot/output/build/optee-os-custom/lib/libutils/isoc/arch/arm/arm32_aeabi_ldivmod.c:103
    14b0:	e9dd 2304 	ldrd	r2, r3, [sp, #16]
    14b4:	e9c5 2302 	strd	r2, r3, [r5, #8]
/home/aom1/Work/Linux/target/STM32MP1-DK2/buildroot/buildroot/output/build/optee-os-custom/lib/libutils/isoc/arch/arm/arm32_aeabi_ldivmod.c:85
    14b8:	4a0f      	ldr	r2, [pc, #60]	; (14f8 <__l_divmod+0xb0>)
/home/aom1/Work/Linux/target/STM32MP1-DK2/buildroot/buildroot/output/build/optee-os-custom/lib/libutils/isoc/arch/arm/arm32_aeabi_ldivmod.c:104
    14ba:	4b0e      	ldr	r3, [pc, #56]	; (14f4 <__l_divmod+0xac>)
/home/aom1/Work/Linux/target/STM32MP1-DK2/buildroot/buildroot/output/build/optee-os-custom/lib/libutils/isoc/arch/arm/arm32_aeabi_ldivmod.c:85
    14bc:	447a      	add	r2, pc
/home/aom1/Work/Linux/target/STM32MP1-DK2/buildroot/buildroot/output/build/optee-os-custom/lib/libutils/isoc/arch/arm/arm32_aeabi_ldivmod.c:104
    14be:	58d3      	ldr	r3, [r2, r3]
    14c0:	681a      	ldr	r2, [r3, #0]
    14c2:	9b09      	ldr	r3, [sp, #36]	; 0x24
    14c4:	405a      	eors	r2, r3
    14c6:	f04f 0300 	mov.w	r3, #0
    14ca:	d00d      	beq.n	14e8 <__l_divmod+0xa0>
    14cc:	f006 fdfb 	bl	80c6 <__stack_chk_fail>
/home/aom1/Work/Linux/target/STM32MP1-DK2/buildroot/buildroot/output/build/optee-os-custom/lib/libutils/isoc/arch/arm/arm32_aeabi_ldivmod.c:90 (discriminator 3)
    14d0:	ea57 0308 	orrs.w	r3, r7, r8
    14d4:	d0dc      	beq.n	1490 <__l_divmod+0x48>
/home/aom1/Work/Linux/target/STM32MP1-DK2/buildroot/buildroot/output/build/optee-os-custom/lib/libutils/isoc/arch/arm/arm32_aeabi_ldivmod.c:91
    14d6:	2e00      	cmp	r6, #0
    14d8:	dada      	bge.n	1490 <__l_divmod+0x48>
/home/aom1/Work/Linux/target/STM32MP1-DK2/buildroot/buildroot/output/build/optee-os-custom/lib/libutils/isoc/arch/arm/arm32_aeabi_ldivmod.c:93
    14da:	f1b8 0f00 	cmp.w	r8, #0
/home/aom1/Work/Linux/target/STM32MP1-DK2/buildroot/buildroot/output/build/optee-os-custom/lib/libutils/isoc/arch/arm/arm32_aeabi_ldivmod.c:92
    14de:	f04f 0301 	mov.w	r3, #1
    14e2:	9306      	str	r3, [sp, #24]
/home/aom1/Work/Linux/target/STM32MP1-DK2/buildroot/buildroot/output/build/optee-os-custom/lib/libutils/isoc/arch/arm/arm32_aeabi_ldivmod.c:93
    14e4:	dbce      	blt.n	1484 <__l_divmod+0x3c>
    14e6:	e7d3      	b.n	1490 <__l_divmod+0x48>
/home/aom1/Work/Linux/target/STM32MP1-DK2/buildroot/buildroot/output/build/optee-os-custom/lib/libutils/isoc/arch/arm/arm32_aeabi_ldivmod.c:104
    14e8:	b00b      	add	sp, #44	; 0x2c
    14ea:	e8bd 83f0 	ldmia.w	sp!, {r4, r5, r6, r7, r8, r9, pc}
    14ee:	bf00      	nop
    14f0:	00008c36 	.word	0x00008c36
    14f4:	0000000c 	.word	0x0000000c
    14f8:	00008bc8 	.word	0x00008bc8

000014fc <trace_ext_puts>:
trace_ext_puts():
/home/aom1/Work/Linux/target/STM32MP1-DK2/buildroot/buildroot/output/build/optee-os-custom/lib/libutee/trace_ext.c:22
    14fc:	b510      	push	{r4, lr}
    14fe:	4604      	mov	r4, r0
/home/aom1/Work/Linux/target/STM32MP1-DK2/buildroot/buildroot/output/build/optee-os-custom/lib/libutee/trace_ext.c:26
    1500:	f006 fdf8 	bl	80f4 <strlen>
    1504:	4601      	mov	r1, r0
    1506:	4620      	mov	r0, r4
/home/aom1/Work/Linux/target/STM32MP1-DK2/buildroot/buildroot/output/build/optee-os-custom/lib/libutee/trace_ext.c:28
    1508:	e8bd 4010 	ldmia.w	sp!, {r4, lr}
/home/aom1/Work/Linux/target/STM32MP1-DK2/buildroot/buildroot/output/build/optee-os-custom/lib/libutee/trace_ext.c:26
    150c:	f006 be58 	b.w	81c0 <___utee_log_from_thumb>

00001510 <trace_ext_get_thread_id>:
trace_ext_get_thread_id():
/home/aom1/Work/Linux/target/STM32MP1-DK2/buildroot/buildroot/output/build/optee-os-custom/lib/libutee/trace_ext.c:33
    1510:	f04f 30ff 	mov.w	r0, #4294967295	; 0xffffffff
    1514:	4770      	bx	lr

00001516 <printf>:
printf():
/home/aom1/Work/Linux/target/STM32MP1-DK2/buildroot/buildroot/output/build/optee-os-custom/lib/libutee/trace_ext.c:41
    1516:	b40f      	push	{r0, r1, r2, r3}
    1518:	b530      	push	{r4, r5, lr}
    151a:	b0c5      	sub	sp, #276	; 0x114
    151c:	4b17      	ldr	r3, [pc, #92]	; (157c <printf+0x66>)
    151e:	9a48      	ldr	r2, [sp, #288]	; 0x120
    1520:	9201      	str	r2, [sp, #4]
    1522:	4a17      	ldr	r2, [pc, #92]	; (1580 <printf+0x6a>)
    1524:	447a      	add	r2, pc
    1526:	58d3      	ldr	r3, [r2, r3]
    1528:	681b      	ldr	r3, [r3, #0]
    152a:	9343      	str	r3, [sp, #268]	; 0x10c
    152c:	f04f 0300 	mov.w	r3, #0
/home/aom1/Work/Linux/target/STM32MP1-DK2/buildroot/buildroot/output/build/optee-os-custom/lib/libutee/trace_ext.c:46
    1530:	f7ff f9f6 	bl	920 <trace_get_level>
    1534:	2800      	cmp	r0, #0
    1536:	dd19      	ble.n	156c <printf+0x56>
/home/aom1/Work/Linux/target/STM32MP1-DK2/buildroot/buildroot/output/build/optee-os-custom/lib/libutee/trace_ext.c:50
    1538:	9a01      	ldr	r2, [sp, #4]
    153a:	ad03      	add	r5, sp, #12
/home/aom1/Work/Linux/target/STM32MP1-DK2/buildroot/buildroot/output/build/optee-os-custom/lib/libutee/trace_ext.c:49
    153c:	ab49      	add	r3, sp, #292	; 0x124
/home/aom1/Work/Linux/target/STM32MP1-DK2/buildroot/buildroot/output/build/optee-os-custom/lib/libutee/trace_ext.c:50
    153e:	f44f 7180 	mov.w	r1, #256	; 0x100
/home/aom1/Work/Linux/target/STM32MP1-DK2/buildroot/buildroot/output/build/optee-os-custom/lib/libutee/trace_ext.c:49
    1542:	9302      	str	r3, [sp, #8]
/home/aom1/Work/Linux/target/STM32MP1-DK2/buildroot/buildroot/output/build/optee-os-custom/lib/libutee/trace_ext.c:50
    1544:	4628      	mov	r0, r5
    1546:	f006 fcc9 	bl	7edc <vsnprintf>
/home/aom1/Work/Linux/target/STM32MP1-DK2/buildroot/buildroot/output/build/optee-os-custom/lib/libutee/trace_ext.c:53
    154a:	1e04      	subs	r4, r0, #0
    154c:	db02      	blt.n	1554 <printf+0x3e>
/home/aom1/Work/Linux/target/STM32MP1-DK2/buildroot/buildroot/output/build/optee-os-custom/lib/libutee/trace_ext.c:56
    154e:	4628      	mov	r0, r5
    1550:	f7ff ffd4 	bl	14fc <trace_ext_puts>
/home/aom1/Work/Linux/target/STM32MP1-DK2/buildroot/buildroot/output/build/optee-os-custom/lib/libutee/trace_ext.c:41
    1554:	4a0b      	ldr	r2, [pc, #44]	; (1584 <printf+0x6e>)
/home/aom1/Work/Linux/target/STM32MP1-DK2/buildroot/buildroot/output/build/optee-os-custom/lib/libutee/trace_ext.c:59
    1556:	4b09      	ldr	r3, [pc, #36]	; (157c <printf+0x66>)
/home/aom1/Work/Linux/target/STM32MP1-DK2/buildroot/buildroot/output/build/optee-os-custom/lib/libutee/trace_ext.c:41
    1558:	447a      	add	r2, pc
/home/aom1/Work/Linux/target/STM32MP1-DK2/buildroot/buildroot/output/build/optee-os-custom/lib/libutee/trace_ext.c:59
    155a:	58d3      	ldr	r3, [r2, r3]
    155c:	681a      	ldr	r2, [r3, #0]
    155e:	9b43      	ldr	r3, [sp, #268]	; 0x10c
    1560:	405a      	eors	r2, r3
    1562:	f04f 0300 	mov.w	r3, #0
    1566:	d003      	beq.n	1570 <printf+0x5a>
    1568:	f006 fdad 	bl	80c6 <__stack_chk_fail>
/home/aom1/Work/Linux/target/STM32MP1-DK2/buildroot/buildroot/output/build/optee-os-custom/lib/libutee/trace_ext.c:47
    156c:	2400      	movs	r4, #0
    156e:	e7f1      	b.n	1554 <printf+0x3e>
/home/aom1/Work/Linux/target/STM32MP1-DK2/buildroot/buildroot/output/build/optee-os-custom/lib/libutee/trace_ext.c:59
    1570:	4620      	mov	r0, r4
    1572:	b045      	add	sp, #276	; 0x114
    1574:	e8bd 4030 	ldmia.w	sp!, {r4, r5, lr}
    1578:	b004      	add	sp, #16
    157a:	4770      	bx	lr
    157c:	0000000c 	.word	0x0000000c
    1580:	00008b60 	.word	0x00008b60
    1584:	00008b2c 	.word	0x00008b2c

00001588 <puts>:
puts():
/home/aom1/Work/Linux/target/STM32MP1-DK2/buildroot/buildroot/output/build/optee-os-custom/lib/libutee/trace_ext.c:62
    1588:	b510      	push	{r4, lr}
    158a:	4604      	mov	r4, r0
/home/aom1/Work/Linux/target/STM32MP1-DK2/buildroot/buildroot/output/build/optee-os-custom/lib/libutee/trace_ext.c:63
    158c:	f7ff f9c8 	bl	920 <trace_get_level>
    1590:	2800      	cmp	r0, #0
    1592:	dd06      	ble.n	15a2 <puts+0x1a>
/home/aom1/Work/Linux/target/STM32MP1-DK2/buildroot/buildroot/output/build/optee-os-custom/lib/libutee/trace_ext.c:64
    1594:	4620      	mov	r0, r4
    1596:	f7ff ffb1 	bl	14fc <trace_ext_puts>
/home/aom1/Work/Linux/target/STM32MP1-DK2/buildroot/buildroot/output/build/optee-os-custom/lib/libutee/trace_ext.c:65
    159a:	4803      	ldr	r0, [pc, #12]	; (15a8 <puts+0x20>)
    159c:	4478      	add	r0, pc
    159e:	f7ff ffad 	bl	14fc <trace_ext_puts>
/home/aom1/Work/Linux/target/STM32MP1-DK2/buildroot/buildroot/output/build/optee-os-custom/lib/libutee/trace_ext.c:68
    15a2:	2001      	movs	r0, #1
    15a4:	bd10      	pop	{r4, pc}
    15a6:	bf00      	nop
    15a8:	00007997 	.word	0x00007997

000015ac <putchar>:
putchar():
/home/aom1/Work/Linux/target/STM32MP1-DK2/buildroot/buildroot/output/build/optee-os-custom/lib/libutee/trace_ext.c:71
    15ac:	4a12      	ldr	r2, [pc, #72]	; (15f8 <putchar+0x4c>)
    15ae:	4b13      	ldr	r3, [pc, #76]	; (15fc <putchar+0x50>)
    15b0:	447a      	add	r2, pc
    15b2:	b513      	push	{r0, r1, r4, lr}
    15b4:	4604      	mov	r4, r0
    15b6:	58d3      	ldr	r3, [r2, r3]
    15b8:	681b      	ldr	r3, [r3, #0]
    15ba:	9301      	str	r3, [sp, #4]
    15bc:	f04f 0300 	mov.w	r3, #0
/home/aom1/Work/Linux/target/STM32MP1-DK2/buildroot/buildroot/output/build/optee-os-custom/lib/libutee/trace_ext.c:72
    15c0:	2300      	movs	r3, #0
    15c2:	f88d 0000 	strb.w	r0, [sp]
    15c6:	f88d 3001 	strb.w	r3, [sp, #1]
/home/aom1/Work/Linux/target/STM32MP1-DK2/buildroot/buildroot/output/build/optee-os-custom/lib/libutee/trace_ext.c:74
    15ca:	f7ff f9a9 	bl	920 <trace_get_level>
    15ce:	2800      	cmp	r0, #0
    15d0:	dd02      	ble.n	15d8 <putchar+0x2c>
/home/aom1/Work/Linux/target/STM32MP1-DK2/buildroot/buildroot/output/build/optee-os-custom/lib/libutee/trace_ext.c:75
    15d2:	4668      	mov	r0, sp
    15d4:	f7ff ff92 	bl	14fc <trace_ext_puts>
/home/aom1/Work/Linux/target/STM32MP1-DK2/buildroot/buildroot/output/build/optee-os-custom/lib/libutee/trace_ext.c:71
    15d8:	4a09      	ldr	r2, [pc, #36]	; (1600 <putchar+0x54>)
/home/aom1/Work/Linux/target/STM32MP1-DK2/buildroot/buildroot/output/build/optee-os-custom/lib/libutee/trace_ext.c:81
    15da:	b2e0      	uxtb	r0, r4
/home/aom1/Work/Linux/target/STM32MP1-DK2/buildroot/buildroot/output/build/optee-os-custom/lib/libutee/trace_ext.c:82
    15dc:	4b07      	ldr	r3, [pc, #28]	; (15fc <putchar+0x50>)
/home/aom1/Work/Linux/target/STM32MP1-DK2/buildroot/buildroot/output/build/optee-os-custom/lib/libutee/trace_ext.c:71
    15de:	447a      	add	r2, pc
/home/aom1/Work/Linux/target/STM32MP1-DK2/buildroot/buildroot/output/build/optee-os-custom/lib/libutee/trace_ext.c:82
    15e0:	58d3      	ldr	r3, [r2, r3]
    15e2:	681a      	ldr	r2, [r3, #0]
    15e4:	9b01      	ldr	r3, [sp, #4]
    15e6:	405a      	eors	r2, r3
    15e8:	f04f 0300 	mov.w	r3, #0
    15ec:	d001      	beq.n	15f2 <putchar+0x46>
    15ee:	f006 fd6a 	bl	80c6 <__stack_chk_fail>
    15f2:	b002      	add	sp, #8
    15f4:	bd10      	pop	{r4, pc}
    15f6:	bf00      	nop
    15f8:	00008ad4 	.word	0x00008ad4
    15fc:	0000000c 	.word	0x0000000c
    1600:	00008aa6 	.word	0x00008aa6

00001604 <check_access>:
check_access():
/home/aom1/Work/Linux/target/STM32MP1-DK2/buildroot/buildroot/output/build/optee-os-custom/lib/libutee/tee_api_panic.c:40
    1604:	4613      	mov	r3, r2
/home/aom1/Work/Linux/target/STM32MP1-DK2/buildroot/buildroot/output/build/optee-os-custom/lib/libutee/tee_api_panic.c:39
    1606:	b410      	push	{r4}
/home/aom1/Work/Linux/target/STM32MP1-DK2/buildroot/buildroot/output/build/optee-os-custom/lib/libutee/tee_api_panic.c:40
    1608:	b12a      	cbz	r2, 1616 <check_access+0x12>
/home/aom1/Work/Linux/target/STM32MP1-DK2/buildroot/buildroot/output/build/optee-os-custom/lib/libutee/tee_api_panic.c:43
    160a:	b119      	cbz	r1, 1614 <check_access+0x10>
/home/aom1/Work/Linux/target/STM32MP1-DK2/buildroot/buildroot/output/build/optee-os-custom/lib/libutee/tee_api_panic.c:50
    160c:	f85d 4b04 	ldr.w	r4, [sp], #4
/home/aom1/Work/Linux/target/STM32MP1-DK2/buildroot/buildroot/output/build/optee-os-custom/lib/libutee/tee_api_panic.c:47
    1610:	f7fe bdbc 	b.w	18c <TEE_CheckMemoryAccessRights>
/home/aom1/Work/Linux/target/STM32MP1-DK2/buildroot/buildroot/output/build/optee-os-custom/lib/libutee/tee_api_panic.c:44
    1614:	4b02      	ldr	r3, [pc, #8]	; (1620 <check_access+0x1c>)
/home/aom1/Work/Linux/target/STM32MP1-DK2/buildroot/buildroot/output/build/optee-os-custom/lib/libutee/tee_api_panic.c:50
    1616:	f85d 4b04 	ldr.w	r4, [sp], #4
    161a:	4618      	mov	r0, r3
    161c:	4770      	bx	lr
    161e:	bf00      	nop
    1620:	ffff000f 	.word	0xffff000f

00001624 <TEE_Panic>:
TEE_Panic():
/home/aom1/Work/Linux/target/STM32MP1-DK2/buildroot/buildroot/output/build/optee-os-custom/lib/libutee/tee_api_panic.c:24
    1624:	f006 bde4 	b.w	81f0 <___utee_panic_from_thumb>

00001628 <check_res.constprop.0>:
check_res():
/home/aom1/Work/Linux/target/STM32MP1-DK2/buildroot/buildroot/output/build/optee-os-custom/lib/libutee/tee_api_panic.c:32
    1628:	b110      	cbz	r0, 1630 <check_res.constprop.0+0x8>
/home/aom1/Work/Linux/target/STM32MP1-DK2/buildroot/buildroot/output/build/optee-os-custom/lib/libutee/tee_api_panic.c:34
    162a:	2000      	movs	r0, #0
    162c:	f7ff bffa 	b.w	1624 <TEE_Panic>
/home/aom1/Work/Linux/target/STM32MP1-DK2/buildroot/buildroot/output/build/optee-os-custom/lib/libutee/tee_api_panic.c:36
    1630:	4770      	bx	lr

00001632 <__utee_check_outbuf_annotation>:
__utee_check_outbuf_annotation():
/home/aom1/Work/Linux/target/STM32MP1-DK2/buildroot/buildroot/output/build/optee-os-custom/lib/libutee/tee_api_panic.c:53
    1632:	b538      	push	{r3, r4, r5, lr}
    1634:	4605      	mov	r5, r0
check_access():
/home/aom1/Work/Linux/target/STM32MP1-DK2/buildroot/buildroot/output/build/optee-os-custom/lib/libutee/tee_api_panic.c:43
    1636:	460c      	mov	r4, r1
    1638:	b169      	cbz	r1, 1656 <__utee_check_outbuf_annotation+0x24>
/home/aom1/Work/Linux/target/STM32MP1-DK2/buildroot/buildroot/output/build/optee-os-custom/lib/libutee/tee_api_panic.c:47
    163a:	2204      	movs	r2, #4
    163c:	2003      	movs	r0, #3
    163e:	f7fe fda5 	bl	18c <TEE_CheckMemoryAccessRights>
__utee_check_outbuf_annotation():
/home/aom1/Work/Linux/target/STM32MP1-DK2/buildroot/buildroot/output/build/optee-os-custom/lib/libutee/tee_api_panic.c:54
    1642:	f7ff fff1 	bl	1628 <check_res.constprop.0>
/home/aom1/Work/Linux/target/STM32MP1-DK2/buildroot/buildroot/output/build/optee-os-custom/lib/libutee/tee_api_panic.c:56
    1646:	6822      	ldr	r2, [r4, #0]
    1648:	4629      	mov	r1, r5
    164a:	2006      	movs	r0, #6
    164c:	f7ff ffda 	bl	1604 <check_access>
/home/aom1/Work/Linux/target/STM32MP1-DK2/buildroot/buildroot/output/build/optee-os-custom/lib/libutee/tee_api_panic.c:58
    1650:	e8bd 4038 	ldmia.w	sp!, {r3, r4, r5, lr}
/home/aom1/Work/Linux/target/STM32MP1-DK2/buildroot/buildroot/output/build/optee-os-custom/lib/libutee/tee_api_panic.c:56
    1654:	e7e8      	b.n	1628 <check_res.constprop.0>
check_access():
/home/aom1/Work/Linux/target/STM32MP1-DK2/buildroot/buildroot/output/build/optee-os-custom/lib/libutee/tee_api_panic.c:44
    1656:	4801      	ldr	r0, [pc, #4]	; (165c <__utee_check_outbuf_annotation+0x2a>)
    1658:	e7f3      	b.n	1642 <__utee_check_outbuf_annotation+0x10>
    165a:	bf00      	nop
    165c:	ffff000f 	.word	0xffff000f

00001660 <__utee_check_instring_annotation>:
__utee_check_instring_annotation():
/home/aom1/Work/Linux/target/STM32MP1-DK2/buildroot/buildroot/output/build/optee-os-custom/lib/libutee/tee_api_panic.c:61
    1660:	b507      	push	{r0, r1, r2, lr}
    1662:	9001      	str	r0, [sp, #4]
/home/aom1/Work/Linux/target/STM32MP1-DK2/buildroot/buildroot/output/build/optee-os-custom/lib/libutee/tee_api_panic.c:63
    1664:	f006 fd46 	bl	80f4 <strlen>
/home/aom1/Work/Linux/target/STM32MP1-DK2/buildroot/buildroot/output/build/optee-os-custom/lib/libutee/tee_api_panic.c:62
    1668:	9901      	ldr	r1, [sp, #4]
    166a:	1c42      	adds	r2, r0, #1
    166c:	2001      	movs	r0, #1
    166e:	f7ff ffc9 	bl	1604 <check_access>
/home/aom1/Work/Linux/target/STM32MP1-DK2/buildroot/buildroot/output/build/optee-os-custom/lib/libutee/tee_api_panic.c:64
    1672:	b003      	add	sp, #12
    1674:	f85d eb04 	ldr.w	lr, [sp], #4
/home/aom1/Work/Linux/target/STM32MP1-DK2/buildroot/buildroot/output/build/optee-os-custom/lib/libutee/tee_api_panic.c:62
    1678:	e7d6      	b.n	1628 <check_res.constprop.0>

0000167a <__utee_check_outstring_annotation>:
__utee_check_outstring_annotation():
/home/aom1/Work/Linux/target/STM32MP1-DK2/buildroot/buildroot/output/build/optee-os-custom/lib/libutee/tee_api_panic.c:67
    167a:	b538      	push	{r3, r4, r5, lr}
    167c:	4605      	mov	r5, r0
check_access():
/home/aom1/Work/Linux/target/STM32MP1-DK2/buildroot/buildroot/output/build/optee-os-custom/lib/libutee/tee_api_panic.c:43
    167e:	460c      	mov	r4, r1
    1680:	b169      	cbz	r1, 169e <__utee_check_outstring_annotation+0x24>
/home/aom1/Work/Linux/target/STM32MP1-DK2/buildroot/buildroot/output/build/optee-os-custom/lib/libutee/tee_api_panic.c:47
    1682:	2204      	movs	r2, #4
    1684:	2003      	movs	r0, #3
    1686:	f7fe fd81 	bl	18c <TEE_CheckMemoryAccessRights>
__utee_check_outstring_annotation():
/home/aom1/Work/Linux/target/STM32MP1-DK2/buildroot/buildroot/output/build/optee-os-custom/lib/libutee/tee_api_panic.c:68
    168a:	f7ff ffcd 	bl	1628 <check_res.constprop.0>
/home/aom1/Work/Linux/target/STM32MP1-DK2/buildroot/buildroot/output/build/optee-os-custom/lib/libutee/tee_api_panic.c:70
    168e:	6822      	ldr	r2, [r4, #0]
    1690:	4629      	mov	r1, r5
    1692:	2006      	movs	r0, #6
    1694:	f7ff ffb6 	bl	1604 <check_access>
/home/aom1/Work/Linux/target/STM32MP1-DK2/buildroot/buildroot/output/build/optee-os-custom/lib/libutee/tee_api_panic.c:72
    1698:	e8bd 4038 	ldmia.w	sp!, {r3, r4, r5, lr}
/home/aom1/Work/Linux/target/STM32MP1-DK2/buildroot/buildroot/output/build/optee-os-custom/lib/libutee/tee_api_panic.c:70
    169c:	e7c4      	b.n	1628 <check_res.constprop.0>
check_access():
/home/aom1/Work/Linux/target/STM32MP1-DK2/buildroot/buildroot/output/build/optee-os-custom/lib/libutee/tee_api_panic.c:44
    169e:	4801      	ldr	r0, [pc, #4]	; (16a4 <__utee_check_outstring_annotation+0x2a>)
    16a0:	e7f3      	b.n	168a <__utee_check_outstring_annotation+0x10>
    16a2:	bf00      	nop
    16a4:	ffff000f 	.word	0xffff000f

000016a8 <__utee_check_out_annotation>:
__utee_check_out_annotation():
/home/aom1/Work/Linux/target/STM32MP1-DK2/buildroot/buildroot/output/build/optee-os-custom/lib/libutee/tee_api_panic.c:75
    16a8:	460a      	mov	r2, r1
/home/aom1/Work/Linux/target/STM32MP1-DK2/buildroot/buildroot/output/build/optee-os-custom/lib/libutee/tee_api_panic.c:76
    16aa:	4601      	mov	r1, r0
/home/aom1/Work/Linux/target/STM32MP1-DK2/buildroot/buildroot/output/build/optee-os-custom/lib/libutee/tee_api_panic.c:75
    16ac:	b508      	push	{r3, lr}
/home/aom1/Work/Linux/target/STM32MP1-DK2/buildroot/buildroot/output/build/optee-os-custom/lib/libutee/tee_api_panic.c:76
    16ae:	2002      	movs	r0, #2
    16b0:	f7ff ffa8 	bl	1604 <check_access>
/home/aom1/Work/Linux/target/STM32MP1-DK2/buildroot/buildroot/output/build/optee-os-custom/lib/libutee/tee_api_panic.c:78
    16b4:	e8bd 4008 	ldmia.w	sp!, {r3, lr}
/home/aom1/Work/Linux/target/STM32MP1-DK2/buildroot/buildroot/output/build/optee-os-custom/lib/libutee/tee_api_panic.c:76
    16b8:	e7b6      	b.n	1628 <check_res.constprop.0>

000016ba <__utee_check_attr_in_annotation>:
__utee_check_attr_in_annotation():
/home/aom1/Work/Linux/target/STM32MP1-DK2/buildroot/buildroot/output/build/optee-os-custom/lib/libutee/tee_api_panic.c:82
    16ba:	220c      	movs	r2, #12
    16bc:	434a      	muls	r2, r1
/home/aom1/Work/Linux/target/STM32MP1-DK2/buildroot/buildroot/output/build/optee-os-custom/lib/libutee/tee_api_panic.c:81
    16be:	b508      	push	{r3, lr}
/home/aom1/Work/Linux/target/STM32MP1-DK2/buildroot/buildroot/output/build/optee-os-custom/lib/libutee/tee_api_panic.c:82
    16c0:	4601      	mov	r1, r0
    16c2:	2001      	movs	r0, #1
    16c4:	f7ff ff9e 	bl	1604 <check_access>
/home/aom1/Work/Linux/target/STM32MP1-DK2/buildroot/buildroot/output/build/optee-os-custom/lib/libutee/tee_api_panic.c:84
    16c8:	e8bd 4008 	ldmia.w	sp!, {r3, lr}
/home/aom1/Work/Linux/target/STM32MP1-DK2/buildroot/buildroot/output/build/optee-os-custom/lib/libutee/tee_api_panic.c:82
    16cc:	e7ac      	b.n	1628 <check_res.constprop.0>

000016ce <__utee_check_inout_annotation>:
__utee_check_inout_annotation():
/home/aom1/Work/Linux/target/STM32MP1-DK2/buildroot/buildroot/output/build/optee-os-custom/lib/libutee/tee_api_panic.c:87
    16ce:	460a      	mov	r2, r1
/home/aom1/Work/Linux/target/STM32MP1-DK2/buildroot/buildroot/output/build/optee-os-custom/lib/libutee/tee_api_panic.c:88
    16d0:	4601      	mov	r1, r0
/home/aom1/Work/Linux/target/STM32MP1-DK2/buildroot/buildroot/output/build/optee-os-custom/lib/libutee/tee_api_panic.c:87
    16d2:	b508      	push	{r3, lr}
/home/aom1/Work/Linux/target/STM32MP1-DK2/buildroot/buildroot/output/build/optee-os-custom/lib/libutee/tee_api_panic.c:88
    16d4:	2003      	movs	r0, #3
    16d6:	f7ff ff95 	bl	1604 <check_access>
/home/aom1/Work/Linux/target/STM32MP1-DK2/buildroot/buildroot/output/build/optee-os-custom/lib/libutee/tee_api_panic.c:90
    16da:	e8bd 4008 	ldmia.w	sp!, {r3, lr}
/home/aom1/Work/Linux/target/STM32MP1-DK2/buildroot/buildroot/output/build/optee-os-custom/lib/libutee/tee_api_panic.c:88
    16de:	e7a3      	b.n	1628 <check_res.constprop.0>

000016e0 <propset_get>:
propset_get():
/home/aom1/Work/Linux/target/STM32MP1-DK2/buildroot/buildroot/output/build/optee-os-custom/lib/libutee/tee_api_property.c:65
    16e0:	4b0f      	ldr	r3, [pc, #60]	; (1720 <propset_get+0x40>)
/home/aom1/Work/Linux/target/STM32MP1-DK2/buildroot/buildroot/output/build/optee-os-custom/lib/libutee/tee_api_property.c:66
    16e2:	f1b0 3fff 	cmp.w	r0, #4294967295	; 0xffffffff
/home/aom1/Work/Linux/target/STM32MP1-DK2/buildroot/buildroot/output/build/optee-os-custom/lib/libutee/tee_api_property.c:65
    16e6:	447b      	add	r3, pc
/home/aom1/Work/Linux/target/STM32MP1-DK2/buildroot/buildroot/output/build/optee-os-custom/lib/libutee/tee_api_property.c:66
    16e8:	d108      	bne.n	16fc <propset_get+0x1c>
/home/aom1/Work/Linux/target/STM32MP1-DK2/buildroot/buildroot/output/build/optee-os-custom/lib/libutee/tee_api_property.c:67
    16ea:	480e      	ldr	r0, [pc, #56]	; (1724 <propset_get+0x44>)
    16ec:	5818      	ldr	r0, [r3, r0]
    16ee:	6008      	str	r0, [r1, #0]
/home/aom1/Work/Linux/target/STM32MP1-DK2/buildroot/buildroot/output/build/optee-os-custom/lib/libutee/tee_api_property.c:68
    16f0:	490d      	ldr	r1, [pc, #52]	; (1728 <propset_get+0x48>)
    16f2:	585b      	ldr	r3, [r3, r1]
    16f4:	681b      	ldr	r3, [r3, #0]
/home/aom1/Work/Linux/target/STM32MP1-DK2/buildroot/buildroot/output/build/optee-os-custom/lib/libutee/tee_api_property.c:74
    16f6:	6013      	str	r3, [r2, #0]
/home/aom1/Work/Linux/target/STM32MP1-DK2/buildroot/buildroot/output/build/optee-os-custom/lib/libutee/tee_api_property.c:79
    16f8:	2000      	movs	r0, #0
    16fa:	4770      	bx	lr
/home/aom1/Work/Linux/target/STM32MP1-DK2/buildroot/buildroot/output/build/optee-os-custom/lib/libutee/tee_api_property.c:69
    16fc:	f110 0f02 	cmn.w	r0, #2
    1700:	d103      	bne.n	170a <propset_get+0x2a>
/home/aom1/Work/Linux/target/STM32MP1-DK2/buildroot/buildroot/output/build/optee-os-custom/lib/libutee/tee_api_property.c:70
    1702:	2000      	movs	r0, #0
    1704:	6008      	str	r0, [r1, #0]
/home/aom1/Work/Linux/target/STM32MP1-DK2/buildroot/buildroot/output/build/optee-os-custom/lib/libutee/tee_api_property.c:71
    1706:	6010      	str	r0, [r2, #0]
    1708:	4770      	bx	lr
/home/aom1/Work/Linux/target/STM32MP1-DK2/buildroot/buildroot/output/build/optee-os-custom/lib/libutee/tee_api_property.c:72
    170a:	3003      	adds	r0, #3
    170c:	d104      	bne.n	1718 <propset_get+0x38>
/home/aom1/Work/Linux/target/STM32MP1-DK2/buildroot/buildroot/output/build/optee-os-custom/lib/libutee/tee_api_property.c:73
    170e:	4807      	ldr	r0, [pc, #28]	; (172c <propset_get+0x4c>)
    1710:	581b      	ldr	r3, [r3, r0]
    1712:	600b      	str	r3, [r1, #0]
/home/aom1/Work/Linux/target/STM32MP1-DK2/buildroot/buildroot/output/build/optee-os-custom/lib/libutee/tee_api_property.c:74
    1714:	2305      	movs	r3, #5
    1716:	e7ee      	b.n	16f6 <propset_get+0x16>
/home/aom1/Work/Linux/target/STM32MP1-DK2/buildroot/buildroot/output/build/optee-os-custom/lib/libutee/tee_api_property.c:76
    1718:	4800      	ldr	r0, [pc, #0]	; (171c <propset_get+0x3c>)
/home/aom1/Work/Linux/target/STM32MP1-DK2/buildroot/buildroot/output/build/optee-os-custom/lib/libutee/tee_api_property.c:80
    171a:	4770      	bx	lr
    171c:	ffff0008 	.word	0xffff0008
    1720:	0000899e 	.word	0x0000899e
    1724:	00000014 	.word	0x00000014
    1728:	0000001c 	.word	0x0000001c
    172c:	00000034 	.word	0x00000034

00001730 <is_propset_pseudo_handle>:
is_propset_pseudo_handle():
/home/aom1/Work/Linux/target/STM32MP1-DK2/buildroot/buildroot/output/build/optee-os-custom/lib/libutee/tee_api_property.c:140
    1730:	1c83      	adds	r3, r0, #2
/home/aom1/Work/Linux/target/STM32MP1-DK2/buildroot/buildroot/output/build/optee-os-custom/lib/libutee/tee_api_property.c:141
    1732:	2b01      	cmp	r3, #1
    1734:	d904      	bls.n	1740 <is_propset_pseudo_handle+0x10>
/home/aom1/Work/Linux/target/STM32MP1-DK2/buildroot/buildroot/output/build/optee-os-custom/lib/libutee/tee_api_property.c:141 (discriminator 2)
    1736:	1cc3      	adds	r3, r0, #3
    1738:	bf14      	ite	ne
    173a:	2000      	movne	r0, #0
    173c:	2001      	moveq	r0, #1
    173e:	4770      	bx	lr
/home/aom1/Work/Linux/target/STM32MP1-DK2/buildroot/buildroot/output/build/optee-os-custom/lib/libutee/tee_api_property.c:141
    1740:	2001      	movs	r0, #1
/home/aom1/Work/Linux/target/STM32MP1-DK2/buildroot/buildroot/output/build/optee-os-custom/lib/libutee/tee_api_property.c:143
    1742:	4770      	bx	lr

00001744 <propget_get_ext_prop>:
propget_get_ext_prop():
/home/aom1/Work/Linux/target/STM32MP1-DK2/buildroot/buildroot/output/build/optee-os-custom/lib/libutee/tee_api_property.c:85
    1744:	b573      	push	{r0, r1, r4, r5, r6, lr}
    1746:	4616      	mov	r6, r2
    1748:	4a2b      	ldr	r2, [pc, #172]	; (17f8 <propget_get_ext_prop+0xb4>)
    174a:	461c      	mov	r4, r3
    174c:	4b2b      	ldr	r3, [pc, #172]	; (17fc <propget_get_ext_prop+0xb8>)
    174e:	4605      	mov	r5, r0
    1750:	447a      	add	r2, pc
    1752:	58d3      	ldr	r3, [r2, r3]
    1754:	681b      	ldr	r3, [r3, #0]
    1756:	9301      	str	r3, [sp, #4]
    1758:	f04f 0300 	mov.w	r3, #0
/home/aom1/Work/Linux/target/STM32MP1-DK2/buildroot/buildroot/output/build/optee-os-custom/lib/libutee/tee_api_property.c:88
    175c:	6843      	ldr	r3, [r0, #4]
    175e:	600b      	str	r3, [r1, #0]
/home/aom1/Work/Linux/target/STM32MP1-DK2/buildroot/buildroot/output/build/optee-os-custom/lib/libutee/tee_api_property.c:89
    1760:	2b05      	cmp	r3, #5
    1762:	d82d      	bhi.n	17c0 <propget_get_ext_prop+0x7c>
    1764:	e8df f003 	tbb	[pc, r3]
    1768:	13110f03 	.word	0x13110f03
    176c:	1b15      	.short	0x1b15
/home/aom1/Work/Linux/target/STM32MP1-DK2/buildroot/buildroot/output/build/optee-os-custom/lib/libutee/tee_api_property.c:91
    176e:	2301      	movs	r3, #1
/home/aom1/Work/Linux/target/STM32MP1-DK2/buildroot/buildroot/output/build/optee-os-custom/lib/libutee/tee_api_property.c:100
    1770:	9300      	str	r3, [sp, #0]
/home/aom1/Work/Linux/target/STM32MP1-DK2/buildroot/buildroot/output/build/optee-os-custom/lib/libutee/tee_api_property.c:128
    1772:	9a00      	ldr	r2, [sp, #0]
    1774:	6823      	ldr	r3, [r4, #0]
/home/aom1/Work/Linux/target/STM32MP1-DK2/buildroot/buildroot/output/build/optee-os-custom/lib/libutee/tee_api_property.c:129
    1776:	6022      	str	r2, [r4, #0]
/home/aom1/Work/Linux/target/STM32MP1-DK2/buildroot/buildroot/output/build/optee-os-custom/lib/libutee/tee_api_property.c:128
    1778:	4293      	cmp	r3, r2
    177a:	d326      	bcc.n	17ca <propget_get_ext_prop+0x86>
/home/aom1/Work/Linux/target/STM32MP1-DK2/buildroot/buildroot/output/build/optee-os-custom/lib/libutee/tee_api_property.c:134
    177c:	68a9      	ldr	r1, [r5, #8]
    177e:	4630      	mov	r0, r6
    1780:	f006 fbb4 	bl	7eec <memcpy>
    1784:	e02f      	b.n	17e6 <propget_get_ext_prop+0xa2>
/home/aom1/Work/Linux/target/STM32MP1-DK2/buildroot/buildroot/output/build/optee-os-custom/lib/libutee/tee_api_property.c:94
    1786:	2304      	movs	r3, #4
    1788:	e7f2      	b.n	1770 <propget_get_ext_prop+0x2c>
/home/aom1/Work/Linux/target/STM32MP1-DK2/buildroot/buildroot/output/build/optee-os-custom/lib/libutee/tee_api_property.c:97
    178a:	2310      	movs	r3, #16
    178c:	e7f0      	b.n	1770 <propget_get_ext_prop+0x2c>
/home/aom1/Work/Linux/target/STM32MP1-DK2/buildroot/buildroot/output/build/optee-os-custom/lib/libutee/tee_api_property.c:100
    178e:	2314      	movs	r3, #20
    1790:	e7ee      	b.n	1770 <propget_get_ext_prop+0x2c>
/home/aom1/Work/Linux/target/STM32MP1-DK2/buildroot/buildroot/output/build/optee-os-custom/lib/libutee/tee_api_property.c:104
    1792:	6880      	ldr	r0, [r0, #8]
    1794:	f006 fcae 	bl	80f4 <strlen>
    1798:	3001      	adds	r0, #1
    179a:	9000      	str	r0, [sp, #0]
/home/aom1/Work/Linux/target/STM32MP1-DK2/buildroot/buildroot/output/build/optee-os-custom/lib/libutee/tee_api_property.c:105
    179c:	e7e9      	b.n	1772 <propget_get_ext_prop+0x2e>
/home/aom1/Work/Linux/target/STM32MP1-DK2/buildroot/buildroot/output/build/optee-os-custom/lib/libutee/tee_api_property.c:114
    179e:	6885      	ldr	r5, [r0, #8]
/home/aom1/Work/Linux/target/STM32MP1-DK2/buildroot/buildroot/output/build/optee-os-custom/lib/libutee/tee_api_property.c:113
    17a0:	6823      	ldr	r3, [r4, #0]
/home/aom1/Work/Linux/target/STM32MP1-DK2/buildroot/buildroot/output/build/optee-os-custom/lib/libutee/tee_api_property.c:114
    17a2:	4628      	mov	r0, r5
/home/aom1/Work/Linux/target/STM32MP1-DK2/buildroot/buildroot/output/build/optee-os-custom/lib/libutee/tee_api_property.c:113
    17a4:	9300      	str	r3, [sp, #0]
/home/aom1/Work/Linux/target/STM32MP1-DK2/buildroot/buildroot/output/build/optee-os-custom/lib/libutee/tee_api_property.c:114
    17a6:	f006 fca5 	bl	80f4 <strlen>
    17aa:	4601      	mov	r1, r0
    17ac:	466b      	mov	r3, sp
    17ae:	4632      	mov	r2, r6
    17b0:	4628      	mov	r0, r5
    17b2:	f001 fa41 	bl	2c38 <_base64_dec>
    17b6:	6822      	ldr	r2, [r4, #0]
    17b8:	9b00      	ldr	r3, [sp, #0]
    17ba:	b918      	cbnz	r0, 17c4 <propget_get_ext_prop+0x80>
/home/aom1/Work/Linux/target/STM32MP1-DK2/buildroot/buildroot/output/build/optee-os-custom/lib/libutee/tee_api_property.c:114 (discriminator 1)
    17bc:	429a      	cmp	r2, r3
    17be:	d303      	bcc.n	17c8 <propget_get_ext_prop+0x84>
/home/aom1/Work/Linux/target/STM32MP1-DK2/buildroot/buildroot/output/build/optee-os-custom/lib/libutee/tee_api_property.c:116
    17c0:	480b      	ldr	r0, [pc, #44]	; (17f0 <propget_get_ext_prop+0xac>)
    17c2:	e003      	b.n	17cc <propget_get_ext_prop+0x88>
/home/aom1/Work/Linux/target/STM32MP1-DK2/buildroot/buildroot/output/build/optee-os-custom/lib/libutee/tee_api_property.c:117
    17c4:	429a      	cmp	r2, r3
    17c6:	d20d      	bcs.n	17e4 <propget_get_ext_prop+0xa0>
/home/aom1/Work/Linux/target/STM32MP1-DK2/buildroot/buildroot/output/build/optee-os-custom/lib/libutee/tee_api_property.c:118
    17c8:	6023      	str	r3, [r4, #0]
/home/aom1/Work/Linux/target/STM32MP1-DK2/buildroot/buildroot/output/build/optee-os-custom/lib/libutee/tee_api_property.c:130
    17ca:	480a      	ldr	r0, [pc, #40]	; (17f4 <propget_get_ext_prop+0xb0>)
/home/aom1/Work/Linux/target/STM32MP1-DK2/buildroot/buildroot/output/build/optee-os-custom/lib/libutee/tee_api_property.c:85
    17cc:	4a0c      	ldr	r2, [pc, #48]	; (1800 <propget_get_ext_prop+0xbc>)
/home/aom1/Work/Linux/target/STM32MP1-DK2/buildroot/buildroot/output/build/optee-os-custom/lib/libutee/tee_api_property.c:136
    17ce:	4b0b      	ldr	r3, [pc, #44]	; (17fc <propget_get_ext_prop+0xb8>)
/home/aom1/Work/Linux/target/STM32MP1-DK2/buildroot/buildroot/output/build/optee-os-custom/lib/libutee/tee_api_property.c:85
    17d0:	447a      	add	r2, pc
/home/aom1/Work/Linux/target/STM32MP1-DK2/buildroot/buildroot/output/build/optee-os-custom/lib/libutee/tee_api_property.c:136
    17d2:	58d3      	ldr	r3, [r2, r3]
    17d4:	681a      	ldr	r2, [r3, #0]
    17d6:	9b01      	ldr	r3, [sp, #4]
    17d8:	405a      	eors	r2, r3
    17da:	f04f 0300 	mov.w	r3, #0
    17de:	d004      	beq.n	17ea <propget_get_ext_prop+0xa6>
    17e0:	f006 fc71 	bl	80c6 <__stack_chk_fail>
/home/aom1/Work/Linux/target/STM32MP1-DK2/buildroot/buildroot/output/build/optee-os-custom/lib/libutee/tee_api_property.c:122
    17e4:	6023      	str	r3, [r4, #0]
/home/aom1/Work/Linux/target/STM32MP1-DK2/buildroot/buildroot/output/build/optee-os-custom/lib/libutee/tee_api_property.c:135
    17e6:	2000      	movs	r0, #0
    17e8:	e7f0      	b.n	17cc <propget_get_ext_prop+0x88>
/home/aom1/Work/Linux/target/STM32MP1-DK2/buildroot/buildroot/output/build/optee-os-custom/lib/libutee/tee_api_property.c:136
    17ea:	b002      	add	sp, #8
    17ec:	bd70      	pop	{r4, r5, r6, pc}
    17ee:	bf00      	nop
    17f0:	ffff0000 	.word	0xffff0000
    17f4:	ffff0010 	.word	0xffff0010
    17f8:	00008934 	.word	0x00008934
    17fc:	0000000c 	.word	0x0000000c
    1800:	000088b4 	.word	0x000088b4

00001804 <propget_get_property>:
propget_get_property():
/home/aom1/Work/Linux/target/STM32MP1-DK2/buildroot/buildroot/output/build/optee-os-custom/lib/libutee/tee_api_property.c:148
    1804:	e92d 4ff0 	stmdb	sp!, {r4, r5, r6, r7, r8, r9, sl, fp, lr}
    1808:	4617      	mov	r7, r2
    180a:	4a44      	ldr	r2, [pc, #272]	; (191c <propget_get_property+0x118>)
    180c:	461e      	mov	r6, r3
    180e:	4b44      	ldr	r3, [pc, #272]	; (1920 <propget_get_property+0x11c>)
    1810:	b08d      	sub	sp, #52	; 0x34
    1812:	447a      	add	r2, pc
    1814:	4605      	mov	r5, r0
    1816:	f8dd 9058 	ldr.w	r9, [sp, #88]	; 0x58
    181a:	4688      	mov	r8, r1
    181c:	58d3      	ldr	r3, [r2, r3]
    181e:	681b      	ldr	r3, [r3, #0]
    1820:	930b      	str	r3, [sp, #44]	; 0x2c
    1822:	f04f 0300 	mov.w	r3, #0
/home/aom1/Work/Linux/target/STM32MP1-DK2/buildroot/buildroot/output/build/optee-os-custom/lib/libutee/tee_api_property.c:155
    1826:	f7ff ff83 	bl	1730 <is_propset_pseudo_handle>
    182a:	2800      	cmp	r0, #0
    182c:	d042      	beq.n	18b4 <propget_get_property+0xb0>
/home/aom1/Work/Linux/target/STM32MP1-DK2/buildroot/buildroot/output/build/optee-os-custom/lib/libutee/tee_api_property.c:158
    182e:	aa08      	add	r2, sp, #32
    1830:	a907      	add	r1, sp, #28
    1832:	4628      	mov	r0, r5
    1834:	f7ff ff54 	bl	16e0 <propset_get>
/home/aom1/Work/Linux/target/STM32MP1-DK2/buildroot/buildroot/output/build/optee-os-custom/lib/libutee/tee_api_property.c:159
    1838:	4604      	mov	r4, r0
    183a:	bb68      	cbnz	r0, 1898 <propget_get_property+0x94>
/home/aom1/Work/Linux/target/STM32MP1-DK2/buildroot/buildroot/output/build/optee-os-custom/lib/libutee/tee_api_property.c:162
    183c:	9b08      	ldr	r3, [sp, #32]
    183e:	f8dd a01c 	ldr.w	sl, [sp, #28]
/home/aom1/Work/Linux/target/STM32MP1-DK2/buildroot/buildroot/output/build/optee-os-custom/lib/libutee/tee_api_property.c:162 (discriminator 1)
    1842:	42a3      	cmp	r3, r4
    1844:	d118      	bne.n	1878 <propget_get_property+0x74>
/home/aom1/Work/Linux/target/STM32MP1-DK2/buildroot/buildroot/output/build/optee-os-custom/lib/libutee/tee_api_property.c:170
    1846:	4640      	mov	r0, r8
    1848:	f006 fc54 	bl	80f4 <strlen>
/home/aom1/Work/Linux/target/STM32MP1-DK2/buildroot/buildroot/output/build/optee-os-custom/lib/libutee/tee_api_property.c:169
    184c:	1c42      	adds	r2, r0, #1
    184e:	ab0a      	add	r3, sp, #40	; 0x28
    1850:	4641      	mov	r1, r8
    1852:	4628      	mov	r0, r5
    1854:	f000 eca6 	blx	21a4 <_utee_get_property_name_to_index>
/home/aom1/Work/Linux/target/STM32MP1-DK2/buildroot/buildroot/output/build/optee-os-custom/lib/libutee/tee_api_property.c:172
    1858:	4604      	mov	r4, r0
    185a:	b9e8      	cbnz	r0, 1898 <propget_get_property+0x94>
/home/aom1/Work/Linux/target/STM32MP1-DK2/buildroot/buildroot/output/build/optee-os-custom/lib/libutee/tee_api_property.c:174
    185c:	990a      	ldr	r1, [sp, #40]	; 0x28
    185e:	ab09      	add	r3, sp, #36	; 0x24
    1860:	9302      	str	r3, [sp, #8]
    1862:	4602      	mov	r2, r0
    1864:	4603      	mov	r3, r0
    1866:	4628      	mov	r0, r5
    1868:	e9cd 6900 	strd	r6, r9, [sp]
    186c:	f000 ec8e 	blx	218c <_utee_get_property>
    1870:	4604      	mov	r4, r0
/home/aom1/Work/Linux/target/STM32MP1-DK2/buildroot/buildroot/output/build/optee-os-custom/lib/libutee/tee_api_property.c:197
    1872:	9b09      	ldr	r3, [sp, #36]	; 0x24
    1874:	603b      	str	r3, [r7, #0]
/home/aom1/Work/Linux/target/STM32MP1-DK2/buildroot/buildroot/output/build/optee-os-custom/lib/libutee/tee_api_property.c:198
    1876:	e00f      	b.n	1898 <propget_get_property+0x94>
    1878:	9305      	str	r3, [sp, #20]
/home/aom1/Work/Linux/target/STM32MP1-DK2/buildroot/buildroot/output/build/optee-os-custom/lib/libutee/tee_api_property.c:163
    187a:	46d3      	mov	fp, sl
    187c:	f85a 1b0c 	ldr.w	r1, [sl], #12
    1880:	4640      	mov	r0, r8
    1882:	f006 fc59 	bl	8138 <strcmp>
    1886:	9b05      	ldr	r3, [sp, #20]
    1888:	b990      	cbnz	r0, 18b0 <propget_get_property+0xac>
/home/aom1/Work/Linux/target/STM32MP1-DK2/buildroot/buildroot/output/build/optee-os-custom/lib/libutee/tee_api_property.c:164
    188a:	464b      	mov	r3, r9
    188c:	4632      	mov	r2, r6
    188e:	4639      	mov	r1, r7
    1890:	4658      	mov	r0, fp
/home/aom1/Work/Linux/target/STM32MP1-DK2/buildroot/buildroot/output/build/optee-os-custom/lib/libutee/tee_api_property.c:188
