
out/arm-plat-stm32mp1/ta/stm32mp_nvmem/1a8342cc-81a5-4512-99fe-9e2b3e37d626.elf:     file format elf32-littlearm
out/arm-plat-stm32mp1/ta/stm32mp_nvmem/1a8342cc-81a5-4512-99fe-9e2b3e37d626.elf
architecture: armv7, flags 0x00000150:
HAS_SYMS, DYNAMIC, D_PAGED
start address 0x000004d8

Program Header:
    LOAD off    0x00001000 vaddr 0x00000000 paddr 0x00000000 align 2**12
         filesz 0x0000f280 memsz 0x0000f280 flags r-x
    LOAD off    0x00011000 vaddr 0x00010000 paddr 0x00010000 align 2**12
         filesz 0x00000340 memsz 0x00007398 flags rw-
 DYNAMIC off    0x00011000 vaddr 0x00010000 paddr 0x00010000 align 2**2
         filesz 0x00000088 memsz 0x00000088 flags rw-
   STACK off    0x00000000 vaddr 0x00000000 paddr 0x00000000 align 2**4
         filesz 0x00000000 memsz 0x00000000 flags rwx

Dynamic Section:
  HASH                 0x0000f254
  GNU_HASH             0x0000f198
  STRTAB               0x0000f224
  SYMTAB               0x0000f1c4
  STRSZ                0x0000002e
  SYMENT               0x00000010
  DEBUG                0x00000000
  REL                  0x000100d4
  RELSZ                0x00000168
  RELENT               0x00000008
  FLAGS_1              0x08000000
  RELCOUNT             0x0000001d
private flags = 0x5000400: [Version5 EABI] [hard-float ABI]

Sections:
Idx Name          Size      VMA       LMA       File off  Algn
  0 .ta_head      00000020  00000000  00000000  00001000  2**3
                  CONTENTS, ALLOC, LOAD, READONLY, DATA
  1 .text         0000dec6  00000020  00000020  00001020  2**2
                  CONTENTS, ALLOC, LOAD, READONLY, CODE
  2 .rodata       000012ae  0000dee8  0000dee8  0000eee8  2**2
                  CONTENTS, ALLOC, LOAD, READONLY, DATA
  3 .gnu.hash     0000002c  0000f198  0000f198  00010198  2**2
                  CONTENTS, ALLOC, LOAD, READONLY, DATA
  4 .dynsym       00000060  0000f1c4  0000f1c4  000101c4  2**2
                  CONTENTS, ALLOC, LOAD, READONLY, DATA
  5 .dynstr       0000002e  0000f224  0000f224  00010224  2**0
                  CONTENTS, ALLOC, LOAD, READONLY, DATA
  6 .hash         0000002c  0000f254  0000f254  00010254  2**2
                  CONTENTS, ALLOC, LOAD, READONLY, DATA
  7 .dynamic      00000088  00010000  00010000  00011000  2**2
                  CONTENTS, ALLOC, LOAD, DATA
  8 .got          0000004c  00010088  00010088  00011088  2**2
                  CONTENTS, ALLOC, LOAD, DATA
  9 .rel.got      00000080  000101bc  000101bc  000111bc  2**2
                  CONTENTS, ALLOC, LOAD, READONLY, DATA
 10 .data         00000104  0001023c  0001023c  0001123c  2**2
                  CONTENTS, ALLOC, LOAD, DATA
 11 .bss          00007058  00010340  00010340  00011340  2**2
                  ALLOC
 12 .debug_info   0000b8c1  00000000  00000000  00011340  2**0
                  CONTENTS, READONLY, DEBUGGING, OCTETS
 13 .debug_abbrev 00002cc0  00000000  00000000  0001cc01  2**0
                  CONTENTS, READONLY, DEBUGGING, OCTETS
 14 .debug_aranges 000005c8  00000000  00000000  0001f8c8  2**3
                  CONTENTS, READONLY, DEBUGGING, OCTETS
 15 .debug_macro  000193c6  00000000  00000000  0001fe90  2**0
                  CONTENTS, READONLY, DEBUGGING, OCTETS
 16 .debug_line   00009888  00000000  00000000  00039256  2**0
                  CONTENTS, READONLY, DEBUGGING, OCTETS
 17 .debug_str    00018153  00000000  00000000  00042ade  2**0
                  CONTENTS, READONLY, DEBUGGING, OCTETS
 18 .comment      00000033  00000000  00000000  0005ac31  2**0
                  CONTENTS, READONLY
 19 .ARM.attributes 00000033  00000000  00000000  0005ac64  2**0
                  CONTENTS, READONLY
 20 .debug_frame  00002e30  00000000  00000000  0005ac98  2**2
                  CONTENTS, READONLY, DEBUGGING, OCTETS
 21 .rel.dyn      000000e8  000100d4  000100d4  000110d4  2**2
                  CONTENTS, ALLOC, LOAD, READONLY, DATA
 22 .debug_line_str 000000fa  00000000  00000000  0005dac8  2**0
                  CONTENTS, READONLY, DEBUGGING, OCTETS
 23 .debug_rnglists 0000017c  00000000  00000000  0005dbc2  2**0
                  CONTENTS, READONLY, DEBUGGING, OCTETS
SYMBOL TABLE:
00000000 l    d  .ta_head	00000000 .ta_head
00000020 l    d  .text	00000000 .text
0000dee8 l    d  .rodata	00000000 .rodata
0000f198 l    d  .gnu.hash	00000000 .gnu.hash
0000f1c4 l    d  .dynsym	00000000 .dynsym
0000f224 l    d  .dynstr	00000000 .dynstr
0000f254 l    d  .hash	00000000 .hash
00010000 l    d  .dynamic	00000000 .dynamic
00010088 l    d  .got	00000000 .got
000101bc l    d  .rel.got	00000000 .rel.got
0001023c l    d  .data	00000000 .data
00010340 l    d  .bss	00000000 .bss
00000000 l    d  .debug_info	00000000 .debug_info
00000000 l    d  .debug_abbrev	00000000 .debug_abbrev
00000000 l    d  .debug_aranges	00000000 .debug_aranges
00000000 l    d  .debug_macro	00000000 .debug_macro
00000000 l    d  .debug_line	00000000 .debug_line
00000000 l    d  .debug_str	00000000 .debug_str
00000000 l    d  .comment	00000000 .comment
00000000 l    d  .ARM.attributes	00000000 .ARM.attributes
00000000 l    d  .debug_frame	00000000 .debug_frame
000100d4 l    d  .rel.dyn	00000000 .rel.dyn
00000000 l    d  .debug_line_str	00000000 .debug_line_str
00000000 l    d  .debug_rnglists	00000000 .debug_rnglists
00000000 l    df *ABS*	00000000 user_ta_header.c
0000df78 l     O .rodata	00000001 __compound_literal.0
0000df79 l     O .rodata	00000001 __compound_literal.1
0000df7a l     O .rodata	00000001 __compound_literal.2
0000df7c l     O .rodata	00000004 __compound_literal.3
0000df80 l     O .rodata	00000004 __compound_literal.4
00000000 l    df *ABS*	00000000 ta_stm32mp_nvmem.c
00010340 l     O .bss	00000004 session_refcount
00010344 l     O .bss	00000004 pta_session
00000020 l     F .text	00000070 nvmem_get_state
0000df34 l     O .rodata	00000010 __func__.2
00000090 l     F .text	00000148 nvmem_read
000001d8 l     F .text	00000154 nvmem_write
0000df44 l     O .rodata	00000010 uuid.1
0000df54 l     O .rodata	0000001b __func__.0
00000000 l    df *ABS*	00000000 ta_entry_a32.o
00000000 l    df *ABS*	00000000 trace.c
0000053c l     F .text	0000004c trace_level_to_string
0000e068 l     O .rodata	00000005 lvl_strs.0
00000588 l     F .text	0000005c print_thread_id
000005e4 l     F .text	00000018 print_core_id
00000000 l    df *ABS*	00000000 snprintk.c
0000e070 l     O .rodata	00000011 hexdigits
0000e084 l     O .rodata	00000011 HEXDIGITS
00000a98 l     F .text	00000e7c kprintf
00000a10 l     F .text	00000088 uuid2str
00000000 l    df *ABS*	00000000 arm32_aeabi_ldivmod_a32.o
00000000 l    df *ABS*	00000000 assert.c
00000000 l    df *ABS*	00000000 trace_ext.c
00000000 l    df *ABS*	00000000 tee_api.c
00014348 l     O .bss	00000004 tee_api_instance_data
00001a90 l     F .text	0000025e copy_param
00001cee l     F .text	000000e8 update_out_param
0000e130 l     O .rodata	0000000b __func__.0
00000000 l    df *ABS*	00000000 tee_api_panic.c
000023ba l     F .text	0000001e check_res
000023d8 l     F .text	00000038 check_access
00000000 l    df *ABS*	00000000 tee_api_property.c
0000e1a4 l     O .rodata	00000004 __compound_literal.0
0000e1a8 l     O .rodata	00000004 __compound_literal.1
0000e1ac l     O .rodata	00000004 __compound_literal.2
0000e1b0 l     O .rodata	00000004 __compound_literal.3
00002580 l     F .text	00000080 propset_get
00002600 l     F .text	0000010a propget_get_ext_prop
0000270a l     F .text	00000038 is_propset_pseudo_handle
00002742 l     F .text	00000168 propget_get_property
00000000 l    df *ABS*	00000000 tee_system_pta.c
00002fac l     F .text	00000042 reg_pair_to_64
00002fee l     F .text	00000034 reg_pair_from_64
00003022 l     F .text	00000072 invoke_system_pta
0001434c l     O .bss	00000004 sess.3
0000e2b4 l     O .rodata	00000010 uuid.2
0000e2c4 l     O .rodata	0000000a __func__.1
0000e2d0 l     O .rodata	00000017 __func__.0
00000000 l    df *ABS*	00000000 utee_syscalls_a32.o
00000000 l    df *ABS*	00000000 user_ta_entry.c
0000371c l     F .text	0000000e __utee_gprof_init
0000372a l     F .text	0000000e __utee_gprof_fini
000102d0 l     O .data	00000008 ta_sessions
00014380 l     O .bss	00000001 init_done
000102d8 l     O .data	00000008 __phdr_info_head
00014384 l     O .bss	00000004 _num_mod_init
00003738 l     F .text	000000a4 _init_iterate_phdr_cb
0000e304 l     O .rodata	00000016 __func__.0
000037dc l     F .text	000000de _get_fn_array
000039e0 l     F .text	0000005c _fini_iterate_phdr_cb
00003a54 l     F .text	0000004c init_instance
00003aa0 l     F .text	00000014 uninit_instance
00003ab4 l     F .text	00000050 ta_header_save_params
00003b04 l     F .text	00000040 ta_header_get_session
00003b44 l     F .text	000000ac ta_header_add_session
00003bf0 l     F .text	000000c0 ta_header_remove_session
00003cb0 l     F .text	0000011e to_utee_params
00003dce l     F .text	000000c0 from_utee_params
00003e8e l     F .text	00000086 entry_open_session
00003f14 l     F .text	00000038 entry_close_session
00003f4c l     F .text	0000006a entry_invoke_command
00000000 l    df *ABS*	00000000 abort.c
00000000 l    df *ABS*	00000000 base64.c
0000e324 l     O .rodata	00000041 base64_table
000041c4 l     F .text	0000005c get_idx
00000000 l    df *ABS*	00000000 tee_api_arith_mpi.c
000043b0 l     F .text	0000002c api_panic
000043dc l     F .text	0000002c mpi_panic
00014388 l     O .bss	00003000 data.17
0000e42c l     O .rodata	00000012 __func__.16
0000445c l     F .text	00000082 copy_mpi_to_bigint
000044de l     F .text	00000092 get_mpi
0000e440 l     O .rodata	00000008 __func__.15
0000e448 l     O .rodata	0000000f __func__.14
0000e458 l     O .rodata	0000001f __func__.13
0000e478 l     O .rodata	00000019 __func__.12
0000e494 l     O .rodata	00000015 __func__.11
00004a9a l     F .text	000000fa bigint_binary
0000e4ac l     O .rodata	0000000e __func__.10
00004b94 l     F .text	0000017c bigint_binary_mod
0000e4bc l     O .rodata	00000012 __func__.9
0000e4d0 l     O .rodata	0000000e __func__.8
0000e4e0 l     O .rodata	0000000e __func__.7
0000e4f0 l     O .rodata	0000000e __func__.6
0000e500 l     O .rodata	00000011 __func__.5
0000e514 l     O .rodata	00000018 __func__.4
00005334 l     F .text	00000024 mpi_is_odd
00005358 l     F .text	0000002e mpi_is_even
00005386 l     F .text	0000075e mpi_egcd
0000e52c l     O .rodata	00000009 __func__.3
0000e538 l     O .rodata	0000001d __func__.2
00005d5c l     F .text	0000002a rng_read
0000e558 l     O .rodata	00000019 __func__.1
0000e574 l     O .rodata	00000015 __func__.0
00000000 l    df *ABS*	00000000 tcb.c
00017388 l     O .bss	00000004 _tcb
0001738c l     O .bss	00000004 _tls_size
0000e628 l     O .rodata	00000010 __func__.1
0000e638 l     O .rodata	00000010 __func__.0
00000000 l    df *ABS*	00000000 bignum.c
000063ac l     F .text	0000001e mbedtls_mpi_zeroize
000063ca l     F .text	00000030 mpi_init
000066dc l     F .text	00000056 mbedtls_mpi_resize_clear
0000683e l     F .text	00000042 mpi_safe_cond_select_sign
00006880 l     F .text	00000062 mpi_safe_cond_assign
00006c66 l     F .text	00000042 mbedtls_clz
00006d2c l     F .text	00000074 mpi_get_digit
00006f54 l     F .text	000000be mpi_write_hlp
000071cc l     F .text	00000048 mpi_uint_bigendian_to_host_c
00007214 l     F .text	00000018 mpi_uint_bigendian_to_host
0000722c l     F .text	00000066 mpi_bigendian_to_host
000079e8 l     F .text	00000040 ct_lt_mpi_uint
00007cde l     F .text	00000092 mpi_sub_hlp
00008072 l     F .text	000018fe mpi_mul_hlp
00009b90 l     F .text	000000b0 mbedtls_int_div_int
0000a342 l     F .text	00000060 mpi_montg_init
0000a3bc l     F .text	00000114 mpi_montmul
0000a4f6 l     F .text	0000003e mpi_montred
0000a556 l     F .text	00000034 mbedtls_mpi_cf_bool_eq
0000a58a l     F .text	0000005e mpi_select
0000adc2 l     F .text	0000009e mpi_fill_random_internal
0000e65c l     O .rodata	000002a0 small_prime
0000b434 l     F .text	00000098 mpi_check_small_factors
0000b4cc l     F .text	00000286 mpi_miller_rabin
0000e8fc l     O .rodata	00000024 gcd_pairs
00000000 l    df *ABS*	00000000 platform_util.c
000102e0 l     O .data	00000004 memset_func
00000000 l    df *ABS*	00000000 bget_malloc.c
0000bf88 l     F .text	00000016 tag_asan_free
0000bf9e l     F .text	00000016 tag_asan_alloced
0000bfb4 l     F .text	00000020 memset_unchecked
0000bfd4 l     F .text	00000020 memcpy_unchecked
0000bff4 l     F .text	0000007a buf_get_pos
0000f074 l     O .rodata	00000005 __func__.8
0000f07c l     O .rodata	00000006 __func__.7
0000f084 l     O .rodata	00000006 __func__.6
0000f08c l     O .rodata	00000005 __func__.5
0000f094 l     O .rodata	00000006 __func__.4
0000f09c l     O .rodata	00000007 __func__.3
0000c9b0 l     F .text	00000016 malloc_lock
0000c9c6 l     F .text	00000016 malloc_unlock
000102e4 l     O .data	0000005c malloc_ctx
0000c9dc l     F .text	00000016 print_oom
0000c9f2 l     F .text	0000005e raw_malloc_return_hook
0000ca50 l     F .text	00000038 gen_malloc_reset_stats
0000caa0 l     F .text	0000003a gen_malloc_get_stats
0000cafc l     F .text	00000014 raw_malloc_validate_pools
0000cb10 l     F .text	00000026 bpool_foreach_iterator_init
0000cb36 l     F .text	000000ca bpool_foreach_pool
0000f0a4 l     O .rodata	00000013 __func__.2
0000cc00 l     F .text	00000068 bpool_foreach
0000ce8a l     F .text	00000052 bget_buf_size
0000f0b8 l     O .rodata	0000000e __func__.1
0000cf24 l     F .text	00000048 free_helper
0000cfb8 l     F .text	00000026 realloc_unlocked
0000d074 l     F .text	00000022 get_payload_start_size
0000d0c6 l     F .text	00000122 gen_malloc_add_pool
0000f0c8 l     O .rodata	00000014 __func__.0
0000d1e8 l     F .text	000000a0 gen_malloc_buffer_is_within_alloced
0000d288 l     F .text	000000a8 gen_malloc_buffer_overlaps_heap
00000000 l    df *ABS*	00000000 mempool.c
0000d414 l     F .text	00000080 init_mpool
0000f168 l     O .rodata	0000000b __func__.2
0000d494 l     F .text	00000014 get_pool
0000d4a8 l     F .text	00000014 put_pool
0000f174 l     O .rodata	00000013 __func__.1
0000f188 l     O .rodata	0000000e __func__.0
00000000 l    df *ABS*	00000000 memchr.c
00000000 l    df *ABS*	00000000 strlen.c
00000000 l    df *ABS*	00000000 arm32_aeabi_ldivmod.c
0000d7a4 l     F .text	00000102 division_lqr
0000d8a6 l     F .text	00000064 ul_div_qr
00000000 l    df *ABS*	00000000 snprintf.c
00000000 l    df *ABS*	00000000 memcpy.c
00000000 l    df *ABS*	00000000 memmove.c
00000000 l    df *ABS*	00000000 memset.c
00000000 l    df *ABS*	00000000 strcmp.c
00000000 l    df *ABS*	00000000 strlcpy.c
00000000 l    df *ABS*	00000000 consttime_memcmp.c
00000000 l    df *ABS*	00000000 
00010000 l     O *ABS*	00000000 _DYNAMIC
00010088 l     O *ABS*	00000000 _GLOBAL_OFFSET_TABLE_
00001a5c g     F .text	00000032 putchar
00005e34 g     F .text	00000020 TEE_BigIntConvertToFMM
00005150 g     F .text	00000020 TEE_BigIntSquareMod
0000487e g     F .text	000001a6 TEE_BigIntShiftRight
0000d366 g     F .text	0000001e raw_malloc_add_pool
000031b0 g     F .text	000000bc tee_invoke_supp_plugin
000064c0 g     F .text	000000ec mbedtls_mpi_grow
0000d968 g     F .text	000000c4 __l_divmod
000022f0 g     F .text	0000003e TEE_Realloc
00002550 g     F .text	00000030 __utee_check_inout_annotation
0000cd1a g     F .text	0000002e raw_free
000019c2 g     F .text	0000006a printf
00003294 g     F .text	00000014 _utee_log
00001ede g     F .text	00000114 TEE_InvokeTACommand
00002410 g     F .text	00000050 __utee_check_outbuf_annotation
00006412 g     F .text	00000036 mbedtls_mpi_init_mempool
00003530 g     F .text	00000014 _utee_cryp_random_number_generate
00007456 g     F .text	000000c8 mbedtls_mpi_write_binary
00000958 g     F .text	00000028 vsnprintk
0000802a g     F .text	00000048 mbedtls_mpi_sub_int
0000db56 g     F .text	00000114 memmove
0000da2c g     F .text	00000034 snprintf
00004846 g     F .text	00000038 TEE_BigIntCmpS32
000065ac g     F .text	00000130 mbedtls_mpi_shrink
00004d10 g     F .text	00000030 TEE_BigIntAdd
00003490 g     F .text	00000014 _utee_cryp_obj_restrict_usage
0000df74 g     O .rodata	00000004 ta_heap_size
000035b8 g     F .text	00000018 _utee_asymm_operate
00004040 g     F .text	0000002a _base64_enc_len
00006da0 g     F .text	000001b4 mbedtls_mpi_read_string
00004d70 g     F .text	000000ac TEE_BigIntNeg
00003654 g     F .text	00000014 _utee_storage_free_enum
00000020 g       .text	00000000 __text_start
00002efe g     F .text	000000ae TEE_GetNextProperty
00007668 g     F .text	00000136 mbedtls_mpi_shift_r
0000d3ec g     F .text	00000028 malloc_buffer_overlaps_heap
000033f8 g     F .text	00000014 _utee_hash_init
000050e8 g     F .text	00000034 TEE_BigIntSubMod
0000b810 g     F .text	000002b8 mbedtls_mpi_gen_prime
00002bc2 g     F .text	00000088 TEE_GetPropertyAsBinaryBlock
00006b14 g     F .text	00000042 mbedtls_mpi_get_bit
0000731e g     F .text	0000007a mbedtls_mpi_read_binary
000005fc g     F .text	00000032 trace_printf
0000a4d0 g     F .text	00000026 mbedtls_mpi_montmul
00003708 g     F .text	00000014 _utee_cache_operation
0000da88 g     F .text	000000ce memcpy
00005e54 g     F .text	00000098 TEE_BigIntConvertFromFMM
000023a4 g     F .text	00000016 TEE_Panic
0000192c g     F .text	00000018 __aeabi_uldivmod
00001a2c g     F .text	00000030 puts
00005eec g     F .text	0000010c TEE_BigIntComputeFMM
0000cada g     F .text	00000022 malloc_get_stats
00002266 g     F .text	00000026 TEE_GetREETime
0000d384 g     F .text	0000001a raw_malloc_get_stats
00010240 g     O .data	00000054 ta_props
00002460 g     F .text	00000038 __utee_check_instring_annotation
0000cedc g     F .text	00000048 malloc
0000d610 g     F .text	00000022 __ta_entry_c
00002dca g     F .text	0000001a TEE_FreePropertyEnumerator
0000da60 g     F .text	00000028 vsnprintf
0001023c g     O .data	00000004 trace_level
000047f4 g     F .text	00000052 TEE_BigIntCmp
0000e040 g     O .rodata	00000004 ta_num_props
0000c458 g     F .text	000000b4 bgetr
000035e8 g     F .text	00000018 _utee_storage_obj_open
0000d5e8 g     F .text	00000026 mempool_free
0000340c g     F .text	00000014 _utee_hash_update
0000463e g     F .text	0000007e TEE_BigIntConvertToOctetString
00006ca8 g     F .text	00000068 mbedtls_mpi_bitlen
00004a24 g     F .text	00000042 TEE_BigIntGetBit
0000df70 g     O .rodata	00000003 trace_ext_prefix
00003690 g     F .text	00000014 _utee_storage_next_enum
0000ccf2 g     F .text	00000028 raw_malloc
0000c3c0 g     F .text	00000098 bgetz
000020dc g     F .text	00000018 TEE_GetInstanceData
0000217c g     F .text	00000032 TEE_Wait
00009970 g     F .text	0000018c mbedtls_mpi_mul_mpi
00002368 g     F .text	0000001e TEE_CacheFlush
0000062e g     F .text	000002de trace_vprintf
0000033c g     F .text	0000000e TA_DestroyEntryPoint
000063fa g     F .text	00000018 mbedtls_mpi_init
00003618 g     F .text	00000014 _utee_storage_obj_del
00006c00 g     F .text	00000066 mbedtls_mpi_lsb
00001944 g     F .text	0000003c _assert_log
000033d0 g     F .text	00000014 _utee_cryp_state_copy
00005e1e g     F .text	00000016 TEE_BigIntFMMContextSizeInU32
0000311c g     F .text	00000094 tee_unmap
00004408 g     F .text	00000054 _TEE_MathAPI_Init
00005ff8 g     F .text	000002b0 __utee_tcb_init
00007eae g     F .text	0000009a mbedtls_mpi_add_mpi
00004024 g     F .text	0000001c abort
0000aebe g     F .text	00000134 mbedtls_mpi_random
000024e8 g     F .text	00000030 __utee_check_out_annotation
00010348 g     O .bss	00004000 ta_heap
00005170 g     F .text	00000104 TEE_BigIntInvMod
000038ba g     F .text	00000126 __utee_call_elf_init_fn
00000430 g     F .text	00000044 TA_CloseSessionEntryPoint
00003300 g     F .text	00000014 _utee_close_ta_session
00007f48 g     F .text	0000009a mbedtls_mpi_sub_mpi
0000de58 g     F .text	0000008e consttime_memcmp
00003280 g     F .text	00000014 _utee_return
000032a8 g     F .text	00000014 __utee_panic
000062a8 g     F .text	00000030 __tls_get_addr
00000474 g     F .text	00000064 TA_InvokeCommandEntryPoint
00003a3c g     F .text	00000018 __utee_call_elf_fini_fn
0000d0ae g     F .text	00000018 free_wipe
0000d524 g     F .text	00000060 mempool_alloc
0000326c g     F .text	00000014 _utee_panic
0000d340 g     F .text	00000026 raw_malloc_init_ctx
0000d584 g     F .text	00000064 mempool_calloc
000036f4 g     F .text	00000014 _utee_cryp_obj_generate_key
000036cc g     F .text	00000014 _utee_storage_obj_trunc
00010294 g     O .data	0000003c tee_props
00003354 g     F .text	00000014 _utee_unmask_cancellation
00002daa g     F .text	00000020 TEE_ResetPropertyEnumerator
0000cf6c g     F .text	0000004c calloc
0000228c g     F .text	00000064 TEE_Malloc
00002080 g     F .text	0000003a TEE_CheckMemoryAccessRights
00002c4a g     F .text	00000080 TEE_GetPropertyAsUUID
0000d90a g     F .text	0000005e __ul_divmod
000032bc g     F .text	00000018 _utee_get_property
00006ab6 g     F .text	0000005e mbedtls_mpi_lset
0000034a g     F .text	000000e6 TA_OpenSessionEntryPoint
000062d8 g     F .text	000000d4 dl_iterate_phdr
00017398 g       .bss	00000000 __ftrace_buf_end
00014350 g     O .bss	00000004 ta_param_types
0000a17c g     F .text	0000004a mbedtls_mpi_div_int
0000b752 g     F .text	0000009c mbedtls_mpi_is_prime_ext
00005d86 g     F .text	0000004a TEE_BigIntIsProbablePrime
00009afc g     F .text	00000094 mbedtls_mpi_mul_int
0000a5e8 g     F .text	00000628 mbedtls_mpi_exp_mod
000068e2 g     F .text	000000b0 mbedtls_mpi_safe_cond_assign
000028aa g     F .text	00000212 TEE_GetPropertyAsString
00007a28 g     F .text	0000010e mbedtls_mpi_lt_mpi_ct
00004570 g     F .text	0000005c TEE_BigIntInit
00002498 g     F .text	00000050 __utee_check_outstring_annotation
000020f4 g     F .text	00000020 TEE_MemMove
0000bf5c g     F .text	0000002c mbedtls_platform_zeroize
000045cc g     F .text	00000072 TEE_BigIntConvertFromOctetString
000035a0 g     F .text	00000018 _utee_authenc_dec_final
0000779e g     F .text	00000104 mbedtls_mpi_cmp_abs
000036a4 g     F .text	00000014 _utee_storage_obj_read
0000d642 g     F .text	000000ea memchr
00002020 g     F .text	00000030 TEE_UnmaskCancellation
0000bac8 g     F .text	00000494 mbedtls_mpi_self_test
000036e0 g     F .text	00000014 _utee_storage_obj_seek
00003340 g     F .text	00000014 _utee_check_access_rights
00007b36 g     F .text	00000044 mbedtls_mpi_cmp_int
00004220 g     F .text	0000018e _base64_dec
00003668 g     F .text	00000014 _utee_storage_reset_enum
00002518 g     F .text	00000038 __utee_check_attr_in_annotation
00003570 g     F .text	00000018 _utee_authenc_update_payload
0000505c g     F .text	00000058 TEE_BigIntMod
0000a250 g     F .text	000000f2 mbedtls_mpi_mod_int
00007292 g     F .text	0000008c mbedtls_mpi_read_binary_le
00004ef4 g     F .text	00000168 TEE_BigIntDiv
000034b8 g     F .text	00000014 _utee_cryp_obj_alloc
00017398 g       .bss	00000000 __ftrace_buf_start
0000ddf6 g     F .text	00000062 strlcpy
00006732 g     F .text	000000d4 mbedtls_mpi_copy
0000ca88 g     F .text	00000018 malloc_reset_stats
00002cca g     F .text	00000080 TEE_GetPropertyAsIdentity
000009e6 g     F .text	0000002a __vsprintf
000033a4 g     F .text	00000014 _utee_set_ta_time
00003314 g     F .text	00000018 _utee_invoke_ta_command
0000cfde g     F .text	0000004a realloc
00006806 g     F .text	00000038 mbedtls_mpi_swap
0000d4bc g     F .text	00000068 mempool_alloc_pool
00004e1c g     F .text	000000bc TEE_BigIntMul
0000d330 g     F .text	00000010 raw_malloc_get_ctx_size
0000751e g     F .text	0000014a mbedtls_mpi_shift_l
000078a2 g     F .text	00000146 mbedtls_mpi_cmp_mpi
00002134 g     F .text	00000022 TEE_MemFill
0000d39e g     F .text	00000026 malloc_add_pool
0000051c g     F .text	00000020 trace_get_level
00007b7a g     F .text	00000164 mbedtls_mpi_add_abs
00005e02 g     F .text	0000001c TEE_BigIntFMMSizeInU32
00002abc g     F .text	00000086 TEE_GetPropertyAsBool
0000cdf2 g     F .text	00000098 raw_realloc
00005dd0 g     F .text	0000001a TEE_BigIntInitFMM
00003438 g     F .text	00000014 _utee_cipher_init
00003fb6 g     F .text	0000006c __utee_entry
00002b42 g     F .text	00000080 TEE_GetPropertyAsU32
0000dee6 g       .text	00000000 __text_end
00005274 g     F .text	000000c0 TEE_BigIntRelativePrime
0000a1c6 g     F .text	0000008a mbedtls_mpi_mod_mpi
0000347c g     F .text	00000014 _utee_cryp_obj_get_info
0000c81c g     F .text	000000f0 bpool
00002d4a g     F .text	00000060 TEE_AllocatePropertyEnumerator
000033b8 g     F .text	00000018 _utee_cryp_state_alloc
00001ff2 g     F .text	0000002e TEE_GetCancellationFlag
0000ac10 g     F .text	000001b2 mbedtls_mpi_gcd
00002226 g     F .text	00000040 TEE_SetTAPersistentTime
00007398 g     F .text	000000be mbedtls_mpi_write_binary_le
0000dc6a g     F .text	000000f4 memset
0000cc68 g     F .text	0000008a raw_memalign
000021ae g     F .text	00000078 TEE_GetTAPersistentTime
0000090c g     F .text	0000001a dhex_dump
00002050 g     F .text	00000030 TEE_MaskCancellation
000034a4 g     F .text	00000014 _utee_cryp_obj_get_attr
00003464 g     F .text	00000018 _utee_cipher_final
000004dc g     F .text	00000040 trace_set_level
000033e4 g     F .text	00000014 _utee_cryp_state_free
0000dd5e g     F .text	00000098 strcmp
000032e8 g     F .text	00000018 _utee_open_ta_session
00004734 g     F .text	000000c0 TEE_BigIntConvertToS32
00004d40 g     F .text	00000030 TEE_BigIntSub
0000d632 g     F .text	00000010 tahead_get_trace_level
0000367c g     F .text	00000014 _utee_storage_start_enum
00003094 g     F .text	00000088 tee_map_zi
0000a534 g     F .text	00000022 mbedtls_mpi_montred
0000d028 g     F .text	0000004c memalign
000046bc g     F .text	00000078 TEE_BigIntConvertFromS32
00007fe2 g     F .text	00000048 mbedtls_mpi_add_int
00003588 g     F .text	00000018 _utee_authenc_enc_final
0000d3c4 g     F .text	00000028 malloc_buffer_is_within_alloced
000034cc g     F .text	00000014 _utee_cryp_obj_close
00005dea g     F .text	00000018 TEE_BigIntInitFMMContext
00003368 g     F .text	00000014 _utee_mask_cancellation
0000362c g     F .text	00000014 _utee_storage_obj_rename
00004ed8 g     F .text	0000001c TEE_BigIntSquare
000036b8 g     F .text	00000014 _utee_storage_obj_write
0000032c g     F .text	00000010 TA_CreateEntryPoint
000004d8 g     F .text	00000004 __ta_entry
0000355c g     F .text	00000014 _utee_authenc_update_aad
0000a3a2 g     F .text	0000001a mbedtls_mpi_montg_init
00000928 g     F .text	00000030 snprintk
00004a66 g     F .text	00000034 TEE_BigIntGetBitCount
00003508 g     F .text	00000014 _utee_cryp_obj_copy
0000511c g     F .text	00000034 TEE_BigIntMulMod
0000aff2 g     F .text	00000442 mbedtls_mpi_inv_mod
00014354 g     O .bss	00000020 ta_params
00009c40 g     F .text	0000053c mbedtls_mpi_div_mpi
00006d10 g     F .text	0000001c mbedtls_mpi_size
0000c06e g     F .text	00000352 bget
00002de4 g     F .text	0000002e TEE_StartPropertyEnumerator
0000337c g     F .text	00000014 _utee_wait
00006b56 g     F .text	000000aa mbedtls_mpi_set_bit
0000232e g     F .text	0000001c TEE_Free
0000b7ee g     F .text	00000022 mbedtls_mpi_is_prime
00002386 g     F .text	0000001e TEE_CacheInvalidate
00001980 g     F .text	00000010 _assert_break
000050b4 g     F .text	00000034 TEE_BigIntAddMod
00003390 g     F .text	00000014 _utee_get_time
00002e12 g     F .text	000000ec TEE_GetPropertyName
000034f4 g     F .text	00000014 _utee_cryp_obj_populate
00002114 g     F .text	00000020 TEE_MemCompare
0000344c g     F .text	00000018 _utee_cipher_update
00000980 g     F .text	00000066 __vsnprintf
00014374 g     O .bss	0000000c __elf_phdr_info
00001dd6 g     F .text	000000dc TEE_OpenTASession
00001990 g     F .text	00000020 trace_ext_puts
000019b0 g     F .text	00000012 trace_ext_get_thread_id
0000351c g     F .text	00000014 _utee_cryp_derive_key
00006448 g     F .text	00000078 mbedtls_mpi_free
000034e0 g     F .text	00000014 _utee_cryp_obj_reset
0000234a g     F .text	0000001e TEE_CacheClean
000032d4 g     F .text	00000014 _utee_get_property_name_to_index
0000cd48 g     F .text	000000aa raw_calloc
0000406a g     F .text	0000015a _base64_enc
00006992 g     F .text	00000124 mbedtls_mpi_safe_cond_swap
00003544 g     F .text	00000018 _utee_authenc_init
0000d72c g     F .text	00000078 strlen
00005ae4 g     F .text	00000278 TEE_BigIntComputeExtendedGcd
00003640 g     F .text	00000014 _utee_storage_alloc_enum
00002156 g     F .text	00000026 TEE_GetSystemTime
000035d0 g     F .text	00000018 _utee_asymm_verify
00000000 g     O .ta_head	00000020 ta_head
0000c50c g     F .text	00000310 brel
00007d70 g     F .text	0000013e mbedtls_mpi_sub_abs
0000ae60 g     F .text	0000005e mbedtls_mpi_fill_random
000020ba g     F .text	00000022 TEE_SetInstanceData
0000332c g     F .text	00000014 _utee_get_cancellation_flag
00001914 g     F .text	00000018 __aeabi_ldivmod
00007012 g     F .text	000001ba mbedtls_mpi_write_string
00001eb2 g     F .text	0000002c TEE_CloseTASession
00003600 g     F .text	00000018 _utee_storage_obj_create
0000d096 g     F .text	00000018 free
0000c90c g     F .text	000000a4 bstats
00017390 g     O .bss	00000004 mbedtls_mpi_mempool
00003420 g     F .text	00000018 _utee_hash_final



Disassembly of section .text:

00000020 <nvmem_get_state>:
nvmem_get_state():
/home/aom1/Work/Linux/target/STM32MP1-DK2/bootloader/buildroot/optee-os-custom/ta/stm32mp_nvmem/ta_stm32mp_nvmem.c:36
      20:	b580      	push	{r7, lr}
      22:	b08e      	sub	sp, #56	; 0x38
      24:	af02      	add	r7, sp, #8
      26:	6078      	str	r0, [r7, #4]
/home/aom1/Work/Linux/target/STM32MP1-DK2/bootloader/buildroot/optee-os-custom/ta/stm32mp_nvmem/ta_stm32mp_nvmem.c:37
      28:	2300      	movs	r3, #0
      2a:	62fb      	str	r3, [r7, #44]	; 0x2c
/home/aom1/Work/Linux/target/STM32MP1-DK2/bootloader/buildroot/optee-os-custom/ta/stm32mp_nvmem/ta_stm32mp_nvmem.c:39
      2c:	2302      	movs	r3, #2
      2e:	62bb      	str	r3, [r7, #40]	; 0x28
/home/aom1/Work/Linux/target/STM32MP1-DK2/bootloader/buildroot/optee-os-custom/ta/stm32mp_nvmem/ta_stm32mp_nvmem.c:44
      30:	687b      	ldr	r3, [r7, #4]
      32:	2b00      	cmp	r3, #0
      34:	d10a      	bne.n	4c <nvmem_get_state+0x2c>
/home/aom1/Work/Linux/target/STM32MP1-DK2/bootloader/buildroot/optee-os-custom/ta/stm32mp_nvmem/ta_stm32mp_nvmem.c:44 (discriminator 1)
      36:	4b12      	ldr	r3, [pc, #72]	; (80 <nvmem_get_state+0x60>)
      38:	447b      	add	r3, pc
      3a:	222c      	movs	r2, #44	; 0x2c
      3c:	4911      	ldr	r1, [pc, #68]	; (84 <nvmem_get_state+0x64>)
      3e:	4479      	add	r1, pc
      40:	4811      	ldr	r0, [pc, #68]	; (88 <nvmem_get_state+0x68>)
      42:	4478      	add	r0, pc
      44:	f001 fc7e 	bl	1944 <_assert_log>
      48:	f001 fc9a 	bl	1980 <_assert_break>
/home/aom1/Work/Linux/target/STM32MP1-DK2/bootloader/buildroot/optee-os-custom/ta/stm32mp_nvmem/ta_stm32mp_nvmem.c:46
      4c:	4b0f      	ldr	r3, [pc, #60]	; (8c <nvmem_get_state+0x6c>)
      4e:	447b      	add	r3, pc
      50:	6818      	ldr	r0, [r3, #0]
      52:	2300      	movs	r3, #0
      54:	9301      	str	r3, [sp, #4]
      56:	f107 0308 	add.w	r3, r7, #8
      5a:	9300      	str	r3, [sp, #0]
      5c:	6abb      	ldr	r3, [r7, #40]	; 0x28
      5e:	2203      	movs	r2, #3
      60:	f04f 31ff 	mov.w	r1, #4294967295	; 0xffffffff
      64:	f001 ff3b 	bl	1ede <TEE_InvokeTACommand>
      68:	62f8      	str	r0, [r7, #44]	; 0x2c
/home/aom1/Work/Linux/target/STM32MP1-DK2/bootloader/buildroot/optee-os-custom/ta/stm32mp_nvmem/ta_stm32mp_nvmem.c:49
      6a:	6afb      	ldr	r3, [r7, #44]	; 0x2c
      6c:	2b00      	cmp	r3, #0
      6e:	d102      	bne.n	76 <nvmem_get_state+0x56>
/home/aom1/Work/Linux/target/STM32MP1-DK2/bootloader/buildroot/optee-os-custom/ta/stm32mp_nvmem/ta_stm32mp_nvmem.c:50
      70:	68ba      	ldr	r2, [r7, #8]
      72:	687b      	ldr	r3, [r7, #4]
      74:	601a      	str	r2, [r3, #0]
/home/aom1/Work/Linux/target/STM32MP1-DK2/bootloader/buildroot/optee-os-custom/ta/stm32mp_nvmem/ta_stm32mp_nvmem.c:52
      76:	6afb      	ldr	r3, [r7, #44]	; 0x2c
/home/aom1/Work/Linux/target/STM32MP1-DK2/bootloader/buildroot/optee-os-custom/ta/stm32mp_nvmem/ta_stm32mp_nvmem.c:53
      78:	4618      	mov	r0, r3
      7a:	3730      	adds	r7, #48	; 0x30
      7c:	46bd      	mov	sp, r7
      7e:	bd80      	pop	{r7, pc}
      80:	0000def8 	.word	0x0000def8
      84:	0000dea6 	.word	0x0000dea6
      88:	0000dec6 	.word	0x0000dec6
      8c:	000102f2 	.word	0x000102f2

00000090 <nvmem_read>:
nvmem_read():
/home/aom1/Work/Linux/target/STM32MP1-DK2/bootloader/buildroot/optee-os-custom/ta/stm32mp_nvmem/ta_stm32mp_nvmem.c:56
      90:	b580      	push	{r7, lr}
      92:	b092      	sub	sp, #72	; 0x48
      94:	af02      	add	r7, sp, #8
      96:	6078      	str	r0, [r7, #4]
      98:	6039      	str	r1, [r7, #0]
/home/aom1/Work/Linux/target/STM32MP1-DK2/bootloader/buildroot/optee-os-custom/ta/stm32mp_nvmem/ta_stm32mp_nvmem.c:57
      9a:	2361      	movs	r3, #97	; 0x61
      9c:	637b      	str	r3, [r7, #52]	; 0x34
/home/aom1/Work/Linux/target/STM32MP1-DK2/bootloader/buildroot/optee-os-custom/ta/stm32mp_nvmem/ta_stm32mp_nvmem.c:61
      9e:	683b      	ldr	r3, [r7, #0]
      a0:	3308      	adds	r3, #8
      a2:	681b      	ldr	r3, [r3, #0]
      a4:	63fb      	str	r3, [r7, #60]	; 0x3c
/home/aom1/Work/Linux/target/STM32MP1-DK2/bootloader/buildroot/optee-os-custom/ta/stm32mp_nvmem/ta_stm32mp_nvmem.c:62
      a6:	683b      	ldr	r3, [r7, #0]
      a8:	3308      	adds	r3, #8
      aa:	685b      	ldr	r3, [r3, #4]
      ac:	633b      	str	r3, [r7, #48]	; 0x30
/home/aom1/Work/Linux/target/STM32MP1-DK2/bootloader/buildroot/optee-os-custom/ta/stm32mp_nvmem/ta_stm32mp_nvmem.c:63
      ae:	2300      	movs	r3, #0
      b0:	63bb      	str	r3, [r7, #56]	; 0x38
/home/aom1/Work/Linux/target/STM32MP1-DK2/bootloader/buildroot/optee-os-custom/ta/stm32mp_nvmem/ta_stm32mp_nvmem.c:64
      b2:	2300      	movs	r3, #0
      b4:	62fb      	str	r3, [r7, #44]	; 0x2c
/home/aom1/Work/Linux/target/STM32MP1-DK2/bootloader/buildroot/optee-os-custom/ta/stm32mp_nvmem/ta_stm32mp_nvmem.c:66
      b6:	687a      	ldr	r2, [r7, #4]
      b8:	6b7b      	ldr	r3, [r7, #52]	; 0x34
      ba:	429a      	cmp	r2, r3
      bc:	d105      	bne.n	ca <nvmem_read+0x3a>
/home/aom1/Work/Linux/target/STM32MP1-DK2/bootloader/buildroot/optee-os-custom/ta/stm32mp_nvmem/ta_stm32mp_nvmem.c:66 (discriminator 1)
      be:	6bfb      	ldr	r3, [r7, #60]	; 0x3c
      c0:	2b00      	cmp	r3, #0
      c2:	d002      	beq.n	ca <nvmem_read+0x3a>
/home/aom1/Work/Linux/target/STM32MP1-DK2/bootloader/buildroot/optee-os-custom/ta/stm32mp_nvmem/ta_stm32mp_nvmem.c:66 (discriminator 2)
      c4:	6b3b      	ldr	r3, [r7, #48]	; 0x30
      c6:	2b00      	cmp	r3, #0
      c8:	d103      	bne.n	d2 <nvmem_read+0x42>
/home/aom1/Work/Linux/target/STM32MP1-DK2/bootloader/buildroot/optee-os-custom/ta/stm32mp_nvmem/ta_stm32mp_nvmem.c:67
      ca:	2306      	movs	r3, #6
      cc:	f6cf 73ff 	movt	r3, #65535	; 0xffff
      d0:	e07a      	b.n	1c8 <nvmem_read+0x138>
/home/aom1/Work/Linux/target/STM32MP1-DK2/bootloader/buildroot/optee-os-custom/ta/stm32mp_nvmem/ta_stm32mp_nvmem.c:69
      d2:	683b      	ldr	r3, [r7, #0]
      d4:	681b      	ldr	r3, [r3, #0]
      d6:	2b00      	cmp	r3, #0
      d8:	d103      	bne.n	e2 <nvmem_read+0x52>
/home/aom1/Work/Linux/target/STM32MP1-DK2/bootloader/buildroot/optee-os-custom/ta/stm32mp_nvmem/ta_stm32mp_nvmem.c:69 (discriminator 1)
      da:	6b3b      	ldr	r3, [r7, #48]	; 0x30
      dc:	f5b3 7f42 	cmp.w	r3, #776	; 0x308
      e0:	d203      	bcs.n	ea <nvmem_read+0x5a>
/home/aom1/Work/Linux/target/STM32MP1-DK2/bootloader/buildroot/optee-os-custom/ta/stm32mp_nvmem/ta_stm32mp_nvmem.c:71
      e2:	2306      	movs	r3, #6
      e4:	f6cf 73ff 	movt	r3, #65535	; 0xffff
      e8:	e06e      	b.n	1c8 <nvmem_read+0x138>
/home/aom1/Work/Linux/target/STM32MP1-DK2/bootloader/buildroot/optee-os-custom/ta/stm32mp_nvmem/ta_stm32mp_nvmem.c:74
      ea:	6bfb      	ldr	r3, [r7, #60]	; 0x3c
      ec:	1d1a      	adds	r2, r3, #4
      ee:	63fa      	str	r2, [r7, #60]	; 0x3c
      f0:	2202      	movs	r2, #2
      f2:	601a      	str	r2, [r3, #0]
/home/aom1/Work/Linux/target/STM32MP1-DK2/bootloader/buildroot/optee-os-custom/ta/stm32mp_nvmem/ta_stm32mp_nvmem.c:77
      f4:	6bfb      	ldr	r3, [r7, #60]	; 0x3c
      f6:	1d1a      	adds	r2, r3, #4
      f8:	63fa      	str	r2, [r7, #60]	; 0x3c
      fa:	4618      	mov	r0, r3
      fc:	f7ff ff90 	bl	20 <nvmem_get_state>
     100:	62f8      	str	r0, [r7, #44]	; 0x2c
/home/aom1/Work/Linux/target/STM32MP1-DK2/bootloader/buildroot/optee-os-custom/ta/stm32mp_nvmem/ta_stm32mp_nvmem.c:78
     102:	6afb      	ldr	r3, [r7, #44]	; 0x2c
     104:	2b00      	cmp	r3, #0
     106:	d001      	beq.n	10c <nvmem_read+0x7c>
/home/aom1/Work/Linux/target/STM32MP1-DK2/bootloader/buildroot/optee-os-custom/ta/stm32mp_nvmem/ta_stm32mp_nvmem.c:79
     108:	6afb      	ldr	r3, [r7, #44]	; 0x2c
     10a:	e05d      	b.n	1c8 <nvmem_read+0x138>
/home/aom1/Work/Linux/target/STM32MP1-DK2/bootloader/buildroot/optee-os-custom/ta/stm32mp_nvmem/ta_stm32mp_nvmem.c:81
     10c:	2300      	movs	r3, #0
     10e:	63bb      	str	r3, [r7, #56]	; 0x38
     110:	e056      	b.n	1c0 <nvmem_read+0x130>
/home/aom1/Work/Linux/target/STM32MP1-DK2/bootloader/buildroot/optee-os-custom/ta/stm32mp_nvmem/ta_stm32mp_nvmem.c:82
     112:	f107 030c 	add.w	r3, r7, #12
     116:	efc0 0010 	vmov.i32	d16, #0	; 0x00000000
     11a:	edc3 0b00 	vstr	d16, [r3]
     11e:	edc3 0b02 	vstr	d16, [r3, #8]
     122:	edc3 0b04 	vstr	d16, [r3, #16]
     126:	edc3 0b06 	vstr	d16, [r3, #24]
/home/aom1/Work/Linux/target/STM32MP1-DK2/bootloader/buildroot/optee-os-custom/ta/stm32mp_nvmem/ta_stm32mp_nvmem.c:85
     12a:	6bbb      	ldr	r3, [r7, #56]	; 0x38
     12c:	009b      	lsls	r3, r3, #2
     12e:	60fb      	str	r3, [r7, #12]
/home/aom1/Work/Linux/target/STM32MP1-DK2/bootloader/buildroot/optee-os-custom/ta/stm32mp_nvmem/ta_stm32mp_nvmem.c:86
     130:	2301      	movs	r3, #1
     132:	613b      	str	r3, [r7, #16]
/home/aom1/Work/Linux/target/STM32MP1-DK2/bootloader/buildroot/optee-os-custom/ta/stm32mp_nvmem/ta_stm32mp_nvmem.c:87
     134:	6bfb      	ldr	r3, [r7, #60]	; 0x3c
     136:	617b      	str	r3, [r7, #20]
/home/aom1/Work/Linux/target/STM32MP1-DK2/bootloader/buildroot/optee-os-custom/ta/stm32mp_nvmem/ta_stm32mp_nvmem.c:88
     138:	2304      	movs	r3, #4
     13a:	61bb      	str	r3, [r7, #24]
/home/aom1/Work/Linux/target/STM32MP1-DK2/bootloader/buildroot/optee-os-custom/ta/stm32mp_nvmem/ta_stm32mp_nvmem.c:90
     13c:	4b24      	ldr	r3, [pc, #144]	; (1d0 <nvmem_read+0x140>)
     13e:	447b      	add	r3, pc
     140:	6818      	ldr	r0, [r3, #0]
     142:	2300      	movs	r3, #0
     144:	9301      	str	r3, [sp, #4]
     146:	f107 030c 	add.w	r3, r7, #12
     14a:	9300      	str	r3, [sp, #0]
     14c:	687b      	ldr	r3, [r7, #4]
     14e:	2200      	movs	r2, #0
     150:	f04f 31ff 	mov.w	r1, #4294967295	; 0xffffffff
     154:	f001 fec3 	bl	1ede <TEE_InvokeTACommand>
     158:	62f8      	str	r0, [r7, #44]	; 0x2c
/home/aom1/Work/Linux/target/STM32MP1-DK2/bootloader/buildroot/optee-os-custom/ta/stm32mp_nvmem/ta_stm32mp_nvmem.c:93
     15a:	6afb      	ldr	r3, [r7, #44]	; 0x2c
     15c:	2b00      	cmp	r3, #0
     15e:	d008      	beq.n	172 <nvmem_read+0xe2>
/home/aom1/Work/Linux/target/STM32MP1-DK2/bootloader/buildroot/optee-os-custom/ta/stm32mp_nvmem/ta_stm32mp_nvmem.c:94 (discriminator 1)
     160:	6bfb      	ldr	r3, [r7, #60]	; 0x3c
     162:	1d1a      	adds	r2, r3, #4
     164:	63fa      	str	r2, [r7, #60]	; 0x3c
     166:	2200      	movs	r2, #0
     168:	601a      	str	r2, [r3, #0]
/home/aom1/Work/Linux/target/STM32MP1-DK2/bootloader/buildroot/optee-os-custom/ta/stm32mp_nvmem/ta_stm32mp_nvmem.c:95 (discriminator 1)
     16a:	6bfb      	ldr	r3, [r7, #60]	; 0x3c
     16c:	2201      	movs	r2, #1
     16e:	601a      	str	r2, [r3, #0]
     170:	e020      	b.n	1b4 <nvmem_read+0x124>
/home/aom1/Work/Linux/target/STM32MP1-DK2/bootloader/buildroot/optee-os-custom/ta/stm32mp_nvmem/ta_stm32mp_nvmem.c:99
     172:	6bfb      	ldr	r3, [r7, #60]	; 0x3c
     174:	3304      	adds	r3, #4
     176:	63fb      	str	r3, [r7, #60]	; 0x3c
/home/aom1/Work/Linux/target/STM32MP1-DK2/bootloader/buildroot/optee-os-custom/ta/stm32mp_nvmem/ta_stm32mp_nvmem.c:102
     178:	6bbb      	ldr	r3, [r7, #56]	; 0x38
     17a:	009b      	lsls	r3, r3, #2
     17c:	60fb      	str	r3, [r7, #12]
/home/aom1/Work/Linux/target/STM32MP1-DK2/bootloader/buildroot/optee-os-custom/ta/stm32mp_nvmem/ta_stm32mp_nvmem.c:103
     17e:	2302      	movs	r3, #2
     180:	613b      	str	r3, [r7, #16]
/home/aom1/Work/Linux/target/STM32MP1-DK2/bootloader/buildroot/optee-os-custom/ta/stm32mp_nvmem/ta_stm32mp_nvmem.c:104
     182:	6bfb      	ldr	r3, [r7, #60]	; 0x3c
     184:	617b      	str	r3, [r7, #20]
/home/aom1/Work/Linux/target/STM32MP1-DK2/bootloader/buildroot/optee-os-custom/ta/stm32mp_nvmem/ta_stm32mp_nvmem.c:105
     186:	2304      	movs	r3, #4
     188:	61bb      	str	r3, [r7, #24]
/home/aom1/Work/Linux/target/STM32MP1-DK2/bootloader/buildroot/optee-os-custom/ta/stm32mp_nvmem/ta_stm32mp_nvmem.c:106
     18a:	4b12      	ldr	r3, [pc, #72]	; (1d4 <nvmem_read+0x144>)
     18c:	447b      	add	r3, pc
     18e:	6818      	ldr	r0, [r3, #0]
     190:	2300      	movs	r3, #0
     192:	9301      	str	r3, [sp, #4]
     194:	f107 030c 	add.w	r3, r7, #12
     198:	9300      	str	r3, [sp, #0]
     19a:	687b      	ldr	r3, [r7, #4]
     19c:	2200      	movs	r2, #0
     19e:	f04f 31ff 	mov.w	r1, #4294967295	; 0xffffffff
     1a2:	f001 fe9c 	bl	1ede <TEE_InvokeTACommand>
     1a6:	62f8      	str	r0, [r7, #44]	; 0x2c
/home/aom1/Work/Linux/target/STM32MP1-DK2/bootloader/buildroot/optee-os-custom/ta/stm32mp_nvmem/ta_stm32mp_nvmem.c:109
     1a8:	6afb      	ldr	r3, [r7, #44]	; 0x2c
     1aa:	2b00      	cmp	r3, #0
     1ac:	d002      	beq.n	1b4 <nvmem_read+0x124>
/home/aom1/Work/Linux/target/STM32MP1-DK2/bootloader/buildroot/optee-os-custom/ta/stm32mp_nvmem/ta_stm32mp_nvmem.c:110
     1ae:	6bfb      	ldr	r3, [r7, #60]	; 0x3c
     1b0:	2201      	movs	r2, #1
     1b2:	601a      	str	r2, [r3, #0]
/home/aom1/Work/Linux/target/STM32MP1-DK2/bootloader/buildroot/optee-os-custom/ta/stm32mp_nvmem/ta_stm32mp_nvmem.c:81 (discriminator 2)
     1b4:	6bbb      	ldr	r3, [r7, #56]	; 0x38
     1b6:	3301      	adds	r3, #1
     1b8:	63bb      	str	r3, [r7, #56]	; 0x38
     1ba:	6bfb      	ldr	r3, [r7, #60]	; 0x3c
     1bc:	3304      	adds	r3, #4
     1be:	63fb      	str	r3, [r7, #60]	; 0x3c
/home/aom1/Work/Linux/target/STM32MP1-DK2/bootloader/buildroot/optee-os-custom/ta/stm32mp_nvmem/ta_stm32mp_nvmem.c:81 (discriminator 1)
     1c0:	6bbb      	ldr	r3, [r7, #56]	; 0x38
     1c2:	2b5f      	cmp	r3, #95	; 0x5f
     1c4:	d9a5      	bls.n	112 <nvmem_read+0x82>
/home/aom1/Work/Linux/target/STM32MP1-DK2/bootloader/buildroot/optee-os-custom/ta/stm32mp_nvmem/ta_stm32mp_nvmem.c:113
     1c6:	2300      	movs	r3, #0
/home/aom1/Work/Linux/target/STM32MP1-DK2/bootloader/buildroot/optee-os-custom/ta/stm32mp_nvmem/ta_stm32mp_nvmem.c:114
     1c8:	4618      	mov	r0, r3
     1ca:	3740      	adds	r7, #64	; 0x40
     1cc:	46bd      	mov	sp, r7
     1ce:	bd80      	pop	{r7, pc}
     1d0:	00010202 	.word	0x00010202
     1d4:	000101b4 	.word	0x000101b4

000001d8 <nvmem_write>:
nvmem_write():
/home/aom1/Work/Linux/target/STM32MP1-DK2/bootloader/buildroot/optee-os-custom/ta/stm32mp_nvmem/ta_stm32mp_nvmem.c:117
     1d8:	b580      	push	{r7, lr}
     1da:	b094      	sub	sp, #80	; 0x50
     1dc:	af02      	add	r7, sp, #8
     1de:	6078      	str	r0, [r7, #4]
     1e0:	6039      	str	r1, [r7, #0]
/home/aom1/Work/Linux/target/STM32MP1-DK2/bootloader/buildroot/optee-os-custom/ta/stm32mp_nvmem/ta_stm32mp_nvmem.c:118
     1e2:	2351      	movs	r3, #81	; 0x51
     1e4:	63fb      	str	r3, [r7, #60]	; 0x3c
/home/aom1/Work/Linux/target/STM32MP1-DK2/bootloader/buildroot/optee-os-custom/ta/stm32mp_nvmem/ta_stm32mp_nvmem.c:122
     1e6:	683b      	ldr	r3, [r7, #0]
     1e8:	3308      	adds	r3, #8
     1ea:	681b      	ldr	r3, [r3, #0]
     1ec:	647b      	str	r3, [r7, #68]	; 0x44
/home/aom1/Work/Linux/target/STM32MP1-DK2/bootloader/buildroot/optee-os-custom/ta/stm32mp_nvmem/ta_stm32mp_nvmem.c:123
     1ee:	683b      	ldr	r3, [r7, #0]
     1f0:	3308      	adds	r3, #8
     1f2:	685b      	ldr	r3, [r3, #4]
     1f4:	63bb      	str	r3, [r7, #56]	; 0x38
/home/aom1/Work/Linux/target/STM32MP1-DK2/bootloader/buildroot/optee-os-custom/ta/stm32mp_nvmem/ta_stm32mp_nvmem.c:124
     1f6:	2300      	movs	r3, #0
     1f8:	643b      	str	r3, [r7, #64]	; 0x40
/home/aom1/Work/Linux/target/STM32MP1-DK2/bootloader/buildroot/optee-os-custom/ta/stm32mp_nvmem/ta_stm32mp_nvmem.c:126
     1fa:	687a      	ldr	r2, [r7, #4]
     1fc:	6bfb      	ldr	r3, [r7, #60]	; 0x3c
     1fe:	429a      	cmp	r2, r3
     200:	d105      	bne.n	20e <nvmem_write+0x36>
/home/aom1/Work/Linux/target/STM32MP1-DK2/bootloader/buildroot/optee-os-custom/ta/stm32mp_nvmem/ta_stm32mp_nvmem.c:126 (discriminator 1)
     202:	6c7b      	ldr	r3, [r7, #68]	; 0x44
     204:	2b00      	cmp	r3, #0
     206:	d002      	beq.n	20e <nvmem_write+0x36>
/home/aom1/Work/Linux/target/STM32MP1-DK2/bootloader/buildroot/optee-os-custom/ta/stm32mp_nvmem/ta_stm32mp_nvmem.c:126 (discriminator 2)
     208:	6bbb      	ldr	r3, [r7, #56]	; 0x38
     20a:	2b00      	cmp	r3, #0
     20c:	d103      	bne.n	216 <nvmem_write+0x3e>
/home/aom1/Work/Linux/target/STM32MP1-DK2/bootloader/buildroot/optee-os-custom/ta/stm32mp_nvmem/ta_stm32mp_nvmem.c:127
     20e:	2306      	movs	r3, #6
     210:	f6cf 73ff 	movt	r3, #65535	; 0xffff
     214:	e082      	b.n	31c <nvmem_write+0x144>
/home/aom1/Work/Linux/target/STM32MP1-DK2/bootloader/buildroot/optee-os-custom/ta/stm32mp_nvmem/ta_stm32mp_nvmem.c:129
     216:	683b      	ldr	r3, [r7, #0]
     218:	681b      	ldr	r3, [r3, #0]
     21a:	2b00      	cmp	r3, #0
     21c:	d103      	bne.n	226 <nvmem_write+0x4e>
/home/aom1/Work/Linux/target/STM32MP1-DK2/bootloader/buildroot/optee-os-custom/ta/stm32mp_nvmem/ta_stm32mp_nvmem.c:129 (discriminator 1)
     21e:	6bbb      	ldr	r3, [r7, #56]	; 0x38
     220:	f5b3 7f42 	cmp.w	r3, #776	; 0x308
     224:	d203      	bcs.n	22e <nvmem_write+0x56>
/home/aom1/Work/Linux/target/STM32MP1-DK2/bootloader/buildroot/optee-os-custom/ta/stm32mp_nvmem/ta_stm32mp_nvmem.c:131
     226:	2306      	movs	r3, #6
     228:	f6cf 73ff 	movt	r3, #65535	; 0xffff
     22c:	e076      	b.n	31c <nvmem_write+0x144>
/home/aom1/Work/Linux/target/STM32MP1-DK2/bootloader/buildroot/optee-os-custom/ta/stm32mp_nvmem/ta_stm32mp_nvmem.c:134
     22e:	6c7b      	ldr	r3, [r7, #68]	; 0x44
     230:	1d1a      	adds	r2, r3, #4
     232:	647a      	str	r2, [r7, #68]	; 0x44
     234:	681b      	ldr	r3, [r3, #0]
     236:	2b02      	cmp	r3, #2
     238:	d003      	beq.n	242 <nvmem_write+0x6a>
/home/aom1/Work/Linux/target/STM32MP1-DK2/bootloader/buildroot/optee-os-custom/ta/stm32mp_nvmem/ta_stm32mp_nvmem.c:135
     23a:	2306      	movs	r3, #6
     23c:	f6cf 73ff 	movt	r3, #65535	; 0xffff
     240:	e06c      	b.n	31c <nvmem_write+0x144>
/home/aom1/Work/Linux/target/STM32MP1-DK2/bootloader/buildroot/optee-os-custom/ta/stm32mp_nvmem/ta_stm32mp_nvmem.c:138
     242:	6c7b      	ldr	r3, [r7, #68]	; 0x44
     244:	3304      	adds	r3, #4
     246:	647b      	str	r3, [r7, #68]	; 0x44
/home/aom1/Work/Linux/target/STM32MP1-DK2/bootloader/buildroot/optee-os-custom/ta/stm32mp_nvmem/ta_stm32mp_nvmem.c:140
     248:	2300      	movs	r3, #0
     24a:	643b      	str	r3, [r7, #64]	; 0x40
     24c:	e062      	b.n	314 <nvmem_write+0x13c>
/home/aom1/Work/Linux/target/STM32MP1-DK2/bootloader/buildroot/optee-os-custom/ta/stm32mp_nvmem/ta_stm32mp_nvmem.c:141
     24e:	f107 0308 	add.w	r3, r7, #8
     252:	efc0 0010 	vmov.i32	d16, #0	; 0x00000000
     256:	edc3 0b00 	vstr	d16, [r3]
     25a:	edc3 0b02 	vstr	d16, [r3, #8]
     25e:	edc3 0b04 	vstr	d16, [r3, #16]
     262:	edc3 0b06 	vstr	d16, [r3, #24]
/home/aom1/Work/Linux/target/STM32MP1-DK2/bootloader/buildroot/optee-os-custom/ta/stm32mp_nvmem/ta_stm32mp_nvmem.c:142
     266:	6c7b      	ldr	r3, [r7, #68]	; 0x44
     268:	1d1a      	adds	r2, r3, #4
     26a:	647a      	str	r2, [r7, #68]	; 0x44
     26c:	681b      	ldr	r3, [r3, #0]
     26e:	62fb      	str	r3, [r7, #44]	; 0x2c
/home/aom1/Work/Linux/target/STM32MP1-DK2/bootloader/buildroot/optee-os-custom/ta/stm32mp_nvmem/ta_stm32mp_nvmem.c:143
     270:	6c7b      	ldr	r3, [r7, #68]	; 0x44
     272:	1d1a      	adds	r2, r3, #4
     274:	647a      	str	r2, [r7, #68]	; 0x44
     276:	681b      	ldr	r3, [r3, #0]
     278:	637b      	str	r3, [r7, #52]	; 0x34
/home/aom1/Work/Linux/target/STM32MP1-DK2/bootloader/buildroot/optee-os-custom/ta/stm32mp_nvmem/ta_stm32mp_nvmem.c:144
     27a:	2300      	movs	r3, #0
     27c:	633b      	str	r3, [r7, #48]	; 0x30
/home/aom1/Work/Linux/target/STM32MP1-DK2/bootloader/buildroot/optee-os-custom/ta/stm32mp_nvmem/ta_stm32mp_nvmem.c:146
     27e:	6b7b      	ldr	r3, [r7, #52]	; 0x34
     280:	2b00      	cmp	r3, #0
     282:	da43      	bge.n	30c <nvmem_write+0x134>
/home/aom1/Work/Linux/target/STM32MP1-DK2/bootloader/buildroot/optee-os-custom/ta/stm32mp_nvmem/ta_stm32mp_nvmem.c:150
     284:	6c3b      	ldr	r3, [r7, #64]	; 0x40
     286:	009b      	lsls	r3, r3, #2
     288:	60bb      	str	r3, [r7, #8]
/home/aom1/Work/Linux/target/STM32MP1-DK2/bootloader/buildroot/optee-os-custom/ta/stm32mp_nvmem/ta_stm32mp_nvmem.c:151
     28a:	2301      	movs	r3, #1
     28c:	60fb      	str	r3, [r7, #12]
/home/aom1/Work/Linux/target/STM32MP1-DK2/bootloader/buildroot/optee-os-custom/ta/stm32mp_nvmem/ta_stm32mp_nvmem.c:152
     28e:	f107 032c 	add.w	r3, r7, #44	; 0x2c
     292:	613b      	str	r3, [r7, #16]
/home/aom1/Work/Linux/target/STM32MP1-DK2/bootloader/buildroot/optee-os-custom/ta/stm32mp_nvmem/ta_stm32mp_nvmem.c:153
     294:	2304      	movs	r3, #4
     296:	617b      	str	r3, [r7, #20]
/home/aom1/Work/Linux/target/STM32MP1-DK2/bootloader/buildroot/optee-os-custom/ta/stm32mp_nvmem/ta_stm32mp_nvmem.c:154
     298:	4b22      	ldr	r3, [pc, #136]	; (324 <nvmem_write+0x14c>)
     29a:	447b      	add	r3, pc
     29c:	6818      	ldr	r0, [r3, #0]
     29e:	2300      	movs	r3, #0
     2a0:	9301      	str	r3, [sp, #4]
     2a2:	f107 0308 	add.w	r3, r7, #8
     2a6:	9300      	str	r3, [sp, #0]
     2a8:	687b      	ldr	r3, [r7, #4]
     2aa:	2201      	movs	r2, #1
     2ac:	f04f 31ff 	mov.w	r1, #4294967295	; 0xffffffff
     2b0:	f001 fe15 	bl	1ede <TEE_InvokeTACommand>
     2b4:	6338      	str	r0, [r7, #48]	; 0x30
/home/aom1/Work/Linux/target/STM32MP1-DK2/bootloader/buildroot/optee-os-custom/ta/stm32mp_nvmem/ta_stm32mp_nvmem.c:157
     2b6:	6b3b      	ldr	r3, [r7, #48]	; 0x30
     2b8:	2b00      	cmp	r3, #0
     2ba:	d001      	beq.n	2c0 <nvmem_write+0xe8>
/home/aom1/Work/Linux/target/STM32MP1-DK2/bootloader/buildroot/optee-os-custom/ta/stm32mp_nvmem/ta_stm32mp_nvmem.c:158
     2bc:	6b3b      	ldr	r3, [r7, #48]	; 0x30
     2be:	e02d      	b.n	31c <nvmem_write+0x144>
/home/aom1/Work/Linux/target/STM32MP1-DK2/bootloader/buildroot/optee-os-custom/ta/stm32mp_nvmem/ta_stm32mp_nvmem.c:161
     2c0:	6b7b      	ldr	r3, [r7, #52]	; 0x34
     2c2:	f003 4380 	and.w	r3, r3, #1073741824	; 0x40000000
     2c6:	2b00      	cmp	r3, #0
     2c8:	d021      	beq.n	30e <nvmem_write+0x136>
/home/aom1/Work/Linux/target/STM32MP1-DK2/bootloader/buildroot/optee-os-custom/ta/stm32mp_nvmem/ta_stm32mp_nvmem.c:162
     2ca:	f04f 4380 	mov.w	r3, #1073741824	; 0x40000000
     2ce:	62bb      	str	r3, [r7, #40]	; 0x28
/home/aom1/Work/Linux/target/STM32MP1-DK2/bootloader/buildroot/optee-os-custom/ta/stm32mp_nvmem/ta_stm32mp_nvmem.c:165
     2d0:	6c3b      	ldr	r3, [r7, #64]	; 0x40
     2d2:	009b      	lsls	r3, r3, #2
     2d4:	60bb      	str	r3, [r7, #8]
/home/aom1/Work/Linux/target/STM32MP1-DK2/bootloader/buildroot/optee-os-custom/ta/stm32mp_nvmem/ta_stm32mp_nvmem.c:166
     2d6:	2302      	movs	r3, #2
     2d8:	60fb      	str	r3, [r7, #12]
/home/aom1/Work/Linux/target/STM32MP1-DK2/bootloader/buildroot/optee-os-custom/ta/stm32mp_nvmem/ta_stm32mp_nvmem.c:167
     2da:	f107 0328 	add.w	r3, r7, #40	; 0x28
     2de:	613b      	str	r3, [r7, #16]
/home/aom1/Work/Linux/target/STM32MP1-DK2/bootloader/buildroot/optee-os-custom/ta/stm32mp_nvmem/ta_stm32mp_nvmem.c:168
     2e0:	2304      	movs	r3, #4
     2e2:	617b      	str	r3, [r7, #20]
/home/aom1/Work/Linux/target/STM32MP1-DK2/bootloader/buildroot/optee-os-custom/ta/stm32mp_nvmem/ta_stm32mp_nvmem.c:169
     2e4:	4b10      	ldr	r3, [pc, #64]	; (328 <nvmem_write+0x150>)
     2e6:	447b      	add	r3, pc
     2e8:	6818      	ldr	r0, [r3, #0]
     2ea:	2300      	movs	r3, #0
     2ec:	9301      	str	r3, [sp, #4]
     2ee:	f107 0308 	add.w	r3, r7, #8
     2f2:	9300      	str	r3, [sp, #0]
     2f4:	687b      	ldr	r3, [r7, #4]
     2f6:	2201      	movs	r2, #1
     2f8:	f04f 31ff 	mov.w	r1, #4294967295	; 0xffffffff
     2fc:	f001 fdef 	bl	1ede <TEE_InvokeTACommand>
     300:	6338      	str	r0, [r7, #48]	; 0x30
/home/aom1/Work/Linux/target/STM32MP1-DK2/bootloader/buildroot/optee-os-custom/ta/stm32mp_nvmem/ta_stm32mp_nvmem.c:173
     302:	6b3b      	ldr	r3, [r7, #48]	; 0x30
     304:	2b00      	cmp	r3, #0
     306:	d002      	beq.n	30e <nvmem_write+0x136>
/home/aom1/Work/Linux/target/STM32MP1-DK2/bootloader/buildroot/optee-os-custom/ta/stm32mp_nvmem/ta_stm32mp_nvmem.c:174
     308:	6b3b      	ldr	r3, [r7, #48]	; 0x30
/home/aom1/Work/Linux/target/STM32MP1-DK2/bootloader/buildroot/optee-os-custom/ta/stm32mp_nvmem/ta_stm32mp_nvmem.c:158
     30a:	e007      	b.n	31c <nvmem_write+0x144>
/home/aom1/Work/Linux/target/STM32MP1-DK2/bootloader/buildroot/optee-os-custom/ta/stm32mp_nvmem/ta_stm32mp_nvmem.c:147
     30c:	bf00      	nop
/home/aom1/Work/Linux/target/STM32MP1-DK2/bootloader/buildroot/optee-os-custom/ta/stm32mp_nvmem/ta_stm32mp_nvmem.c:140 (discriminator 2)
     30e:	6c3b      	ldr	r3, [r7, #64]	; 0x40
     310:	3301      	adds	r3, #1
     312:	643b      	str	r3, [r7, #64]	; 0x40
/home/aom1/Work/Linux/target/STM32MP1-DK2/bootloader/buildroot/optee-os-custom/ta/stm32mp_nvmem/ta_stm32mp_nvmem.c:140 (discriminator 1)
     314:	6c3b      	ldr	r3, [r7, #64]	; 0x40
     316:	2b5f      	cmp	r3, #95	; 0x5f
     318:	d999      	bls.n	24e <nvmem_write+0x76>
/home/aom1/Work/Linux/target/STM32MP1-DK2/bootloader/buildroot/optee-os-custom/ta/stm32mp_nvmem/ta_stm32mp_nvmem.c:178
     31a:	2300      	movs	r3, #0
/home/aom1/Work/Linux/target/STM32MP1-DK2/bootloader/buildroot/optee-os-custom/ta/stm32mp_nvmem/ta_stm32mp_nvmem.c:179
     31c:	4618      	mov	r0, r3
     31e:	3748      	adds	r7, #72	; 0x48
     320:	46bd      	mov	sp, r7
     322:	bd80      	pop	{r7, pc}
     324:	000100a6 	.word	0x000100a6
     328:	0001005a 	.word	0x0001005a

0000032c <TA_CreateEntryPoint>:
TA_CreateEntryPoint():
/home/aom1/Work/Linux/target/STM32MP1-DK2/bootloader/buildroot/optee-os-custom/ta/stm32mp_nvmem/ta_stm32mp_nvmem.c:182
     32c:	b480      	push	{r7}
     32e:	af00      	add	r7, sp, #0
/home/aom1/Work/Linux/target/STM32MP1-DK2/bootloader/buildroot/optee-os-custom/ta/stm32mp_nvmem/ta_stm32mp_nvmem.c:183
     330:	2300      	movs	r3, #0
/home/aom1/Work/Linux/target/STM32MP1-DK2/bootloader/buildroot/optee-os-custom/ta/stm32mp_nvmem/ta_stm32mp_nvmem.c:184
     332:	4618      	mov	r0, r3
     334:	46bd      	mov	sp, r7
     336:	f85d 7b04 	ldr.w	r7, [sp], #4
     33a:	4770      	bx	lr

0000033c <TA_DestroyEntryPoint>:
TA_DestroyEntryPoint():
/home/aom1/Work/Linux/target/STM32MP1-DK2/bootloader/buildroot/optee-os-custom/ta/stm32mp_nvmem/ta_stm32mp_nvmem.c:187
     33c:	b480      	push	{r7}
     33e:	af00      	add	r7, sp, #0
/home/aom1/Work/Linux/target/STM32MP1-DK2/bootloader/buildroot/optee-os-custom/ta/stm32mp_nvmem/ta_stm32mp_nvmem.c:188
     340:	bf00      	nop
     342:	46bd      	mov	sp, r7
     344:	f85d 7b04 	ldr.w	r7, [sp], #4
     348:	4770      	bx	lr

0000034a <TA_OpenSessionEntryPoint>:
TA_OpenSessionEntryPoint():
/home/aom1/Work/Linux/target/STM32MP1-DK2/bootloader/buildroot/optee-os-custom/ta/stm32mp_nvmem/ta_stm32mp_nvmem.c:193
     34a:	b580      	push	{r7, lr}
     34c:	b08e      	sub	sp, #56	; 0x38
     34e:	af02      	add	r7, sp, #8
     350:	60f8      	str	r0, [r7, #12]
     352:	60b9      	str	r1, [r7, #8]
     354:	607a      	str	r2, [r7, #4]
/home/aom1/Work/Linux/target/STM32MP1-DK2/bootloader/buildroot/optee-os-custom/ta/stm32mp_nvmem/ta_stm32mp_nvmem.c:195
     356:	2300      	movs	r3, #0
     358:	f6cf 73ff 	movt	r3, #65535	; 0xffff
     35c:	62fb      	str	r3, [r7, #44]	; 0x2c
/home/aom1/Work/Linux/target/STM32MP1-DK2/bootloader/buildroot/optee-os-custom/ta/stm32mp_nvmem/ta_stm32mp_nvmem.c:196
     35e:	2300      	movs	r3, #0
     360:	62bb      	str	r3, [r7, #40]	; 0x28
/home/aom1/Work/Linux/target/STM32MP1-DK2/bootloader/buildroot/optee-os-custom/ta/stm32mp_nvmem/ta_stm32mp_nvmem.c:197
     362:	f107 0314 	add.w	r3, r7, #20
     366:	efc0 0010 	vmov.i32	d16, #0	; 0x00000000
     36a:	edc3 0b00 	vstr	d16, [r3]
     36e:	edc3 0b02 	vstr	d16, [r3, #8]
     372:	edc3 0b03 	vstr	d16, [r3, #12]
/home/aom1/Work/Linux/target/STM32MP1-DK2/bootloader/buildroot/optee-os-custom/ta/stm32mp_nvmem/ta_stm32mp_nvmem.c:199
     376:	f107 0328 	add.w	r3, r7, #40	; 0x28
     37a:	4618      	mov	r0, r3
     37c:	f002 fce5 	bl	2d4a <TEE_AllocatePropertyEnumerator>
     380:	62f8      	str	r0, [r7, #44]	; 0x2c
/home/aom1/Work/Linux/target/STM32MP1-DK2/bootloader/buildroot/optee-os-custom/ta/stm32mp_nvmem/ta_stm32mp_nvmem.c:200
     382:	6afb      	ldr	r3, [r7, #44]	; 0x2c
     384:	2b00      	cmp	r3, #0
     386:	d137      	bne.n	3f8 <TA_OpenSessionEntryPoint+0xae>
/home/aom1/Work/Linux/target/STM32MP1-DK2/bootloader/buildroot/optee-os-custom/ta/stm32mp_nvmem/ta_stm32mp_nvmem.c:203
     388:	6abb      	ldr	r3, [r7, #40]	; 0x28
     38a:	f06f 0101 	mvn.w	r1, #1
     38e:	4618      	mov	r0, r3
     390:	f002 fd28 	bl	2de4 <TEE_StartPropertyEnumerator>
/home/aom1/Work/Linux/target/STM32MP1-DK2/bootloader/buildroot/optee-os-custom/ta/stm32mp_nvmem/ta_stm32mp_nvmem.c:205
     394:	6abb      	ldr	r3, [r7, #40]	; 0x28
     396:	f107 0214 	add.w	r2, r7, #20
     39a:	2100      	movs	r1, #0
     39c:	4618      	mov	r0, r3
     39e:	f002 fc94 	bl	2cca <TEE_GetPropertyAsIdentity>
     3a2:	62f8      	str	r0, [r7, #44]	; 0x2c
/home/aom1/Work/Linux/target/STM32MP1-DK2/bootloader/buildroot/optee-os-custom/ta/stm32mp_nvmem/ta_stm32mp_nvmem.c:206
     3a4:	6afb      	ldr	r3, [r7, #44]	; 0x2c
     3a6:	2b00      	cmp	r3, #0
     3a8:	d128      	bne.n	3fc <TA_OpenSessionEntryPoint+0xb2>
/home/aom1/Work/Linux/target/STM32MP1-DK2/bootloader/buildroot/optee-os-custom/ta/stm32mp_nvmem/ta_stm32mp_nvmem.c:209
     3aa:	697b      	ldr	r3, [r7, #20]
     3ac:	f1b3 4f00 	cmp.w	r3, #2147483648	; 0x80000000
     3b0:	d104      	bne.n	3bc <TA_OpenSessionEntryPoint+0x72>
/home/aom1/Work/Linux/target/STM32MP1-DK2/bootloader/buildroot/optee-os-custom/ta/stm32mp_nvmem/ta_stm32mp_nvmem.c:210
     3b2:	2301      	movs	r3, #1
     3b4:	f6cf 73ff 	movt	r3, #65535	; 0xffff
     3b8:	62fb      	str	r3, [r7, #44]	; 0x2c
/home/aom1/Work/Linux/target/STM32MP1-DK2/bootloader/buildroot/optee-os-custom/ta/stm32mp_nvmem/ta_stm32mp_nvmem.c:211
     3ba:	e022      	b.n	402 <TA_OpenSessionEntryPoint+0xb8>
/home/aom1/Work/Linux/target/STM32MP1-DK2/bootloader/buildroot/optee-os-custom/ta/stm32mp_nvmem/ta_stm32mp_nvmem.c:214
     3bc:	4b17      	ldr	r3, [pc, #92]	; (41c <TA_OpenSessionEntryPoint+0xd2>)
     3be:	447b      	add	r3, pc
     3c0:	681b      	ldr	r3, [r3, #0]
     3c2:	2b00      	cmp	r3, #0
     3c4:	d110      	bne.n	3e8 <TA_OpenSessionEntryPoint+0x9e>
/home/aom1/Work/Linux/target/STM32MP1-DK2/bootloader/buildroot/optee-os-custom/ta/stm32mp_nvmem/ta_stm32mp_nvmem.c:215
     3c6:	2300      	movs	r3, #0
     3c8:	9301      	str	r3, [sp, #4]
     3ca:	4b15      	ldr	r3, [pc, #84]	; (420 <TA_OpenSessionEntryPoint+0xd6>)
     3cc:	447b      	add	r3, pc
     3ce:	9300      	str	r3, [sp, #0]
     3d0:	2300      	movs	r3, #0
     3d2:	2200      	movs	r2, #0
     3d4:	f04f 31ff 	mov.w	r1, #4294967295	; 0xffffffff
     3d8:	4812      	ldr	r0, [pc, #72]	; (424 <TA_OpenSessionEntryPoint+0xda>)
     3da:	4478      	add	r0, pc
     3dc:	f001 fcfb 	bl	1dd6 <TEE_OpenTASession>
     3e0:	62f8      	str	r0, [r7, #44]	; 0x2c
/home/aom1/Work/Linux/target/STM32MP1-DK2/bootloader/buildroot/optee-os-custom/ta/stm32mp_nvmem/ta_stm32mp_nvmem.c:217
     3e2:	6afb      	ldr	r3, [r7, #44]	; 0x2c
     3e4:	2b00      	cmp	r3, #0
     3e6:	d10b      	bne.n	400 <TA_OpenSessionEntryPoint+0xb6>
/home/aom1/Work/Linux/target/STM32MP1-DK2/bootloader/buildroot/optee-os-custom/ta/stm32mp_nvmem/ta_stm32mp_nvmem.c:221
     3e8:	4b0f      	ldr	r3, [pc, #60]	; (428 <TA_OpenSessionEntryPoint+0xde>)
     3ea:	447b      	add	r3, pc
     3ec:	681b      	ldr	r3, [r3, #0]
     3ee:	1c5a      	adds	r2, r3, #1
     3f0:	4b0e      	ldr	r3, [pc, #56]	; (42c <TA_OpenSessionEntryPoint+0xe2>)
     3f2:	447b      	add	r3, pc
     3f4:	601a      	str	r2, [r3, #0]
     3f6:	e004      	b.n	402 <TA_OpenSessionEntryPoint+0xb8>
/home/aom1/Work/Linux/target/STM32MP1-DK2/bootloader/buildroot/optee-os-custom/ta/stm32mp_nvmem/ta_stm32mp_nvmem.c:201
     3f8:	bf00      	nop
     3fa:	e002      	b.n	402 <TA_OpenSessionEntryPoint+0xb8>
/home/aom1/Work/Linux/target/STM32MP1-DK2/bootloader/buildroot/optee-os-custom/ta/stm32mp_nvmem/ta_stm32mp_nvmem.c:207
     3fc:	bf00      	nop
     3fe:	e000      	b.n	402 <TA_OpenSessionEntryPoint+0xb8>
/home/aom1/Work/Linux/target/STM32MP1-DK2/bootloader/buildroot/optee-os-custom/ta/stm32mp_nvmem/ta_stm32mp_nvmem.c:218
     400:	bf00      	nop
/home/aom1/Work/Linux/target/STM32MP1-DK2/bootloader/buildroot/optee-os-custom/ta/stm32mp_nvmem/ta_stm32mp_nvmem.c:224
     402:	6abb      	ldr	r3, [r7, #40]	; 0x28
     404:	2b00      	cmp	r3, #0
     406:	d003      	beq.n	410 <TA_OpenSessionEntryPoint+0xc6>
/home/aom1/Work/Linux/target/STM32MP1-DK2/bootloader/buildroot/optee-os-custom/ta/stm32mp_nvmem/ta_stm32mp_nvmem.c:225
     408:	6abb      	ldr	r3, [r7, #40]	; 0x28
     40a:	4618      	mov	r0, r3
     40c:	f002 fcdd 	bl	2dca <TEE_FreePropertyEnumerator>
/home/aom1/Work/Linux/target/STM32MP1-DK2/bootloader/buildroot/optee-os-custom/ta/stm32mp_nvmem/ta_stm32mp_nvmem.c:227
     410:	6afb      	ldr	r3, [r7, #44]	; 0x2c
/home/aom1/Work/Linux/target/STM32MP1-DK2/bootloader/buildroot/optee-os-custom/ta/stm32mp_nvmem/ta_stm32mp_nvmem.c:228
     412:	4618      	mov	r0, r3
     414:	3730      	adds	r7, #48	; 0x30
     416:	46bd      	mov	sp, r7
     418:	bd80      	pop	{r7, pc}
     41a:	bf00      	nop
     41c:	0000ff7e 	.word	0x0000ff7e
     420:	0000ff74 	.word	0x0000ff74
     424:	0000db66 	.word	0x0000db66
     428:	0000ff52 	.word	0x0000ff52
     42c:	0000ff4a 	.word	0x0000ff4a

00000430 <TA_CloseSessionEntryPoint>:
TA_CloseSessionEntryPoint():
/home/aom1/Work/Linux/target/STM32MP1-DK2/bootloader/buildroot/optee-os-custom/ta/stm32mp_nvmem/ta_stm32mp_nvmem.c:231
     430:	b580      	push	{r7, lr}
     432:	b082      	sub	sp, #8
     434:	af00      	add	r7, sp, #0
     436:	6078      	str	r0, [r7, #4]
/home/aom1/Work/Linux/target/STM32MP1-DK2/bootloader/buildroot/optee-os-custom/ta/stm32mp_nvmem/ta_stm32mp_nvmem.c:232
     438:	4b0a      	ldr	r3, [pc, #40]	; (464 <TA_CloseSessionEntryPoint+0x34>)
     43a:	447b      	add	r3, pc
     43c:	681b      	ldr	r3, [r3, #0]
     43e:	1e5a      	subs	r2, r3, #1
     440:	4b09      	ldr	r3, [pc, #36]	; (468 <TA_CloseSessionEntryPoint+0x38>)
     442:	447b      	add	r3, pc
     444:	601a      	str	r2, [r3, #0]
/home/aom1/Work/Linux/target/STM32MP1-DK2/bootloader/buildroot/optee-os-custom/ta/stm32mp_nvmem/ta_stm32mp_nvmem.c:234
     446:	4b09      	ldr	r3, [pc, #36]	; (46c <TA_CloseSessionEntryPoint+0x3c>)
     448:	447b      	add	r3, pc
     44a:	681b      	ldr	r3, [r3, #0]
     44c:	2b00      	cmp	r3, #0
     44e:	d105      	bne.n	45c <TA_CloseSessionEntryPoint+0x2c>
/home/aom1/Work/Linux/target/STM32MP1-DK2/bootloader/buildroot/optee-os-custom/ta/stm32mp_nvmem/ta_stm32mp_nvmem.c:235
     450:	4b07      	ldr	r3, [pc, #28]	; (470 <TA_CloseSessionEntryPoint+0x40>)
     452:	447b      	add	r3, pc
     454:	681b      	ldr	r3, [r3, #0]
     456:	4618      	mov	r0, r3
     458:	f001 fd2b 	bl	1eb2 <TEE_CloseTASession>
/home/aom1/Work/Linux/target/STM32MP1-DK2/bootloader/buildroot/optee-os-custom/ta/stm32mp_nvmem/ta_stm32mp_nvmem.c:236
     45c:	bf00      	nop
     45e:	3708      	adds	r7, #8
     460:	46bd      	mov	sp, r7
     462:	bd80      	pop	{r7, pc}
     464:	0000ff02 	.word	0x0000ff02
     468:	0000fefa 	.word	0x0000fefa
     46c:	0000fef4 	.word	0x0000fef4
     470:	0000feee 	.word	0x0000feee

00000474 <TA_InvokeCommandEntryPoint>:
TA_InvokeCommandEntryPoint():
/home/aom1/Work/Linux/target/STM32MP1-DK2/bootloader/buildroot/optee-os-custom/ta/stm32mp_nvmem/ta_stm32mp_nvmem.c:241
     474:	b580      	push	{r7, lr}
     476:	b086      	sub	sp, #24
     478:	af02      	add	r7, sp, #8
     47a:	60f8      	str	r0, [r7, #12]
     47c:	60b9      	str	r1, [r7, #8]
     47e:	607a      	str	r2, [r7, #4]
     480:	603b      	str	r3, [r7, #0]
/home/aom1/Work/Linux/target/STM32MP1-DK2/bootloader/buildroot/optee-os-custom/ta/stm32mp_nvmem/ta_stm32mp_nvmem.c:242
     482:	68bb      	ldr	r3, [r7, #8]
     484:	2b00      	cmp	r3, #0
     486:	d003      	beq.n	490 <TA_InvokeCommandEntryPoint+0x1c>
     488:	68bb      	ldr	r3, [r7, #8]
     48a:	2b01      	cmp	r3, #1
     48c:	d006      	beq.n	49c <TA_InvokeCommandEntryPoint+0x28>
     48e:	e00b      	b.n	4a8 <TA_InvokeCommandEntryPoint+0x34>
/home/aom1/Work/Linux/target/STM32MP1-DK2/bootloader/buildroot/optee-os-custom/ta/stm32mp_nvmem/ta_stm32mp_nvmem.c:244
     490:	6839      	ldr	r1, [r7, #0]
     492:	6878      	ldr	r0, [r7, #4]
     494:	f7ff fdfc 	bl	90 <nvmem_read>
     498:	4603      	mov	r3, r0
     49a:	e014      	b.n	4c6 <TA_InvokeCommandEntryPoint+0x52>
/home/aom1/Work/Linux/target/STM32MP1-DK2/bootloader/buildroot/optee-os-custom/ta/stm32mp_nvmem/ta_stm32mp_nvmem.c:246
     49c:	6839      	ldr	r1, [r7, #0]
     49e:	6878      	ldr	r0, [r7, #4]
     4a0:	f7ff fe9a 	bl	1d8 <nvmem_write>
     4a4:	4603      	mov	r3, r0
     4a6:	e00e      	b.n	4c6 <TA_InvokeCommandEntryPoint+0x52>
/home/aom1/Work/Linux/target/STM32MP1-DK2/bootloader/buildroot/optee-os-custom/ta/stm32mp_nvmem/ta_stm32mp_nvmem.c:248
     4a8:	68bb      	ldr	r3, [r7, #8]
     4aa:	9301      	str	r3, [sp, #4]
     4ac:	4b08      	ldr	r3, [pc, #32]	; (4d0 <TA_InvokeCommandEntryPoint+0x5c>)
     4ae:	447b      	add	r3, pc
     4b0:	9300      	str	r3, [sp, #0]
     4b2:	2301      	movs	r3, #1
     4b4:	2201      	movs	r2, #1
     4b6:	21f8      	movs	r1, #248	; 0xf8
     4b8:	4806      	ldr	r0, [pc, #24]	; (4d4 <TA_InvokeCommandEntryPoint+0x60>)
     4ba:	4478      	add	r0, pc
     4bc:	f000 f89e 	bl	5fc <trace_printf>
/home/aom1/Work/Linux/target/STM32MP1-DK2/bootloader/buildroot/optee-os-custom/ta/stm32mp_nvmem/ta_stm32mp_nvmem.c:249
     4c0:	230a      	movs	r3, #10
     4c2:	f6cf 73ff 	movt	r3, #65535	; 0xffff
/home/aom1/Work/Linux/target/STM32MP1-DK2/bootloader/buildroot/optee-os-custom/ta/stm32mp_nvmem/ta_stm32mp_nvmem.c:251
     4c6:	4618      	mov	r0, r3
     4c8:	3710      	adds	r7, #16
     4ca:	46bd      	mov	sp, r7
     4cc:	bd80      	pop	{r7, pc}
     4ce:	bf00      	nop
     4d0:	0000da62 	.word	0x0000da62
     4d4:	0000da96 	.word	0x0000da96

000004d8 <__ta_entry>:
__ta_entry():
/home/aom1/Work/Linux/target/STM32MP1-DK2/bootloader/buildroot/optee-os-custom/out/arm-plat-stm32mp1/export-ta_arm32/src/ta_entry_a32.S:20
     4d8:	fa00344c 	blx	d610 <__ta_entry_c>

000004dc <trace_set_level>:
trace_set_level():
/home/aom1/Work/Linux/target/STM32MP1-DK2/bootloader/buildroot/optee-os-custom/lib/libutils/ext/trace.c:24
     4dc:	b480      	push	{r7}
     4de:	b083      	sub	sp, #12
     4e0:	af00      	add	r7, sp, #0
     4e2:	6078      	str	r0, [r7, #4]
     4e4:	4b0b      	ldr	r3, [pc, #44]	; (514 <trace_set_level+0x38>)
     4e6:	447b      	add	r3, pc
/home/aom1/Work/Linux/target/STM32MP1-DK2/bootloader/buildroot/optee-os-custom/lib/libutils/ext/trace.c:25
     4e8:	687a      	ldr	r2, [r7, #4]
     4ea:	2a00      	cmp	r2, #0
     4ec:	db07      	blt.n	4fe <trace_set_level+0x22>
/home/aom1/Work/Linux/target/STM32MP1-DK2/bootloader/buildroot/optee-os-custom/lib/libutils/ext/trace.c:25 (discriminator 1)
     4ee:	687a      	ldr	r2, [r7, #4]
     4f0:	2a04      	cmp	r2, #4
     4f2:	dc04      	bgt.n	4fe <trace_set_level+0x22>
/home/aom1/Work/Linux/target/STM32MP1-DK2/bootloader/buildroot/optee-os-custom/lib/libutils/ext/trace.c:26
     4f4:	4a08      	ldr	r2, [pc, #32]	; (518 <trace_set_level+0x3c>)
     4f6:	589b      	ldr	r3, [r3, r2]
     4f8:	687a      	ldr	r2, [r7, #4]
     4fa:	601a      	str	r2, [r3, #0]
     4fc:	e004      	b.n	508 <trace_set_level+0x2c>
/home/aom1/Work/Linux/target/STM32MP1-DK2/bootloader/buildroot/optee-os-custom/lib/libutils/ext/trace.c:28
     4fe:	4a06      	ldr	r2, [pc, #24]	; (518 <trace_set_level+0x3c>)
     500:	589b      	ldr	r3, [r3, r2]
     502:	2204      	movs	r2, #4
     504:	601a      	str	r2, [r3, #0]
/home/aom1/Work/Linux/target/STM32MP1-DK2/bootloader/buildroot/optee-os-custom/lib/libutils/ext/trace.c:29
     506:	bf00      	nop
     508:	bf00      	nop
     50a:	370c      	adds	r7, #12
     50c:	46bd      	mov	sp, r7
     50e:	f85d 7b04 	ldr.w	r7, [sp], #4
     512:	4770      	bx	lr
     514:	0000fb9e 	.word	0x0000fb9e
     518:	00000014 	.word	0x00000014

0000051c <trace_get_level>:
trace_get_level():
/home/aom1/Work/Linux/target/STM32MP1-DK2/bootloader/buildroot/optee-os-custom/lib/libutils/ext/trace.c:32
     51c:	b480      	push	{r7}
     51e:	af00      	add	r7, sp, #0
     520:	4a04      	ldr	r2, [pc, #16]	; (534 <trace_get_level+0x18>)
     522:	447a      	add	r2, pc
/home/aom1/Work/Linux/target/STM32MP1-DK2/bootloader/buildroot/optee-os-custom/lib/libutils/ext/trace.c:33
     524:	4b04      	ldr	r3, [pc, #16]	; (538 <trace_get_level+0x1c>)
     526:	58d3      	ldr	r3, [r2, r3]
     528:	681b      	ldr	r3, [r3, #0]
/home/aom1/Work/Linux/target/STM32MP1-DK2/bootloader/buildroot/optee-os-custom/lib/libutils/ext/trace.c:34
     52a:	4618      	mov	r0, r3
     52c:	46bd      	mov	sp, r7
     52e:	f85d 7b04 	ldr.w	r7, [sp], #4
     532:	4770      	bx	lr
     534:	0000fb62 	.word	0x0000fb62
     538:	00000014 	.word	0x00000014

0000053c <trace_level_to_string>:
trace_level_to_string():
/home/aom1/Work/Linux/target/STM32MP1-DK2/bootloader/buildroot/optee-os-custom/lib/libutils/ext/trace.c:37
     53c:	b480      	push	{r7}
     53e:	b085      	sub	sp, #20
     540:	af00      	add	r7, sp, #0
     542:	6078      	str	r0, [r7, #4]
     544:	460b      	mov	r3, r1
     546:	70fb      	strb	r3, [r7, #3]
/home/aom1/Work/Linux/target/STM32MP1-DK2/bootloader/buildroot/optee-os-custom/lib/libutils/ext/trace.c:46
     548:	2300      	movs	r3, #0
     54a:	60fb      	str	r3, [r7, #12]
/home/aom1/Work/Linux/target/STM32MP1-DK2/bootloader/buildroot/optee-os-custom/lib/libutils/ext/trace.c:48
     54c:	78fb      	ldrb	r3, [r7, #3]
     54e:	f083 0301 	eor.w	r3, r3, #1
     552:	b2db      	uxtb	r3, r3
     554:	2b00      	cmp	r3, #0
     556:	d001      	beq.n	55c <trace_level_to_string+0x20>
/home/aom1/Work/Linux/target/STM32MP1-DK2/bootloader/buildroot/optee-os-custom/lib/libutils/ext/trace.c:49
     558:	234d      	movs	r3, #77	; 0x4d
     55a:	e00c      	b.n	576 <trace_level_to_string+0x3a>
/home/aom1/Work/Linux/target/STM32MP1-DK2/bootloader/buildroot/optee-os-custom/lib/libutils/ext/trace.c:51
     55c:	687b      	ldr	r3, [r7, #4]
     55e:	2b00      	cmp	r3, #0
     560:	db04      	blt.n	56c <trace_level_to_string+0x30>
/home/aom1/Work/Linux/target/STM32MP1-DK2/bootloader/buildroot/optee-os-custom/lib/libutils/ext/trace.c:51 (discriminator 1)
     562:	687b      	ldr	r3, [r7, #4]
     564:	2b04      	cmp	r3, #4
     566:	dc01      	bgt.n	56c <trace_level_to_string+0x30>
/home/aom1/Work/Linux/target/STM32MP1-DK2/bootloader/buildroot/optee-os-custom/lib/libutils/ext/trace.c:52
     568:	687b      	ldr	r3, [r7, #4]
     56a:	60fb      	str	r3, [r7, #12]
/home/aom1/Work/Linux/target/STM32MP1-DK2/bootloader/buildroot/optee-os-custom/lib/libutils/ext/trace.c:54
     56c:	4a05      	ldr	r2, [pc, #20]	; (584 <trace_level_to_string+0x48>)
     56e:	447a      	add	r2, pc
     570:	68fb      	ldr	r3, [r7, #12]
     572:	4413      	add	r3, r2
     574:	781b      	ldrb	r3, [r3, #0]
/home/aom1/Work/Linux/target/STM32MP1-DK2/bootloader/buildroot/optee-os-custom/lib/libutils/ext/trace.c:55
     576:	4618      	mov	r0, r3
     578:	3714      	adds	r7, #20
     57a:	46bd      	mov	sp, r7
     57c:	f85d 7b04 	ldr.w	r7, [sp], #4
     580:	4770      	bx	lr
     582:	bf00      	nop
     584:	0000daf6 	.word	0x0000daf6

00000588 <print_thread_id>:
print_thread_id():
/home/aom1/Work/Linux/target/STM32MP1-DK2/bootloader/buildroot/optee-os-custom/lib/libutils/ext/trace.c:58
     588:	b580      	push	{r7, lr}
     58a:	b086      	sub	sp, #24
     58c:	af02      	add	r7, sp, #8
     58e:	6078      	str	r0, [r7, #4]
     590:	6039      	str	r1, [r7, #0]
/home/aom1/Work/Linux/target/STM32MP1-DK2/bootloader/buildroot/optee-os-custom/lib/libutils/ext/trace.c:64
     592:	2301      	movs	r3, #1
     594:	60fb      	str	r3, [r7, #12]
/home/aom1/Work/Linux/target/STM32MP1-DK2/bootloader/buildroot/optee-os-custom/lib/libutils/ext/trace.c:66
     596:	f001 fa0b 	bl	19b0 <trace_ext_get_thread_id>
     59a:	60b8      	str	r0, [r7, #8]
/home/aom1/Work/Linux/target/STM32MP1-DK2/bootloader/buildroot/optee-os-custom/lib/libutils/ext/trace.c:68
     59c:	68bb      	ldr	r3, [r7, #8]
     59e:	2b00      	cmp	r3, #0
     5a0:	db0a      	blt.n	5b8 <print_thread_id+0x30>
/home/aom1/Work/Linux/target/STM32MP1-DK2/bootloader/buildroot/optee-os-custom/lib/libutils/ext/trace.c:69
     5a2:	68bb      	ldr	r3, [r7, #8]
     5a4:	9300      	str	r3, [sp, #0]
     5a6:	68fb      	ldr	r3, [r7, #12]
     5a8:	4a0b      	ldr	r2, [pc, #44]	; (5d8 <print_thread_id+0x50>)
     5aa:	447a      	add	r2, pc
     5ac:	6839      	ldr	r1, [r7, #0]
     5ae:	6878      	ldr	r0, [r7, #4]
     5b0:	f000 f9ba 	bl	928 <snprintk>
     5b4:	4603      	mov	r3, r0
     5b6:	e00a      	b.n	5ce <print_thread_id+0x46>
/home/aom1/Work/Linux/target/STM32MP1-DK2/bootloader/buildroot/optee-os-custom/lib/libutils/ext/trace.c:71
     5b8:	4b08      	ldr	r3, [pc, #32]	; (5dc <print_thread_id+0x54>)
     5ba:	447b      	add	r3, pc
     5bc:	9300      	str	r3, [sp, #0]
     5be:	68fb      	ldr	r3, [r7, #12]
     5c0:	4a07      	ldr	r2, [pc, #28]	; (5e0 <print_thread_id+0x58>)
     5c2:	447a      	add	r2, pc
     5c4:	6839      	ldr	r1, [r7, #0]
     5c6:	6878      	ldr	r0, [r7, #4]
     5c8:	f000 f9ae 	bl	928 <snprintk>
     5cc:	4603      	mov	r3, r0
/home/aom1/Work/Linux/target/STM32MP1-DK2/bootloader/buildroot/optee-os-custom/lib/libutils/ext/trace.c:72
     5ce:	4618      	mov	r0, r3
     5d0:	3710      	adds	r7, #16
     5d2:	46bd      	mov	sp, r7
     5d4:	bd80      	pop	{r7, pc}
     5d6:	bf00      	nop
     5d8:	0000da96 	.word	0x0000da96
     5dc:	0000da96 	.word	0x0000da96
     5e0:	0000da86 	.word	0x0000da86

000005e4 <print_core_id>:
print_core_id():
/home/aom1/Work/Linux/target/STM32MP1-DK2/bootloader/buildroot/optee-os-custom/lib/libutils/ext/trace.c:96
     5e4:	b480      	push	{r7}
     5e6:	b083      	sub	sp, #12
     5e8:	af00      	add	r7, sp, #0
     5ea:	6078      	str	r0, [r7, #4]
     5ec:	6039      	str	r1, [r7, #0]
/home/aom1/Work/Linux/target/STM32MP1-DK2/bootloader/buildroot/optee-os-custom/lib/libutils/ext/trace.c:97
     5ee:	2300      	movs	r3, #0
/home/aom1/Work/Linux/target/STM32MP1-DK2/bootloader/buildroot/optee-os-custom/lib/libutils/ext/trace.c:98
     5f0:	4618      	mov	r0, r3
     5f2:	370c      	adds	r7, #12
     5f4:	46bd      	mov	sp, r7
     5f6:	f85d 7b04 	ldr.w	r7, [sp], #4
     5fa:	4770      	bx	lr

000005fc <trace_printf>:
trace_printf():
/home/aom1/Work/Linux/target/STM32MP1-DK2/bootloader/buildroot/optee-os-custom/lib/libutils/ext/trace.c:104
     5fc:	b580      	push	{r7, lr}
     5fe:	b088      	sub	sp, #32
     600:	af02      	add	r7, sp, #8
     602:	60f8      	str	r0, [r7, #12]
     604:	60b9      	str	r1, [r7, #8]
     606:	607a      	str	r2, [r7, #4]
     608:	70fb      	strb	r3, [r7, #3]
/home/aom1/Work/Linux/target/STM32MP1-DK2/bootloader/buildroot/optee-os-custom/lib/libutils/ext/trace.c:107
     60a:	f107 0324 	add.w	r3, r7, #36	; 0x24
     60e:	617b      	str	r3, [r7, #20]
/home/aom1/Work/Linux/target/STM32MP1-DK2/bootloader/buildroot/optee-os-custom/lib/libutils/ext/trace.c:108
     610:	78fa      	ldrb	r2, [r7, #3]
     612:	697b      	ldr	r3, [r7, #20]
     614:	9301      	str	r3, [sp, #4]
     616:	6a3b      	ldr	r3, [r7, #32]
     618:	9300      	str	r3, [sp, #0]
     61a:	4613      	mov	r3, r2
     61c:	687a      	ldr	r2, [r7, #4]
     61e:	68b9      	ldr	r1, [r7, #8]
     620:	68f8      	ldr	r0, [r7, #12]
     622:	f000 f804 	bl	62e <trace_vprintf>
/home/aom1/Work/Linux/target/STM32MP1-DK2/bootloader/buildroot/optee-os-custom/lib/libutils/ext/trace.c:110
     626:	bf00      	nop
     628:	3718      	adds	r7, #24
     62a:	46bd      	mov	sp, r7
     62c:	bd80      	pop	{r7, pc}

0000062e <trace_vprintf>:
trace_vprintf():
/home/aom1/Work/Linux/target/STM32MP1-DK2/bootloader/buildroot/optee-os-custom/lib/libutils/ext/trace.c:113
     62e:	b590      	push	{r4, r7, lr}
     630:	b0c9      	sub	sp, #292	; 0x124
     632:	af02      	add	r7, sp, #8
     634:	f507 748c 	add.w	r4, r7, #280	; 0x118
     638:	f5a4 7486 	sub.w	r4, r4, #268	; 0x10c
     63c:	6020      	str	r0, [r4, #0]
     63e:	f507 708c 	add.w	r0, r7, #280	; 0x118
     642:	f5a0 7088 	sub.w	r0, r0, #272	; 0x110
     646:	6001      	str	r1, [r0, #0]
     648:	f507 718c 	add.w	r1, r7, #280	; 0x118
     64c:	f5a1 718a 	sub.w	r1, r1, #276	; 0x114
     650:	600a      	str	r2, [r1, #0]
     652:	461a      	mov	r2, r3
     654:	f507 738c 	add.w	r3, r7, #280	; 0x118
     658:	f2a3 1315 	subw	r3, r3, #277	; 0x115
     65c:	701a      	strb	r2, [r3, #0]
     65e:	4ca5      	ldr	r4, [pc, #660]	; (8f4 <trace_vprintf+0x2c6>)
     660:	447c      	add	r4, pc
/home/aom1/Work/Linux/target/STM32MP1-DK2/bootloader/buildroot/optee-os-custom/lib/libutils/ext/trace.c:115
     662:	2300      	movs	r3, #0
     664:	f8c7 3114 	str.w	r3, [r7, #276]	; 0x114
/home/aom1/Work/Linux/target/STM32MP1-DK2/bootloader/buildroot/optee-os-custom/lib/libutils/ext/trace.c:118
     668:	f507 738c 	add.w	r3, r7, #280	; 0x118
     66c:	f2a3 1315 	subw	r3, r3, #277	; 0x115
     670:	781b      	ldrb	r3, [r3, #0]
     672:	2b00      	cmp	r3, #0
     674:	d00a      	beq.n	68c <trace_vprintf+0x5e>
/home/aom1/Work/Linux/target/STM32MP1-DK2/bootloader/buildroot/optee-os-custom/lib/libutils/ext/trace.c:118 (discriminator 1)
     676:	4ba0      	ldr	r3, [pc, #640]	; (8f8 <trace_vprintf+0x2ca>)
     678:	58e3      	ldr	r3, [r4, r3]
     67a:	681b      	ldr	r3, [r3, #0]
     67c:	f507 728c 	add.w	r2, r7, #280	; 0x118
     680:	f5a2 728a 	sub.w	r2, r2, #276	; 0x114
     684:	6812      	ldr	r2, [r2, #0]
     686:	429a      	cmp	r2, r3
     688:	f300 8123 	bgt.w	8d2 <trace_vprintf+0x2a4>
/home/aom1/Work/Linux/target/STM32MP1-DK2/bootloader/buildroot/optee-os-custom/lib/libutils/ext/trace.c:123
     68c:	f507 738c 	add.w	r3, r7, #280	; 0x118
     690:	f2a3 1315 	subw	r3, r3, #277	; 0x115
     694:	781a      	ldrb	r2, [r3, #0]
     696:	f507 738c 	add.w	r3, r7, #280	; 0x118
     69a:	f5a3 738a 	sub.w	r3, r3, #276	; 0x114
     69e:	4611      	mov	r1, r2
     6a0:	6818      	ldr	r0, [r3, #0]
     6a2:	f7ff ff4b 	bl	53c <trace_level_to_string>
     6a6:	4603      	mov	r3, r0
/home/aom1/Work/Linux/target/STM32MP1-DK2/bootloader/buildroot/optee-os-custom/lib/libutils/ext/trace.c:122
     6a8:	f107 0010 	add.w	r0, r7, #16
     6ac:	4a93      	ldr	r2, [pc, #588]	; (8fc <trace_vprintf+0x2ce>)
     6ae:	447a      	add	r2, pc
     6b0:	f44f 7180 	mov.w	r1, #256	; 0x100
     6b4:	f000 f938 	bl	928 <snprintk>
     6b8:	f8c7 0110 	str.w	r0, [r7, #272]	; 0x110
/home/aom1/Work/Linux/target/STM32MP1-DK2/bootloader/buildroot/optee-os-custom/lib/libutils/ext/trace.c:124
     6bc:	f8d7 3110 	ldr.w	r3, [r7, #272]	; 0x110
     6c0:	2b00      	cmp	r3, #0
     6c2:	f2c0 8108 	blt.w	8d6 <trace_vprintf+0x2a8>
/home/aom1/Work/Linux/target/STM32MP1-DK2/bootloader/buildroot/optee-os-custom/lib/libutils/ext/trace.c:126
     6c6:	f8d7 3110 	ldr.w	r3, [r7, #272]	; 0x110
     6ca:	f8d7 2114 	ldr.w	r2, [r7, #276]	; 0x114
     6ce:	4413      	add	r3, r2
     6d0:	f8c7 3114 	str.w	r3, [r7, #276]	; 0x114
/home/aom1/Work/Linux/target/STM32MP1-DK2/bootloader/buildroot/optee-os-custom/lib/libutils/ext/trace.c:129
     6d4:	f107 0210 	add.w	r2, r7, #16
     6d8:	f8d7 3114 	ldr.w	r3, [r7, #276]	; 0x114
     6dc:	18d0      	adds	r0, r2, r3
     6de:	f8d7 3114 	ldr.w	r3, [r7, #276]	; 0x114
     6e2:	f5c3 7180 	rsb	r1, r3, #256	; 0x100
     6e6:	4b86      	ldr	r3, [pc, #536]	; (900 <trace_vprintf+0x2d2>)
     6e8:	58e3      	ldr	r3, [r4, r3]
     6ea:	4a86      	ldr	r2, [pc, #536]	; (904 <trace_vprintf+0x2d6>)
     6ec:	447a      	add	r2, pc
     6ee:	f000 f91b 	bl	928 <snprintk>
     6f2:	f8c7 0110 	str.w	r0, [r7, #272]	; 0x110
/home/aom1/Work/Linux/target/STM32MP1-DK2/bootloader/buildroot/optee-os-custom/lib/libutils/ext/trace.c:131
     6f6:	f8d7 3110 	ldr.w	r3, [r7, #272]	; 0x110
     6fa:	2b00      	cmp	r3, #0
     6fc:	f2c0 80ed 	blt.w	8da <trace_vprintf+0x2ac>
/home/aom1/Work/Linux/target/STM32MP1-DK2/bootloader/buildroot/optee-os-custom/lib/libutils/ext/trace.c:133
     700:	f8d7 3110 	ldr.w	r3, [r7, #272]	; 0x110
     704:	f8d7 2114 	ldr.w	r2, [r7, #276]	; 0x114
     708:	4413      	add	r3, r2
     70a:	f8c7 3114 	str.w	r3, [r7, #276]	; 0x114
/home/aom1/Work/Linux/target/STM32MP1-DK2/bootloader/buildroot/optee-os-custom/lib/libutils/ext/trace.c:135
     70e:	f507 738c 	add.w	r3, r7, #280	; 0x118
     712:	f2a3 1315 	subw	r3, r3, #277	; 0x115
     716:	781b      	ldrb	r3, [r3, #0]
     718:	2b00      	cmp	r3, #0
     71a:	d06e      	beq.n	7fa <trace_vprintf+0x1cc>
/home/aom1/Work/Linux/target/STM32MP1-DK2/bootloader/buildroot/optee-os-custom/lib/libutils/ext/trace.c:135 (discriminator 1)
     71c:	f507 738c 	add.w	r3, r7, #280	; 0x118
     720:	f5a3 738a 	sub.w	r3, r3, #276	; 0x114
     724:	221a      	movs	r2, #26
     726:	681b      	ldr	r3, [r3, #0]
     728:	fa22 f303 	lsr.w	r3, r2, r3
     72c:	f003 0301 	and.w	r3, r3, #1
     730:	2b00      	cmp	r3, #0
     732:	d062      	beq.n	7fa <trace_vprintf+0x1cc>
/home/aom1/Work/Linux/target/STM32MP1-DK2/bootloader/buildroot/optee-os-custom/lib/libutils/ext/trace.c:137
     734:	f107 0210 	add.w	r2, r7, #16
     738:	f8d7 3114 	ldr.w	r3, [r7, #276]	; 0x114
     73c:	441a      	add	r2, r3
     73e:	f8d7 3114 	ldr.w	r3, [r7, #276]	; 0x114
     742:	f5c3 7380 	rsb	r3, r3, #256	; 0x100
     746:	4619      	mov	r1, r3
     748:	4610      	mov	r0, r2
     74a:	f7ff ff4b 	bl	5e4 <print_core_id>
     74e:	f8c7 0110 	str.w	r0, [r7, #272]	; 0x110
/home/aom1/Work/Linux/target/STM32MP1-DK2/bootloader/buildroot/optee-os-custom/lib/libutils/ext/trace.c:138
     752:	f8d7 3110 	ldr.w	r3, [r7, #272]	; 0x110
     756:	2b00      	cmp	r3, #0
     758:	f2c0 80c1 	blt.w	8de <trace_vprintf+0x2b0>
/home/aom1/Work/Linux/target/STM32MP1-DK2/bootloader/buildroot/optee-os-custom/lib/libutils/ext/trace.c:140
     75c:	f8d7 3110 	ldr.w	r3, [r7, #272]	; 0x110
     760:	f8d7 2114 	ldr.w	r2, [r7, #276]	; 0x114
     764:	4413      	add	r3, r2
     766:	f8c7 3114 	str.w	r3, [r7, #276]	; 0x114
/home/aom1/Work/Linux/target/STM32MP1-DK2/bootloader/buildroot/optee-os-custom/lib/libutils/ext/trace.c:143
     76a:	f107 0210 	add.w	r2, r7, #16
     76e:	f8d7 3114 	ldr.w	r3, [r7, #276]	; 0x114
     772:	441a      	add	r2, r3
     774:	f8d7 3114 	ldr.w	r3, [r7, #276]	; 0x114
     778:	f5c3 7380 	rsb	r3, r3, #256	; 0x100
     77c:	4619      	mov	r1, r3
     77e:	4610      	mov	r0, r2
     780:	f7ff ff02 	bl	588 <print_thread_id>
     784:	f8c7 0110 	str.w	r0, [r7, #272]	; 0x110
/home/aom1/Work/Linux/target/STM32MP1-DK2/bootloader/buildroot/optee-os-custom/lib/libutils/ext/trace.c:144
     788:	f8d7 3110 	ldr.w	r3, [r7, #272]	; 0x110
     78c:	2b00      	cmp	r3, #0
     78e:	f2c0 80a8 	blt.w	8e2 <trace_vprintf+0x2b4>
/home/aom1/Work/Linux/target/STM32MP1-DK2/bootloader/buildroot/optee-os-custom/lib/libutils/ext/trace.c:146
     792:	f8d7 3110 	ldr.w	r3, [r7, #272]	; 0x110
     796:	f8d7 2114 	ldr.w	r2, [r7, #276]	; 0x114
     79a:	4413      	add	r3, r2
     79c:	f8c7 3114 	str.w	r3, [r7, #276]	; 0x114
/home/aom1/Work/Linux/target/STM32MP1-DK2/bootloader/buildroot/optee-os-custom/lib/libutils/ext/trace.c:148
     7a0:	f507 738c 	add.w	r3, r7, #280	; 0x118
     7a4:	f5a3 7386 	sub.w	r3, r3, #268	; 0x10c
     7a8:	681b      	ldr	r3, [r3, #0]
     7aa:	2b00      	cmp	r3, #0
     7ac:	d03d      	beq.n	82a <trace_vprintf+0x1fc>
/home/aom1/Work/Linux/target/STM32MP1-DK2/bootloader/buildroot/optee-os-custom/lib/libutils/ext/trace.c:149
     7ae:	f107 0210 	add.w	r2, r7, #16
     7b2:	f8d7 3114 	ldr.w	r3, [r7, #276]	; 0x114
     7b6:	18d0      	adds	r0, r2, r3
     7b8:	f8d7 3114 	ldr.w	r3, [r7, #276]	; 0x114
     7bc:	f5c3 7180 	rsb	r1, r3, #256	; 0x100
     7c0:	f507 738c 	add.w	r3, r7, #280	; 0x118
     7c4:	f5a3 7386 	sub.w	r3, r3, #268	; 0x10c
     7c8:	f507 728c 	add.w	r2, r7, #280	; 0x118
     7cc:	f5a2 7288 	sub.w	r2, r2, #272	; 0x110
     7d0:	6812      	ldr	r2, [r2, #0]
     7d2:	9200      	str	r2, [sp, #0]
     7d4:	681b      	ldr	r3, [r3, #0]
     7d6:	4a4c      	ldr	r2, [pc, #304]	; (908 <trace_vprintf+0x2da>)
     7d8:	447a      	add	r2, pc
     7da:	f000 f8a5 	bl	928 <snprintk>
     7de:	f8c7 0110 	str.w	r0, [r7, #272]	; 0x110
/home/aom1/Work/Linux/target/STM32MP1-DK2/bootloader/buildroot/optee-os-custom/lib/libutils/ext/trace.c:151
     7e2:	f8d7 3110 	ldr.w	r3, [r7, #272]	; 0x110
     7e6:	2b00      	cmp	r3, #0
     7e8:	db7d      	blt.n	8e6 <trace_vprintf+0x2b8>
/home/aom1/Work/Linux/target/STM32MP1-DK2/bootloader/buildroot/optee-os-custom/lib/libutils/ext/trace.c:153
     7ea:	f8d7 3110 	ldr.w	r3, [r7, #272]	; 0x110
     7ee:	f8d7 2114 	ldr.w	r2, [r7, #276]	; 0x114
     7f2:	4413      	add	r3, r2
     7f4:	f8c7 3114 	str.w	r3, [r7, #276]	; 0x114
/home/aom1/Work/Linux/target/STM32MP1-DK2/bootloader/buildroot/optee-os-custom/lib/libutils/ext/trace.c:148
     7f8:	e017      	b.n	82a <trace_vprintf+0x1fc>
/home/aom1/Work/Linux/target/STM32MP1-DK2/bootloader/buildroot/optee-os-custom/lib/libutils/ext/trace.c:157
     7fa:	f8d7 3114 	ldr.w	r3, [r7, #276]	; 0x114
     7fe:	2bfe      	cmp	r3, #254	; 0xfe
     800:	d873      	bhi.n	8ea <trace_vprintf+0x2bc>
/home/aom1/Work/Linux/target/STM32MP1-DK2/bootloader/buildroot/optee-os-custom/lib/libutils/ext/trace.c:159
     802:	f8d7 3114 	ldr.w	r3, [r7, #276]	; 0x114
     806:	1c5a      	adds	r2, r3, #1
     808:	f8c7 2114 	str.w	r2, [r7, #276]	; 0x114
     80c:	f507 728c 	add.w	r2, r7, #280	; 0x118
     810:	f5a2 7284 	sub.w	r2, r2, #264	; 0x108
     814:	2120      	movs	r1, #32
     816:	54d1      	strb	r1, [r2, r3]
/home/aom1/Work/Linux/target/STM32MP1-DK2/bootloader/buildroot/optee-os-custom/lib/libutils/ext/trace.c:160
     818:	f507 738c 	add.w	r3, r7, #280	; 0x118
     81c:	f5a3 7284 	sub.w	r2, r3, #264	; 0x108
     820:	f8d7 3114 	ldr.w	r3, [r7, #276]	; 0x114
     824:	4413      	add	r3, r2
     826:	2200      	movs	r2, #0
     828:	701a      	strb	r2, [r3, #0]
/home/aom1/Work/Linux/target/STM32MP1-DK2/bootloader/buildroot/optee-os-custom/lib/libutils/ext/trace.c:163
     82a:	f107 0210 	add.w	r2, r7, #16
     82e:	f8d7 3114 	ldr.w	r3, [r7, #276]	; 0x114
     832:	18d0      	adds	r0, r2, r3
     834:	f8d7 3114 	ldr.w	r3, [r7, #276]	; 0x114
     838:	f5c3 7180 	rsb	r1, r3, #256	; 0x100
     83c:	f8d7 312c 	ldr.w	r3, [r7, #300]	; 0x12c
     840:	f8d7 2128 	ldr.w	r2, [r7, #296]	; 0x128
     844:	f000 f888 	bl	958 <vsnprintk>
     848:	f8c7 0110 	str.w	r0, [r7, #272]	; 0x110
/home/aom1/Work/Linux/target/STM32MP1-DK2/bootloader/buildroot/optee-os-custom/lib/libutils/ext/trace.c:164
     84c:	f8d7 3110 	ldr.w	r3, [r7, #272]	; 0x110
     850:	2b00      	cmp	r3, #0
     852:	dd06      	ble.n	862 <trace_vprintf+0x234>
/home/aom1/Work/Linux/target/STM32MP1-DK2/bootloader/buildroot/optee-os-custom/lib/libutils/ext/trace.c:165
     854:	f8d7 3110 	ldr.w	r3, [r7, #272]	; 0x110
     858:	f8d7 2114 	ldr.w	r2, [r7, #276]	; 0x114
     85c:	4413      	add	r3, r2
     85e:	f8c7 3114 	str.w	r3, [r7, #276]	; 0x114
/home/aom1/Work/Linux/target/STM32MP1-DK2/bootloader/buildroot/optee-os-custom/lib/libutils/ext/trace.c:167
     862:	f8d7 3114 	ldr.w	r3, [r7, #276]	; 0x114
     866:	2bfe      	cmp	r3, #254	; 0xfe
     868:	d902      	bls.n	870 <trace_vprintf+0x242>
/home/aom1/Work/Linux/target/STM32MP1-DK2/bootloader/buildroot/optee-os-custom/lib/libutils/ext/trace.c:168
     86a:	23fe      	movs	r3, #254	; 0xfe
     86c:	f8c7 3114 	str.w	r3, [r7, #276]	; 0x114
/home/aom1/Work/Linux/target/STM32MP1-DK2/bootloader/buildroot/optee-os-custom/lib/libutils/ext/trace.c:170
     870:	f507 738c 	add.w	r3, r7, #280	; 0x118
     874:	f5a3 7284 	sub.w	r2, r3, #264	; 0x108
     878:	f8d7 3114 	ldr.w	r3, [r7, #276]	; 0x114
     87c:	4413      	add	r3, r2
     87e:	220a      	movs	r2, #10
     880:	701a      	strb	r2, [r3, #0]
/home/aom1/Work/Linux/target/STM32MP1-DK2/bootloader/buildroot/optee-os-custom/lib/libutils/ext/trace.c:171
     882:	e004      	b.n	88e <trace_vprintf+0x260>
/home/aom1/Work/Linux/target/STM32MP1-DK2/bootloader/buildroot/optee-os-custom/lib/libutils/ext/trace.c:172
     884:	f8d7 3114 	ldr.w	r3, [r7, #276]	; 0x114
     888:	3b01      	subs	r3, #1
     88a:	f8c7 3114 	str.w	r3, [r7, #276]	; 0x114
/home/aom1/Work/Linux/target/STM32MP1-DK2/bootloader/buildroot/optee-os-custom/lib/libutils/ext/trace.c:171
     88e:	f8d7 3114 	ldr.w	r3, [r7, #276]	; 0x114
     892:	2b00      	cmp	r3, #0
     894:	d009      	beq.n	8aa <trace_vprintf+0x27c>
/home/aom1/Work/Linux/target/STM32MP1-DK2/bootloader/buildroot/optee-os-custom/lib/libutils/ext/trace.c:171 (discriminator 1)
     896:	f507 738c 	add.w	r3, r7, #280	; 0x118
     89a:	f5a3 7284 	sub.w	r2, r3, #264	; 0x108
     89e:	f8d7 3114 	ldr.w	r3, [r7, #276]	; 0x114
     8a2:	4413      	add	r3, r2
     8a4:	781b      	ldrb	r3, [r3, #0]
     8a6:	2b0a      	cmp	r3, #10
     8a8:	d0ec      	beq.n	884 <trace_vprintf+0x256>
/home/aom1/Work/Linux/target/STM32MP1-DK2/bootloader/buildroot/optee-os-custom/lib/libutils/ext/trace.c:173
     8aa:	f8d7 3114 	ldr.w	r3, [r7, #276]	; 0x114
     8ae:	3301      	adds	r3, #1
     8b0:	f8c7 3114 	str.w	r3, [r7, #276]	; 0x114
/home/aom1/Work/Linux/target/STM32MP1-DK2/bootloader/buildroot/optee-os-custom/lib/libutils/ext/trace.c:174
     8b4:	f8d7 3114 	ldr.w	r3, [r7, #276]	; 0x114
     8b8:	3301      	adds	r3, #1
     8ba:	f507 728c 	add.w	r2, r7, #280	; 0x118
     8be:	f5a2 7284 	sub.w	r2, r2, #264	; 0x108
     8c2:	2100      	movs	r1, #0
     8c4:	54d1      	strb	r1, [r2, r3]
/home/aom1/Work/Linux/target/STM32MP1-DK2/bootloader/buildroot/optee-os-custom/lib/libutils/ext/trace.c:176
     8c6:	f107 0310 	add.w	r3, r7, #16
     8ca:	4618      	mov	r0, r3
     8cc:	f001 f860 	bl	1990 <trace_ext_puts>
     8d0:	e00c      	b.n	8ec <trace_vprintf+0x2be>
/home/aom1/Work/Linux/target/STM32MP1-DK2/bootloader/buildroot/optee-os-custom/lib/libutils/ext/trace.c:119
     8d2:	bf00      	nop
     8d4:	e00a      	b.n	8ec <trace_vprintf+0x2be>
/home/aom1/Work/Linux/target/STM32MP1-DK2/bootloader/buildroot/optee-os-custom/lib/libutils/ext/trace.c:125
     8d6:	bf00      	nop
     8d8:	e008      	b.n	8ec <trace_vprintf+0x2be>
/home/aom1/Work/Linux/target/STM32MP1-DK2/bootloader/buildroot/optee-os-custom/lib/libutils/ext/trace.c:132
     8da:	bf00      	nop
     8dc:	e006      	b.n	8ec <trace_vprintf+0x2be>
/home/aom1/Work/Linux/target/STM32MP1-DK2/bootloader/buildroot/optee-os-custom/lib/libutils/ext/trace.c:139
     8de:	bf00      	nop
     8e0:	e004      	b.n	8ec <trace_vprintf+0x2be>
/home/aom1/Work/Linux/target/STM32MP1-DK2/bootloader/buildroot/optee-os-custom/lib/libutils/ext/trace.c:145
     8e2:	bf00      	nop
     8e4:	e002      	b.n	8ec <trace_vprintf+0x2be>
/home/aom1/Work/Linux/target/STM32MP1-DK2/bootloader/buildroot/optee-os-custom/lib/libutils/ext/trace.c:152
     8e6:	bf00      	nop
     8e8:	e000      	b.n	8ec <trace_vprintf+0x2be>
/home/aom1/Work/Linux/target/STM32MP1-DK2/bootloader/buildroot/optee-os-custom/lib/libutils/ext/trace.c:158
     8ea:	bf00      	nop
/home/aom1/Work/Linux/target/STM32MP1-DK2/bootloader/buildroot/optee-os-custom/lib/libutils/ext/trace.c:177
     8ec:	f507 778e 	add.w	r7, r7, #284	; 0x11c
     8f0:	46bd      	mov	sp, r7
     8f2:	bd90      	pop	{r4, r7, pc}
     8f4:	0000fa24 	.word	0x0000fa24
     8f8:	00000014 	.word	0x00000014
     8fc:	0000d9a6 	.word	0x0000d9a6
     900:	0000001c 	.word	0x0000001c
     904:	0000d96c 	.word	0x0000d96c
     908:	0000d884 	.word	0x0000d884

0000090c <dhex_dump>:
dhex_dump():
/home/aom1/Work/Linux/target/STM32MP1-DK2/bootloader/buildroot/optee-os-custom/lib/libutils/ext/trace.c:286
     90c:	b480      	push	{r7}
     90e:	b085      	sub	sp, #20
     910:	af00      	add	r7, sp, #0
     912:	60f8      	str	r0, [r7, #12]
     914:	60b9      	str	r1, [r7, #8]
     916:	607a      	str	r2, [r7, #4]
     918:	603b      	str	r3, [r7, #0]
/home/aom1/Work/Linux/target/STM32MP1-DK2/bootloader/buildroot/optee-os-custom/lib/libutils/ext/trace.c:287
     91a:	bf00      	nop
     91c:	3714      	adds	r7, #20
     91e:	46bd      	mov	sp, r7
     920:	f85d 7b04 	ldr.w	r7, [sp], #4
     924:	4770      	bx	lr
     926:	bf00      	nop

00000928 <snprintk>:
snprintk():
/home/aom1/Work/Linux/target/STM32MP1-DK2/bootloader/buildroot/optee-os-custom/lib/libutils/ext/snprintk.c:113
     928:	b40c      	push	{r2, r3}
     92a:	b580      	push	{r7, lr}
     92c:	b084      	sub	sp, #16
     92e:	af00      	add	r7, sp, #0
     930:	6078      	str	r0, [r7, #4]
     932:	6039      	str	r1, [r7, #0]
/home/aom1/Work/Linux/target/STM32MP1-DK2/bootloader/buildroot/optee-os-custom/lib/libutils/ext/snprintk.c:117
     934:	f107 031c 	add.w	r3, r7, #28
     938:	60bb      	str	r3, [r7, #8]
/home/aom1/Work/Linux/target/STM32MP1-DK2/bootloader/buildroot/optee-os-custom/lib/libutils/ext/snprintk.c:118
     93a:	68bb      	ldr	r3, [r7, #8]
     93c:	69ba      	ldr	r2, [r7, #24]
     93e:	6839      	ldr	r1, [r7, #0]
     940:	6878      	ldr	r0, [r7, #4]
     942:	f000 f809 	bl	958 <vsnprintk>
     946:	60f8      	str	r0, [r7, #12]
/home/aom1/Work/Linux/target/STM32MP1-DK2/bootloader/buildroot/optee-os-custom/lib/libutils/ext/snprintk.c:121
     948:	68fb      	ldr	r3, [r7, #12]
/home/aom1/Work/Linux/target/STM32MP1-DK2/bootloader/buildroot/optee-os-custom/lib/libutils/ext/snprintk.c:122
     94a:	4618      	mov	r0, r3
     94c:	3710      	adds	r7, #16
     94e:	46bd      	mov	sp, r7
     950:	e8bd 4080 	ldmia.w	sp!, {r7, lr}
     954:	b002      	add	sp, #8
     956:	4770      	bx	lr

00000958 <vsnprintk>:
vsnprintk():
/home/aom1/Work/Linux/target/STM32MP1-DK2/bootloader/buildroot/optee-os-custom/lib/libutils/ext/snprintk.c:130
     958:	b580      	push	{r7, lr}
     95a:	b086      	sub	sp, #24
     95c:	af02      	add	r7, sp, #8
     95e:	60f8      	str	r0, [r7, #12]
     960:	60b9      	str	r1, [r7, #8]
     962:	607a      	str	r2, [r7, #4]
     964:	603b      	str	r3, [r7, #0]
/home/aom1/Work/Linux/target/STM32MP1-DK2/bootloader/buildroot/optee-os-custom/lib/libutils/ext/snprintk.c:131
     966:	2301      	movs	r3, #1
     968:	9300      	str	r3, [sp, #0]
     96a:	683b      	ldr	r3, [r7, #0]
     96c:	687a      	ldr	r2, [r7, #4]
     96e:	68b9      	ldr	r1, [r7, #8]
     970:	68f8      	ldr	r0, [r7, #12]
     972:	f000 f805 	bl	980 <__vsnprintf>
     976:	4603      	mov	r3, r0
/home/aom1/Work/Linux/target/STM32MP1-DK2/bootloader/buildroot/optee-os-custom/lib/libutils/ext/snprintk.c:132
     978:	4618      	mov	r0, r3
     97a:	3710      	adds	r7, #16
     97c:	46bd      	mov	sp, r7
     97e:	bd80      	pop	{r7, pc}

00000980 <__vsnprintf>:
__vsnprintf():
/home/aom1/Work/Linux/target/STM32MP1-DK2/bootloader/buildroot/optee-os-custom/lib/libutils/ext/snprintk.c:138
     980:	b580      	push	{r7, lr}
     982:	b088      	sub	sp, #32
     984:	af02      	add	r7, sp, #8
     986:	60f8      	str	r0, [r7, #12]
     988:	60b9      	str	r1, [r7, #8]
     98a:	607a      	str	r2, [r7, #4]
     98c:	603b      	str	r3, [r7, #0]
/home/aom1/Work/Linux/target/STM32MP1-DK2/bootloader/buildroot/optee-os-custom/lib/libutils/ext/snprintk.c:142
     98e:	68fa      	ldr	r2, [r7, #12]
     990:	68bb      	ldr	r3, [r7, #8]
     992:	4413      	add	r3, r2
     994:	613b      	str	r3, [r7, #16]
/home/aom1/Work/Linux/target/STM32MP1-DK2/bootloader/buildroot/optee-os-custom/lib/libutils/ext/snprintk.c:143
     996:	f107 0210 	add.w	r2, r7, #16
     99a:	f897 3020 	ldrb.w	r3, [r7, #32]
     99e:	9301      	str	r3, [sp, #4]
     9a0:	683b      	ldr	r3, [r7, #0]
     9a2:	9300      	str	r3, [sp, #0]
     9a4:	68fb      	ldr	r3, [r7, #12]
     9a6:	2108      	movs	r1, #8
     9a8:	6878      	ldr	r0, [r7, #4]
     9aa:	f000 f875 	bl	a98 <kprintf>
     9ae:	6178      	str	r0, [r7, #20]
/home/aom1/Work/Linux/target/STM32MP1-DK2/bootloader/buildroot/optee-os-custom/lib/libutils/ext/snprintk.c:144
     9b0:	68fb      	ldr	r3, [r7, #12]
     9b2:	2b00      	cmp	r3, #0
     9b4:	d012      	beq.n	9dc <__vsnprintf+0x5c>
/home/aom1/Work/Linux/target/STM32MP1-DK2/bootloader/buildroot/optee-os-custom/lib/libutils/ext/snprintk.c:144 (discriminator 1)
     9b6:	68bb      	ldr	r3, [r7, #8]
     9b8:	2b00      	cmp	r3, #0
     9ba:	d00f      	beq.n	9dc <__vsnprintf+0x5c>
/home/aom1/Work/Linux/target/STM32MP1-DK2/bootloader/buildroot/optee-os-custom/lib/libutils/ext/snprintk.c:146
     9bc:	697b      	ldr	r3, [r7, #20]
     9be:	68ba      	ldr	r2, [r7, #8]
     9c0:	429a      	cmp	r2, r3
     9c2:	d806      	bhi.n	9d2 <__vsnprintf+0x52>
/home/aom1/Work/Linux/target/STM32MP1-DK2/bootloader/buildroot/optee-os-custom/lib/libutils/ext/snprintk.c:147
     9c4:	68bb      	ldr	r3, [r7, #8]
     9c6:	3b01      	subs	r3, #1
     9c8:	68fa      	ldr	r2, [r7, #12]
     9ca:	4413      	add	r3, r2
     9cc:	2200      	movs	r2, #0
     9ce:	701a      	strb	r2, [r3, #0]
     9d0:	e004      	b.n	9dc <__vsnprintf+0x5c>
/home/aom1/Work/Linux/target/STM32MP1-DK2/bootloader/buildroot/optee-os-custom/lib/libutils/ext/snprintk.c:149
     9d2:	697b      	ldr	r3, [r7, #20]
     9d4:	68fa      	ldr	r2, [r7, #12]
     9d6:	4413      	add	r3, r2
     9d8:	2200      	movs	r2, #0
     9da:	701a      	strb	r2, [r3, #0]
/home/aom1/Work/Linux/target/STM32MP1-DK2/bootloader/buildroot/optee-os-custom/lib/libutils/ext/snprintk.c:151
     9dc:	697b      	ldr	r3, [r7, #20]
/home/aom1/Work/Linux/target/STM32MP1-DK2/bootloader/buildroot/optee-os-custom/lib/libutils/ext/snprintk.c:152
     9de:	4618      	mov	r0, r3
     9e0:	3718      	adds	r7, #24
     9e2:	46bd      	mov	sp, r7
     9e4:	bd80      	pop	{r7, pc}

000009e6 <__vsprintf>:
__vsprintf():
/home/aom1/Work/Linux/target/STM32MP1-DK2/bootloader/buildroot/optee-os-custom/lib/libutils/ext/snprintk.c:155
     9e6:	b580      	push	{r7, lr}
     9e8:	b086      	sub	sp, #24
     9ea:	af02      	add	r7, sp, #8
     9ec:	60f8      	str	r0, [r7, #12]
     9ee:	60b9      	str	r1, [r7, #8]
     9f0:	607a      	str	r2, [r7, #4]
/home/aom1/Work/Linux/target/STM32MP1-DK2/bootloader/buildroot/optee-os-custom/lib/libutils/ext/snprintk.c:156
     9f2:	2300      	movs	r3, #0
     9f4:	9301      	str	r3, [sp, #4]
     9f6:	687b      	ldr	r3, [r7, #4]
     9f8:	9300      	str	r3, [sp, #0]
     9fa:	68fb      	ldr	r3, [r7, #12]
     9fc:	2200      	movs	r2, #0
     9fe:	2108      	movs	r1, #8
     a00:	68b8      	ldr	r0, [r7, #8]
     a02:	f000 f849 	bl	a98 <kprintf>
     a06:	4603      	mov	r3, r0
/home/aom1/Work/Linux/target/STM32MP1-DK2/bootloader/buildroot/optee-os-custom/lib/libutils/ext/snprintk.c:157
     a08:	4618      	mov	r0, r3
     a0a:	3710      	adds	r7, #16
     a0c:	46bd      	mov	sp, r7
     a0e:	bd80      	pop	{r7, pc}

00000a10 <uuid2str>:
uuid2str():
/home/aom1/Work/Linux/target/STM32MP1-DK2/bootloader/buildroot/optee-os-custom/lib/libutils/ext/snprintk.c:221
     a10:	b5f0      	push	{r4, r5, r6, r7, lr}
     a12:	b095      	sub	sp, #84	; 0x54
     a14:	af0a      	add	r7, sp, #40	; 0x28
     a16:	61f8      	str	r0, [r7, #28]
     a18:	61b9      	str	r1, [r7, #24]
     a1a:	617a      	str	r2, [r7, #20]
/home/aom1/Work/Linux/target/STM32MP1-DK2/bootloader/buildroot/optee-os-custom/lib/libutils/ext/snprintk.c:227
     a1c:	697b      	ldr	r3, [r7, #20]
     a1e:	627b      	str	r3, [r7, #36]	; 0x24
/home/aom1/Work/Linux/target/STM32MP1-DK2/bootloader/buildroot/optee-os-custom/lib/libutils/ext/snprintk.c:229
     a20:	6a7b      	ldr	r3, [r7, #36]	; 0x24
     a22:	681a      	ldr	r2, [r3, #0]
/home/aom1/Work/Linux/target/STM32MP1-DK2/bootloader/buildroot/optee-os-custom/lib/libutils/ext/snprintk.c:231
     a24:	6a7b      	ldr	r3, [r7, #36]	; 0x24
     a26:	889b      	ldrh	r3, [r3, #4]
/home/aom1/Work/Linux/target/STM32MP1-DK2/bootloader/buildroot/optee-os-custom/lib/libutils/ext/snprintk.c:229
     a28:	4619      	mov	r1, r3
/home/aom1/Work/Linux/target/STM32MP1-DK2/bootloader/buildroot/optee-os-custom/lib/libutils/ext/snprintk.c:231
     a2a:	6a7b      	ldr	r3, [r7, #36]	; 0x24
     a2c:	88db      	ldrh	r3, [r3, #6]
/home/aom1/Work/Linux/target/STM32MP1-DK2/bootloader/buildroot/optee-os-custom/lib/libutils/ext/snprintk.c:229
     a2e:	4618      	mov	r0, r3
/home/aom1/Work/Linux/target/STM32MP1-DK2/bootloader/buildroot/optee-os-custom/lib/libutils/ext/snprintk.c:232
     a30:	6a7b      	ldr	r3, [r7, #36]	; 0x24
     a32:	7a1b      	ldrb	r3, [r3, #8]
/home/aom1/Work/Linux/target/STM32MP1-DK2/bootloader/buildroot/optee-os-custom/lib/libutils/ext/snprintk.c:229
     a34:	461c      	mov	r4, r3
/home/aom1/Work/Linux/target/STM32MP1-DK2/bootloader/buildroot/optee-os-custom/lib/libutils/ext/snprintk.c:232
     a36:	6a7b      	ldr	r3, [r7, #36]	; 0x24
     a38:	7a5b      	ldrb	r3, [r3, #9]
/home/aom1/Work/Linux/target/STM32MP1-DK2/bootloader/buildroot/optee-os-custom/lib/libutils/ext/snprintk.c:229
     a3a:	461d      	mov	r5, r3
/home/aom1/Work/Linux/target/STM32MP1-DK2/bootloader/buildroot/optee-os-custom/lib/libutils/ext/snprintk.c:233
     a3c:	6a7b      	ldr	r3, [r7, #36]	; 0x24
     a3e:	7a9b      	ldrb	r3, [r3, #10]
/home/aom1/Work/Linux/target/STM32MP1-DK2/bootloader/buildroot/optee-os-custom/lib/libutils/ext/snprintk.c:229
     a40:	461e      	mov	r6, r3
/home/aom1/Work/Linux/target/STM32MP1-DK2/bootloader/buildroot/optee-os-custom/lib/libutils/ext/snprintk.c:233
     a42:	6a7b      	ldr	r3, [r7, #36]	; 0x24
     a44:	7adb      	ldrb	r3, [r3, #11]
/home/aom1/Work/Linux/target/STM32MP1-DK2/bootloader/buildroot/optee-os-custom/lib/libutils/ext/snprintk.c:229
     a46:	613b      	str	r3, [r7, #16]
/home/aom1/Work/Linux/target/STM32MP1-DK2/bootloader/buildroot/optee-os-custom/lib/libutils/ext/snprintk.c:234
     a48:	6a7b      	ldr	r3, [r7, #36]	; 0x24
     a4a:	7b1b      	ldrb	r3, [r3, #12]
/home/aom1/Work/Linux/target/STM32MP1-DK2/bootloader/buildroot/optee-os-custom/lib/libutils/ext/snprintk.c:229
     a4c:	60fb      	str	r3, [r7, #12]
/home/aom1/Work/Linux/target/STM32MP1-DK2/bootloader/buildroot/optee-os-custom/lib/libutils/ext/snprintk.c:234
     a4e:	6a7b      	ldr	r3, [r7, #36]	; 0x24
     a50:	7b5b      	ldrb	r3, [r3, #13]
/home/aom1/Work/Linux/target/STM32MP1-DK2/bootloader/buildroot/optee-os-custom/lib/libutils/ext/snprintk.c:229
     a52:	60bb      	str	r3, [r7, #8]
/home/aom1/Work/Linux/target/STM32MP1-DK2/bootloader/buildroot/optee-os-custom/lib/libutils/ext/snprintk.c:235
     a54:	6a7b      	ldr	r3, [r7, #36]	; 0x24
     a56:	7b9b      	ldrb	r3, [r3, #14]
/home/aom1/Work/Linux/target/STM32MP1-DK2/bootloader/buildroot/optee-os-custom/lib/libutils/ext/snprintk.c:229
     a58:	607b      	str	r3, [r7, #4]
/home/aom1/Work/Linux/target/STM32MP1-DK2/bootloader/buildroot/optee-os-custom/lib/libutils/ext/snprintk.c:235
     a5a:	6a7b      	ldr	r3, [r7, #36]	; 0x24
     a5c:	7bdb      	ldrb	r3, [r3, #15]
/home/aom1/Work/Linux/target/STM32MP1-DK2/bootloader/buildroot/optee-os-custom/lib/libutils/ext/snprintk.c:229
     a5e:	9309      	str	r3, [sp, #36]	; 0x24
     a60:	687b      	ldr	r3, [r7, #4]
     a62:	9308      	str	r3, [sp, #32]
     a64:	68bb      	ldr	r3, [r7, #8]
     a66:	9307      	str	r3, [sp, #28]
     a68:	68fb      	ldr	r3, [r7, #12]
     a6a:	9306      	str	r3, [sp, #24]
     a6c:	693b      	ldr	r3, [r7, #16]
     a6e:	9305      	str	r3, [sp, #20]
     a70:	9604      	str	r6, [sp, #16]
     a72:	9503      	str	r5, [sp, #12]
     a74:	9402      	str	r4, [sp, #8]
     a76:	9001      	str	r0, [sp, #4]
     a78:	9100      	str	r1, [sp, #0]
     a7a:	4613      	mov	r3, r2
     a7c:	4a05      	ldr	r2, [pc, #20]	; (a94 <uuid2str+0x84>)
     a7e:	447a      	add	r2, pc
     a80:	69b9      	ldr	r1, [r7, #24]
     a82:	69f8      	ldr	r0, [r7, #28]
     a84:	f7ff ff50 	bl	928 <snprintk>
     a88:	4603      	mov	r3, r0
/home/aom1/Work/Linux/target/STM32MP1-DK2/bootloader/buildroot/optee-os-custom/lib/libutils/ext/snprintk.c:236
     a8a:	4618      	mov	r0, r3
     a8c:	372c      	adds	r7, #44	; 0x2c
     a8e:	46bd      	mov	sp, r7
     a90:	bdf0      	pop	{r4, r5, r6, r7, pc}
     a92:	bf00      	nop
     a94:	0000d616 	.word	0x0000d616

00000a98 <kprintf>:
kprintf():
/home/aom1/Work/Linux/target/STM32MP1-DK2/bootloader/buildroot/optee-os-custom/lib/libutils/ext/snprintk.c:244
     a98:	e92d 4fb0 	stmdb	sp!, {r4, r5, r7, r8, r9, sl, fp, lr}
     a9c:	b0ac      	sub	sp, #176	; 0xb0
     a9e:	af00      	add	r7, sp, #0
     aa0:	6378      	str	r0, [r7, #52]	; 0x34
     aa2:	6339      	str	r1, [r7, #48]	; 0x30
     aa4:	62fa      	str	r2, [r7, #44]	; 0x2c
     aa6:	62bb      	str	r3, [r7, #40]	; 0x28
/home/aom1/Work/Linux/target/STM32MP1-DK2/bootloader/buildroot/optee-os-custom/lib/libutils/ext/snprintk.c:264
     aa8:	6b3b      	ldr	r3, [r7, #48]	; 0x30
     aaa:	2b08      	cmp	r3, #8
     aac:	d106      	bne.n	abc <kprintf+0x24>
/home/aom1/Work/Linux/target/STM32MP1-DK2/bootloader/buildroot/optee-os-custom/lib/libutils/ext/snprintk.c:264 (discriminator 1)
     aae:	6afb      	ldr	r3, [r7, #44]	; 0x2c
     ab0:	2b00      	cmp	r3, #0
     ab2:	d003      	beq.n	abc <kprintf+0x24>
/home/aom1/Work/Linux/target/STM32MP1-DK2/bootloader/buildroot/optee-os-custom/lib/libutils/ext/snprintk.c:265
     ab4:	6afb      	ldr	r3, [r7, #44]	; 0x2c
     ab6:	681b      	ldr	r3, [r3, #0]
     ab8:	66bb      	str	r3, [r7, #104]	; 0x68
     aba:	e001      	b.n	ac0 <kprintf+0x28>
/home/aom1/Work/Linux/target/STM32MP1-DK2/bootloader/buildroot/optee-os-custom/lib/libutils/ext/snprintk.c:267
     abc:	2300      	movs	r3, #0
     abe:	66bb      	str	r3, [r7, #104]	; 0x68
/home/aom1/Work/Linux/target/STM32MP1-DK2/bootloader/buildroot/optee-os-custom/lib/libutils/ext/snprintk.c:269
     ac0:	2300      	movs	r3, #0
     ac2:	f8c7 30a0 	str.w	r3, [r7, #160]	; 0xa0
/home/aom1/Work/Linux/target/STM32MP1-DK2/bootloader/buildroot/optee-os-custom/lib/libutils/ext/snprintk.c:270
     ac6:	2300      	movs	r3, #0
     ac8:	673b      	str	r3, [r7, #112]	; 0x70
/home/aom1/Work/Linux/target/STM32MP1-DK2/bootloader/buildroot/optee-os-custom/lib/libutils/ext/snprintk.c:272
     aca:	6b7b      	ldr	r3, [r7, #52]	; 0x34
     acc:	f8c7 30ac 	str.w	r3, [r7, #172]	; 0xac
/home/aom1/Work/Linux/target/STM32MP1-DK2/bootloader/buildroot/optee-os-custom/lib/libutils/ext/snprintk.c:273
     ad0:	2300      	movs	r3, #0
     ad2:	f8c7 3098 	str.w	r3, [r7, #152]	; 0x98
/home/aom1/Work/Linux/target/STM32MP1-DK2/bootloader/buildroot/optee-os-custom/lib/libutils/ext/snprintk.c:275
     ad6:	2300      	movs	r3, #0
     ad8:	66fb      	str	r3, [r7, #108]	; 0x6c
/home/aom1/Work/Linux/target/STM32MP1-DK2/bootloader/buildroot/optee-os-custom/lib/libutils/ext/snprintk.c:281
     ada:	e01d      	b.n	b18 <kprintf+0x80>
/home/aom1/Work/Linux/target/STM32MP1-DK2/bootloader/buildroot/optee-os-custom/lib/libutils/ext/snprintk.c:282
     adc:	f8d7 3098 	ldr.w	r3, [r7, #152]	; 0x98
     ae0:	3301      	adds	r3, #1
     ae2:	f8c7 3098 	str.w	r3, [r7, #152]	; 0x98
/home/aom1/Work/Linux/target/STM32MP1-DK2/bootloader/buildroot/optee-os-custom/lib/libutils/ext/snprintk.c:283
     ae6:	6b3b      	ldr	r3, [r7, #48]	; 0x30
     ae8:	2b08      	cmp	r3, #8
     aea:	d110      	bne.n	b0e <kprintf+0x76>
/home/aom1/Work/Linux/target/STM32MP1-DK2/bootloader/buildroot/optee-os-custom/lib/libutils/ext/snprintk.c:283 (discriminator 1)
     aec:	6abb      	ldr	r3, [r7, #40]	; 0x28
     aee:	2b00      	cmp	r3, #0
     af0:	d00d      	beq.n	b0e <kprintf+0x76>
/home/aom1/Work/Linux/target/STM32MP1-DK2/bootloader/buildroot/optee-os-custom/lib/libutils/ext/snprintk.c:283 (discriminator 2)
     af2:	6afb      	ldr	r3, [r7, #44]	; 0x2c
     af4:	2b00      	cmp	r3, #0
     af6:	d003      	beq.n	b00 <kprintf+0x68>
/home/aom1/Work/Linux/target/STM32MP1-DK2/bootloader/buildroot/optee-os-custom/lib/libutils/ext/snprintk.c:283 (discriminator 4)
     af8:	6aba      	ldr	r2, [r7, #40]	; 0x28
     afa:	6ebb      	ldr	r3, [r7, #104]	; 0x68
     afc:	429a      	cmp	r2, r3
     afe:	d206      	bcs.n	b0e <kprintf+0x76>
/home/aom1/Work/Linux/target/STM32MP1-DK2/bootloader/buildroot/optee-os-custom/lib/libutils/ext/snprintk.c:283 (discriminator 5)
     b00:	6aba      	ldr	r2, [r7, #40]	; 0x28
     b02:	1c53      	adds	r3, r2, #1
     b04:	62bb      	str	r3, [r7, #40]	; 0x28
     b06:	f8d7 30ac 	ldr.w	r3, [r7, #172]	; 0xac
     b0a:	781b      	ldrb	r3, [r3, #0]
     b0c:	7013      	strb	r3, [r2, #0]
/home/aom1/Work/Linux/target/STM32MP1-DK2/bootloader/buildroot/optee-os-custom/lib/libutils/ext/snprintk.c:281
     b0e:	f8d7 30ac 	ldr.w	r3, [r7, #172]	; 0xac
     b12:	3301      	adds	r3, #1
     b14:	f8c7 30ac 	str.w	r3, [r7, #172]	; 0xac
/home/aom1/Work/Linux/target/STM32MP1-DK2/bootloader/buildroot/optee-os-custom/lib/libutils/ext/snprintk.c:281 (discriminator 1)
     b18:	f8d7 30ac 	ldr.w	r3, [r7, #172]	; 0xac
     b1c:	781b      	ldrb	r3, [r3, #0]
     b1e:	2b25      	cmp	r3, #37	; 0x25
     b20:	d004      	beq.n	b2c <kprintf+0x94>
/home/aom1/Work/Linux/target/STM32MP1-DK2/bootloader/buildroot/optee-os-custom/lib/libutils/ext/snprintk.c:281 (discriminator 2)
     b22:	f8d7 30ac 	ldr.w	r3, [r7, #172]	; 0xac
     b26:	781b      	ldrb	r3, [r3, #0]
     b28:	2b00      	cmp	r3, #0
     b2a:	d1d7      	bne.n	adc <kprintf+0x44>
/home/aom1/Work/Linux/target/STM32MP1-DK2/bootloader/buildroot/optee-os-custom/lib/libutils/ext/snprintk.c:285
     b2c:	f8d7 30ac 	ldr.w	r3, [r7, #172]	; 0xac
     b30:	781b      	ldrb	r3, [r3, #0]
     b32:	2b00      	cmp	r3, #0
     b34:	f000 86d1 	beq.w	18da <kprintf+0xe42>
/home/aom1/Work/Linux/target/STM32MP1-DK2/bootloader/buildroot/optee-os-custom/lib/libutils/ext/snprintk.c:288
     b38:	f8d7 30ac 	ldr.w	r3, [r7, #172]	; 0xac
     b3c:	3301      	adds	r3, #1
     b3e:	f8c7 30ac 	str.w	r3, [r7, #172]	; 0xac
/home/aom1/Work/Linux/target/STM32MP1-DK2/bootloader/buildroot/optee-os-custom/lib/libutils/ext/snprintk.c:290
     b42:	2300      	movs	r3, #0
     b44:	f8c7 309c 	str.w	r3, [r7, #156]	; 0x9c
/home/aom1/Work/Linux/target/STM32MP1-DK2/bootloader/buildroot/optee-os-custom/lib/libutils/ext/snprintk.c:291
     b48:	2300      	movs	r3, #0
     b4a:	67bb      	str	r3, [r7, #120]	; 0x78
/home/aom1/Work/Linux/target/STM32MP1-DK2/bootloader/buildroot/optee-os-custom/lib/libutils/ext/snprintk.c:292
     b4c:	2300      	movs	r3, #0
     b4e:	f8c7 3094 	str.w	r3, [r7, #148]	; 0x94
/home/aom1/Work/Linux/target/STM32MP1-DK2/bootloader/buildroot/optee-os-custom/lib/libutils/ext/snprintk.c:293
     b52:	f04f 33ff 	mov.w	r3, #4294967295	; 0xffffffff
     b56:	f8c7 3090 	str.w	r3, [r7, #144]	; 0x90
/home/aom1/Work/Linux/target/STM32MP1-DK2/bootloader/buildroot/optee-os-custom/lib/libutils/ext/snprintk.c:294
     b5a:	2300      	movs	r3, #0
     b5c:	f887 308f 	strb.w	r3, [r7, #143]	; 0x8f
/home/aom1/Work/Linux/target/STM32MP1-DK2/bootloader/buildroot/optee-os-custom/lib/libutils/ext/snprintk.c:296
     b60:	f8d7 20ac 	ldr.w	r2, [r7, #172]	; 0xac
     b64:	1c53      	adds	r3, r2, #1
     b66:	f8c7 30ac 	str.w	r3, [r7, #172]	; 0xac
     b6a:	7813      	ldrb	r3, [r2, #0]
     b6c:	f8c7 30a8 	str.w	r3, [r7, #168]	; 0xa8
/home/aom1/Work/Linux/target/STM32MP1-DK2/bootloader/buildroot/optee-os-custom/lib/libutils/ext/snprintk.c:297
     b70:	f8d7 30a8 	ldr.w	r3, [r7, #168]	; 0xa8
     b74:	3b20      	subs	r3, #32
     b76:	2b5a      	cmp	r3, #90	; 0x5a
     b78:	f200 857e 	bhi.w	1678 <kprintf+0xbe0>
     b7c:	a202      	add	r2, pc, #8	; (adr r2, b88 <kprintf+0xf0>)
     b7e:	f852 3023 	ldr.w	r3, [r2, r3, lsl #2]
     b82:	441a      	add	r2, r3
     b84:	4710      	bx	r2
     b86:	bf00      	nop
     b88:	0000016d 	.word	0x0000016d
     b8c:	00000af1 	.word	0x00000af1
     b90:	00000af1 	.word	0x00000af1
     b94:	0000017f 	.word	0x0000017f
     b98:	00000af1 	.word	0x00000af1
     b9c:	00000af1 	.word	0x00000af1
     ba0:	00000af1 	.word	0x00000af1
     ba4:	00000af1 	.word	0x00000af1
     ba8:	00000af1 	.word	0x00000af1
     bac:	00000af1 	.word	0x00000af1
     bb0:	0000018d 	.word	0x0000018d
     bb4:	000001bf 	.word	0x000001bf
     bb8:	00000af1 	.word	0x00000af1
     bbc:	000001b1 	.word	0x000001b1
     bc0:	000001c7 	.word	0x000001c7
     bc4:	00000af1 	.word	0x00000af1
     bc8:	00000243 	.word	0x00000243
     bcc:	00000251 	.word	0x00000251
     bd0:	00000251 	.word	0x00000251
     bd4:	00000251 	.word	0x00000251
     bd8:	00000251 	.word	0x00000251
     bdc:	00000251 	.word	0x00000251
     be0:	00000251 	.word	0x00000251
     be4:	00000251 	.word	0x00000251
     be8:	00000251 	.word	0x00000251
     bec:	00000251 	.word	0x00000251
     bf0:	00000af1 	.word	0x00000af1
     bf4:	00000af1 	.word	0x00000af1
     bf8:	00000af1 	.word	0x00000af1
     bfc:	00000af1 	.word	0x00000af1
     c00:	00000af1 	.word	0x00000af1
     c04:	00000af1 	.word	0x00000af1
     c08:	00000af1 	.word	0x00000af1
     c0c:	00000af1 	.word	0x00000af1
     c10:	00000af1 	.word	0x00000af1
     c14:	00000af1 	.word	0x00000af1
     c18:	0000032f 	.word	0x0000032f
     c1c:	00000af1 	.word	0x00000af1
     c20:	00000af1 	.word	0x00000af1
     c24:	00000af1 	.word	0x00000af1
     c28:	00000af1 	.word	0x00000af1
     c2c:	00000af1 	.word	0x00000af1
     c30:	00000af1 	.word	0x00000af1
     c34:	00000af1 	.word	0x00000af1
     c38:	00000af1 	.word	0x00000af1
     c3c:	00000af1 	.word	0x00000af1
     c40:	00000af1 	.word	0x00000af1
     c44:	0000054f 	.word	0x0000054f
     c48:	00000af1 	.word	0x00000af1
     c4c:	00000af1 	.word	0x00000af1
     c50:	00000af1 	.word	0x00000af1
     c54:	00000af1 	.word	0x00000af1
     c58:	00000af1 	.word	0x00000af1
     c5c:	0000074b 	.word	0x0000074b
     c60:	00000af1 	.word	0x00000af1
     c64:	00000af1 	.word	0x00000af1
     c68:	0000083f 	.word	0x0000083f
     c6c:	00000af1 	.word	0x00000af1
     c70:	00000af1 	.word	0x00000af1
     c74:	00000af1 	.word	0x00000af1
     c78:	00000af1 	.word	0x00000af1
     c7c:	00000af1 	.word	0x00000af1
     c80:	00000af1 	.word	0x00000af1
     c84:	00000af1 	.word	0x00000af1
     c88:	00000af1 	.word	0x00000af1
     c8c:	00000af1 	.word	0x00000af1
     c90:	00000af1 	.word	0x00000af1
     c94:	00000307 	.word	0x00000307
     c98:	0000033b 	.word	0x0000033b
     c9c:	00000af1 	.word	0x00000af1
     ca0:	00000af1 	.word	0x00000af1
     ca4:	00000af1 	.word	0x00000af1
     ca8:	00000291 	.word	0x00000291
     cac:	0000033b 	.word	0x0000033b
     cb0:	0000029f 	.word	0x0000029f
     cb4:	00000af1 	.word	0x00000af1
     cb8:	000002ad 	.word	0x000002ad
     cbc:	00000af1 	.word	0x00000af1
     cc0:	00000455 	.word	0x00000455
     cc4:	0000055b 	.word	0x0000055b
     cc8:	00000643 	.word	0x00000643
     ccc:	000002dd 	.word	0x000002dd
     cd0:	00000af1 	.word	0x00000af1
     cd4:	000006d1 	.word	0x000006d1
     cd8:	000002eb 	.word	0x000002eb
     cdc:	00000757 	.word	0x00000757
     ce0:	00000af1 	.word	0x00000af1
     ce4:	00000af1 	.word	0x00000af1
     ce8:	00000849 	.word	0x00000849
     cec:	00000af1 	.word	0x00000af1
     cf0:	000002f9 	.word	0x000002f9
/home/aom1/Work/Linux/target/STM32MP1-DK2/bootloader/buildroot/optee-os-custom/lib/libutils/ext/snprintk.c:304
     cf4:	f897 308f 	ldrb.w	r3, [r7, #143]	; 0x8f
     cf8:	2b00      	cmp	r3, #0
     cfa:	f47f af31 	bne.w	b60 <kprintf+0xc8>
/home/aom1/Work/Linux/target/STM32MP1-DK2/bootloader/buildroot/optee-os-custom/lib/libutils/ext/snprintk.c:305
     cfe:	2320      	movs	r3, #32
     d00:	f887 308f 	strb.w	r3, [r7, #143]	; 0x8f
/home/aom1/Work/Linux/target/STM32MP1-DK2/bootloader/buildroot/optee-os-custom/lib/libutils/ext/snprintk.c:306
     d04:	e72c      	b.n	b60 <kprintf+0xc8>
/home/aom1/Work/Linux/target/STM32MP1-DK2/bootloader/buildroot/optee-os-custom/lib/libutils/ext/snprintk.c:308
     d06:	f8d7 309c 	ldr.w	r3, [r7, #156]	; 0x9c
     d0a:	f043 0301 	orr.w	r3, r3, #1
     d0e:	f8c7 309c 	str.w	r3, [r7, #156]	; 0x9c
/home/aom1/Work/Linux/target/STM32MP1-DK2/bootloader/buildroot/optee-os-custom/lib/libutils/ext/snprintk.c:309
     d12:	e725      	b.n	b60 <kprintf+0xc8>
/home/aom1/Work/Linux/target/STM32MP1-DK2/bootloader/buildroot/optee-os-custom/lib/libutils/ext/snprintk.c:317
     d14:	f8d7 20d0 	ldr.w	r2, [r7, #208]	; 0xd0
     d18:	1d13      	adds	r3, r2, #4
     d1a:	f8c7 30d0 	str.w	r3, [r7, #208]	; 0xd0
     d1e:	6813      	ldr	r3, [r2, #0]
     d20:	f8c7 3094 	str.w	r3, [r7, #148]	; 0x94
     d24:	f8d7 3094 	ldr.w	r3, [r7, #148]	; 0x94
     d28:	2b00      	cmp	r3, #0
     d2a:	db00      	blt.n	d2e <kprintf+0x296>
/home/aom1/Work/Linux/target/STM32MP1-DK2/bootloader/buildroot/optee-os-custom/lib/libutils/ext/snprintk.c:318
     d2c:	e718      	b.n	b60 <kprintf+0xc8>
/home/aom1/Work/Linux/target/STM32MP1-DK2/bootloader/buildroot/optee-os-custom/lib/libutils/ext/snprintk.c:319
     d2e:	f8d7 3094 	ldr.w	r3, [r7, #148]	; 0x94
     d32:	425b      	negs	r3, r3
     d34:	f8c7 3094 	str.w	r3, [r7, #148]	; 0x94
/home/aom1/Work/Linux/target/STM32MP1-DK2/bootloader/buildroot/optee-os-custom/lib/libutils/ext/snprintk.c:322
     d38:	f8d7 309c 	ldr.w	r3, [r7, #156]	; 0x9c
     d3c:	f043 0304 	orr.w	r3, r3, #4
     d40:	f8c7 309c 	str.w	r3, [r7, #156]	; 0x9c
/home/aom1/Work/Linux/target/STM32MP1-DK2/bootloader/buildroot/optee-os-custom/lib/libutils/ext/snprintk.c:323
     d44:	e70c      	b.n	b60 <kprintf+0xc8>
/home/aom1/Work/Linux/target/STM32MP1-DK2/bootloader/buildroot/optee-os-custom/lib/libutils/ext/snprintk.c:325
     d46:	232b      	movs	r3, #43	; 0x2b
     d48:	f887 308f 	strb.w	r3, [r7, #143]	; 0x8f
/home/aom1/Work/Linux/target/STM32MP1-DK2/bootloader/buildroot/optee-os-custom/lib/libutils/ext/snprintk.c:326
     d4c:	e708      	b.n	b60 <kprintf+0xc8>
/home/aom1/Work/Linux/target/STM32MP1-DK2/bootloader/buildroot/optee-os-custom/lib/libutils/ext/snprintk.c:328
     d4e:	f8d7 20ac 	ldr.w	r2, [r7, #172]	; 0xac
     d52:	1c53      	adds	r3, r2, #1
     d54:	f8c7 30ac 	str.w	r3, [r7, #172]	; 0xac
     d58:	7813      	ldrb	r3, [r2, #0]
     d5a:	f8c7 30a8 	str.w	r3, [r7, #168]	; 0xa8
     d5e:	f8d7 30a8 	ldr.w	r3, [r7, #168]	; 0xa8
     d62:	2b2a      	cmp	r3, #42	; 0x2a
     d64:	d10e      	bne.n	d84 <kprintf+0x2ec>
/home/aom1/Work/Linux/target/STM32MP1-DK2/bootloader/buildroot/optee-os-custom/lib/libutils/ext/snprintk.c:329
     d66:	f8d7 20d0 	ldr.w	r2, [r7, #208]	; 0xd0
     d6a:	1d13      	adds	r3, r2, #4
     d6c:	f8c7 30d0 	str.w	r3, [r7, #208]	; 0xd0
     d70:	6813      	ldr	r3, [r2, #0]
     d72:	f8c7 30a4 	str.w	r3, [r7, #164]	; 0xa4
/home/aom1/Work/Linux/target/STM32MP1-DK2/bootloader/buildroot/optee-os-custom/lib/libutils/ext/snprintk.c:330
     d76:	f8d7 30a4 	ldr.w	r3, [r7, #164]	; 0xa4
     d7a:	ea43 73e3 	orr.w	r3, r3, r3, asr #31
     d7e:	f8c7 3090 	str.w	r3, [r7, #144]	; 0x90
/home/aom1/Work/Linux/target/STM32MP1-DK2/bootloader/buildroot/optee-os-custom/lib/libutils/ext/snprintk.c:331
     d82:	e6ed      	b.n	b60 <kprintf+0xc8>
/home/aom1/Work/Linux/target/STM32MP1-DK2/bootloader/buildroot/optee-os-custom/lib/libutils/ext/snprintk.c:333
     d84:	2300      	movs	r3, #0
     d86:	f8c7 30a4 	str.w	r3, [r7, #164]	; 0xa4
/home/aom1/Work/Linux/target/STM32MP1-DK2/bootloader/buildroot/optee-os-custom/lib/libutils/ext/snprintk.c:334
     d8a:	e012      	b.n	db2 <kprintf+0x31a>
/home/aom1/Work/Linux/target/STM32MP1-DK2/bootloader/buildroot/optee-os-custom/lib/libutils/ext/snprintk.c:335
     d8c:	f8d7 20a4 	ldr.w	r2, [r7, #164]	; 0xa4
     d90:	230a      	movs	r3, #10
     d92:	fb03 f202 	mul.w	r2, r3, r2
     d96:	f8d7 30a8 	ldr.w	r3, [r7, #168]	; 0xa8
     d9a:	3b30      	subs	r3, #48	; 0x30
     d9c:	4413      	add	r3, r2
     d9e:	f8c7 30a4 	str.w	r3, [r7, #164]	; 0xa4
/home/aom1/Work/Linux/target/STM32MP1-DK2/bootloader/buildroot/optee-os-custom/lib/libutils/ext/snprintk.c:336
     da2:	f8d7 20ac 	ldr.w	r2, [r7, #172]	; 0xac
     da6:	1c53      	adds	r3, r2, #1
     da8:	f8c7 30ac 	str.w	r3, [r7, #172]	; 0xac
     dac:	7813      	ldrb	r3, [r2, #0]
     dae:	f8c7 30a8 	str.w	r3, [r7, #168]	; 0xa8
/home/aom1/Work/Linux/target/STM32MP1-DK2/bootloader/buildroot/optee-os-custom/lib/libutils/ext/snprintk.c:334
     db2:	f8d7 30a8 	ldr.w	r3, [r7, #168]	; 0xa8
     db6:	3b30      	subs	r3, #48	; 0x30
     db8:	2b09      	cmp	r3, #9
     dba:	d9e7      	bls.n	d8c <kprintf+0x2f4>
/home/aom1/Work/Linux/target/STM32MP1-DK2/bootloader/buildroot/optee-os-custom/lib/libutils/ext/snprintk.c:338
     dbc:	f8d7 30a4 	ldr.w	r3, [r7, #164]	; 0xa4
     dc0:	ea43 73e3 	orr.w	r3, r3, r3, asr #31
     dc4:	f8c7 3090 	str.w	r3, [r7, #144]	; 0x90
/home/aom1/Work/Linux/target/STM32MP1-DK2/bootloader/buildroot/optee-os-custom/lib/libutils/ext/snprintk.c:339
     dc8:	e6d2      	b.n	b70 <kprintf+0xd8>
/home/aom1/Work/Linux/target/STM32MP1-DK2/bootloader/buildroot/optee-os-custom/lib/libutils/ext/snprintk.c:346
     dca:	f8d7 309c 	ldr.w	r3, [r7, #156]	; 0x9c
     dce:	f443 6380 	orr.w	r3, r3, #1024	; 0x400
     dd2:	f8c7 309c 	str.w	r3, [r7, #156]	; 0x9c
/home/aom1/Work/Linux/target/STM32MP1-DK2/bootloader/buildroot/optee-os-custom/lib/libutils/ext/snprintk.c:347
     dd6:	e6c3      	b.n	b60 <kprintf+0xc8>
/home/aom1/Work/Linux/target/STM32MP1-DK2/bootloader/buildroot/optee-os-custom/lib/libutils/ext/snprintk.c:350
     dd8:	2300      	movs	r3, #0
     dda:	f8c7 30a4 	str.w	r3, [r7, #164]	; 0xa4
/home/aom1/Work/Linux/target/STM32MP1-DK2/bootloader/buildroot/optee-os-custom/lib/libutils/ext/snprintk.c:352 (discriminator 1)
     dde:	f8d7 20a4 	ldr.w	r2, [r7, #164]	; 0xa4
     de2:	230a      	movs	r3, #10
     de4:	fb03 f202 	mul.w	r2, r3, r2
     de8:	f8d7 30a8 	ldr.w	r3, [r7, #168]	; 0xa8
     dec:	3b30      	subs	r3, #48	; 0x30
     dee:	4413      	add	r3, r2
     df0:	f8c7 30a4 	str.w	r3, [r7, #164]	; 0xa4
/home/aom1/Work/Linux/target/STM32MP1-DK2/bootloader/buildroot/optee-os-custom/lib/libutils/ext/snprintk.c:353 (discriminator 1)
     df4:	f8d7 20ac 	ldr.w	r2, [r7, #172]	; 0xac
     df8:	1c53      	adds	r3, r2, #1
     dfa:	f8c7 30ac 	str.w	r3, [r7, #172]	; 0xac
     dfe:	7813      	ldrb	r3, [r2, #0]
     e00:	f8c7 30a8 	str.w	r3, [r7, #168]	; 0xa8
/home/aom1/Work/Linux/target/STM32MP1-DK2/bootloader/buildroot/optee-os-custom/lib/libutils/ext/snprintk.c:354 (discriminator 1)
     e04:	f8d7 30a8 	ldr.w	r3, [r7, #168]	; 0xa8
     e08:	3b30      	subs	r3, #48	; 0x30
     e0a:	2b09      	cmp	r3, #9
     e0c:	d9e7      	bls.n	dde <kprintf+0x346>
/home/aom1/Work/Linux/target/STM32MP1-DK2/bootloader/buildroot/optee-os-custom/lib/libutils/ext/snprintk.c:355
     e0e:	f8d7 30a4 	ldr.w	r3, [r7, #164]	; 0xa4
     e12:	f8c7 3094 	str.w	r3, [r7, #148]	; 0x94
/home/aom1/Work/Linux/target/STM32MP1-DK2/bootloader/buildroot/optee-os-custom/lib/libutils/ext/snprintk.c:356
     e16:	e6ab      	b.n	b70 <kprintf+0xd8>
/home/aom1/Work/Linux/target/STM32MP1-DK2/bootloader/buildroot/optee-os-custom/lib/libutils/ext/snprintk.c:358
     e18:	f8d7 309c 	ldr.w	r3, [r7, #156]	; 0x9c
     e1c:	f043 0340 	orr.w	r3, r3, #64	; 0x40
     e20:	f8c7 309c 	str.w	r3, [r7, #156]	; 0x9c
/home/aom1/Work/Linux/target/STM32MP1-DK2/bootloader/buildroot/optee-os-custom/lib/libutils/ext/snprintk.c:359
     e24:	e69c      	b.n	b60 <kprintf+0xc8>
/home/aom1/Work/Linux/target/STM32MP1-DK2/bootloader/buildroot/optee-os-custom/lib/libutils/ext/snprintk.c:361
     e26:	f8d7 309c 	ldr.w	r3, [r7, #156]	; 0x9c
     e2a:	f043 0380 	orr.w	r3, r3, #128	; 0x80
     e2e:	f8c7 309c 	str.w	r3, [r7, #156]	; 0x9c
/home/aom1/Work/Linux/target/STM32MP1-DK2/bootloader/buildroot/optee-os-custom/lib/libutils/ext/snprintk.c:362
     e32:	e695      	b.n	b60 <kprintf+0xc8>
/home/aom1/Work/Linux/target/STM32MP1-DK2/bootloader/buildroot/optee-os-custom/lib/libutils/ext/snprintk.c:364
     e34:	f8d7 30ac 	ldr.w	r3, [r7, #172]	; 0xac
     e38:	781b      	ldrb	r3, [r3, #0]
     e3a:	2b6c      	cmp	r3, #108	; 0x6c
     e3c:	d10b      	bne.n	e56 <kprintf+0x3be>
/home/aom1/Work/Linux/target/STM32MP1-DK2/bootloader/buildroot/optee-os-custom/lib/libutils/ext/snprintk.c:365
     e3e:	f8d7 30ac 	ldr.w	r3, [r7, #172]	; 0xac
     e42:	3301      	adds	r3, #1
     e44:	f8c7 30ac 	str.w	r3, [r7, #172]	; 0xac
/home/aom1/Work/Linux/target/STM32MP1-DK2/bootloader/buildroot/optee-os-custom/lib/libutils/ext/snprintk.c:366
     e48:	f8d7 309c 	ldr.w	r3, [r7, #156]	; 0x9c
     e4c:	f043 0320 	orr.w	r3, r3, #32
     e50:	f8c7 309c 	str.w	r3, [r7, #156]	; 0x9c
     e54:	e684      	b.n	b60 <kprintf+0xc8>
/home/aom1/Work/Linux/target/STM32MP1-DK2/bootloader/buildroot/optee-os-custom/lib/libutils/ext/snprintk.c:368
     e56:	f8d7 309c 	ldr.w	r3, [r7, #156]	; 0x9c
     e5a:	f043 0310 	orr.w	r3, r3, #16
     e5e:	f8c7 309c 	str.w	r3, [r7, #156]	; 0x9c
/home/aom1/Work/Linux/target/STM32MP1-DK2/bootloader/buildroot/optee-os-custom/lib/libutils/ext/snprintk.c:370
     e62:	e67d      	b.n	b60 <kprintf+0xc8>
/home/aom1/Work/Linux/target/STM32MP1-DK2/bootloader/buildroot/optee-os-custom/lib/libutils/ext/snprintk.c:372
     e64:	f8d7 309c 	ldr.w	r3, [r7, #156]	; 0x9c
     e68:	f043 0320 	orr.w	r3, r3, #32
     e6c:	f8c7 309c 	str.w	r3, [r7, #156]	; 0x9c
/home/aom1/Work/Linux/target/STM32MP1-DK2/bootloader/buildroot/optee-os-custom/lib/libutils/ext/snprintk.c:373
     e70:	e676      	b.n	b60 <kprintf+0xc8>
/home/aom1/Work/Linux/target/STM32MP1-DK2/bootloader/buildroot/optee-os-custom/lib/libutils/ext/snprintk.c:375
     e72:	f8d7 309c 	ldr.w	r3, [r7, #156]	; 0x9c
     e76:	f443 7380 	orr.w	r3, r3, #256	; 0x100
     e7a:	f8c7 309c 	str.w	r3, [r7, #156]	; 0x9c
/home/aom1/Work/Linux/target/STM32MP1-DK2/bootloader/buildroot/optee-os-custom/lib/libutils/ext/snprintk.c:376
     e7e:	e66f      	b.n	b60 <kprintf+0xc8>
/home/aom1/Work/Linux/target/STM32MP1-DK2/bootloader/buildroot/optee-os-custom/lib/libutils/ext/snprintk.c:378
     e80:	f8d7 309c 	ldr.w	r3, [r7, #156]	; 0x9c
     e84:	f443 7300 	orr.w	r3, r3, #512	; 0x200
     e88:	f8c7 309c 	str.w	r3, [r7, #156]	; 0x9c
/home/aom1/Work/Linux/target/STM32MP1-DK2/bootloader/buildroot/optee-os-custom/lib/libutils/ext/snprintk.c:379
     e8c:	e668      	b.n	b60 <kprintf+0xc8>
/home/aom1/Work/Linux/target/STM32MP1-DK2/bootloader/buildroot/optee-os-custom/lib/libutils/ext/snprintk.c:381
     e8e:	f8d7 20d0 	ldr.w	r2, [r7, #208]	; 0xd0
     e92:	1d13      	adds	r3, r2, #4
     e94:	f8c7 30d0 	str.w	r3, [r7, #208]	; 0xd0
     e98:	6812      	ldr	r2, [r2, #0]
     e9a:	f107 033c 	add.w	r3, r7, #60	; 0x3c
     e9e:	f8c7 30a0 	str.w	r3, [r7, #160]	; 0xa0
     ea2:	b2d3      	uxtb	r3, r2
     ea4:	f8d7 20a0 	ldr.w	r2, [r7, #160]	; 0xa0
     ea8:	7013      	strb	r3, [r2, #0]
/home/aom1/Work/Linux/target/STM32MP1-DK2/bootloader/buildroot/optee-os-custom/lib/libutils/ext/snprintk.c:382
     eaa:	2301      	movs	r3, #1
     eac:	673b      	str	r3, [r7, #112]	; 0x70
/home/aom1/Work/Linux/target/STM32MP1-DK2/bootloader/buildroot/optee-os-custom/lib/libutils/ext/snprintk.c:383
     eae:	2300      	movs	r3, #0
     eb0:	f887 308f 	strb.w	r3, [r7, #143]	; 0x8f
/home/aom1/Work/Linux/target/STM32MP1-DK2/bootloader/buildroot/optee-os-custom/lib/libutils/ext/snprintk.c:384
     eb4:	e3f5      	b.n	16a2 <kprintf+0xc0a>
/home/aom1/Work/Linux/target/STM32MP1-DK2/bootloader/buildroot/optee-os-custom/lib/libutils/ext/snprintk.c:386
     eb6:	f8d7 309c 	ldr.w	r3, [r7, #156]	; 0x9c
     eba:	f043 0310 	orr.w	r3, r3, #16
     ebe:	f8c7 309c 	str.w	r3, [r7, #156]	; 0x9c
/home/aom1/Work/Linux/target/STM32MP1-DK2/bootloader/buildroot/optee-os-custom/lib/libutils/ext/snprintk.c:390
     ec2:	f8d7 309c 	ldr.w	r3, [r7, #156]	; 0x9c
     ec6:	f003 0380 	and.w	r3, r3, #128	; 0x80
     eca:	2b00      	cmp	r3, #0
     ecc:	d00d      	beq.n	eea <kprintf+0x452>
     ece:	f8d7 30d0 	ldr.w	r3, [r7, #208]	; 0xd0
     ed2:	3307      	adds	r3, #7
     ed4:	f023 0207 	bic.w	r2, r3, #7
     ed8:	f102 0308 	add.w	r3, r2, #8
     edc:	f8c7 30d0 	str.w	r3, [r7, #208]	; 0xd0
     ee0:	e9d2 2300 	ldrd	r2, r3, [r2]
     ee4:	e9c7 2308 	strd	r2, r3, [r7, #32]
     ee8:	e05e      	b.n	fa8 <kprintf+0x510>
/home/aom1/Work/Linux/target/STM32MP1-DK2/bootloader/buildroot/optee-os-custom/lib/libutils/ext/snprintk.c:390 (discriminator 2)
     eea:	f8d7 309c 	ldr.w	r3, [r7, #156]	; 0x9c
     eee:	f403 7380 	and.w	r3, r3, #256	; 0x100
     ef2:	2b00      	cmp	r3, #0
     ef4:	d009      	beq.n	f0a <kprintf+0x472>
/home/aom1/Work/Linux/target/STM32MP1-DK2/bootloader/buildroot/optee-os-custom/lib/libutils/ext/snprintk.c:390
     ef6:	f8d7 20d0 	ldr.w	r2, [r7, #208]	; 0xd0
     efa:	1d13      	adds	r3, r2, #4
     efc:	f8c7 30d0 	str.w	r3, [r7, #208]	; 0xd0
     f00:	6813      	ldr	r3, [r2, #0]
     f02:	17da      	asrs	r2, r3, #31
     f04:	623b      	str	r3, [r7, #32]
     f06:	627a      	str	r2, [r7, #36]	; 0x24
     f08:	e04e      	b.n	fa8 <kprintf+0x510>
/home/aom1/Work/Linux/target/STM32MP1-DK2/bootloader/buildroot/optee-os-custom/lib/libutils/ext/snprintk.c:390 (discriminator 5)
     f0a:	f8d7 309c 	ldr.w	r3, [r7, #156]	; 0x9c
     f0e:	f403 7300 	and.w	r3, r3, #512	; 0x200
     f12:	2b00      	cmp	r3, #0
     f14:	d009      	beq.n	f2a <kprintf+0x492>
/home/aom1/Work/Linux/target/STM32MP1-DK2/bootloader/buildroot/optee-os-custom/lib/libutils/ext/snprintk.c:390
     f16:	f8d7 20d0 	ldr.w	r2, [r7, #208]	; 0xd0
     f1a:	1d13      	adds	r3, r2, #4
     f1c:	f8c7 30d0 	str.w	r3, [r7, #208]	; 0xd0
     f20:	6813      	ldr	r3, [r2, #0]
     f22:	17da      	asrs	r2, r3, #31
     f24:	623b      	str	r3, [r7, #32]
     f26:	627a      	str	r2, [r7, #36]	; 0x24
     f28:	e03e      	b.n	fa8 <kprintf+0x510>
/home/aom1/Work/Linux/target/STM32MP1-DK2/bootloader/buildroot/optee-os-custom/lib/libutils/ext/snprintk.c:390 (discriminator 8)
     f2a:	f8d7 309c 	ldr.w	r3, [r7, #156]	; 0x9c
     f2e:	f003 0320 	and.w	r3, r3, #32
     f32:	2b00      	cmp	r3, #0
     f34:	d00d      	beq.n	f52 <kprintf+0x4ba>
/home/aom1/Work/Linux/target/STM32MP1-DK2/bootloader/buildroot/optee-os-custom/lib/libutils/ext/snprintk.c:390
     f36:	f8d7 30d0 	ldr.w	r3, [r7, #208]	; 0xd0
     f3a:	3307      	adds	r3, #7
     f3c:	f023 0207 	bic.w	r2, r3, #7
     f40:	f102 0308 	add.w	r3, r2, #8
     f44:	f8c7 30d0 	str.w	r3, [r7, #208]	; 0xd0
     f48:	e9d2 2300 	ldrd	r2, r3, [r2]
     f4c:	e9c7 2308 	strd	r2, r3, [r7, #32]
     f50:	e02a      	b.n	fa8 <kprintf+0x510>
/home/aom1/Work/Linux/target/STM32MP1-DK2/bootloader/buildroot/optee-os-custom/lib/libutils/ext/snprintk.c:390 (discriminator 11)
     f52:	f8d7 309c 	ldr.w	r3, [r7, #156]	; 0x9c
     f56:	f003 0310 	and.w	r3, r3, #16
     f5a:	2b00      	cmp	r3, #0
     f5c:	d009      	beq.n	f72 <kprintf+0x4da>
/home/aom1/Work/Linux/target/STM32MP1-DK2/bootloader/buildroot/optee-os-custom/lib/libutils/ext/snprintk.c:390
     f5e:	f8d7 20d0 	ldr.w	r2, [r7, #208]	; 0xd0
     f62:	1d13      	adds	r3, r2, #4
     f64:	f8c7 30d0 	str.w	r3, [r7, #208]	; 0xd0
     f68:	6813      	ldr	r3, [r2, #0]
     f6a:	17da      	asrs	r2, r3, #31
     f6c:	623b      	str	r3, [r7, #32]
     f6e:	627a      	str	r2, [r7, #36]	; 0x24
     f70:	e01a      	b.n	fa8 <kprintf+0x510>
/home/aom1/Work/Linux/target/STM32MP1-DK2/bootloader/buildroot/optee-os-custom/lib/libutils/ext/snprintk.c:390 (discriminator 14)
     f72:	f8d7 309c 	ldr.w	r3, [r7, #156]	; 0x9c
     f76:	f003 0340 	and.w	r3, r3, #64	; 0x40
     f7a:	2b00      	cmp	r3, #0
     f7c:	d00b      	beq.n	f96 <kprintf+0x4fe>
/home/aom1/Work/Linux/target/STM32MP1-DK2/bootloader/buildroot/optee-os-custom/lib/libutils/ext/snprintk.c:390
     f7e:	f8d7 20d0 	ldr.w	r2, [r7, #208]	; 0xd0
     f82:	1d13      	adds	r3, r2, #4
     f84:	f8c7 30d0 	str.w	r3, [r7, #208]	; 0xd0
     f88:	6813      	ldr	r3, [r2, #0]
     f8a:	b21b      	sxth	r3, r3
     f8c:	b21b      	sxth	r3, r3
     f8e:	17da      	asrs	r2, r3, #31
     f90:	623b      	str	r3, [r7, #32]
     f92:	627a      	str	r2, [r7, #36]	; 0x24
     f94:	e008      	b.n	fa8 <kprintf+0x510>
     f96:	f8d7 20d0 	ldr.w	r2, [r7, #208]	; 0xd0
     f9a:	1d13      	adds	r3, r2, #4
     f9c:	f8c7 30d0 	str.w	r3, [r7, #208]	; 0xd0
     fa0:	6813      	ldr	r3, [r2, #0]
     fa2:	17da      	asrs	r2, r3, #31
     fa4:	623b      	str	r3, [r7, #32]
     fa6:	627a      	str	r2, [r7, #36]	; 0x24
/home/aom1/Work/Linux/target/STM32MP1-DK2/bootloader/buildroot/optee-os-custom/lib/libutils/ext/snprintk.c:390 (discriminator 24)
     fa8:	e9d7 2308 	ldrd	r2, r3, [r7, #32]
     fac:	e9c7 2320 	strd	r2, r3, [r7, #128]	; 0x80
/home/aom1/Work/Linux/target/STM32MP1-DK2/bootloader/buildroot/optee-os-custom/lib/libutils/ext/snprintk.c:391 (discriminator 24)
     fb0:	e9d7 2320 	ldrd	r2, r3, [r7, #128]	; 0x80
     fb4:	2b00      	cmp	r3, #0
     fb6:	da0e      	bge.n	fd6 <kprintf+0x53e>
/home/aom1/Work/Linux/target/STM32MP1-DK2/bootloader/buildroot/optee-os-custom/lib/libutils/ext/snprintk.c:392
     fb8:	e9d7 2320 	ldrd	r2, r3, [r7, #128]	; 0x80
     fbc:	2100      	movs	r1, #0
     fbe:	4250      	negs	r0, r2
     fc0:	60b8      	str	r0, [r7, #8]
     fc2:	eb61 0303 	sbc.w	r3, r1, r3
     fc6:	60fb      	str	r3, [r7, #12]
     fc8:	e9d7 2302 	ldrd	r2, r3, [r7, #8]
     fcc:	e9c7 2320 	strd	r2, r3, [r7, #128]	; 0x80
/home/aom1/Work/Linux/target/STM32MP1-DK2/bootloader/buildroot/optee-os-custom/lib/libutils/ext/snprintk.c:393
     fd0:	232d      	movs	r3, #45	; 0x2d
     fd2:	f887 308f 	strb.w	r3, [r7, #143]	; 0x8f
/home/aom1/Work/Linux/target/STM32MP1-DK2/bootloader/buildroot/optee-os-custom/lib/libutils/ext/snprintk.c:395
     fd6:	2301      	movs	r3, #1
     fd8:	67fb      	str	r3, [r7, #124]	; 0x7c
/home/aom1/Work/Linux/target/STM32MP1-DK2/bootloader/buildroot/optee-os-custom/lib/libutils/ext/snprintk.c:396
     fda:	e285      	b.n	14e8 <kprintf+0xa50>
/home/aom1/Work/Linux/target/STM32MP1-DK2/bootloader/buildroot/optee-os-custom/lib/libutils/ext/snprintk.c:398
     fdc:	f8d7 309c 	ldr.w	r3, [r7, #156]	; 0x9c
     fe0:	f003 0380 	and.w	r3, r3, #128	; 0x80
     fe4:	2b00      	cmp	r3, #0
     fe6:	d010      	beq.n	100a <kprintf+0x572>
/home/aom1/Work/Linux/target/STM32MP1-DK2/bootloader/buildroot/optee-os-custom/lib/libutils/ext/snprintk.c:399
     fe8:	f8d7 20d0 	ldr.w	r2, [r7, #208]	; 0xd0
     fec:	1d13      	adds	r3, r2, #4
     fee:	f8c7 30d0 	str.w	r3, [r7, #208]	; 0xd0
     ff2:	6811      	ldr	r1, [r2, #0]
     ff4:	f8d7 3098 	ldr.w	r3, [r7, #152]	; 0x98
     ff8:	17da      	asrs	r2, r3, #31
     ffa:	61bb      	str	r3, [r7, #24]
     ffc:	61fa      	str	r2, [r7, #28]
     ffe:	e9d7 2306 	ldrd	r2, r3, [r7, #24]
    1002:	e9c1 2300 	strd	r2, r3, [r1]
/home/aom1/Work/Linux/target/STM32MP1-DK2/bootloader/buildroot/optee-os-custom/lib/libutils/ext/snprintk.c:412
    1006:	f000 bc66 	b.w	18d6 <kprintf+0xe3e>
/home/aom1/Work/Linux/target/STM32MP1-DK2/bootloader/buildroot/optee-os-custom/lib/libutils/ext/snprintk.c:400
    100a:	f8d7 309c 	ldr.w	r3, [r7, #156]	; 0x9c
    100e:	f403 7380 	and.w	r3, r3, #256	; 0x100
    1012:	2b00      	cmp	r3, #0
    1014:	d00a      	beq.n	102c <kprintf+0x594>
/home/aom1/Work/Linux/target/STM32MP1-DK2/bootloader/buildroot/optee-os-custom/lib/libutils/ext/snprintk.c:401
    1016:	f8d7 20d0 	ldr.w	r2, [r7, #208]	; 0xd0
    101a:	1d13      	adds	r3, r2, #4
    101c:	f8c7 30d0 	str.w	r3, [r7, #208]	; 0xd0
    1020:	6812      	ldr	r2, [r2, #0]
    1022:	f8d7 3098 	ldr.w	r3, [r7, #152]	; 0x98
    1026:	6013      	str	r3, [r2, #0]
/home/aom1/Work/Linux/target/STM32MP1-DK2/bootloader/buildroot/optee-os-custom/lib/libutils/ext/snprintk.c:412
    1028:	f000 bc55 	b.w	18d6 <kprintf+0xe3e>
/home/aom1/Work/Linux/target/STM32MP1-DK2/bootloader/buildroot/optee-os-custom/lib/libutils/ext/snprintk.c:402
    102c:	f8d7 309c 	ldr.w	r3, [r7, #156]	; 0x9c
    1030:	f403 7300 	and.w	r3, r3, #512	; 0x200
    1034:	2b00      	cmp	r3, #0
    1036:	d00a      	beq.n	104e <kprintf+0x5b6>
/home/aom1/Work/Linux/target/STM32MP1-DK2/bootloader/buildroot/optee-os-custom/lib/libutils/ext/snprintk.c:403
    1038:	f8d7 20d0 	ldr.w	r2, [r7, #208]	; 0xd0
    103c:	1d13      	adds	r3, r2, #4
    103e:	f8c7 30d0 	str.w	r3, [r7, #208]	; 0xd0
    1042:	6812      	ldr	r2, [r2, #0]
    1044:	f8d7 3098 	ldr.w	r3, [r7, #152]	; 0x98
    1048:	6013      	str	r3, [r2, #0]
/home/aom1/Work/Linux/target/STM32MP1-DK2/bootloader/buildroot/optee-os-custom/lib/libutils/ext/snprintk.c:412
    104a:	f000 bc44 	b.w	18d6 <kprintf+0xe3e>
/home/aom1/Work/Linux/target/STM32MP1-DK2/bootloader/buildroot/optee-os-custom/lib/libutils/ext/snprintk.c:404
    104e:	f8d7 309c 	ldr.w	r3, [r7, #156]	; 0x9c
    1052:	f003 0320 	and.w	r3, r3, #32
    1056:	2b00      	cmp	r3, #0
    1058:	d010      	beq.n	107c <kprintf+0x5e4>
/home/aom1/Work/Linux/target/STM32MP1-DK2/bootloader/buildroot/optee-os-custom/lib/libutils/ext/snprintk.c:405
    105a:	f8d7 20d0 	ldr.w	r2, [r7, #208]	; 0xd0
    105e:	1d13      	adds	r3, r2, #4
    1060:	f8c7 30d0 	str.w	r3, [r7, #208]	; 0xd0
    1064:	6811      	ldr	r1, [r2, #0]
    1066:	f8d7 3098 	ldr.w	r3, [r7, #152]	; 0x98
    106a:	17da      	asrs	r2, r3, #31
    106c:	613b      	str	r3, [r7, #16]
    106e:	617a      	str	r2, [r7, #20]
    1070:	e9d7 2304 	ldrd	r2, r3, [r7, #16]
    1074:	e9c1 2300 	strd	r2, r3, [r1]
/home/aom1/Work/Linux/target/STM32MP1-DK2/bootloader/buildroot/optee-os-custom/lib/libutils/ext/snprintk.c:412
    1078:	f000 bc2d 	b.w	18d6 <kprintf+0xe3e>
/home/aom1/Work/Linux/target/STM32MP1-DK2/bootloader/buildroot/optee-os-custom/lib/libutils/ext/snprintk.c:406
    107c:	f8d7 309c 	ldr.w	r3, [r7, #156]	; 0x9c
    1080:	f003 0310 	and.w	r3, r3, #16
    1084:	2b00      	cmp	r3, #0
    1086:	d00a      	beq.n	109e <kprintf+0x606>
/home/aom1/Work/Linux/target/STM32MP1-DK2/bootloader/buildroot/optee-os-custom/lib/libutils/ext/snprintk.c:407
    1088:	f8d7 20d0 	ldr.w	r2, [r7, #208]	; 0xd0
    108c:	1d13      	adds	r3, r2, #4
    108e:	f8c7 30d0 	str.w	r3, [r7, #208]	; 0xd0
    1092:	6812      	ldr	r2, [r2, #0]
    1094:	f8d7 3098 	ldr.w	r3, [r7, #152]	; 0x98
    1098:	6013      	str	r3, [r2, #0]
/home/aom1/Work/Linux/target/STM32MP1-DK2/bootloader/buildroot/optee-os-custom/lib/libutils/ext/snprintk.c:412
    109a:	f000 bc1c 	b.w	18d6 <kprintf+0xe3e>
/home/aom1/Work/Linux/target/STM32MP1-DK2/bootloader/buildroot/optee-os-custom/lib/libutils/ext/snprintk.c:408
    109e:	f8d7 309c 	ldr.w	r3, [r7, #156]	; 0x9c
    10a2:	f003 0340 	and.w	r3, r3, #64	; 0x40
    10a6:	2b00      	cmp	r3, #0
    10a8:	d00b      	beq.n	10c2 <kprintf+0x62a>
/home/aom1/Work/Linux/target/STM32MP1-DK2/bootloader/buildroot/optee-os-custom/lib/libutils/ext/snprintk.c:409
    10aa:	f8d7 20d0 	ldr.w	r2, [r7, #208]	; 0xd0
    10ae:	1d13      	adds	r3, r2, #4
    10b0:	f8c7 30d0 	str.w	r3, [r7, #208]	; 0xd0
    10b4:	6812      	ldr	r2, [r2, #0]
    10b6:	f8d7 3098 	ldr.w	r3, [r7, #152]	; 0x98
    10ba:	b21b      	sxth	r3, r3
    10bc:	8013      	strh	r3, [r2, #0]
/home/aom1/Work/Linux/target/STM32MP1-DK2/bootloader/buildroot/optee-os-custom/lib/libutils/ext/snprintk.c:412
    10be:	f000 bc0a 	b.w	18d6 <kprintf+0xe3e>
/home/aom1/Work/Linux/target/STM32MP1-DK2/bootloader/buildroot/optee-os-custom/lib/libutils/ext/snprintk.c:411
    10c2:	f8d7 20d0 	ldr.w	r2, [r7, #208]	; 0xd0
    10c6:	1d13      	adds	r3, r2, #4
    10c8:	f8c7 30d0 	str.w	r3, [r7, #208]	; 0xd0
    10cc:	6812      	ldr	r2, [r2, #0]
    10ce:	f8d7 3098 	ldr.w	r3, [r7, #152]	; 0x98
    10d2:	6013      	str	r3, [r2, #0]
/home/aom1/Work/Linux/target/STM32MP1-DK2/bootloader/buildroot/optee-os-custom/lib/libutils/ext/snprintk.c:412
    10d4:	e3ff      	b.n	18d6 <kprintf+0xe3e>
/home/aom1/Work/Linux/target/STM32MP1-DK2/bootloader/buildroot/optee-os-custom/lib/libutils/ext/snprintk.c:414
    10d6:	f8d7 309c 	ldr.w	r3, [r7, #156]	; 0x9c
    10da:	f043 0310 	orr.w	r3, r3, #16
    10de:	f8c7 309c 	str.w	r3, [r7, #156]	; 0x9c
/home/aom1/Work/Linux/target/STM32MP1-DK2/bootloader/buildroot/optee-os-custom/lib/libutils/ext/snprintk.c:417
    10e2:	f8d7 309c 	ldr.w	r3, [r7, #156]	; 0x9c
    10e6:	f003 0380 	and.w	r3, r3, #128	; 0x80
    10ea:	2b00      	cmp	r3, #0
    10ec:	d00b      	beq.n	1106 <kprintf+0x66e>
    10ee:	f8d7 30d0 	ldr.w	r3, [r7, #208]	; 0xd0
    10f2:	3307      	adds	r3, #7
    10f4:	f023 0207 	bic.w	r2, r3, #7
    10f8:	f102 0308 	add.w	r3, r2, #8
    10fc:	f8c7 30d0 	str.w	r3, [r7, #208]	; 0xd0
    1100:	e9d2 4500 	ldrd	r4, r5, [r2]
    1104:	e05c      	b.n	11c0 <kprintf+0x728>
/home/aom1/Work/Linux/target/STM32MP1-DK2/bootloader/buildroot/optee-os-custom/lib/libutils/ext/snprintk.c:417 (discriminator 2)
    1106:	f8d7 309c 	ldr.w	r3, [r7, #156]	; 0x9c
    110a:	f403 7380 	and.w	r3, r3, #256	; 0x100
    110e:	2b00      	cmp	r3, #0
    1110:	d009      	beq.n	1126 <kprintf+0x68e>
/home/aom1/Work/Linux/target/STM32MP1-DK2/bootloader/buildroot/optee-os-custom/lib/libutils/ext/snprintk.c:417
    1112:	f8d7 20d0 	ldr.w	r2, [r7, #208]	; 0xd0
    1116:	1d13      	adds	r3, r2, #4
    1118:	f8c7 30d0 	str.w	r3, [r7, #208]	; 0xd0
    111c:	6813      	ldr	r3, [r2, #0]
    111e:	2200      	movs	r2, #0
    1120:	461c      	mov	r4, r3
    1122:	4615      	mov	r5, r2
    1124:	e04c      	b.n	11c0 <kprintf+0x728>
/home/aom1/Work/Linux/target/STM32MP1-DK2/bootloader/buildroot/optee-os-custom/lib/libutils/ext/snprintk.c:417 (discriminator 5)
    1126:	f8d7 309c 	ldr.w	r3, [r7, #156]	; 0x9c
    112a:	f403 7300 	and.w	r3, r3, #512	; 0x200
    112e:	2b00      	cmp	r3, #0
    1130:	d009      	beq.n	1146 <kprintf+0x6ae>
/home/aom1/Work/Linux/target/STM32MP1-DK2/bootloader/buildroot/optee-os-custom/lib/libutils/ext/snprintk.c:417
    1132:	f8d7 20d0 	ldr.w	r2, [r7, #208]	; 0xd0
    1136:	1d13      	adds	r3, r2, #4
    1138:	f8c7 30d0 	str.w	r3, [r7, #208]	; 0xd0
    113c:	6813      	ldr	r3, [r2, #0]
    113e:	2200      	movs	r2, #0
    1140:	461c      	mov	r4, r3
    1142:	4615      	mov	r5, r2
    1144:	e03c      	b.n	11c0 <kprintf+0x728>
/home/aom1/Work/Linux/target/STM32MP1-DK2/bootloader/buildroot/optee-os-custom/lib/libutils/ext/snprintk.c:417 (discriminator 8)
    1146:	f8d7 309c 	ldr.w	r3, [r7, #156]	; 0x9c
    114a:	f003 0320 	and.w	r3, r3, #32
    114e:	2b00      	cmp	r3, #0
    1150:	d00b      	beq.n	116a <kprintf+0x6d2>
/home/aom1/Work/Linux/target/STM32MP1-DK2/bootloader/buildroot/optee-os-custom/lib/libutils/ext/snprintk.c:417
    1152:	f8d7 30d0 	ldr.w	r3, [r7, #208]	; 0xd0
    1156:	3307      	adds	r3, #7
    1158:	f023 0207 	bic.w	r2, r3, #7
    115c:	f102 0308 	add.w	r3, r2, #8
    1160:	f8c7 30d0 	str.w	r3, [r7, #208]	; 0xd0
    1164:	e9d2 4500 	ldrd	r4, r5, [r2]
    1168:	e02a      	b.n	11c0 <kprintf+0x728>
/home/aom1/Work/Linux/target/STM32MP1-DK2/bootloader/buildroot/optee-os-custom/lib/libutils/ext/snprintk.c:417 (discriminator 11)
    116a:	f8d7 309c 	ldr.w	r3, [r7, #156]	; 0x9c
    116e:	f003 0310 	and.w	r3, r3, #16
    1172:	2b00      	cmp	r3, #0
    1174:	d009      	beq.n	118a <kprintf+0x6f2>
/home/aom1/Work/Linux/target/STM32MP1-DK2/bootloader/buildroot/optee-os-custom/lib/libutils/ext/snprintk.c:417
    1176:	f8d7 20d0 	ldr.w	r2, [r7, #208]	; 0xd0
    117a:	1d13      	adds	r3, r2, #4
    117c:	f8c7 30d0 	str.w	r3, [r7, #208]	; 0xd0
    1180:	6813      	ldr	r3, [r2, #0]
    1182:	2200      	movs	r2, #0
    1184:	461c      	mov	r4, r3
    1186:	4615      	mov	r5, r2
    1188:	e01a      	b.n	11c0 <kprintf+0x728>
/home/aom1/Work/Linux/target/STM32MP1-DK2/bootloader/buildroot/optee-os-custom/lib/libutils/ext/snprintk.c:417 (discriminator 14)
    118a:	f8d7 309c 	ldr.w	r3, [r7, #156]	; 0x9c
    118e:	f003 0340 	and.w	r3, r3, #64	; 0x40
    1192:	2b00      	cmp	r3, #0
    1194:	d00b      	beq.n	11ae <kprintf+0x716>
/home/aom1/Work/Linux/target/STM32MP1-DK2/bootloader/buildroot/optee-os-custom/lib/libutils/ext/snprintk.c:417
    1196:	f8d7 20d0 	ldr.w	r2, [r7, #208]	; 0xd0
    119a:	1d13      	adds	r3, r2, #4
    119c:	f8c7 30d0 	str.w	r3, [r7, #208]	; 0xd0
    11a0:	6813      	ldr	r3, [r2, #0]
    11a2:	b29b      	uxth	r3, r3
    11a4:	b29b      	uxth	r3, r3
    11a6:	2200      	movs	r2, #0
    11a8:	461c      	mov	r4, r3
    11aa:	4615      	mov	r5, r2
    11ac:	e008      	b.n	11c0 <kprintf+0x728>
    11ae:	f8d7 20d0 	ldr.w	r2, [r7, #208]	; 0xd0
    11b2:	1d13      	adds	r3, r2, #4
    11b4:	f8c7 30d0 	str.w	r3, [r7, #208]	; 0xd0
    11b8:	6813      	ldr	r3, [r2, #0]
    11ba:	2200      	movs	r2, #0
    11bc:	461c      	mov	r4, r3
    11be:	4615      	mov	r5, r2
/home/aom1/Work/Linux/target/STM32MP1-DK2/bootloader/buildroot/optee-os-custom/lib/libutils/ext/snprintk.c:417 (discriminator 24)
    11c0:	e9c7 4520 	strd	r4, r5, [r7, #128]	; 0x80
/home/aom1/Work/Linux/target/STM32MP1-DK2/bootloader/buildroot/optee-os-custom/lib/libutils/ext/snprintk.c:418 (discriminator 24)
    11c4:	2300      	movs	r3, #0
    11c6:	67fb      	str	r3, [r7, #124]	; 0x7c
/home/aom1/Work/Linux/target/STM32MP1-DK2/bootloader/buildroot/optee-os-custom/lib/libutils/ext/snprintk.c:419 (discriminator 24)
    11c8:	e18b      	b.n	14e2 <kprintf+0xa4a>
/home/aom1/Work/Linux/target/STM32MP1-DK2/bootloader/buildroot/optee-os-custom/lib/libutils/ext/snprintk.c:421
    11ca:	f897 30d4 	ldrb.w	r3, [r7, #212]	; 0xd4
    11ce:	2b00      	cmp	r3, #0
    11d0:	d024      	beq.n	121c <kprintf+0x784>
/home/aom1/Work/Linux/target/STM32MP1-DK2/bootloader/buildroot/optee-os-custom/lib/libutils/ext/snprintk.c:421 (discriminator 1)
    11d2:	f8d7 30ac 	ldr.w	r3, [r7, #172]	; 0xac
    11d6:	781b      	ldrb	r3, [r3, #0]
    11d8:	2b55      	cmp	r3, #85	; 0x55
    11da:	d11f      	bne.n	121c <kprintf+0x784>
/home/aom1/Work/Linux/target/STM32MP1-DK2/bootloader/buildroot/optee-os-custom/lib/libutils/ext/snprintk.c:421 (discriminator 2)
    11dc:	f8d7 30ac 	ldr.w	r3, [r7, #172]	; 0xac
    11e0:	3301      	adds	r3, #1
    11e2:	781b      	ldrb	r3, [r3, #0]
    11e4:	2b6c      	cmp	r3, #108	; 0x6c
    11e6:	d119      	bne.n	121c <kprintf+0x784>
/home/aom1/Work/Linux/target/STM32MP1-DK2/bootloader/buildroot/optee-os-custom/lib/libutils/ext/snprintk.c:426
    11e8:	f8d7 30ac 	ldr.w	r3, [r7, #172]	; 0xac
    11ec:	3302      	adds	r3, #2
    11ee:	f8c7 30ac 	str.w	r3, [r7, #172]	; 0xac
/home/aom1/Work/Linux/target/STM32MP1-DK2/bootloader/buildroot/optee-os-custom/lib/libutils/ext/snprintk.c:427
    11f2:	f8d7 20d0 	ldr.w	r2, [r7, #208]	; 0xd0
    11f6:	1d13      	adds	r3, r2, #4
    11f8:	f8c7 30d0 	str.w	r3, [r7, #208]	; 0xd0
    11fc:	6813      	ldr	r3, [r2, #0]
    11fe:	f107 003c 	add.w	r0, r7, #60	; 0x3c
    1202:	461a      	mov	r2, r3
    1204:	2125      	movs	r1, #37	; 0x25
    1206:	f7ff fc03 	bl	a10 <uuid2str>
    120a:	6738      	str	r0, [r7, #112]	; 0x70
/home/aom1/Work/Linux/target/STM32MP1-DK2/bootloader/buildroot/optee-os-custom/lib/libutils/ext/snprintk.c:429
    120c:	f107 033c 	add.w	r3, r7, #60	; 0x3c
    1210:	f8c7 30a0 	str.w	r3, [r7, #160]	; 0xa0
/home/aom1/Work/Linux/target/STM32MP1-DK2/bootloader/buildroot/optee-os-custom/lib/libutils/ext/snprintk.c:430
    1214:	2300      	movs	r3, #0
    1216:	f887 308f 	strb.w	r3, [r7, #143]	; 0x8f
/home/aom1/Work/Linux/target/STM32MP1-DK2/bootloader/buildroot/optee-os-custom/lib/libutils/ext/snprintk.c:431
    121a:	e242      	b.n	16a2 <kprintf+0xc0a>
/home/aom1/Work/Linux/target/STM32MP1-DK2/bootloader/buildroot/optee-os-custom/lib/libutils/ext/snprintk.c:441
    121c:	f8d7 20d0 	ldr.w	r2, [r7, #208]	; 0xd0
    1220:	1d13      	adds	r3, r2, #4
    1222:	f8c7 30d0 	str.w	r3, [r7, #208]	; 0xd0
    1226:	6813      	ldr	r3, [r2, #0]
    1228:	461a      	mov	r2, r3
    122a:	2300      	movs	r3, #0
    122c:	603a      	str	r2, [r7, #0]
    122e:	607b      	str	r3, [r7, #4]
    1230:	e9d7 2300 	ldrd	r2, r3, [r7]
    1234:	e9c7 2320 	strd	r2, r3, [r7, #128]	; 0x80
/home/aom1/Work/Linux/target/STM32MP1-DK2/bootloader/buildroot/optee-os-custom/lib/libutils/ext/snprintk.c:442
    1238:	2302      	movs	r3, #2
    123a:	67fb      	str	r3, [r7, #124]	; 0x7c
/home/aom1/Work/Linux/target/STM32MP1-DK2/bootloader/buildroot/optee-os-custom/lib/libutils/ext/snprintk.c:443
    123c:	f8df 36c0 	ldr.w	r3, [pc, #1728]	; 1900 <kprintf+0xe68>
    1240:	447b      	add	r3, pc
    1242:	66fb      	str	r3, [r7, #108]	; 0x6c
/home/aom1/Work/Linux/target/STM32MP1-DK2/bootloader/buildroot/optee-os-custom/lib/libutils/ext/snprintk.c:444
    1244:	f8d7 309c 	ldr.w	r3, [r7, #156]	; 0x9c
    1248:	f043 0302 	orr.w	r3, r3, #2
    124c:	f8c7 309c 	str.w	r3, [r7, #156]	; 0x9c
/home/aom1/Work/Linux/target/STM32MP1-DK2/bootloader/buildroot/optee-os-custom/lib/libutils/ext/snprintk.c:445
    1250:	2378      	movs	r3, #120	; 0x78
    1252:	f8c7 30a8 	str.w	r3, [r7, #168]	; 0xa8
/home/aom1/Work/Linux/target/STM32MP1-DK2/bootloader/buildroot/optee-os-custom/lib/libutils/ext/snprintk.c:446
    1256:	e144      	b.n	14e2 <kprintf+0xa4a>
/home/aom1/Work/Linux/target/STM32MP1-DK2/bootloader/buildroot/optee-os-custom/lib/libutils/ext/snprintk.c:448
    1258:	f8d7 20d0 	ldr.w	r2, [r7, #208]	; 0xd0
    125c:	1d13      	adds	r3, r2, #4
    125e:	f8c7 30d0 	str.w	r3, [r7, #208]	; 0xd0
    1262:	6813      	ldr	r3, [r2, #0]
    1264:	f8c7 30a0 	str.w	r3, [r7, #160]	; 0xa0
    1268:	f8d7 30a0 	ldr.w	r3, [r7, #160]	; 0xa0
    126c:	2b00      	cmp	r3, #0
    126e:	d104      	bne.n	127a <kprintf+0x7e2>
/home/aom1/Work/Linux/target/STM32MP1-DK2/bootloader/buildroot/optee-os-custom/lib/libutils/ext/snprintk.c:450
    1270:	f8df 3690 	ldr.w	r3, [pc, #1680]	; 1904 <kprintf+0xe6c>
    1274:	447b      	add	r3, pc
    1276:	f8c7 30a0 	str.w	r3, [r7, #160]	; 0xa0
/home/aom1/Work/Linux/target/STM32MP1-DK2/bootloader/buildroot/optee-os-custom/lib/libutils/ext/snprintk.c:451
    127a:	f8d7 3090 	ldr.w	r3, [r7, #144]	; 0x90
    127e:	2b00      	cmp	r3, #0
    1280:	db1d      	blt.n	12be <kprintf+0x826>
/home/aom1/Work/Linux/target/STM32MP1-DK2/bootloader/buildroot/optee-os-custom/lib/libutils/ext/snprintk.c:457
    1282:	f8d7 3090 	ldr.w	r3, [r7, #144]	; 0x90
    1286:	461a      	mov	r2, r3
    1288:	2100      	movs	r1, #0
    128a:	f8d7 00a0 	ldr.w	r0, [r7, #160]	; 0xa0
    128e:	f00c f9d8 	bl	d642 <memchr>
    1292:	6678      	str	r0, [r7, #100]	; 0x64
/home/aom1/Work/Linux/target/STM32MP1-DK2/bootloader/buildroot/optee-os-custom/lib/libutils/ext/snprintk.c:459
    1294:	6e7b      	ldr	r3, [r7, #100]	; 0x64
    1296:	2b00      	cmp	r3, #0
    1298:	d00d      	beq.n	12b6 <kprintf+0x81e>
/home/aom1/Work/Linux/target/STM32MP1-DK2/bootloader/buildroot/optee-os-custom/lib/libutils/ext/snprintk.c:460
    129a:	6e7a      	ldr	r2, [r7, #100]	; 0x64
    129c:	f8d7 30a0 	ldr.w	r3, [r7, #160]	; 0xa0
    12a0:	1ad3      	subs	r3, r2, r3
    12a2:	673b      	str	r3, [r7, #112]	; 0x70
/home/aom1/Work/Linux/target/STM32MP1-DK2/bootloader/buildroot/optee-os-custom/lib/libutils/ext/snprintk.c:461
    12a4:	6f3a      	ldr	r2, [r7, #112]	; 0x70
    12a6:	f8d7 3090 	ldr.w	r3, [r7, #144]	; 0x90
    12aa:	429a      	cmp	r2, r3
    12ac:	dd0d      	ble.n	12ca <kprintf+0x832>
/home/aom1/Work/Linux/target/STM32MP1-DK2/bootloader/buildroot/optee-os-custom/lib/libutils/ext/snprintk.c:462
    12ae:	f8d7 3090 	ldr.w	r3, [r7, #144]	; 0x90
    12b2:	673b      	str	r3, [r7, #112]	; 0x70
    12b4:	e009      	b.n	12ca <kprintf+0x832>
/home/aom1/Work/Linux/target/STM32MP1-DK2/bootloader/buildroot/optee-os-custom/lib/libutils/ext/snprintk.c:464
    12b6:	f8d7 3090 	ldr.w	r3, [r7, #144]	; 0x90
    12ba:	673b      	str	r3, [r7, #112]	; 0x70
    12bc:	e005      	b.n	12ca <kprintf+0x832>
/home/aom1/Work/Linux/target/STM32MP1-DK2/bootloader/buildroot/optee-os-custom/lib/libutils/ext/snprintk.c:466
    12be:	f8d7 00a0 	ldr.w	r0, [r7, #160]	; 0xa0
    12c2:	f00c fa33 	bl	d72c <strlen>
    12c6:	4603      	mov	r3, r0
    12c8:	673b      	str	r3, [r7, #112]	; 0x70
/home/aom1/Work/Linux/target/STM32MP1-DK2/bootloader/buildroot/optee-os-custom/lib/libutils/ext/snprintk.c:467
    12ca:	2300      	movs	r3, #0
    12cc:	f887 308f 	strb.w	r3, [r7, #143]	; 0x8f
/home/aom1/Work/Linux/target/STM32MP1-DK2/bootloader/buildroot/optee-os-custom/lib/libutils/ext/snprintk.c:468
    12d0:	e1e7      	b.n	16a2 <kprintf+0xc0a>
/home/aom1/Work/Linux/target/STM32MP1-DK2/bootloader/buildroot/optee-os-custom/lib/libutils/ext/snprintk.c:470
    12d2:	f8d7 309c 	ldr.w	r3, [r7, #156]	; 0x9c
    12d6:	f043 0310 	orr.w	r3, r3, #16
    12da:	f8c7 309c 	str.w	r3, [r7, #156]	; 0x9c
/home/aom1/Work/Linux/target/STM32MP1-DK2/bootloader/buildroot/optee-os-custom/lib/libutils/ext/snprintk.c:473
    12de:	f8d7 309c 	ldr.w	r3, [r7, #156]	; 0x9c
    12e2:	f003 0380 	and.w	r3, r3, #128	; 0x80
    12e6:	2b00      	cmp	r3, #0
    12e8:	d00b      	beq.n	1302 <kprintf+0x86a>
    12ea:	f8d7 30d0 	ldr.w	r3, [r7, #208]	; 0xd0
    12ee:	3307      	adds	r3, #7
    12f0:	f023 0207 	bic.w	r2, r3, #7
    12f4:	f102 0308 	add.w	r3, r2, #8
    12f8:	f8c7 30d0 	str.w	r3, [r7, #208]	; 0xd0
    12fc:	e9d2 8900 	ldrd	r8, r9, [r2]
    1300:	e05c      	b.n	13bc <kprintf+0x924>
/home/aom1/Work/Linux/target/STM32MP1-DK2/bootloader/buildroot/optee-os-custom/lib/libutils/ext/snprintk.c:473 (discriminator 2)
    1302:	f8d7 309c 	ldr.w	r3, [r7, #156]	; 0x9c
    1306:	f403 7380 	and.w	r3, r3, #256	; 0x100
    130a:	2b00      	cmp	r3, #0
    130c:	d009      	beq.n	1322 <kprintf+0x88a>
/home/aom1/Work/Linux/target/STM32MP1-DK2/bootloader/buildroot/optee-os-custom/lib/libutils/ext/snprintk.c:473
    130e:	f8d7 20d0 	ldr.w	r2, [r7, #208]	; 0xd0
    1312:	1d13      	adds	r3, r2, #4
    1314:	f8c7 30d0 	str.w	r3, [r7, #208]	; 0xd0
    1318:	6813      	ldr	r3, [r2, #0]
    131a:	2200      	movs	r2, #0
    131c:	4698      	mov	r8, r3
    131e:	4691      	mov	r9, r2
    1320:	e04c      	b.n	13bc <kprintf+0x924>
/home/aom1/Work/Linux/target/STM32MP1-DK2/bootloader/buildroot/optee-os-custom/lib/libutils/ext/snprintk.c:473 (discriminator 5)
    1322:	f8d7 309c 	ldr.w	r3, [r7, #156]	; 0x9c
    1326:	f403 7300 	and.w	r3, r3, #512	; 0x200
    132a:	2b00      	cmp	r3, #0
    132c:	d009      	beq.n	1342 <kprintf+0x8aa>
/home/aom1/Work/Linux/target/STM32MP1-DK2/bootloader/buildroot/optee-os-custom/lib/libutils/ext/snprintk.c:473
    132e:	f8d7 20d0 	ldr.w	r2, [r7, #208]	; 0xd0
    1332:	1d13      	adds	r3, r2, #4
    1334:	f8c7 30d0 	str.w	r3, [r7, #208]	; 0xd0
    1338:	6813      	ldr	r3, [r2, #0]
    133a:	2200      	movs	r2, #0
    133c:	4698      	mov	r8, r3
    133e:	4691      	mov	r9, r2
    1340:	e03c      	b.n	13bc <kprintf+0x924>
/home/aom1/Work/Linux/target/STM32MP1-DK2/bootloader/buildroot/optee-os-custom/lib/libutils/ext/snprintk.c:473 (discriminator 8)
    1342:	f8d7 309c 	ldr.w	r3, [r7, #156]	; 0x9c
    1346:	f003 0320 	and.w	r3, r3, #32
    134a:	2b00      	cmp	r3, #0
    134c:	d00b      	beq.n	1366 <kprintf+0x8ce>
/home/aom1/Work/Linux/target/STM32MP1-DK2/bootloader/buildroot/optee-os-custom/lib/libutils/ext/snprintk.c:473
    134e:	f8d7 30d0 	ldr.w	r3, [r7, #208]	; 0xd0
    1352:	3307      	adds	r3, #7
    1354:	f023 0207 	bic.w	r2, r3, #7
    1358:	f102 0308 	add.w	r3, r2, #8
    135c:	f8c7 30d0 	str.w	r3, [r7, #208]	; 0xd0
    1360:	e9d2 8900 	ldrd	r8, r9, [r2]
    1364:	e02a      	b.n	13bc <kprintf+0x924>
/home/aom1/Work/Linux/target/STM32MP1-DK2/bootloader/buildroot/optee-os-custom/lib/libutils/ext/snprintk.c:473 (discriminator 11)
    1366:	f8d7 309c 	ldr.w	r3, [r7, #156]	; 0x9c
    136a:	f003 0310 	and.w	r3, r3, #16
    136e:	2b00      	cmp	r3, #0
    1370:	d009      	beq.n	1386 <kprintf+0x8ee>
/home/aom1/Work/Linux/target/STM32MP1-DK2/bootloader/buildroot/optee-os-custom/lib/libutils/ext/snprintk.c:473
    1372:	f8d7 20d0 	ldr.w	r2, [r7, #208]	; 0xd0
    1376:	1d13      	adds	r3, r2, #4
    1378:	f8c7 30d0 	str.w	r3, [r7, #208]	; 0xd0
    137c:	6813      	ldr	r3, [r2, #0]
    137e:	2200      	movs	r2, #0
    1380:	4698      	mov	r8, r3
    1382:	4691      	mov	r9, r2
    1384:	e01a      	b.n	13bc <kprintf+0x924>
/home/aom1/Work/Linux/target/STM32MP1-DK2/bootloader/buildroot/optee-os-custom/lib/libutils/ext/snprintk.c:473 (discriminator 14)
    1386:	f8d7 309c 	ldr.w	r3, [r7, #156]	; 0x9c
    138a:	f003 0340 	and.w	r3, r3, #64	; 0x40
    138e:	2b00      	cmp	r3, #0
    1390:	d00b      	beq.n	13aa <kprintf+0x912>
/home/aom1/Work/Linux/target/STM32MP1-DK2/bootloader/buildroot/optee-os-custom/lib/libutils/ext/snprintk.c:473
    1392:	f8d7 20d0 	ldr.w	r2, [r7, #208]	; 0xd0
    1396:	1d13      	adds	r3, r2, #4
    1398:	f8c7 30d0 	str.w	r3, [r7, #208]	; 0xd0
    139c:	6813      	ldr	r3, [r2, #0]
    139e:	b29b      	uxth	r3, r3
    13a0:	b29b      	uxth	r3, r3
    13a2:	2200      	movs	r2, #0
    13a4:	4698      	mov	r8, r3
    13a6:	4691      	mov	r9, r2
    13a8:	e008      	b.n	13bc <kprintf+0x924>
    13aa:	f8d7 20d0 	ldr.w	r2, [r7, #208]	; 0xd0
    13ae:	1d13      	adds	r3, r2, #4
    13b0:	f8c7 30d0 	str.w	r3, [r7, #208]	; 0xd0
    13b4:	6813      	ldr	r3, [r2, #0]
    13b6:	2200      	movs	r2, #0
    13b8:	4698      	mov	r8, r3
    13ba:	4691      	mov	r9, r2
/home/aom1/Work/Linux/target/STM32MP1-DK2/bootloader/buildroot/optee-os-custom/lib/libutils/ext/snprintk.c:473 (discriminator 24)
    13bc:	e9c7 8920 	strd	r8, r9, [r7, #128]	; 0x80
/home/aom1/Work/Linux/target/STM32MP1-DK2/bootloader/buildroot/optee-os-custom/lib/libutils/ext/snprintk.c:474 (discriminator 24)
    13c0:	2301      	movs	r3, #1
    13c2:	67fb      	str	r3, [r7, #124]	; 0x7c
/home/aom1/Work/Linux/target/STM32MP1-DK2/bootloader/buildroot/optee-os-custom/lib/libutils/ext/snprintk.c:475 (discriminator 24)
    13c4:	e08d      	b.n	14e2 <kprintf+0xa4a>
/home/aom1/Work/Linux/target/STM32MP1-DK2/bootloader/buildroot/optee-os-custom/lib/libutils/ext/snprintk.c:477
    13c6:	f8df 3540 	ldr.w	r3, [pc, #1344]	; 1908 <kprintf+0xe70>
    13ca:	447b      	add	r3, pc
    13cc:	66fb      	str	r3, [r7, #108]	; 0x6c
/home/aom1/Work/Linux/target/STM32MP1-DK2/bootloader/buildroot/optee-os-custom/lib/libutils/ext/snprintk.c:478
    13ce:	e003      	b.n	13d8 <kprintf+0x940>
/home/aom1/Work/Linux/target/STM32MP1-DK2/bootloader/buildroot/optee-os-custom/lib/libutils/ext/snprintk.c:480
    13d0:	f8df 3538 	ldr.w	r3, [pc, #1336]	; 190c <kprintf+0xe74>
    13d4:	447b      	add	r3, pc
    13d6:	66fb      	str	r3, [r7, #108]	; 0x6c
/home/aom1/Work/Linux/target/STM32MP1-DK2/bootloader/buildroot/optee-os-custom/lib/libutils/ext/snprintk.c:481
    13d8:	f8d7 309c 	ldr.w	r3, [r7, #156]	; 0x9c
    13dc:	f003 0380 	and.w	r3, r3, #128	; 0x80
    13e0:	2b00      	cmp	r3, #0
    13e2:	d00b      	beq.n	13fc <kprintf+0x964>
    13e4:	f8d7 30d0 	ldr.w	r3, [r7, #208]	; 0xd0
    13e8:	3307      	adds	r3, #7
    13ea:	f023 0207 	bic.w	r2, r3, #7
    13ee:	f102 0308 	add.w	r3, r2, #8
    13f2:	f8c7 30d0 	str.w	r3, [r7, #208]	; 0xd0
    13f6:	e9d2 ab00 	ldrd	sl, fp, [r2]
    13fa:	e05c      	b.n	14b6 <kprintf+0xa1e>
/home/aom1/Work/Linux/target/STM32MP1-DK2/bootloader/buildroot/optee-os-custom/lib/libutils/ext/snprintk.c:481 (discriminator 2)
    13fc:	f8d7 309c 	ldr.w	r3, [r7, #156]	; 0x9c
    1400:	f403 7380 	and.w	r3, r3, #256	; 0x100
    1404:	2b00      	cmp	r3, #0
    1406:	d009      	beq.n	141c <kprintf+0x984>
/home/aom1/Work/Linux/target/STM32MP1-DK2/bootloader/buildroot/optee-os-custom/lib/libutils/ext/snprintk.c:481
    1408:	f8d7 20d0 	ldr.w	r2, [r7, #208]	; 0xd0
    140c:	1d13      	adds	r3, r2, #4
    140e:	f8c7 30d0 	str.w	r3, [r7, #208]	; 0xd0
    1412:	6813      	ldr	r3, [r2, #0]
    1414:	2200      	movs	r2, #0
    1416:	469a      	mov	sl, r3
    1418:	4693      	mov	fp, r2
    141a:	e04c      	b.n	14b6 <kprintf+0xa1e>
/home/aom1/Work/Linux/target/STM32MP1-DK2/bootloader/buildroot/optee-os-custom/lib/libutils/ext/snprintk.c:481 (discriminator 5)
    141c:	f8d7 309c 	ldr.w	r3, [r7, #156]	; 0x9c
    1420:	f403 7300 	and.w	r3, r3, #512	; 0x200
    1424:	2b00      	cmp	r3, #0
    1426:	d009      	beq.n	143c <kprintf+0x9a4>
/home/aom1/Work/Linux/target/STM32MP1-DK2/bootloader/buildroot/optee-os-custom/lib/libutils/ext/snprintk.c:481
    1428:	f8d7 20d0 	ldr.w	r2, [r7, #208]	; 0xd0
    142c:	1d13      	adds	r3, r2, #4
    142e:	f8c7 30d0 	str.w	r3, [r7, #208]	; 0xd0
    1432:	6813      	ldr	r3, [r2, #0]
    1434:	2200      	movs	r2, #0
    1436:	469a      	mov	sl, r3
    1438:	4693      	mov	fp, r2
    143a:	e03c      	b.n	14b6 <kprintf+0xa1e>
/home/aom1/Work/Linux/target/STM32MP1-DK2/bootloader/buildroot/optee-os-custom/lib/libutils/ext/snprintk.c:481 (discriminator 8)
    143c:	f8d7 309c 	ldr.w	r3, [r7, #156]	; 0x9c
    1440:	f003 0320 	and.w	r3, r3, #32
    1444:	2b00      	cmp	r3, #0
    1446:	d00b      	beq.n	1460 <kprintf+0x9c8>
/home/aom1/Work/Linux/target/STM32MP1-DK2/bootloader/buildroot/optee-os-custom/lib/libutils/ext/snprintk.c:481
    1448:	f8d7 30d0 	ldr.w	r3, [r7, #208]	; 0xd0
    144c:	3307      	adds	r3, #7
    144e:	f023 0207 	bic.w	r2, r3, #7
    1452:	f102 0308 	add.w	r3, r2, #8
    1456:	f8c7 30d0 	str.w	r3, [r7, #208]	; 0xd0
    145a:	e9d2 ab00 	ldrd	sl, fp, [r2]
    145e:	e02a      	b.n	14b6 <kprintf+0xa1e>
/home/aom1/Work/Linux/target/STM32MP1-DK2/bootloader/buildroot/optee-os-custom/lib/libutils/ext/snprintk.c:481 (discriminator 11)
    1460:	f8d7 309c 	ldr.w	r3, [r7, #156]	; 0x9c
    1464:	f003 0310 	and.w	r3, r3, #16
    1468:	2b00      	cmp	r3, #0
    146a:	d009      	beq.n	1480 <kprintf+0x9e8>
/home/aom1/Work/Linux/target/STM32MP1-DK2/bootloader/buildroot/optee-os-custom/lib/libutils/ext/snprintk.c:481
    146c:	f8d7 20d0 	ldr.w	r2, [r7, #208]	; 0xd0
    1470:	1d13      	adds	r3, r2, #4
    1472:	f8c7 30d0 	str.w	r3, [r7, #208]	; 0xd0
    1476:	6813      	ldr	r3, [r2, #0]
    1478:	2200      	movs	r2, #0
    147a:	469a      	mov	sl, r3
    147c:	4693      	mov	fp, r2
    147e:	e01a      	b.n	14b6 <kprintf+0xa1e>
/home/aom1/Work/Linux/target/STM32MP1-DK2/bootloader/buildroot/optee-os-custom/lib/libutils/ext/snprintk.c:481 (discriminator 14)
    1480:	f8d7 309c 	ldr.w	r3, [r7, #156]	; 0x9c
    1484:	f003 0340 	and.w	r3, r3, #64	; 0x40
    1488:	2b00      	cmp	r3, #0
    148a:	d00b      	beq.n	14a4 <kprintf+0xa0c>
/home/aom1/Work/Linux/target/STM32MP1-DK2/bootloader/buildroot/optee-os-custom/lib/libutils/ext/snprintk.c:481
    148c:	f8d7 20d0 	ldr.w	r2, [r7, #208]	; 0xd0
    1490:	1d13      	adds	r3, r2, #4
    1492:	f8c7 30d0 	str.w	r3, [r7, #208]	; 0xd0
    1496:	6813      	ldr	r3, [r2, #0]
    1498:	b29b      	uxth	r3, r3
    149a:	b29b      	uxth	r3, r3
    149c:	2200      	movs	r2, #0
    149e:	469a      	mov	sl, r3
    14a0:	4693      	mov	fp, r2
    14a2:	e008      	b.n	14b6 <kprintf+0xa1e>
    14a4:	f8d7 20d0 	ldr.w	r2, [r7, #208]	; 0xd0
    14a8:	1d13      	adds	r3, r2, #4
    14aa:	f8c7 30d0 	str.w	r3, [r7, #208]	; 0xd0
    14ae:	6813      	ldr	r3, [r2, #0]
    14b0:	2200      	movs	r2, #0
    14b2:	469a      	mov	sl, r3
    14b4:	4693      	mov	fp, r2
/home/aom1/Work/Linux/target/STM32MP1-DK2/bootloader/buildroot/optee-os-custom/lib/libutils/ext/snprintk.c:481 (discriminator 24)
    14b6:	e9c7 ab20 	strd	sl, fp, [r7, #128]	; 0x80
/home/aom1/Work/Linux/target/STM32MP1-DK2/bootloader/buildroot/optee-os-custom/lib/libutils/ext/snprintk.c:482 (discriminator 24)
    14ba:	2302      	movs	r3, #2
    14bc:	67fb      	str	r3, [r7, #124]	; 0x7c
/home/aom1/Work/Linux/target/STM32MP1-DK2/bootloader/buildroot/optee-os-custom/lib/libutils/ext/snprintk.c:484 (discriminator 24)
    14be:	f8d7 309c 	ldr.w	r3, [r7, #156]	; 0x9c
    14c2:	f003 0301 	and.w	r3, r3, #1
    14c6:	2b00      	cmp	r3, #0
    14c8:	d00a      	beq.n	14e0 <kprintf+0xa48>
/home/aom1/Work/Linux/target/STM32MP1-DK2/bootloader/buildroot/optee-os-custom/lib/libutils/ext/snprintk.c:484 (discriminator 1)
    14ca:	e9d7 2320 	ldrd	r2, r3, [r7, #128]	; 0x80
    14ce:	4313      	orrs	r3, r2
    14d0:	d006      	beq.n	14e0 <kprintf+0xa48>
/home/aom1/Work/Linux/target/STM32MP1-DK2/bootloader/buildroot/optee-os-custom/lib/libutils/ext/snprintk.c:485
    14d2:	f8d7 309c 	ldr.w	r3, [r7, #156]	; 0x9c
    14d6:	f043 0302 	orr.w	r3, r3, #2
    14da:	f8c7 309c 	str.w	r3, [r7, #156]	; 0x9c
    14de:	e000      	b.n	14e2 <kprintf+0xa4a>
/home/aom1/Work/Linux/target/STM32MP1-DK2/bootloader/buildroot/optee-os-custom/lib/libutils/ext/snprintk.c:488
    14e0:	bf00      	nop
    14e2:	2300      	movs	r3, #0
    14e4:	f887 308f 	strb.w	r3, [r7, #143]	; 0x8f
/home/aom1/Work/Linux/target/STM32MP1-DK2/bootloader/buildroot/optee-os-custom/lib/libutils/ext/snprintk.c:494
    14e8:	f8d7 3090 	ldr.w	r3, [r7, #144]	; 0x90
    14ec:	67bb      	str	r3, [r7, #120]	; 0x78
    14ee:	6fbb      	ldr	r3, [r7, #120]	; 0x78
    14f0:	2b00      	cmp	r3, #0
    14f2:	db05      	blt.n	1500 <kprintf+0xa68>
/home/aom1/Work/Linux/target/STM32MP1-DK2/bootloader/buildroot/optee-os-custom/lib/libutils/ext/snprintk.c:495
    14f4:	f8d7 309c 	ldr.w	r3, [r7, #156]	; 0x9c
    14f8:	f423 6380 	bic.w	r3, r3, #1024	; 0x400
    14fc:	f8c7 309c 	str.w	r3, [r7, #156]	; 0x9c
/home/aom1/Work/Linux/target/STM32MP1-DK2/bootloader/buildroot/optee-os-custom/lib/libutils/ext/snprintk.c:502
    1500:	f107 033c 	add.w	r3, r7, #60	; 0x3c
    1504:	3325      	adds	r3, #37	; 0x25
    1506:	f8c7 30a0 	str.w	r3, [r7, #160]	; 0xa0
/home/aom1/Work/Linux/target/STM32MP1-DK2/bootloader/buildroot/optee-os-custom/lib/libutils/ext/snprintk.c:503
    150a:	e9d7 2320 	ldrd	r2, r3, [r7, #128]	; 0x80
    150e:	4313      	orrs	r3, r2
    1510:	d104      	bne.n	151c <kprintf+0xa84>
/home/aom1/Work/Linux/target/STM32MP1-DK2/bootloader/buildroot/optee-os-custom/lib/libutils/ext/snprintk.c:503 (discriminator 1)
    1512:	f8d7 3090 	ldr.w	r3, [r7, #144]	; 0x90
    1516:	2b00      	cmp	r3, #0
    1518:	f000 80a6 	beq.w	1668 <kprintf+0xbd0>
    151c:	6ffb      	ldr	r3, [r7, #124]	; 0x7c
    151e:	2b02      	cmp	r3, #2
    1520:	d075      	beq.n	160e <kprintf+0xb76>
    1522:	6ffb      	ldr	r3, [r7, #124]	; 0x7c
    1524:	2b02      	cmp	r3, #2
    1526:	f200 8092 	bhi.w	164e <kprintf+0xbb6>
    152a:	6ffb      	ldr	r3, [r7, #124]	; 0x7c
    152c:	2b00      	cmp	r3, #0
    152e:	d004      	beq.n	153a <kprintf+0xaa2>
    1530:	6ffb      	ldr	r3, [r7, #124]	; 0x7c
    1532:	2b01      	cmp	r3, #1
    1534:	d056      	beq.n	15e4 <kprintf+0xb4c>
    1536:	e08a      	b.n	164e <kprintf+0xbb6>
/home/aom1/Work/Linux/target/STM32MP1-DK2/bootloader/buildroot/optee-os-custom/lib/libutils/ext/snprintk.c:510
    1538:	bf00      	nop
/home/aom1/Work/Linux/target/STM32MP1-DK2/bootloader/buildroot/optee-os-custom/lib/libutils/ext/snprintk.c:512 (discriminator 1)
    153a:	f897 3080 	ldrb.w	r3, [r7, #128]	; 0x80
    153e:	f003 0307 	and.w	r3, r3, #7
    1542:	b2da      	uxtb	r2, r3
    1544:	f8d7 30a0 	ldr.w	r3, [r7, #160]	; 0xa0
    1548:	3b01      	subs	r3, #1
    154a:	f8c7 30a0 	str.w	r3, [r7, #160]	; 0xa0
    154e:	f102 0330 	add.w	r3, r2, #48	; 0x30
    1552:	b2db      	uxtb	r3, r3
    1554:	f8d7 20a0 	ldr.w	r2, [r7, #160]	; 0xa0
    1558:	7013      	strb	r3, [r2, #0]
/home/aom1/Work/Linux/target/STM32MP1-DK2/bootloader/buildroot/optee-os-custom/lib/libutils/ext/snprintk.c:513 (discriminator 1)
    155a:	e9d7 2320 	ldrd	r2, r3, [r7, #128]	; 0x80
    155e:	f04f 0000 	mov.w	r0, #0
    1562:	f04f 0100 	mov.w	r1, #0
    1566:	08d0      	lsrs	r0, r2, #3
    1568:	ea40 7043 	orr.w	r0, r0, r3, lsl #29
    156c:	08d9      	lsrs	r1, r3, #3
    156e:	e9c7 0120 	strd	r0, r1, [r7, #128]	; 0x80
/home/aom1/Work/Linux/target/STM32MP1-DK2/bootloader/buildroot/optee-os-custom/lib/libutils/ext/snprintk.c:514 (discriminator 1)
    1572:	e9d7 2320 	ldrd	r2, r3, [r7, #128]	; 0x80
    1576:	4313      	orrs	r3, r2
    1578:	d1de      	bne.n	1538 <kprintf+0xaa0>
/home/aom1/Work/Linux/target/STM32MP1-DK2/bootloader/buildroot/optee-os-custom/lib/libutils/ext/snprintk.c:516
    157a:	f8d7 309c 	ldr.w	r3, [r7, #156]	; 0x9c
    157e:	f003 0301 	and.w	r3, r3, #1
    1582:	2b00      	cmp	r3, #0
    1584:	d06f      	beq.n	1666 <kprintf+0xbce>
/home/aom1/Work/Linux/target/STM32MP1-DK2/bootloader/buildroot/optee-os-custom/lib/libutils/ext/snprintk.c:516 (discriminator 1)
    1586:	f8d7 30a0 	ldr.w	r3, [r7, #160]	; 0xa0
    158a:	781b      	ldrb	r3, [r3, #0]
    158c:	2b30      	cmp	r3, #48	; 0x30
    158e:	d06a      	beq.n	1666 <kprintf+0xbce>
/home/aom1/Work/Linux/target/STM32MP1-DK2/bootloader/buildroot/optee-os-custom/lib/libutils/ext/snprintk.c:517
    1590:	f8d7 30a0 	ldr.w	r3, [r7, #160]	; 0xa0
    1594:	3b01      	subs	r3, #1
    1596:	f8c7 30a0 	str.w	r3, [r7, #160]	; 0xa0
    159a:	f8d7 20a0 	ldr.w	r2, [r7, #160]	; 0xa0
    159e:	2330      	movs	r3, #48	; 0x30
    15a0:	7013      	strb	r3, [r2, #0]
/home/aom1/Work/Linux/target/STM32MP1-DK2/bootloader/buildroot/optee-os-custom/lib/libutils/ext/snprintk.c:518
    15a2:	e060      	b.n	1666 <kprintf+0xbce>
/home/aom1/Work/Linux/target/STM32MP1-DK2/bootloader/buildroot/optee-os-custom/lib/libutils/ext/snprintk.c:523
    15a4:	e9d7 0120 	ldrd	r0, r1, [r7, #128]	; 0x80
    15a8:	f04f 020a 	mov.w	r2, #10
    15ac:	f04f 0300 	mov.w	r3, #0
    15b0:	f000 e9bc 	blx	192c <__aeabi_uldivmod>
    15b4:	b2d2      	uxtb	r2, r2
    15b6:	f8d7 30a0 	ldr.w	r3, [r7, #160]	; 0xa0
    15ba:	3b01      	subs	r3, #1
    15bc:	f8c7 30a0 	str.w	r3, [r7, #160]	; 0xa0
    15c0:	f102 0330 	add.w	r3, r2, #48	; 0x30
    15c4:	b2db      	uxtb	r3, r3
    15c6:	f8d7 20a0 	ldr.w	r2, [r7, #160]	; 0xa0
    15ca:	7013      	strb	r3, [r2, #0]
/home/aom1/Work/Linux/target/STM32MP1-DK2/bootloader/buildroot/optee-os-custom/lib/libutils/ext/snprintk.c:524
    15cc:	e9d7 0120 	ldrd	r0, r1, [r7, #128]	; 0x80
    15d0:	f04f 020a 	mov.w	r2, #10
    15d4:	f04f 0300 	mov.w	r3, #0
    15d8:	f000 e9a8 	blx	192c <__aeabi_uldivmod>
    15dc:	4602      	mov	r2, r0
    15de:	460b      	mov	r3, r1
    15e0:	e9c7 2320 	strd	r2, r3, [r7, #128]	; 0x80
/home/aom1/Work/Linux/target/STM32MP1-DK2/bootloader/buildroot/optee-os-custom/lib/libutils/ext/snprintk.c:522
    15e4:	e9d7 2320 	ldrd	r2, r3, [r7, #128]	; 0x80
    15e8:	2a0a      	cmp	r2, #10
    15ea:	f173 0300 	sbcs.w	r3, r3, #0
    15ee:	d2d9      	bcs.n	15a4 <kprintf+0xb0c>
/home/aom1/Work/Linux/target/STM32MP1-DK2/bootloader/buildroot/optee-os-custom/lib/libutils/ext/snprintk.c:526
    15f0:	f897 2080 	ldrb.w	r2, [r7, #128]	; 0x80
    15f4:	f8d7 30a0 	ldr.w	r3, [r7, #160]	; 0xa0
    15f8:	3b01      	subs	r3, #1
    15fa:	f8c7 30a0 	str.w	r3, [r7, #160]	; 0xa0
    15fe:	f102 0330 	add.w	r3, r2, #48	; 0x30
    1602:	b2db      	uxtb	r3, r3
    1604:	f8d7 20a0 	ldr.w	r2, [r7, #160]	; 0xa0
    1608:	7013      	strb	r3, [r2, #0]
/home/aom1/Work/Linux/target/STM32MP1-DK2/bootloader/buildroot/optee-os-custom/lib/libutils/ext/snprintk.c:527
    160a:	e02d      	b.n	1668 <kprintf+0xbd0>
/home/aom1/Work/Linux/target/STM32MP1-DK2/bootloader/buildroot/optee-os-custom/lib/libutils/ext/snprintk.c:529
    160c:	bf00      	nop
/home/aom1/Work/Linux/target/STM32MP1-DK2/bootloader/buildroot/optee-os-custom/lib/libutils/ext/snprintk.c:531 (discriminator 1)
    160e:	f8d7 3080 	ldr.w	r3, [r7, #128]	; 0x80
    1612:	f003 020f 	and.w	r2, r3, #15
    1616:	6efb      	ldr	r3, [r7, #108]	; 0x6c
    1618:	441a      	add	r2, r3
    161a:	f8d7 30a0 	ldr.w	r3, [r7, #160]	; 0xa0
    161e:	3b01      	subs	r3, #1
    1620:	f8c7 30a0 	str.w	r3, [r7, #160]	; 0xa0
    1624:	7813      	ldrb	r3, [r2, #0]
    1626:	f8d7 20a0 	ldr.w	r2, [r7, #160]	; 0xa0
    162a:	7013      	strb	r3, [r2, #0]
/home/aom1/Work/Linux/target/STM32MP1-DK2/bootloader/buildroot/optee-os-custom/lib/libutils/ext/snprintk.c:532 (discriminator 1)
    162c:	e9d7 2320 	ldrd	r2, r3, [r7, #128]	; 0x80
    1630:	f04f 0000 	mov.w	r0, #0
    1634:	f04f 0100 	mov.w	r1, #0
    1638:	0910      	lsrs	r0, r2, #4
    163a:	ea40 7003 	orr.w	r0, r0, r3, lsl #28
    163e:	0919      	lsrs	r1, r3, #4
    1640:	e9c7 0120 	strd	r0, r1, [r7, #128]	; 0x80
/home/aom1/Work/Linux/target/STM32MP1-DK2/bootloader/buildroot/optee-os-custom/lib/libutils/ext/snprintk.c:533 (discriminator 1)
    1644:	e9d7 2320 	ldrd	r2, r3, [r7, #128]	; 0x80
    1648:	4313      	orrs	r3, r2
    164a:	d1df      	bne.n	160c <kprintf+0xb74>
/home/aom1/Work/Linux/target/STM32MP1-DK2/bootloader/buildroot/optee-os-custom/lib/libutils/ext/snprintk.c:534
    164c:	e00c      	b.n	1668 <kprintf+0xbd0>
/home/aom1/Work/Linux/target/STM32MP1-DK2/bootloader/buildroot/optee-os-custom/lib/libutils/ext/snprintk.c:538
    164e:	4bb0      	ldr	r3, [pc, #704]	; (1910 <kprintf+0xe78>)
    1650:	447b      	add	r3, pc
    1652:	f8c7 30a0 	str.w	r3, [r7, #160]	; 0xa0
/home/aom1/Work/Linux/target/STM32MP1-DK2/bootloader/buildroot/optee-os-custom/lib/libutils/ext/snprintk.c:539
    1656:	f8d7 00a0 	ldr.w	r0, [r7, #160]	; 0xa0
    165a:	f00c f867 	bl	d72c <strlen>
    165e:	4603      	mov	r3, r0
    1660:	673b      	str	r3, [r7, #112]	; 0x70
/home/aom1/Work/Linux/target/STM32MP1-DK2/bootloader/buildroot/optee-os-custom/lib/libutils/ext/snprintk.c:540
    1662:	bf00      	nop
/home/aom1/Work/Linux/target/STM32MP1-DK2/bootloader/buildroot/optee-os-custom/lib/libutils/ext/snprintk.c:545
    1664:	e01d      	b.n	16a2 <kprintf+0xc0a>
/home/aom1/Work/Linux/target/STM32MP1-DK2/bootloader/buildroot/optee-os-custom/lib/libutils/ext/snprintk.c:518
    1666:	bf00      	nop
/home/aom1/Work/Linux/target/STM32MP1-DK2/bootloader/buildroot/optee-os-custom/lib/libutils/ext/snprintk.c:543
    1668:	f107 023c 	add.w	r2, r7, #60	; 0x3c
    166c:	3225      	adds	r2, #37	; 0x25
    166e:	f8d7 30a0 	ldr.w	r3, [r7, #160]	; 0xa0
    1672:	1ad3      	subs	r3, r2, r3
    1674:	673b      	str	r3, [r7, #112]	; 0x70
/home/aom1/Work/Linux/target/STM32MP1-DK2/bootloader/buildroot/optee-os-custom/lib/libutils/ext/snprintk.c:545
    1676:	e014      	b.n	16a2 <kprintf+0xc0a>
/home/aom1/Work/Linux/target/STM32MP1-DK2/bootloader/buildroot/optee-os-custom/lib/libutils/ext/snprintk.c:547
    1678:	f8d7 30a8 	ldr.w	r3, [r7, #168]	; 0xa8
    167c:	2b00      	cmp	r3, #0
    167e:	f000 812e 	beq.w	18de <kprintf+0xe46>
/home/aom1/Work/Linux/target/STM32MP1-DK2/bootloader/buildroot/optee-os-custom/lib/libutils/ext/snprintk.c:550
    1682:	f107 033c 	add.w	r3, r7, #60	; 0x3c
    1686:	f8c7 30a0 	str.w	r3, [r7, #160]	; 0xa0
/home/aom1/Work/Linux/target/STM32MP1-DK2/bootloader/buildroot/optee-os-custom/lib/libutils/ext/snprintk.c:551
    168a:	f8d7 30a8 	ldr.w	r3, [r7, #168]	; 0xa8
    168e:	b2db      	uxtb	r3, r3
    1690:	f8d7 20a0 	ldr.w	r2, [r7, #160]	; 0xa0
    1694:	7013      	strb	r3, [r2, #0]
/home/aom1/Work/Linux/target/STM32MP1-DK2/bootloader/buildroot/optee-os-custom/lib/libutils/ext/snprintk.c:552
    1696:	2301      	movs	r3, #1
    1698:	673b      	str	r3, [r7, #112]	; 0x70
/home/aom1/Work/Linux/target/STM32MP1-DK2/bootloader/buildroot/optee-os-custom/lib/libutils/ext/snprintk.c:553
    169a:	2300      	movs	r3, #0
    169c:	f887 308f 	strb.w	r3, [r7, #143]	; 0x8f
/home/aom1/Work/Linux/target/STM32MP1-DK2/bootloader/buildroot/optee-os-custom/lib/libutils/ext/snprintk.c:554
    16a0:	bf00      	nop
/home/aom1/Work/Linux/target/STM32MP1-DK2/bootloader/buildroot/optee-os-custom/lib/libutils/ext/snprintk.c:571
    16a2:	6f3a      	ldr	r2, [r7, #112]	; 0x70
    16a4:	6fbb      	ldr	r3, [r7, #120]	; 0x78
    16a6:	4293      	cmp	r3, r2
    16a8:	bfb8      	it	lt
    16aa:	4613      	movlt	r3, r2
    16ac:	677b      	str	r3, [r7, #116]	; 0x74
/home/aom1/Work/Linux/target/STM32MP1-DK2/bootloader/buildroot/optee-os-custom/lib/libutils/ext/snprintk.c:572
    16ae:	f897 308f 	ldrb.w	r3, [r7, #143]	; 0x8f
    16b2:	2b00      	cmp	r3, #0
    16b4:	d003      	beq.n	16be <kprintf+0xc26>
/home/aom1/Work/Linux/target/STM32MP1-DK2/bootloader/buildroot/optee-os-custom/lib/libutils/ext/snprintk.c:573
    16b6:	6f7b      	ldr	r3, [r7, #116]	; 0x74
    16b8:	3301      	adds	r3, #1
    16ba:	677b      	str	r3, [r7, #116]	; 0x74
    16bc:	e008      	b.n	16d0 <kprintf+0xc38>
/home/aom1/Work/Linux/target/STM32MP1-DK2/bootloader/buildroot/optee-os-custom/lib/libutils/ext/snprintk.c:574
    16be:	f8d7 309c 	ldr.w	r3, [r7, #156]	; 0x9c
    16c2:	f003 0302 	and.w	r3, r3, #2
    16c6:	2b00      	cmp	r3, #0
    16c8:	d002      	beq.n	16d0 <kprintf+0xc38>
/home/aom1/Work/Linux/target/STM32MP1-DK2/bootloader/buildroot/optee-os-custom/lib/libutils/ext/snprintk.c:575
    16ca:	6f7b      	ldr	r3, [r7, #116]	; 0x74
    16cc:	3302      	adds	r3, #2
    16ce:	677b      	str	r3, [r7, #116]	; 0x74
/home/aom1/Work/Linux/target/STM32MP1-DK2/bootloader/buildroot/optee-os-custom/lib/libutils/ext/snprintk.c:578
    16d0:	6f7a      	ldr	r2, [r7, #116]	; 0x74
    16d2:	f8d7 3094 	ldr.w	r3, [r7, #148]	; 0x94
    16d6:	429a      	cmp	r2, r3
    16d8:	bfb8      	it	lt
    16da:	461a      	movlt	r2, r3
    16dc:	f8d7 3098 	ldr.w	r3, [r7, #152]	; 0x98
    16e0:	4413      	add	r3, r2
    16e2:	f8c7 3098 	str.w	r3, [r7, #152]	; 0x98
/home/aom1/Work/Linux/target/STM32MP1-DK2/bootloader/buildroot/optee-os-custom/lib/libutils/ext/snprintk.c:581
    16e6:	f8d7 209c 	ldr.w	r2, [r7, #156]	; 0x9c
    16ea:	f240 4304 	movw	r3, #1028	; 0x404
    16ee:	4013      	ands	r3, r2
    16f0:	2b00      	cmp	r3, #0
    16f2:	d11f      	bne.n	1734 <kprintf+0xc9c>
/home/aom1/Work/Linux/target/STM32MP1-DK2/bootloader/buildroot/optee-os-custom/lib/libutils/ext/snprintk.c:582
    16f4:	f8d7 2094 	ldr.w	r2, [r7, #148]	; 0x94
    16f8:	6f7b      	ldr	r3, [r7, #116]	; 0x74
    16fa:	1ad3      	subs	r3, r2, r3
    16fc:	f8c7 30a4 	str.w	r3, [r7, #164]	; 0xa4
/home/aom1/Work/Linux/target/STM32MP1-DK2/bootloader/buildroot/optee-os-custom/lib/libutils/ext/snprintk.c:583
    1700:	e011      	b.n	1726 <kprintf+0xc8e>
/home/aom1/Work/Linux/target/STM32MP1-DK2/bootloader/buildroot/optee-os-custom/lib/libutils/ext/snprintk.c:584
    1702:	6b3b      	ldr	r3, [r7, #48]	; 0x30
    1704:	2b08      	cmp	r3, #8
    1706:	d10e      	bne.n	1726 <kprintf+0xc8e>
/home/aom1/Work/Linux/target/STM32MP1-DK2/bootloader/buildroot/optee-os-custom/lib/libutils/ext/snprintk.c:584 (discriminator 1)
    1708:	6abb      	ldr	r3, [r7, #40]	; 0x28
    170a:	2b00      	cmp	r3, #0
    170c:	d00b      	beq.n	1726 <kprintf+0xc8e>
/home/aom1/Work/Linux/target/STM32MP1-DK2/bootloader/buildroot/optee-os-custom/lib/libutils/ext/snprintk.c:584 (discriminator 2)
    170e:	6afb      	ldr	r3, [r7, #44]	; 0x2c
    1710:	2b00      	cmp	r3, #0
    1712:	d003      	beq.n	171c <kprintf+0xc84>
/home/aom1/Work/Linux/target/STM32MP1-DK2/bootloader/buildroot/optee-os-custom/lib/libutils/ext/snprintk.c:584 (discriminator 4)
    1714:	6aba      	ldr	r2, [r7, #40]	; 0x28
    1716:	6ebb      	ldr	r3, [r7, #104]	; 0x68
    1718:	429a      	cmp	r2, r3
    171a:	d204      	bcs.n	1726 <kprintf+0xc8e>
/home/aom1/Work/Linux/target/STM32MP1-DK2/bootloader/buildroot/optee-os-custom/lib/libutils/ext/snprintk.c:584 (discriminator 5)
    171c:	6aba      	ldr	r2, [r7, #40]	; 0x28
    171e:	1c53      	adds	r3, r2, #1
    1720:	62bb      	str	r3, [r7, #40]	; 0x28
    1722:	2320      	movs	r3, #32
    1724:	7013      	strb	r3, [r2, #0]
/home/aom1/Work/Linux/target/STM32MP1-DK2/bootloader/buildroot/optee-os-custom/lib/libutils/ext/snprintk.c:583
    1726:	f8d7 20a4 	ldr.w	r2, [r7, #164]	; 0xa4
    172a:	1e53      	subs	r3, r2, #1
    172c:	f8c7 30a4 	str.w	r3, [r7, #164]	; 0xa4
    1730:	2a00      	cmp	r2, #0
    1732:	dce6      	bgt.n	1702 <kprintf+0xc6a>
/home/aom1/Work/Linux/target/STM32MP1-DK2/bootloader/buildroot/optee-os-custom/lib/libutils/ext/snprintk.c:588
    1734:	f897 308f 	ldrb.w	r3, [r7, #143]	; 0x8f
    1738:	2b00      	cmp	r3, #0
    173a:	d013      	beq.n	1764 <kprintf+0xccc>
/home/aom1/Work/Linux/target/STM32MP1-DK2/bootloader/buildroot/optee-os-custom/lib/libutils/ext/snprintk.c:589
    173c:	6b3b      	ldr	r3, [r7, #48]	; 0x30
    173e:	2b08      	cmp	r3, #8
    1740:	d13c      	bne.n	17bc <kprintf+0xd24>
/home/aom1/Work/Linux/target/STM32MP1-DK2/bootloader/buildroot/optee-os-custom/lib/libutils/ext/snprintk.c:589 (discriminator 1)
    1742:	6abb      	ldr	r3, [r7, #40]	; 0x28
    1744:	2b00      	cmp	r3, #0
    1746:	d039      	beq.n	17bc <kprintf+0xd24>
/home/aom1/Work/Linux/target/STM32MP1-DK2/bootloader/buildroot/optee-os-custom/lib/libutils/ext/snprintk.c:589 (discriminator 2)
    1748:	6afb      	ldr	r3, [r7, #44]	; 0x2c
    174a:	2b00      	cmp	r3, #0
    174c:	d003      	beq.n	1756 <kprintf+0xcbe>
/home/aom1/Work/Linux/target/STM32MP1-DK2/bootloader/buildroot/optee-os-custom/lib/libutils/ext/snprintk.c:589 (discriminator 4)
    174e:	6aba      	ldr	r2, [r7, #40]	; 0x28
    1750:	6ebb      	ldr	r3, [r7, #104]	; 0x68
    1752:	429a      	cmp	r2, r3
    1754:	d232      	bcs.n	17bc <kprintf+0xd24>
/home/aom1/Work/Linux/target/STM32MP1-DK2/bootloader/buildroot/optee-os-custom/lib/libutils/ext/snprintk.c:589 (discriminator 5)
    1756:	6aba      	ldr	r2, [r7, #40]	; 0x28
    1758:	1c53      	adds	r3, r2, #1
    175a:	62bb      	str	r3, [r7, #40]	; 0x28
    175c:	f897 308f 	ldrb.w	r3, [r7, #143]	; 0x8f
    1760:	7013      	strb	r3, [r2, #0]
    1762:	e02b      	b.n	17bc <kprintf+0xd24>
/home/aom1/Work/Linux/target/STM32MP1-DK2/bootloader/buildroot/optee-os-custom/lib/libutils/ext/snprintk.c:590
    1764:	f8d7 309c 	ldr.w	r3, [r7, #156]	; 0x9c
    1768:	f003 0302 	and.w	r3, r3, #2
    176c:	2b00      	cmp	r3, #0
    176e:	d025      	beq.n	17bc <kprintf+0xd24>
/home/aom1/Work/Linux/target/STM32MP1-DK2/bootloader/buildroot/optee-os-custom/lib/libutils/ext/snprintk.c:591
    1770:	6b3b      	ldr	r3, [r7, #48]	; 0x30
    1772:	2b08      	cmp	r3, #8
    1774:	d10e      	bne.n	1794 <kprintf+0xcfc>
/home/aom1/Work/Linux/target/STM32MP1-DK2/bootloader/buildroot/optee-os-custom/lib/libutils/ext/snprintk.c:591 (discriminator 1)
    1776:	6abb      	ldr	r3, [r7, #40]	; 0x28
    1778:	2b00      	cmp	r3, #0
    177a:	d00b      	beq.n	1794 <kprintf+0xcfc>
/home/aom1/Work/Linux/target/STM32MP1-DK2/bootloader/buildroot/optee-os-custom/lib/libutils/ext/snprintk.c:591 (discriminator 2)
    177c:	6afb      	ldr	r3, [r7, #44]	; 0x2c
    177e:	2b00      	cmp	r3, #0
    1780:	d003      	beq.n	178a <kprintf+0xcf2>
/home/aom1/Work/Linux/target/STM32MP1-DK2/bootloader/buildroot/optee-os-custom/lib/libutils/ext/snprintk.c:591 (discriminator 4)
    1782:	6aba      	ldr	r2, [r7, #40]	; 0x28
    1784:	6ebb      	ldr	r3, [r7, #104]	; 0x68
    1786:	429a      	cmp	r2, r3
    1788:	d204      	bcs.n	1794 <kprintf+0xcfc>
/home/aom1/Work/Linux/target/STM32MP1-DK2/bootloader/buildroot/optee-os-custom/lib/libutils/ext/snprintk.c:591 (discriminator 5)
    178a:	6aba      	ldr	r2, [r7, #40]	; 0x28
    178c:	1c53      	adds	r3, r2, #1
    178e:	62bb      	str	r3, [r7, #40]	; 0x28
    1790:	2330      	movs	r3, #48	; 0x30
    1792:	7013      	strb	r3, [r2, #0]
/home/aom1/Work/Linux/target/STM32MP1-DK2/bootloader/buildroot/optee-os-custom/lib/libutils/ext/snprintk.c:592
    1794:	6b3b      	ldr	r3, [r7, #48]	; 0x30
    1796:	2b08      	cmp	r3, #8
    1798:	d110      	bne.n	17bc <kprintf+0xd24>
/home/aom1/Work/Linux/target/STM32MP1-DK2/bootloader/buildroot/optee-os-custom/lib/libutils/ext/snprintk.c:592 (discriminator 1)
    179a:	6abb      	ldr	r3, [r7, #40]	; 0x28
    179c:	2b00      	cmp	r3, #0
    179e:	d00d      	beq.n	17bc <kprintf+0xd24>
/home/aom1/Work/Linux/target/STM32MP1-DK2/bootloader/buildroot/optee-os-custom/lib/libutils/ext/snprintk.c:592 (discriminator 2)
    17a0:	6afb      	ldr	r3, [r7, #44]	; 0x2c
    17a2:	2b00      	cmp	r3, #0
    17a4:	d003      	beq.n	17ae <kprintf+0xd16>
/home/aom1/Work/Linux/target/STM32MP1-DK2/bootloader/buildroot/optee-os-custom/lib/libutils/ext/snprintk.c:592 (discriminator 4)
    17a6:	6aba      	ldr	r2, [r7, #40]	; 0x28
    17a8:	6ebb      	ldr	r3, [r7, #104]	; 0x68
    17aa:	429a      	cmp	r2, r3
    17ac:	d206      	bcs.n	17bc <kprintf+0xd24>
/home/aom1/Work/Linux/target/STM32MP1-DK2/bootloader/buildroot/optee-os-custom/lib/libutils/ext/snprintk.c:592 (discriminator 5)
    17ae:	6aba      	ldr	r2, [r7, #40]	; 0x28
    17b0:	1c53      	adds	r3, r2, #1
    17b2:	62bb      	str	r3, [r7, #40]	; 0x28
    17b4:	f8d7 30a8 	ldr.w	r3, [r7, #168]	; 0xa8
    17b8:	b2db      	uxtb	r3, r3
    17ba:	7013      	strb	r3, [r2, #0]
/home/aom1/Work/Linux/target/STM32MP1-DK2/bootloader/buildroot/optee-os-custom/lib/libutils/ext/snprintk.c:596
    17bc:	f8d7 209c 	ldr.w	r2, [r7, #156]	; 0x9c
    17c0:	f240 4304 	movw	r3, #1028	; 0x404
    17c4:	4013      	ands	r3, r2
    17c6:	f5b3 6f80 	cmp.w	r3, #1024	; 0x400
    17ca:	d11f      	bne.n	180c <kprintf+0xd74>
/home/aom1/Work/Linux/target/STM32MP1-DK2/bootloader/buildroot/optee-os-custom/lib/libutils/ext/snprintk.c:597
    17cc:	f8d7 2094 	ldr.w	r2, [r7, #148]	; 0x94
    17d0:	6f7b      	ldr	r3, [r7, #116]	; 0x74
    17d2:	1ad3      	subs	r3, r2, r3
    17d4:	f8c7 30a4 	str.w	r3, [r7, #164]	; 0xa4
/home/aom1/Work/Linux/target/STM32MP1-DK2/bootloader/buildroot/optee-os-custom/lib/libutils/ext/snprintk.c:598
    17d8:	e011      	b.n	17fe <kprintf+0xd66>
/home/aom1/Work/Linux/target/STM32MP1-DK2/bootloader/buildroot/optee-os-custom/lib/libutils/ext/snprintk.c:599
    17da:	6b3b      	ldr	r3, [r7, #48]	; 0x30
    17dc:	2b08      	cmp	r3, #8
    17de:	d10e      	bne.n	17fe <kprintf+0xd66>
/home/aom1/Work/Linux/target/STM32MP1-DK2/bootloader/buildroot/optee-os-custom/lib/libutils/ext/snprintk.c:599 (discriminator 1)
    17e0:	6abb      	ldr	r3, [r7, #40]	; 0x28
    17e2:	2b00      	cmp	r3, #0
    17e4:	d00b      	beq.n	17fe <kprintf+0xd66>
/home/aom1/Work/Linux/target/STM32MP1-DK2/bootloader/buildroot/optee-os-custom/lib/libutils/ext/snprintk.c:599 (discriminator 2)
    17e6:	6afb      	ldr	r3, [r7, #44]	; 0x2c
    17e8:	2b00      	cmp	r3, #0
    17ea:	d003      	beq.n	17f4 <kprintf+0xd5c>
/home/aom1/Work/Linux/target/STM32MP1-DK2/bootloader/buildroot/optee-os-custom/lib/libutils/ext/snprintk.c:599 (discriminator 4)
    17ec:	6aba      	ldr	r2, [r7, #40]	; 0x28
    17ee:	6ebb      	ldr	r3, [r7, #104]	; 0x68
    17f0:	429a      	cmp	r2, r3
    17f2:	d204      	bcs.n	17fe <kprintf+0xd66>
/home/aom1/Work/Linux/target/STM32MP1-DK2/bootloader/buildroot/optee-os-custom/lib/libutils/ext/snprintk.c:599 (discriminator 5)
    17f4:	6aba      	ldr	r2, [r7, #40]	; 0x28
    17f6:	1c53      	adds	r3, r2, #1
    17f8:	62bb      	str	r3, [r7, #40]	; 0x28
    17fa:	2330      	movs	r3, #48	; 0x30
    17fc:	7013      	strb	r3, [r2, #0]
/home/aom1/Work/Linux/target/STM32MP1-DK2/bootloader/buildroot/optee-os-custom/lib/libutils/ext/snprintk.c:598
    17fe:	f8d7 20a4 	ldr.w	r2, [r7, #164]	; 0xa4
    1802:	1e53      	subs	r3, r2, #1
    1804:	f8c7 30a4 	str.w	r3, [r7, #164]	; 0xa4
    1808:	2a00      	cmp	r2, #0
    180a:	dce6      	bgt.n	17da <kprintf+0xd42>
/home/aom1/Work/Linux/target/STM32MP1-DK2/bootloader/buildroot/optee-os-custom/lib/libutils/ext/snprintk.c:603
    180c:	6fba      	ldr	r2, [r7, #120]	; 0x78
    180e:	6f3b      	ldr	r3, [r7, #112]	; 0x70
    1810:	1ad3      	subs	r3, r2, r3
    1812:	f8c7 30a4 	str.w	r3, [r7, #164]	; 0xa4
/home/aom1/Work/Linux/target/STM32MP1-DK2/bootloader/buildroot/optee-os-custom/lib/libutils/ext/snprintk.c:604
    1816:	e011      	b.n	183c <kprintf+0xda4>
/home/aom1/Work/Linux/target/STM32MP1-DK2/bootloader/buildroot/optee-os-custom/lib/libutils/ext/snprintk.c:605
    1818:	6b3b      	ldr	r3, [r7, #48]	; 0x30
    181a:	2b08      	cmp	r3, #8
    181c:	d10e      	bne.n	183c <kprintf+0xda4>
/home/aom1/Work/Linux/target/STM32MP1-DK2/bootloader/buildroot/optee-os-custom/lib/libutils/ext/snprintk.c:605 (discriminator 1)
    181e:	6abb      	ldr	r3, [r7, #40]	; 0x28
    1820:	2b00      	cmp	r3, #0
    1822:	d00b      	beq.n	183c <kprintf+0xda4>
/home/aom1/Work/Linux/target/STM32MP1-DK2/bootloader/buildroot/optee-os-custom/lib/libutils/ext/snprintk.c:605 (discriminator 2)
    1824:	6afb      	ldr	r3, [r7, #44]	; 0x2c
    1826:	2b00      	cmp	r3, #0
    1828:	d003      	beq.n	1832 <kprintf+0xd9a>
/home/aom1/Work/Linux/target/STM32MP1-DK2/bootloader/buildroot/optee-os-custom/lib/libutils/ext/snprintk.c:605 (discriminator 4)
    182a:	6aba      	ldr	r2, [r7, #40]	; 0x28
    182c:	6ebb      	ldr	r3, [r7, #104]	; 0x68
    182e:	429a      	cmp	r2, r3
    1830:	d204      	bcs.n	183c <kprintf+0xda4>
/home/aom1/Work/Linux/target/STM32MP1-DK2/bootloader/buildroot/optee-os-custom/lib/libutils/ext/snprintk.c:605 (discriminator 5)
    1832:	6aba      	ldr	r2, [r7, #40]	; 0x28
    1834:	1c53      	adds	r3, r2, #1
    1836:	62bb      	str	r3, [r7, #40]	; 0x28
    1838:	2330      	movs	r3, #48	; 0x30
    183a:	7013      	strb	r3, [r2, #0]
/home/aom1/Work/Linux/target/STM32MP1-DK2/bootloader/buildroot/optee-os-custom/lib/libutils/ext/snprintk.c:604
    183c:	f8d7 20a4 	ldr.w	r2, [r7, #164]	; 0xa4
    1840:	1e53      	subs	r3, r2, #1
    1842:	f8c7 30a4 	str.w	r3, [r7, #164]	; 0xa4
    1846:	2a00      	cmp	r2, #0
    1848:	dce6      	bgt.n	1818 <kprintf+0xd80>
/home/aom1/Work/Linux/target/STM32MP1-DK2/bootloader/buildroot/optee-os-custom/lib/libutils/ext/snprintk.c:608
    184a:	e018      	b.n	187e <kprintf+0xde6>
/home/aom1/Work/Linux/target/STM32MP1-DK2/bootloader/buildroot/optee-os-custom/lib/libutils/ext/snprintk.c:609
    184c:	6b3b      	ldr	r3, [r7, #48]	; 0x30
    184e:	2b08      	cmp	r3, #8
    1850:	d110      	bne.n	1874 <kprintf+0xddc>
/home/aom1/Work/Linux/target/STM32MP1-DK2/bootloader/buildroot/optee-os-custom/lib/libutils/ext/snprintk.c:609 (discriminator 1)
    1852:	6abb      	ldr	r3, [r7, #40]	; 0x28
    1854:	2b00      	cmp	r3, #0
    1856:	d00d      	beq.n	1874 <kprintf+0xddc>
/home/aom1/Work/Linux/target/STM32MP1-DK2/bootloader/buildroot/optee-os-custom/lib/libutils/ext/snprintk.c:609 (discriminator 2)
    1858:	6afb      	ldr	r3, [r7, #44]	; 0x2c
    185a:	2b00      	cmp	r3, #0
    185c:	d003      	beq.n	1866 <kprintf+0xdce>
/home/aom1/Work/Linux/target/STM32MP1-DK2/bootloader/buildroot/optee-os-custom/lib/libutils/ext/snprintk.c:609 (discriminator 4)
    185e:	6aba      	ldr	r2, [r7, #40]	; 0x28
    1860:	6ebb      	ldr	r3, [r7, #104]	; 0x68
    1862:	429a      	cmp	r2, r3
    1864:	d206      	bcs.n	1874 <kprintf+0xddc>
/home/aom1/Work/Linux/target/STM32MP1-DK2/bootloader/buildroot/optee-os-custom/lib/libutils/ext/snprintk.c:609 (discriminator 5)
    1866:	6aba      	ldr	r2, [r7, #40]	; 0x28
    1868:	1c53      	adds	r3, r2, #1
    186a:	62bb      	str	r3, [r7, #40]	; 0x28
    186c:	f8d7 30a0 	ldr.w	r3, [r7, #160]	; 0xa0
    1870:	781b      	ldrb	r3, [r3, #0]
    1872:	7013      	strb	r3, [r2, #0]
/home/aom1/Work/Linux/target/STM32MP1-DK2/bootloader/buildroot/optee-os-custom/lib/libutils/ext/snprintk.c:608
    1874:	f8d7 30a0 	ldr.w	r3, [r7, #160]	; 0xa0
    1878:	3301      	adds	r3, #1
    187a:	f8c7 30a0 	str.w	r3, [r7, #160]	; 0xa0
/home/aom1/Work/Linux/target/STM32MP1-DK2/bootloader/buildroot/optee-os-custom/lib/libutils/ext/snprintk.c:608 (discriminator 1)
    187e:	6f3a      	ldr	r2, [r7, #112]	; 0x70
    1880:	1e53      	subs	r3, r2, #1
    1882:	673b      	str	r3, [r7, #112]	; 0x70
    1884:	2a00      	cmp	r2, #0
    1886:	d1e1      	bne.n	184c <kprintf+0xdb4>
/home/aom1/Work/Linux/target/STM32MP1-DK2/bootloader/buildroot/optee-os-custom/lib/libutils/ext/snprintk.c:611
    1888:	f8d7 309c 	ldr.w	r3, [r7, #156]	; 0x9c
    188c:	f003 0304 	and.w	r3, r3, #4
    1890:	2b00      	cmp	r3, #0
    1892:	f43f a941 	beq.w	b18 <kprintf+0x80>
/home/aom1/Work/Linux/target/STM32MP1-DK2/bootloader/buildroot/optee-os-custom/lib/libutils/ext/snprintk.c:612
    1896:	f8d7 2094 	ldr.w	r2, [r7, #148]	; 0x94
    189a:	6f7b      	ldr	r3, [r7, #116]	; 0x74
    189c:	1ad3      	subs	r3, r2, r3
    189e:	f8c7 30a4 	str.w	r3, [r7, #164]	; 0xa4
/home/aom1/Work/Linux/target/STM32MP1-DK2/bootloader/buildroot/optee-os-custom/lib/libutils/ext/snprintk.c:613
    18a2:	e011      	b.n	18c8 <kprintf+0xe30>
/home/aom1/Work/Linux/target/STM32MP1-DK2/bootloader/buildroot/optee-os-custom/lib/libutils/ext/snprintk.c:614
    18a4:	6b3b      	ldr	r3, [r7, #48]	; 0x30
    18a6:	2b08      	cmp	r3, #8
    18a8:	d10e      	bne.n	18c8 <kprintf+0xe30>
/home/aom1/Work/Linux/target/STM32MP1-DK2/bootloader/buildroot/optee-os-custom/lib/libutils/ext/snprintk.c:614 (discriminator 1)
    18aa:	6abb      	ldr	r3, [r7, #40]	; 0x28
    18ac:	2b00      	cmp	r3, #0
    18ae:	d00b      	beq.n	18c8 <kprintf+0xe30>
/home/aom1/Work/Linux/target/STM32MP1-DK2/bootloader/buildroot/optee-os-custom/lib/libutils/ext/snprintk.c:614 (discriminator 2)
    18b0:	6afb      	ldr	r3, [r7, #44]	; 0x2c
    18b2:	2b00      	cmp	r3, #0
    18b4:	d003      	beq.n	18be <kprintf+0xe26>
/home/aom1/Work/Linux/target/STM32MP1-DK2/bootloader/buildroot/optee-os-custom/lib/libutils/ext/snprintk.c:614 (discriminator 4)
    18b6:	6aba      	ldr	r2, [r7, #40]	; 0x28
    18b8:	6ebb      	ldr	r3, [r7, #104]	; 0x68
    18ba:	429a      	cmp	r2, r3
    18bc:	d204      	bcs.n	18c8 <kprintf+0xe30>
/home/aom1/Work/Linux/target/STM32MP1-DK2/bootloader/buildroot/optee-os-custom/lib/libutils/ext/snprintk.c:614 (discriminator 5)
    18be:	6aba      	ldr	r2, [r7, #40]	; 0x28
    18c0:	1c53      	adds	r3, r2, #1
    18c2:	62bb      	str	r3, [r7, #40]	; 0x28
    18c4:	2320      	movs	r3, #32
    18c6:	7013      	strb	r3, [r2, #0]
/home/aom1/Work/Linux/target/STM32MP1-DK2/bootloader/buildroot/optee-os-custom/lib/libutils/ext/snprintk.c:613
    18c8:	f8d7 20a4 	ldr.w	r2, [r7, #164]	; 0xa4
    18cc:	1e53      	subs	r3, r2, #1
    18ce:	f8c7 30a4 	str.w	r3, [r7, #164]	; 0xa4
    18d2:	2a00      	cmp	r2, #0
    18d4:	dce6      	bgt.n	18a4 <kprintf+0xe0c>
/home/aom1/Work/Linux/target/STM32MP1-DK2/bootloader/buildroot/optee-os-custom/lib/libutils/ext/snprintk.c:281
    18d6:	f7ff b91f 	b.w	b18 <kprintf+0x80>
/home/aom1/Work/Linux/target/STM32MP1-DK2/bootloader/buildroot/optee-os-custom/lib/libutils/ext/snprintk.c:286
    18da:	bf00      	nop
    18dc:	e000      	b.n	18e0 <kprintf+0xe48>
/home/aom1/Work/Linux/target/STM32MP1-DK2/bootloader/buildroot/optee-os-custom/lib/libutils/ext/snprintk.c:548
    18de:	bf00      	nop
/home/aom1/Work/Linux/target/STM32MP1-DK2/bootloader/buildroot/optee-os-custom/lib/libutils/ext/snprintk.c:619
    18e0:	6b3b      	ldr	r3, [r7, #48]	; 0x30
    18e2:	2b08      	cmp	r3, #8
    18e4:	d105      	bne.n	18f2 <kprintf+0xe5a>
/home/aom1/Work/Linux/target/STM32MP1-DK2/bootloader/buildroot/optee-os-custom/lib/libutils/ext/snprintk.c:619 (discriminator 1)
    18e6:	6afb      	ldr	r3, [r7, #44]	; 0x2c
    18e8:	2b00      	cmp	r3, #0
    18ea:	d002      	beq.n	18f2 <kprintf+0xe5a>
/home/aom1/Work/Linux/target/STM32MP1-DK2/bootloader/buildroot/optee-os-custom/lib/libutils/ext/snprintk.c:620
    18ec:	6afb      	ldr	r3, [r7, #44]	; 0x2c
    18ee:	6aba      	ldr	r2, [r7, #40]	; 0x28
    18f0:	601a      	str	r2, [r3, #0]
/home/aom1/Work/Linux/target/STM32MP1-DK2/bootloader/buildroot/optee-os-custom/lib/libutils/ext/snprintk.c:621
    18f2:	f8d7 3098 	ldr.w	r3, [r7, #152]	; 0x98
/home/aom1/Work/Linux/target/STM32MP1-DK2/bootloader/buildroot/optee-os-custom/lib/libutils/ext/snprintk.c:622
    18f6:	4618      	mov	r0, r3
    18f8:	37b0      	adds	r7, #176	; 0xb0
    18fa:	46bd      	mov	sp, r7
    18fc:	e8bd 8fb0 	ldmia.w	sp!, {r4, r5, r7, r8, r9, sl, fp, pc}
    1900:	0000ce2c 	.word	0x0000ce2c
    1904:	0000ce54 	.word	0x0000ce54
    1908:	0000ccb6 	.word	0x0000ccb6
    190c:	0000cc98 	.word	0x0000cc98
    1910:	0000ca80 	.word	0x0000ca80

00001914 <__aeabi_ldivmod>:
__aeabi_ldivmod():
/home/aom1/Work/Linux/target/STM32MP1-DK2/bootloader/buildroot/optee-os-custom/lib/libutils/isoc/arch/arm/arm32_aeabi_ldivmod_a32.S:12
    1914:	e92d5000 	push	{ip, lr}
/home/aom1/Work/Linux/target/STM32MP1-DK2/bootloader/buildroot/optee-os-custom/lib/libutils/isoc/arch/arm/arm32_aeabi_ldivmod_a32.S:14
    1918:	e92d000f 	push	{r0, r1, r2, r3}
/home/aom1/Work/Linux/target/STM32MP1-DK2/bootloader/buildroot/optee-os-custom/lib/libutils/isoc/arch/arm/arm32_aeabi_ldivmod_a32.S:16
    191c:	e1a0000d 	mov	r0, sp
/home/aom1/Work/Linux/target/STM32MP1-DK2/bootloader/buildroot/optee-os-custom/lib/libutils/isoc/arch/arm/arm32_aeabi_ldivmod_a32.S:17
    1920:	fa003010 	blx	d968 <__l_divmod>
/home/aom1/Work/Linux/target/STM32MP1-DK2/bootloader/buildroot/optee-os-custom/lib/libutils/isoc/arch/arm/arm32_aeabi_ldivmod_a32.S:18
    1924:	e8bd000f 	pop	{r0, r1, r2, r3}
/home/aom1/Work/Linux/target/STM32MP1-DK2/bootloader/buildroot/optee-os-custom/lib/libutils/isoc/arch/arm/arm32_aeabi_ldivmod_a32.S:19
    1928:	e8bd9000 	pop	{ip, pc}

0000192c <__aeabi_uldivmod>:
__aeabi_uldivmod():
/home/aom1/Work/Linux/target/STM32MP1-DK2/bootloader/buildroot/optee-os-custom/lib/libutils/isoc/arch/arm/arm32_aeabi_ldivmod_a32.S:27
    192c:	e92d5000 	push	{ip, lr}
/home/aom1/Work/Linux/target/STM32MP1-DK2/bootloader/buildroot/optee-os-custom/lib/libutils/isoc/arch/arm/arm32_aeabi_ldivmod_a32.S:29
    1930:	e92d000f 	push	{r0, r1, r2, r3}
/home/aom1/Work/Linux/target/STM32MP1-DK2/bootloader/buildroot/optee-os-custom/lib/libutils/isoc/arch/arm/arm32_aeabi_ldivmod_a32.S:31
    1934:	e1a0000d 	mov	r0, sp
/home/aom1/Work/Linux/target/STM32MP1-DK2/bootloader/buildroot/optee-os-custom/lib/libutils/isoc/arch/arm/arm32_aeabi_ldivmod_a32.S:32
    1938:	fb002ff2 	blx	d90a <__ul_divmod>
/home/aom1/Work/Linux/target/STM32MP1-DK2/bootloader/buildroot/optee-os-custom/lib/libutils/isoc/arch/arm/arm32_aeabi_ldivmod_a32.S:33
    193c:	e8bd000f 	pop	{r0, r1, r2, r3}
/home/aom1/Work/Linux/target/STM32MP1-DK2/bootloader/buildroot/optee-os-custom/lib/libutils/isoc/arch/arm/arm32_aeabi_ldivmod_a32.S:34
    1940:	e8bd9000 	pop	{ip, pc}

00001944 <_assert_log>:
_assert_log():
/home/aom1/Work/Linux/target/STM32MP1-DK2/bootloader/buildroot/optee-os-custom/lib/libutee/assert.c:17
    1944:	b580      	push	{r7, lr}
    1946:	b08a      	sub	sp, #40	; 0x28
    1948:	af06      	add	r7, sp, #24
    194a:	60f8      	str	r0, [r7, #12]
    194c:	60b9      	str	r1, [r7, #8]
    194e:	607a      	str	r2, [r7, #4]
    1950:	603b      	str	r3, [r7, #0]
/home/aom1/Work/Linux/target/STM32MP1-DK2/bootloader/buildroot/optee-os-custom/lib/libutee/assert.c:18
    1952:	683b      	ldr	r3, [r7, #0]
    1954:	9304      	str	r3, [sp, #16]
    1956:	687b      	ldr	r3, [r7, #4]
    1958:	9303      	str	r3, [sp, #12]
    195a:	68bb      	ldr	r3, [r7, #8]
    195c:	9302      	str	r3, [sp, #8]
    195e:	68fb      	ldr	r3, [r7, #12]
    1960:	9301      	str	r3, [sp, #4]
    1962:	4b06      	ldr	r3, [pc, #24]	; (197c <_assert_log+0x38>)
    1964:	447b      	add	r3, pc
    1966:	9300      	str	r3, [sp, #0]
    1968:	2301      	movs	r3, #1
    196a:	2201      	movs	r2, #1
    196c:	2100      	movs	r1, #0
    196e:	2000      	movs	r0, #0
    1970:	f7fe fe44 	bl	5fc <trace_printf>
/home/aom1/Work/Linux/target/STM32MP1-DK2/bootloader/buildroot/optee-os-custom/lib/libutee/assert.c:20
    1974:	bf00      	nop
    1976:	3710      	adds	r7, #16
    1978:	46bd      	mov	sp, r7
    197a:	bd80      	pop	{r7, pc}
    197c:	0000c788 	.word	0x0000c788

00001980 <_assert_break>:
_assert_break():
/home/aom1/Work/Linux/target/STM32MP1-DK2/bootloader/buildroot/optee-os-custom/lib/libutee/assert.c:23
    1980:	b580      	push	{r7, lr}
    1982:	af00      	add	r7, sp, #0
/home/aom1/Work/Linux/target/STM32MP1-DK2/bootloader/buildroot/optee-os-custom/lib/libutee/assert.c:24
    1984:	2000      	movs	r0, #0
    1986:	f6cf 70ff 	movt	r0, #65535	; 0xffff
    198a:	f001 ec70 	blx	326c <_utee_panic>
/home/aom1/Work/Linux/target/STM32MP1-DK2/bootloader/buildroot/optee-os-custom/lib/libutee/assert.c:26 (discriminator 1)
    198e:	e7fe      	b.n	198e <_assert_break+0xe>

00001990 <trace_ext_puts>:
trace_ext_puts():
/home/aom1/Work/Linux/target/STM32MP1-DK2/bootloader/buildroot/optee-os-custom/lib/libutee/trace_ext.c:22
    1990:	b580      	push	{r7, lr}
    1992:	b082      	sub	sp, #8
    1994:	af00      	add	r7, sp, #0
    1996:	6078      	str	r0, [r7, #4]
/home/aom1/Work/Linux/target/STM32MP1-DK2/bootloader/buildroot/optee-os-custom/lib/libutee/trace_ext.c:26
    1998:	6878      	ldr	r0, [r7, #4]
    199a:	f00b fec7 	bl	d72c <strlen>
    199e:	4603      	mov	r3, r0
    19a0:	4619      	mov	r1, r3
    19a2:	6878      	ldr	r0, [r7, #4]
    19a4:	f001 ec76 	blx	3294 <_utee_log>
/home/aom1/Work/Linux/target/STM32MP1-DK2/bootloader/buildroot/optee-os-custom/lib/libutee/trace_ext.c:28
    19a8:	bf00      	nop
    19aa:	3708      	adds	r7, #8
    19ac:	46bd      	mov	sp, r7
    19ae:	bd80      	pop	{r7, pc}

000019b0 <trace_ext_get_thread_id>:
trace_ext_get_thread_id():
/home/aom1/Work/Linux/target/STM32MP1-DK2/bootloader/buildroot/optee-os-custom/lib/libutee/trace_ext.c:31
    19b0:	b480      	push	{r7}
    19b2:	af00      	add	r7, sp, #0
/home/aom1/Work/Linux/target/STM32MP1-DK2/bootloader/buildroot/optee-os-custom/lib/libutee/trace_ext.c:32
    19b4:	f04f 33ff 	mov.w	r3, #4294967295	; 0xffffffff
/home/aom1/Work/Linux/target/STM32MP1-DK2/bootloader/buildroot/optee-os-custom/lib/libutee/trace_ext.c:33
    19b8:	4618      	mov	r0, r3
    19ba:	46bd      	mov	sp, r7
    19bc:	f85d 7b04 	ldr.w	r7, [sp], #4
    19c0:	4770      	bx	lr

000019c2 <printf>:
printf():
/home/aom1/Work/Linux/target/STM32MP1-DK2/bootloader/buildroot/optee-os-custom/lib/libutee/trace_ext.c:41
    19c2:	b40f      	push	{r0, r1, r2, r3}
    19c4:	b580      	push	{r7, lr}
    19c6:	b0c2      	sub	sp, #264	; 0x108
    19c8:	af00      	add	r7, sp, #0
/home/aom1/Work/Linux/target/STM32MP1-DK2/bootloader/buildroot/optee-os-custom/lib/libutee/trace_ext.c:46
    19ca:	f7fe fda7 	bl	51c <trace_get_level>
    19ce:	4603      	mov	r3, r0
    19d0:	2b00      	cmp	r3, #0
    19d2:	dc01      	bgt.n	19d8 <printf+0x16>
/home/aom1/Work/Linux/target/STM32MP1-DK2/bootloader/buildroot/optee-os-custom/lib/libutee/trace_ext.c:47
    19d4:	2300      	movs	r3, #0
    19d6:	e021      	b.n	1a1c <printf+0x5a>
/home/aom1/Work/Linux/target/STM32MP1-DK2/bootloader/buildroot/optee-os-custom/lib/libutee/trace_ext.c:49
    19d8:	f507 728a 	add.w	r2, r7, #276	; 0x114
    19dc:	f507 7384 	add.w	r3, r7, #264	; 0x108
    19e0:	f5a3 7384 	sub.w	r3, r3, #264	; 0x108
    19e4:	601a      	str	r2, [r3, #0]
/home/aom1/Work/Linux/target/STM32MP1-DK2/bootloader/buildroot/optee-os-custom/lib/libutee/trace_ext.c:50
    19e6:	f507 7384 	add.w	r3, r7, #264	; 0x108
    19ea:	f5a3 7384 	sub.w	r3, r3, #264	; 0x108
    19ee:	1d38      	adds	r0, r7, #4
    19f0:	681b      	ldr	r3, [r3, #0]
    19f2:	f8d7 2110 	ldr.w	r2, [r7, #272]	; 0x110
    19f6:	f44f 7180 	mov.w	r1, #256	; 0x100
    19fa:	f00c f831 	bl	da60 <vsnprintf>
    19fe:	f8c7 0104 	str.w	r0, [r7, #260]	; 0x104
/home/aom1/Work/Linux/target/STM32MP1-DK2/bootloader/buildroot/optee-os-custom/lib/libutee/trace_ext.c:53
    1a02:	f8d7 3104 	ldr.w	r3, [r7, #260]	; 0x104
    1a06:	2b00      	cmp	r3, #0
    1a08:	da02      	bge.n	1a10 <printf+0x4e>
/home/aom1/Work/Linux/target/STM32MP1-DK2/bootloader/buildroot/optee-os-custom/lib/libutee/trace_ext.c:54
    1a0a:	f8d7 3104 	ldr.w	r3, [r7, #260]	; 0x104
    1a0e:	e005      	b.n	1a1c <printf+0x5a>
/home/aom1/Work/Linux/target/STM32MP1-DK2/bootloader/buildroot/optee-os-custom/lib/libutee/trace_ext.c:56
    1a10:	1d3b      	adds	r3, r7, #4
    1a12:	4618      	mov	r0, r3
    1a14:	f7ff ffbc 	bl	1990 <trace_ext_puts>
/home/aom1/Work/Linux/target/STM32MP1-DK2/bootloader/buildroot/optee-os-custom/lib/libutee/trace_ext.c:58
    1a18:	f8d7 3104 	ldr.w	r3, [r7, #260]	; 0x104
/home/aom1/Work/Linux/target/STM32MP1-DK2/bootloader/buildroot/optee-os-custom/lib/libutee/trace_ext.c:59 (discriminator 1)
    1a1c:	4618      	mov	r0, r3
    1a1e:	f507 7784 	add.w	r7, r7, #264	; 0x108
    1a22:	46bd      	mov	sp, r7
    1a24:	e8bd 4080 	ldmia.w	sp!, {r7, lr}
    1a28:	b004      	add	sp, #16
    1a2a:	4770      	bx	lr

00001a2c <puts>:
puts():
/home/aom1/Work/Linux/target/STM32MP1-DK2/bootloader/buildroot/optee-os-custom/lib/libutee/trace_ext.c:62
    1a2c:	b580      	push	{r7, lr}
    1a2e:	b082      	sub	sp, #8
    1a30:	af00      	add	r7, sp, #0
    1a32:	6078      	str	r0, [r7, #4]
/home/aom1/Work/Linux/target/STM32MP1-DK2/bootloader/buildroot/optee-os-custom/lib/libutee/trace_ext.c:63
    1a34:	f7fe fd72 	bl	51c <trace_get_level>
    1a38:	4603      	mov	r3, r0
    1a3a:	2b00      	cmp	r3, #0
    1a3c:	dd07      	ble.n	1a4e <puts+0x22>
/home/aom1/Work/Linux/target/STM32MP1-DK2/bootloader/buildroot/optee-os-custom/lib/libutee/trace_ext.c:64
    1a3e:	6878      	ldr	r0, [r7, #4]
    1a40:	f7ff ffa6 	bl	1990 <trace_ext_puts>
/home/aom1/Work/Linux/target/STM32MP1-DK2/bootloader/buildroot/optee-os-custom/lib/libutee/trace_ext.c:65
    1a44:	4b04      	ldr	r3, [pc, #16]	; (1a58 <puts+0x2c>)
    1a46:	447b      	add	r3, pc
    1a48:	4618      	mov	r0, r3
    1a4a:	f7ff ffa1 	bl	1990 <trace_ext_puts>
/home/aom1/Work/Linux/target/STM32MP1-DK2/bootloader/buildroot/optee-os-custom/lib/libutee/trace_ext.c:67
    1a4e:	2301      	movs	r3, #1
/home/aom1/Work/Linux/target/STM32MP1-DK2/bootloader/buildroot/optee-os-custom/lib/libutee/trace_ext.c:68
    1a50:	4618      	mov	r0, r3
    1a52:	3708      	adds	r7, #8
    1a54:	46bd      	mov	sp, r7
    1a56:	bd80      	pop	{r7, pc}
    1a58:	0000c6ce 	.word	0x0000c6ce

00001a5c <putchar>:
putchar():
/home/aom1/Work/Linux/target/STM32MP1-DK2/bootloader/buildroot/optee-os-custom/lib/libutee/trace_ext.c:71
    1a5c:	b580      	push	{r7, lr}
    1a5e:	b084      	sub	sp, #16
    1a60:	af00      	add	r7, sp, #0
    1a62:	6078      	str	r0, [r7, #4]
/home/aom1/Work/Linux/target/STM32MP1-DK2/bootloader/buildroot/optee-os-custom/lib/libutee/trace_ext.c:72
    1a64:	687b      	ldr	r3, [r7, #4]
    1a66:	b2db      	uxtb	r3, r3
    1a68:	733b      	strb	r3, [r7, #12]
    1a6a:	2300      	movs	r3, #0
    1a6c:	737b      	strb	r3, [r7, #13]
/home/aom1/Work/Linux/target/STM32MP1-DK2/bootloader/buildroot/optee-os-custom/lib/libutee/trace_ext.c:74
    1a6e:	f7fe fd55 	bl	51c <trace_get_level>
    1a72:	4603      	mov	r3, r0
    1a74:	2b00      	cmp	r3, #0
    1a76:	dd04      	ble.n	1a82 <putchar+0x26>
/home/aom1/Work/Linux/target/STM32MP1-DK2/bootloader/buildroot/optee-os-custom/lib/libutee/trace_ext.c:75
    1a78:	f107 030c 	add.w	r3, r7, #12
    1a7c:	4618      	mov	r0, r3
    1a7e:	f7ff ff87 	bl	1990 <trace_ext_puts>
/home/aom1/Work/Linux/target/STM32MP1-DK2/bootloader/buildroot/optee-os-custom/lib/libutee/trace_ext.c:81
    1a82:	687b      	ldr	r3, [r7, #4]
    1a84:	b2db      	uxtb	r3, r3
/home/aom1/Work/Linux/target/STM32MP1-DK2/bootloader/buildroot/optee-os-custom/lib/libutee/trace_ext.c:82
    1a86:	4618      	mov	r0, r3
    1a88:	3710      	adds	r7, #16
    1a8a:	46bd      	mov	sp, r7
    1a8c:	bd80      	pop	{r7, pc}
    1a8e:	bf00      	nop

00001a90 <copy_param>:
copy_param():
/home/aom1/Work/Linux/target/STM32MP1-DK2/bootloader/buildroot/optee-os-custom/lib/libutee/tee_api.c:29
    1a90:	e92d 4fb0 	stmdb	sp!, {r4, r5, r7, r8, r9, sl, fp, lr}
    1a94:	b090      	sub	sp, #64	; 0x40
    1a96:	af00      	add	r7, sp, #0
    1a98:	61f8      	str	r0, [r7, #28]
    1a9a:	61b9      	str	r1, [r7, #24]
    1a9c:	617a      	str	r2, [r7, #20]
    1a9e:	613b      	str	r3, [r7, #16]
/home/aom1/Work/Linux/target/STM32MP1-DK2/bootloader/buildroot/optee-os-custom/lib/libutee/tee_api.c:30
    1aa0:	2300      	movs	r3, #0
    1aa2:	63fb      	str	r3, [r7, #60]	; 0x3c
/home/aom1/Work/Linux/target/STM32MP1-DK2/bootloader/buildroot/optee-os-custom/lib/libutee/tee_api.c:31
    1aa4:	2300      	movs	r3, #0
    1aa6:	63bb      	str	r3, [r7, #56]	; 0x38
/home/aom1/Work/Linux/target/STM32MP1-DK2/bootloader/buildroot/optee-os-custom/lib/libutee/tee_api.c:32
    1aa8:	2300      	movs	r3, #0
    1aaa:	637b      	str	r3, [r7, #52]	; 0x34
/home/aom1/Work/Linux/target/STM32MP1-DK2/bootloader/buildroot/optee-os-custom/lib/libutee/tee_api.c:33
    1aac:	2308      	movs	r3, #8
    1aae:	62fb      	str	r3, [r7, #44]	; 0x2c
/home/aom1/Work/Linux/target/STM32MP1-DK2/bootloader/buildroot/optee-os-custom/lib/libutee/tee_api.c:34
    1ab0:	2300      	movs	r3, #0
    1ab2:	623b      	str	r3, [r7, #32]
/home/aom1/Work/Linux/target/STM32MP1-DK2/bootloader/buildroot/optee-os-custom/lib/libutee/tee_api.c:35
    1ab4:	2300      	movs	r3, #0
    1ab6:	633b      	str	r3, [r7, #48]	; 0x30
/home/aom1/Work/Linux/target/STM32MP1-DK2/bootloader/buildroot/optee-os-custom/lib/libutee/tee_api.c:36
    1ab8:	2300      	movs	r3, #0
    1aba:	62bb      	str	r3, [r7, #40]	; 0x28
/home/aom1/Work/Linux/target/STM32MP1-DK2/bootloader/buildroot/optee-os-custom/lib/libutee/tee_api.c:37
    1abc:	2301      	movs	r3, #1
    1abe:	627b      	str	r3, [r7, #36]	; 0x24
/home/aom1/Work/Linux/target/STM32MP1-DK2/bootloader/buildroot/optee-os-custom/lib/libutee/tee_api.c:45
    1ac0:	693b      	ldr	r3, [r7, #16]
    1ac2:	2200      	movs	r2, #0
    1ac4:	601a      	str	r2, [r3, #0]
/home/aom1/Work/Linux/target/STM32MP1-DK2/bootloader/buildroot/optee-os-custom/lib/libutee/tee_api.c:46
    1ac6:	6e3b      	ldr	r3, [r7, #96]	; 0x60
    1ac8:	2200      	movs	r2, #0
    1aca:	601a      	str	r2, [r3, #0]
/home/aom1/Work/Linux/target/STM32MP1-DK2/bootloader/buildroot/optee-os-custom/lib/libutee/tee_api.c:47
    1acc:	2300      	movs	r3, #0
    1ace:	63fb      	str	r3, [r7, #60]	; 0x3c
    1ad0:	e040      	b.n	1b54 <copy_param+0xc4>
/home/aom1/Work/Linux/target/STM32MP1-DK2/bootloader/buildroot/optee-os-custom/lib/libutee/tee_api.c:48
    1ad2:	6bfb      	ldr	r3, [r7, #60]	; 0x3c
    1ad4:	009b      	lsls	r3, r3, #2
    1ad6:	6e7a      	ldr	r2, [r7, #100]	; 0x64
    1ad8:	4413      	add	r3, r2
    1ada:	2200      	movs	r2, #0
    1adc:	601a      	str	r2, [r3, #0]
/home/aom1/Work/Linux/target/STM32MP1-DK2/bootloader/buildroot/optee-os-custom/lib/libutee/tee_api.c:49
    1ade:	6bfb      	ldr	r3, [r7, #60]	; 0x3c
    1ae0:	009b      	lsls	r3, r3, #2
    1ae2:	69ba      	ldr	r2, [r7, #24]
    1ae4:	fa22 f303 	lsr.w	r3, r2, r3
    1ae8:	f003 030f 	and.w	r3, r3, #15
    1aec:	3b05      	subs	r3, #5
    1aee:	2b02      	cmp	r3, #2
    1af0:	d82a      	bhi.n	1b48 <copy_param+0xb8>
/home/aom1/Work/Linux/target/STM32MP1-DK2/bootloader/buildroot/optee-os-custom/lib/libutee/tee_api.c:53
    1af2:	6bfb      	ldr	r3, [r7, #60]	; 0x3c
    1af4:	00db      	lsls	r3, r3, #3
    1af6:	697a      	ldr	r2, [r7, #20]
    1af8:	4413      	add	r3, r2
    1afa:	681b      	ldr	r3, [r3, #0]
    1afc:	633b      	str	r3, [r7, #48]	; 0x30
/home/aom1/Work/Linux/target/STM32MP1-DK2/bootloader/buildroot/optee-os-custom/lib/libutee/tee_api.c:54
    1afe:	6bfb      	ldr	r3, [r7, #60]	; 0x3c
    1b00:	00db      	lsls	r3, r3, #3
    1b02:	697a      	ldr	r2, [r7, #20]
    1b04:	4413      	add	r3, r2
    1b06:	685b      	ldr	r3, [r3, #4]
    1b08:	62bb      	str	r3, [r7, #40]	; 0x28
/home/aom1/Work/Linux/target/STM32MP1-DK2/bootloader/buildroot/optee-os-custom/lib/libutee/tee_api.c:64
    1b0a:	6b3b      	ldr	r3, [r7, #48]	; 0x30
    1b0c:	2b00      	cmp	r3, #0
    1b0e:	d01d      	beq.n	1b4c <copy_param+0xbc>
/home/aom1/Work/Linux/target/STM32MP1-DK2/bootloader/buildroot/optee-os-custom/lib/libutee/tee_api.c:64 (discriminator 1)
    1b10:	6abb      	ldr	r3, [r7, #40]	; 0x28
    1b12:	2b00      	cmp	r3, #0
    1b14:	d01a      	beq.n	1b4c <copy_param+0xbc>
/home/aom1/Work/Linux/target/STM32MP1-DK2/bootloader/buildroot/optee-os-custom/lib/libutee/tee_api.c:65 (discriminator 2)
    1b16:	6aba      	ldr	r2, [r7, #40]	; 0x28
    1b18:	6b39      	ldr	r1, [r7, #48]	; 0x30
    1b1a:	6a78      	ldr	r0, [r7, #36]	; 0x24
    1b1c:	f000 fab0 	bl	2080 <TEE_CheckMemoryAccessRights>
    1b20:	4603      	mov	r3, r0
/home/aom1/Work/Linux/target/STM32MP1-DK2/bootloader/buildroot/optee-os-custom/lib/libutee/tee_api.c:64 (discriminator 2)
    1b22:	2b00      	cmp	r3, #0
    1b24:	d112      	bne.n	1b4c <copy_param+0xbc>
/home/aom1/Work/Linux/target/STM32MP1-DK2/bootloader/buildroot/optee-os-custom/lib/libutee/tee_api.c:66
    1b26:	f107 0220 	add.w	r2, r7, #32
    1b2a:	6bfb      	ldr	r3, [r7, #60]	; 0x3c
    1b2c:	4413      	add	r3, r2
    1b2e:	2201      	movs	r2, #1
    1b30:	701a      	strb	r2, [r3, #0]
/home/aom1/Work/Linux/target/STM32MP1-DK2/bootloader/buildroot/optee-os-custom/lib/libutee/tee_api.c:67
    1b32:	6afa      	ldr	r2, [r7, #44]	; 0x2c
    1b34:	6abb      	ldr	r3, [r7, #40]	; 0x28
    1b36:	4413      	add	r3, r2
    1b38:	1e5a      	subs	r2, r3, #1
    1b3a:	6afb      	ldr	r3, [r7, #44]	; 0x2c
    1b3c:	425b      	negs	r3, r3
    1b3e:	4013      	ands	r3, r2
    1b40:	6b7a      	ldr	r2, [r7, #52]	; 0x34
    1b42:	4413      	add	r3, r2
    1b44:	637b      	str	r3, [r7, #52]	; 0x34
/home/aom1/Work/Linux/target/STM32MP1-DK2/bootloader/buildroot/optee-os-custom/lib/libutee/tee_api.c:69
    1b46:	e001      	b.n	1b4c <copy_param+0xbc>
/home/aom1/Work/Linux/target/STM32MP1-DK2/bootloader/buildroot/optee-os-custom/lib/libutee/tee_api.c:71
    1b48:	bf00      	nop
    1b4a:	e000      	b.n	1b4e <copy_param+0xbe>
/home/aom1/Work/Linux/target/STM32MP1-DK2/bootloader/buildroot/optee-os-custom/lib/libutee/tee_api.c:69
    1b4c:	bf00      	nop
/home/aom1/Work/Linux/target/STM32MP1-DK2/bootloader/buildroot/optee-os-custom/lib/libutee/tee_api.c:47 (discriminator 2)
    1b4e:	6bfb      	ldr	r3, [r7, #60]	; 0x3c
    1b50:	3301      	adds	r3, #1
    1b52:	63fb      	str	r3, [r7, #60]	; 0x3c
/home/aom1/Work/Linux/target/STM32MP1-DK2/bootloader/buildroot/optee-os-custom/lib/libutee/tee_api.c:47 (discriminator 1)
    1b54:	6bfb      	ldr	r3, [r7, #60]	; 0x3c
    1b56:	2b03      	cmp	r3, #3
    1b58:	d9bb      	bls.n	1ad2 <copy_param+0x42>
/home/aom1/Work/Linux/target/STM32MP1-DK2/bootloader/buildroot/optee-os-custom/lib/libutee/tee_api.c:75
    1b5a:	6b7b      	ldr	r3, [r7, #52]	; 0x34
    1b5c:	2b00      	cmp	r3, #0
    1b5e:	d011      	beq.n	1b84 <copy_param+0xf4>
/home/aom1/Work/Linux/target/STM32MP1-DK2/bootloader/buildroot/optee-os-custom/lib/libutee/tee_api.c:76
    1b60:	2104      	movs	r1, #4
    1b62:	6b78      	ldr	r0, [r7, #52]	; 0x34
    1b64:	f001 fa96 	bl	3094 <tee_map_zi>
    1b68:	63b8      	str	r0, [r7, #56]	; 0x38
/home/aom1/Work/Linux/target/STM32MP1-DK2/bootloader/buildroot/optee-os-custom/lib/libutee/tee_api.c:77
    1b6a:	6bbb      	ldr	r3, [r7, #56]	; 0x38
    1b6c:	2b00      	cmp	r3, #0
    1b6e:	d103      	bne.n	1b78 <copy_param+0xe8>
/home/aom1/Work/Linux/target/STM32MP1-DK2/bootloader/buildroot/optee-os-custom/lib/libutee/tee_api.c:78
    1b70:	230c      	movs	r3, #12
    1b72:	f6cf 73ff 	movt	r3, #65535	; 0xffff
    1b76:	e0b5      	b.n	1ce4 <copy_param+0x254>
/home/aom1/Work/Linux/target/STM32MP1-DK2/bootloader/buildroot/optee-os-custom/lib/libutee/tee_api.c:79
    1b78:	693b      	ldr	r3, [r7, #16]
    1b7a:	6bba      	ldr	r2, [r7, #56]	; 0x38
    1b7c:	601a      	str	r2, [r3, #0]
/home/aom1/Work/Linux/target/STM32MP1-DK2/bootloader/buildroot/optee-os-custom/lib/libutee/tee_api.c:80
    1b7e:	6e3b      	ldr	r3, [r7, #96]	; 0x60
    1b80:	6b7a      	ldr	r2, [r7, #52]	; 0x34
    1b82:	601a      	str	r2, [r3, #0]
/home/aom1/Work/Linux/target/STM32MP1-DK2/bootloader/buildroot/optee-os-custom/lib/libutee/tee_api.c:83
    1b84:	69bb      	ldr	r3, [r7, #24]
    1b86:	2200      	movs	r2, #0
    1b88:	60bb      	str	r3, [r7, #8]
    1b8a:	60fa      	str	r2, [r7, #12]
    1b8c:	69fb      	ldr	r3, [r7, #28]
    1b8e:	e9d7 1202 	ldrd	r1, r2, [r7, #8]
    1b92:	e9c3 1200 	strd	r1, r2, [r3]
/home/aom1/Work/Linux/target/STM32MP1-DK2/bootloader/buildroot/optee-os-custom/lib/libutee/tee_api.c:84
    1b96:	2300      	movs	r3, #0
    1b98:	63fb      	str	r3, [r7, #60]	; 0x3c
    1b9a:	e09e      	b.n	1cda <copy_param+0x24a>
/home/aom1/Work/Linux/target/STM32MP1-DK2/bootloader/buildroot/optee-os-custom/lib/libutee/tee_api.c:85
    1b9c:	6bfb      	ldr	r3, [r7, #60]	; 0x3c
    1b9e:	009b      	lsls	r3, r3, #2
    1ba0:	69ba      	ldr	r2, [r7, #24]
    1ba2:	fa22 f303 	lsr.w	r3, r2, r3
    1ba6:	f003 030f 	and.w	r3, r3, #15
    1baa:	2b07      	cmp	r3, #7
    1bac:	d87c      	bhi.n	1ca8 <copy_param+0x218>
    1bae:	2b05      	cmp	r3, #5
    1bb0:	d225      	bcs.n	1bfe <copy_param+0x16e>
    1bb2:	2b01      	cmp	r3, #1
    1bb4:	d001      	beq.n	1bba <copy_param+0x12a>
    1bb6:	2b03      	cmp	r3, #3
    1bb8:	d176      	bne.n	1ca8 <copy_param+0x218>
/home/aom1/Work/Linux/target/STM32MP1-DK2/bootloader/buildroot/optee-os-custom/lib/libutee/tee_api.c:88
    1bba:	6bfb      	ldr	r3, [r7, #60]	; 0x3c
    1bbc:	00db      	lsls	r3, r3, #3
    1bbe:	697a      	ldr	r2, [r7, #20]
    1bc0:	4413      	add	r3, r2
    1bc2:	681a      	ldr	r2, [r3, #0]
    1bc4:	6bfb      	ldr	r3, [r7, #60]	; 0x3c
    1bc6:	005b      	lsls	r3, r3, #1
    1bc8:	2100      	movs	r1, #0
    1bca:	4614      	mov	r4, r2
    1bcc:	460d      	mov	r5, r1
    1bce:	69fa      	ldr	r2, [r7, #28]
    1bd0:	3301      	adds	r3, #1
    1bd2:	00db      	lsls	r3, r3, #3
    1bd4:	4413      	add	r3, r2
    1bd6:	e9c3 4500 	strd	r4, r5, [r3]
/home/aom1/Work/Linux/target/STM32MP1-DK2/bootloader/buildroot/optee-os-custom/lib/libutee/tee_api.c:89
    1bda:	6bfb      	ldr	r3, [r7, #60]	; 0x3c
    1bdc:	00db      	lsls	r3, r3, #3
    1bde:	697a      	ldr	r2, [r7, #20]
    1be0:	4413      	add	r3, r2
    1be2:	685a      	ldr	r2, [r3, #4]
    1be4:	6bfb      	ldr	r3, [r7, #60]	; 0x3c
    1be6:	005b      	lsls	r3, r3, #1
    1be8:	3301      	adds	r3, #1
    1bea:	2100      	movs	r1, #0
    1bec:	4690      	mov	r8, r2
    1bee:	4689      	mov	r9, r1
    1bf0:	69fa      	ldr	r2, [r7, #28]
    1bf2:	3301      	adds	r3, #1
    1bf4:	00db      	lsls	r3, r3, #3
    1bf6:	4413      	add	r3, r2
    1bf8:	e9c3 8900 	strd	r8, r9, [r3]
/home/aom1/Work/Linux/target/STM32MP1-DK2/bootloader/buildroot/optee-os-custom/lib/libutee/tee_api.c:90
    1bfc:	e06a      	b.n	1cd4 <copy_param+0x244>
/home/aom1/Work/Linux/target/STM32MP1-DK2/bootloader/buildroot/optee-os-custom/lib/libutee/tee_api.c:94
    1bfe:	6bfb      	ldr	r3, [r7, #60]	; 0x3c
    1c00:	00db      	lsls	r3, r3, #3
    1c02:	697a      	ldr	r2, [r7, #20]
    1c04:	4413      	add	r3, r2
    1c06:	685b      	ldr	r3, [r3, #4]
    1c08:	62bb      	str	r3, [r7, #40]	; 0x28
/home/aom1/Work/Linux/target/STM32MP1-DK2/bootloader/buildroot/optee-os-custom/lib/libutee/tee_api.c:95
    1c0a:	f107 0220 	add.w	r2, r7, #32
    1c0e:	6bfb      	ldr	r3, [r7, #60]	; 0x3c
    1c10:	4413      	add	r3, r2
    1c12:	781b      	ldrb	r3, [r3, #0]
    1c14:	2b00      	cmp	r3, #0
    1c16:	d025      	beq.n	1c64 <copy_param+0x1d4>
/home/aom1/Work/Linux/target/STM32MP1-DK2/bootloader/buildroot/optee-os-custom/lib/libutee/tee_api.c:96
    1c18:	6bbb      	ldr	r3, [r7, #56]	; 0x38
    1c1a:	633b      	str	r3, [r7, #48]	; 0x30
/home/aom1/Work/Linux/target/STM32MP1-DK2/bootloader/buildroot/optee-os-custom/lib/libutee/tee_api.c:97
    1c1c:	6bfb      	ldr	r3, [r7, #60]	; 0x3c
    1c1e:	009b      	lsls	r3, r3, #2
    1c20:	6e7a      	ldr	r2, [r7, #100]	; 0x64
    1c22:	4413      	add	r3, r2
    1c24:	6bba      	ldr	r2, [r7, #56]	; 0x38
    1c26:	601a      	str	r2, [r3, #0]
/home/aom1/Work/Linux/target/STM32MP1-DK2/bootloader/buildroot/optee-os-custom/lib/libutee/tee_api.c:98
    1c28:	6afa      	ldr	r2, [r7, #44]	; 0x2c
    1c2a:	6abb      	ldr	r3, [r7, #40]	; 0x28
    1c2c:	4413      	add	r3, r2
    1c2e:	1e5a      	subs	r2, r3, #1
    1c30:	6afb      	ldr	r3, [r7, #44]	; 0x2c
    1c32:	425b      	negs	r3, r3
    1c34:	4013      	ands	r3, r2
    1c36:	6bba      	ldr	r2, [r7, #56]	; 0x38
    1c38:	4413      	add	r3, r2
    1c3a:	63bb      	str	r3, [r7, #56]	; 0x38
/home/aom1/Work/Linux/target/STM32MP1-DK2/bootloader/buildroot/optee-os-custom/lib/libutee/tee_api.c:99
    1c3c:	6bfb      	ldr	r3, [r7, #60]	; 0x3c
    1c3e:	009b      	lsls	r3, r3, #2
    1c40:	69ba      	ldr	r2, [r7, #24]
    1c42:	fa22 f303 	lsr.w	r3, r2, r3
    1c46:	f003 030f 	and.w	r3, r3, #15
    1c4a:	2b06      	cmp	r3, #6
    1c4c:	d010      	beq.n	1c70 <copy_param+0x1e0>
/home/aom1/Work/Linux/target/STM32MP1-DK2/bootloader/buildroot/optee-os-custom/lib/libutee/tee_api.c:101
    1c4e:	6bfb      	ldr	r3, [r7, #60]	; 0x3c
    1c50:	00db      	lsls	r3, r3, #3
    1c52:	697a      	ldr	r2, [r7, #20]
    1c54:	4413      	add	r3, r2
    1c56:	681b      	ldr	r3, [r3, #0]
    1c58:	6aba      	ldr	r2, [r7, #40]	; 0x28
    1c5a:	4619      	mov	r1, r3
    1c5c:	6b38      	ldr	r0, [r7, #48]	; 0x30
    1c5e:	f00b ff13 	bl	da88 <memcpy>
    1c62:	e005      	b.n	1c70 <copy_param+0x1e0>
/home/aom1/Work/Linux/target/STM32MP1-DK2/bootloader/buildroot/optee-os-custom/lib/libutee/tee_api.c:103
    1c64:	6bfb      	ldr	r3, [r7, #60]	; 0x3c
    1c66:	00db      	lsls	r3, r3, #3
    1c68:	697a      	ldr	r2, [r7, #20]
    1c6a:	4413      	add	r3, r2
    1c6c:	681b      	ldr	r3, [r3, #0]
    1c6e:	633b      	str	r3, [r7, #48]	; 0x30
/home/aom1/Work/Linux/target/STM32MP1-DK2/bootloader/buildroot/optee-os-custom/lib/libutee/tee_api.c:105
    1c70:	6b3a      	ldr	r2, [r7, #48]	; 0x30
    1c72:	6bfb      	ldr	r3, [r7, #60]	; 0x3c
    1c74:	005b      	lsls	r3, r3, #1
    1c76:	2100      	movs	r1, #0
    1c78:	4692      	mov	sl, r2
    1c7a:	468b      	mov	fp, r1
    1c7c:	69fa      	ldr	r2, [r7, #28]
    1c7e:	3301      	adds	r3, #1
    1c80:	00db      	lsls	r3, r3, #3
    1c82:	4413      	add	r3, r2
    1c84:	e9c3 ab00 	strd	sl, fp, [r3]
/home/aom1/Work/Linux/target/STM32MP1-DK2/bootloader/buildroot/optee-os-custom/lib/libutee/tee_api.c:106
    1c88:	6bfb      	ldr	r3, [r7, #60]	; 0x3c
    1c8a:	005b      	lsls	r3, r3, #1
    1c8c:	3301      	adds	r3, #1
    1c8e:	6aba      	ldr	r2, [r7, #40]	; 0x28
    1c90:	2100      	movs	r1, #0
    1c92:	603a      	str	r2, [r7, #0]
    1c94:	6079      	str	r1, [r7, #4]
    1c96:	69fa      	ldr	r2, [r7, #28]
    1c98:	3301      	adds	r3, #1
    1c9a:	00db      	lsls	r3, r3, #3
    1c9c:	4413      	add	r3, r2
    1c9e:	e9d7 1200 	ldrd	r1, r2, [r7]
    1ca2:	e9c3 1200 	strd	r1, r2, [r3]
/home/aom1/Work/Linux/target/STM32MP1-DK2/bootloader/buildroot/optee-os-custom/lib/libutee/tee_api.c:107
    1ca6:	e015      	b.n	1cd4 <copy_param+0x244>
/home/aom1/Work/Linux/target/STM32MP1-DK2/bootloader/buildroot/optee-os-custom/lib/libutee/tee_api.c:109
    1ca8:	6bfb      	ldr	r3, [r7, #60]	; 0x3c
    1caa:	005b      	lsls	r3, r3, #1
    1cac:	69fa      	ldr	r2, [r7, #28]
    1cae:	3301      	adds	r3, #1
    1cb0:	00db      	lsls	r3, r3, #3
    1cb2:	4413      	add	r3, r2
    1cb4:	efc0 0010 	vmov.i32	d16, #0	; 0x00000000
    1cb8:	edc3 0b00 	vstr	d16, [r3]
/home/aom1/Work/Linux/target/STM32MP1-DK2/bootloader/buildroot/optee-os-custom/lib/libutee/tee_api.c:110
    1cbc:	6bfb      	ldr	r3, [r7, #60]	; 0x3c
    1cbe:	005b      	lsls	r3, r3, #1
    1cc0:	3301      	adds	r3, #1
    1cc2:	69fa      	ldr	r2, [r7, #28]
    1cc4:	3301      	adds	r3, #1
    1cc6:	00db      	lsls	r3, r3, #3
    1cc8:	4413      	add	r3, r2
    1cca:	efc0 0010 	vmov.i32	d16, #0	; 0x00000000
    1cce:	edc3 0b00 	vstr	d16, [r3]
/home/aom1/Work/Linux/target/STM32MP1-DK2/bootloader/buildroot/optee-os-custom/lib/libutee/tee_api.c:111
    1cd2:	bf00      	nop
/home/aom1/Work/Linux/target/STM32MP1-DK2/bootloader/buildroot/optee-os-custom/lib/libutee/tee_api.c:84 (discriminator 2)
    1cd4:	6bfb      	ldr	r3, [r7, #60]	; 0x3c
    1cd6:	3301      	adds	r3, #1
    1cd8:	63fb      	str	r3, [r7, #60]	; 0x3c
/home/aom1/Work/Linux/target/STM32MP1-DK2/bootloader/buildroot/optee-os-custom/lib/libutee/tee_api.c:84 (discriminator 1)
    1cda:	6bfb      	ldr	r3, [r7, #60]	; 0x3c
    1cdc:	2b03      	cmp	r3, #3
    1cde:	f67f af5d 	bls.w	1b9c <copy_param+0x10c>
/home/aom1/Work/Linux/target/STM32MP1-DK2/bootloader/buildroot/optee-os-custom/lib/libutee/tee_api.c:115
    1ce2:	2300      	movs	r3, #0
/home/aom1/Work/Linux/target/STM32MP1-DK2/bootloader/buildroot/optee-os-custom/lib/libutee/tee_api.c:116 (discriminator 1)
    1ce4:	4618      	mov	r0, r3
    1ce6:	3740      	adds	r7, #64	; 0x40
    1ce8:	46bd      	mov	sp, r7
    1cea:	e8bd 8fb0 	ldmia.w	sp!, {r4, r5, r7, r8, r9, sl, fp, pc}

00001cee <update_out_param>:
update_out_param():
/home/aom1/Work/Linux/target/STM32MP1-DK2/bootloader/buildroot/optee-os-custom/lib/libutee/tee_api.c:121
    1cee:	b580      	push	{r7, lr}
    1cf0:	b08a      	sub	sp, #40	; 0x28
    1cf2:	af00      	add	r7, sp, #0
    1cf4:	60f8      	str	r0, [r7, #12]
    1cf6:	60b9      	str	r1, [r7, #8]
    1cf8:	607a      	str	r2, [r7, #4]
/home/aom1/Work/Linux/target/STM32MP1-DK2/bootloader/buildroot/optee-os-custom/lib/libutee/tee_api.c:123
    1cfa:	687b      	ldr	r3, [r7, #4]
    1cfc:	e9d3 2300 	ldrd	r2, r3, [r3]
    1d00:	4613      	mov	r3, r2
    1d02:	623b      	str	r3, [r7, #32]
/home/aom1/Work/Linux/target/STM32MP1-DK2/bootloader/buildroot/optee-os-custom/lib/libutee/tee_api.c:125
    1d04:	2300      	movs	r3, #0
    1d06:	627b      	str	r3, [r7, #36]	; 0x24
    1d08:	e05d      	b.n	1dc6 <update_out_param+0xd8>
/home/aom1/Work/Linux/target/STM32MP1-DK2/bootloader/buildroot/optee-os-custom/lib/libutee/tee_api.c:126
    1d0a:	6a7b      	ldr	r3, [r7, #36]	; 0x24
    1d0c:	005b      	lsls	r3, r3, #1
    1d0e:	687a      	ldr	r2, [r7, #4]
    1d10:	3301      	adds	r3, #1
    1d12:	00db      	lsls	r3, r3, #3
    1d14:	4413      	add	r3, r2
    1d16:	e9d3 2300 	ldrd	r2, r3, [r3]
    1d1a:	4613      	mov	r3, r2
    1d1c:	61fb      	str	r3, [r7, #28]
/home/aom1/Work/Linux/target/STM32MP1-DK2/bootloader/buildroot/optee-os-custom/lib/libutee/tee_api.c:127
    1d1e:	6a7b      	ldr	r3, [r7, #36]	; 0x24
    1d20:	005b      	lsls	r3, r3, #1
    1d22:	3301      	adds	r3, #1
    1d24:	687a      	ldr	r2, [r7, #4]
    1d26:	3301      	adds	r3, #1
    1d28:	00db      	lsls	r3, r3, #3
    1d2a:	4413      	add	r3, r2
    1d2c:	e9d3 2300 	ldrd	r2, r3, [r3]
    1d30:	4613      	mov	r3, r2
    1d32:	61bb      	str	r3, [r7, #24]
/home/aom1/Work/Linux/target/STM32MP1-DK2/bootloader/buildroot/optee-os-custom/lib/libutee/tee_api.c:129
    1d34:	6a7b      	ldr	r3, [r7, #36]	; 0x24
    1d36:	009b      	lsls	r3, r3, #2
    1d38:	6a3a      	ldr	r2, [r7, #32]
    1d3a:	fa22 f303 	lsr.w	r3, r2, r3
    1d3e:	f003 030f 	and.w	r3, r3, #15
    1d42:	2b03      	cmp	r3, #3
    1d44:	d802      	bhi.n	1d4c <update_out_param+0x5e>
    1d46:	2b02      	cmp	r3, #2
    1d48:	d204      	bcs.n	1d54 <update_out_param+0x66>
/home/aom1/Work/Linux/target/STM32MP1-DK2/bootloader/buildroot/optee-os-custom/lib/libutee/tee_api.c:143
    1d4a:	e038      	b.n	1dbe <update_out_param+0xd0>
    1d4c:	3b06      	subs	r3, #6
/home/aom1/Work/Linux/target/STM32MP1-DK2/bootloader/buildroot/optee-os-custom/lib/libutee/tee_api.c:129
    1d4e:	2b01      	cmp	r3, #1
    1d50:	d835      	bhi.n	1dbe <update_out_param+0xd0>
    1d52:	e00c      	b.n	1d6e <update_out_param+0x80>
/home/aom1/Work/Linux/target/STM32MP1-DK2/bootloader/buildroot/optee-os-custom/lib/libutee/tee_api.c:132
    1d54:	6a7b      	ldr	r3, [r7, #36]	; 0x24
    1d56:	00db      	lsls	r3, r3, #3
    1d58:	68fa      	ldr	r2, [r7, #12]
    1d5a:	4413      	add	r3, r2
    1d5c:	69fa      	ldr	r2, [r7, #28]
    1d5e:	601a      	str	r2, [r3, #0]
/home/aom1/Work/Linux/target/STM32MP1-DK2/bootloader/buildroot/optee-os-custom/lib/libutee/tee_api.c:133
    1d60:	6a7b      	ldr	r3, [r7, #36]	; 0x24
    1d62:	00db      	lsls	r3, r3, #3
    1d64:	68fa      	ldr	r2, [r7, #12]
    1d66:	4413      	add	r3, r2
    1d68:	69ba      	ldr	r2, [r7, #24]
    1d6a:	605a      	str	r2, [r3, #4]
/home/aom1/Work/Linux/target/STM32MP1-DK2/bootloader/buildroot/optee-os-custom/lib/libutee/tee_api.c:134
    1d6c:	e028      	b.n	1dc0 <update_out_param+0xd2>
/home/aom1/Work/Linux/target/STM32MP1-DK2/bootloader/buildroot/optee-os-custom/lib/libutee/tee_api.c:137
    1d6e:	6a7b      	ldr	r3, [r7, #36]	; 0x24
    1d70:	009b      	lsls	r3, r3, #2
    1d72:	68ba      	ldr	r2, [r7, #8]
    1d74:	4413      	add	r3, r2
    1d76:	681b      	ldr	r3, [r3, #0]
    1d78:	2b00      	cmp	r3, #0
    1d7a:	d019      	beq.n	1db0 <update_out_param+0xc2>
/home/aom1/Work/Linux/target/STM32MP1-DK2/bootloader/buildroot/optee-os-custom/lib/libutee/tee_api.c:138
    1d7c:	6a7b      	ldr	r3, [r7, #36]	; 0x24
    1d7e:	00db      	lsls	r3, r3, #3
    1d80:	68fa      	ldr	r2, [r7, #12]
    1d82:	4413      	add	r3, r2
    1d84:	6818      	ldr	r0, [r3, #0]
    1d86:	6a7b      	ldr	r3, [r7, #36]	; 0x24
    1d88:	009b      	lsls	r3, r3, #2
    1d8a:	68ba      	ldr	r2, [r7, #8]
    1d8c:	4413      	add	r3, r2
    1d8e:	6819      	ldr	r1, [r3, #0]
/home/aom1/Work/Linux/target/STM32MP1-DK2/bootloader/buildroot/optee-os-custom/lib/libutee/tee_api.c:139
    1d90:	69bb      	ldr	r3, [r7, #24]
    1d92:	617b      	str	r3, [r7, #20]
    1d94:	6a7b      	ldr	r3, [r7, #36]	; 0x24
    1d96:	00db      	lsls	r3, r3, #3
    1d98:	68fa      	ldr	r2, [r7, #12]
    1d9a:	4413      	add	r3, r2
    1d9c:	685b      	ldr	r3, [r3, #4]
    1d9e:	613b      	str	r3, [r7, #16]
    1da0:	693a      	ldr	r2, [r7, #16]
    1da2:	697b      	ldr	r3, [r7, #20]
    1da4:	4293      	cmp	r3, r2
    1da6:	bf28      	it	cs
    1da8:	4613      	movcs	r3, r2
/home/aom1/Work/Linux/target/STM32MP1-DK2/bootloader/buildroot/optee-os-custom/lib/libutee/tee_api.c:138
    1daa:	461a      	mov	r2, r3
    1dac:	f00b fe6c 	bl	da88 <memcpy>
/home/aom1/Work/Linux/target/STM32MP1-DK2/bootloader/buildroot/optee-os-custom/lib/libutee/tee_api.c:140
    1db0:	6a7b      	ldr	r3, [r7, #36]	; 0x24
    1db2:	00db      	lsls	r3, r3, #3
    1db4:	68fa      	ldr	r2, [r7, #12]
    1db6:	4413      	add	r3, r2
    1db8:	69ba      	ldr	r2, [r7, #24]
    1dba:	605a      	str	r2, [r3, #4]
/home/aom1/Work/Linux/target/STM32MP1-DK2/bootloader/buildroot/optee-os-custom/lib/libutee/tee_api.c:141
    1dbc:	e000      	b.n	1dc0 <update_out_param+0xd2>
/home/aom1/Work/Linux/target/STM32MP1-DK2/bootloader/buildroot/optee-os-custom/lib/libutee/tee_api.c:143
    1dbe:	bf00      	nop
/home/aom1/Work/Linux/target/STM32MP1-DK2/bootloader/buildroot/optee-os-custom/lib/libutee/tee_api.c:125 (discriminator 2)
    1dc0:	6a7b      	ldr	r3, [r7, #36]	; 0x24
    1dc2:	3301      	adds	r3, #1
    1dc4:	627b      	str	r3, [r7, #36]	; 0x24
/home/aom1/Work/Linux/target/STM32MP1-DK2/bootloader/buildroot/optee-os-custom/lib/libutee/tee_api.c:125 (discriminator 1)
    1dc6:	6a7b      	ldr	r3, [r7, #36]	; 0x24
    1dc8:	2b03      	cmp	r3, #3
    1dca:	d99e      	bls.n	1d0a <update_out_param+0x1c>
/home/aom1/Work/Linux/target/STM32MP1-DK2/bootloader/buildroot/optee-os-custom/lib/libutee/tee_api.c:146
    1dcc:	bf00      	nop
    1dce:	bf00      	nop
    1dd0:	3728      	adds	r7, #40	; 0x28
    1dd2:	46bd      	mov	sp, r7
    1dd4:	bd80      	pop	{r7, pc}

00001dd6 <TEE_OpenTASession>:
TEE_OpenTASession():
/home/aom1/Work/Linux/target/STM32MP1-DK2/bootloader/buildroot/optee-os-custom/lib/libutee/tee_api.c:154
    1dd6:	b580      	push	{r7, lr}
    1dd8:	b0a2      	sub	sp, #136	; 0x88
    1dda:	af02      	add	r7, sp, #8
    1ddc:	60f8      	str	r0, [r7, #12]
    1dde:	60b9      	str	r1, [r7, #8]
    1de0:	607a      	str	r2, [r7, #4]
    1de2:	603b      	str	r3, [r7, #0]
/home/aom1/Work/Linux/target/STM32MP1-DK2/bootloader/buildroot/optee-os-custom/lib/libutee/tee_api.c:155
    1de4:	2300      	movs	r3, #0
    1de6:	67fb      	str	r3, [r7, #124]	; 0x7c
/home/aom1/Work/Linux/target/STM32MP1-DK2/bootloader/buildroot/optee-os-custom/lib/libutee/tee_api.c:157
    1de8:	2300      	movs	r3, #0
    1dea:	62fb      	str	r3, [r7, #44]	; 0x2c
/home/aom1/Work/Linux/target/STM32MP1-DK2/bootloader/buildroot/optee-os-custom/lib/libutee/tee_api.c:158
    1dec:	2300      	movs	r3, #0
    1dee:	62bb      	str	r3, [r7, #40]	; 0x28
/home/aom1/Work/Linux/target/STM32MP1-DK2/bootloader/buildroot/optee-os-custom/lib/libutee/tee_api.c:159
    1df0:	2300      	movs	r3, #0
    1df2:	627b      	str	r3, [r7, #36]	; 0x24
/home/aom1/Work/Linux/target/STM32MP1-DK2/bootloader/buildroot/optee-os-custom/lib/libutee/tee_api.c:160
    1df4:	f107 0314 	add.w	r3, r7, #20
    1df8:	efc0 0010 	vmov.i32	d16, #0	; 0x00000000
    1dfc:	edc3 0b00 	vstr	d16, [r3]
    1e00:	edc3 0b02 	vstr	d16, [r3, #8]
/home/aom1/Work/Linux/target/STM32MP1-DK2/bootloader/buildroot/optee-os-custom/lib/libutee/tee_api.c:162
    1e04:	687b      	ldr	r3, [r7, #4]
    1e06:	2b00      	cmp	r3, #0
    1e08:	d003      	beq.n	1e12 <TEE_OpenTASession+0x3c>
/home/aom1/Work/Linux/target/STM32MP1-DK2/bootloader/buildroot/optee-os-custom/lib/libutee/tee_api.c:163
    1e0a:	2120      	movs	r1, #32
    1e0c:	6838      	ldr	r0, [r7, #0]
    1e0e:	f000 fb9f 	bl	2550 <__utee_check_inout_annotation>
/home/aom1/Work/Linux/target/STM32MP1-DK2/bootloader/buildroot/optee-os-custom/lib/libutee/tee_api.c:166
    1e12:	2104      	movs	r1, #4
    1e14:	f8d7 0088 	ldr.w	r0, [r7, #136]	; 0x88
    1e18:	f000 fb66 	bl	24e8 <__utee_check_out_annotation>
/home/aom1/Work/Linux/target/STM32MP1-DK2/bootloader/buildroot/optee-os-custom/lib/libutee/tee_api.c:168
    1e1c:	f107 0228 	add.w	r2, r7, #40	; 0x28
    1e20:	f107 0030 	add.w	r0, r7, #48	; 0x30
    1e24:	f107 0314 	add.w	r3, r7, #20
    1e28:	9301      	str	r3, [sp, #4]
    1e2a:	f107 0324 	add.w	r3, r7, #36	; 0x24
    1e2e:	9300      	str	r3, [sp, #0]
    1e30:	4613      	mov	r3, r2
    1e32:	683a      	ldr	r2, [r7, #0]
    1e34:	6879      	ldr	r1, [r7, #4]
    1e36:	f7ff fe2b 	bl	1a90 <copy_param>
    1e3a:	67f8      	str	r0, [r7, #124]	; 0x7c
/home/aom1/Work/Linux/target/STM32MP1-DK2/bootloader/buildroot/optee-os-custom/lib/libutee/tee_api.c:169
    1e3c:	6ffb      	ldr	r3, [r7, #124]	; 0x7c
    1e3e:	2b00      	cmp	r3, #0
    1e40:	d125      	bne.n	1e8e <TEE_OpenTASession+0xb8>
/home/aom1/Work/Linux/target/STM32MP1-DK2/bootloader/buildroot/optee-os-custom/lib/libutee/tee_api.c:171
    1e42:	f107 012c 	add.w	r1, r7, #44	; 0x2c
    1e46:	f107 0230 	add.w	r2, r7, #48	; 0x30
    1e4a:	f8d7 308c 	ldr.w	r3, [r7, #140]	; 0x8c
    1e4e:	9300      	str	r3, [sp, #0]
    1e50:	460b      	mov	r3, r1
    1e52:	68b9      	ldr	r1, [r7, #8]
    1e54:	68f8      	ldr	r0, [r7, #12]
    1e56:	f001 ea48 	blx	32e8 <_utee_open_ta_session>
    1e5a:	67f8      	str	r0, [r7, #124]	; 0x7c
/home/aom1/Work/Linux/target/STM32MP1-DK2/bootloader/buildroot/optee-os-custom/lib/libutee/tee_api.c:173
    1e5c:	f107 0230 	add.w	r2, r7, #48	; 0x30
    1e60:	f107 0314 	add.w	r3, r7, #20
    1e64:	4619      	mov	r1, r3
    1e66:	6838      	ldr	r0, [r7, #0]
    1e68:	f7ff ff41 	bl	1cee <update_out_param>
/home/aom1/Work/Linux/target/STM32MP1-DK2/bootloader/buildroot/optee-os-custom/lib/libutee/tee_api.c:174
    1e6c:	6abb      	ldr	r3, [r7, #40]	; 0x28
    1e6e:	2b00      	cmp	r3, #0
    1e70:	d00f      	beq.n	1e92 <TEE_OpenTASession+0xbc>
/home/aom1/Work/Linux/target/STM32MP1-DK2/bootloader/buildroot/optee-os-custom/lib/libutee/tee_api.c:175
    1e72:	6abb      	ldr	r3, [r7, #40]	; 0x28
    1e74:	6a7a      	ldr	r2, [r7, #36]	; 0x24
    1e76:	4611      	mov	r1, r2
    1e78:	4618      	mov	r0, r3
    1e7a:	f001 f94f 	bl	311c <tee_unmap>
    1e7e:	67b8      	str	r0, [r7, #120]	; 0x78
/home/aom1/Work/Linux/target/STM32MP1-DK2/bootloader/buildroot/optee-os-custom/lib/libutee/tee_api.c:177
    1e80:	6fbb      	ldr	r3, [r7, #120]	; 0x78
    1e82:	2b00      	cmp	r3, #0
    1e84:	d005      	beq.n	1e92 <TEE_OpenTASession+0xbc>
/home/aom1/Work/Linux/target/STM32MP1-DK2/bootloader/buildroot/optee-os-custom/lib/libutee/tee_api.c:178
    1e86:	6fb8      	ldr	r0, [r7, #120]	; 0x78
    1e88:	f000 fa8c 	bl	23a4 <TEE_Panic>
    1e8c:	e002      	b.n	1e94 <TEE_OpenTASession+0xbe>
/home/aom1/Work/Linux/target/STM32MP1-DK2/bootloader/buildroot/optee-os-custom/lib/libutee/tee_api.c:170
    1e8e:	bf00      	nop
    1e90:	e000      	b.n	1e94 <TEE_OpenTASession+0xbe>
/home/aom1/Work/Linux/target/STM32MP1-DK2/bootloader/buildroot/optee-os-custom/lib/libutee/tee_api.c:181
    1e92:	bf00      	nop
/home/aom1/Work/Linux/target/STM32MP1-DK2/bootloader/buildroot/optee-os-custom/lib/libutee/tee_api.c:187
    1e94:	6ffb      	ldr	r3, [r7, #124]	; 0x7c
    1e96:	2b00      	cmp	r3, #0
    1e98:	d001      	beq.n	1e9e <TEE_OpenTASession+0xc8>
/home/aom1/Work/Linux/target/STM32MP1-DK2/bootloader/buildroot/optee-os-custom/lib/libutee/tee_api.c:188
    1e9a:	2300      	movs	r3, #0
    1e9c:	62fb      	str	r3, [r7, #44]	; 0x2c
/home/aom1/Work/Linux/target/STM32MP1-DK2/bootloader/buildroot/optee-os-custom/lib/libutee/tee_api.c:190
    1e9e:	6afb      	ldr	r3, [r7, #44]	; 0x2c
    1ea0:	461a      	mov	r2, r3
    1ea2:	f8d7 3088 	ldr.w	r3, [r7, #136]	; 0x88
    1ea6:	601a      	str	r2, [r3, #0]
/home/aom1/Work/Linux/target/STM32MP1-DK2/bootloader/buildroot/optee-os-custom/lib/libutee/tee_api.c:191
    1ea8:	6ffb      	ldr	r3, [r7, #124]	; 0x7c
/home/aom1/Work/Linux/target/STM32MP1-DK2/bootloader/buildroot/optee-os-custom/lib/libutee/tee_api.c:192
    1eaa:	4618      	mov	r0, r3
    1eac:	3780      	adds	r7, #128	; 0x80
    1eae:	46bd      	mov	sp, r7
    1eb0:	bd80      	pop	{r7, pc}

00001eb2 <TEE_CloseTASession>:
TEE_CloseTASession():
/home/aom1/Work/Linux/target/STM32MP1-DK2/bootloader/buildroot/optee-os-custom/lib/libutee/tee_api.c:195
    1eb2:	b580      	push	{r7, lr}
    1eb4:	b084      	sub	sp, #16
    1eb6:	af00      	add	r7, sp, #0
    1eb8:	6078      	str	r0, [r7, #4]
/home/aom1/Work/Linux/target/STM32MP1-DK2/bootloader/buildroot/optee-os-custom/lib/libutee/tee_api.c:196
    1eba:	687b      	ldr	r3, [r7, #4]
    1ebc:	2b00      	cmp	r3, #0
    1ebe:	d00a      	beq.n	1ed6 <TEE_CloseTASession+0x24>
/home/aom1/Work/Linux/target/STM32MP1-DK2/bootloader/buildroot/optee-os-custom/lib/libutee/tee_api.c:197
    1ec0:	687b      	ldr	r3, [r7, #4]
    1ec2:	4618      	mov	r0, r3
    1ec4:	f001 ea1c 	blx	3300 <_utee_close_ta_session>
    1ec8:	60f8      	str	r0, [r7, #12]
/home/aom1/Work/Linux/target/STM32MP1-DK2/bootloader/buildroot/optee-os-custom/lib/libutee/tee_api.c:199
    1eca:	68fb      	ldr	r3, [r7, #12]
    1ecc:	2b00      	cmp	r3, #0
    1ece:	d002      	beq.n	1ed6 <TEE_CloseTASession+0x24>
/home/aom1/Work/Linux/target/STM32MP1-DK2/bootloader/buildroot/optee-os-custom/lib/libutee/tee_api.c:200
    1ed0:	68f8      	ldr	r0, [r7, #12]
    1ed2:	f000 fa67 	bl	23a4 <TEE_Panic>
/home/aom1/Work/Linux/target/STM32MP1-DK2/bootloader/buildroot/optee-os-custom/lib/libutee/tee_api.c:202
    1ed6:	bf00      	nop
    1ed8:	3710      	adds	r7, #16
    1eda:	46bd      	mov	sp, r7
    1edc:	bd80      	pop	{r7, pc}

00001ede <TEE_InvokeTACommand>:
TEE_InvokeTACommand():
/home/aom1/Work/Linux/target/STM32MP1-DK2/bootloader/buildroot/optee-os-custom/lib/libutee/tee_api.c:209
    1ede:	b580      	push	{r7, lr}
    1ee0:	b0a2      	sub	sp, #136	; 0x88
    1ee2:	af02      	add	r7, sp, #8
    1ee4:	60f8      	str	r0, [r7, #12]
    1ee6:	60b9      	str	r1, [r7, #8]
    1ee8:	607a      	str	r2, [r7, #4]
    1eea:	603b      	str	r3, [r7, #0]
/home/aom1/Work/Linux/target/STM32MP1-DK2/bootloader/buildroot/optee-os-custom/lib/libutee/tee_api.c:210
    1eec:	2300      	movs	r3, #0
    1eee:	67fb      	str	r3, [r7, #124]	; 0x7c
/home/aom1/Work/Linux/target/STM32MP1-DK2/bootloader/buildroot/optee-os-custom/lib/libutee/tee_api.c:211
    1ef0:	2303      	movs	r3, #3
    1ef2:	677b      	str	r3, [r7, #116]	; 0x74
/home/aom1/Work/Linux/target/STM32MP1-DK2/bootloader/buildroot/optee-os-custom/lib/libutee/tee_api.c:213
    1ef4:	2300      	movs	r3, #0
    1ef6:	627b      	str	r3, [r7, #36]	; 0x24
/home/aom1/Work/Linux/target/STM32MP1-DK2/bootloader/buildroot/optee-os-custom/lib/libutee/tee_api.c:214
    1ef8:	2300      	movs	r3, #0
    1efa:	623b      	str	r3, [r7, #32]
/home/aom1/Work/Linux/target/STM32MP1-DK2/bootloader/buildroot/optee-os-custom/lib/libutee/tee_api.c:215
    1efc:	f107 0310 	add.w	r3, r7, #16
    1f00:	efc0 0010 	vmov.i32	d16, #0	; 0x00000000
    1f04:	edc3 0b00 	vstr	d16, [r3]
    1f08:	edc3 0b02 	vstr	d16, [r3, #8]
/home/aom1/Work/Linux/target/STM32MP1-DK2/bootloader/buildroot/optee-os-custom/lib/libutee/tee_api.c:217
    1f0c:	683b      	ldr	r3, [r7, #0]
    1f0e:	2b00      	cmp	r3, #0
    1f10:	d004      	beq.n	1f1c <TEE_InvokeTACommand+0x3e>
/home/aom1/Work/Linux/target/STM32MP1-DK2/bootloader/buildroot/optee-os-custom/lib/libutee/tee_api.c:218
    1f12:	2120      	movs	r1, #32
    1f14:	f8d7 0088 	ldr.w	r0, [r7, #136]	; 0x88
    1f18:	f000 fb1a 	bl	2550 <__utee_check_inout_annotation>
/home/aom1/Work/Linux/target/STM32MP1-DK2/bootloader/buildroot/optee-os-custom/lib/libutee/tee_api.c:221
    1f1c:	f8d7 308c 	ldr.w	r3, [r7, #140]	; 0x8c
    1f20:	2b00      	cmp	r3, #0
    1f22:	d004      	beq.n	1f2e <TEE_InvokeTACommand+0x50>
/home/aom1/Work/Linux/target/STM32MP1-DK2/bootloader/buildroot/optee-os-custom/lib/libutee/tee_api.c:222
    1f24:	2104      	movs	r1, #4
    1f26:	f8d7 008c 	ldr.w	r0, [r7, #140]	; 0x8c
    1f2a:	f000 fadd 	bl	24e8 <__utee_check_out_annotation>
/home/aom1/Work/Linux/target/STM32MP1-DK2/bootloader/buildroot/optee-os-custom/lib/libutee/tee_api.c:225
    1f2e:	f107 0224 	add.w	r2, r7, #36	; 0x24
    1f32:	f107 0028 	add.w	r0, r7, #40	; 0x28
    1f36:	f107 0310 	add.w	r3, r7, #16
    1f3a:	9301      	str	r3, [sp, #4]
    1f3c:	f107 0320 	add.w	r3, r7, #32
    1f40:	9300      	str	r3, [sp, #0]
    1f42:	4613      	mov	r3, r2
    1f44:	f8d7 2088 	ldr.w	r2, [r7, #136]	; 0x88
    1f48:	6839      	ldr	r1, [r7, #0]
    1f4a:	f7ff fda1 	bl	1a90 <copy_param>
    1f4e:	67f8      	str	r0, [r7, #124]	; 0x7c
/home/aom1/Work/Linux/target/STM32MP1-DK2/bootloader/buildroot/optee-os-custom/lib/libutee/tee_api.c:226
    1f50:	6ffb      	ldr	r3, [r7, #124]	; 0x7c
    1f52:	2b00      	cmp	r3, #0
    1f54:	d125      	bne.n	1fa2 <TEE_InvokeTACommand+0xc4>
/home/aom1/Work/Linux/target/STM32MP1-DK2/bootloader/buildroot/optee-os-custom/lib/libutee/tee_api.c:228
    1f56:	68f8      	ldr	r0, [r7, #12]
    1f58:	f107 0228 	add.w	r2, r7, #40	; 0x28
    1f5c:	f107 0374 	add.w	r3, r7, #116	; 0x74
    1f60:	9300      	str	r3, [sp, #0]
    1f62:	4613      	mov	r3, r2
    1f64:	687a      	ldr	r2, [r7, #4]
    1f66:	68b9      	ldr	r1, [r7, #8]
    1f68:	f001 e9d4 	blx	3314 <_utee_invoke_ta_command>
    1f6c:	67f8      	str	r0, [r7, #124]	; 0x7c
/home/aom1/Work/Linux/target/STM32MP1-DK2/bootloader/buildroot/optee-os-custom/lib/libutee/tee_api.c:231
    1f6e:	f107 0228 	add.w	r2, r7, #40	; 0x28
    1f72:	f107 0310 	add.w	r3, r7, #16
    1f76:	4619      	mov	r1, r3
    1f78:	f8d7 0088 	ldr.w	r0, [r7, #136]	; 0x88
    1f7c:	f7ff feb7 	bl	1cee <update_out_param>
/home/aom1/Work/Linux/target/STM32MP1-DK2/bootloader/buildroot/optee-os-custom/lib/libutee/tee_api.c:232
    1f80:	6a7b      	ldr	r3, [r7, #36]	; 0x24
    1f82:	2b00      	cmp	r3, #0
    1f84:	d00f      	beq.n	1fa6 <TEE_InvokeTACommand+0xc8>
/home/aom1/Work/Linux/target/STM32MP1-DK2/bootloader/buildroot/optee-os-custom/lib/libutee/tee_api.c:233
    1f86:	6a7b      	ldr	r3, [r7, #36]	; 0x24
    1f88:	6a3a      	ldr	r2, [r7, #32]
    1f8a:	4611      	mov	r1, r2
    1f8c:	4618      	mov	r0, r3
    1f8e:	f001 f8c5 	bl	311c <tee_unmap>
    1f92:	67b8      	str	r0, [r7, #120]	; 0x78
/home/aom1/Work/Linux/target/STM32MP1-DK2/bootloader/buildroot/optee-os-custom/lib/libutee/tee_api.c:235
    1f94:	6fbb      	ldr	r3, [r7, #120]	; 0x78
    1f96:	2b00      	cmp	r3, #0
    1f98:	d005      	beq.n	1fa6 <TEE_InvokeTACommand+0xc8>
/home/aom1/Work/Linux/target/STM32MP1-DK2/bootloader/buildroot/optee-os-custom/lib/libutee/tee_api.c:236
    1f9a:	6fb8      	ldr	r0, [r7, #120]	; 0x78
    1f9c:	f000 fa02 	bl	23a4 <TEE_Panic>
    1fa0:	e002      	b.n	1fa8 <TEE_InvokeTACommand+0xca>
/home/aom1/Work/Linux/target/STM32MP1-DK2/bootloader/buildroot/optee-os-custom/lib/libutee/tee_api.c:227
    1fa2:	bf00      	nop
    1fa4:	e000      	b.n	1fa8 <TEE_InvokeTACommand+0xca>
/home/aom1/Work/Linux/target/STM32MP1-DK2/bootloader/buildroot/optee-os-custom/lib/libutee/tee_api.c:239
    1fa6:	bf00      	nop
/home/aom1/Work/Linux/target/STM32MP1-DK2/bootloader/buildroot/optee-os-custom/lib/libutee/tee_api.c:240
    1fa8:	f8d7 308c 	ldr.w	r3, [r7, #140]	; 0x8c
    1fac:	2b00      	cmp	r3, #0
    1fae:	d003      	beq.n	1fb8 <TEE_InvokeTACommand+0xda>
/home/aom1/Work/Linux/target/STM32MP1-DK2/bootloader/buildroot/optee-os-custom/lib/libutee/tee_api.c:241
    1fb0:	6f7a      	ldr	r2, [r7, #116]	; 0x74
    1fb2:	f8d7 308c 	ldr.w	r3, [r7, #140]	; 0x8c
    1fb6:	601a      	str	r2, [r3, #0]
/home/aom1/Work/Linux/target/STM32MP1-DK2/bootloader/buildroot/optee-os-custom/lib/libutee/tee_api.c:243
    1fb8:	6f7b      	ldr	r3, [r7, #116]	; 0x74
    1fba:	2b04      	cmp	r3, #4
    1fbc:	d101      	bne.n	1fc2 <TEE_InvokeTACommand+0xe4>
/home/aom1/Work/Linux/target/STM32MP1-DK2/bootloader/buildroot/optee-os-custom/lib/libutee/tee_api.c:244
    1fbe:	6ffb      	ldr	r3, [r7, #124]	; 0x7c
    1fc0:	e013      	b.n	1fea <TEE_InvokeTACommand+0x10c>
/home/aom1/Work/Linux/target/STM32MP1-DK2/bootloader/buildroot/optee-os-custom/lib/libutee/tee_api.c:246
    1fc2:	6ffb      	ldr	r3, [r7, #124]	; 0x7c
    1fc4:	2b00      	cmp	r3, #0
    1fc6:	d00f      	beq.n	1fe8 <TEE_InvokeTACommand+0x10a>
/home/aom1/Work/Linux/target/STM32MP1-DK2/bootloader/buildroot/optee-os-custom/lib/libutee/tee_api.c:246 (discriminator 1)
    1fc8:	6ffa      	ldr	r2, [r7, #124]	; 0x7c
    1fca:	230c      	movs	r3, #12
    1fcc:	f6cf 73ff 	movt	r3, #65535	; 0xffff
    1fd0:	429a      	cmp	r2, r3
    1fd2:	d009      	beq.n	1fe8 <TEE_InvokeTACommand+0x10a>
/home/aom1/Work/Linux/target/STM32MP1-DK2/bootloader/buildroot/optee-os-custom/lib/libutee/tee_api.c:247
    1fd4:	6ffa      	ldr	r2, [r7, #124]	; 0x7c
    1fd6:	f243 0324 	movw	r3, #12324	; 0x3024
    1fda:	f6cf 73ff 	movt	r3, #65535	; 0xffff
    1fde:	429a      	cmp	r2, r3
    1fe0:	d002      	beq.n	1fe8 <TEE_InvokeTACommand+0x10a>
/home/aom1/Work/Linux/target/STM32MP1-DK2/bootloader/buildroot/optee-os-custom/lib/libutee/tee_api.c:249
    1fe2:	6ff8      	ldr	r0, [r7, #124]	; 0x7c
    1fe4:	f000 f9de 	bl	23a4 <TEE_Panic>
/home/aom1/Work/Linux/target/STM32MP1-DK2/bootloader/buildroot/optee-os-custom/lib/libutee/tee_api.c:251
    1fe8:	6ffb      	ldr	r3, [r7, #124]	; 0x7c
/home/aom1/Work/Linux/target/STM32MP1-DK2/bootloader/buildroot/optee-os-custom/lib/libutee/tee_api.c:252 (discriminator 1)
    1fea:	4618      	mov	r0, r3
    1fec:	3780      	adds	r7, #128	; 0x80
    1fee:	46bd      	mov	sp, r7
    1ff0:	bd80      	pop	{r7, pc}

00001ff2 <TEE_GetCancellationFlag>:
TEE_GetCancellationFlag():
/home/aom1/Work/Linux/target/STM32MP1-DK2/bootloader/buildroot/optee-os-custom/lib/libutee/tee_api.c:257
    1ff2:	b580      	push	{r7, lr}
    1ff4:	b082      	sub	sp, #8
    1ff6:	af00      	add	r7, sp, #0
/home/aom1/Work/Linux/target/STM32MP1-DK2/bootloader/buildroot/optee-os-custom/lib/libutee/tee_api.c:259
    1ff8:	463b      	mov	r3, r7
    1ffa:	4618      	mov	r0, r3
    1ffc:	f001 e996 	blx	332c <_utee_get_cancellation_flag>
    2000:	6078      	str	r0, [r7, #4]
/home/aom1/Work/Linux/target/STM32MP1-DK2/bootloader/buildroot/optee-os-custom/lib/libutee/tee_api.c:261
    2002:	687b      	ldr	r3, [r7, #4]
    2004:	2b00      	cmp	r3, #0
    2006:	d001      	beq.n	200c <TEE_GetCancellationFlag+0x1a>
/home/aom1/Work/Linux/target/STM32MP1-DK2/bootloader/buildroot/optee-os-custom/lib/libutee/tee_api.c:262
    2008:	2300      	movs	r3, #0
    200a:	603b      	str	r3, [r7, #0]
/home/aom1/Work/Linux/target/STM32MP1-DK2/bootloader/buildroot/optee-os-custom/lib/libutee/tee_api.c:263
    200c:	683b      	ldr	r3, [r7, #0]
    200e:	2b00      	cmp	r3, #0
    2010:	bf14      	ite	ne
    2012:	2301      	movne	r3, #1
    2014:	2300      	moveq	r3, #0
    2016:	b2db      	uxtb	r3, r3
/home/aom1/Work/Linux/target/STM32MP1-DK2/bootloader/buildroot/optee-os-custom/lib/libutee/tee_api.c:264
    2018:	4618      	mov	r0, r3
    201a:	3708      	adds	r7, #8
    201c:	46bd      	mov	sp, r7
    201e:	bd80      	pop	{r7, pc}

00002020 <TEE_UnmaskCancellation>:
TEE_UnmaskCancellation():
/home/aom1/Work/Linux/target/STM32MP1-DK2/bootloader/buildroot/optee-os-custom/lib/libutee/tee_api.c:267
    2020:	b580      	push	{r7, lr}
    2022:	b082      	sub	sp, #8
    2024:	af00      	add	r7, sp, #0
/home/aom1/Work/Linux/target/STM32MP1-DK2/bootloader/buildroot/optee-os-custom/lib/libutee/tee_api.c:269
    2026:	463b      	mov	r3, r7
    2028:	4618      	mov	r0, r3
    202a:	f001 e994 	blx	3354 <_utee_unmask_cancellation>
    202e:	6078      	str	r0, [r7, #4]
/home/aom1/Work/Linux/target/STM32MP1-DK2/bootloader/buildroot/optee-os-custom/lib/libutee/tee_api.c:271
    2030:	687b      	ldr	r3, [r7, #4]
    2032:	2b00      	cmp	r3, #0
    2034:	d002      	beq.n	203c <TEE_UnmaskCancellation+0x1c>
/home/aom1/Work/Linux/target/STM32MP1-DK2/bootloader/buildroot/optee-os-custom/lib/libutee/tee_api.c:272
    2036:	6878      	ldr	r0, [r7, #4]
    2038:	f000 f9b4 	bl	23a4 <TEE_Panic>
/home/aom1/Work/Linux/target/STM32MP1-DK2/bootloader/buildroot/optee-os-custom/lib/libutee/tee_api.c:273
    203c:	683b      	ldr	r3, [r7, #0]
    203e:	2b00      	cmp	r3, #0
    2040:	bf14      	ite	ne
    2042:	2301      	movne	r3, #1
    2044:	2300      	moveq	r3, #0
    2046:	b2db      	uxtb	r3, r3
/home/aom1/Work/Linux/target/STM32MP1-DK2/bootloader/buildroot/optee-os-custom/lib/libutee/tee_api.c:274
    2048:	4618      	mov	r0, r3
    204a:	3708      	adds	r7, #8
    204c:	46bd      	mov	sp, r7
    204e:	bd80      	pop	{r7, pc}

00002050 <TEE_MaskCancellation>:
TEE_MaskCancellation():
/home/aom1/Work/Linux/target/STM32MP1-DK2/bootloader/buildroot/optee-os-custom/lib/libutee/tee_api.c:277
    2050:	b580      	push	{r7, lr}
    2052:	b082      	sub	sp, #8
    2054:	af00      	add	r7, sp, #0
/home/aom1/Work/Linux/target/STM32MP1-DK2/bootloader/buildroot/optee-os-custom/lib/libutee/tee_api.c:279
    2056:	463b      	mov	r3, r7
    2058:	4618      	mov	r0, r3
    205a:	f001 e986 	blx	3368 <_utee_mask_cancellation>
    205e:	6078      	str	r0, [r7, #4]
/home/aom1/Work/Linux/target/STM32MP1-DK2/bootloader/buildroot/optee-os-custom/lib/libutee/tee_api.c:281
    2060:	687b      	ldr	r3, [r7, #4]
    2062:	2b00      	cmp	r3, #0
    2064:	d002      	beq.n	206c <TEE_MaskCancellation+0x1c>
/home/aom1/Work/Linux/target/STM32MP1-DK2/bootloader/buildroot/optee-os-custom/lib/libutee/tee_api.c:282
    2066:	6878      	ldr	r0, [r7, #4]
    2068:	f000 f99c 	bl	23a4 <TEE_Panic>
/home/aom1/Work/Linux/target/STM32MP1-DK2/bootloader/buildroot/optee-os-custom/lib/libutee/tee_api.c:283
    206c:	683b      	ldr	r3, [r7, #0]
    206e:	2b00      	cmp	r3, #0
    2070:	bf14      	ite	ne
    2072:	2301      	movne	r3, #1
    2074:	2300      	moveq	r3, #0
    2076:	b2db      	uxtb	r3, r3
/home/aom1/Work/Linux/target/STM32MP1-DK2/bootloader/buildroot/optee-os-custom/lib/libutee/tee_api.c:284
    2078:	4618      	mov	r0, r3
    207a:	3708      	adds	r7, #8
    207c:	46bd      	mov	sp, r7
    207e:	bd80      	pop	{r7, pc}

00002080 <TEE_CheckMemoryAccessRights>:
TEE_CheckMemoryAccessRights():
/home/aom1/Work/Linux/target/STM32MP1-DK2/bootloader/buildroot/optee-os-custom/lib/libutee/tee_api.c:290
    2080:	b580      	push	{r7, lr}
    2082:	b086      	sub	sp, #24
    2084:	af00      	add	r7, sp, #0
