
build/ta/pkcs11/fd02c9da-306c-48c7-a49c-bbd827ae86ee.elf:     file format elf32-littlearm
build/ta/pkcs11/fd02c9da-306c-48c7-a49c-bbd827ae86ee.elf
architecture: armv7, flags 0x00000150:
HAS_SYMS, DYNAMIC, D_PAGED
start address 0x0000958c

Program Header:
    LOAD off    0x00001000 vaddr 0x00000000 paddr 0x00000000 align 2**12
         filesz 0x0001827c memsz 0x0001827c flags r-x
    LOAD off    0x0001a000 vaddr 0x00019000 paddr 0x00019000 align 2**12
         filesz 0x00001e8c memsz 0x0000cf28 flags rw-
 DYNAMIC off    0x0001a000 vaddr 0x00019000 paddr 0x00019000 align 2**2
         filesz 0x00000088 memsz 0x00000088 flags rw-
   STACK off    0x00000000 vaddr 0x00000000 paddr 0x00000000 align 2**4
         filesz 0x00000000 memsz 0x00000000 flags rwx

Dynamic Section:
  HASH                 0x00018250
  GNU_HASH             0x00018194
  STRTAB               0x00018220
  SYMTAB               0x000181c0
  STRSZ                0x0000002e
  SYMENT               0x00000010
  DEBUG                0x00000000
  REL                  0x000190ec
  RELSZ                0x00000cf0
  RELENT               0x00000008
  FLAGS_1              0x08000000
  RELCOUNT             0x00000188
private flags = 0x5000400: [Version5 EABI] [hard-float ABI]

Sections:
Idx Name          Size      VMA       LMA       File off  Algn
  0 .ta_head      00000020  00000000  00000000  00001000  2**3
                  CONTENTS, ALLOC, LOAD, READONLY, DATA
  1 .text         00012998  00000020  00000020  00001020  2**3
                  CONTENTS, ALLOC, LOAD, READONLY, CODE
  2 .rodata       000057db  000129b8  000129b8  000139b8  2**2
                  CONTENTS, ALLOC, LOAD, READONLY, DATA
  3 .gnu.hash     0000002c  00018194  00018194  00019194  2**2
                  CONTENTS, ALLOC, LOAD, READONLY, DATA
  4 .dynsym       00000060  000181c0  000181c0  000191c0  2**2
                  CONTENTS, ALLOC, LOAD, READONLY, DATA
  5 .dynstr       0000002e  00018220  00018220  00019220  2**0
                  CONTENTS, ALLOC, LOAD, READONLY, DATA
  6 .hash         0000002c  00018250  00018250  00019250  2**2
                  CONTENTS, ALLOC, LOAD, READONLY, DATA
  7 .dynamic      00000088  00019000  00019000  0001a000  2**2
                  CONTENTS, ALLOC, LOAD, DATA
  8 .got          00000064  00019088  00019088  0001a088  2**2
                  CONTENTS, ALLOC, LOAD, DATA
  9 .rel.got      000000b0  00019d2c  00019d2c  0001ad2c  2**2
                  CONTENTS, ALLOC, LOAD, READONLY, DATA
 10 .data         000010b0  00019ddc  00019ddc  0001addc  2**2
                  CONTENTS, ALLOC, LOAD, DATA
 11 .bss          0000b09c  0001ae8c  0001ae8c  0001be8c  2**2
                  ALLOC
 12 .debug_info   0003b867  00000000  00000000  0001be8c  2**0
                  CONTENTS, READONLY, DEBUGGING, OCTETS
 13 .debug_abbrev 00008e12  00000000  00000000  000576f3  2**0
                  CONTENTS, READONLY, DEBUGGING, OCTETS
 14 .debug_loclists 0001be72  00000000  00000000  00060505  2**0
                  CONTENTS, READONLY, DEBUGGING, OCTETS
 15 .debug_aranges 00000908  00000000  00000000  0007c378  2**3
                  CONTENTS, READONLY, DEBUGGING, OCTETS
 16 .debug_rnglists 00000df4  00000000  00000000  0007cc80  2**0
                  CONTENTS, READONLY, DEBUGGING, OCTETS
 17 .debug_macro  0002d841  00000000  00000000  0007da74  2**0
                  CONTENTS, READONLY, DEBUGGING, OCTETS
 18 .debug_line   0001f876  00000000  00000000  000ab2b5  2**0
                  CONTENTS, READONLY, DEBUGGING, OCTETS
 19 .debug_str    00020265  00000000  00000000  000cab2b  2**0
                  CONTENTS, READONLY, DEBUGGING, OCTETS
 20 .comment      00000033  00000000  00000000  000ead90  2**0
                  CONTENTS, READONLY
 21 .ARM.attributes 00000033  00000000  00000000  000eadc3  2**0
                  CONTENTS, READONLY
 22 .debug_frame  0000458c  00000000  00000000  000eadf8  2**2
                  CONTENTS, READONLY, DEBUGGING, OCTETS
 23 .rel.dyn      00000c40  000190ec  000190ec  0001a0ec  2**2
                  CONTENTS, ALLOC, LOAD, READONLY, DATA
 24 .debug_line_str 000000e0  00000000  00000000  000ef384  2**0
                  CONTENTS, READONLY, DEBUGGING, OCTETS
SYMBOL TABLE:
00000000 l    d  .ta_head	00000000 .ta_head
00000020 l    d  .text	00000000 .text
000129b8 l    d  .rodata	00000000 .rodata
00018194 l    d  .gnu.hash	00000000 .gnu.hash
000181c0 l    d  .dynsym	00000000 .dynsym
00018220 l    d  .dynstr	00000000 .dynstr
00018250 l    d  .hash	00000000 .hash
00019000 l    d  .dynamic	00000000 .dynamic
00019088 l    d  .got	00000000 .got
00019d2c l    d  .rel.got	00000000 .rel.got
00019ddc l    d  .data	00000000 .data
0001ae8c l    d  .bss	00000000 .bss
00000000 l    d  .debug_info	00000000 .debug_info
00000000 l    d  .debug_abbrev	00000000 .debug_abbrev
00000000 l    d  .debug_loclists	00000000 .debug_loclists
00000000 l    d  .debug_aranges	00000000 .debug_aranges
00000000 l    d  .debug_rnglists	00000000 .debug_rnglists
00000000 l    d  .debug_macro	00000000 .debug_macro
00000000 l    d  .debug_line	00000000 .debug_line
00000000 l    d  .debug_str	00000000 .debug_str
00000000 l    d  .comment	00000000 .comment
00000000 l    d  .ARM.attributes	00000000 .ARM.attributes
00000000 l    d  .debug_frame	00000000 .debug_frame
000190ec l    d  .rel.dyn	00000000 .rel.dyn
00000000 l    d  .debug_line_str	00000000 .debug_line_str
00000000 l    df *ABS*	00000000 user_ta_header.c
000132e8 l     O .rodata	00000004 __compound_literal.4
000132ec l     O .rodata	00000004 __compound_literal.3
000132f0 l     O .rodata	00000001 __compound_literal.2
000132f1 l     O .rodata	00000001 __compound_literal.1
000132f2 l     O .rodata	00000001 __compound_literal.0
00000000 l    df *ABS*	00000000 attributes.c
00000020 l     F .text	00000078 _remove_attribute.isra.0
00013678 l     O .rodata	00000009 __func__.2
00013681 l     O .rodata	00000011 __func__.1
00013692 l     O .rodata	00000013 __func__.0
00000000 l    df *ABS*	00000000 entry.c
000136c2 l     O .rodata	0000001b __func__.0
00000000 l    df *ABS*	00000000 object.c
00000844 l     F .text	0000003a cleanup_volatile_obj_ref
0000087e l     F .text	00000022 get_class
000008a0 l     F .text	0000002a find_ctx_add
0001374b l     O .rodata	0000000f __func__.1
0001375a l     O .rodata	00000018 __func__.0
00000000 l    df *ABS*	00000000 persistent_token.c
000014b8 l     F .text	00000074 do_hash
0000152c l     F .text	00000032 get_persistent_obj_idx
0000155e l     F .text	00000042 open_db_file
000139cb l     O .rodata	00000015 __func__.8
000139e0 l     O .rodata	00000023 __func__.7
00013a03 l     O .rodata	0000001d __func__.6
00013a20 l     O .rodata	00000015 __func__.5
00013a35 l     O .rodata	00000013 __func__.4
00013a48 l     O .rodata	00000014 __func__.3
00013a5c l     O .rodata	00000022 __func__.2
00013a7e l     O .rodata	00000024 __func__.1
00013aa2 l     O .rodata	00000013 __func__.0
00000000 l    df *ABS*	00000000 pkcs11_attributes.c
00001f9c l     F .text	00000052 set_mandatory_attributes
00001fee l     F .text	00000026 get_key_type
00002014 l     F .text	000000e0 set_mandatory_boolprops
000020f4 l     F .text	0000001c get_u32_attribute
00002110 l     F .text	0000001e get_certificate_type
0000212e l     F .text	00000022 get_class
00002150 l     F .text	00000090 set_optional_attributes_with_def
000021e0 l     F .text	0000008c create_storage_attributes
0000226c l     F .text	0000004a check_attr_bval.constprop.0
000022b6 l     F .text	0000009a create_genkey_attributes
000129b8 l     O .rodata	00000001 bool_false.12
000129b9 l     O .rodata	00000001 bool_true.13
000129ba l     O .rodata	00000012 __func__.11
000129cc l     O .rodata	0000001a __func__.14
000129e8 l     O .rodata	00000014 any_object_boolprops
000129fc l     O .rodata	00000004 any_object_opt_or_null
00012a00 l     O .rodata	00000019 __func__.7
00012a1c l     O .rodata	00000004 any_key_boolprops
00012a20 l     O .rodata	0000000c any_key_opt_or_null
00012a2c l     O .rodata	00000004 any_key_optional
00012a30 l     O .rodata	00000030 CSWTCH.85
00012a60 l     O .rodata	00000023 __func__.17
00012a84 l     O .rodata	00000004 ec_public_key_opt_or_null
00012a88 l     O .rodata	00000004 ec_public_key_mandated
00012a8c l     O .rodata	00000004 rsa_pub_key_gen_opt_or_null
00012a90 l     O .rodata	00000004 rsa_pub_key_gen_mand
00012a94 l     O .rodata	00000008 rsa_pub_key_create_mand
00012a9c l     O .rodata	00000020 rsa_priv_key_opt_or_null
00012abc l     O .rodata	00000008 ec_private_key_opt_or_null
00012ac4 l     O .rodata	00000000 ec_private_key_mandated
00012ac4 l     O .rodata	00000020 __func__.16
00012ae4 l     O .rodata	00000017 __func__.15
00012afb l     O .rodata	0000001e __func__.10
00012b1c l     O .rodata	00000004 pkcs11_certificate_boolprops
00012b20 l     O .rodata	00000004 pkcs11_certificate_mandated
00012b24 l     O .rodata	00000014 pkcs11_certificate_optional
00012b38 l     O .rodata	00000004 pkcs11_x509_certificate_mandated
00012b3c l     O .rodata	00000024 pkcs11_x509_certificate_optional
00012b60 l     O .rodata	0000001d __func__.9
00012b7d l     O .rodata	0000001b __func__.8
00012b98 l     O .rodata	00000028 symm_key_boolprops
00012bc0 l     O .rodata	00000010 symm_key_opt_or_null
00012bd0 l     O .rodata	00000004 symm_key_optional
00012bd4 l     O .rodata	0000001a __func__.6
00012bf0 l     O .rodata	00000014 public_key_boolprops
00012c04 l     O .rodata	00000000 public_key_mandated
00012c04 l     O .rodata	0000000c public_key_opt_or_null
00012c10 l     O .rodata	0000001b __func__.5
00012c2c l     O .rodata	00000020 private_key_boolprops
00012c4c l     O .rodata	00000000 private_key_mandated
00012c4c l     O .rodata	0000000c private_key_opt_or_null
00012c58 l     O .rodata	00000027 __func__.4
00012c7f l     O .rodata	00000014 __func__.3
00012c94 l     O .rodata	0000000e CSWTCH.88
00012ca2 l     O .rodata	00000026 __func__.2
00012cc8 l     O .rodata	00000028 __func__.1
00012cf0 l     O .rodata	00000019 __func__.0
00000000 l    df *ABS*	00000000 pkcs11_helpers.c
00003a74 l     F .text	00000048 id2str
00012d18 l     O .rodata	00000015 unknown
00012d30 l     O .rodata	00000058 bpa.5
00012d88 l     O .rodata	00000013 __func__.4
00012d9b l     O .rodata	0000001a __func__.3
00012db5 l     O .rodata	00000006 str_false.1
00012dbb l     O .rodata	00000002 str_unknown.0
00012dbd l     O .rodata	00000005 str_true.2
00019ddc l     O .data	000002f4 attr_ids
0001a0d0 l     O .data	00000210 string_rc
0001a2e0 l     O .data	000001a8 string_ta_cmd
0001a488 l     O .data	00000018 string_slot_flags
0001a4a0 l     O .data	00000090 string_token_flags
0001a530 l     O .data	00000010 string_session_flags
0001a540 l     O .data	00000028 string_session_state
0001a568 l     O .data	00000050 string_class
0001a5b8 l     O .data	00000058 string_key_type
0001a610 l     O .data	00000020 string_certificate_type
0001a630 l     O .data	00000008 string_internal_processing
0001a638 l     O .data	00000048 string_functions
00000000 l    df *ABS*	00000000 pkcs11_token.c
00004088 l     F .text	00000058 close_ck_session
000040e0 l     F .text	00000018 pad_str
000040f8 l     F .text	00000096 set_pin
0000418e l     F .text	000000a0 check_user_pin.isra.0
0000422e l     F .text	000000c6 check_so_pin.isra.0
00012dc4 l     O .rodata	0000000d __func__.2
00012dd1 l     O .rodata	0000000d __func__.7
00012dde l     O .rodata	00000012 __func__.6
00012e88 l     O .rodata	00000019 __func__.5
00012ea1 l     O .rodata	00000012 __func__.4
00012eb3 l     O .rodata	00000012 __func__.3
00012ec8 l     O .rodata	00000010 system_uuid.1
00012ed8 l     O .rodata	0000000e __func__.0
0001a680 l     O .data	00000008 pkcs11_client_list
00000000 l    df *ABS*	00000000 processing.c
000052f4 l     F .text	00000080 get_active_session.isra.0
00015a86 l     O .rodata	00000017 __func__.1
00015a9d l     O .rodata	00000016 __func__.0
00015ab3 l     O .rodata	0000001f CSWTCH.181
00000000 l    df *ABS*	00000000 processing_asymm.c
0000610c l     F .text	00000022 get_class
0000612e l     F .text	00000026 get_key_type
00012ee8 l     O .rodata	00000015 __func__.5
00012efd l     O .rodata	00000017 __func__.4
00012f14 l     O .rodata	000000f0 pkcs2tee_algo.3
00013004 l     O .rodata	0000000d __func__.2
00013011 l     O .rodata	00000012 __func__.1
00013023 l     O .rodata	00000015 __func__.0
00000000 l    df *ABS*	00000000 processing_digest.c
00013038 l     O .rodata	00000016 __func__.3
0001304e l     O .rodata	00000017 __func__.2
00013068 l     O .rodata	00000030 pkcs2tee_algo.1
00013098 l     O .rodata	00000016 __func__.0
00000000 l    df *ABS*	00000000 processing_ec.c
00006d80 l     F .text	0000004c get_curve
00015ef2 l     O .rodata	00000014 __func__.3
00015f06 l     O .rodata	00000016 __func__.2
00015f1c l     O .rodata	00000011 __func__.1
00015f2d l     O .rodata	00000017 __func__.0
00015f44 l     O .rodata	000001c7 secp521r1_oid_der
0001610b l     O .rodata	0000015b secp384r1_oid_der
00016266 l     O .rodata	000000fa prime256v1_oid_der
00016360 l     O .rodata	000000e2 secp224r1_oid_der
00016442 l     O .rodata	000000ca prime192v1_oid_der
0001650c l     O .rodata	00000007 secp521r1_name_der
00016513 l     O .rodata	00000007 secp384r1_name_der
0001651a l     O .rodata	0000000a prime256v1_name_der
00016524 l     O .rodata	00000007 secp224r1_name_der
0001652b l     O .rodata	0000000a prime192v1_name_der
0001a688 l     O .data	000000a0 ec_curve_param
00000000 l    df *ABS*	00000000 processing_rsa.c
00007300 l     F .text	00000006 serialargs_get_u32
000165be l     O .rodata	0000001a __func__.3
000165d8 l     O .rodata	00000017 __func__.2
000165ef l     O .rodata	00000017 __func__.1
00016606 l     O .rodata	00000012 __func__.0
00000000 l    df *ABS*	00000000 processing_symm.c
00007c3c l     F .text	00000026 get_key_type
00007c62 l     F .text	0000007a pkcs2tee_key_type.constprop.0
00007cdc l     F .text	00000058 input_data_size_is_valid.isra.0
000130b0 l     O .rodata	00000012 __func__.3
000130c4 l     O .rodata	00000040 pkcs2tee_key_type.2
00013104 l     O .rodata	00000014 __func__.10
00013118 l     O .rodata	00000017 __func__.9
00013130 l     O .rodata	000000a8 pkcs2tee_algo.8
000131d8 l     O .rodata	00000060 pkcs2tee_key_type.6
00013238 l     O .rodata	00000060 hmac_hash.4
00013298 l     O .rodata	00000013 __func__.5
000132ab l     O .rodata	0000000d __func__.7
000132b8 l     O .rodata	00000014 __func__.1
000132cc l     O .rodata	00000016 __func__.0
00000000 l    df *ABS*	00000000 sanitize_object.c
00008b04 l     F .text	00000026 get_key_type
00008b2a l     F .text	00000044 read_attr_advance
0001681d l     O .rodata	0000001f __func__.1
0001683c l     O .rodata	00000013 __func__.0
0001684f l     O .rodata	00000018 __func__.3
00016867 l     O .rodata	00000017 __func__.2
0001687e l     O .rodata	00000017 __func__.4
00000000 l    df *ABS*	00000000 serializer.c
0000912c l     F .text	00000064 alloc_and_get
000168c5 l     O .rodata	00000013 __func__.0
00000000 l    df *ABS*	00000000 token_capabilities.c
000173b5 l     O .rodata	00000020 __func__.2
000173d5 l     O .rodata	0000001a __func__.1
000173ef l     O .rodata	0000001a __func__.0
0001a728 l     O .data	00000330 pkcs11_modes
00000000 l    df *ABS*	00000000 ta_entry_a32.o
00000000 l    df *ABS*	00000000 memcpy.c
00000000 l    df *ABS*	00000000 snprintk.c
000096c0 l     F .text	00000684 kprintf.constprop.0
000174e9 l     O .rodata	00000011 hexdigits
000174fa l     O .rodata	00000011 HEXDIGITS
00000000 l    df *ABS*	00000000 trace.c
00017525 l     O .rodata	00000005 lvl_strs.0
00000000 l    df *ABS*	00000000 arm32_aeabi_ldivmod_a32.o
00000000 l    df *ABS*	00000000 assert.c
00000000 l    df *ABS*	00000000 tee_uuid_from_str.c
00009f48 l     F .text	0000004c parse_hex
00000000 l    df *ABS*	00000000 trace_ext.c
00000000 l    df *ABS*	00000000 tee_api.c
0000a0f8 l     F .text	00000066 update_out_param
0000a1d0 l     F .text	0000012c copy_param
00017562 l     O .rodata	0000000b __func__.0
0001aed8 l     O .bss	00000004 tee_api_instance_data
00000000 l    df *ABS*	00000000 tee_api_objects.c
00000000 l    df *ABS*	00000000 tee_api_operations.c
0000ad88 l     F .text	00000158 tee_buffer_update
00000000 l    df *ABS*	00000000 tee_api_panic.c
0000c920 l     F .text	00000020 check_access
0000c944 l     F .text	0000000a check_res.constprop.0
00000000 l    df *ABS*	00000000 tee_api_property.c
0000c9f8 l     F .text	00000050 propset_get
0000ca48 l     F .text	00000014 is_propset_pseudo_handle
0000ca5c l     F .text	00000088 propget_get_ext_prop
0000cae4 l     F .text	000000f0 propget_get_property
000132fc l     O .rodata	00000004 __compound_literal.3
00013300 l     O .rodata	00000004 __compound_literal.2
00013304 l     O .rodata	00000004 __compound_literal.1
00013308 l     O .rodata	00000004 __compound_literal.0
00000000 l    df *ABS*	00000000 tee_system_pta.c
0000d054 l     F .text	00000050 invoke_system_pta
0001330c l     O .rodata	00000010 uuid.2
0001331c l     O .rodata	0000000a __func__.1
00013326 l     O .rodata	00000017 __func__.0
0001aedc l     O .bss	00000004 sess.3
00000000 l    df *ABS*	00000000 utee_syscalls_a32.o
00000000 l    df *ABS*	00000000 user_ta_entry.c
0000d660 l     F .text	0000006a _get_fn_array
0000d6ca l     F .text	00000032 _fini_iterate_phdr_cb
0000d6fc l     F .text	0000001c ta_header_get_session
0000d718 l     F .text	0000005a to_utee_params
0000d772 l     F .text	0000003c from_utee_params
0000d7ae l     F .text	00000062 _init_iterate_phdr_cb
0000d8d8 l     F .text	0000006c ta_header_remove_session
0001766f l     O .rodata	00000016 __func__.0
0001aee0 l     O .bss	00000004 _num_mod_init
0001aee4 l     O .bss	00000001 init_done
0001ae1c l     O .data	00000008 ta_sessions
0001ae24 l     O .data	00000008 __phdr_info_head
00000000 l    df *ABS*	00000000 abort.c
00000000 l    df *ABS*	00000000 base64.c
0001768c l     O .rodata	00000041 base64_table
00000000 l    df *ABS*	00000000 tee_api_arith_mpi.c
0000dc90 l     F .text	00000020 api_panic
0000dcb0 l     F .text	00000020 mpi_panic
0000dcd0 l     F .text	00000050 get_mpi
0000dd20 l     F .text	00000040 copy_mpi_to_bigint
0000dd60 l     F .text	000000a4 bigint_binary
0000de04 l     F .text	00000010 mpi_is_odd
0000de14 l     F .text	00000016 rng_read
0000de2a l     F .text	0000045e mpi_egcd
0001af18 l     O .bss	00003000 data.17
0000e4bc l     F .text	0000010c bigint_binary_mod
00017784 l     O .rodata	00000008 __func__.14
0001778c l     O .rodata	0000000e __func__.10
0001779a l     O .rodata	00000009 __func__.2
000177a3 l     O .rodata	00000012 __func__.16
000177b5 l     O .rodata	0000000f __func__.15
000177c4 l     O .rodata	0000001f __func__.13
000177e3 l     O .rodata	00000019 __func__.12
000177fc l     O .rodata	00000012 __func__.6
0001780e l     O .rodata	00000015 __func__.11
00017823 l     O .rodata	0000000e __func__.9
00017831 l     O .rodata	0000000e __func__.8
0001783f l     O .rodata	0000000e __func__.7
0001784d l     O .rodata	00000011 __func__.5
0001785e l     O .rodata	00000018 __func__.4
00017876 l     O .rodata	0000001d __func__.3
00017893 l     O .rodata	00000019 __func__.1
000178ac l     O .rodata	00000015 __func__.0
00000000 l    df *ABS*	00000000 tcb.c
00017957 l     O .rodata	00000010 __func__.1
00017967 l     O .rodata	00000010 __func__.0
0001df18 l     O .bss	00000004 _tls_size
0001df1c l     O .bss	00000004 _tcb
00000000 l    df *ABS*	00000000 bignum.c
0000f094 l     F .text	00000024 mpi_safe_cond_assign
0000f0b8 l     F .text	0000003a mpi_get_digit
0000f0f2 l     F .text	00000364 mpi_mul_hlp
0000f456 l     F .text	000000e4 mpi_montmul
0000f53a l     F .text	00000022 mpi_montred
0000f55c l     F .text	00000026 mpi_montg_init.isra.0
0000f582 l     F .text	00000052 mpi_bigendian_to_host.part.0
0000f5d4 l     F .text	00000064 mpi_fill_random_internal
0000f748 l     F .text	00000036 mbedtls_mpi_resize_clear
000109b0 l     F .text	00000050 mpi_check_small_factors
00010fa8 l     F .text	00000192 mpi_miller_rabin
00013340 l     O .rodata	000002a0 small_prime
000135e0 l     O .rodata	00000024 gcd_pairs
00000000 l    df *ABS*	00000000 platform_util.c
0001ae2c l     O .data	00000004 memset_func
00000000 l    df *ABS*	00000000 bget_malloc.c
00011a94 l     F .text	00000020 raw_malloc_return_hook
000121be l     F .text	00000082 gen_malloc_add_pool
00018086 l     O .rodata	00000005 __func__.8
0001808b l     O .rodata	00000006 __func__.7
00018091 l     O .rodata	00000005 __func__.5
00018096 l     O .rodata	00000006 __func__.6
0001809c l     O .rodata	00000006 __func__.4
000180a2 l     O .rodata	00000007 __func__.3
000180a9 l     O .rodata	00000014 __func__.2
000180bd l     O .rodata	0000000e __func__.1
000180cb l     O .rodata	00000013 __func__.0
0001ae30 l     O .data	0000005c malloc_ctx
00000000 l    df *ABS*	00000000 mempool.c
00018167 l     O .rodata	00000013 __func__.2
0001817a l     O .rodata	0000000b __func__.1
00018185 l     O .rodata	0000000e __func__.0
00000000 l    df *ABS*	00000000 handle.c
00000000 l    df *ABS*	00000000 processing_aes.c
00000000 l    df *ABS*	00000000 snprintf.c
00000000 l    df *ABS*	00000000 memset.c
00000000 l    df *ABS*	00000000 strchr.c
00000000 l    df *ABS*	00000000 strcmp.c
00000000 l    df *ABS*	00000000 strcpy.c
00000000 l    df *ABS*	00000000 strlen.c
00000000 l    df *ABS*	00000000 strnlen.c
00000000 l    df *ABS*	00000000 strstr.c
00000000 l    df *ABS*	00000000 consttime_memcmp.c
00000000 l    df *ABS*	00000000 memchr.c
00000000 l    df *ABS*	00000000 arm32_aeabi_ldivmod.c
000127b6 l     F .text	0000008a ul_div_qr
00000000 l    df *ABS*	00000000 isxdigit.c
00000000 l    df *ABS*	00000000 tolower.c
00000000 l    df *ABS*	00000000 memmove.c
00000000 l    df *ABS*	00000000 strlcpy.c
00000000 l    df *ABS*	00000000 
00019000 l     O *ABS*	00000000 _DYNAMIC
00019088 l     O *ABS*	00000000 _GLOBAL_OFFSET_TABLE_
00012978 l     F .text	00000010 ___utee_cache_operation_from_thumb
00012988 l     F .text	00000010 ___utee_panic_from_thumb
00012998 l     F .text	00000010 ___utee_log_from_thumb
000129a8 l     F .text	00000010 ___utee_check_access_rights_from_thumb
00000098 g     F .text	00000018 init_attributes_head
0000a0d4 g     F .text	00000022 putchar
0000a82c g     F .text	00000078 TEE_PopulateTransientObject
00003dac g     F .text	000000c0 pkcs2tee_load_hashed_attr
000126e8 g     F .text	00000010 strcpy
000019c0 g     F .text	00000040 destroy_object_uuid
0000ed2e g     F .text	00000004 TEE_BigIntConvertToFMM
0000ea0c g     F .text	00000008 TEE_BigIntSquareMod
0000e5c8 g     F .text	00000110 TEE_BigIntShiftRight
000122e6 g     F .text	00000002 raw_malloc_add_pool
0000d128 g     F .text	00000088 tee_invoke_supp_plugin
000093b0 g     F .text	00000084 tee_malloc_mechanism_list
00001cf4 g     F .text	0000009c update_persistent_object_attributes
00008c10 g     F .text	00000168 trace_attributes_from_api_head
0000f6b0 g     F .text	00000098 mbedtls_mpi_grow
0001287a g     F .text	00000072 __l_divmod
0000164a g     F .text	0000004a verify_pin
0000ba10 g     F .text	00000030 TEE_DigestUpdate
00004aa0 g     F .text	00000054 entry_ck_close_session
0000a572 g     F .text	00000020 TEE_Realloc
0000b868 g     F .text	000000f4 TEE_SetOperationKey2
0000c9e6 g     F .text	00000012 __utee_check_inout_annotation
0001212a g     F .text	00000008 raw_free
0000a076 g     F .text	0000003a printf
0000397a g     F .text	00000028 get_key_data_to_wrap
00001704 g     F .text	000001b0 setup_identity_auth_from_pin
00006bb0 g     F .text	000001d0 step_digest_operation
00003f5c g     F .text	00000018 id2str_class
00003b86 g     F .text	0000000c pkcs11_attr_class_is_key
0000a8a4 g     F .text	00000022 TEE_InitRefAttribute
0000d1d8 g     F .text	00000014 _utee_log
00006f7c g     F .text	0000006c pkcs2tee_algo_ecdsa
0000a390 g     F .text	000000b4 TEE_InvokeTACommand
0000c94e g     F .text	0000002e __utee_check_outbuf_annotation
0000f644 g     F .text	00000028 mbedtls_mpi_init_mempool
00000400 g     F .text	00000144 trace_attributes
0000d474 g     F .text	00000014 _utee_cryp_random_number_generate
0000fbce g     F .text	0000006a mbedtls_mpi_write_binary
00009f94 g     F .text	000000c8 tee_uuid_from_str
00002f1c g     F .text	00000008 object_is_modifiable
0000c090 g     F .text	0000011c TEE_AEEncryptFinal
00003b5e g     F .text	00000014 pkcs11_attr_has_indirect_attributes
00000c12 g     F .text	000000b6 entry_destroy_object
000009fc g     F .text	00000128 create_object
00001a00 g     F .text	00000028 get_persistent_objects_list
00009698 g     F .text	0000000e vsnprintk
0001015c g     F .text	0000002e mbedtls_mpi_sub_int
00006ac8 g     F .text	000000e8 init_digest_operation
0000010a g     F .text	00000006 remove_empty_attribute
00012914 g     F .text	00000034 memmove
0001267c g     F .text	0000001e snprintf
00004480 g     F .text	00000016 pkcs11_deinit
0000e496 g     F .text	00000026 TEE_BigIntCmpS32
00003efc g     F .text	00000018 id2str_session_flag
00001a28 g     F .text	000000b4 unregister_persistent_object
0000a8c6 g     F .text	00000022 TEE_InitValueAttribute
0000f77e g     F .text	000000b6 mbedtls_mpi_shrink
00000944 g     F .text	00000098 destroy_object
00008b6e g     F .text	000000a2 sanitize_consistent_class_and_type
0000e724 g     F .text	0000001c TEE_BigIntAdd
00003f74 g     F .text	00000018 id2str_key_type
00004372 g     F .text	00000006 get_session_list
0000d3d4 g     F .text	00000014 _utee_cryp_obj_restrict_usage
00000110 g     F .text	00000098 get_attribute_ptrs
000132f4 g     O .rodata	00000004 ta_heap_size
0000a7fc g     F .text	00000030 TEE_ResetTransientObject
00009266 g     F .text	0000004e serialize
0000d4fc g     F .text	00000018 _utee_asymm_operate
0000daf4 g     F .text	0000000e _base64_enc_len
000102cc g     F .text	0000011c mbedtls_mpi_read_string
0000bac4 g     F .text	00000074 TEE_CipherInit
00001adc g     F .text	00000094 register_persistent_object
00001960 g     F .text	00000002 close_persistent_db
0000336c g     F .text	000002e0 check_parent_attrs_against_processing
00005bf8 g     F .text	00000270 entry_processing_key
0000e75c g     F .text	00000074 TEE_BigIntNeg
0000d598 g     F .text	00000014 _utee_storage_free_enum
00000020 g       .text	00000000 __text_start
00005ef0 g     F .text	0000021c entry_wrap_key
0000cfec g     F .text	00000068 TEE_GetNextProperty
0000aba4 g     F .text	0000002c TEE_StartPersistentObjectEnumerator
0000fcdc g     F .text	00000078 mbedtls_mpi_shift_r
00007990 g     F .text	00000288 generate_rsa_keys
000123f0 g     F .text	00000054 malloc_buffer_overlaps_heap
0000d33c g     F .text	00000014 _utee_hash_init
000009dc g     F .text	00000020 create_token_object
0000e9d4 g     F .text	0000001c TEE_BigIntSubMod
00011574 g     F .text	00000210 mbedtls_mpi_gen_prime
0000cde8 g     F .text	00000068 TEE_GetPropertyAsBinaryBlock
0000f9f8 g     F .text	00000020 mbedtls_mpi_get_bit
0000fb22 g     F .text	00000042 mbedtls_mpi_read_binary
0000bf00 g     F .text	00000070 TEE_AEInit
00009ec4 g     F .text	00000018 trace_printf
00010a06 g     F .text	00000004 mbedtls_mpi_montmul
0000d64c g     F .text	00000014 _utee_cache_operation
00009590 g     F .text	000000d8 memcpy
000090a8 g     F .text	00000008 serialargs_init
00007d34 g     F .text	00000074 processing_is_tee_symm
000011e8 g     F .text	00000114 entry_set_attribute_value
0000729c g     F .text	00000064 ecdsa_get_input_max_byte_size
000125ac g     F .text	0000001c handle_put
0000ed32 g     F .text	00000066 TEE_BigIntConvertFromFMM
0000c940 g     F .text	00000004 TEE_Panic
00002f16 g     F .text	00000006 object_is_token
00009ef8 g     F .text	00000018 __aeabi_uldivmod
0000b95c g     F .text	000000b4 TEE_CopyOperation
0000a0b0 g     F .text	00000024 puts
0000ed98 g     F .text	000000c0 TEE_BigIntComputeFMM
000120b8 g     F .text	0000001c malloc_get_stats
00003abc g     F .text	00000054 tee2pkcs_error
0000a500 g     F .text	00000016 TEE_GetREETime
000122e8 g     F .text	00000018 raw_malloc_get_stats
0000ab48 g     F .text	00000034 TEE_AllocatePersistentObjectEnumerator
00012908 g     F .text	0000000c tolower
00009108 g     F .text	00000024 serialargs_get
0001ad8c g     O .data	00000054 ta_props
0000c2a8 g     F .text	000000c0 TEE_AsymmetricEncrypt
0000c97c g     F .text	00000018 __utee_check_instring_annotation
00012240 g     F .text	00000014 malloc
00008d78 g     F .text	00000330 sanitize_client_object
0001266e g     F .text	0000000a __ta_entry_c
0000cf48 g     F .text	00000004 TEE_FreePropertyEnumerator
0000036a g     F .text	00000096 attributes_match_add_reference
00003f8c g     F .text	00000014 id2str_type
00000f58 g     F .text	00000020 release_session_find_obj_context
0001269a g     F .text	0000000e vsnprintf
0000a980 g     F .text	00000054 TEE_GenerateKey
0001ad88 g     O .data	00000004 trace_level
00004320 g     F .text	0000004c get_token_id
0000e460 g     F .text	00000036 TEE_BigIntCmp
00001694 g     F .text	00000070 setup_so_identity_auth_from_client
00003b72 g     F .text	00000014 pkcs11_class_has_type
000132e4 g     O .rodata	00000004 ta_num_props
0000896a g     F .text	00000106 wrap_data_by_symm_enc
00006dd8 g     F .text	00000030 ec_params2tee_curve
00004378 g     F .text	00000018 tee_session2client
00011f20 g     F .text	00000084 bgetr
0000d52c g     F .text	00000018 _utee_storage_obj_open
000090b0 g     F .text	00000058 serialargs_get_ptr
00009190 g     F .text	00000016 serialargs_alloc_and_get
00000f78 g     F .text	0000005c entry_find_objects_final
00012528 g     F .text	0000000c mempool_free
0000bb38 g     F .text	000000ec TEE_CipherUpdate
0000d350 g     F .text	00000014 _utee_hash_update
0000e35c g     F .text	00000058 TEE_BigIntConvertToOctetString
00000244 g     F .text	00000058 modify_attributes_list
0000b6b8 g     F .text	000000d8 TEE_GetOperationInfoMultiple
0000507e g     F .text	000000d8 entry_ck_logout
0000fa9c g     F .text	00000036 mbedtls_mpi_bitlen
0000e6d8 g     F .text	0000002a TEE_BigIntGetBit
000132f8 g     O .rodata	00000003 trace_ext_prefix
0000d5d4 g     F .text	00000014 _utee_storage_next_enum
00004070 g     F .text	00000018 id2str_function
00012118 g     F .text	00000012 raw_malloc
00003bba g     F .text	00000026 pkcs11_attr2boolprop_shift
00011cb8 g     F .text	00000060 bgetz
000043e8 g     F .text	0000006c unregister_client
0000a450 g     F .text	0000000c TEE_GetInstanceData
0000a47e g     F .text	0000001e TEE_Wait
0000524c g     F .text	000000a8 entry_ck_generate_random
0001018a g     F .text	000000e6 mbedtls_mpi_mul_mpi
00001610 g     F .text	0000003a hash_pin
0000a598 g     F .text	00000006 TEE_CacheFlush
00009d8c g     F .text	00000138 trace_vprintf
00000548 g     F .text	00000004 TA_DestroyEntryPoint
000091e6 g     F .text	00000040 serialargs_alloc_get_attributes
000018b4 g     F .text	000000ac verify_identity_auth
0000f638 g     F .text	0000000c mbedtls_mpi_init
0000d55c g     F .text	00000014 _utee_storage_obj_del
0000fa68 g     F .text	00000034 mbedtls_mpi_lsb
00009f10 g     F .text	00000028 _assert_log
000056d8 g     F .text	00000246 entry_generate_key_pair
0000d314 g     F .text	00000014 _utee_cryp_state_copy
0000ed2a g     F .text	00000004 TEE_BigIntFMMContextSizeInU32
000024a8 g     F .text	00000a68 create_attributes_from_template
0000d0da g     F .text	0000004e tee_unmap
0000be7c g     F .text	00000084 TEE_MACCompareFinal
0000ab0e g     F .text	0000003a TEE_RenamePersistentObject
00009300 g     F .text	00000084 mechanism_flags_complies_pkcs11
0000ba40 g     F .text	00000084 TEE_DigestDoFinal
00004390 g     F .text	0000000c pkcs11_handle2session
0000e288 g     F .text	00000044 _TEE_MathAPI_Init
000000b0 g     F .text	0000005a add_attribute
0000ee58 g     F .text	0000017c __utee_tcb_init
0001009c g     F .text	00000048 mbedtls_mpi_add_mpi
0000dadc g     F .text	00000018 abort
000001a8 g     F .text	00000024 get_attribute_ptr
0001113a g     F .text	000000e6 mbedtls_mpi_random
00007c18 g     F .text	00000022 rsa_get_input_max_byte_size
00001b70 g     F .text	00000174 load_persistent_object_attributes
00003eb8 g     F .text	00000014 id2str_ta_cmd
0001ae8c g     O .bss	00000004 temporary_object_list
0000c9c0 g     F .text	00000012 __utee_check_out_annotation
0001df24 g     O .bss	00008000 ta_heap
0000ea14 g     F .text	000000c0 TEE_BigIntInvMod
00009384 g     F .text	0000002c mechanism_is_one_shot_only
000128ec g     F .text	0000001c isxdigit
0000d810 g     F .text	000000b8 __utee_call_elf_init_fn
00007624 g     F .text	0000018c pkcs2tee_algo_rsa_oaep
00000564 g     F .text	0000000e TA_CloseSessionEntryPoint
0000955a g     F .text	00000032 mechanism_supported_key_sizes_bytes
0000d244 g     F .text	00000014 _utee_close_ta_session
00006154 g     F .text	00000030 processing_is_tee_asymm
00008908 g     F .text	00000062 derive_key_by_symm_enc
0000c368 g     F .text	000000c0 TEE_AsymmetricDecrypt
0000a9d4 g     F .text	00000074 TEE_OpenPersistentObject
000100e4 g     F .text	0000004a mbedtls_mpi_sub_mpi
0000d1c4 g     F .text	00000014 _utee_return
00012752 g     F .text	00000048 consttime_memcmp
0000d1ec g     F .text	00000014 __utee_panic
0000efd4 g     F .text	00000018 __tls_get_addr
00012708 g     F .text	00000018 strnlen
00000572 g     F .text	000002d2 TA_InvokeCommandEntryPoint
0001ae90 g     O .bss	00000048 ck_token
0000d8c8 g     F .text	00000010 __utee_call_elf_fini_fn
000122c0 g     F .text	00000010 free_wipe
000124c8 g     F .text	0000003c mempool_alloc
0000d1b0 g     F .text	00000014 _utee_panic
000122d4 g     F .text	00000012 raw_malloc_init_ctx
00012504 g     F .text	00000024 mempool_calloc
0000d638 g     F .text	00000014 _utee_cryp_obj_generate_key
0000d610 g     F .text	00000014 _utee_storage_obj_trunc
0000a950 g     F .text	00000030 TEE_CopyObjectAttributes
0001ade0 g     O .data	0000003c tee_props
0000d298 g     F .text	00000014 _utee_unmask_cancellation
00004038 g     F .text	00000038 id2str_proc
0001aa58 g     O .data	00000330 token_mechanism
0000cf18 g     F .text	00000008 TEE_ResetPropertyEnumerator
00012254 g     F .text	00000020 calloc
00003ee4 g     F .text	00000018 id2str_token_flag
0000a516 g     F .text	00000052 TEE_Malloc
0000a1c6 g     F .text	0000000a TEE_CheckMemoryAccessRights
00012840 g     F .text	0000003a __ul_divmod
0000ce50 g     F .text	00000064 TEE_GetPropertyAsUUID
0000d200 g     F .text	00000018 _utee_get_property
0000f9c0 g     F .text	00000038 mbedtls_mpi_lset
0000ac40 g     F .text	00000054 TEE_ReadObjectData
0000a664 g     F .text	00000078 TEE_GetObjectBufferAttribute
0000054c g     F .text	00000018 TA_OpenSessionEntryPoint
00003138 g     F .text	00000234 check_created_attrs
0000aee0 g     F .text	00000026 TEE_FreeOperation
0000efec g     F .text	000000a8 dl_iterate_phdr
000039a2 g     F .text	000000d2 add_missing_attribute_id
00025f28 g       .bss	00000000 __ftrace_buf_end
0001af14 g     O .bss	00000004 ta_param_types
00007da8 g     F .text	000006e8 init_symm_operation
0001074c g     F .text	0000002e mbedtls_mpi_div_int
0000a5a4 g     F .text	0000002a __utee_from_attr
00002f2c g     F .text	00000036 check_access_attrs_against_token
00001962 g     F .text	0000005e create_object_uuid
000036be g     F .text	00000238 check_attrs_against_modification
000038f6 g     F .text	00000084 set_key_data
00011506 g     F .text	00000064 mbedtls_mpi_is_prime_ext
00004da4 g     F .text	000000b4 entry_ck_init_pin
0000ecec g     F .text	00000030 TEE_BigIntIsProbablePrime
00010270 g     F .text	0000005c mbedtls_mpi_mul_int
0000aad4 g     F .text	00000024 TEE_CloseAndDeletePersistentObject1
00010a0e g     F .text	00000466 mbedtls_mpi_exp_mod
0000f8c8 g     F .text	00000064 mbedtls_mpi_safe_cond_assign
00003bac g     F .text	0000000e key_type_is_asymm_key
0000cbd4 g     F .text	00000150 TEE_GetPropertyAsString
00005a5e g     F .text	0000019a entry_processing_step
0000fe3c g     F .text	000000a2 mbedtls_mpi_lt_mpi_ct
0000c1ac g     F .text	000000fc TEE_AEDecryptFinal
0000e2cc g     F .text	00000038 TEE_BigIntInit
0000c994 g     F .text	0000002c __utee_check_outstring_annotation
0000a45c g     F .text	00000004 TEE_MemMove
00011a80 g     F .text	00000014 mbedtls_platform_zeroize
0000e304 g     F .text	00000058 TEE_BigIntConvertFromOctetString
0000d4e4 g     F .text	00000018 _utee_authenc_dec_final
0000fd54 g     F .text	00000062 mbedtls_mpi_cmp_abs
0000d5e8 g     F .text	00000014 _utee_storage_obj_read
0000bd5c g     F .text	00000056 TEE_MACInit
0000029c g     F .text	00000054 get_bool
0000c428 g     F .text	000000bc TEE_AsymmetricSignDigest
0001279a g     F .text	0000001c memchr
0000a18e g     F .text	0000001c TEE_UnmaskCancellation
0000a5ce g     F .text	0000002a TEE_GetObjectInfo
00011784 g     F .text	000002fc mbedtls_mpi_self_test
00002f10 g     F .text	00000006 object_is_private
0000d624 g     F .text	00000014 _utee_storage_obj_seek
0000bfb6 g     F .text	000000da TEE_AEUpdate
0000a7cc g     F .text	00000030 TEE_FreeTransientObject
0000d284 g     F .text	00000014 _utee_check_access_rights
00004496 g     F .text	00000096 set_processing_state
0000fede g     F .text	0000002e mbedtls_mpi_cmp_int
00012720 g     F .text	00000032 strstr
0000dbcc g     F .text	000000c4 _base64_dec
0000d5ac g     F .text	00000014 _utee_storage_reset_enum
0000c67e g     F .text	00000018 rand
00003f2c g     F .text	00000030 id2str_attr
0000c9d2 g     F .text	00000014 __utee_check_attr_in_annotation
0000d4b4 g     F .text	00000018 _utee_authenc_update_payload
00003b10 g     F .text	00000034 valid_pkcs11_attribute_id
0000741c g     F .text	00000158 pkcs2tee_algo_rsa_pss
0000591e g     F .text	00000140 entry_processing_init
0000b688 g     F .text	00000030 TEE_GetOperationInfo
0000e968 g     F .text	00000050 TEE_BigIntMod
000107de g     F .text	0000006e mbedtls_mpi_mod_int
0000fade g     F .text	00000044 mbedtls_mpi_read_binary_le
0000e87a g     F .text	000000ee TEE_BigIntDiv
0000d3fc g     F .text	00000014 _utee_cryp_obj_alloc
00025f28 g       .bss	00000000 __ftrace_buf_start
00012948 g     F .text	0000002a strlcpy
00008a70 g     F .text	00000094 unwrap_key_by_symm
0000f834 g     F .text	00000066 mbedtls_mpi_copy
0000439c g     F .text	0000004c register_client
0000c696 g     F .text	0000028a TEE_IsAlgorithmSupported
000120a4 g     F .text	00000014 malloc_reset_stats
0000ceb4 g     F .text	00000064 TEE_GetPropertyAsIdentity
00009d44 g     F .text	00000016 __vsprintf
00004582 g     F .text	0000010a entry_ck_slot_info
00000fd4 g     F .text	00000178 entry_get_attribute_value
0000d2e8 g     F .text	00000014 _utee_set_ta_time
0000d258 g     F .text	00000018 _utee_invoke_ta_command
00006dcc g     F .text	0000000c ec_params2tee_keysize
0000a618 g     F .text	00000020 TEE_RestrictObjectUsage1
000092e0 g     F .text	00000020 mechanism_is_valid
00012274 g     F .text	0000001c realloc
0000f89a g     F .text	0000002e mbedtls_mpi_swap
00012444 g     F .text	00000084 mempool_alloc_pool
0000e7d0 g     F .text	000000a4 TEE_BigIntMul
00002350 g     F .text	00000158 check_mechanism_against_processing
0000b790 g     F .text	00000040 TEE_ResetOperation
000122d0 g     F .text	00000004 raw_malloc_get_ctx_size
0000fc38 g     F .text	000000a4 mbedtls_mpi_shift_l
00003b44 g     F .text	0000001a pkcs11_attr_is_type
00004e58 g     F .text	000000d6 entry_ck_set_pin
0000fdb6 g     F .text	00000086 mbedtls_mpi_cmp_mpi
0000a464 g     F .text	00000004 TEE_MemFill
00000cc8 g     F .text	000001fc entry_find_objects_init
00012300 g     F .text	00000010 malloc_add_pool
0000bdb2 g     F .text	0000004e TEE_MACUpdate
00009d78 g     F .text	00000014 trace_get_level
0000ff0c g     F .text	000000ae mbedtls_mpi_add_abs
0000a638 g     F .text	0000002c TEE_RestrictObjectUsage
00006fe8 g     F .text	000002b4 generate_ec_keys
0000ed22 g     F .text	00000008 TEE_BigIntFMMSizeInU32
0000cd24 g     F .text	00000060 TEE_GetPropertyAsBool
0001217a g     F .text	00000044 raw_realloc
0000ed1c g     F .text	00000004 TEE_BigIntInitFMM
0000a778 g     F .text	00000014 TEE_CloseObject
000012fc g     F .text	000001bc entry_copy_object
0000d37c g     F .text	00000014 _utee_cipher_init
00003f14 g     F .text	00000018 id2str_session_state
0000d944 g     F .text	00000198 __utee_entry
0000cd84 g     F .text	00000064 TEE_GetPropertyAsU32
00006e08 g     F .text	00000174 load_tee_ec_key_attrs
000129b8 g       .text	00000000 __text_end
0000ead4 g     F .text	0000007c TEE_BigIntRelativePrime
0001077a g     F .text	00000064 mbedtls_mpi_mod_mpi
0000d3c0 g     F .text	00000014 _utee_cryp_obj_get_info
00003fb8 g     F .text	00000080 id2str_attr_value
0000364c g     F .text	00000072 attribute_is_exportable
00011fa4 g     F .text	0000009c bpool
0000cf20 g     F .text	00000028 TEE_AllocatePropertyEnumerator
0000d2fc g     F .text	00000018 _utee_cryp_state_alloc
0000a172 g     F .text	0000001c TEE_GetCancellationFlag
00010e74 g     F .text	00000100 mbedtls_mpi_gcd
0000468c g     F .text	0000011c entry_ck_token_info
0000a4d8 g     F .text	00000028 TEE_SetTAPersistentTime
00009226 g     F .text	00000012 serialargs_remaining_bytes
000008ec g     F .text	00000014 pkcs11_object2handle
0000fb64 g     F .text	0000006a mbedtls_mpi_write_binary_le
000126a8 g     F .text	00000010 memset
00005440 g     F .text	000001cc entry_generate_secret
000120d4 g     F .text	00000044 raw_memalign
0000a49c g     F .text	0000003c TEE_GetTAPersistentTime
00009edc g     F .text	00000002 dhex_dump
0000aa48 g     F .text	0000008c TEE_CreatePersistentObject
0000a1aa g     F .text	0000001c TEE_MaskCancellation
0000bf70 g     F .text	00000046 TEE_AEUpdateAAD
00004bea g     F .text	000001ba entry_ck_token_initialize
0000acd4 g     F .text	00000038 TEE_TruncateObjectData
0000d3e8 g     F .text	00000014 _utee_cryp_obj_get_attr
000015a0 g     F .text	00000070 update_persistent_db
00002fca g     F .text	0000016e check_created_attrs_against_processing
0000a5f8 g     F .text	00000020 TEE_GetObjectInfo1
0000d3a8 g     F .text	00000018 _utee_cipher_final
00009d5c g     F .text	0000001c trace_set_level
0000a6dc g     F .text	0000009c TEE_GetObjectValueAttribute
0000b7d0 g     F .text	00000098 TEE_SetOperationKey
0000452c g     F .text	00000056 entry_ck_slot_list
000042f4 g     F .text	0000002c get_token
0000d328 g     F .text	00000014 _utee_cryp_state_free
000126d2 g     F .text	00000016 strcmp
0000d22c g     F .text	00000018 _utee_open_ta_session
0000e404 g     F .text	0000005c TEE_BigIntConvertToS32
0000e740 g     F .text	0000001c TEE_BigIntSub
00003e6c g     F .text	00000034 pkcs2tee_mode
00003b92 g     F .text	0000001a key_type_is_symm_key
00012678 g     F .text	00000004 tahead_get_trace_level
0000d5c0 g     F .text	00000014 _utee_storage_start_enum
0000ad0c g     F .text	0000007c TEE_SeekObjectData
0000d0a4 g     F .text	00000036 tee_map_zi
00010a0a g     F .text	00000004 mbedtls_mpi_montred
0000560c g     F .text	00000064 alloc_get_tee_attribute_data
000002f0 g     F .text	0000007a attributes_match_reference
00012290 g     F .text	00000020 memalign
0000bc24 g     F .text	00000138 TEE_CipherDoFinal
00012602 g     F .text	0000006c tee_init_ctr_operation
0000e3b4 g     F .text	00000050 TEE_BigIntConvertFromS32
0001012e g     F .text	0000002e mbedtls_mpi_add_int
000125c8 g     F .text	00000016 handle_lookup
0000d4cc g     F .text	00000018 _utee_authenc_enc_final
000001cc g     F .text	0000004a get_attribute
00012310 g     F .text	000000e0 malloc_buffer_is_within_alloced
00004f2e g     F .text	00000150 entry_ck_login
000047a8 g     F .text	000000c4 entry_ck_token_mecha_ids
0000d410 g     F .text	00000014 _utee_cryp_obj_close
0000ed20 g     F .text	00000002 TEE_BigIntInitFMMContext
0000d2ac g     F .text	00000014 _utee_mask_cancellation
0000d570 g     F .text	00000014 _utee_storage_obj_rename
0000ab90 g     F .text	00000014 TEE_ResetPersistentObjectEnumerator
0000ac94 g     F .text	00000040 TEE_WriteObjectData
0000e874 g     F .text	00000006 TEE_BigIntSquare
0000d5fc g     F .text	00000014 _utee_storage_obj_write
00000544 g     F .text	00000004 TA_CreateEntryPoint
00009490 g     F .text	000000ca pkcs11_mechanism_supported_key_sizes
0000958c g     F .text	00000004 __ta_entry
0000d4a0 g     F .text	00000014 _utee_authenc_update_aad
00010a00 g     F .text	00000006 mbedtls_mpi_montg_init
000096a6 g     F .text	0000001a snprintk
0000e702 g     F .text	00000022 TEE_BigIntGetBitCount
0000d44c g     F .text	00000014 _utee_cryp_obj_copy
00001ce4 g     F .text	00000010 release_persistent_object_attributes
0000e9f0 g     F .text	0000001c TEE_BigIntMulMod
00011220 g     F .text	000002e6 mbedtls_mpi_inv_mod
0000c58c g     F .text	000000e0 TEE_DeriveKey
00004b5c g     F .text	0000008e entry_ck_session_info
0001aef4 g     O .bss	00000020 ta_params
00000900 g     F .text	00000044 cleanup_persistent_object
000103e8 g     F .text	00000364 mbedtls_mpi_div_mpi
0000fad2 g     F .text	0000000c mbedtls_mpi_size
00011ab4 g     F .text	00000204 bget
000125de g     F .text	00000024 handle_lookup_handle
0000a78c g     F .text	00000040 TEE_AllocateTransientObject
0000114c g     F .text	0000009c entry_get_object_size
0000cf4c g     F .text	0000000a TEE_StartPropertyEnumerator
0000d2c0 g     F .text	00000014 _utee_wait
0000fa18 g     F .text	00000050 mbedtls_mpi_set_bit
00012d0c g     O .rodata	0000000c raw_data_opt_or_null
00006184 g     F .text	0000043c init_asymm_operation
0000a568 g     F .text	0000000a TEE_Free
00000b24 g     F .text	000000ee entry_create_object
00001d90 g     F .text	0000020c init_persistent_db
0001156a g     F .text	0000000a mbedtls_mpi_is_prime
0000a59e g     F .text	00000006 TEE_CacheInvalidate
00002f24 g     F .text	00000008 object_is_copyable
00009f38 g     F .text	00000010 _assert_break
0000e9b8 g     F .text	0000001c TEE_BigIntAddMod
0000d2d4 g     F .text	00000014 _utee_get_time
00012550 g     F .text	0000005c handle_get
0000cf56 g     F .text	00000096 TEE_GetPropertyName
0000af06 g     F .text	00000782 TEE_AllocateOperation
0000d438 g     F .text	00000014 _utee_cryp_obj_populate
000091a6 g     F .text	00000040 serialargs_alloc_get_one_attribute
0000c66c g     F .text	00000012 TEE_GenerateRandom
0000a460 g     F .text	00000004 TEE_MemCompare
00005670 g     F .text	00000068 tee2pkcs_add_attribute
0000d390 g     F .text	00000018 _utee_cipher_update
00009668 g     F .text	00000030 __vsnprintf
00004af4 g     F .text	00000068 entry_ck_close_all_sessions
0001aee8 g     O .bss	0000000c __elf_phdr_info
000077b0 g     F .text	000001e0 load_tee_rsa_key_attrs
000008ca g     F .text	00000022 pkcs11_handle2object
0000ab7c g     F .text	00000014 TEE_FreePersistentObjectEnumerator
0000a2fc g     F .text	00000094 TEE_OpenTASession
00005156 g     F .text	000000f6 entry_ck_seed_random
0000486c g     F .text	000000ae entry_ck_token_mecha_info
0001253c g     F .text	00000014 handle_db_destroy
00006a88 g     F .text	00000040 processing_is_tee_digest
0000a05c g     F .text	00000014 trace_ext_puts
00000ec4 g     F .text	00000094 entry_find_objects
0000a070 g     F .text	00000006 trace_ext_get_thread_id
0000aaf8 g     F .text	00000016 TEE_CloseAndDeletePersistentObject
0000d460 g     F .text	00000014 _utee_cryp_derive_key
0000f66c g     F .text	00000044 mbedtls_mpi_free
00003be0 g     F .text	000001cc pkcs2tee_load_attr
0000d424 g     F .text	00000014 _utee_cryp_obj_reset
00007574 g     F .text	000000b0 pkcs2tee_proc_params_rsa_oaep
00005e68 g     F .text	00000088 entry_release_active_processing
0000a592 g     F .text	00000006 TEE_CacheClean
0000d218 g     F .text	00000014 _utee_get_property_name_to_index
00012132 g     F .text	00000048 raw_calloc
0000db02 g     F .text	000000ca _base64_enc
00012534 g     F .text	00000008 handle_db_init
0000f92c g     F .text	00000094 mbedtls_mpi_safe_cond_swap
00003ea0 g     F .text	00000018 id2str_rc
0000d488 g     F .text	00000018 _utee_authenc_init
0000a8e8 g     F .text	00000068 TEE_CopyObjectAttributes1
000126f8 g     F .text	00000010 strlen
0000eb50 g     F .text	0000019c TEE_BigIntComputeExtendedGcd
00008490 g     F .text	00000478 step_symm_operation
0000d584 g     F .text	00000014 _utee_storage_alloc_enum
000053b0 g     F .text	00000090 get_object_key_bit_size
000126b8 g     F .text	0000001a strchr
0000a468 g     F .text	00000016 TEE_GetSystemTime
0000d514 g     F .text	00000018 _utee_asymm_verify
00000000 g     O .ta_head	00000020 ta_head
00000216 g     F .text	0000002e set_attribute
00011d18 g     F .text	00000208 brel
00004454 g     F .text	0000002c pkcs11_init
0000ffba g     F .text	000000e2 mbedtls_mpi_sub_abs
00010f74 g     F .text	00000034 mbedtls_mpi_fill_random
00003ecc g     F .text	00000018 id2str_slot_flag
0000a444 g     F .text	0000000c TEE_SetInstanceData
0000d270 g     F .text	00000014 _utee_get_cancellation_flag
0000491a g     F .text	00000186 entry_ck_open_session
00009ee0 g     F .text	00000018 __aeabi_ldivmod
00007380 g     F .text	0000009c pkcs2tee_validate_rsa_pss
0001084c g     F .text	00000164 mbedtls_mpi_write_string
00007306 g     F .text	0000007a pkcs2tee_proc_params_rsa_pss
00002f62 g     F .text	00000068 check_created_attrs_against_token
0000abd0 g     F .text	00000070 TEE_GetNextPersistentObject
00009434 g     F .text	0000005c mechanism_supported_flags
0000a15e g     F .text	00000014 TEE_CloseTASession
0000c4e4 g     F .text	000000a8 TEE_AsymmetricVerifyDigest
0000d544 g     F .text	00000018 _utee_storage_obj_create
00009238 g     F .text	0000002e serialargs_get_session_from_handle
00005374 g     F .text	0000003c release_active_processing
000122b0 g     F .text	00000010 free
00003fa0 g     F .text	00000018 id2str_certificate_type
000092b4 g     F .text	0000002c mechanism_string_id
000065c0 g     F .text	000004c8 step_asymm_operation
0000436c g     F .text	00000006 get_object_handle_db
00012040 g     F .text	00000064 bstats
0000be00 g     F .text	0000007c TEE_MACComputeFinal
0001df20 g     O .bss	00000004 mbedtls_mpi_mempool
0000d364 g     F .text	00000018 _utee_hash_final



Disassembly of section .text:

00000020 <_remove_attribute.isra.0>:
_remove_attribute():
/home/aom1/Work/Linux/target/STM32MP1-DK2/bootloader/optee-os-custom/ta/pkcs11/src/attributes.c:61
      20:	e92d 47f0 	stmdb	sp!, {r4, r5, r6, r7, r8, r9, sl, lr}
/home/aom1/Work/Linux/target/STM32MP1-DK2/bootloader/optee-os-custom/ta/pkcs11/src/attributes.c:70
      24:	4604      	mov	r4, r0
/home/aom1/Work/Linux/target/STM32MP1-DK2/bootloader/optee-os-custom/ta/pkcs11/src/attributes.c:61
      26:	ed2d 8b02 	vpush	{d8}
/home/aom1/Work/Linux/target/STM32MP1-DK2/bootloader/optee-os-custom/ta/pkcs11/src/attributes.c:71
      2a:	f854 6b08 	ldr.w	r6, [r4], #8
/home/aom1/Work/Linux/target/STM32MP1-DK2/bootloader/optee-os-custom/ta/pkcs11/src/attributes.c:61
      2e:	b082      	sub	sp, #8
/home/aom1/Work/Linux/target/STM32MP1-DK2/bootloader/optee-os-custom/ta/pkcs11/src/attributes.c:73
      30:	ef80 8010 	vmov.i32	d8, #0	; 0x00000000
/home/aom1/Work/Linux/target/STM32MP1-DK2/bootloader/optee-os-custom/ta/pkcs11/src/attributes.c:71
      34:	4426      	add	r6, r4
/home/aom1/Work/Linux/target/STM32MP1-DK2/bootloader/optee-os-custom/ta/pkcs11/src/attributes.c:61
      36:	4605      	mov	r5, r0
      38:	460f      	mov	r7, r1
      3a:	4690      	mov	r8, r2
/home/aom1/Work/Linux/target/STM32MP1-DK2/bootloader/optee-os-custom/ta/pkcs11/src/attributes.c:73
      3c:	46ea      	mov	sl, sp
/home/aom1/Work/Linux/target/STM32MP1-DK2/bootloader/optee-os-custom/ta/pkcs11/src/attributes.c:72
      3e:	42a6      	cmp	r6, r4
      40:	d802      	bhi.n	48 <_remove_attribute.isra.0+0x28>
/home/aom1/Work/Linux/target/STM32MP1-DK2/bootloader/optee-os-custom/ta/pkcs11/src/attributes.c:95
      42:	f04f 4000 	mov.w	r0, #2147483648	; 0x80000000
      46:	e020      	b.n	8a <_remove_attribute.isra.0+0x6a>
/home/aom1/Work/Linux/target/STM32MP1-DK2/bootloader/optee-os-custom/ta/pkcs11/src/attributes.c:75
      48:	2208      	movs	r2, #8
      4a:	4621      	mov	r1, r4
      4c:	4650      	mov	r0, sl
/home/aom1/Work/Linux/target/STM32MP1-DK2/bootloader/optee-os-custom/ta/pkcs11/src/attributes.c:73
      4e:	ed8a 8b00 	vstr	d8, [sl]
/home/aom1/Work/Linux/target/STM32MP1-DK2/bootloader/optee-os-custom/ta/pkcs11/src/attributes.c:75
      52:	f00a fa03 	bl	a45c <TEE_MemMove>
/home/aom1/Work/Linux/target/STM32MP1-DK2/bootloader/optee-os-custom/ta/pkcs11/src/attributes.c:78
      56:	9a00      	ldr	r2, [sp, #0]
/home/aom1/Work/Linux/target/STM32MP1-DK2/bootloader/optee-os-custom/ta/pkcs11/src/attributes.c:76
      58:	9b01      	ldr	r3, [sp, #4]
/home/aom1/Work/Linux/target/STM32MP1-DK2/bootloader/optee-os-custom/ta/pkcs11/src/attributes.c:78
      5a:	42ba      	cmp	r2, r7
/home/aom1/Work/Linux/target/STM32MP1-DK2/bootloader/optee-os-custom/ta/pkcs11/src/attributes.c:76
      5c:	f103 0908 	add.w	r9, r3, #8
/home/aom1/Work/Linux/target/STM32MP1-DK2/bootloader/optee-os-custom/ta/pkcs11/src/attributes.c:78
      60:	d001      	beq.n	66 <_remove_attribute.isra.0+0x46>
/home/aom1/Work/Linux/target/STM32MP1-DK2/bootloader/optee-os-custom/ta/pkcs11/src/attributes.c:72
      62:	444c      	add	r4, r9
      64:	e7eb      	b.n	3e <_remove_attribute.isra.0+0x1e>
/home/aom1/Work/Linux/target/STM32MP1-DK2/bootloader/optee-os-custom/ta/pkcs11/src/attributes.c:81
      66:	f1b8 0f00 	cmp.w	r8, #0
      6a:	d000      	beq.n	6e <_remove_attribute.isra.0+0x4e>
      6c:	b993      	cbnz	r3, 94 <_remove_attribute.isra.0+0x74>
/home/aom1/Work/Linux/target/STM32MP1-DK2/bootloader/optee-os-custom/ta/pkcs11/src/attributes.c:84
      6e:	eb04 0109 	add.w	r1, r4, r9
      72:	4620      	mov	r0, r4
      74:	1a72      	subs	r2, r6, r1
      76:	f00a f9f1 	bl	a45c <TEE_MemMove>
/home/aom1/Work/Linux/target/STM32MP1-DK2/bootloader/optee-os-custom/ta/pkcs11/src/attributes.c:86
      7a:	686b      	ldr	r3, [r5, #4]
/home/aom1/Work/Linux/target/STM32MP1-DK2/bootloader/optee-os-custom/ta/pkcs11/src/attributes.c:91
      7c:	2000      	movs	r0, #0
/home/aom1/Work/Linux/target/STM32MP1-DK2/bootloader/optee-os-custom/ta/pkcs11/src/attributes.c:86
      7e:	3b01      	subs	r3, #1
      80:	606b      	str	r3, [r5, #4]
/home/aom1/Work/Linux/target/STM32MP1-DK2/bootloader/optee-os-custom/ta/pkcs11/src/attributes.c:87
      82:	682b      	ldr	r3, [r5, #0]
      84:	eba3 0309 	sub.w	r3, r3, r9
      88:	602b      	str	r3, [r5, #0]
/home/aom1/Work/Linux/target/STM32MP1-DK2/bootloader/optee-os-custom/ta/pkcs11/src/attributes.c:96
      8a:	b002      	add	sp, #8
      8c:	ecbd 8b02 	vpop	{d8}
      90:	e8bd 87f0 	ldmia.w	sp!, {r4, r5, r6, r7, r8, r9, sl, pc}
/home/aom1/Work/Linux/target/STM32MP1-DK2/bootloader/optee-os-custom/ta/pkcs11/src/attributes.c:82
      94:	2006      	movs	r0, #6
      96:	e7f8      	b.n	8a <_remove_attribute.isra.0+0x6a>

00000098 <init_attributes_head>:
init_attributes_head():
/home/aom1/Work/Linux/target/STM32MP1-DK2/bootloader/optee-os-custom/ta/pkcs11/src/attributes.c:23
      98:	b510      	push	{r4, lr}
/home/aom1/Work/Linux/target/STM32MP1-DK2/bootloader/optee-os-custom/ta/pkcs11/src/attributes.c:24
      9a:	2100      	movs	r1, #0
/home/aom1/Work/Linux/target/STM32MP1-DK2/bootloader/optee-os-custom/ta/pkcs11/src/attributes.c:23
      9c:	4604      	mov	r4, r0
/home/aom1/Work/Linux/target/STM32MP1-DK2/bootloader/optee-os-custom/ta/pkcs11/src/attributes.c:24
      9e:	2008      	movs	r0, #8
      a0:	f00a fa39 	bl	a516 <TEE_Malloc>
      a4:	6020      	str	r0, [r4, #0]
/home/aom1/Work/Linux/target/STM32MP1-DK2/bootloader/optee-os-custom/ta/pkcs11/src/attributes.c:26
      a6:	2800      	cmp	r0, #0
/home/aom1/Work/Linux/target/STM32MP1-DK2/bootloader/optee-os-custom/ta/pkcs11/src/attributes.c:29
      a8:	bf0c      	ite	eq
      aa:	2031      	moveq	r0, #49	; 0x31
      ac:	2000      	movne	r0, #0
      ae:	bd10      	pop	{r4, pc}

000000b0 <add_attribute>:
add_attribute():
/home/aom1/Work/Linux/target/STM32MP1-DK2/bootloader/optee-os-custom/ta/pkcs11/src/attributes.c:33
      b0:	e92d 41f3 	stmdb	sp!, {r0, r1, r4, r5, r6, r7, r8, lr}
      b4:	461c      	mov	r4, r3
/home/aom1/Work/Linux/target/STM32MP1-DK2/bootloader/optee-os-custom/ta/pkcs11/src/attributes.c:34
      b6:	6803      	ldr	r3, [r0, #0]
/home/aom1/Work/Linux/target/STM32MP1-DK2/bootloader/optee-os-custom/ta/pkcs11/src/attributes.c:40
      b8:	f10d 0804 	add.w	r8, sp, #4
      bc:	466e      	mov	r6, sp
/home/aom1/Work/Linux/target/STM32MP1-DK2/bootloader/optee-os-custom/ta/pkcs11/src/attributes.c:33
      be:	4617      	mov	r7, r2
/home/aom1/Work/Linux/target/STM32MP1-DK2/bootloader/optee-os-custom/ta/pkcs11/src/attributes.c:34
      c0:	681b      	ldr	r3, [r3, #0]
/home/aom1/Work/Linux/target/STM32MP1-DK2/bootloader/optee-os-custom/ta/pkcs11/src/attributes.c:40
      c2:	4642      	mov	r2, r8
/home/aom1/Work/Linux/target/STM32MP1-DK2/bootloader/optee-os-custom/ta/pkcs11/src/attributes.c:33
      c4:	4605      	mov	r5, r0
/home/aom1/Work/Linux/target/STM32MP1-DK2/bootloader/optee-os-custom/ta/pkcs11/src/attributes.c:34
      c6:	3308      	adds	r3, #8
/home/aom1/Work/Linux/target/STM32MP1-DK2/bootloader/optee-os-custom/ta/pkcs11/src/attributes.c:39
      c8:	e9cd 3100 	strd	r3, r1, [sp]
/home/aom1/Work/Linux/target/STM32MP1-DK2/bootloader/optee-os-custom/ta/pkcs11/src/attributes.c:40
      cc:	2304      	movs	r3, #4
      ce:	4631      	mov	r1, r6
      d0:	f009 f8c9 	bl	9266 <serialize>
/home/aom1/Work/Linux/target/STM32MP1-DK2/bootloader/optee-os-custom/ta/pkcs11/src/attributes.c:41
      d4:	b9b0      	cbnz	r0, 104 <add_attribute+0x54>
/home/aom1/Work/Linux/target/STM32MP1-DK2/bootloader/optee-os-custom/ta/pkcs11/src/attributes.c:44
      d6:	9401      	str	r4, [sp, #4]
/home/aom1/Work/Linux/target/STM32MP1-DK2/bootloader/optee-os-custom/ta/pkcs11/src/attributes.c:45
      d8:	2304      	movs	r3, #4
      da:	4642      	mov	r2, r8
      dc:	4631      	mov	r1, r6
      de:	4628      	mov	r0, r5
      e0:	f009 f8c1 	bl	9266 <serialize>
/home/aom1/Work/Linux/target/STM32MP1-DK2/bootloader/optee-os-custom/ta/pkcs11/src/attributes.c:46
      e4:	b970      	cbnz	r0, 104 <add_attribute+0x54>
/home/aom1/Work/Linux/target/STM32MP1-DK2/bootloader/optee-os-custom/ta/pkcs11/src/attributes.c:49
      e6:	4623      	mov	r3, r4
      e8:	463a      	mov	r2, r7
      ea:	4631      	mov	r1, r6
      ec:	4628      	mov	r0, r5
      ee:	f009 f8ba 	bl	9266 <serialize>
/home/aom1/Work/Linux/target/STM32MP1-DK2/bootloader/optee-os-custom/ta/pkcs11/src/attributes.c:50
      f2:	b938      	cbnz	r0, 104 <add_attribute+0x54>
/home/aom1/Work/Linux/target/STM32MP1-DK2/bootloader/optee-os-custom/ta/pkcs11/src/attributes.c:55
      f4:	682b      	ldr	r3, [r5, #0]
      f6:	3408      	adds	r4, #8
      f8:	681a      	ldr	r2, [r3, #0]
      fa:	4422      	add	r2, r4
      fc:	601a      	str	r2, [r3, #0]
/home/aom1/Work/Linux/target/STM32MP1-DK2/bootloader/optee-os-custom/ta/pkcs11/src/attributes.c:56
      fe:	685a      	ldr	r2, [r3, #4]
     100:	3201      	adds	r2, #1
     102:	605a      	str	r2, [r3, #4]
/home/aom1/Work/Linux/target/STM32MP1-DK2/bootloader/optee-os-custom/ta/pkcs11/src/attributes.c:59
     104:	b002      	add	sp, #8
     106:	e8bd 81f0 	ldmia.w	sp!, {r4, r5, r6, r7, r8, pc}

0000010a <remove_empty_attribute>:
remove_empty_attribute():
/home/aom1/Work/Linux/target/STM32MP1-DK2/bootloader/optee-os-custom/ta/pkcs11/src/attributes.c:101
     10a:	6800      	ldr	r0, [r0, #0]
     10c:	2201      	movs	r2, #1
     10e:	e787      	b.n	20 <_remove_attribute.isra.0>

00000110 <get_attribute_ptrs>:
get_attribute_ptrs():
/home/aom1/Work/Linux/target/STM32MP1-DK2/bootloader/optee-os-custom/ta/pkcs11/src/attributes.c:106
     110:	e92d 4ff0 	stmdb	sp!, {r4, r5, r6, r7, r8, r9, sl, fp, lr}
     114:	468a      	mov	sl, r1
     116:	ed2d 8b02 	vpush	{d8}
/home/aom1/Work/Linux/target/STM32MP1-DK2/bootloader/optee-os-custom/ta/pkcs11/src/attributes.c:107
     11a:	4601      	mov	r1, r0
/home/aom1/Work/Linux/target/STM32MP1-DK2/bootloader/optee-os-custom/ta/pkcs11/src/attributes.c:106
     11c:	b085      	sub	sp, #20
     11e:	4699      	mov	r9, r3
     120:	4690      	mov	r8, r2
/home/aom1/Work/Linux/target/STM32MP1-DK2/bootloader/optee-os-custom/ta/pkcs11/src/attributes.c:110
     122:	9b10      	ldr	r3, [sp, #64]	; 0x40
/home/aom1/Work/Linux/target/STM32MP1-DK2/bootloader/optee-os-custom/ta/pkcs11/src/attributes.c:113
     124:	464c      	mov	r4, r9
/home/aom1/Work/Linux/target/STM32MP1-DK2/bootloader/optee-os-custom/ta/pkcs11/src/attributes.c:108
     126:	f851 7b08 	ldr.w	r7, [r1], #8
/home/aom1/Work/Linux/target/STM32MP1-DK2/bootloader/optee-os-custom/ta/pkcs11/src/attributes.c:112
     12a:	4615      	mov	r5, r2
/home/aom1/Work/Linux/target/STM32MP1-DK2/bootloader/optee-os-custom/ta/pkcs11/src/attributes.c:117
     12c:	ef80 8010 	vmov.i32	d8, #0	; 0x00000000
/home/aom1/Work/Linux/target/STM32MP1-DK2/bootloader/optee-os-custom/ta/pkcs11/src/attributes.c:110
     130:	f8d3 b000 	ldr.w	fp, [r3]
/home/aom1/Work/Linux/target/STM32MP1-DK2/bootloader/optee-os-custom/ta/pkcs11/src/attributes.c:111
     134:	2600      	movs	r6, #0
/home/aom1/Work/Linux/target/STM32MP1-DK2/bootloader/optee-os-custom/ta/pkcs11/src/attributes.c:108
     136:	440f      	add	r7, r1
/home/aom1/Work/Linux/target/STM32MP1-DK2/bootloader/optee-os-custom/ta/pkcs11/src/attributes.c:117
     138:	ab02      	add	r3, sp, #8
/home/aom1/Work/Linux/target/STM32MP1-DK2/bootloader/optee-os-custom/ta/pkcs11/src/attributes.c:115 (discriminator 1)
     13a:	42b9      	cmp	r1, r7
     13c:	d30b      	bcc.n	156 <get_attribute_ptrs+0x46>
/home/aom1/Work/Linux/target/STM32MP1-DK2/bootloader/optee-os-custom/ta/pkcs11/src/attributes.c:145
     13e:	42b9      	cmp	r1, r7
     140:	d902      	bls.n	148 <get_attribute_ptrs+0x38>
/home/aom1/Work/Linux/target/STM32MP1-DK2/bootloader/optee-os-custom/ta/pkcs11/src/attributes.c:147
     142:	2000      	movs	r0, #0
     144:	f00c fbfc 	bl	c940 <TEE_Panic>
/home/aom1/Work/Linux/target/STM32MP1-DK2/bootloader/optee-os-custom/ta/pkcs11/src/attributes.c:150
     148:	9b10      	ldr	r3, [sp, #64]	; 0x40
     14a:	601e      	str	r6, [r3, #0]
/home/aom1/Work/Linux/target/STM32MP1-DK2/bootloader/optee-os-custom/ta/pkcs11/src/attributes.c:151
     14c:	b005      	add	sp, #20
     14e:	ecbd 8b02 	vpop	{d8}
     152:	e8bd 8ff0 	ldmia.w	sp!, {r4, r5, r6, r7, r8, r9, sl, fp, pc}
/home/aom1/Work/Linux/target/STM32MP1-DK2/bootloader/optee-os-custom/ta/pkcs11/src/attributes.c:119
     156:	9101      	str	r1, [sp, #4]
     158:	2208      	movs	r2, #8
     15a:	9300      	str	r3, [sp, #0]
     15c:	4618      	mov	r0, r3
/home/aom1/Work/Linux/target/STM32MP1-DK2/bootloader/optee-os-custom/ta/pkcs11/src/attributes.c:117
     15e:	ed83 8b00 	vstr	d8, [r3]
/home/aom1/Work/Linux/target/STM32MP1-DK2/bootloader/optee-os-custom/ta/pkcs11/src/attributes.c:119
     162:	f00a f97b 	bl	a45c <TEE_MemMove>
/home/aom1/Work/Linux/target/STM32MP1-DK2/bootloader/optee-os-custom/ta/pkcs11/src/attributes.c:122
     166:	9802      	ldr	r0, [sp, #8]
/home/aom1/Work/Linux/target/STM32MP1-DK2/bootloader/optee-os-custom/ta/pkcs11/src/attributes.c:120
     168:	9a03      	ldr	r2, [sp, #12]
/home/aom1/Work/Linux/target/STM32MP1-DK2/bootloader/optee-os-custom/ta/pkcs11/src/attributes.c:122
     16a:	4550      	cmp	r0, sl
     16c:	9b00      	ldr	r3, [sp, #0]
/home/aom1/Work/Linux/target/STM32MP1-DK2/bootloader/optee-os-custom/ta/pkcs11/src/attributes.c:120
     16e:	f102 0c08 	add.w	ip, r2, #8
/home/aom1/Work/Linux/target/STM32MP1-DK2/bootloader/optee-os-custom/ta/pkcs11/src/attributes.c:122
     172:	9901      	ldr	r1, [sp, #4]
     174:	d114      	bne.n	1a0 <get_attribute_ptrs+0x90>
/home/aom1/Work/Linux/target/STM32MP1-DK2/bootloader/optee-os-custom/ta/pkcs11/src/attributes.c:125
     176:	3601      	adds	r6, #1
/home/aom1/Work/Linux/target/STM32MP1-DK2/bootloader/optee-os-custom/ta/pkcs11/src/attributes.c:127
     178:	f1bb 0f00 	cmp.w	fp, #0
     17c:	d010      	beq.n	1a0 <get_attribute_ptrs+0x90>
/home/aom1/Work/Linux/target/STM32MP1-DK2/bootloader/optee-os-custom/ta/pkcs11/src/attributes.c:130
     17e:	f1b8 0f00 	cmp.w	r8, #0
     182:	d006      	beq.n	192 <get_attribute_ptrs+0x82>
/home/aom1/Work/Linux/target/STM32MP1-DK2/bootloader/optee-os-custom/ta/pkcs11/src/attributes.c:132
     184:	1d28      	adds	r0, r5, #4
/home/aom1/Work/Linux/target/STM32MP1-DK2/bootloader/optee-os-custom/ta/pkcs11/src/attributes.c:131
     186:	b16a      	cbz	r2, 1a4 <get_attribute_ptrs+0x94>
/home/aom1/Work/Linux/target/STM32MP1-DK2/bootloader/optee-os-custom/ta/pkcs11/src/attributes.c:132
     188:	f101 0e08 	add.w	lr, r1, #8
     18c:	f8c5 e000 	str.w	lr, [r5]
/home/aom1/Work/Linux/target/STM32MP1-DK2/bootloader/optee-os-custom/ta/pkcs11/src/attributes.c:134
     190:	4605      	mov	r5, r0
/home/aom1/Work/Linux/target/STM32MP1-DK2/bootloader/optee-os-custom/ta/pkcs11/src/attributes.c:137
     192:	f1b9 0f00 	cmp.w	r9, #0
     196:	d001      	beq.n	19c <get_attribute_ptrs+0x8c>
/home/aom1/Work/Linux/target/STM32MP1-DK2/bootloader/optee-os-custom/ta/pkcs11/src/attributes.c:138
     198:	f844 2b04 	str.w	r2, [r4], #4
/home/aom1/Work/Linux/target/STM32MP1-DK2/bootloader/optee-os-custom/ta/pkcs11/src/attributes.c:140
     19c:	45b3      	cmp	fp, r6
     19e:	d0ce      	beq.n	13e <get_attribute_ptrs+0x2e>
/home/aom1/Work/Linux/target/STM32MP1-DK2/bootloader/optee-os-custom/ta/pkcs11/src/attributes.c:115
     1a0:	4461      	add	r1, ip
     1a2:	e7ca      	b.n	13a <get_attribute_ptrs+0x2a>
/home/aom1/Work/Linux/target/STM32MP1-DK2/bootloader/optee-os-custom/ta/pkcs11/src/attributes.c:134
     1a4:	602a      	str	r2, [r5, #0]
     1a6:	e7f3      	b.n	190 <get_attribute_ptrs+0x80>

000001a8 <get_attribute_ptr>:
get_attribute_ptr():
/home/aom1/Work/Linux/target/STM32MP1-DK2/bootloader/optee-os-custom/ta/pkcs11/src/attributes.c:155
     1a8:	b51f      	push	{r0, r1, r2, r3, r4, lr}
/home/aom1/Work/Linux/target/STM32MP1-DK2/bootloader/optee-os-custom/ta/pkcs11/src/attributes.c:156
     1aa:	2401      	movs	r4, #1
     1ac:	9403      	str	r4, [sp, #12]
/home/aom1/Work/Linux/target/STM32MP1-DK2/bootloader/optee-os-custom/ta/pkcs11/src/attributes.c:158
     1ae:	ac03      	add	r4, sp, #12
     1b0:	9400      	str	r4, [sp, #0]
     1b2:	f7ff ffad 	bl	110 <get_attribute_ptrs>
/home/aom1/Work/Linux/target/STM32MP1-DK2/bootloader/optee-os-custom/ta/pkcs11/src/attributes.c:160
     1b6:	9b03      	ldr	r3, [sp, #12]
     1b8:	b12b      	cbz	r3, 1c6 <get_attribute_ptr+0x1e>
/home/aom1/Work/Linux/target/STM32MP1-DK2/bootloader/optee-os-custom/ta/pkcs11/src/attributes.c:164
     1ba:	2b01      	cmp	r3, #1
     1bc:	bf0c      	ite	eq
     1be:	2000      	moveq	r0, #0
     1c0:	2005      	movne	r0, #5
/home/aom1/Work/Linux/target/STM32MP1-DK2/bootloader/optee-os-custom/ta/pkcs11/src/attributes.c:167
     1c2:	b004      	add	sp, #16
     1c4:	bd10      	pop	{r4, pc}
/home/aom1/Work/Linux/target/STM32MP1-DK2/bootloader/optee-os-custom/ta/pkcs11/src/attributes.c:161
     1c6:	f04f 4000 	mov.w	r0, #2147483648	; 0x80000000
     1ca:	e7fa      	b.n	1c2 <get_attribute_ptr+0x1a>

000001cc <get_attribute>:
get_attribute():
/home/aom1/Work/Linux/target/STM32MP1-DK2/bootloader/optee-os-custom/ta/pkcs11/src/attributes.c:171
     1cc:	b573      	push	{r0, r1, r4, r5, r6, lr}
     1ce:	461c      	mov	r4, r3
/home/aom1/Work/Linux/target/STM32MP1-DK2/bootloader/optee-os-custom/ta/pkcs11/src/attributes.c:173
     1d0:	2300      	movs	r3, #0
/home/aom1/Work/Linux/target/STM32MP1-DK2/bootloader/optee-os-custom/ta/pkcs11/src/attributes.c:171
     1d2:	4616      	mov	r6, r2
/home/aom1/Work/Linux/target/STM32MP1-DK2/bootloader/optee-os-custom/ta/pkcs11/src/attributes.c:174
     1d4:	e9cd 3300 	strd	r3, r3, [sp]
/home/aom1/Work/Linux/target/STM32MP1-DK2/bootloader/optee-os-custom/ta/pkcs11/src/attributes.c:176
     1d8:	466a      	mov	r2, sp
     1da:	ab01      	add	r3, sp, #4
     1dc:	f7ff ffe4 	bl	1a8 <get_attribute_ptr>
/home/aom1/Work/Linux/target/STM32MP1-DK2/bootloader/optee-os-custom/ta/pkcs11/src/attributes.c:177
     1e0:	4605      	mov	r5, r0
     1e2:	b938      	cbnz	r0, 1f4 <get_attribute+0x28>
/home/aom1/Work/Linux/target/STM32MP1-DK2/bootloader/optee-os-custom/ta/pkcs11/src/attributes.c:180
     1e4:	b1a4      	cbz	r4, 210 <get_attribute+0x44>
/home/aom1/Work/Linux/target/STM32MP1-DK2/bootloader/optee-os-custom/ta/pkcs11/src/attributes.c:180 (discriminator 1)
     1e6:	9b01      	ldr	r3, [sp, #4]
     1e8:	6822      	ldr	r2, [r4, #0]
     1ea:	429a      	cmp	r2, r3
     1ec:	d205      	bcs.n	1fa <get_attribute+0x2e>
/home/aom1/Work/Linux/target/STM32MP1-DK2/bootloader/optee-os-custom/ta/pkcs11/src/attributes.c:181
     1ee:	6023      	str	r3, [r4, #0]
/home/aom1/Work/Linux/target/STM32MP1-DK2/bootloader/optee-os-custom/ta/pkcs11/src/attributes.c:183
     1f0:	f44f 75a8 	mov.w	r5, #336	; 0x150
/home/aom1/Work/Linux/target/STM32MP1-DK2/bootloader/optee-os-custom/ta/pkcs11/src/attributes.c:193
     1f4:	4628      	mov	r0, r5
     1f6:	b002      	add	sp, #8
     1f8:	bd70      	pop	{r4, r5, r6, pc}
/home/aom1/Work/Linux/target/STM32MP1-DK2/bootloader/optee-os-custom/ta/pkcs11/src/attributes.c:186
     1fa:	b136      	cbz	r6, 20a <get_attribute+0x3e>
/home/aom1/Work/Linux/target/STM32MP1-DK2/bootloader/optee-os-custom/ta/pkcs11/src/attributes.c:187
     1fc:	e9dd 1200 	ldrd	r1, r2, [sp]
     200:	4630      	mov	r0, r6
     202:	f00a f92b 	bl	a45c <TEE_MemMove>
/home/aom1/Work/Linux/target/STM32MP1-DK2/bootloader/optee-os-custom/ta/pkcs11/src/attributes.c:189
     206:	2c00      	cmp	r4, #0
     208:	d0f4      	beq.n	1f4 <get_attribute+0x28>
/home/aom1/Work/Linux/target/STM32MP1-DK2/bootloader/optee-os-custom/ta/pkcs11/src/attributes.c:190
     20a:	9b01      	ldr	r3, [sp, #4]
     20c:	6023      	str	r3, [r4, #0]
     20e:	e7f1      	b.n	1f4 <get_attribute+0x28>
/home/aom1/Work/Linux/target/STM32MP1-DK2/bootloader/optee-os-custom/ta/pkcs11/src/attributes.c:186
     210:	2e00      	cmp	r6, #0
     212:	d1f3      	bne.n	1fc <get_attribute+0x30>
     214:	e7ee      	b.n	1f4 <get_attribute+0x28>

00000216 <set_attribute>:
set_attribute():
/home/aom1/Work/Linux/target/STM32MP1-DK2/bootloader/optee-os-custom/ta/pkcs11/src/attributes.c:197
     216:	e92d 41f0 	stmdb	sp!, {r4, r5, r6, r7, r8, lr}
     21a:	4604      	mov	r4, r0
/home/aom1/Work/Linux/target/STM32MP1-DK2/bootloader/optee-os-custom/ta/pkcs11/src/attributes.c:200
     21c:	6800      	ldr	r0, [r0, #0]
/home/aom1/Work/Linux/target/STM32MP1-DK2/bootloader/optee-os-custom/ta/pkcs11/src/attributes.c:197
     21e:	4616      	mov	r6, r2
/home/aom1/Work/Linux/target/STM32MP1-DK2/bootloader/optee-os-custom/ta/pkcs11/src/attributes.c:200
     220:	2200      	movs	r2, #0
/home/aom1/Work/Linux/target/STM32MP1-DK2/bootloader/optee-os-custom/ta/pkcs11/src/attributes.c:197
     222:	461f      	mov	r7, r3
     224:	460d      	mov	r5, r1
/home/aom1/Work/Linux/target/STM32MP1-DK2/bootloader/optee-os-custom/ta/pkcs11/src/attributes.c:200
     226:	f7ff fefb 	bl	20 <_remove_attribute.isra.0>
/home/aom1/Work/Linux/target/STM32MP1-DK2/bootloader/optee-os-custom/ta/pkcs11/src/attributes.c:201
     22a:	f030 4300 	bics.w	r3, r0, #2147483648	; 0x80000000
     22e:	d107      	bne.n	240 <set_attribute+0x2a>
/home/aom1/Work/Linux/target/STM32MP1-DK2/bootloader/optee-os-custom/ta/pkcs11/src/attributes.c:204
     230:	463b      	mov	r3, r7
     232:	4632      	mov	r2, r6
     234:	4629      	mov	r1, r5
     236:	4620      	mov	r0, r4
/home/aom1/Work/Linux/target/STM32MP1-DK2/bootloader/optee-os-custom/ta/pkcs11/src/attributes.c:205
     238:	e8bd 41f0 	ldmia.w	sp!, {r4, r5, r6, r7, r8, lr}
/home/aom1/Work/Linux/target/STM32MP1-DK2/bootloader/optee-os-custom/ta/pkcs11/src/attributes.c:204
     23c:	f7ff bf38 	b.w	b0 <add_attribute>
/home/aom1/Work/Linux/target/STM32MP1-DK2/bootloader/optee-os-custom/ta/pkcs11/src/attributes.c:205
     240:	e8bd 81f0 	ldmia.w	sp!, {r4, r5, r6, r7, r8, pc}

00000244 <modify_attributes_list>:
modify_attributes_list():
/home/aom1/Work/Linux/target/STM32MP1-DK2/bootloader/optee-os-custom/ta/pkcs11/src/attributes.c:209
     244:	e92d 41f0 	stmdb	sp!, {r4, r5, r6, r7, r8, lr}
/home/aom1/Work/Linux/target/STM32MP1-DK2/bootloader/optee-os-custom/ta/pkcs11/src/attributes.c:210
     248:	460c      	mov	r4, r1
/home/aom1/Work/Linux/target/STM32MP1-DK2/bootloader/optee-os-custom/ta/pkcs11/src/attributes.c:209
     24a:	ed2d 8b02 	vpush	{d8}
/home/aom1/Work/Linux/target/STM32MP1-DK2/bootloader/optee-os-custom/ta/pkcs11/src/attributes.c:211
     24e:	f854 5b08 	ldr.w	r5, [r4], #8
/home/aom1/Work/Linux/target/STM32MP1-DK2/bootloader/optee-os-custom/ta/pkcs11/src/attributes.c:209
     252:	b082      	sub	sp, #8
/home/aom1/Work/Linux/target/STM32MP1-DK2/bootloader/optee-os-custom/ta/pkcs11/src/attributes.c:218
     254:	ef80 8010 	vmov.i32	d8, #0	; 0x00000000
/home/aom1/Work/Linux/target/STM32MP1-DK2/bootloader/optee-os-custom/ta/pkcs11/src/attributes.c:211
     258:	4425      	add	r5, r4
/home/aom1/Work/Linux/target/STM32MP1-DK2/bootloader/optee-os-custom/ta/pkcs11/src/attributes.c:209
     25a:	4606      	mov	r6, r0
/home/aom1/Work/Linux/target/STM32MP1-DK2/bootloader/optee-os-custom/ta/pkcs11/src/attributes.c:218
     25c:	466f      	mov	r7, sp
/home/aom1/Work/Linux/target/STM32MP1-DK2/bootloader/optee-os-custom/ta/pkcs11/src/attributes.c:215 (discriminator 1)
     25e:	42ac      	cmp	r4, r5
     260:	d305      	bcc.n	26e <modify_attributes_list+0x2a>
/home/aom1/Work/Linux/target/STM32MP1-DK2/bootloader/optee-os-custom/ta/pkcs11/src/attributes.c:230
     262:	2000      	movs	r0, #0
/home/aom1/Work/Linux/target/STM32MP1-DK2/bootloader/optee-os-custom/ta/pkcs11/src/attributes.c:231
     264:	b002      	add	sp, #8
     266:	ecbd 8b02 	vpop	{d8}
     26a:	e8bd 81f0 	ldmia.w	sp!, {r4, r5, r6, r7, r8, pc}
/home/aom1/Work/Linux/target/STM32MP1-DK2/bootloader/optee-os-custom/ta/pkcs11/src/attributes.c:220
     26e:	4621      	mov	r1, r4
     270:	2208      	movs	r2, #8
     272:	4638      	mov	r0, r7
/home/aom1/Work/Linux/target/STM32MP1-DK2/bootloader/optee-os-custom/ta/pkcs11/src/attributes.c:218
     274:	ed87 8b00 	vstr	d8, [r7]
/home/aom1/Work/Linux/target/STM32MP1-DK2/bootloader/optee-os-custom/ta/pkcs11/src/attributes.c:220
     278:	f00a f8f0 	bl	a45c <TEE_MemMove>
/home/aom1/Work/Linux/target/STM32MP1-DK2/bootloader/optee-os-custom/ta/pkcs11/src/attributes.c:221
     27c:	9b01      	ldr	r3, [sp, #4]
/home/aom1/Work/Linux/target/STM32MP1-DK2/bootloader/optee-os-custom/ta/pkcs11/src/attributes.c:223
     27e:	9900      	ldr	r1, [sp, #0]
/home/aom1/Work/Linux/target/STM32MP1-DK2/bootloader/optee-os-custom/ta/pkcs11/src/attributes.c:221
     280:	f103 0808 	add.w	r8, r3, #8
/home/aom1/Work/Linux/target/STM32MP1-DK2/bootloader/optee-os-custom/ta/pkcs11/src/attributes.c:223
     284:	b143      	cbz	r3, 298 <modify_attributes_list+0x54>
/home/aom1/Work/Linux/target/STM32MP1-DK2/bootloader/optee-os-custom/ta/pkcs11/src/attributes.c:223 (discriminator 1)
     286:	f104 0208 	add.w	r2, r4, #8
/home/aom1/Work/Linux/target/STM32MP1-DK2/bootloader/optee-os-custom/ta/pkcs11/src/attributes.c:223 (discriminator 4)
     28a:	4630      	mov	r0, r6
     28c:	f7ff ffc3 	bl	216 <set_attribute>
/home/aom1/Work/Linux/target/STM32MP1-DK2/bootloader/optee-os-custom/ta/pkcs11/src/attributes.c:226 (discriminator 4)
     290:	2800      	cmp	r0, #0
     292:	d1e7      	bne.n	264 <modify_attributes_list+0x20>
/home/aom1/Work/Linux/target/STM32MP1-DK2/bootloader/optee-os-custom/ta/pkcs11/src/attributes.c:215
     294:	4444      	add	r4, r8
     296:	e7e2      	b.n	25e <modify_attributes_list+0x1a>
/home/aom1/Work/Linux/target/STM32MP1-DK2/bootloader/optee-os-custom/ta/pkcs11/src/attributes.c:223
     298:	461a      	mov	r2, r3
     29a:	e7f6      	b.n	28a <modify_attributes_list+0x46>

0000029c <get_bool>:
get_bool():
/home/aom1/Work/Linux/target/STM32MP1-DK2/bootloader/optee-os-custom/ta/pkcs11/src/attributes.c:237
     29c:	2301      	movs	r3, #1
/home/aom1/Work/Linux/target/STM32MP1-DK2/bootloader/optee-os-custom/ta/pkcs11/src/attributes.c:234
     29e:	b513      	push	{r0, r1, r4, lr}
/home/aom1/Work/Linux/target/STM32MP1-DK2/bootloader/optee-os-custom/ta/pkcs11/src/attributes.c:236
     2a0:	2400      	movs	r4, #0
/home/aom1/Work/Linux/target/STM32MP1-DK2/bootloader/optee-os-custom/ta/pkcs11/src/attributes.c:237
     2a2:	9301      	str	r3, [sp, #4]
/home/aom1/Work/Linux/target/STM32MP1-DK2/bootloader/optee-os-custom/ta/pkcs11/src/attributes.c:239
     2a4:	f10d 0203 	add.w	r2, sp, #3
/home/aom1/Work/Linux/target/STM32MP1-DK2/bootloader/optee-os-custom/ta/pkcs11/src/attributes.c:236
     2a8:	f88d 4003 	strb.w	r4, [sp, #3]
/home/aom1/Work/Linux/target/STM32MP1-DK2/bootloader/optee-os-custom/ta/pkcs11/src/attributes.c:239
     2ac:	ab01      	add	r3, sp, #4
     2ae:	f7ff ff8d 	bl	1cc <get_attribute>
/home/aom1/Work/Linux/target/STM32MP1-DK2/bootloader/optee-os-custom/ta/pkcs11/src/attributes.c:241
     2b2:	f1b0 4f00 	cmp.w	r0, #2147483648	; 0x80000000
     2b6:	d012      	beq.n	2de <get_bool+0x42>
/home/aom1/Work/Linux/target/STM32MP1-DK2/bootloader/optee-os-custom/ta/pkcs11/src/attributes.c:244
     2b8:	b150      	cbz	r0, 2d0 <get_bool+0x34>
/home/aom1/Work/Linux/target/STM32MP1-DK2/bootloader/optee-os-custom/ta/pkcs11/src/attributes.c:244 (discriminator 1)
     2ba:	4b0a      	ldr	r3, [pc, #40]	; (2e4 <get_bool+0x48>)
     2bc:	22f4      	movs	r2, #244	; 0xf4
     2be:	490a      	ldr	r1, [pc, #40]	; (2e8 <get_bool+0x4c>)
     2c0:	480a      	ldr	r0, [pc, #40]	; (2ec <get_bool+0x50>)
     2c2:	447b      	add	r3, pc
     2c4:	4479      	add	r1, pc
     2c6:	4478      	add	r0, pc
     2c8:	f009 fe22 	bl	9f10 <_assert_log>
     2cc:	f009 fe34 	bl	9f38 <_assert_break>
/home/aom1/Work/Linux/target/STM32MP1-DK2/bootloader/optee-os-custom/ta/pkcs11/src/attributes.c:245 (discriminator 2)
     2d0:	f89d 0003 	ldrb.w	r0, [sp, #3]
     2d4:	3800      	subs	r0, #0
     2d6:	bf18      	it	ne
     2d8:	2001      	movne	r0, #1
/home/aom1/Work/Linux/target/STM32MP1-DK2/bootloader/optee-os-custom/ta/pkcs11/src/attributes.c:246
     2da:	b002      	add	sp, #8
     2dc:	bd10      	pop	{r4, pc}
/home/aom1/Work/Linux/target/STM32MP1-DK2/bootloader/optee-os-custom/ta/pkcs11/src/attributes.c:242
     2de:	4620      	mov	r0, r4
     2e0:	e7fb      	b.n	2da <get_bool+0x3e>
     2e2:	bf00      	nop
     2e4:	000133b2 	.word	0x000133b2
     2e8:	0001333c 	.word	0x0001333c
     2ec:	00013355 	.word	0x00013355

000002f0 <attributes_match_reference>:
attributes_match_reference():
/home/aom1/Work/Linux/target/STM32MP1-DK2/bootloader/optee-os-custom/ta/pkcs11/src/attributes.c:255
     2f0:	684b      	ldr	r3, [r1, #4]
/home/aom1/Work/Linux/target/STM32MP1-DK2/bootloader/optee-os-custom/ta/pkcs11/src/attributes.c:250
     2f2:	e92d 43f0 	stmdb	sp!, {r4, r5, r6, r7, r8, r9, lr}
     2f6:	4607      	mov	r7, r0
     2f8:	ed2d 8b02 	vpush	{d8}
     2fc:	460c      	mov	r4, r1
     2fe:	b085      	sub	sp, #20
/home/aom1/Work/Linux/target/STM32MP1-DK2/bootloader/optee-os-custom/ta/pkcs11/src/attributes.c:255
     300:	b38b      	cbz	r3, 366 <attributes_match_reference+0x76>
/home/aom1/Work/Linux/target/STM32MP1-DK2/bootloader/optee-os-custom/ta/pkcs11/src/attributes.c:261
     302:	ef80 8010 	vmov.i32	d8, #0	; 0x00000000
/home/aom1/Work/Linux/target/STM32MP1-DK2/bootloader/optee-os-custom/ta/pkcs11/src/attributes.c:260
     306:	2500      	movs	r5, #0
/home/aom1/Work/Linux/target/STM32MP1-DK2/bootloader/optee-os-custom/ta/pkcs11/src/attributes.c:252
     308:	f101 0608 	add.w	r6, r1, #8
/home/aom1/Work/Linux/target/STM32MP1-DK2/bootloader/optee-os-custom/ta/pkcs11/src/attributes.c:261
     30c:	f10d 0808 	add.w	r8, sp, #8
/home/aom1/Work/Linux/target/STM32MP1-DK2/bootloader/optee-os-custom/ta/pkcs11/src/attributes.c:262
     310:	46a9      	mov	r9, r5
/home/aom1/Work/Linux/target/STM32MP1-DK2/bootloader/optee-os-custom/ta/pkcs11/src/attributes.c:265
     312:	2208      	movs	r2, #8
     314:	4631      	mov	r1, r6
     316:	4640      	mov	r0, r8
/home/aom1/Work/Linux/target/STM32MP1-DK2/bootloader/optee-os-custom/ta/pkcs11/src/attributes.c:261
     318:	ed88 8b00 	vstr	d8, [r8]
/home/aom1/Work/Linux/target/STM32MP1-DK2/bootloader/optee-os-custom/ta/pkcs11/src/attributes.c:263
     31c:	e9cd 9900 	strd	r9, r9, [sp]
/home/aom1/Work/Linux/target/STM32MP1-DK2/bootloader/optee-os-custom/ta/pkcs11/src/attributes.c:265
     320:	f00a f89c 	bl	a45c <TEE_MemMove>
/home/aom1/Work/Linux/target/STM32MP1-DK2/bootloader/optee-os-custom/ta/pkcs11/src/attributes.c:267
     324:	9902      	ldr	r1, [sp, #8]
     326:	ab01      	add	r3, sp, #4
     328:	466a      	mov	r2, sp
     32a:	4638      	mov	r0, r7
     32c:	f7ff ff3c 	bl	1a8 <get_attribute_ptr>
/home/aom1/Work/Linux/target/STM32MP1-DK2/bootloader/optee-os-custom/ta/pkcs11/src/attributes.c:269
     330:	b128      	cbz	r0, 33e <attributes_match_reference+0x4e>
/home/aom1/Work/Linux/target/STM32MP1-DK2/bootloader/optee-os-custom/ta/pkcs11/src/attributes.c:271
     332:	2000      	movs	r0, #0
/home/aom1/Work/Linux/target/STM32MP1-DK2/bootloader/optee-os-custom/ta/pkcs11/src/attributes.c:277
     334:	b005      	add	sp, #20
     336:	ecbd 8b02 	vpop	{d8}
     33a:	e8bd 83f0 	ldmia.w	sp!, {r4, r5, r6, r7, r8, r9, pc}
/home/aom1/Work/Linux/target/STM32MP1-DK2/bootloader/optee-os-custom/ta/pkcs11/src/attributes.c:269 (discriminator 1)
     33e:	9900      	ldr	r1, [sp, #0]
     340:	2900      	cmp	r1, #0
     342:	d0f6      	beq.n	332 <attributes_match_reference+0x42>
/home/aom1/Work/Linux/target/STM32MP1-DK2/bootloader/optee-os-custom/ta/pkcs11/src/attributes.c:269 (discriminator 2)
     344:	9a03      	ldr	r2, [sp, #12]
     346:	9b01      	ldr	r3, [sp, #4]
     348:	429a      	cmp	r2, r3
     34a:	d1f2      	bne.n	332 <attributes_match_reference+0x42>
/home/aom1/Work/Linux/target/STM32MP1-DK2/bootloader/optee-os-custom/ta/pkcs11/src/attributes.c:270 (discriminator 3)
     34c:	f106 0008 	add.w	r0, r6, #8
     350:	f00a f886 	bl	a460 <TEE_MemCompare>
/home/aom1/Work/Linux/target/STM32MP1-DK2/bootloader/optee-os-custom/ta/pkcs11/src/attributes.c:269 (discriminator 3)
     354:	2800      	cmp	r0, #0
     356:	d1ec      	bne.n	332 <attributes_match_reference+0x42>
/home/aom1/Work/Linux/target/STM32MP1-DK2/bootloader/optee-os-custom/ta/pkcs11/src/attributes.c:273
     358:	9b03      	ldr	r3, [sp, #12]
/home/aom1/Work/Linux/target/STM32MP1-DK2/bootloader/optee-os-custom/ta/pkcs11/src/attributes.c:260
     35a:	3501      	adds	r5, #1
/home/aom1/Work/Linux/target/STM32MP1-DK2/bootloader/optee-os-custom/ta/pkcs11/src/attributes.c:273
     35c:	3308      	adds	r3, #8
     35e:	441e      	add	r6, r3
/home/aom1/Work/Linux/target/STM32MP1-DK2/bootloader/optee-os-custom/ta/pkcs11/src/attributes.c:260
     360:	6863      	ldr	r3, [r4, #4]
     362:	42ab      	cmp	r3, r5
     364:	d8d5      	bhi.n	312 <attributes_match_reference+0x22>
/home/aom1/Work/Linux/target/STM32MP1-DK2/bootloader/optee-os-custom/ta/pkcs11/src/attributes.c:257
     366:	2001      	movs	r0, #1
     368:	e7e4      	b.n	334 <attributes_match_reference+0x44>

0000036a <attributes_match_add_reference>:
attributes_match_add_reference():
/home/aom1/Work/Linux/target/STM32MP1-DK2/bootloader/optee-os-custom/ta/pkcs11/src/attributes.c:286
     36a:	684b      	ldr	r3, [r1, #4]
/home/aom1/Work/Linux/target/STM32MP1-DK2/bootloader/optee-os-custom/ta/pkcs11/src/attributes.c:281
     36c:	e92d 43f0 	stmdb	sp!, {r4, r5, r6, r7, r8, r9, lr}
     370:	4607      	mov	r7, r0
     372:	ed2d 8b02 	vpush	{d8}
     376:	460d      	mov	r5, r1
     378:	b085      	sub	sp, #20
/home/aom1/Work/Linux/target/STM32MP1-DK2/bootloader/optee-os-custom/ta/pkcs11/src/attributes.c:286
     37a:	b92b      	cbnz	r3, 388 <attributes_match_add_reference+0x1e>
/home/aom1/Work/Linux/target/STM32MP1-DK2/bootloader/optee-os-custom/ta/pkcs11/src/attributes.c:287
     37c:	2000      	movs	r0, #0
/home/aom1/Work/Linux/target/STM32MP1-DK2/bootloader/optee-os-custom/ta/pkcs11/src/attributes.c:314
     37e:	b005      	add	sp, #20
     380:	ecbd 8b02 	vpop	{d8}
     384:	e8bd 83f0 	ldmia.w	sp!, {r4, r5, r6, r7, r8, r9, pc}
/home/aom1/Work/Linux/target/STM32MP1-DK2/bootloader/optee-os-custom/ta/pkcs11/src/attributes.c:290
     388:	ef80 8010 	vmov.i32	d8, #0	; 0x00000000
/home/aom1/Work/Linux/target/STM32MP1-DK2/bootloader/optee-os-custom/ta/pkcs11/src/attributes.c:289
     38c:	2600      	movs	r6, #0
/home/aom1/Work/Linux/target/STM32MP1-DK2/bootloader/optee-os-custom/ta/pkcs11/src/attributes.c:283
     38e:	f101 0408 	add.w	r4, r1, #8
/home/aom1/Work/Linux/target/STM32MP1-DK2/bootloader/optee-os-custom/ta/pkcs11/src/attributes.c:290
     392:	f10d 0808 	add.w	r8, sp, #8
/home/aom1/Work/Linux/target/STM32MP1-DK2/bootloader/optee-os-custom/ta/pkcs11/src/attributes.c:291
     396:	46b1      	mov	r9, r6
/home/aom1/Work/Linux/target/STM32MP1-DK2/bootloader/optee-os-custom/ta/pkcs11/src/attributes.c:294
     398:	2208      	movs	r2, #8
     39a:	4621      	mov	r1, r4
     39c:	4640      	mov	r0, r8
/home/aom1/Work/Linux/target/STM32MP1-DK2/bootloader/optee-os-custom/ta/pkcs11/src/attributes.c:290
     39e:	ed88 8b00 	vstr	d8, [r8]
/home/aom1/Work/Linux/target/STM32MP1-DK2/bootloader/optee-os-custom/ta/pkcs11/src/attributes.c:292
     3a2:	e9cd 9900 	strd	r9, r9, [sp]
/home/aom1/Work/Linux/target/STM32MP1-DK2/bootloader/optee-os-custom/ta/pkcs11/src/attributes.c:294
     3a6:	f00a f859 	bl	a45c <TEE_MemMove>
/home/aom1/Work/Linux/target/STM32MP1-DK2/bootloader/optee-os-custom/ta/pkcs11/src/attributes.c:296
     3aa:	9902      	ldr	r1, [sp, #8]
     3ac:	ab01      	add	r3, sp, #4
     3ae:	6838      	ldr	r0, [r7, #0]
     3b0:	466a      	mov	r2, sp
     3b2:	f7ff fef9 	bl	1a8 <get_attribute_ptr>
/home/aom1/Work/Linux/target/STM32MP1-DK2/bootloader/optee-os-custom/ta/pkcs11/src/attributes.c:297
     3b6:	f1b0 4f00 	cmp.w	r0, #2147483648	; 0x80000000
     3ba:	d110      	bne.n	3de <attributes_match_add_reference+0x74>
/home/aom1/Work/Linux/target/STM32MP1-DK2/bootloader/optee-os-custom/ta/pkcs11/src/attributes.c:298
     3bc:	9b03      	ldr	r3, [sp, #12]
     3be:	f104 0208 	add.w	r2, r4, #8
     3c2:	9902      	ldr	r1, [sp, #8]
     3c4:	4638      	mov	r0, r7
     3c6:	f7ff fe73 	bl	b0 <add_attribute>
/home/aom1/Work/Linux/target/STM32MP1-DK2/bootloader/optee-os-custom/ta/pkcs11/src/attributes.c:301
     3ca:	2800      	cmp	r0, #0
     3cc:	d1d7      	bne.n	37e <attributes_match_add_reference+0x14>
/home/aom1/Work/Linux/target/STM32MP1-DK2/bootloader/optee-os-custom/ta/pkcs11/src/attributes.c:310
     3ce:	9b03      	ldr	r3, [sp, #12]
/home/aom1/Work/Linux/target/STM32MP1-DK2/bootloader/optee-os-custom/ta/pkcs11/src/attributes.c:289
     3d0:	3601      	adds	r6, #1
/home/aom1/Work/Linux/target/STM32MP1-DK2/bootloader/optee-os-custom/ta/pkcs11/src/attributes.c:310
     3d2:	3308      	adds	r3, #8
     3d4:	441c      	add	r4, r3
/home/aom1/Work/Linux/target/STM32MP1-DK2/bootloader/optee-os-custom/ta/pkcs11/src/attributes.c:289
     3d6:	686b      	ldr	r3, [r5, #4]
     3d8:	42b3      	cmp	r3, r6
     3da:	d8dd      	bhi.n	398 <attributes_match_add_reference+0x2e>
     3dc:	e7ce      	b.n	37c <attributes_match_add_reference+0x12>
/home/aom1/Work/Linux/target/STM32MP1-DK2/bootloader/optee-os-custom/ta/pkcs11/src/attributes.c:304
     3de:	b108      	cbz	r0, 3e4 <attributes_match_add_reference+0x7a>
/home/aom1/Work/Linux/target/STM32MP1-DK2/bootloader/optee-os-custom/ta/pkcs11/src/attributes.c:307
     3e0:	20d1      	movs	r0, #209	; 0xd1
     3e2:	e7cc      	b.n	37e <attributes_match_add_reference+0x14>
/home/aom1/Work/Linux/target/STM32MP1-DK2/bootloader/optee-os-custom/ta/pkcs11/src/attributes.c:304 (discriminator 1)
     3e4:	9900      	ldr	r1, [sp, #0]
     3e6:	2900      	cmp	r1, #0
     3e8:	d0fa      	beq.n	3e0 <attributes_match_add_reference+0x76>
/home/aom1/Work/Linux/target/STM32MP1-DK2/bootloader/optee-os-custom/ta/pkcs11/src/attributes.c:304 (discriminator 2)
     3ea:	9a03      	ldr	r2, [sp, #12]
     3ec:	9b01      	ldr	r3, [sp, #4]
     3ee:	429a      	cmp	r2, r3
     3f0:	d1f6      	bne.n	3e0 <attributes_match_add_reference+0x76>
/home/aom1/Work/Linux/target/STM32MP1-DK2/bootloader/optee-os-custom/ta/pkcs11/src/attributes.c:305 (discriminator 3)
     3f2:	f104 0008 	add.w	r0, r4, #8
     3f6:	f00a f833 	bl	a460 <TEE_MemCompare>
/home/aom1/Work/Linux/target/STM32MP1-DK2/bootloader/optee-os-custom/ta/pkcs11/src/attributes.c:304 (discriminator 3)
     3fa:	2800      	cmp	r0, #0
     3fc:	d0e7      	beq.n	3ce <attributes_match_add_reference+0x64>
     3fe:	e7ef      	b.n	3e0 <attributes_match_add_reference+0x76>

00000400 <trace_attributes>:
trace_attributes():
/home/aom1/Work/Linux/target/STM32MP1-DK2/bootloader/optee-os-custom/ta/pkcs11/src/attributes.c:427
     400:	e92d 4ff0 	stmdb	sp!, {r4, r5, r6, r7, r8, r9, sl, fp, lr}
/home/aom1/Work/Linux/target/STM32MP1-DK2/bootloader/optee-os-custom/ta/pkcs11/src/attributes.c:431
     404:	2208      	movs	r2, #8
/home/aom1/Work/Linux/target/STM32MP1-DK2/bootloader/optee-os-custom/ta/pkcs11/src/attributes.c:427
     406:	ed2d 8b02 	vpush	{d8}
/home/aom1/Work/Linux/target/STM32MP1-DK2/bootloader/optee-os-custom/ta/pkcs11/src/attributes.c:428
     40a:	ef80 8010 	vmov.i32	d8, #0	; 0x00000000
/home/aom1/Work/Linux/target/STM32MP1-DK2/bootloader/optee-os-custom/ta/pkcs11/src/attributes.c:427
     40e:	b089      	sub	sp, #36	; 0x24
     410:	4604      	mov	r4, r0
/home/aom1/Work/Linux/target/STM32MP1-DK2/bootloader/optee-os-custom/ta/pkcs11/src/attributes.c:431
     412:	a804      	add	r0, sp, #16
/home/aom1/Work/Linux/target/STM32MP1-DK2/bootloader/optee-os-custom/ta/pkcs11/src/attributes.c:427
     414:	460f      	mov	r7, r1
/home/aom1/Work/Linux/target/STM32MP1-DK2/bootloader/optee-os-custom/ta/pkcs11/src/attributes.c:428
     416:	ed8d 8b04 	vstr	d8, [sp, #16]
/home/aom1/Work/Linux/target/STM32MP1-DK2/bootloader/optee-os-custom/ta/pkcs11/src/attributes.c:431
     41a:	f00a f81f 	bl	a45c <TEE_MemMove>
/home/aom1/Work/Linux/target/STM32MP1-DK2/bootloader/optee-os-custom/ta/pkcs11/src/attributes.c:433
     41e:	9b05      	ldr	r3, [sp, #20]
     420:	b1b3      	cbz	r3, 450 <trace_attributes+0x50>
/home/aom1/Work/Linux/target/STM32MP1-DK2/bootloader/optee-os-custom/ta/pkcs11/src/attributes.c:436
     422:	b1d4      	cbz	r4, 45a <trace_attributes+0x5a>
/home/aom1/Work/Linux/target/STM32MP1-DK2/bootloader/optee-os-custom/ta/pkcs11/src/attributes.c:436 (discriminator 1)
     424:	4620      	mov	r0, r4
     426:	f012 f967 	bl	126f8 <strlen>
     42a:	3002      	adds	r0, #2
/home/aom1/Work/Linux/target/STM32MP1-DK2/bootloader/optee-os-custom/ta/pkcs11/src/attributes.c:436 (discriminator 4)
     42c:	2100      	movs	r1, #0
     42e:	f00a f872 	bl	a516 <TEE_Malloc>
/home/aom1/Work/Linux/target/STM32MP1-DK2/bootloader/optee-os-custom/ta/pkcs11/src/attributes.c:437 (discriminator 4)
     432:	4605      	mov	r5, r0
     434:	b998      	cbnz	r0, 45e <trace_attributes+0x5e>
/home/aom1/Work/Linux/target/STM32MP1-DK2/bootloader/optee-os-custom/ta/pkcs11/src/attributes.c:438
     436:	4b3f      	ldr	r3, [pc, #252]	; (534 <trace_attributes+0x134>)
     438:	f44f 71db 	mov.w	r1, #438	; 0x1b6
     43c:	483e      	ldr	r0, [pc, #248]	; (538 <trace_attributes+0x138>)
     43e:	447b      	add	r3, pc
     440:	4478      	add	r0, pc
     442:	9300      	str	r3, [sp, #0]
     444:	2301      	movs	r3, #1
     446:	9401      	str	r4, [sp, #4]
     448:	461a      	mov	r2, r3
     44a:	3009      	adds	r0, #9
     44c:	f009 fd3a 	bl	9ec4 <trace_printf>
/home/aom1/Work/Linux/target/STM32MP1-DK2/bootloader/optee-os-custom/ta/pkcs11/src/attributes.c:456
     450:	b009      	add	sp, #36	; 0x24
     452:	ecbd 8b02 	vpop	{d8}
     456:	e8bd 8ff0 	ldmia.w	sp!, {r4, r5, r6, r7, r8, r9, sl, fp, pc}
/home/aom1/Work/Linux/target/STM32MP1-DK2/bootloader/optee-os-custom/ta/pkcs11/src/attributes.c:436
     45a:	2002      	movs	r0, #2
     45c:	e7e6      	b.n	42c <trace_attributes+0x2c>
/home/aom1/Work/Linux/target/STM32MP1-DK2/bootloader/optee-os-custom/ta/pkcs11/src/attributes.c:442
     45e:	b15c      	cbz	r4, 478 <trace_attributes+0x78>
/home/aom1/Work/Linux/target/STM32MP1-DK2/bootloader/optee-os-custom/ta/pkcs11/src/attributes.c:443
     460:	4620      	mov	r0, r4
     462:	f012 f949 	bl	126f8 <strlen>
     466:	4602      	mov	r2, r0
     468:	4621      	mov	r1, r4
     46a:	4628      	mov	r0, r5
     46c:	f009 fff6 	bl	a45c <TEE_MemMove>
/home/aom1/Work/Linux/target/STM32MP1-DK2/bootloader/optee-os-custom/ta/pkcs11/src/attributes.c:449
     470:	4620      	mov	r0, r4
     472:	f012 f941 	bl	126f8 <strlen>
     476:	4604      	mov	r4, r0
/home/aom1/Work/Linux/target/STM32MP1-DK2/bootloader/optee-os-custom/ta/pkcs11/src/attributes.c:449 (discriminator 4)
     478:	237c      	movs	r3, #124	; 0x7c
__trace_attributes():
/home/aom1/Work/Linux/target/STM32MP1-DK2/bootloader/optee-os-custom/ta/pkcs11/src/attributes.c:332 (discriminator 4)
     47a:	4628      	mov	r0, r5
trace_attributes():
/home/aom1/Work/Linux/target/STM32MP1-DK2/bootloader/optee-os-custom/ta/pkcs11/src/attributes.c:449 (discriminator 4)
     47c:	552b      	strb	r3, [r5, r4]
/home/aom1/Work/Linux/target/STM32MP1-DK2/bootloader/optee-os-custom/ta/pkcs11/src/attributes.c:451 (discriminator 4)
     47e:	f8dd 9010 	ldr.w	r9, [sp, #16]
__trace_attributes():
/home/aom1/Work/Linux/target/STM32MP1-DK2/bootloader/optee-os-custom/ta/pkcs11/src/attributes.c:332 (discriminator 4)
     482:	f012 f939 	bl	126f8 <strlen>
     486:	4604      	mov	r4, r0
/home/aom1/Work/Linux/target/STM32MP1-DK2/bootloader/optee-os-custom/ta/pkcs11/src/attributes.c:336 (discriminator 4)
     488:	2100      	movs	r1, #0
     48a:	3005      	adds	r0, #5
     48c:	f00a f843 	bl	a516 <TEE_Malloc>
/home/aom1/Work/Linux/target/STM32MP1-DK2/bootloader/optee-os-custom/ta/pkcs11/src/attributes.c:337 (discriminator 4)
     490:	4606      	mov	r6, r0
     492:	b328      	cbz	r0, 4e0 <trace_attributes+0xe0>
/home/aom1/Work/Linux/target/STM32MP1-DK2/bootloader/optee-os-custom/ta/pkcs11/src/attributes.c:340
     494:	1c62      	adds	r2, r4, #1
trace_attributes():
/home/aom1/Work/Linux/target/STM32MP1-DK2/bootloader/optee-os-custom/ta/pkcs11/src/attributes.c:451
     496:	f109 0908 	add.w	r9, r9, #8
__trace_attributes():
/home/aom1/Work/Linux/target/STM32MP1-DK2/bootloader/optee-os-custom/ta/pkcs11/src/attributes.c:341
     49a:	4434      	add	r4, r6
/home/aom1/Work/Linux/target/STM32MP1-DK2/bootloader/optee-os-custom/ta/pkcs11/src/attributes.c:340
     49c:	4629      	mov	r1, r5
trace_attributes():
/home/aom1/Work/Linux/target/STM32MP1-DK2/bootloader/optee-os-custom/ta/pkcs11/src/attributes.c:450
     49e:	f107 0808 	add.w	r8, r7, #8
__trace_attributes():
/home/aom1/Work/Linux/target/STM32MP1-DK2/bootloader/optee-os-custom/ta/pkcs11/src/attributes.c:340
     4a2:	f009 ffdb 	bl	a45c <TEE_MemMove>
trace_attributes():
/home/aom1/Work/Linux/target/STM32MP1-DK2/bootloader/optee-os-custom/ta/pkcs11/src/attributes.c:450
     4a6:	444f      	add	r7, r9
__trace_attributes():
/home/aom1/Work/Linux/target/STM32MP1-DK2/bootloader/optee-os-custom/ta/pkcs11/src/attributes.c:341
     4a8:	4620      	mov	r0, r4
     4aa:	2204      	movs	r2, #4
     4ac:	2120      	movs	r1, #32
/home/aom1/Work/Linux/target/STM32MP1-DK2/bootloader/optee-os-custom/ta/pkcs11/src/attributes.c:342
     4ae:	f04f 0900 	mov.w	r9, #0
/home/aom1/Work/Linux/target/STM32MP1-DK2/bootloader/optee-os-custom/ta/pkcs11/src/attributes.c:341
     4b2:	f009 ffd7 	bl	a464 <TEE_MemFill>
/home/aom1/Work/Linux/target/STM32MP1-DK2/bootloader/optee-os-custom/ta/pkcs11/src/attributes.c:342
     4b6:	f884 9004 	strb.w	r9, [r4, #4]
/home/aom1/Work/Linux/target/STM32MP1-DK2/bootloader/optee-os-custom/ta/pkcs11/src/attributes.c:345
     4ba:	ac06      	add	r4, sp, #24
/home/aom1/Work/Linux/target/STM32MP1-DK2/bootloader/optee-os-custom/ta/pkcs11/src/attributes.c:344
     4bc:	4547      	cmp	r7, r8
     4be:	d813      	bhi.n	4e8 <trace_attributes+0xe8>
/home/aom1/Work/Linux/target/STM32MP1-DK2/bootloader/optee-os-custom/ta/pkcs11/src/attributes.c:420
     4c0:	d00b      	beq.n	4da <trace_attributes+0xda>
/home/aom1/Work/Linux/target/STM32MP1-DK2/bootloader/optee-os-custom/ta/pkcs11/src/attributes.c:421
     4c2:	4b1e      	ldr	r3, [pc, #120]	; (53c <trace_attributes+0x13c>)
     4c4:	f240 11a5 	movw	r1, #421	; 0x1a5
     4c8:	481d      	ldr	r0, [pc, #116]	; (540 <trace_attributes+0x140>)
     4ca:	447b      	add	r3, pc
     4cc:	4478      	add	r0, pc
     4ce:	9300      	str	r3, [sp, #0]
     4d0:	2301      	movs	r3, #1
     4d2:	461a      	mov	r2, r3
     4d4:	301a      	adds	r0, #26
     4d6:	f009 fcf5 	bl	9ec4 <trace_printf>
/home/aom1/Work/Linux/target/STM32MP1-DK2/bootloader/optee-os-custom/ta/pkcs11/src/attributes.c:423
     4da:	4630      	mov	r0, r6
     4dc:	f00a f844 	bl	a568 <TEE_Free>
trace_attributes():
/home/aom1/Work/Linux/target/STM32MP1-DK2/bootloader/optee-os-custom/ta/pkcs11/src/attributes.c:455
     4e0:	4628      	mov	r0, r5
     4e2:	f00a f841 	bl	a568 <TEE_Free>
     4e6:	e7b3      	b.n	450 <trace_attributes+0x50>
__trace_attributes():
/home/aom1/Work/Linux/target/STM32MP1-DK2/bootloader/optee-os-custom/ta/pkcs11/src/attributes.c:346
     4e8:	f8cd 900c 	str.w	r9, [sp, #12]
/home/aom1/Work/Linux/target/STM32MP1-DK2/bootloader/optee-os-custom/ta/pkcs11/src/attributes.c:348
     4ec:	2208      	movs	r2, #8
     4ee:	4641      	mov	r1, r8
     4f0:	4620      	mov	r0, r4
/home/aom1/Work/Linux/target/STM32MP1-DK2/bootloader/optee-os-custom/ta/pkcs11/src/attributes.c:345
     4f2:	ed84 8b00 	vstr	d8, [r4]
/home/aom1/Work/Linux/target/STM32MP1-DK2/bootloader/optee-os-custom/ta/pkcs11/src/attributes.c:349
     4f6:	f108 0a08 	add.w	sl, r8, #8
/home/aom1/Work/Linux/target/STM32MP1-DK2/bootloader/optee-os-custom/ta/pkcs11/src/attributes.c:348
     4fa:	f009 ffaf 	bl	a45c <TEE_MemMove>
/home/aom1/Work/Linux/target/STM32MP1-DK2/bootloader/optee-os-custom/ta/pkcs11/src/attributes.c:349
     4fe:	9a07      	ldr	r2, [sp, #28]
     500:	4651      	mov	r1, sl
     502:	a803      	add	r0, sp, #12
     504:	2a04      	cmp	r2, #4
     506:	bf28      	it	cs
     508:	2204      	movcs	r2, #4
     50a:	f009 ffa7 	bl	a45c <TEE_MemMove>
/home/aom1/Work/Linux/target/STM32MP1-DK2/bootloader/optee-os-custom/ta/pkcs11/src/attributes.c:406
     50e:	9b06      	ldr	r3, [sp, #24]
     510:	f46f 7104 	mvn.w	r1, #528	; 0x210
/home/aom1/Work/Linux/target/STM32MP1-DK2/bootloader/optee-os-custom/ta/pkcs11/src/attributes.c:352
     514:	9a07      	ldr	r2, [sp, #28]
/home/aom1/Work/Linux/target/STM32MP1-DK2/bootloader/optee-os-custom/ta/pkcs11/src/attributes.c:406
     516:	f103 4340 	add.w	r3, r3, #3221225472	; 0xc0000000
     51a:	440b      	add	r3, r1
     51c:	2b02      	cmp	r3, #2
/home/aom1/Work/Linux/target/STM32MP1-DK2/bootloader/optee-os-custom/ta/pkcs11/src/attributes.c:352
     51e:	f102 0b08 	add.w	fp, r2, #8
/home/aom1/Work/Linux/target/STM32MP1-DK2/bootloader/optee-os-custom/ta/pkcs11/src/attributes.c:406
     522:	d804      	bhi.n	52e <trace_attributes+0x12e>
/home/aom1/Work/Linux/target/STM32MP1-DK2/bootloader/optee-os-custom/ta/pkcs11/src/attributes.c:410
     524:	b11a      	cbz	r2, 52e <trace_attributes+0x12e>
/home/aom1/Work/Linux/target/STM32MP1-DK2/bootloader/optee-os-custom/ta/pkcs11/src/attributes.c:411
     526:	4651      	mov	r1, sl
     528:	4630      	mov	r0, r6
     52a:	f7ff ff69 	bl	400 <trace_attributes>
/home/aom1/Work/Linux/target/STM32MP1-DK2/bootloader/optee-os-custom/ta/pkcs11/src/attributes.c:344
     52e:	44d8      	add	r8, fp
     530:	e7c4      	b.n	4bc <trace_attributes+0xbc>
     532:	bf00      	nop
     534:	000131f1 	.word	0x000131f1
     538:	00013234 	.word	0x00013234
     53c:	00013177 	.word	0x00013177
     540:	000131a8 	.word	0x000131a8

00000544 <TA_CreateEntryPoint>:
TA_CreateEntryPoint():
/home/aom1/Work/Linux/target/STM32MP1-DK2/bootloader/optee-os-custom/ta/pkcs11/src/entry.c:20
     544:	f003 bf86 	b.w	4454 <pkcs11_init>

00000548 <TA_DestroyEntryPoint>:
TA_DestroyEntryPoint():
/home/aom1/Work/Linux/target/STM32MP1-DK2/bootloader/optee-os-custom/ta/pkcs11/src/entry.c:25
     548:	f003 bf9a 	b.w	4480 <pkcs11_deinit>

0000054c <TA_OpenSessionEntryPoint>:
TA_OpenSessionEntryPoint():
/home/aom1/Work/Linux/target/STM32MP1-DK2/bootloader/optee-os-custom/ta/pkcs11/src/entry.c:31
     54c:	b510      	push	{r4, lr}
     54e:	4614      	mov	r4, r2
/home/aom1/Work/Linux/target/STM32MP1-DK2/bootloader/optee-os-custom/ta/pkcs11/src/entry.c:32
     550:	f003 ff24 	bl	439c <register_client>
/home/aom1/Work/Linux/target/STM32MP1-DK2/bootloader/optee-os-custom/ta/pkcs11/src/entry.c:34
     554:	b110      	cbz	r0, 55c <TA_OpenSessionEntryPoint+0x10>
/home/aom1/Work/Linux/target/STM32MP1-DK2/bootloader/optee-os-custom/ta/pkcs11/src/entry.c:37
     556:	6020      	str	r0, [r4, #0]
/home/aom1/Work/Linux/target/STM32MP1-DK2/bootloader/optee-os-custom/ta/pkcs11/src/entry.c:39
     558:	2000      	movs	r0, #0
/home/aom1/Work/Linux/target/STM32MP1-DK2/bootloader/optee-os-custom/ta/pkcs11/src/entry.c:40
     55a:	bd10      	pop	{r4, pc}
/home/aom1/Work/Linux/target/STM32MP1-DK2/bootloader/optee-os-custom/ta/pkcs11/src/entry.c:35
     55c:	4800      	ldr	r0, [pc, #0]	; (560 <TA_OpenSessionEntryPoint+0x14>)
     55e:	e7fc      	b.n	55a <TA_OpenSessionEntryPoint+0xe>
     560:	ffff000c 	.word	0xffff000c

00000564 <TA_CloseSessionEntryPoint>:
TA_CloseSessionEntryPoint():
/home/aom1/Work/Linux/target/STM32MP1-DK2/bootloader/optee-os-custom/ta/pkcs11/src/entry.c:43
     564:	b508      	push	{r3, lr}
/home/aom1/Work/Linux/target/STM32MP1-DK2/bootloader/optee-os-custom/ta/pkcs11/src/entry.c:44
     566:	f003 ff07 	bl	4378 <tee_session2client>
/home/aom1/Work/Linux/target/STM32MP1-DK2/bootloader/optee-os-custom/ta/pkcs11/src/entry.c:47
     56a:	e8bd 4008 	ldmia.w	sp!, {r3, lr}
/home/aom1/Work/Linux/target/STM32MP1-DK2/bootloader/optee-os-custom/ta/pkcs11/src/entry.c:46
     56e:	f003 bf3b 	b.w	43e8 <unregister_client>

00000572 <TA_InvokeCommandEntryPoint>:
TA_InvokeCommandEntryPoint():
/home/aom1/Work/Linux/target/STM32MP1-DK2/bootloader/optee-os-custom/ta/pkcs11/src/entry.c:119
     572:	b570      	push	{r4, r5, r6, lr}
     574:	b086      	sub	sp, #24
     576:	461d      	mov	r5, r3
     578:	460c      	mov	r4, r1
     57a:	4616      	mov	r6, r2
/home/aom1/Work/Linux/target/STM32MP1-DK2/bootloader/optee-os-custom/ta/pkcs11/src/entry.c:120
     57c:	f003 fefc 	bl	4378 <tee_session2client>
/home/aom1/Work/Linux/target/STM32MP1-DK2/bootloader/optee-os-custom/ta/pkcs11/src/entry.c:121
     580:	2305      	movs	r3, #5
     582:	9302      	str	r3, [sp, #8]
/home/aom1/Work/Linux/target/STM32MP1-DK2/bootloader/optee-os-custom/ta/pkcs11/src/entry.c:123
     584:	2800      	cmp	r0, #0
     586:	f000 814c 	beq.w	822 <TA_InvokeCommandEntryPoint+0x2b0>
/home/aom1/Work/Linux/target/STM32MP1-DK2/bootloader/optee-os-custom/ta/pkcs11/src/entry.c:133 (discriminator 2)
     58a:	f006 030f 	and.w	r3, r6, #15
     58e:	3b06      	subs	r3, #6
     590:	2b01      	cmp	r3, #1
     592:	f200 8148 	bhi.w	826 <TA_InvokeCommandEntryPoint+0x2b4>
/home/aom1/Work/Linux/target/STM32MP1-DK2/bootloader/optee-os-custom/ta/pkcs11/src/entry.c:136
     596:	686b      	ldr	r3, [r5, #4]
     598:	2b03      	cmp	r3, #3
     59a:	f240 8144 	bls.w	826 <TA_InvokeCommandEntryPoint+0x2b4>
/home/aom1/Work/Linux/target/STM32MP1-DK2/bootloader/optee-os-custom/ta/pkcs11/src/entry.c:155
     59e:	2c34      	cmp	r4, #52	; 0x34
     5a0:	f200 8130 	bhi.w	804 <TA_InvokeCommandEntryPoint+0x292>
     5a4:	e8df f014 	tbh	[pc, r4, lsl #1]
     5a8:	00580035 	.word	0x00580035
     5ac:	0063005e 	.word	0x0063005e
     5b0:	006d0068 	.word	0x006d0068
     5b4:	00770072 	.word	0x00770072
     5b8:	0081007c 	.word	0x0081007c
     5bc:	008b0086 	.word	0x008b0086
     5c0:	00950090 	.word	0x00950090
     5c4:	009f009a 	.word	0x009f009a
     5c8:	00a900a4 	.word	0x00a900a4
     5cc:	00b100af 	.word	0x00b100af
     5d0:	00c100b9 	.word	0x00c100b9
     5d4:	00bd00c3 	.word	0x00bd00c3
     5d8:	00c500bf 	.word	0x00c500bf
     5dc:	00d100c7 	.word	0x00d100c7
     5e0:	00d500d3 	.word	0x00d500d3
     5e4:	00c900d7 	.word	0x00c900d7
     5e8:	00d900cd 	.word	0x00d900cd
     5ec:	00e300de 	.word	0x00e300de
     5f0:	00f200e8 	.word	0x00f200e8
     5f4:	00f700ed 	.word	0x00f700ed
     5f8:	010100fc 	.word	0x010100fc
     5fc:	010b0106 	.word	0x010b0106
     600:	01160111 	.word	0x01160111
     604:	0118011c 	.word	0x0118011c
     608:	011e0120 	.word	0x011e0120
     60c:	01270122 	.word	0x01270122
     610:	012c      	.short	0x012c
entry_ping():
/home/aom1/Work/Linux/target/STM32MP1-DK2/bootloader/optee-os-custom/ta/pkcs11/src/entry.c:61
     612:	2200      	movs	r2, #0
     614:	2101      	movs	r1, #1
     616:	9203      	str	r2, [sp, #12]
     618:	9205      	str	r2, [sp, #20]
/home/aom1/Work/Linux/target/STM32MP1-DK2/bootloader/optee-os-custom/ta/pkcs11/src/entry.c:67
     61a:	f240 6207 	movw	r2, #1543	; 0x607
     61e:	4296      	cmp	r6, r2
/home/aom1/Work/Linux/target/STM32MP1-DK2/bootloader/optee-os-custom/ta/pkcs11/src/entry.c:61
     620:	9104      	str	r1, [sp, #16]
/home/aom1/Work/Linux/target/STM32MP1-DK2/bootloader/optee-os-custom/ta/pkcs11/src/entry.c:67
     622:	d117      	bne.n	654 <TA_InvokeCommandEntryPoint+0xe2>
     624:	2b04      	cmp	r3, #4
     626:	d115      	bne.n	654 <TA_InvokeCommandEntryPoint+0xe2>
/home/aom1/Work/Linux/target/STM32MP1-DK2/bootloader/optee-os-custom/ta/pkcs11/src/entry.c:68
     628:	696a      	ldr	r2, [r5, #20]
     62a:	2a0c      	cmp	r2, #12
     62c:	d112      	bne.n	654 <TA_InvokeCommandEntryPoint+0xe2>
/home/aom1/Work/Linux/target/STM32MP1-DK2/bootloader/optee-os-custom/ta/pkcs11/src/entry.c:72
     62e:	6928      	ldr	r0, [r5, #16]
     630:	a903      	add	r1, sp, #12
     632:	f009 ff13 	bl	a45c <TEE_MemMove>
TA_InvokeCommandEntryPoint():
/home/aom1/Work/Linux/target/STM32MP1-DK2/bootloader/optee-os-custom/ta/pkcs11/src/entry.c:366
     636:	6828      	ldr	r0, [r5, #0]
     638:	2204      	movs	r2, #4
/home/aom1/Work/Linux/target/STM32MP1-DK2/bootloader/optee-os-custom/ta/pkcs11/src/entry.c:157
     63a:	9402      	str	r4, [sp, #8]
/home/aom1/Work/Linux/target/STM32MP1-DK2/bootloader/optee-os-custom/ta/pkcs11/src/entry.c:366
     63c:	a902      	add	r1, sp, #8
     63e:	f009 ff0d 	bl	a45c <TEE_MemMove>
/home/aom1/Work/Linux/target/STM32MP1-DK2/bootloader/optee-os-custom/ta/pkcs11/src/entry.c:372
     642:	487a      	ldr	r0, [pc, #488]	; (82c <TA_InvokeCommandEntryPoint+0x2ba>)
/home/aom1/Work/Linux/target/STM32MP1-DK2/bootloader/optee-os-custom/ta/pkcs11/src/entry.c:367
     644:	2304      	movs	r3, #4
     646:	606b      	str	r3, [r5, #4]
/home/aom1/Work/Linux/target/STM32MP1-DK2/bootloader/optee-os-custom/ta/pkcs11/src/entry.c:372
     648:	9b02      	ldr	r3, [sp, #8]
     64a:	f5b3 7fa8 	cmp.w	r3, #336	; 0x150
     64e:	bf18      	it	ne
     650:	2000      	movne	r0, #0
     652:	e0e4      	b.n	81e <TA_InvokeCommandEntryPoint+0x2ac>
entry_ping():
/home/aom1/Work/Linux/target/STM32MP1-DK2/bootloader/optee-os-custom/ta/pkcs11/src/entry.c:70
     654:	2407      	movs	r4, #7
TA_InvokeCommandEntryPoint():
/home/aom1/Work/Linux/target/STM32MP1-DK2/bootloader/optee-os-custom/ta/pkcs11/src/entry.c:158
     656:	e7ee      	b.n	636 <TA_InvokeCommandEntryPoint+0xc4>
/home/aom1/Work/Linux/target/STM32MP1-DK2/bootloader/optee-os-custom/ta/pkcs11/src/entry.c:161
     658:	4629      	mov	r1, r5
     65a:	4630      	mov	r0, r6
     65c:	f003 ff66 	bl	452c <entry_ck_slot_list>
/home/aom1/Work/Linux/target/STM32MP1-DK2/bootloader/optee-os-custom/ta/pkcs11/src/entry.c:356
     660:	4604      	mov	r4, r0
/home/aom1/Work/Linux/target/STM32MP1-DK2/bootloader/optee-os-custom/ta/pkcs11/src/entry.c:358
     662:	e7e8      	b.n	636 <TA_InvokeCommandEntryPoint+0xc4>
/home/aom1/Work/Linux/target/STM32MP1-DK2/bootloader/optee-os-custom/ta/pkcs11/src/entry.c:164
     664:	4629      	mov	r1, r5
     666:	4630      	mov	r0, r6
     668:	f003 ff8b 	bl	4582 <entry_ck_slot_info>
     66c:	e7f8      	b.n	660 <TA_InvokeCommandEntryPoint+0xee>
/home/aom1/Work/Linux/target/STM32MP1-DK2/bootloader/optee-os-custom/ta/pkcs11/src/entry.c:167
     66e:	4629      	mov	r1, r5
     670:	4630      	mov	r0, r6
     672:	f004 f80b 	bl	468c <entry_ck_token_info>
     676:	e7f3      	b.n	660 <TA_InvokeCommandEntryPoint+0xee>
/home/aom1/Work/Linux/target/STM32MP1-DK2/bootloader/optee-os-custom/ta/pkcs11/src/entry.c:170
     678:	4629      	mov	r1, r5
     67a:	4630      	mov	r0, r6
     67c:	f004 f894 	bl	47a8 <entry_ck_token_mecha_ids>
     680:	e7ee      	b.n	660 <TA_InvokeCommandEntryPoint+0xee>
/home/aom1/Work/Linux/target/STM32MP1-DK2/bootloader/optee-os-custom/ta/pkcs11/src/entry.c:173
     682:	4629      	mov	r1, r5
     684:	4630      	mov	r0, r6
     686:	f004 f8f1 	bl	486c <entry_ck_token_mecha_info>
     68a:	e7e9      	b.n	660 <TA_InvokeCommandEntryPoint+0xee>
/home/aom1/Work/Linux/target/STM32MP1-DK2/bootloader/optee-os-custom/ta/pkcs11/src/entry.c:177
     68c:	462a      	mov	r2, r5
     68e:	4631      	mov	r1, r6
     690:	f004 f943 	bl	491a <entry_ck_open_session>
     694:	e7e4      	b.n	660 <TA_InvokeCommandEntryPoint+0xee>
/home/aom1/Work/Linux/target/STM32MP1-DK2/bootloader/optee-os-custom/ta/pkcs11/src/entry.c:180
     696:	462a      	mov	r2, r5
     698:	4631      	mov	r1, r6
     69a:	f004 fa01 	bl	4aa0 <entry_ck_close_session>
     69e:	e7df      	b.n	660 <TA_InvokeCommandEntryPoint+0xee>
/home/aom1/Work/Linux/target/STM32MP1-DK2/bootloader/optee-os-custom/ta/pkcs11/src/entry.c:183
     6a0:	462a      	mov	r2, r5
     6a2:	4631      	mov	r1, r6
     6a4:	f004 fa26 	bl	4af4 <entry_ck_close_all_sessions>
     6a8:	e7da      	b.n	660 <TA_InvokeCommandEntryPoint+0xee>
/home/aom1/Work/Linux/target/STM32MP1-DK2/bootloader/optee-os-custom/ta/pkcs11/src/entry.c:186
     6aa:	462a      	mov	r2, r5
     6ac:	4631      	mov	r1, r6
     6ae:	f004 fa55 	bl	4b5c <entry_ck_session_info>
     6b2:	e7d5      	b.n	660 <TA_InvokeCommandEntryPoint+0xee>
/home/aom1/Work/Linux/target/STM32MP1-DK2/bootloader/optee-os-custom/ta/pkcs11/src/entry.c:190
     6b4:	4629      	mov	r1, r5
     6b6:	4630      	mov	r0, r6
     6b8:	f004 fa97 	bl	4bea <entry_ck_token_initialize>
     6bc:	e7d0      	b.n	660 <TA_InvokeCommandEntryPoint+0xee>
/home/aom1/Work/Linux/target/STM32MP1-DK2/bootloader/optee-os-custom/ta/pkcs11/src/entry.c:193
     6be:	462a      	mov	r2, r5
     6c0:	4631      	mov	r1, r6
     6c2:	f004 fb6f 	bl	4da4 <entry_ck_init_pin>
     6c6:	e7cb      	b.n	660 <TA_InvokeCommandEntryPoint+0xee>
/home/aom1/Work/Linux/target/STM32MP1-DK2/bootloader/optee-os-custom/ta/pkcs11/src/entry.c:196
     6c8:	462a      	mov	r2, r5
     6ca:	4631      	mov	r1, r6
     6cc:	f004 fbc4 	bl	4e58 <entry_ck_set_pin>
     6d0:	e7c6      	b.n	660 <TA_InvokeCommandEntryPoint+0xee>
/home/aom1/Work/Linux/target/STM32MP1-DK2/bootloader/optee-os-custom/ta/pkcs11/src/entry.c:199
     6d2:	462a      	mov	r2, r5
     6d4:	4631      	mov	r1, r6
     6d6:	f004 fc2a 	bl	4f2e <entry_ck_login>
     6da:	e7c1      	b.n	660 <TA_InvokeCommandEntryPoint+0xee>
/home/aom1/Work/Linux/target/STM32MP1-DK2/bootloader/optee-os-custom/ta/pkcs11/src/entry.c:202
     6dc:	462a      	mov	r2, r5
     6de:	4631      	mov	r1, r6
     6e0:	f004 fccd 	bl	507e <entry_ck_logout>
     6e4:	e7bc      	b.n	660 <TA_InvokeCommandEntryPoint+0xee>
/home/aom1/Work/Linux/target/STM32MP1-DK2/bootloader/optee-os-custom/ta/pkcs11/src/entry.c:206
     6e6:	462a      	mov	r2, r5
     6e8:	4631      	mov	r1, r6
     6ea:	f000 fa1b 	bl	b24 <entry_create_object>
     6ee:	e7b7      	b.n	660 <TA_InvokeCommandEntryPoint+0xee>
/home/aom1/Work/Linux/target/STM32MP1-DK2/bootloader/optee-os-custom/ta/pkcs11/src/entry.c:209
     6f0:	462a      	mov	r2, r5
     6f2:	4631      	mov	r1, r6
     6f4:	f000 fa8d 	bl	c12 <entry_destroy_object>
     6f8:	e7b2      	b.n	660 <TA_InvokeCommandEntryPoint+0xee>
/home/aom1/Work/Linux/target/STM32MP1-DK2/bootloader/optee-os-custom/ta/pkcs11/src/entry.c:213
     6fa:	2306      	movs	r3, #6
/home/aom1/Work/Linux/target/STM32MP1-DK2/bootloader/optee-os-custom/ta/pkcs11/src/entry.c:326
     6fc:	462a      	mov	r2, r5
     6fe:	4631      	mov	r1, r6
     700:	f005 f90d 	bl	591e <entry_processing_init>
     704:	e7ac      	b.n	660 <TA_InvokeCommandEntryPoint+0xee>
/home/aom1/Work/Linux/target/STM32MP1-DK2/bootloader/optee-os-custom/ta/pkcs11/src/entry.c:217
     706:	2307      	movs	r3, #7
     708:	e7f8      	b.n	6fc <TA_InvokeCommandEntryPoint+0x18a>
/home/aom1/Work/Linux/target/STM32MP1-DK2/bootloader/optee-os-custom/ta/pkcs11/src/entry.c:221
     70a:	2302      	movs	r3, #2
/home/aom1/Work/Linux/target/STM32MP1-DK2/bootloader/optee-os-custom/ta/pkcs11/src/entry.c:241
     70c:	9300      	str	r3, [sp, #0]
     70e:	2306      	movs	r3, #6
/home/aom1/Work/Linux/target/STM32MP1-DK2/bootloader/optee-os-custom/ta/pkcs11/src/entry.c:345
     710:	462a      	mov	r2, r5
     712:	4631      	mov	r1, r6
     714:	f005 f9a3 	bl	5a5e <entry_processing_step>
     718:	e7a2      	b.n	660 <TA_InvokeCommandEntryPoint+0xee>
/home/aom1/Work/Linux/target/STM32MP1-DK2/bootloader/optee-os-custom/ta/pkcs11/src/entry.c:226
     71a:	2302      	movs	r3, #2
/home/aom1/Work/Linux/target/STM32MP1-DK2/bootloader/optee-os-custom/ta/pkcs11/src/entry.c:246
     71c:	9300      	str	r3, [sp, #0]
     71e:	2307      	movs	r3, #7
     720:	e7f6      	b.n	710 <TA_InvokeCommandEntryPoint+0x19e>
/home/aom1/Work/Linux/target/STM32MP1-DK2/bootloader/optee-os-custom/ta/pkcs11/src/entry.c:231
     722:	2301      	movs	r3, #1
     724:	e7f2      	b.n	70c <TA_InvokeCommandEntryPoint+0x19a>
/home/aom1/Work/Linux/target/STM32MP1-DK2/bootloader/optee-os-custom/ta/pkcs11/src/entry.c:236
     726:	2301      	movs	r3, #1
     728:	e7f8      	b.n	71c <TA_InvokeCommandEntryPoint+0x1aa>
/home/aom1/Work/Linux/target/STM32MP1-DK2/bootloader/optee-os-custom/ta/pkcs11/src/entry.c:241
     72a:	2304      	movs	r3, #4
     72c:	e7ee      	b.n	70c <TA_InvokeCommandEntryPoint+0x19a>
/home/aom1/Work/Linux/target/STM32MP1-DK2/bootloader/optee-os-custom/ta/pkcs11/src/entry.c:246
     72e:	2304      	movs	r3, #4
     730:	e7f4      	b.n	71c <TA_InvokeCommandEntryPoint+0x1aa>
/home/aom1/Work/Linux/target/STM32MP1-DK2/bootloader/optee-os-custom/ta/pkcs11/src/entry.c:251
     732:	2308      	movs	r3, #8
     734:	e7e2      	b.n	6fc <TA_InvokeCommandEntryPoint+0x18a>
/home/aom1/Work/Linux/target/STM32MP1-DK2/bootloader/optee-os-custom/ta/pkcs11/src/entry.c:255
     736:	2309      	movs	r3, #9
     738:	e7e0      	b.n	6fc <TA_InvokeCommandEntryPoint+0x18a>
/home/aom1/Work/Linux/target/STM32MP1-DK2/bootloader/optee-os-custom/ta/pkcs11/src/entry.c:259
     73a:	2301      	movs	r3, #1
/home/aom1/Work/Linux/target/STM32MP1-DK2/bootloader/optee-os-custom/ta/pkcs11/src/entry.c:279
     73c:	9300      	str	r3, [sp, #0]
     73e:	2308      	movs	r3, #8
     740:	e7e6      	b.n	710 <TA_InvokeCommandEntryPoint+0x19e>
/home/aom1/Work/Linux/target/STM32MP1-DK2/bootloader/optee-os-custom/ta/pkcs11/src/entry.c:264
     742:	2301      	movs	r3, #1
/home/aom1/Work/Linux/target/STM32MP1-DK2/bootloader/optee-os-custom/ta/pkcs11/src/entry.c:284
     744:	9300      	str	r3, [sp, #0]
     746:	2309      	movs	r3, #9
     748:	e7e2      	b.n	710 <TA_InvokeCommandEntryPoint+0x19e>
/home/aom1/Work/Linux/target/STM32MP1-DK2/bootloader/optee-os-custom/ta/pkcs11/src/entry.c:269
     74a:	2302      	movs	r3, #2
     74c:	e7f6      	b.n	73c <TA_InvokeCommandEntryPoint+0x1ca>
/home/aom1/Work/Linux/target/STM32MP1-DK2/bootloader/optee-os-custom/ta/pkcs11/src/entry.c:274
     74e:	2302      	movs	r3, #2
     750:	e7f8      	b.n	744 <TA_InvokeCommandEntryPoint+0x1d2>
/home/aom1/Work/Linux/target/STM32MP1-DK2/bootloader/optee-os-custom/ta/pkcs11/src/entry.c:279
     752:	2304      	movs	r3, #4
     754:	e7f2      	b.n	73c <TA_InvokeCommandEntryPoint+0x1ca>
/home/aom1/Work/Linux/target/STM32MP1-DK2/bootloader/optee-os-custom/ta/pkcs11/src/entry.c:284
     756:	2304      	movs	r3, #4
     758:	e7f4      	b.n	744 <TA_InvokeCommandEntryPoint+0x1d2>
/home/aom1/Work/Linux/target/STM32MP1-DK2/bootloader/optee-os-custom/ta/pkcs11/src/entry.c:289
     75a:	462a      	mov	r2, r5
     75c:	4631      	mov	r1, r6
     75e:	f004 fe6f 	bl	5440 <entry_generate_secret>
     762:	e77d      	b.n	660 <TA_InvokeCommandEntryPoint+0xee>
/home/aom1/Work/Linux/target/STM32MP1-DK2/bootloader/optee-os-custom/ta/pkcs11/src/entry.c:292
     764:	462a      	mov	r2, r5
     766:	4631      	mov	r1, r6
     768:	f000 faae 	bl	cc8 <entry_find_objects_init>
     76c:	e778      	b.n	660 <TA_InvokeCommandEntryPoint+0xee>
/home/aom1/Work/Linux/target/STM32MP1-DK2/bootloader/optee-os-custom/ta/pkcs11/src/entry.c:295
     76e:	462a      	mov	r2, r5
     770:	4631      	mov	r1, r6
     772:	f000 fba7 	bl	ec4 <entry_find_objects>
     776:	e773      	b.n	660 <TA_InvokeCommandEntryPoint+0xee>
/home/aom1/Work/Linux/target/STM32MP1-DK2/bootloader/optee-os-custom/ta/pkcs11/src/entry.c:298
     778:	462a      	mov	r2, r5
     77a:	4631      	mov	r1, r6
     77c:	f000 fbfc 	bl	f78 <entry_find_objects_final>
     780:	e76e      	b.n	660 <TA_InvokeCommandEntryPoint+0xee>
/home/aom1/Work/Linux/target/STM32MP1-DK2/bootloader/optee-os-custom/ta/pkcs11/src/entry.c:301
     782:	462a      	mov	r2, r5
     784:	4631      	mov	r1, r6
     786:	f000 fc25 	bl	fd4 <entry_get_attribute_value>
     78a:	e769      	b.n	660 <TA_InvokeCommandEntryPoint+0xee>
/home/aom1/Work/Linux/target/STM32MP1-DK2/bootloader/optee-os-custom/ta/pkcs11/src/entry.c:304
     78c:	462a      	mov	r2, r5
     78e:	4631      	mov	r1, r6
     790:	f000 fcdc 	bl	114c <entry_get_object_size>
     794:	e764      	b.n	660 <TA_InvokeCommandEntryPoint+0xee>
/home/aom1/Work/Linux/target/STM32MP1-DK2/bootloader/optee-os-custom/ta/pkcs11/src/entry.c:307
     796:	462a      	mov	r2, r5
     798:	4631      	mov	r1, r6
     79a:	f000 fd25 	bl	11e8 <entry_set_attribute_value>
     79e:	e75f      	b.n	660 <TA_InvokeCommandEntryPoint+0xee>
/home/aom1/Work/Linux/target/STM32MP1-DK2/bootloader/optee-os-custom/ta/pkcs11/src/entry.c:310
     7a0:	462a      	mov	r2, r5
     7a2:	4631      	mov	r1, r6
     7a4:	f000 fdaa 	bl	12fc <entry_copy_object>
     7a8:	e75a      	b.n	660 <TA_InvokeCommandEntryPoint+0xee>
/home/aom1/Work/Linux/target/STM32MP1-DK2/bootloader/optee-os-custom/ta/pkcs11/src/entry.c:313
     7aa:	462a      	mov	r2, r5
     7ac:	4631      	mov	r1, r6
     7ae:	f004 fcd2 	bl	5156 <entry_ck_seed_random>
     7b2:	e755      	b.n	660 <TA_InvokeCommandEntryPoint+0xee>
/home/aom1/Work/Linux/target/STM32MP1-DK2/bootloader/optee-os-custom/ta/pkcs11/src/entry.c:316
     7b4:	462a      	mov	r2, r5
     7b6:	4631      	mov	r1, r6
     7b8:	f004 fd48 	bl	524c <entry_ck_generate_random>
     7bc:	e750      	b.n	660 <TA_InvokeCommandEntryPoint+0xee>
/home/aom1/Work/Linux/target/STM32MP1-DK2/bootloader/optee-os-custom/ta/pkcs11/src/entry.c:319
     7be:	2303      	movs	r3, #3
/home/aom1/Work/Linux/target/STM32MP1-DK2/bootloader/optee-os-custom/ta/pkcs11/src/entry.c:356
     7c0:	462a      	mov	r2, r5
     7c2:	4631      	mov	r1, r6
     7c4:	f005 fa18 	bl	5bf8 <entry_processing_key>
     7c8:	e74a      	b.n	660 <TA_InvokeCommandEntryPoint+0xee>
/home/aom1/Work/Linux/target/STM32MP1-DK2/bootloader/optee-os-custom/ta/pkcs11/src/entry.c:323
     7ca:	462a      	mov	r2, r5
     7cc:	4631      	mov	r1, r6
     7ce:	f005 fb4b 	bl	5e68 <entry_release_active_processing>
     7d2:	e745      	b.n	660 <TA_InvokeCommandEntryPoint+0xee>
/home/aom1/Work/Linux/target/STM32MP1-DK2/bootloader/optee-os-custom/ta/pkcs11/src/entry.c:326
     7d4:	2300      	movs	r3, #0
     7d6:	e791      	b.n	6fc <TA_InvokeCommandEntryPoint+0x18a>
/home/aom1/Work/Linux/target/STM32MP1-DK2/bootloader/optee-os-custom/ta/pkcs11/src/entry.c:330
     7d8:	2302      	movs	r3, #2
/home/aom1/Work/Linux/target/STM32MP1-DK2/bootloader/optee-os-custom/ta/pkcs11/src/entry.c:345
     7da:	9300      	str	r3, [sp, #0]
     7dc:	2300      	movs	r3, #0
     7de:	e797      	b.n	710 <TA_InvokeCommandEntryPoint+0x19e>
/home/aom1/Work/Linux/target/STM32MP1-DK2/bootloader/optee-os-custom/ta/pkcs11/src/entry.c:335
     7e0:	2303      	movs	r3, #3
     7e2:	e7fa      	b.n	7da <TA_InvokeCommandEntryPoint+0x268>
/home/aom1/Work/Linux/target/STM32MP1-DK2/bootloader/optee-os-custom/ta/pkcs11/src/entry.c:340
     7e4:	2301      	movs	r3, #1
     7e6:	e7f8      	b.n	7da <TA_InvokeCommandEntryPoint+0x268>
/home/aom1/Work/Linux/target/STM32MP1-DK2/bootloader/optee-os-custom/ta/pkcs11/src/entry.c:345
     7e8:	2304      	movs	r3, #4
     7ea:	e7f6      	b.n	7da <TA_InvokeCommandEntryPoint+0x268>
/home/aom1/Work/Linux/target/STM32MP1-DK2/bootloader/optee-os-custom/ta/pkcs11/src/entry.c:350
     7ec:	462a      	mov	r2, r5
     7ee:	4631      	mov	r1, r6
     7f0:	f004 ff72 	bl	56d8 <entry_generate_key_pair>
     7f4:	e734      	b.n	660 <TA_InvokeCommandEntryPoint+0xee>
/home/aom1/Work/Linux/target/STM32MP1-DK2/bootloader/optee-os-custom/ta/pkcs11/src/entry.c:353
     7f6:	462a      	mov	r2, r5
     7f8:	4631      	mov	r1, r6
     7fa:	f005 fb79 	bl	5ef0 <entry_wrap_key>
     7fe:	e72f      	b.n	660 <TA_InvokeCommandEntryPoint+0xee>
/home/aom1/Work/Linux/target/STM32MP1-DK2/bootloader/optee-os-custom/ta/pkcs11/src/entry.c:356
     800:	2305      	movs	r3, #5
     802:	e7dd      	b.n	7c0 <TA_InvokeCommandEntryPoint+0x24e>
/home/aom1/Work/Linux/target/STM32MP1-DK2/bootloader/optee-os-custom/ta/pkcs11/src/entry.c:360
     804:	4b0d      	ldr	r3, [pc, #52]	; (83c <TA_InvokeCommandEntryPoint+0x2ca>)
     806:	f44f 71b4 	mov.w	r1, #360	; 0x168
     80a:	480d      	ldr	r0, [pc, #52]	; (840 <TA_InvokeCommandEntryPoint+0x2ce>)
     80c:	447b      	add	r3, pc
     80e:	9300      	str	r3, [sp, #0]
     810:	2301      	movs	r3, #1
     812:	4478      	add	r0, pc
     814:	461a      	mov	r2, r3
     816:	9401      	str	r4, [sp, #4]
     818:	f009 fb54 	bl	9ec4 <trace_printf>
/home/aom1/Work/Linux/target/STM32MP1-DK2/bootloader/optee-os-custom/ta/pkcs11/src/entry.c:361
     81c:	4804      	ldr	r0, [pc, #16]	; (830 <TA_InvokeCommandEntryPoint+0x2be>)
/home/aom1/Work/Linux/target/STM32MP1-DK2/bootloader/optee-os-custom/ta/pkcs11/src/entry.c:373
     81e:	b006      	add	sp, #24
     820:	bd70      	pop	{r4, r5, r6, pc}
/home/aom1/Work/Linux/target/STM32MP1-DK2/bootloader/optee-os-custom/ta/pkcs11/src/entry.c:124
     822:	4804      	ldr	r0, [pc, #16]	; (834 <TA_InvokeCommandEntryPoint+0x2c2>)
     824:	e7fb      	b.n	81e <TA_InvokeCommandEntryPoint+0x2ac>
/home/aom1/Work/Linux/target/STM32MP1-DK2/bootloader/optee-os-custom/ta/pkcs11/src/entry.c:140
     826:	4804      	ldr	r0, [pc, #16]	; (838 <TA_InvokeCommandEntryPoint+0x2c6>)
     828:	e7f9      	b.n	81e <TA_InvokeCommandEntryPoint+0x2ac>
     82a:	bf00      	nop
     82c:	ffff0010 	.word	0xffff0010
     830:	ffff000a 	.word	0xffff000a
     834:	ffff000f 	.word	0xffff000f
     838:	ffff0006 	.word	0xffff0006
     83c:	00012e95 	.word	0x00012e95
     840:	00012eac 	.word	0x00012eac

00000844 <cleanup_volatile_obj_ref>:
cleanup_volatile_obj_ref():
/home/aom1/Work/Linux/target/STM32MP1-DK2/bootloader/optee-os-custom/ta/pkcs11/src/object.c:84
     844:	b510      	push	{r4, lr}
/home/aom1/Work/Linux/target/STM32MP1-DK2/bootloader/optee-os-custom/ta/pkcs11/src/object.c:85
     846:	4604      	mov	r4, r0
     848:	b1c0      	cbz	r0, 87c <cleanup_volatile_obj_ref+0x38>
/home/aom1/Work/Linux/target/STM32MP1-DK2/bootloader/optee-os-custom/ta/pkcs11/src/object.c:88
     84a:	6803      	ldr	r3, [r0, #0]
     84c:	b10b      	cbz	r3, 852 <cleanup_volatile_obj_ref+0xe>
/home/aom1/Work/Linux/target/STM32MP1-DK2/bootloader/optee-os-custom/ta/pkcs11/src/object.c:88 (discriminator 1)
     84e:	6842      	ldr	r2, [r0, #4]
     850:	605a      	str	r2, [r3, #4]
/home/aom1/Work/Linux/target/STM32MP1-DK2/bootloader/optee-os-custom/ta/pkcs11/src/object.c:88 (discriminator 3)
     852:	6862      	ldr	r2, [r4, #4]
/home/aom1/Work/Linux/target/STM32MP1-DK2/bootloader/optee-os-custom/ta/pkcs11/src/object.c:90 (discriminator 3)
     854:	68e0      	ldr	r0, [r4, #12]
/home/aom1/Work/Linux/target/STM32MP1-DK2/bootloader/optee-os-custom/ta/pkcs11/src/object.c:88 (discriminator 3)
     856:	6013      	str	r3, [r2, #0]
/home/aom1/Work/Linux/target/STM32MP1-DK2/bootloader/optee-os-custom/ta/pkcs11/src/object.c:90 (discriminator 3)
     858:	b108      	cbz	r0, 85e <cleanup_volatile_obj_ref+0x1a>
/home/aom1/Work/Linux/target/STM32MP1-DK2/bootloader/optee-os-custom/ta/pkcs11/src/object.c:91
     85a:	f009 ffb7 	bl	a7cc <TEE_FreeTransientObject>
/home/aom1/Work/Linux/target/STM32MP1-DK2/bootloader/optee-os-custom/ta/pkcs11/src/object.c:93
     85e:	69e0      	ldr	r0, [r4, #28]
     860:	b108      	cbz	r0, 866 <cleanup_volatile_obj_ref+0x22>
/home/aom1/Work/Linux/target/STM32MP1-DK2/bootloader/optee-os-custom/ta/pkcs11/src/object.c:94
     862:	f009 ff89 	bl	a778 <TEE_CloseObject>
/home/aom1/Work/Linux/target/STM32MP1-DK2/bootloader/optee-os-custom/ta/pkcs11/src/object.c:96
     866:	68a0      	ldr	r0, [r4, #8]
     868:	f009 fe7e 	bl	a568 <TEE_Free>
/home/aom1/Work/Linux/target/STM32MP1-DK2/bootloader/optee-os-custom/ta/pkcs11/src/object.c:97
     86c:	69a0      	ldr	r0, [r4, #24]
     86e:	f009 fe7b 	bl	a568 <TEE_Free>
/home/aom1/Work/Linux/target/STM32MP1-DK2/bootloader/optee-os-custom/ta/pkcs11/src/object.c:98
     872:	4620      	mov	r0, r4
/home/aom1/Work/Linux/target/STM32MP1-DK2/bootloader/optee-os-custom/ta/pkcs11/src/object.c:99
     874:	e8bd 4010 	ldmia.w	sp!, {r4, lr}
/home/aom1/Work/Linux/target/STM32MP1-DK2/bootloader/optee-os-custom/ta/pkcs11/src/object.c:98
     878:	f009 be76 	b.w	a568 <TEE_Free>
/home/aom1/Work/Linux/target/STM32MP1-DK2/bootloader/optee-os-custom/ta/pkcs11/src/object.c:99
     87c:	bd10      	pop	{r4, pc}

0000087e <get_class>:
get_class():
/home/aom1/Work/Linux/target/STM32MP1-DK2/bootloader/optee-os-custom/ta/pkcs11/src/attributes.h:237
     87e:	b507      	push	{r0, r1, r2, lr}
/home/aom1/Work/Linux/target/STM32MP1-DK2/bootloader/optee-os-custom/ta/pkcs11/src/attributes.h:239
     880:	2304      	movs	r3, #4
     882:	2100      	movs	r1, #0
/home/aom1/Work/Linux/target/STM32MP1-DK2/bootloader/optee-os-custom/ta/pkcs11/src/attributes.h:241
     884:	466a      	mov	r2, sp
/home/aom1/Work/Linux/target/STM32MP1-DK2/bootloader/optee-os-custom/ta/pkcs11/src/attributes.h:239
     886:	e9cd 1300 	strd	r1, r3, [sp]
/home/aom1/Work/Linux/target/STM32MP1-DK2/bootloader/optee-os-custom/ta/pkcs11/src/attributes.h:241
     88a:	446b      	add	r3, sp
     88c:	f7ff fc9e 	bl	1cc <get_attribute>
     890:	b918      	cbnz	r0, 89a <get_class+0x1c>
/home/aom1/Work/Linux/target/STM32MP1-DK2/bootloader/optee-os-custom/ta/pkcs11/src/attributes.h:244
     892:	9800      	ldr	r0, [sp, #0]
/home/aom1/Work/Linux/target/STM32MP1-DK2/bootloader/optee-os-custom/ta/pkcs11/src/attributes.h:245
     894:	b003      	add	sp, #12
     896:	f85d fb04 	ldr.w	pc, [sp], #4
/home/aom1/Work/Linux/target/STM32MP1-DK2/bootloader/optee-os-custom/ta/pkcs11/src/attributes.h:242
     89a:	f04f 30ff 	mov.w	r0, #4294967295	; 0xffffffff
     89e:	e7f9      	b.n	894 <get_class+0x16>

000008a0 <find_ctx_add>:
find_ctx_add():
/home/aom1/Work/Linux/target/STM32MP1-DK2/bootloader/optee-os-custom/ta/pkcs11/src/object.c:473
     8a0:	b538      	push	{r3, r4, r5, lr}
     8a2:	460d      	mov	r5, r1
/home/aom1/Work/Linux/target/STM32MP1-DK2/bootloader/optee-os-custom/ta/pkcs11/src/object.c:475
     8a4:	6841      	ldr	r1, [r0, #4]
/home/aom1/Work/Linux/target/STM32MP1-DK2/bootloader/optee-os-custom/ta/pkcs11/src/object.c:473
     8a6:	4604      	mov	r4, r0
/home/aom1/Work/Linux/target/STM32MP1-DK2/bootloader/optee-os-custom/ta/pkcs11/src/object.c:474
     8a8:	6880      	ldr	r0, [r0, #8]
/home/aom1/Work/Linux/target/STM32MP1-DK2/bootloader/optee-os-custom/ta/pkcs11/src/object.c:475
     8aa:	3101      	adds	r1, #1
/home/aom1/Work/Linux/target/STM32MP1-DK2/bootloader/optee-os-custom/ta/pkcs11/src/object.c:474
     8ac:	0089      	lsls	r1, r1, #2
     8ae:	f009 fe60 	bl	a572 <TEE_Realloc>
/home/aom1/Work/Linux/target/STM32MP1-DK2/bootloader/optee-os-custom/ta/pkcs11/src/object.c:477
     8b2:	b140      	cbz	r0, 8c6 <find_ctx_add+0x26>
/home/aom1/Work/Linux/target/STM32MP1-DK2/bootloader/optee-os-custom/ta/pkcs11/src/object.c:482
     8b4:	6863      	ldr	r3, [r4, #4]
/home/aom1/Work/Linux/target/STM32MP1-DK2/bootloader/optee-os-custom/ta/pkcs11/src/object.c:480
     8b6:	60a0      	str	r0, [r4, #8]
/home/aom1/Work/Linux/target/STM32MP1-DK2/bootloader/optee-os-custom/ta/pkcs11/src/object.c:482
     8b8:	f840 5023 	str.w	r5, [r0, r3, lsl #2]
/home/aom1/Work/Linux/target/STM32MP1-DK2/bootloader/optee-os-custom/ta/pkcs11/src/object.c:485
     8bc:	2000      	movs	r0, #0
/home/aom1/Work/Linux/target/STM32MP1-DK2/bootloader/optee-os-custom/ta/pkcs11/src/object.c:483
     8be:	6863      	ldr	r3, [r4, #4]
     8c0:	3301      	adds	r3, #1
     8c2:	6063      	str	r3, [r4, #4]
/home/aom1/Work/Linux/target/STM32MP1-DK2/bootloader/optee-os-custom/ta/pkcs11/src/object.c:486
     8c4:	bd38      	pop	{r3, r4, r5, pc}
/home/aom1/Work/Linux/target/STM32MP1-DK2/bootloader/optee-os-custom/ta/pkcs11/src/object.c:478
     8c6:	2031      	movs	r0, #49	; 0x31
     8c8:	e7fc      	b.n	8c4 <find_ctx_add+0x24>

000008ca <pkcs11_handle2object>:
pkcs11_handle2object():
/home/aom1/Work/Linux/target/STM32MP1-DK2/bootloader/optee-os-custom/ta/pkcs11/src/object.c:35
     8ca:	b538      	push	{r3, r4, r5, lr}
     8cc:	4605      	mov	r5, r0
/home/aom1/Work/Linux/target/STM32MP1-DK2/bootloader/optee-os-custom/ta/pkcs11/src/object.c:38
     8ce:	4608      	mov	r0, r1
/home/aom1/Work/Linux/target/STM32MP1-DK2/bootloader/optee-os-custom/ta/pkcs11/src/object.c:35
     8d0:	460c      	mov	r4, r1
/home/aom1/Work/Linux/target/STM32MP1-DK2/bootloader/optee-os-custom/ta/pkcs11/src/object.c:38
     8d2:	f003 fd4b 	bl	436c <get_object_handle_db>
     8d6:	4629      	mov	r1, r5
     8d8:	f011 fe76 	bl	125c8 <handle_lookup>
/home/aom1/Work/Linux/target/STM32MP1-DK2/bootloader/optee-os-custom/ta/pkcs11/src/object.c:39
     8dc:	b128      	cbz	r0, 8ea <pkcs11_handle2object+0x20>
/home/aom1/Work/Linux/target/STM32MP1-DK2/bootloader/optee-os-custom/ta/pkcs11/src/object.c:46
     8de:	6943      	ldr	r3, [r0, #20]
     8e0:	b11b      	cbz	r3, 8ea <pkcs11_handle2object+0x20>
/home/aom1/Work/Linux/target/STM32MP1-DK2/bootloader/optee-os-custom/ta/pkcs11/src/object.c:53
     8e2:	68e2      	ldr	r2, [r4, #12]
/home/aom1/Work/Linux/target/STM32MP1-DK2/bootloader/optee-os-custom/ta/pkcs11/src/object.c:54
     8e4:	4293      	cmp	r3, r2
     8e6:	bf18      	it	ne
     8e8:	2000      	movne	r0, #0
/home/aom1/Work/Linux/target/STM32MP1-DK2/bootloader/optee-os-custom/ta/pkcs11/src/object.c:57
     8ea:	bd38      	pop	{r3, r4, r5, pc}

000008ec <pkcs11_object2handle>:
pkcs11_object2handle():
/home/aom1/Work/Linux/target/STM32MP1-DK2/bootloader/optee-os-custom/ta/pkcs11/src/object.c:61
     8ec:	b510      	push	{r4, lr}
     8ee:	4604      	mov	r4, r0
/home/aom1/Work/Linux/target/STM32MP1-DK2/bootloader/optee-os-custom/ta/pkcs11/src/object.c:62
     8f0:	4608      	mov	r0, r1
     8f2:	f003 fd3b 	bl	436c <get_object_handle_db>
     8f6:	4621      	mov	r1, r4
/home/aom1/Work/Linux/target/STM32MP1-DK2/bootloader/optee-os-custom/ta/pkcs11/src/object.c:63
     8f8:	e8bd 4010 	ldmia.w	sp!, {r4, lr}
/home/aom1/Work/Linux/target/STM32MP1-DK2/bootloader/optee-os-custom/ta/pkcs11/src/object.c:62
     8fc:	f011 be6f 	b.w	125de <handle_lookup_handle>

00000900 <cleanup_persistent_object>:
cleanup_persistent_object():
/home/aom1/Work/Linux/target/STM32MP1-DK2/bootloader/optee-os-custom/ta/pkcs11/src/object.c:104
     900:	b537      	push	{r0, r1, r2, r4, r5, lr}
     902:	460d      	mov	r5, r1
/home/aom1/Work/Linux/target/STM32MP1-DK2/bootloader/optee-os-custom/ta/pkcs11/src/object.c:107
     904:	4604      	mov	r4, r0
     906:	b1d8      	cbz	r0, 940 <cleanup_persistent_object+0x40>
/home/aom1/Work/Linux/target/STM32MP1-DK2/bootloader/optee-os-custom/ta/pkcs11/src/object.c:111
     908:	69c0      	ldr	r0, [r0, #28]
     90a:	b108      	cbz	r0, 910 <cleanup_persistent_object+0x10>
/home/aom1/Work/Linux/target/STM32MP1-DK2/bootloader/optee-os-custom/ta/pkcs11/src/object.c:112
     90c:	f009 ff34 	bl	a778 <TEE_CloseObject>
/home/aom1/Work/Linux/target/STM32MP1-DK2/bootloader/optee-os-custom/ta/pkcs11/src/object.c:114
     910:	f104 031c 	add.w	r3, r4, #28
     914:	2210      	movs	r2, #16
     916:	9300      	str	r3, [sp, #0]
     918:	2001      	movs	r0, #1
     91a:	69a1      	ldr	r1, [r4, #24]
     91c:	2304      	movs	r3, #4
     91e:	f00a f859 	bl	a9d4 <TEE_OpenPersistentObject>
/home/aom1/Work/Linux/target/STM32MP1-DK2/bootloader/optee-os-custom/ta/pkcs11/src/object.c:118
     922:	b910      	cbnz	r0, 92a <cleanup_persistent_object+0x2a>
/home/aom1/Work/Linux/target/STM32MP1-DK2/bootloader/optee-os-custom/ta/pkcs11/src/object.c:119
     924:	69e0      	ldr	r0, [r4, #28]
     926:	f00a f8d5 	bl	aad4 <TEE_CloseAndDeletePersistentObject1>
/home/aom1/Work/Linux/target/STM32MP1-DK2/bootloader/optee-os-custom/ta/pkcs11/src/object.c:121
     92a:	2300      	movs	r3, #0
/home/aom1/Work/Linux/target/STM32MP1-DK2/bootloader/optee-os-custom/ta/pkcs11/src/object.c:122
     92c:	4628      	mov	r0, r5
/home/aom1/Work/Linux/target/STM32MP1-DK2/bootloader/optee-os-custom/ta/pkcs11/src/object.c:121
     92e:	61e3      	str	r3, [r4, #28]
/home/aom1/Work/Linux/target/STM32MP1-DK2/bootloader/optee-os-custom/ta/pkcs11/src/object.c:122
     930:	4621      	mov	r1, r4
     932:	f001 f845 	bl	19c0 <destroy_object_uuid>
/home/aom1/Work/Linux/target/STM32MP1-DK2/bootloader/optee-os-custom/ta/pkcs11/src/object.c:124
     936:	4620      	mov	r0, r4
/home/aom1/Work/Linux/target/STM32MP1-DK2/bootloader/optee-os-custom/ta/pkcs11/src/object.c:125
     938:	b003      	add	sp, #12
     93a:	e8bd 4030 	ldmia.w	sp!, {r4, r5, lr}
/home/aom1/Work/Linux/target/STM32MP1-DK2/bootloader/optee-os-custom/ta/pkcs11/src/object.c:124
     93e:	e781      	b.n	844 <cleanup_volatile_obj_ref>
/home/aom1/Work/Linux/target/STM32MP1-DK2/bootloader/optee-os-custom/ta/pkcs11/src/object.c:125
     940:	b003      	add	sp, #12
     942:	bd30      	pop	{r4, r5, pc}

00000944 <destroy_object>:
destroy_object():
/home/aom1/Work/Linux/target/STM32MP1-DK2/bootloader/optee-os-custom/ta/pkcs11/src/object.c:136
     944:	b570      	push	{r4, r5, r6, lr}
     946:	4605      	mov	r5, r0
     948:	460c      	mov	r4, r1
/home/aom1/Work/Linux/target/STM32MP1-DK2/bootloader/optee-os-custom/ta/pkcs11/src/object.c:143
     94a:	4616      	mov	r6, r2
     94c:	b172      	cbz	r2, 96c <destroy_object+0x28>
/home/aom1/Work/Linux/target/STM32MP1-DK2/bootloader/optee-os-custom/ta/pkcs11/src/object.c:164
     94e:	f003 fd0d 	bl	436c <get_object_handle_db>
     952:	4606      	mov	r6, r0
     954:	4629      	mov	r1, r5
     956:	4620      	mov	r0, r4
     958:	f7ff ffc8 	bl	8ec <pkcs11_object2handle>
     95c:	4601      	mov	r1, r0
     95e:	4630      	mov	r0, r6
     960:	f011 fe24 	bl	125ac <handle_put>
/home/aom1/Work/Linux/target/STM32MP1-DK2/bootloader/optee-os-custom/ta/pkcs11/src/object.c:166
     964:	4620      	mov	r0, r4
/home/aom1/Work/Linux/target/STM32MP1-DK2/bootloader/optee-os-custom/ta/pkcs11/src/object.c:168
     966:	e8bd 4070 	ldmia.w	sp!, {r4, r5, r6, lr}
/home/aom1/Work/Linux/target/STM32MP1-DK2/bootloader/optee-os-custom/ta/pkcs11/src/object.c:166
     96a:	e76b      	b.n	844 <cleanup_volatile_obj_ref>
/home/aom1/Work/Linux/target/STM32MP1-DK2/bootloader/optee-os-custom/ta/pkcs11/src/object.c:153
     96c:	68a0      	ldr	r0, [r4, #8]
     96e:	2101      	movs	r1, #1
     970:	f7ff fc94 	bl	29c <get_bool>
     974:	b350      	cbz	r0, 9cc <destroy_object+0x88>
/home/aom1/Work/Linux/target/STM32MP1-DK2/bootloader/optee-os-custom/ta/pkcs11/src/object.c:154
     976:	69a1      	ldr	r1, [r4, #24]
     978:	b951      	cbnz	r1, 990 <destroy_object+0x4c>
     97a:	4b15      	ldr	r3, [pc, #84]	; (9d0 <destroy_object+0x8c>)
     97c:	229a      	movs	r2, #154	; 0x9a
     97e:	4915      	ldr	r1, [pc, #84]	; (9d4 <destroy_object+0x90>)
     980:	4815      	ldr	r0, [pc, #84]	; (9d8 <destroy_object+0x94>)
     982:	447b      	add	r3, pc
     984:	4479      	add	r1, pc
     986:	4478      	add	r0, pc
     988:	f009 fac2 	bl	9f10 <_assert_log>
     98c:	f009 fad4 	bl	9f38 <_assert_break>
/home/aom1/Work/Linux/target/STM32MP1-DK2/bootloader/optee-os-custom/ta/pkcs11/src/object.c:156
     990:	68e8      	ldr	r0, [r5, #12]
     992:	f001 f849 	bl	1a28 <unregister_persistent_object>
     996:	b138      	cbz	r0, 9a8 <destroy_object+0x64>
/home/aom1/Work/Linux/target/STM32MP1-DK2/bootloader/optee-os-custom/ta/pkcs11/src/object.c:157
     998:	69a1      	ldr	r1, [r4, #24]
     99a:	68e8      	ldr	r0, [r5, #12]
     99c:	f001 f844 	bl	1a28 <unregister_persistent_object>
/home/aom1/Work/Linux/target/STM32MP1-DK2/bootloader/optee-os-custom/ta/pkcs11/src/object.c:156
     9a0:	b110      	cbz	r0, 9a8 <destroy_object+0x64>
/home/aom1/Work/Linux/target/STM32MP1-DK2/bootloader/optee-os-custom/ta/pkcs11/src/object.c:158
     9a2:	4630      	mov	r0, r6
     9a4:	f00b ffcc 	bl	c940 <TEE_Panic>
/home/aom1/Work/Linux/target/STM32MP1-DK2/bootloader/optee-os-custom/ta/pkcs11/src/object.c:160
     9a8:	4628      	mov	r0, r5
     9aa:	f003 fcdf 	bl	436c <get_object_handle_db>
     9ae:	4606      	mov	r6, r0
     9b0:	4629      	mov	r1, r5
     9b2:	4620      	mov	r0, r4
     9b4:	f7ff ff9a 	bl	8ec <pkcs11_object2handle>
     9b8:	4601      	mov	r1, r0
     9ba:	4630      	mov	r0, r6
     9bc:	f011 fdf6 	bl	125ac <handle_put>
/home/aom1/Work/Linux/target/STM32MP1-DK2/bootloader/optee-os-custom/ta/pkcs11/src/object.c:162
     9c0:	68e9      	ldr	r1, [r5, #12]
     9c2:	4620      	mov	r0, r4
/home/aom1/Work/Linux/target/STM32MP1-DK2/bootloader/optee-os-custom/ta/pkcs11/src/object.c:168
     9c4:	e8bd 4070 	ldmia.w	sp!, {r4, r5, r6, lr}
/home/aom1/Work/Linux/target/STM32MP1-DK2/bootloader/optee-os-custom/ta/pkcs11/src/object.c:162
     9c8:	f7ff bf9a 	b.w	900 <cleanup_persistent_object>
/home/aom1/Work/Linux/target/STM32MP1-DK2/bootloader/optee-os-custom/ta/pkcs11/src/object.c:164
     9cc:	4628      	mov	r0, r5
     9ce:	e7be      	b.n	94e <destroy_object+0xa>
     9d0:	00012dc5 	.word	0x00012dc5
     9d4:	00012d55 	.word	0x00012d55
     9d8:	00012f5d 	.word	0x00012f5d

000009dc <create_token_object>:
create_token_object():
/home/aom1/Work/Linux/target/STM32MP1-DK2/bootloader/optee-os-custom/ta/pkcs11/src/object.c:190
     9dc:	b570      	push	{r4, r5, r6, lr}
     9de:	4606      	mov	r6, r0
     9e0:	460c      	mov	r4, r1
create_obj_instance():
/home/aom1/Work/Linux/target/STM32MP1-DK2/bootloader/optee-os-custom/ta/pkcs11/src/object.c:175
     9e2:	2020      	movs	r0, #32
     9e4:	2100      	movs	r1, #0
create_token_object():
/home/aom1/Work/Linux/target/STM32MP1-DK2/bootloader/optee-os-custom/ta/pkcs11/src/object.c:190
     9e6:	4615      	mov	r5, r2
create_obj_instance():
/home/aom1/Work/Linux/target/STM32MP1-DK2/bootloader/optee-os-custom/ta/pkcs11/src/object.c:175
     9e8:	f009 fd95 	bl	a516 <TEE_Malloc>
/home/aom1/Work/Linux/target/STM32MP1-DK2/bootloader/optee-os-custom/ta/pkcs11/src/object.c:176
     9ec:	b128      	cbz	r0, 9fa <create_token_object+0x1e>
/home/aom1/Work/Linux/target/STM32MP1-DK2/bootloader/optee-os-custom/ta/pkcs11/src/object.c:181
     9ee:	6086      	str	r6, [r0, #8]
/home/aom1/Work/Linux/target/STM32MP1-DK2/bootloader/optee-os-custom/ta/pkcs11/src/object.c:179
     9f0:	2300      	movs	r3, #0
     9f2:	60c3      	str	r3, [r0, #12]
/home/aom1/Work/Linux/target/STM32MP1-DK2/bootloader/optee-os-custom/ta/pkcs11/src/object.c:180
     9f4:	61c3      	str	r3, [r0, #28]
/home/aom1/Work/Linux/target/STM32MP1-DK2/bootloader/optee-os-custom/ta/pkcs11/src/object.c:182
     9f6:	6145      	str	r5, [r0, #20]
create_token_object():
/home/aom1/Work/Linux/target/STM32MP1-DK2/bootloader/optee-os-custom/ta/pkcs11/src/object.c:194
     9f8:	6184      	str	r4, [r0, #24]
/home/aom1/Work/Linux/target/STM32MP1-DK2/bootloader/optee-os-custom/ta/pkcs11/src/object.c:197
     9fa:	bd70      	pop	{r4, r5, r6, pc}

000009fc <create_object>:
create_object():
/home/aom1/Work/Linux/target/STM32MP1-DK2/bootloader/optee-os-custom/ta/pkcs11/src/object.c:208
     9fc:	e92d 47ff 	stmdb	sp!, {r0, r1, r2, r3, r4, r5, r6, r7, r8, r9, sl, lr}
     a00:	4605      	mov	r5, r0
     a02:	4e46      	ldr	r6, [pc, #280]	; (b1c <create_object+0x120>)
     a04:	4688      	mov	r8, r1
create_obj_instance():
/home/aom1/Work/Linux/target/STM32MP1-DK2/bootloader/optee-os-custom/ta/pkcs11/src/object.c:175
     a06:	2020      	movs	r0, #32
     a08:	2100      	movs	r1, #0
create_object():
/home/aom1/Work/Linux/target/STM32MP1-DK2/bootloader/optee-os-custom/ta/pkcs11/src/object.c:208
     a0a:	447e      	add	r6, pc
     a0c:	4691      	mov	r9, r2
create_obj_instance():
/home/aom1/Work/Linux/target/STM32MP1-DK2/bootloader/optee-os-custom/ta/pkcs11/src/object.c:175
     a0e:	f009 fd82 	bl	a516 <TEE_Malloc>
/home/aom1/Work/Linux/target/STM32MP1-DK2/bootloader/optee-os-custom/ta/pkcs11/src/object.c:176
     a12:	4604      	mov	r4, r0
     a14:	2800      	cmp	r0, #0
     a16:	d07e      	beq.n	b16 <create_object+0x11a>
/home/aom1/Work/Linux/target/STM32MP1-DK2/bootloader/optee-os-custom/ta/pkcs11/src/object.c:181
     a18:	f8c0 8008 	str.w	r8, [r0, #8]
/home/aom1/Work/Linux/target/STM32MP1-DK2/bootloader/optee-os-custom/ta/pkcs11/src/object.c:179
     a1c:	2300      	movs	r3, #0
     a1e:	60c3      	str	r3, [r0, #12]
/home/aom1/Work/Linux/target/STM32MP1-DK2/bootloader/optee-os-custom/ta/pkcs11/src/object.c:180
     a20:	61c3      	str	r3, [r0, #28]
/home/aom1/Work/Linux/target/STM32MP1-DK2/bootloader/optee-os-custom/ta/pkcs11/src/object.c:182
     a22:	6143      	str	r3, [r0, #20]
create_object():
/home/aom1/Work/Linux/target/STM32MP1-DK2/bootloader/optee-os-custom/ta/pkcs11/src/object.c:227
     a24:	4b3e      	ldr	r3, [pc, #248]	; (b20 <create_object+0x124>)
     a26:	58f3      	ldr	r3, [r6, r3]
     a28:	681a      	ldr	r2, [r3, #0]
     a2a:	6002      	str	r2, [r0, #0]
     a2c:	b102      	cbz	r2, a30 <create_object+0x34>
/home/aom1/Work/Linux/target/STM32MP1-DK2/bootloader/optee-os-custom/ta/pkcs11/src/object.c:227 (discriminator 1)
     a2e:	6050      	str	r0, [r2, #4]
/home/aom1/Work/Linux/target/STM32MP1-DK2/bootloader/optee-os-custom/ta/pkcs11/src/object.c:227 (discriminator 3)
     a30:	6063      	str	r3, [r4, #4]
/home/aom1/Work/Linux/target/STM32MP1-DK2/bootloader/optee-os-custom/ta/pkcs11/src/object.c:230 (discriminator 3)
     a32:	4628      	mov	r0, r5
/home/aom1/Work/Linux/target/STM32MP1-DK2/bootloader/optee-os-custom/ta/pkcs11/src/object.c:227 (discriminator 3)
     a34:	601c      	str	r4, [r3, #0]
/home/aom1/Work/Linux/target/STM32MP1-DK2/bootloader/optee-os-custom/ta/pkcs11/src/object.c:230 (discriminator 3)
     a36:	f003 fc99 	bl	436c <get_object_handle_db>
     a3a:	4621      	mov	r1, r4
     a3c:	f011 fd88 	bl	12550 <handle_get>
/home/aom1/Work/Linux/target/STM32MP1-DK2/bootloader/optee-os-custom/ta/pkcs11/src/object.c:231 (discriminator 3)
     a40:	4607      	mov	r7, r0
     a42:	2800      	cmp	r0, #0
     a44:	d061      	beq.n	b0a <create_object+0x10e>
/home/aom1/Work/Linux/target/STM32MP1-DK2/bootloader/optee-os-custom/ta/pkcs11/src/object.c:236
     a46:	68a0      	ldr	r0, [r4, #8]
     a48:	2101      	movs	r1, #1
     a4a:	f7ff fc27 	bl	29c <get_bool>
     a4e:	2800      	cmp	r0, #0
     a50:	d04e      	beq.n	af0 <create_object+0xf4>
/home/aom1/Work/Linux/target/STM32MP1-DK2/bootloader/optee-os-custom/ta/pkcs11/src/object.c:246
     a52:	68a3      	ldr	r3, [r4, #8]
/home/aom1/Work/Linux/target/STM32MP1-DK2/bootloader/optee-os-custom/ta/pkcs11/src/object.c:251
     a54:	4621      	mov	r1, r4
     a56:	68e8      	ldr	r0, [r5, #12]
/home/aom1/Work/Linux/target/STM32MP1-DK2/bootloader/optee-os-custom/ta/pkcs11/src/object.c:246
     a58:	f8d3 a000 	ldr.w	sl, [r3]
/home/aom1/Work/Linux/target/STM32MP1-DK2/bootloader/optee-os-custom/ta/pkcs11/src/object.c:251
     a5c:	f000 ff81 	bl	1962 <create_object_uuid>
/home/aom1/Work/Linux/target/STM32MP1-DK2/bootloader/optee-os-custom/ta/pkcs11/src/object.c:252
     a60:	4606      	mov	r6, r0
     a62:	b990      	cbnz	r0, a8a <create_object+0x8e>
/home/aom1/Work/Linux/target/STM32MP1-DK2/bootloader/optee-os-custom/ta/pkcs11/src/object.c:255
     a64:	f104 031c 	add.w	r3, r4, #28
     a68:	2210      	movs	r2, #16
     a6a:	9303      	str	r3, [sp, #12]
/home/aom1/Work/Linux/target/STM32MP1-DK2/bootloader/optee-os-custom/ta/pkcs11/src/object.c:245
     a6c:	f10a 0308 	add.w	r3, sl, #8
/home/aom1/Work/Linux/target/STM32MP1-DK2/bootloader/optee-os-custom/ta/pkcs11/src/object.c:255
     a70:	9302      	str	r3, [sp, #8]
     a72:	68a3      	ldr	r3, [r4, #8]
     a74:	9000      	str	r0, [sp, #0]
     a76:	2001      	movs	r0, #1
     a78:	9301      	str	r3, [sp, #4]
     a7a:	2307      	movs	r3, #7
     a7c:	69a1      	ldr	r1, [r4, #24]
     a7e:	f009 ffe3 	bl	aa48 <TEE_CreatePersistentObject>
/home/aom1/Work/Linux/target/STM32MP1-DK2/bootloader/optee-os-custom/ta/pkcs11/src/object.c:261
     a82:	b1a8      	cbz	r0, ab0 <create_object+0xb4>
/home/aom1/Work/Linux/target/STM32MP1-DK2/bootloader/optee-os-custom/ta/pkcs11/src/object.c:262
     a84:	f003 f81a 	bl	3abc <tee2pkcs_error>
     a88:	4606      	mov	r6, r0
/home/aom1/Work/Linux/target/STM32MP1-DK2/bootloader/optee-os-custom/ta/pkcs11/src/object.c:288
     a8a:	2300      	movs	r3, #0
/home/aom1/Work/Linux/target/STM32MP1-DK2/bootloader/optee-os-custom/ta/pkcs11/src/object.c:289
     a8c:	4628      	mov	r0, r5
/home/aom1/Work/Linux/target/STM32MP1-DK2/bootloader/optee-os-custom/ta/pkcs11/src/object.c:288
     a8e:	60a3      	str	r3, [r4, #8]
/home/aom1/Work/Linux/target/STM32MP1-DK2/bootloader/optee-os-custom/ta/pkcs11/src/object.c:289
     a90:	f003 fc6c 	bl	436c <get_object_handle_db>
     a94:	4639      	mov	r1, r7
     a96:	f011 fd89 	bl	125ac <handle_put>
/home/aom1/Work/Linux/target/STM32MP1-DK2/bootloader/optee-os-custom/ta/pkcs11/src/object.c:290
     a9a:	2101      	movs	r1, #1
     a9c:	4640      	mov	r0, r8
     a9e:	f7ff fbfd 	bl	29c <get_bool>
     aa2:	2800      	cmp	r0, #0
     aa4:	d033      	beq.n	b0e <create_object+0x112>
/home/aom1/Work/Linux/target/STM32MP1-DK2/bootloader/optee-os-custom/ta/pkcs11/src/object.c:291
     aa6:	68e9      	ldr	r1, [r5, #12]
     aa8:	4620      	mov	r0, r4
     aaa:	f7ff ff29 	bl	900 <cleanup_persistent_object>
     aae:	e01b      	b.n	ae8 <create_object+0xec>
/home/aom1/Work/Linux/target/STM32MP1-DK2/bootloader/optee-os-custom/ta/pkcs11/src/object.c:266
     ab0:	69a1      	ldr	r1, [r4, #24]
     ab2:	68e8      	ldr	r0, [r5, #12]
     ab4:	f001 f812 	bl	1adc <register_persistent_object>
/home/aom1/Work/Linux/target/STM32MP1-DK2/bootloader/optee-os-custom/ta/pkcs11/src/object.c:268
     ab8:	4606      	mov	r6, r0
     aba:	2800      	cmp	r0, #0
     abc:	d1e5      	bne.n	a8a <create_object+0x8e>
/home/aom1/Work/Linux/target/STM32MP1-DK2/bootloader/optee-os-custom/ta/pkcs11/src/object.c:271
     abe:	69e0      	ldr	r0, [r4, #28]
     ac0:	f009 fe5a 	bl	a778 <TEE_CloseObject>
/home/aom1/Work/Linux/target/STM32MP1-DK2/bootloader/optee-os-custom/ta/pkcs11/src/object.c:275
     ac4:	6823      	ldr	r3, [r4, #0]
/home/aom1/Work/Linux/target/STM32MP1-DK2/bootloader/optee-os-custom/ta/pkcs11/src/object.c:272
     ac6:	61e6      	str	r6, [r4, #28]
/home/aom1/Work/Linux/target/STM32MP1-DK2/bootloader/optee-os-custom/ta/pkcs11/src/object.c:275
     ac8:	b10b      	cbz	r3, ace <create_object+0xd2>
/home/aom1/Work/Linux/target/STM32MP1-DK2/bootloader/optee-os-custom/ta/pkcs11/src/object.c:275 (discriminator 1)
     aca:	6862      	ldr	r2, [r4, #4]
     acc:	605a      	str	r2, [r3, #4]
/home/aom1/Work/Linux/target/STM32MP1-DK2/bootloader/optee-os-custom/ta/pkcs11/src/object.c:276 (discriminator 3)
     ace:	68ed      	ldr	r5, [r5, #12]
/home/aom1/Work/Linux/target/STM32MP1-DK2/bootloader/optee-os-custom/ta/pkcs11/src/object.c:275 (discriminator 3)
     ad0:	6862      	ldr	r2, [r4, #4]
     ad2:	6013      	str	r3, [r2, #0]
/home/aom1/Work/Linux/target/STM32MP1-DK2/bootloader/optee-os-custom/ta/pkcs11/src/object.c:276 (discriminator 3)
     ad4:	68eb      	ldr	r3, [r5, #12]
     ad6:	6023      	str	r3, [r4, #0]
     ad8:	b103      	cbz	r3, adc <create_object+0xe0>
/home/aom1/Work/Linux/target/STM32MP1-DK2/bootloader/optee-os-custom/ta/pkcs11/src/object.c:276 (discriminator 1)
     ada:	605c      	str	r4, [r3, #4]
/home/aom1/Work/Linux/target/STM32MP1-DK2/bootloader/optee-os-custom/ta/pkcs11/src/object.c:276 (discriminator 3)
     adc:	f845 4f0c 	str.w	r4, [r5, #12]!
/home/aom1/Work/Linux/target/STM32MP1-DK2/bootloader/optee-os-custom/ta/pkcs11/src/object.c:276 (discriminator 4)
     ae0:	6065      	str	r5, [r4, #4]
/home/aom1/Work/Linux/target/STM32MP1-DK2/bootloader/optee-os-custom/ta/pkcs11/src/object.c:285 (discriminator 4)
     ae2:	2600      	movs	r6, #0
/home/aom1/Work/Linux/target/STM32MP1-DK2/bootloader/optee-os-custom/ta/pkcs11/src/object.c:283 (discriminator 4)
     ae4:	f8c9 7000 	str.w	r7, [r9]
/home/aom1/Work/Linux/target/STM32MP1-DK2/bootloader/optee-os-custom/ta/pkcs11/src/object.c:296
     ae8:	4630      	mov	r0, r6
     aea:	b004      	add	sp, #16
     aec:	e8bd 87f0 	ldmia.w	sp!, {r4, r5, r6, r7, r8, r9, sl, pc}
/home/aom1/Work/Linux/target/STM32MP1-DK2/bootloader/optee-os-custom/ta/pkcs11/src/object.c:279
     af0:	6823      	ldr	r3, [r4, #0]
     af2:	b10b      	cbz	r3, af8 <create_object+0xfc>
/home/aom1/Work/Linux/target/STM32MP1-DK2/bootloader/optee-os-custom/ta/pkcs11/src/object.c:279 (discriminator 1)
     af4:	6862      	ldr	r2, [r4, #4]
     af6:	605a      	str	r2, [r3, #4]
/home/aom1/Work/Linux/target/STM32MP1-DK2/bootloader/optee-os-custom/ta/pkcs11/src/object.c:279 (discriminator 3)
     af8:	6862      	ldr	r2, [r4, #4]
     afa:	6013      	str	r3, [r2, #0]
/home/aom1/Work/Linux/target/STM32MP1-DK2/bootloader/optee-os-custom/ta/pkcs11/src/object.c:280 (discriminator 3)
     afc:	696b      	ldr	r3, [r5, #20]
     afe:	6023      	str	r3, [r4, #0]
     b00:	b103      	cbz	r3, b04 <create_object+0x108>
/home/aom1/Work/Linux/target/STM32MP1-DK2/bootloader/optee-os-custom/ta/pkcs11/src/object.c:280
     b02:	605c      	str	r4, [r3, #4]
/home/aom1/Work/Linux/target/STM32MP1-DK2/bootloader/optee-os-custom/ta/pkcs11/src/object.c:280 (discriminator 3)
     b04:	f845 4f14 	str.w	r4, [r5, #20]!
     b08:	e7ea      	b.n	ae0 <create_object+0xe4>
/home/aom1/Work/Linux/target/STM32MP1-DK2/bootloader/optee-os-custom/ta/pkcs11/src/object.c:232
     b0a:	2631      	movs	r6, #49	; 0x31
     b0c:	e7bd      	b.n	a8a <create_object+0x8e>
/home/aom1/Work/Linux/target/STM32MP1-DK2/bootloader/optee-os-custom/ta/pkcs11/src/object.c:293
     b0e:	4620      	mov	r0, r4
     b10:	f7ff fe98 	bl	844 <cleanup_volatile_obj_ref>
     b14:	e7e8      	b.n	ae8 <create_object+0xec>
/home/aom1/Work/Linux/target/STM32MP1-DK2/bootloader/optee-os-custom/ta/pkcs11/src/object.c:225
     b16:	2631      	movs	r6, #49	; 0x31
     b18:	e7e6      	b.n	ae8 <create_object+0xec>
     b1a:	bf00      	nop
     b1c:	0001867a 	.word	0x0001867a
     b20:	00000028 	.word	0x00000028

00000b24 <entry_create_object>:
entry_create_object():
/home/aom1/Work/Linux/target/STM32MP1-DK2/bootloader/optee-os-custom/ta/pkcs11/src/object.c:308
     b24:	efc0 0010 	vmov.i32	d16, #0	; 0x00000000
/home/aom1/Work/Linux/target/STM32MP1-DK2/bootloader/optee-os-custom/ta/pkcs11/src/object.c:300
     b28:	b5f0      	push	{r4, r5, r6, r7, lr}
     b2a:	b08d      	sub	sp, #52	; 0x34
/home/aom1/Work/Linux/target/STM32MP1-DK2/bootloader/optee-os-custom/ta/pkcs11/src/object.c:309
     b2c:	2300      	movs	r3, #0
/home/aom1/Work/Linux/target/STM32MP1-DK2/bootloader/optee-os-custom/ta/pkcs11/src/object.c:300
     b2e:	4615      	mov	r5, r2
/home/aom1/Work/Linux/target/STM32MP1-DK2/bootloader/optee-os-custom/ta/pkcs11/src/object.c:308
     b30:	edcd 0b09 	vstr	d16, [sp, #36]	; 0x24
/home/aom1/Work/Linux/target/STM32MP1-DK2/bootloader/optee-os-custom/ta/pkcs11/src/object.c:309
     b34:	9305      	str	r3, [sp, #20]
/home/aom1/Work/Linux/target/STM32MP1-DK2/bootloader/optee-os-custom/ta/pkcs11/src/object.c:308
     b36:	ae09      	add	r6, sp, #36	; 0x24
     b38:	edcd 0b0a 	vstr	d16, [sp, #40]	; 0x28
/home/aom1/Work/Linux/target/STM32MP1-DK2/bootloader/optee-os-custom/ta/pkcs11/src/object.c:313
     b3c:	9308      	str	r3, [sp, #32]
/home/aom1/Work/Linux/target/STM32MP1-DK2/bootloader/optee-os-custom/ta/pkcs11/src/object.c:319
     b3e:	4604      	mov	r4, r0
/home/aom1/Work/Linux/target/STM32MP1-DK2/bootloader/optee-os-custom/ta/pkcs11/src/object.c:311
     b40:	e9cd 3306 	strd	r3, r3, [sp, #24]
/home/aom1/Work/Linux/target/STM32MP1-DK2/bootloader/optee-os-custom/ta/pkcs11/src/object.c:319
     b44:	2800      	cmp	r0, #0
     b46:	d062      	beq.n	c0e <entry_create_object+0xea>
/home/aom1/Work/Linux/target/STM32MP1-DK2/bootloader/optee-os-custom/ta/pkcs11/src/object.c:319 (discriminator 1)
     b48:	f240 6307 	movw	r3, #1543	; 0x607
     b4c:	4299      	cmp	r1, r3
     b4e:	d15e      	bne.n	c0e <entry_create_object+0xea>
/home/aom1/Work/Linux/target/STM32MP1-DK2/bootloader/optee-os-custom/ta/pkcs11/src/object.c:319 (discriminator 2)
     b50:	6953      	ldr	r3, [r2, #20]
     b52:	2b04      	cmp	r3, #4
     b54:	d15b      	bne.n	c0e <entry_create_object+0xea>
/home/aom1/Work/Linux/target/STM32MP1-DK2/bootloader/optee-os-custom/ta/pkcs11/src/object.c:323
     b56:	e9d2 1200 	ldrd	r1, r2, [r2]
     b5a:	4630      	mov	r0, r6
     b5c:	f008 faa4 	bl	90a8 <serialargs_init>
/home/aom1/Work/Linux/target/STM32MP1-DK2/bootloader/optee-os-custom/ta/pkcs11/src/object.c:325
     b60:	4621      	mov	r1, r4
     b62:	aa05      	add	r2, sp, #20
     b64:	4630      	mov	r0, r6
     b66:	f008 fb67 	bl	9238 <serialargs_get_session_from_handle>
/home/aom1/Work/Linux/target/STM32MP1-DK2/bootloader/optee-os-custom/ta/pkcs11/src/object.c:326
     b6a:	4604      	mov	r4, r0
     b6c:	2800      	cmp	r0, #0
     b6e:	d149      	bne.n	c04 <entry_create_object+0xe0>
/home/aom1/Work/Linux/target/STM32MP1-DK2/bootloader/optee-os-custom/ta/pkcs11/src/object.c:329
     b70:	a907      	add	r1, sp, #28
     b72:	4630      	mov	r0, r6
     b74:	f008 fb37 	bl	91e6 <serialargs_alloc_get_attributes>
/home/aom1/Work/Linux/target/STM32MP1-DK2/bootloader/optee-os-custom/ta/pkcs11/src/object.c:330
     b78:	4604      	mov	r4, r0
     b7a:	2800      	cmp	r0, #0
     b7c:	d142      	bne.n	c04 <entry_create_object+0xe0>
/home/aom1/Work/Linux/target/STM32MP1-DK2/bootloader/optee-os-custom/ta/pkcs11/src/object.c:333
     b7e:	4630      	mov	r0, r6
     b80:	f008 fb51 	bl	9226 <serialargs_remaining_bytes>
     b84:	4606      	mov	r6, r0
     b86:	2800      	cmp	r0, #0
     b88:	d13f      	bne.n	c0a <entry_create_object+0xe6>
/home/aom1/Work/Linux/target/STM32MP1-DK2/bootloader/optee-os-custom/ta/pkcs11/src/object.c:338
     b8a:	9907      	ldr	r1, [sp, #28]
/home/aom1/Work/Linux/target/STM32MP1-DK2/bootloader/optee-os-custom/ta/pkcs11/src/object.c:344
     b8c:	f04f 33ff 	mov.w	r3, #4294967295	; 0xffffffff
     b90:	f04f 4700 	mov.w	r7, #2147483648	; 0x80000000
     b94:	a806      	add	r0, sp, #24
/home/aom1/Work/Linux/target/STM32MP1-DK2/bootloader/optee-os-custom/ta/pkcs11/src/object.c:338
     b96:	680a      	ldr	r2, [r1, #0]
/home/aom1/Work/Linux/target/STM32MP1-DK2/bootloader/optee-os-custom/ta/pkcs11/src/object.c:344
     b98:	9302      	str	r3, [sp, #8]
     b9a:	230c      	movs	r3, #12
     b9c:	9300      	str	r3, [sp, #0]
     b9e:	3208      	adds	r2, #8
     ba0:	9701      	str	r7, [sp, #4]
     ba2:	4623      	mov	r3, r4
     ba4:	f001 fc80 	bl	24a8 <create_attributes_from_template>
     ba8:	4604      	mov	r4, r0
/home/aom1/Work/Linux/target/STM32MP1-DK2/bootloader/optee-os-custom/ta/pkcs11/src/object.c:348
     baa:	9807      	ldr	r0, [sp, #28]
     bac:	f009 fcdc 	bl	a568 <TEE_Free>
/home/aom1/Work/Linux/target/STM32MP1-DK2/bootloader/optee-os-custom/ta/pkcs11/src/object.c:349
     bb0:	9607      	str	r6, [sp, #28]
/home/aom1/Work/Linux/target/STM32MP1-DK2/bootloader/optee-os-custom/ta/pkcs11/src/object.c:350
     bb2:	bb0c      	cbnz	r4, bf8 <entry_create_object+0xd4>
/home/aom1/Work/Linux/target/STM32MP1-DK2/bootloader/optee-os-custom/ta/pkcs11/src/object.c:357
     bb4:	9906      	ldr	r1, [sp, #24]
     bb6:	4638      	mov	r0, r7
     bb8:	f002 fa07 	bl	2fca <check_created_attrs_against_processing>
/home/aom1/Work/Linux/target/STM32MP1-DK2/bootloader/optee-os-custom/ta/pkcs11/src/object.c:359
     bbc:	4604      	mov	r4, r0
     bbe:	b9d8      	cbnz	r0, bf8 <entry_create_object+0xd4>
/home/aom1/Work/Linux/target/STM32MP1-DK2/bootloader/optee-os-custom/ta/pkcs11/src/object.c:362
     bc0:	9906      	ldr	r1, [sp, #24]
     bc2:	9805      	ldr	r0, [sp, #20]
     bc4:	f002 f9cd 	bl	2f62 <check_created_attrs_against_token>
/home/aom1/Work/Linux/target/STM32MP1-DK2/bootloader/optee-os-custom/ta/pkcs11/src/object.c:363
     bc8:	4604      	mov	r4, r0
     bca:	b9a8      	cbnz	r0, bf8 <entry_create_object+0xd4>
/home/aom1/Work/Linux/target/STM32MP1-DK2/bootloader/optee-os-custom/ta/pkcs11/src/object.c:366
     bcc:	9906      	ldr	r1, [sp, #24]
     bce:	9805      	ldr	r0, [sp, #20]
     bd0:	f002 f9ac 	bl	2f2c <check_access_attrs_against_token>
/home/aom1/Work/Linux/target/STM32MP1-DK2/bootloader/optee-os-custom/ta/pkcs11/src/object.c:367
     bd4:	4604      	mov	r4, r0
     bd6:	b978      	cbnz	r0, bf8 <entry_create_object+0xd4>
/home/aom1/Work/Linux/target/STM32MP1-DK2/bootloader/optee-os-custom/ta/pkcs11/src/object.c:375
     bd8:	9906      	ldr	r1, [sp, #24]
     bda:	ae08      	add	r6, sp, #32
     bdc:	9805      	ldr	r0, [sp, #20]
     bde:	4632      	mov	r2, r6
     be0:	f7ff ff0c 	bl	9fc <create_object>
/home/aom1/Work/Linux/target/STM32MP1-DK2/bootloader/optee-os-custom/ta/pkcs11/src/object.c:376
     be4:	4604      	mov	r4, r0
     be6:	b938      	cbnz	r0, bf8 <entry_create_object+0xd4>
/home/aom1/Work/Linux/target/STM32MP1-DK2/bootloader/optee-os-custom/ta/pkcs11/src/object.c:386
     be8:	9006      	str	r0, [sp, #24]
/home/aom1/Work/Linux/target/STM32MP1-DK2/bootloader/optee-os-custom/ta/pkcs11/src/object.c:388
     bea:	2204      	movs	r2, #4
     bec:	6928      	ldr	r0, [r5, #16]
     bee:	4631      	mov	r1, r6
     bf0:	f009 fc34 	bl	a45c <TEE_MemMove>
/home/aom1/Work/Linux/target/STM32MP1-DK2/bootloader/optee-os-custom/ta/pkcs11/src/object.c:389
     bf4:	2304      	movs	r3, #4
     bf6:	616b      	str	r3, [r5, #20]
/home/aom1/Work/Linux/target/STM32MP1-DK2/bootloader/optee-os-custom/ta/pkcs11/src/object.c:395
     bf8:	9807      	ldr	r0, [sp, #28]
     bfa:	f009 fcb5 	bl	a568 <TEE_Free>
/home/aom1/Work/Linux/target/STM32MP1-DK2/bootloader/optee-os-custom/ta/pkcs11/src/object.c:396
     bfe:	9806      	ldr	r0, [sp, #24]
     c00:	f009 fcb2 	bl	a568 <TEE_Free>
/home/aom1/Work/Linux/target/STM32MP1-DK2/bootloader/optee-os-custom/ta/pkcs11/src/object.c:399
     c04:	4620      	mov	r0, r4
     c06:	b00d      	add	sp, #52	; 0x34
     c08:	bdf0      	pop	{r4, r5, r6, r7, pc}
/home/aom1/Work/Linux/target/STM32MP1-DK2/bootloader/optee-os-custom/ta/pkcs11/src/object.c:334
     c0a:	2407      	movs	r4, #7
     c0c:	e7f4      	b.n	bf8 <entry_create_object+0xd4>
/home/aom1/Work/Linux/target/STM32MP1-DK2/bootloader/optee-os-custom/ta/pkcs11/src/object.c:321
     c0e:	2407      	movs	r4, #7
     c10:	e7f8      	b.n	c04 <entry_create_object+0xe0>

00000c12 <entry_destroy_object>:
entry_destroy_object():
/home/aom1/Work/Linux/target/STM32MP1-DK2/bootloader/optee-os-custom/ta/pkcs11/src/object.c:410
     c12:	efc0 0010 	vmov.i32	d16, #0	; 0x00000000
/home/aom1/Work/Linux/target/STM32MP1-DK2/bootloader/optee-os-custom/ta/pkcs11/src/object.c:403
     c16:	b530      	push	{r4, r5, lr}
     c18:	b087      	sub	sp, #28
     c1a:	4613      	mov	r3, r2
/home/aom1/Work/Linux/target/STM32MP1-DK2/bootloader/optee-os-custom/ta/pkcs11/src/object.c:411
     c1c:	2200      	movs	r2, #0
/home/aom1/Work/Linux/target/STM32MP1-DK2/bootloader/optee-os-custom/ta/pkcs11/src/object.c:410
     c1e:	edcd 0b03 	vstr	d16, [sp, #12]
/home/aom1/Work/Linux/target/STM32MP1-DK2/bootloader/optee-os-custom/ta/pkcs11/src/object.c:411
     c22:	9201      	str	r2, [sp, #4]
/home/aom1/Work/Linux/target/STM32MP1-DK2/bootloader/optee-os-custom/ta/pkcs11/src/object.c:410
     c24:	ad03      	add	r5, sp, #12
     c26:	edcd 0b04 	vstr	d16, [sp, #16]
/home/aom1/Work/Linux/target/STM32MP1-DK2/bootloader/optee-os-custom/ta/pkcs11/src/object.c:412
     c2a:	9202      	str	r2, [sp, #8]
/home/aom1/Work/Linux/target/STM32MP1-DK2/bootloader/optee-os-custom/ta/pkcs11/src/object.c:415
     c2c:	4604      	mov	r4, r0
     c2e:	b918      	cbnz	r0, c38 <entry_destroy_object+0x26>
/home/aom1/Work/Linux/target/STM32MP1-DK2/bootloader/optee-os-custom/ta/pkcs11/src/object.c:416
     c30:	2407      	movs	r4, #7
/home/aom1/Work/Linux/target/STM32MP1-DK2/bootloader/optee-os-custom/ta/pkcs11/src/object.c:459
     c32:	4620      	mov	r0, r4
     c34:	b007      	add	sp, #28
     c36:	bd30      	pop	{r4, r5, pc}
/home/aom1/Work/Linux/target/STM32MP1-DK2/bootloader/optee-os-custom/ta/pkcs11/src/object.c:415 (discriminator 1)
     c38:	2907      	cmp	r1, #7
     c3a:	d1f9      	bne.n	c30 <entry_destroy_object+0x1e>
/home/aom1/Work/Linux/target/STM32MP1-DK2/bootloader/optee-os-custom/ta/pkcs11/src/object.c:418
     c3c:	e9d3 1200 	ldrd	r1, r2, [r3]
     c40:	4628      	mov	r0, r5
     c42:	f008 fa31 	bl	90a8 <serialargs_init>
/home/aom1/Work/Linux/target/STM32MP1-DK2/bootloader/optee-os-custom/ta/pkcs11/src/object.c:420
     c46:	4621      	mov	r1, r4
     c48:	aa02      	add	r2, sp, #8
     c4a:	4628      	mov	r0, r5
     c4c:	f008 faf4 	bl	9238 <serialargs_get_session_from_handle>
/home/aom1/Work/Linux/target/STM32MP1-DK2/bootloader/optee-os-custom/ta/pkcs11/src/object.c:421
     c50:	4604      	mov	r4, r0
     c52:	2800      	cmp	r0, #0
     c54:	d1ed      	bne.n	c32 <entry_destroy_object+0x20>
serialargs_get_u32():
/home/aom1/Work/Linux/target/STM32MP1-DK2/bootloader/optee-os-custom/ta/pkcs11/src/serializer.h:56
     c56:	2204      	movs	r2, #4
     c58:	4628      	mov	r0, r5
     c5a:	eb0d 0102 	add.w	r1, sp, r2
     c5e:	f008 fa53 	bl	9108 <serialargs_get>
entry_destroy_object():
/home/aom1/Work/Linux/target/STM32MP1-DK2/bootloader/optee-os-custom/ta/pkcs11/src/object.c:425
     c62:	4604      	mov	r4, r0
     c64:	2800      	cmp	r0, #0
     c66:	d1e4      	bne.n	c32 <entry_destroy_object+0x20>
/home/aom1/Work/Linux/target/STM32MP1-DK2/bootloader/optee-os-custom/ta/pkcs11/src/object.c:428
     c68:	4628      	mov	r0, r5
     c6a:	f008 fadc 	bl	9226 <serialargs_remaining_bytes>
     c6e:	2800      	cmp	r0, #0
     c70:	d1de      	bne.n	c30 <entry_destroy_object+0x1e>
/home/aom1/Work/Linux/target/STM32MP1-DK2/bootloader/optee-os-custom/ta/pkcs11/src/object.c:431
     c72:	9902      	ldr	r1, [sp, #8]
     c74:	9801      	ldr	r0, [sp, #4]
     c76:	f7ff fe28 	bl	8ca <pkcs11_handle2object>
/home/aom1/Work/Linux/target/STM32MP1-DK2/bootloader/optee-os-custom/ta/pkcs11/src/object.c:432
     c7a:	4605      	mov	r5, r0
     c7c:	b1d8      	cbz	r0, cb6 <entry_destroy_object+0xa4>
/home/aom1/Work/Linux/target/STM32MP1-DK2/bootloader/optee-os-custom/ta/pkcs11/src/object.c:436
     c7e:	6880      	ldr	r0, [r0, #8]
     c80:	2101      	movs	r1, #1
     c82:	f7ff fb0b 	bl	29c <get_bool>
     c86:	b120      	cbz	r0, c92 <entry_destroy_object+0x80>
pkcs11_session_is_read_write():
/home/aom1/Work/Linux/target/STM32MP1-DK2/bootloader/optee-os-custom/ta/pkcs11/src/pkcs11_token.h:291 (discriminator 1)
     c88:	9b02      	ldr	r3, [sp, #8]
/home/aom1/Work/Linux/target/STM32MP1-DK2/bootloader/optee-os-custom/ta/pkcs11/src/pkcs11_token.h:292 (discriminator 1)
     c8a:	699b      	ldr	r3, [r3, #24]
     c8c:	3b02      	subs	r3, #2
entry_destroy_object():
/home/aom1/Work/Linux/target/STM32MP1-DK2/bootloader/optee-os-custom/ta/pkcs11/src/object.c:436 (discriminator 1)
     c8e:	2b02      	cmp	r3, #2
     c90:	d813      	bhi.n	cba <entry_destroy_object+0xa8>
/home/aom1/Work/Linux/target/STM32MP1-DK2/bootloader/optee-os-custom/ta/pkcs11/src/object.c:445
     c92:	68a9      	ldr	r1, [r5, #8]
     c94:	9802      	ldr	r0, [sp, #8]
     c96:	f002 f949 	bl	2f2c <check_access_attrs_against_token>
/home/aom1/Work/Linux/target/STM32MP1-DK2/bootloader/optee-os-custom/ta/pkcs11/src/object.c:446
     c9a:	4604      	mov	r4, r0
     c9c:	b978      	cbnz	r0, cbe <entry_destroy_object+0xac>
/home/aom1/Work/Linux/target/STM32MP1-DK2/bootloader/optee-os-custom/ta/pkcs11/src/object.c:450
     c9e:	68a8      	ldr	r0, [r5, #8]
     ca0:	f44f 71b9 	mov.w	r1, #370	; 0x172
     ca4:	f7ff fafa 	bl	29c <get_bool>
     ca8:	b160      	cbz	r0, cc4 <entry_destroy_object+0xb2>
/home/aom1/Work/Linux/target/STM32MP1-DK2/bootloader/optee-os-custom/ta/pkcs11/src/object.c:453
     caa:	9802      	ldr	r0, [sp, #8]
     cac:	4622      	mov	r2, r4
     cae:	4629      	mov	r1, r5
     cb0:	f7ff fe48 	bl	944 <destroy_object>
/home/aom1/Work/Linux/target/STM32MP1-DK2/bootloader/optee-os-custom/ta/pkcs11/src/object.c:458
     cb4:	e7bd      	b.n	c32 <entry_destroy_object+0x20>
/home/aom1/Work/Linux/target/STM32MP1-DK2/bootloader/optee-os-custom/ta/pkcs11/src/object.c:433
     cb6:	2482      	movs	r4, #130	; 0x82
     cb8:	e7bb      	b.n	c32 <entry_destroy_object+0x20>
/home/aom1/Work/Linux/target/STM32MP1-DK2/bootloader/optee-os-custom/ta/pkcs11/src/object.c:439
     cba:	24b5      	movs	r4, #181	; 0xb5
     cbc:	e7b9      	b.n	c32 <entry_destroy_object+0x20>
/home/aom1/Work/Linux/target/STM32MP1-DK2/bootloader/optee-os-custom/ta/pkcs11/src/object.c:447
     cbe:	f240 1401 	movw	r4, #257	; 0x101
     cc2:	e7b6      	b.n	c32 <entry_destroy_object+0x20>
/home/aom1/Work/Linux/target/STM32MP1-DK2/bootloader/optee-os-custom/ta/pkcs11/src/object.c:451
     cc4:	241b      	movs	r4, #27
     cc6:	e7b4      	b.n	c32 <entry_destroy_object+0x20>

00000cc8 <entry_find_objects_init>:
entry_find_objects_init():
/home/aom1/Work/Linux/target/STM32MP1-DK2/bootloader/optee-os-custom/ta/pkcs11/src/object.c:497
     cc8:	efc0 0010 	vmov.i32	d16, #0	; 0x00000000
/home/aom1/Work/Linux/target/STM32MP1-DK2/bootloader/optee-os-custom/ta/pkcs11/src/object.c:490
     ccc:	e92d 41f0 	stmdb	sp!, {r4, r5, r6, r7, r8, lr}
     cd0:	b08a      	sub	sp, #40	; 0x28
/home/aom1/Work/Linux/target/STM32MP1-DK2/bootloader/optee-os-custom/ta/pkcs11/src/object.c:498
     cd2:	2500      	movs	r5, #0
/home/aom1/Work/Linux/target/STM32MP1-DK2/bootloader/optee-os-custom/ta/pkcs11/src/object.c:497
     cd4:	af07      	add	r7, sp, #28
     cd6:	edcd 0b07 	vstr	d16, [sp, #28]
/home/aom1/Work/Linux/target/STM32MP1-DK2/bootloader/optee-os-custom/ta/pkcs11/src/object.c:501
     cda:	9506      	str	r5, [sp, #24]
/home/aom1/Work/Linux/target/STM32MP1-DK2/bootloader/optee-os-custom/ta/pkcs11/src/object.c:506
     cdc:	4604      	mov	r4, r0
/home/aom1/Work/Linux/target/STM32MP1-DK2/bootloader/optee-os-custom/ta/pkcs11/src/object.c:497
     cde:	edcd 0b08 	vstr	d16, [sp, #32]
/home/aom1/Work/Linux/target/STM32MP1-DK2/bootloader/optee-os-custom/ta/pkcs11/src/object.c:500
     ce2:	e9cd 5504 	strd	r5, r5, [sp, #16]
/home/aom1/Work/Linux/target/STM32MP1-DK2/bootloader/optee-os-custom/ta/pkcs11/src/object.c:506
     ce6:	2800      	cmp	r0, #0
     ce8:	f000 80e1 	beq.w	eae <entry_find_objects_init+0x1e6>
/home/aom1/Work/Linux/target/STM32MP1-DK2/bootloader/optee-os-custom/ta/pkcs11/src/object.c:506 (discriminator 1)
     cec:	2907      	cmp	r1, #7
     cee:	f040 80de 	bne.w	eae <entry_find_objects_init+0x1e6>
/home/aom1/Work/Linux/target/STM32MP1-DK2/bootloader/optee-os-custom/ta/pkcs11/src/object.c:509
     cf2:	e9d2 1200 	ldrd	r1, r2, [r2]
     cf6:	4638      	mov	r0, r7
     cf8:	f008 f9d6 	bl	90a8 <serialargs_init>
/home/aom1/Work/Linux/target/STM32MP1-DK2/bootloader/optee-os-custom/ta/pkcs11/src/object.c:511
     cfc:	4621      	mov	r1, r4
     cfe:	aa04      	add	r2, sp, #16
     d00:	4638      	mov	r0, r7
     d02:	f008 fa99 	bl	9238 <serialargs_get_session_from_handle>
/home/aom1/Work/Linux/target/STM32MP1-DK2/bootloader/optee-os-custom/ta/pkcs11/src/object.c:512
     d06:	4604      	mov	r4, r0
     d08:	bb78      	cbnz	r0, d6a <entry_find_objects_init+0xa2>
/home/aom1/Work/Linux/target/STM32MP1-DK2/bootloader/optee-os-custom/ta/pkcs11/src/object.c:515
     d0a:	a905      	add	r1, sp, #20
     d0c:	4638      	mov	r0, r7
     d0e:	f008 fa6a 	bl	91e6 <serialargs_alloc_get_attributes>
/home/aom1/Work/Linux/target/STM32MP1-DK2/bootloader/optee-os-custom/ta/pkcs11/src/object.c:516
     d12:	4604      	mov	r4, r0
     d14:	bb48      	cbnz	r0, d6a <entry_find_objects_init+0xa2>
/home/aom1/Work/Linux/target/STM32MP1-DK2/bootloader/optee-os-custom/ta/pkcs11/src/object.c:519
     d16:	4638      	mov	r0, r7
     d18:	f008 fa85 	bl	9226 <serialargs_remaining_bytes>
     d1c:	2800      	cmp	r0, #0
     d1e:	d15d      	bne.n	ddc <entry_find_objects_init+0x114>
/home/aom1/Work/Linux/target/STM32MP1-DK2/bootloader/optee-os-custom/ta/pkcs11/src/object.c:525
     d20:	9b04      	ldr	r3, [sp, #16]
session_is_active():
/home/aom1/Work/Linux/target/STM32MP1-DK2/bootloader/optee-os-custom/ta/pkcs11/src/pkcs11_token.h:281
     d22:	69da      	ldr	r2, [r3, #28]
entry_find_objects_init():
/home/aom1/Work/Linux/target/STM32MP1-DK2/bootloader/optee-os-custom/ta/pkcs11/src/object.c:525
     d24:	2a00      	cmp	r2, #0
     d26:	f040 80bb 	bne.w	ea0 <entry_find_objects_init+0x1d8>
/home/aom1/Work/Linux/target/STM32MP1-DK2/bootloader/optee-os-custom/ta/pkcs11/src/object.c:530
     d2a:	6a1d      	ldr	r5, [r3, #32]
     d2c:	b30d      	cbz	r5, d72 <entry_find_objects_init+0xaa>
/home/aom1/Work/Linux/target/STM32MP1-DK2/bootloader/optee-os-custom/ta/pkcs11/src/object.c:531
     d2e:	4b61      	ldr	r3, [pc, #388]	; (eb4 <entry_find_objects_init+0x1ec>)
     d30:	f240 2113 	movw	r1, #531	; 0x213
     d34:	4860      	ldr	r0, [pc, #384]	; (eb8 <entry_find_objects_init+0x1f0>)
/home/aom1/Work/Linux/target/STM32MP1-DK2/bootloader/optee-os-custom/ta/pkcs11/src/object.c:503
     d36:	4625      	mov	r5, r4
/home/aom1/Work/Linux/target/STM32MP1-DK2/bootloader/optee-os-custom/ta/pkcs11/src/object.c:531
     d38:	447b      	add	r3, pc
/home/aom1/Work/Linux/target/STM32MP1-DK2/bootloader/optee-os-custom/ta/pkcs11/src/object.c:532
     d3a:	2406      	movs	r4, #6
/home/aom1/Work/Linux/target/STM32MP1-DK2/bootloader/optee-os-custom/ta/pkcs11/src/object.c:531
     d3c:	9300      	str	r3, [sp, #0]
     d3e:	2301      	movs	r3, #1
     d40:	4478      	add	r0, pc
     d42:	461a      	mov	r2, r3
     d44:	300f      	adds	r0, #15
     d46:	f009 f8bd 	bl	9ec4 <trace_printf>
/home/aom1/Work/Linux/target/STM32MP1-DK2/bootloader/optee-os-custom/ta/pkcs11/src/object.c:645
     d4a:	9806      	ldr	r0, [sp, #24]
     d4c:	f009 fc0c 	bl	a568 <TEE_Free>
/home/aom1/Work/Linux/target/STM32MP1-DK2/bootloader/optee-os-custom/ta/pkcs11/src/object.c:646
     d50:	9805      	ldr	r0, [sp, #20]
     d52:	f009 fc09 	bl	a568 <TEE_Free>
release_find_obj_context():
/home/aom1/Work/Linux/target/STM32MP1-DK2/bootloader/optee-os-custom/ta/pkcs11/src/object.c:463
     d56:	b145      	cbz	r5, d6a <entry_find_objects_init+0xa2>
/home/aom1/Work/Linux/target/STM32MP1-DK2/bootloader/optee-os-custom/ta/pkcs11/src/object.c:466
     d58:	6828      	ldr	r0, [r5, #0]
     d5a:	f009 fc05 	bl	a568 <TEE_Free>
/home/aom1/Work/Linux/target/STM32MP1-DK2/bootloader/optee-os-custom/ta/pkcs11/src/object.c:467
     d5e:	68a8      	ldr	r0, [r5, #8]
     d60:	f009 fc02 	bl	a568 <TEE_Free>
/home/aom1/Work/Linux/target/STM32MP1-DK2/bootloader/optee-os-custom/ta/pkcs11/src/object.c:468
     d64:	4628      	mov	r0, r5
     d66:	f009 fbff 	bl	a568 <TEE_Free>
entry_find_objects_init():
/home/aom1/Work/Linux/target/STM32MP1-DK2/bootloader/optee-os-custom/ta/pkcs11/src/object.c:650
     d6a:	4620      	mov	r0, r4
     d6c:	b00a      	add	sp, #40	; 0x28
     d6e:	e8bd 81f0 	ldmia.w	sp!, {r4, r5, r6, r7, r8, pc}
/home/aom1/Work/Linux/target/STM32MP1-DK2/bootloader/optee-os-custom/ta/pkcs11/src/object.c:536
     d72:	9905      	ldr	r1, [sp, #20]
     d74:	f04f 33ff 	mov.w	r3, #4294967295	; 0xffffffff
     d78:	a806      	add	r0, sp, #24
     d7a:	680a      	ldr	r2, [r1, #0]
     d7c:	9300      	str	r3, [sp, #0]
     d7e:	3208      	adds	r2, #8
     d80:	f007 fffa 	bl	8d78 <sanitize_client_object>
/home/aom1/Work/Linux/target/STM32MP1-DK2/bootloader/optee-os-custom/ta/pkcs11/src/object.c:539
     d84:	4604      	mov	r4, r0
     d86:	2800      	cmp	r0, #0
     d88:	d1df      	bne.n	d4a <entry_find_objects_init+0x82>
/home/aom1/Work/Linux/target/STM32MP1-DK2/bootloader/optee-os-custom/ta/pkcs11/src/object.c:543
     d8a:	4601      	mov	r1, r0
     d8c:	2010      	movs	r0, #16
     d8e:	f009 fbc2 	bl	a516 <TEE_Malloc>
/home/aom1/Work/Linux/target/STM32MP1-DK2/bootloader/optee-os-custom/ta/pkcs11/src/object.c:544
     d92:	4605      	mov	r5, r0
     d94:	2800      	cmp	r0, #0
     d96:	f000 8088 	beq.w	eaa <entry_find_objects_init+0x1e2>
/home/aom1/Work/Linux/target/STM32MP1-DK2/bootloader/optee-os-custom/ta/pkcs11/src/object.c:549
     d9a:	9805      	ldr	r0, [sp, #20]
     d9c:	f009 fbe4 	bl	a568 <TEE_Free>
/home/aom1/Work/Linux/target/STM32MP1-DK2/bootloader/optee-os-custom/ta/pkcs11/src/object.c:552
     da0:	9806      	ldr	r0, [sp, #24]
/home/aom1/Work/Linux/target/STM32MP1-DK2/bootloader/optee-os-custom/ta/pkcs11/src/object.c:550
     da2:	9405      	str	r4, [sp, #20]
/home/aom1/Work/Linux/target/STM32MP1-DK2/bootloader/optee-os-custom/ta/pkcs11/src/object.c:552
     da4:	f7ff fd6b 	bl	87e <get_class>
     da8:	3805      	subs	r0, #5
     daa:	3007      	adds	r0, #7
     dac:	d818      	bhi.n	de0 <entry_find_objects_init+0x118>
/home/aom1/Work/Linux/target/STM32MP1-DK2/bootloader/optee-os-custom/ta/pkcs11/src/object.c:562
     dae:	9806      	ldr	r0, [sp, #24]
     db0:	f7ff fd65 	bl	87e <get_class>
     db4:	f003 f8d2 	bl	3f5c <id2str_class>
     db8:	4604      	mov	r4, r0
     dba:	9806      	ldr	r0, [sp, #24]
     dbc:	f7ff fd5f 	bl	87e <get_class>
     dc0:	4b3e      	ldr	r3, [pc, #248]	; (ebc <entry_find_objects_init+0x1f4>)
     dc2:	f240 2132 	movw	r1, #562	; 0x232
     dc6:	9002      	str	r0, [sp, #8]
     dc8:	483d      	ldr	r0, [pc, #244]	; (ec0 <entry_find_objects_init+0x1f8>)
     dca:	447b      	add	r3, pc
     dcc:	4478      	add	r0, pc
     dce:	9300      	str	r3, [sp, #0]
     dd0:	2301      	movs	r3, #1
     dd2:	9401      	str	r4, [sp, #4]
     dd4:	461a      	mov	r2, r3
     dd6:	300f      	adds	r0, #15
     dd8:	f009 f874 	bl	9ec4 <trace_printf>
/home/aom1/Work/Linux/target/STM32MP1-DK2/bootloader/optee-os-custom/ta/pkcs11/src/object.c:565
     ddc:	2407      	movs	r4, #7
/home/aom1/Work/Linux/target/STM32MP1-DK2/bootloader/optee-os-custom/ta/pkcs11/src/object.c:566
     dde:	e7b4      	b.n	d4a <entry_find_objects_init+0x82>
/home/aom1/Work/Linux/target/STM32MP1-DK2/bootloader/optee-os-custom/ta/pkcs11/src/object.c:575
     de0:	9804      	ldr	r0, [sp, #16]
     de2:	f003 fac6 	bl	4372 <get_session_list>
     de6:	6807      	ldr	r7, [r0, #0]
/home/aom1/Work/Linux/target/STM32MP1-DK2/bootloader/optee-os-custom/ta/pkcs11/src/object.c:575 (discriminator 1)
     de8:	b977      	cbnz	r7, e08 <entry_find_objects_init+0x140>
/home/aom1/Work/Linux/target/STM32MP1-DK2/bootloader/optee-os-custom/ta/pkcs11/src/object.c:596
     dea:	9804      	ldr	r0, [sp, #16]
     dec:	f003 fabe 	bl	436c <get_object_handle_db>
/home/aom1/Work/Linux/target/STM32MP1-DK2/bootloader/optee-os-custom/ta/pkcs11/src/object.c:599
     df0:	9b04      	ldr	r3, [sp, #16]
/home/aom1/Work/Linux/target/STM32MP1-DK2/bootloader/optee-os-custom/ta/pkcs11/src/object.c:596
     df2:	4607      	mov	r7, r0
/home/aom1/Work/Linux/target/STM32MP1-DK2/bootloader/optee-os-custom/ta/pkcs11/src/object.c:599
     df4:	68db      	ldr	r3, [r3, #12]
     df6:	68de      	ldr	r6, [r3, #12]
/home/aom1/Work/Linux/target/STM32MP1-DK2/bootloader/optee-os-custom/ta/pkcs11/src/object.c:599 (discriminator 1)
     df8:	bb06      	cbnz	r6, e3c <entry_find_objects_init+0x174>
/home/aom1/Work/Linux/target/STM32MP1-DK2/bootloader/optee-os-custom/ta/pkcs11/src/object.c:638
     dfa:	9b06      	ldr	r3, [sp, #24]
     dfc:	602b      	str	r3, [r5, #0]
/home/aom1/Work/Linux/target/STM32MP1-DK2/bootloader/optee-os-custom/ta/pkcs11/src/object.c:640
     dfe:	9b04      	ldr	r3, [sp, #16]
/home/aom1/Work/Linux/target/STM32MP1-DK2/bootloader/optee-os-custom/ta/pkcs11/src/object.c:639
     e00:	9606      	str	r6, [sp, #24]
/home/aom1/Work/Linux/target/STM32MP1-DK2/bootloader/optee-os-custom/ta/pkcs11/src/object.c:640
     e02:	621d      	str	r5, [r3, #32]
/home/aom1/Work/Linux/target/STM32MP1-DK2/bootloader/optee-os-custom/ta/pkcs11/src/object.c:641
     e04:	4635      	mov	r5, r6
     e06:	e7a0      	b.n	d4a <entry_find_objects_init+0x82>
/home/aom1/Work/Linux/target/STM32MP1-DK2/bootloader/optee-os-custom/ta/pkcs11/src/object.c:576
     e08:	697e      	ldr	r6, [r7, #20]
/home/aom1/Work/Linux/target/STM32MP1-DK2/bootloader/optee-os-custom/ta/pkcs11/src/object.c:576 (discriminator 1)
     e0a:	b90e      	cbnz	r6, e10 <entry_find_objects_init+0x148>
/home/aom1/Work/Linux/target/STM32MP1-DK2/bootloader/optee-os-custom/ta/pkcs11/src/object.c:575 (discriminator 2)
     e0c:	683f      	ldr	r7, [r7, #0]
     e0e:	e7eb      	b.n	de8 <entry_find_objects_init+0x120>
/home/aom1/Work/Linux/target/STM32MP1-DK2/bootloader/optee-os-custom/ta/pkcs11/src/object.c:582
     e10:	6973      	ldr	r3, [r6, #20]
     e12:	b10b      	cbz	r3, e18 <entry_find_objects_init+0x150>
/home/aom1/Work/Linux/target/STM32MP1-DK2/bootloader/optee-os-custom/ta/pkcs11/src/object.c:576
     e14:	6836      	ldr	r6, [r6, #0]
     e16:	e7f8      	b.n	e0a <entry_find_objects_init+0x142>
/home/aom1/Work/Linux/target/STM32MP1-DK2/bootloader/optee-os-custom/ta/pkcs11/src/object.c:585
     e18:	9906      	ldr	r1, [sp, #24]
     e1a:	68b0      	ldr	r0, [r6, #8]
     e1c:	f7ff fa68 	bl	2f0 <attributes_match_reference>
     e20:	2800      	cmp	r0, #0
     e22:	d0f7      	beq.n	e14 <entry_find_objects_init+0x14c>
/home/aom1/Work/Linux/target/STM32MP1-DK2/bootloader/optee-os-custom/ta/pkcs11/src/object.c:589
     e24:	9904      	ldr	r1, [sp, #16]
     e26:	4630      	mov	r0, r6
     e28:	f7ff fd60 	bl	8ec <pkcs11_object2handle>
     e2c:	4601      	mov	r1, r0
     e2e:	4628      	mov	r0, r5
     e30:	f7ff fd36 	bl	8a0 <find_ctx_add>
/home/aom1/Work/Linux/target/STM32MP1-DK2/bootloader/optee-os-custom/ta/pkcs11/src/object.c:591
     e34:	2800      	cmp	r0, #0
     e36:	d0ed      	beq.n	e14 <entry_find_objects_init+0x14c>
     e38:	4604      	mov	r4, r0
     e3a:	e786      	b.n	d4a <entry_find_objects_init+0x82>
/home/aom1/Work/Linux/target/STM32MP1-DK2/bootloader/optee-os-custom/ta/pkcs11/src/object.c:603
     e3c:	68b3      	ldr	r3, [r6, #8]
     e3e:	b97b      	cbnz	r3, e60 <entry_find_objects_init+0x198>
/home/aom1/Work/Linux/target/STM32MP1-DK2/bootloader/optee-os-custom/ta/pkcs11/src/object.c:604
     e40:	4630      	mov	r0, r6
     e42:	f000 fe95 	bl	1b70 <load_persistent_object_attributes>
/home/aom1/Work/Linux/target/STM32MP1-DK2/bootloader/optee-os-custom/ta/pkcs11/src/object.c:605
     e46:	bb70      	cbnz	r0, ea6 <entry_find_objects_init+0x1de>
/home/aom1/Work/Linux/target/STM32MP1-DK2/bootloader/optee-os-custom/ta/pkcs11/src/object.c:610
     e48:	f04f 0801 	mov.w	r8, #1
/home/aom1/Work/Linux/target/STM32MP1-DK2/bootloader/optee-os-custom/ta/pkcs11/src/object.c:613
     e4c:	68b1      	ldr	r1, [r6, #8]
     e4e:	b951      	cbnz	r1, e66 <entry_find_objects_init+0x19e>
/home/aom1/Work/Linux/target/STM32MP1-DK2/bootloader/optee-os-custom/ta/pkcs11/src/object.c:617
     e50:	f1b8 0f00 	cmp.w	r8, #0
     e54:	d002      	beq.n	e5c <entry_find_objects_init+0x194>
/home/aom1/Work/Linux/target/STM32MP1-DK2/bootloader/optee-os-custom/ta/pkcs11/src/object.c:618
     e56:	4630      	mov	r0, r6
     e58:	f000 ff44 	bl	1ce4 <release_persistent_object_attributes>
/home/aom1/Work/Linux/target/STM32MP1-DK2/bootloader/optee-os-custom/ta/pkcs11/src/object.c:599 (discriminator 2)
     e5c:	6836      	ldr	r6, [r6, #0]
     e5e:	e7cb      	b.n	df8 <entry_find_objects_init+0x130>
/home/aom1/Work/Linux/target/STM32MP1-DK2/bootloader/optee-os-custom/ta/pkcs11/src/object.c:601
     e60:	f04f 0800 	mov.w	r8, #0
     e64:	e7f2      	b.n	e4c <entry_find_objects_init+0x184>
/home/aom1/Work/Linux/target/STM32MP1-DK2/bootloader/optee-os-custom/ta/pkcs11/src/object.c:614 (discriminator 1)
     e66:	9804      	ldr	r0, [sp, #16]
     e68:	f002 f860 	bl	2f2c <check_access_attrs_against_token>
/home/aom1/Work/Linux/target/STM32MP1-DK2/bootloader/optee-os-custom/ta/pkcs11/src/object.c:613 (discriminator 1)
     e6c:	2800      	cmp	r0, #0
     e6e:	d1ef      	bne.n	e50 <entry_find_objects_init+0x188>
/home/aom1/Work/Linux/target/STM32MP1-DK2/bootloader/optee-os-custom/ta/pkcs11/src/object.c:616
     e70:	9906      	ldr	r1, [sp, #24]
     e72:	68b0      	ldr	r0, [r6, #8]
     e74:	f7ff fa3c 	bl	2f0 <attributes_match_reference>
/home/aom1/Work/Linux/target/STM32MP1-DK2/bootloader/optee-os-custom/ta/pkcs11/src/object.c:615
     e78:	2800      	cmp	r0, #0
     e7a:	d0e9      	beq.n	e50 <entry_find_objects_init+0x188>
/home/aom1/Work/Linux/target/STM32MP1-DK2/bootloader/optee-os-custom/ta/pkcs11/src/object.c:624
     e7c:	9904      	ldr	r1, [sp, #16]
     e7e:	4630      	mov	r0, r6
     e80:	f7ff fd34 	bl	8ec <pkcs11_object2handle>
/home/aom1/Work/Linux/target/STM32MP1-DK2/bootloader/optee-os-custom/ta/pkcs11/src/object.c:625
     e84:	4601      	mov	r1, r0
     e86:	b928      	cbnz	r0, e94 <entry_find_objects_init+0x1cc>
/home/aom1/Work/Linux/target/STM32MP1-DK2/bootloader/optee-os-custom/ta/pkcs11/src/object.c:626
     e88:	4631      	mov	r1, r6
     e8a:	4638      	mov	r0, r7
     e8c:	f011 fb60 	bl	12550 <handle_get>
/home/aom1/Work/Linux/target/STM32MP1-DK2/bootloader/optee-os-custom/ta/pkcs11/src/object.c:627
     e90:	4601      	mov	r1, r0
     e92:	b150      	cbz	r0, eaa <entry_find_objects_init+0x1e2>
/home/aom1/Work/Linux/target/STM32MP1-DK2/bootloader/optee-os-custom/ta/pkcs11/src/object.c:633
     e94:	4628      	mov	r0, r5
     e96:	f7ff fd03 	bl	8a0 <find_ctx_add>
/home/aom1/Work/Linux/target/STM32MP1-DK2/bootloader/optee-os-custom/ta/pkcs11/src/object.c:634
     e9a:	2800      	cmp	r0, #0
     e9c:	d0de      	beq.n	e5c <entry_find_objects_init+0x194>
     e9e:	e7cb      	b.n	e38 <entry_find_objects_init+0x170>
/home/aom1/Work/Linux/target/STM32MP1-DK2/bootloader/optee-os-custom/ta/pkcs11/src/object.c:503
     ea0:	4625      	mov	r5, r4
/home/aom1/Work/Linux/target/STM32MP1-DK2/bootloader/optee-os-custom/ta/pkcs11/src/object.c:526
     ea2:	2490      	movs	r4, #144	; 0x90
     ea4:	e751      	b.n	d4a <entry_find_objects_init+0x82>
/home/aom1/Work/Linux/target/STM32MP1-DK2/bootloader/optee-os-custom/ta/pkcs11/src/object.c:606
     ea6:	2405      	movs	r4, #5
     ea8:	e74f      	b.n	d4a <entry_find_objects_init+0x82>
/home/aom1/Work/Linux/target/STM32MP1-DK2/bootloader/optee-os-custom/ta/pkcs11/src/object.c:628
     eaa:	2431      	movs	r4, #49	; 0x31
     eac:	e74d      	b.n	d4a <entry_find_objects_init+0x82>
/home/aom1/Work/Linux/target/STM32MP1-DK2/bootloader/optee-os-custom/ta/pkcs11/src/object.c:507
     eae:	2407      	movs	r4, #7
     eb0:	e75b      	b.n	d6a <entry_find_objects_init+0xa2>
     eb2:	bf00      	nop
     eb4:	000129b8 	.word	0x000129b8
     eb8:	00012a07 	.word	0x00012a07
     ebc:	0001294f 	.word	0x0001294f
     ec0:	0001297b 	.word	0x0001297b

00000ec4 <entry_find_objects>:
entry_find_objects():
/home/aom1/Work/Linux/target/STM32MP1-DK2/bootloader/optee-os-custom/ta/pkcs11/src/object.c:662
     ec4:	efc0 0010 	vmov.i32	d16, #0	; 0x00000000
/home/aom1/Work/Linux/target/STM32MP1-DK2/bootloader/optee-os-custom/ta/pkcs11/src/object.c:654
     ec8:	e92d 43f0 	stmdb	sp!, {r4, r5, r6, r7, r8, r9, lr}
     ecc:	b085      	sub	sp, #20
/home/aom1/Work/Linux/target/STM32MP1-DK2/bootloader/optee-os-custom/ta/pkcs11/src/object.c:663
     ece:	2300      	movs	r3, #0
/home/aom1/Work/Linux/target/STM32MP1-DK2/bootloader/optee-os-custom/ta/pkcs11/src/object.c:654
     ed0:	4615      	mov	r5, r2
/home/aom1/Work/Linux/target/STM32MP1-DK2/bootloader/optee-os-custom/ta/pkcs11/src/object.c:662
     ed2:	edcd 0b01 	vstr	d16, [sp, #4]
/home/aom1/Work/Linux/target/STM32MP1-DK2/bootloader/optee-os-custom/ta/pkcs11/src/object.c:663
     ed6:	9300      	str	r3, [sp, #0]
/home/aom1/Work/Linux/target/STM32MP1-DK2/bootloader/optee-os-custom/ta/pkcs11/src/object.c:662
     ed8:	ae01      	add	r6, sp, #4
     eda:	edcd 0b02 	vstr	d16, [sp, #8]
/home/aom1/Work/Linux/target/STM32MP1-DK2/bootloader/optee-os-custom/ta/pkcs11/src/object.c:669
     ede:	4604      	mov	r4, r0
     ee0:	b920      	cbnz	r0, eec <entry_find_objects+0x28>
/home/aom1/Work/Linux/target/STM32MP1-DK2/bootloader/optee-os-custom/ta/pkcs11/src/object.c:670
     ee2:	2407      	movs	r4, #7
/home/aom1/Work/Linux/target/STM32MP1-DK2/bootloader/optee-os-custom/ta/pkcs11/src/object.c:700
     ee4:	4620      	mov	r0, r4
     ee6:	b005      	add	sp, #20
     ee8:	e8bd 83f0 	ldmia.w	sp!, {r4, r5, r6, r7, r8, r9, pc}
/home/aom1/Work/Linux/target/STM32MP1-DK2/bootloader/optee-os-custom/ta/pkcs11/src/object.c:669 (discriminator 1)
     eec:	f240 6307 	movw	r3, #1543	; 0x607
     ef0:	4299      	cmp	r1, r3
     ef2:	d1f6      	bne.n	ee2 <entry_find_objects+0x1e>
/home/aom1/Work/Linux/target/STM32MP1-DK2/bootloader/optee-os-custom/ta/pkcs11/src/object.c:672
     ef4:	6957      	ldr	r7, [r2, #20]
/home/aom1/Work/Linux/target/STM32MP1-DK2/bootloader/optee-os-custom/ta/pkcs11/src/object.c:675
     ef6:	4630      	mov	r0, r6
/home/aom1/Work/Linux/target/STM32MP1-DK2/bootloader/optee-os-custom/ta/pkcs11/src/object.c:673
     ef8:	f8d2 9010 	ldr.w	r9, [r2, #16]
/home/aom1/Work/Linux/target/STM32MP1-DK2/bootloader/optee-os-custom/ta/pkcs11/src/object.c:675
     efc:	e9d2 1200 	ldrd	r1, r2, [r2]
     f00:	f008 f8d2 	bl	90a8 <serialargs_init>
/home/aom1/Work/Linux/target/STM32MP1-DK2/bootloader/optee-os-custom/ta/pkcs11/src/object.c:677
     f04:	4621      	mov	r1, r4
     f06:	466a      	mov	r2, sp
     f08:	4630      	mov	r0, r6
     f0a:	f008 f995 	bl	9238 <serialargs_get_session_from_handle>
/home/aom1/Work/Linux/target/STM32MP1-DK2/bootloader/optee-os-custom/ta/pkcs11/src/object.c:678
     f0e:	4604      	mov	r4, r0
     f10:	2800      	cmp	r0, #0
     f12:	d1e7      	bne.n	ee4 <entry_find_objects+0x20>
/home/aom1/Work/Linux/target/STM32MP1-DK2/bootloader/optee-os-custom/ta/pkcs11/src/object.c:681
     f14:	4630      	mov	r0, r6
     f16:	f008 f986 	bl	9226 <serialargs_remaining_bytes>
     f1a:	2800      	cmp	r0, #0
     f1c:	d1e1      	bne.n	ee2 <entry_find_objects+0x1e>
/home/aom1/Work/Linux/target/STM32MP1-DK2/bootloader/optee-os-custom/ta/pkcs11/src/object.c:684
     f1e:	9b00      	ldr	r3, [sp, #0]
     f20:	6a1e      	ldr	r6, [r3, #32]
/home/aom1/Work/Linux/target/STM32MP1-DK2/bootloader/optee-os-custom/ta/pkcs11/src/object.c:686
     f22:	b1be      	cbz	r6, f54 <entry_find_objects+0x90>
     f24:	f027 0803 	bic.w	r8, r7, #3
/home/aom1/Work/Linux/target/STM32MP1-DK2/bootloader/optee-os-custom/ta/pkcs11/src/object.c:672
     f28:	4627      	mov	r7, r4
/home/aom1/Work/Linux/target/STM32MP1-DK2/bootloader/optee-os-custom/ta/pkcs11/src/object.c:689 (discriminator 1)
     f2a:	68f3      	ldr	r3, [r6, #12]
     f2c:	6872      	ldr	r2, [r6, #4]
     f2e:	4293      	cmp	r3, r2
     f30:	d201      	bcs.n	f36 <entry_find_objects+0x72>
/home/aom1/Work/Linux/target/STM32MP1-DK2/bootloader/optee-os-custom/ta/pkcs11/src/object.c:689 (discriminator 2)
     f32:	4547      	cmp	r7, r8
     f34:	d101      	bne.n	f3a <entry_find_objects+0x76>
/home/aom1/Work/Linux/target/STM32MP1-DK2/bootloader/optee-os-custom/ta/pkcs11/src/object.c:695
     f36:	616f      	str	r7, [r5, #20]
/home/aom1/Work/Linux/target/STM32MP1-DK2/bootloader/optee-os-custom/ta/pkcs11/src/object.c:699
     f38:	e7d4      	b.n	ee4 <entry_find_objects+0x20>
/home/aom1/Work/Linux/target/STM32MP1-DK2/bootloader/optee-os-custom/ta/pkcs11/src/object.c:692
     f3a:	68b1      	ldr	r1, [r6, #8]
/home/aom1/Work/Linux/target/STM32MP1-DK2/bootloader/optee-os-custom/ta/pkcs11/src/object.c:691
     f3c:	2204      	movs	r2, #4
     f3e:	eb09 0007 	add.w	r0, r9, r7
     f42:	3704      	adds	r7, #4
     f44:	eb01 0183 	add.w	r1, r1, r3, lsl #2
     f48:	f009 fa88 	bl	a45c <TEE_MemMove>
/home/aom1/Work/Linux/target/STM32MP1-DK2/bootloader/optee-os-custom/ta/pkcs11/src/object.c:690
     f4c:	68f3      	ldr	r3, [r6, #12]
     f4e:	3301      	adds	r3, #1
     f50:	60f3      	str	r3, [r6, #12]
     f52:	e7ea      	b.n	f2a <entry_find_objects+0x66>
/home/aom1/Work/Linux/target/STM32MP1-DK2/bootloader/optee-os-custom/ta/pkcs11/src/object.c:687
     f54:	2491      	movs	r4, #145	; 0x91
     f56:	e7c5      	b.n	ee4 <entry_find_objects+0x20>

00000f58 <release_session_find_obj_context>:
release_session_find_obj_context():
/home/aom1/Work/Linux/target/STM32MP1-DK2/bootloader/optee-os-custom/ta/pkcs11/src/object.c:703
     f58:	b538      	push	{r3, r4, r5, lr}
     f5a:	4604      	mov	r4, r0
/home/aom1/Work/Linux/target/STM32MP1-DK2/bootloader/optee-os-custom/ta/pkcs11/src/object.c:704
     f5c:	6a05      	ldr	r5, [r0, #32]
release_find_obj_context():
/home/aom1/Work/Linux/target/STM32MP1-DK2/bootloader/optee-os-custom/ta/pkcs11/src/object.c:463
     f5e:	b145      	cbz	r5, f72 <release_session_find_obj_context+0x1a>
/home/aom1/Work/Linux/target/STM32MP1-DK2/bootloader/optee-os-custom/ta/pkcs11/src/object.c:466
     f60:	6828      	ldr	r0, [r5, #0]
     f62:	f009 fb01 	bl	a568 <TEE_Free>
/home/aom1/Work/Linux/target/STM32MP1-DK2/bootloader/optee-os-custom/ta/pkcs11/src/object.c:467
     f66:	68a8      	ldr	r0, [r5, #8]
     f68:	f009 fafe 	bl	a568 <TEE_Free>
/home/aom1/Work/Linux/target/STM32MP1-DK2/bootloader/optee-os-custom/ta/pkcs11/src/object.c:468
     f6c:	4628      	mov	r0, r5
     f6e:	f009 fafb 	bl	a568 <TEE_Free>
release_session_find_obj_context():
/home/aom1/Work/Linux/target/STM32MP1-DK2/bootloader/optee-os-custom/ta/pkcs11/src/object.c:705
     f72:	2300      	movs	r3, #0
     f74:	6223      	str	r3, [r4, #32]
/home/aom1/Work/Linux/target/STM32MP1-DK2/bootloader/optee-os-custom/ta/pkcs11/src/object.c:706
     f76:	bd38      	pop	{r3, r4, r5, pc}

00000f78 <entry_find_objects_final>:
entry_find_objects_final():
/home/aom1/Work/Linux/target/STM32MP1-DK2/bootloader/optee-os-custom/ta/pkcs11/src/object.c:717
     f78:	efc0 0010 	vmov.i32	d16, #0	; 0x00000000
/home/aom1/Work/Linux/target/STM32MP1-DK2/bootloader/optee-os-custom/ta/pkcs11/src/object.c:710
     f7c:	b530      	push	{r4, r5, lr}
     f7e:	b085      	sub	sp, #20
     f80:	4613      	mov	r3, r2
/home/aom1/Work/Linux/target/STM32MP1-DK2/bootloader/optee-os-custom/ta/pkcs11/src/object.c:718
     f82:	2200      	movs	r2, #0
/home/aom1/Work/Linux/target/STM32MP1-DK2/bootloader/optee-os-custom/ta/pkcs11/src/object.c:717
     f84:	edcd 0b01 	vstr	d16, [sp, #4]
/home/aom1/Work/Linux/target/STM32MP1-DK2/bootloader/optee-os-custom/ta/pkcs11/src/object.c:718
     f88:	9200      	str	r2, [sp, #0]
/home/aom1/Work/Linux/target/STM32MP1-DK2/bootloader/optee-os-custom/ta/pkcs11/src/object.c:717
     f8a:	ad01      	add	r5, sp, #4
     f8c:	edcd 0b02 	vstr	d16, [sp, #8]
/home/aom1/Work/Linux/target/STM32MP1-DK2/bootloader/optee-os-custom/ta/pkcs11/src/object.c:720
     f90:	4604      	mov	r4, r0
     f92:	b918      	cbnz	r0, f9c <entry_find_objects_final+0x24>
/home/aom1/Work/Linux/target/STM32MP1-DK2/bootloader/optee-os-custom/ta/pkcs11/src/object.c:721
     f94:	2407      	movs	r4, #7
/home/aom1/Work/Linux/target/STM32MP1-DK2/bootloader/optee-os-custom/ta/pkcs11/src/object.c:738
     f96:	4620      	mov	r0, r4
     f98:	b005      	add	sp, #20
     f9a:	bd30      	pop	{r4, r5, pc}
/home/aom1/Work/Linux/target/STM32MP1-DK2/bootloader/optee-os-custom/ta/pkcs11/src/object.c:720 (discriminator 1)
     f9c:	2907      	cmp	r1, #7
     f9e:	d1f9      	bne.n	f94 <entry_find_objects_final+0x1c>
/home/aom1/Work/Linux/target/STM32MP1-DK2/bootloader/optee-os-custom/ta/pkcs11/src/object.c:723
     fa0:	e9d3 1200 	ldrd	r1, r2, [r3]
     fa4:	4628      	mov	r0, r5
     fa6:	f008 f87f 	bl	90a8 <serialargs_init>
/home/aom1/Work/Linux/target/STM32MP1-DK2/bootloader/optee-os-custom/ta/pkcs11/src/object.c:725
     faa:	4621      	mov	r1, r4
     fac:	466a      	mov	r2, sp
     fae:	4628      	mov	r0, r5
     fb0:	f008 f942 	bl	9238 <serialargs_get_session_from_handle>
/home/aom1/Work/Linux/target/STM32MP1-DK2/bootloader/optee-os-custom/ta/pkcs11/src/object.c:726
     fb4:	4604      	mov	r4, r0
     fb6:	2800      	cmp	r0, #0
     fb8:	d1ed      	bne.n	f96 <entry_find_objects_final+0x1e>
/home/aom1/Work/Linux/target/STM32MP1-DK2/bootloader/optee-os-custom/ta/pkcs11/src/object.c:729
     fba:	4628      	mov	r0, r5
     fbc:	f008 f933 	bl	9226 <serialargs_remaining_bytes>
     fc0:	2800      	cmp	r0, #0
     fc2:	d1e7      	bne.n	f94 <entry_find_objects_final+0x1c>
/home/aom1/Work/Linux/target/STM32MP1-DK2/bootloader/optee-os-custom/ta/pkcs11/src/object.c:732
     fc4:	9800      	ldr	r0, [sp, #0]
     fc6:	6a03      	ldr	r3, [r0, #32]
     fc8:	b113      	cbz	r3, fd0 <entry_find_objects_final+0x58>
/home/aom1/Work/Linux/target/STM32MP1-DK2/bootloader/optee-os-custom/ta/pkcs11/src/object.c:735
     fca:	f7ff ffc5 	bl	f58 <release_session_find_obj_context>
/home/aom1/Work/Linux/target/STM32MP1-DK2/bootloader/optee-os-custom/ta/pkcs11/src/object.c:737
     fce:	e7e2      	b.n	f96 <entry_find_objects_final+0x1e>
/home/aom1/Work/Linux/target/STM32MP1-DK2/bootloader/optee-os-custom/ta/pkcs11/src/object.c:733
     fd0:	2491      	movs	r4, #145	; 0x91
     fd2:	e7e0      	b.n	f96 <entry_find_objects_final+0x1e>

00000fd4 <entry_get_attribute_value>:
entry_get_attribute_value():
/home/aom1/Work/Linux/target/STM32MP1-DK2/bootloader/optee-os-custom/ta/pkcs11/src/object.c:742
     fd4:	e92d 4ff0 	stmdb	sp!, {r4, r5, r6, r7, r8, r9, sl, fp, lr}
/home/aom1/Work/Linux/target/STM32MP1-DK2/bootloader/optee-os-custom/ta/pkcs11/src/object.c:751
     fd8:	2300      	movs	r3, #0
/home/aom1/Work/Linux/target/STM32MP1-DK2/bootloader/optee-os-custom/ta/pkcs11/src/object.c:742
     fda:	ed2d 8b02 	vpush	{d8}
/home/aom1/Work/Linux/target/STM32MP1-DK2/bootloader/optee-os-custom/ta/pkcs11/src/object.c:750
     fde:	ef80 8010 	vmov.i32	d8, #0	; 0x00000000
/home/aom1/Work/Linux/target/STM32MP1-DK2/bootloader/optee-os-custom/ta/pkcs11/src/object.c:742
     fe2:	b08f      	sub	sp, #60	; 0x3c
     fe4:	4617      	mov	r7, r2
/home/aom1/Work/Linux/target/STM32MP1-DK2/bootloader/optee-os-custom/ta/pkcs11/src/object.c:750
     fe6:	ad0b      	add	r5, sp, #44	; 0x2c
/home/aom1/Work/Linux/target/STM32MP1-DK2/bootloader/optee-os-custom/ta/pkcs11/src/object.c:762
     fe8:	4604      	mov	r4, r0
/home/aom1/Work/Linux/target/STM32MP1-DK2/bootloader/optee-os-custom/ta/pkcs11/src/object.c:750
     fea:	ed8d 8b0b 	vstr	d8, [sp, #44]	; 0x2c
/home/aom1/Work/Linux/target/STM32MP1-DK2/bootloader/optee-os-custom/ta/pkcs11/src/object.c:752
     fee:	e9cd 3306 	strd	r3, r3, [sp, #24]
/home/aom1/Work/Linux/target/STM32MP1-DK2/bootloader/optee-os-custom/ta/pkcs11/src/object.c:750
     ff2:	ed8d 8b0c 	vstr	d8, [sp, #48]	; 0x30
/home/aom1/Work/Linux/target/STM32MP1-DK2/bootloader/optee-os-custom/ta/pkcs11/src/object.c:754
     ff6:	9308      	str	r3, [sp, #32]
/home/aom1/Work/Linux/target/STM32MP1-DK2/bootloader/optee-os-custom/ta/pkcs11/src/object.c:762
     ff8:	2800      	cmp	r0, #0
     ffa:	f000 80a5 	beq.w	1148 <entry_get_attribute_value+0x174>
/home/aom1/Work/Linux/target/STM32MP1-DK2/bootloader/optee-os-custom/ta/pkcs11/src/object.c:762 (discriminator 1)
     ffe:	f240 6307 	movw	r3, #1543	; 0x607
    1002:	4299      	cmp	r1, r3
    1004:	f040 80a0 	bne.w	1148 <entry_get_attribute_value+0x174>
/home/aom1/Work/Linux/target/STM32MP1-DK2/bootloader/optee-os-custom/ta/pkcs11/src/object.c:765
    1008:	e9d2 1200 	ldrd	r1, r2, [r2]
    100c:	4628      	mov	r0, r5
    100e:	f008 f84b 	bl	90a8 <serialargs_init>
/home/aom1/Work/Linux/target/STM32MP1-DK2/bootloader/optee-os-custom/ta/pkcs11/src/object.c:767
    1012:	4621      	mov	r1, r4
    1014:	aa06      	add	r2, sp, #24
    1016:	4628      	mov	r0, r5
    1018:	f008 f90e 	bl	9238 <serialargs_get_session_from_handle>
/home/aom1/Work/Linux/target/STM32MP1-DK2/bootloader/optee-os-custom/ta/pkcs11/src/object.c:768
    101c:	4604      	mov	r4, r0
    101e:	b9e0      	cbnz	r0, 105a <entry_get_attribute_value+0x86>
/home/aom1/Work/Linux/target/STM32MP1-DK2/bootloader/optee-os-custom/ta/pkcs11/src/object.c:771
    1020:	2204      	movs	r2, #4
    1022:	a908      	add	r1, sp, #32
    1024:	4628      	mov	r0, r5
    1026:	f008 f86f 	bl	9108 <serialargs_get>
/home/aom1/Work/Linux/target/STM32MP1-DK2/bootloader/optee-os-custom/ta/pkcs11/src/object.c:772
    102a:	4604      	mov	r4, r0
    102c:	b9a8      	cbnz	r0, 105a <entry_get_attribute_value+0x86>
/home/aom1/Work/Linux/target/STM32MP1-DK2/bootloader/optee-os-custom/ta/pkcs11/src/object.c:775
    102e:	a907      	add	r1, sp, #28
    1030:	4628      	mov	r0, r5
    1032:	f008 f8d8 	bl	91e6 <serialargs_alloc_get_attributes>
/home/aom1/Work/Linux/target/STM32MP1-DK2/bootloader/optee-os-custom/ta/pkcs11/src/object.c:776
    1036:	4604      	mov	r4, r0
    1038:	b978      	cbnz	r0, 105a <entry_get_attribute_value+0x86>
/home/aom1/Work/Linux/target/STM32MP1-DK2/bootloader/optee-os-custom/ta/pkcs11/src/object.c:779
    103a:	4628      	mov	r0, r5
    103c:	f008 f8f3 	bl	9226 <serialargs_remaining_bytes>
    1040:	4606      	mov	r6, r0
    1042:	2800      	cmp	r0, #0
    1044:	d17e      	bne.n	1144 <entry_get_attribute_value+0x170>
/home/aom1/Work/Linux/target/STM32MP1-DK2/bootloader/optee-os-custom/ta/pkcs11/src/object.c:784
    1046:	9906      	ldr	r1, [sp, #24]
    1048:	9808      	ldr	r0, [sp, #32]
    104a:	f7ff fc3e 	bl	8ca <pkcs11_handle2object>
/home/aom1/Work/Linux/target/STM32MP1-DK2/bootloader/optee-os-custom/ta/pkcs11/src/object.c:785
    104e:	4680      	mov	r8, r0
    1050:	b948      	cbnz	r0, 1066 <entry_get_attribute_value+0x92>
/home/aom1/Work/Linux/target/STM32MP1-DK2/bootloader/optee-os-custom/ta/pkcs11/src/object.c:786
    1052:	2482      	movs	r4, #130	; 0x82
/home/aom1/Work/Linux/target/STM32MP1-DK2/bootloader/optee-os-custom/ta/pkcs11/src/object.c:905
    1054:	9807      	ldr	r0, [sp, #28]
    1056:	f009 fa87 	bl	a568 <TEE_Free>
/home/aom1/Work/Linux/target/STM32MP1-DK2/bootloader/optee-os-custom/ta/pkcs11/src/object.c:908
    105a:	4620      	mov	r0, r4
    105c:	b00f      	add	sp, #60	; 0x3c
    105e:	ecbd 8b02 	vpop	{d8}
    1062:	e8bd 8ff0 	ldmia.w	sp!, {r4, r5, r6, r7, r8, r9, sl, fp, pc}
/home/aom1/Work/Linux/target/STM32MP1-DK2/bootloader/optee-os-custom/ta/pkcs11/src/object.c:790
    1066:	6881      	ldr	r1, [r0, #8]
    1068:	9806      	ldr	r0, [sp, #24]
    106a:	f001 ff5f 	bl	2f2c <check_access_attrs_against_token>
/home/aom1/Work/Linux/target/STM32MP1-DK2/bootloader/optee-os-custom/ta/pkcs11/src/object.c:791
    106e:	4604      	mov	r4, r0
    1070:	2800      	cmp	r0, #0
    1072:	d1ee      	bne.n	1052 <entry_get_attribute_value+0x7e>
/home/aom1/Work/Linux/target/STM32MP1-DK2/bootloader/optee-os-custom/ta/pkcs11/src/object.c:821
    1074:	9d07      	ldr	r5, [sp, #28]
/home/aom1/Work/Linux/target/STM32MP1-DK2/bootloader/optee-os-custom/ta/pkcs11/src/object.c:760
    1076:	4681      	mov	r9, r0
/home/aom1/Work/Linux/target/STM32MP1-DK2/bootloader/optee-os-custom/ta/pkcs11/src/object.c:758
    1078:	9002      	str	r0, [sp, #8]
/home/aom1/Work/Linux/target/STM32MP1-DK2/bootloader/optee-os-custom/ta/pkcs11/src/object.c:826
    107a:	f10d 0a24 	add.w	sl, sp, #36	; 0x24
/home/aom1/Work/Linux/target/STM32MP1-DK2/bootloader/optee-os-custom/ta/pkcs11/src/object.c:822
    107e:	f855 3b08 	ldr.w	r3, [r5], #8
    1082:	f10d 0b28 	add.w	fp, sp, #40	; 0x28
    1086:	18eb      	adds	r3, r5, r3
    1088:	9303      	str	r3, [sp, #12]
/home/aom1/Work/Linux/target/STM32MP1-DK2/bootloader/optee-os-custom/ta/pkcs11/src/object.c:824 (discriminator 1)
    108a:	9b03      	ldr	r3, [sp, #12]
    108c:	429d      	cmp	r5, r3
    108e:	d311      	bcc.n	10b4 <entry_get_attribute_value+0xe0>
/home/aom1/Work/Linux/target/STM32MP1-DK2/bootloader/optee-os-custom/ta/pkcs11/src/object.c:892
    1090:	9b02      	ldr	r3, [sp, #8]
/home/aom1/Work/Linux/target/STM32MP1-DK2/bootloader/optee-os-custom/ta/pkcs11/src/object.c:899
    1092:	697a      	ldr	r2, [r7, #20]
    1094:	9907      	ldr	r1, [sp, #28]
/home/aom1/Work/Linux/target/STM32MP1-DK2/bootloader/optee-os-custom/ta/pkcs11/src/object.c:892
    1096:	2b00      	cmp	r3, #0
/home/aom1/Work/Linux/target/STM32MP1-DK2/bootloader/optee-os-custom/ta/pkcs11/src/object.c:899
    1098:	6938      	ldr	r0, [r7, #16]
/home/aom1/Work/Linux/target/STM32MP1-DK2/bootloader/optee-os-custom/ta/pkcs11/src/object.c:892
    109a:	bf18      	it	ne
    109c:	2411      	movne	r4, #17
/home/aom1/Work/Linux/target/STM32MP1-DK2/bootloader/optee-os-custom/ta/pkcs11/src/object.c:894
    109e:	2e00      	cmp	r6, #0
    10a0:	bf18      	it	ne
    10a2:	2412      	movne	r4, #18
/home/aom1/Work/Linux/target/STM32MP1-DK2/bootloader/optee-os-custom/ta/pkcs11/src/object.c:896
    10a4:	f1b9 0f00 	cmp.w	r9, #0
    10a8:	bf18      	it	ne
    10aa:	f44f 74a8 	movne.w	r4, #336	; 0x150
/home/aom1/Work/Linux/target/STM32MP1-DK2/bootloader/optee-os-custom/ta/pkcs11/src/object.c:899
    10ae:	f009 f9d5 	bl	a45c <TEE_MemMove>
    10b2:	e7cf      	b.n	1054 <entry_get_attribute_value+0x80>
/home/aom1/Work/Linux/target/STM32MP1-DK2/bootloader/optee-os-custom/ta/pkcs11/src/object.c:830
    10b4:	2208      	movs	r2, #8
    10b6:	4629      	mov	r1, r5
    10b8:	4650      	mov	r0, sl
/home/aom1/Work/Linux/target/STM32MP1-DK2/bootloader/optee-os-custom/ta/pkcs11/src/object.c:826
    10ba:	ed8a 8b00 	vstr	d8, [sl]
/home/aom1/Work/Linux/target/STM32MP1-DK2/bootloader/optee-os-custom/ta/pkcs11/src/object.c:830
    10be:	f009 f9cd 	bl	a45c <TEE_MemMove>
/home/aom1/Work/Linux/target/STM32MP1-DK2/bootloader/optee-os-custom/ta/pkcs11/src/object.c:832
    10c2:	9b0a      	ldr	r3, [sp, #40]	; 0x28
/home/aom1/Work/Linux/target/STM32MP1-DK2/bootloader/optee-os-custom/ta/pkcs11/src/object.c:835
    10c4:	9809      	ldr	r0, [sp, #36]	; 0x24
/home/aom1/Work/Linux/target/STM32MP1-DK2/bootloader/optee-os-custom/ta/pkcs11/src/object.c:832
    10c6:	3308      	adds	r3, #8
    10c8:	9304      	str	r3, [sp, #16]
/home/aom1/Work/Linux/target/STM32MP1-DK2/bootloader/optee-os-custom/ta/pkcs11/src/object.c:835
    10ca:	f002 fd48 	bl	3b5e <pkcs11_attr_has_indirect_attributes>
    10ce:	b980      	cbnz	r0, 10f2 <entry_get_attribute_value+0x11e>
/home/aom1/Work/Linux/target/STM32MP1-DK2/bootloader/optee-os-custom/ta/pkcs11/src/object.c:841
    10d0:	4641      	mov	r1, r8
    10d2:	4650      	mov	r0, sl
    10d4:	f002 faba 	bl	364c <attribute_is_exportable>
    10d8:	9001      	str	r0, [sp, #4]
    10da:	b960      	cbnz	r0, 10f6 <entry_get_attribute_value+0x122>
/home/aom1/Work/Linux/target/STM32MP1-DK2/bootloader/optee-os-custom/ta/pkcs11/src/object.c:843 (discriminator 1)
    10dc:	2204      	movs	r2, #4
/home/aom1/Work/Linux/target/STM32MP1-DK2/bootloader/optee-os-custom/ta/pkcs11/src/object.c:842 (discriminator 1)
    10de:	f04f 33ff 	mov.w	r3, #4294967295	; 0xffffffff
/home/aom1/Work/Linux/target/STM32MP1-DK2/bootloader/optee-os-custom/ta/pkcs11/src/object.c:843 (discriminator 1)
    10e2:	18a8      	adds	r0, r5, r2
    10e4:	4659      	mov	r1, fp
/home/aom1/Work/Linux/target/STM32MP1-DK2/bootloader/optee-os-custom/ta/pkcs11/src/object.c:842 (discriminator 1)
    10e6:	930a      	str	r3, [sp, #40]	; 0x28
/home/aom1/Work/Linux/target/STM32MP1-DK2/bootloader/optee-os-custom/ta/pkcs11/src/object.c:843 (discriminator 1)
    10e8:	f009 f9b8 	bl	a45c <TEE_MemMove>
/home/aom1/Work/Linux/target/STM32MP1-DK2/bootloader/optee-os-custom/ta/pkcs11/src/object.c:846 (discriminator 1)
    10ec:	4630      	mov	r0, r6
/home/aom1/Work/Linux/target/STM32MP1-DK2/bootloader/optee-os-custom/ta/pkcs11/src/object.c:845 (discriminator 1)
    10ee:	2301      	movs	r3, #1
    10f0:	9302      	str	r3, [sp, #8]
/home/aom1/Work/Linux/target/STM32MP1-DK2/bootloader/optee-os-custom/ta/pkcs11/src/object.c:845
    10f2:	4606      	mov	r6, r0
    10f4:	e017      	b.n	1126 <entry_get_attribute_value+0x152>
/home/aom1/Work/Linux/target/STM32MP1-DK2/bootloader/optee-os-custom/ta/pkcs11/src/object.c:850
    10f6:	9a0a      	ldr	r2, [sp, #40]	; 0x28
    10f8:	b10a      	cbz	r2, 10fe <entry_get_attribute_value+0x12a>
/home/aom1/Work/Linux/target/STM32MP1-DK2/bootloader/optee-os-custom/ta/pkcs11/src/object.c:850 (discriminator 1)
    10fa:	f105 0208 	add.w	r2, r5, #8
/home/aom1/Work/Linux/target/STM32MP1-DK2/bootloader/optee-os-custom/ta/pkcs11/src/object.c:856 (discriminator 4)
    10fe:	9909      	ldr	r1, [sp, #36]	; 0x24
    1100:	465b      	mov	r3, fp
    1102:	f8d8 0008 	ldr.w	r0, [r8, #8]
    1106:	9205      	str	r2, [sp, #20]
    1108:	f7ff f860 	bl	1cc <get_attribute>
/home/aom1/Work/Linux/target/STM32MP1-DK2/bootloader/optee-os-custom/ta/pkcs11/src/object.c:859 (discriminator 4)
    110c:	9a05      	ldr	r2, [sp, #20]
    110e:	f5b0 7fa8 	cmp.w	r0, #336	; 0x150
    1112:	d010      	beq.n	1136 <entry_get_attribute_value+0x162>
/home/aom1/Work/Linux/target/STM32MP1-DK2/bootloader/optee-os-custom/ta/pkcs11/src/object.c:859
    1114:	f1b0 4f00 	cmp.w	r0, #2147483648	; 0x80000000
    1118:	d008      	beq.n	112c <entry_get_attribute_value+0x158>
    111a:	b988      	cbnz	r0, 1140 <entry_get_attribute_value+0x16c>
/home/aom1/Work/Linux/target/STM32MP1-DK2/bootloader/optee-os-custom/ta/pkcs11/src/object.c:875 (discriminator 1)
    111c:	2204      	movs	r2, #4
    111e:	4659      	mov	r1, fp
    1120:	18a8      	adds	r0, r5, r2
    1122:	f009 f99b 	bl	a45c <TEE_MemMove>
/home/aom1/Work/Linux/target/STM32MP1-DK2/bootloader/optee-os-custom/ta/pkcs11/src/object.c:824
    1126:	9b04      	ldr	r3, [sp, #16]
    1128:	441d      	add	r5, r3
    112a:	e7ae      	b.n	108a <entry_get_attribute_value+0xb6>
/home/aom1/Work/Linux/target/STM32MP1-DK2/bootloader/optee-os-custom/ta/pkcs11/src/object.c:864
    112c:	9e01      	ldr	r6, [sp, #4]
/home/aom1/Work/Linux/target/STM32MP1-DK2/bootloader/optee-os-custom/ta/pkcs11/src/object.c:863
    112e:	f04f 33ff 	mov.w	r3, #4294967295	; 0xffffffff
    1132:	930a      	str	r3, [sp, #40]	; 0x28
/home/aom1/Work/Linux/target/STM32MP1-DK2/bootloader/optee-os-custom/ta/pkcs11/src/object.c:865
    1134:	e7f2      	b.n	111c <entry_get_attribute_value+0x148>
/home/aom1/Work/Linux/target/STM32MP1-DK2/bootloader/optee-os-custom/ta/pkcs11/src/object.c:868
    1136:	9b01      	ldr	r3, [sp, #4]
    1138:	2a00      	cmp	r2, #0
    113a:	bf18      	it	ne
    113c:	4699      	movne	r9, r3
    113e:	e7ed      	b.n	111c <entry_get_attribute_value+0x148>
/home/aom1/Work/Linux/target/STM32MP1-DK2/bootloader/optee-os-custom/ta/pkcs11/src/object.c:871
    1140:	2405      	movs	r4, #5
    1142:	e787      	b.n	1054 <entry_get_attribute_value+0x80>
/home/aom1/Work/Linux/target/STM32MP1-DK2/bootloader/optee-os-custom/ta/pkcs11/src/object.c:780
    1144:	2407      	movs	r4, #7
    1146:	e785      	b.n	1054 <entry_get_attribute_value+0x80>
/home/aom1/Work/Linux/target/STM32MP1-DK2/bootloader/optee-os-custom/ta/pkcs11/src/object.c:763
    1148:	2407      	movs	r4, #7
    114a:	e786      	b.n	105a <entry_get_attribute_value+0x86>

0000114c <entry_get_object_size>:
entry_get_object_size():
/home/aom1/Work/Linux/target/STM32MP1-DK2/bootloader/optee-os-custom/ta/pkcs11/src/object.c:920
    114c:	efc0 0010 	vmov.i32	d16, #0	; 0x00000000
/home/aom1/Work/Linux/target/STM32MP1-DK2/bootloader/optee-os-custom/ta/pkcs11/src/object.c:912
    1150:	b570      	push	{r4, r5, r6, lr}
    1152:	b086      	sub	sp, #24
/home/aom1/Work/Linux/target/STM32MP1-DK2/bootloader/optee-os-custom/ta/pkcs11/src/object.c:921
    1154:	2300      	movs	r3, #0
/home/aom1/Work/Linux/target/STM32MP1-DK2/bootloader/optee-os-custom/ta/pkcs11/src/object.c:912
    1156:	4615      	mov	r5, r2
/home/aom1/Work/Linux/target/STM32MP1-DK2/bootloader/optee-os-custom/ta/pkcs11/src/object.c:920
    1158:	edcd 0b03 	vstr	d16, [sp, #12]
/home/aom1/Work/Linux/target/STM32MP1-DK2/bootloader/optee-os-custom/ta/pkcs11/src/object.c:924
    115c:	9302      	str	r3, [sp, #8]
/home/aom1/Work/Linux/target/STM32MP1-DK2/bootloader/optee-os-custom/ta/pkcs11/src/object.c:920
    115e:	ae03      	add	r6, sp, #12
    1160:	edcd 0b04 	vstr	d16, [sp, #16]
/home/aom1/Work/Linux/target/STM32MP1-DK2/bootloader/optee-os-custom/ta/pkcs11/src/object.c:926
    1164:	4604      	mov	r4, r0
/home/aom1/Work/Linux/target/STM32MP1-DK2/bootloader/optee-os-custom/ta/pkcs11/src/object.c:922
    1166:	e9cd 3300 	strd	r3, r3, [sp]
/home/aom1/Work/Linux/target/STM32MP1-DK2/bootloader/optee-os-custom/ta/pkcs11/src/object.c:926
    116a:	b918      	cbnz	r0, 1174 <entry_get_object_size+0x28>
/home/aom1/Work/Linux/target/STM32MP1-DK2/bootloader/optee-os-custom/ta/pkcs11/src/object.c:927
    116c:	2407      	movs	r4, #7
/home/aom1/Work/Linux/target/STM32MP1-DK2/bootloader/optee-os-custom/ta/pkcs11/src/object.c:958
    116e:	4620      	mov	r0, r4
    1170:	b006      	add	sp, #24
    1172:	bd70      	pop	{r4, r5, r6, pc}
/home/aom1/Work/Linux/target/STM32MP1-DK2/bootloader/optee-os-custom/ta/pkcs11/src/object.c:926 (discriminator 1)
    1174:	f240 6307 	movw	r3, #1543	; 0x607
    1178:	4299      	cmp	r1, r3
    117a:	d1f7      	bne.n	116c <entry_get_object_size+0x20>
/home/aom1/Work/Linux/target/STM32MP1-DK2/bootloader/optee-os-custom/ta/pkcs11/src/object.c:929
    117c:	e9d2 1200 	ldrd	r1, r2, [r2]
    1180:	4630      	mov	r0, r6
    1182:	f007 ff91 	bl	90a8 <serialargs_init>
/home/aom1/Work/Linux/target/STM32MP1-DK2/bootloader/optee-os-custom/ta/pkcs11/src/object.c:931
    1186:	4621      	mov	r1, r4
    1188:	466a      	mov	r2, sp
    118a:	4630      	mov	r0, r6
    118c:	f008 f854 	bl	9238 <serialargs_get_session_from_handle>
/home/aom1/Work/Linux/target/STM32MP1-DK2/bootloader/optee-os-custom/ta/pkcs11/src/object.c:932
    1190:	4604      	mov	r4, r0
    1192:	2800      	cmp	r0, #0
    1194:	d1eb      	bne.n	116e <entry_get_object_size+0x22>
/home/aom1/Work/Linux/target/STM32MP1-DK2/bootloader/optee-os-custom/ta/pkcs11/src/object.c:935
    1196:	2204      	movs	r2, #4
    1198:	4630      	mov	r0, r6
    119a:	eb0d 0102 	add.w	r1, sp, r2
    119e:	f007 ffb3 	bl	9108 <serialargs_get>
/home/aom1/Work/Linux/target/STM32MP1-DK2/bootloader/optee-os-custom/ta/pkcs11/src/object.c:936
    11a2:	4604      	mov	r4, r0
    11a4:	2800      	cmp	r0, #0
    11a6:	d1e2      	bne.n	116e <entry_get_object_size+0x22>
/home/aom1/Work/Linux/target/STM32MP1-DK2/bootloader/optee-os-custom/ta/pkcs11/src/object.c:939
    11a8:	4630      	mov	r0, r6
    11aa:	f008 f83c 	bl	9226 <serialargs_remaining_bytes>
    11ae:	2800      	cmp	r0, #0
    11b0:	d1dc      	bne.n	116c <entry_get_object_size+0x20>
/home/aom1/Work/Linux/target/STM32MP1-DK2/bootloader/optee-os-custom/ta/pkcs11/src/object.c:942
    11b2:	e9dd 1000 	ldrd	r1, r0, [sp]
    11b6:	f7ff fb88 	bl	8ca <pkcs11_handle2object>
/home/aom1/Work/Linux/target/STM32MP1-DK2/bootloader/optee-os-custom/ta/pkcs11/src/object.c:943
    11ba:	4606      	mov	r6, r0
    11bc:	b908      	cbnz	r0, 11c2 <entry_get_object_size+0x76>
/home/aom1/Work/Linux/target/STM32MP1-DK2/bootloader/optee-os-custom/ta/pkcs11/src/object.c:944
    11be:	2482      	movs	r4, #130	; 0x82
    11c0:	e7d5      	b.n	116e <entry_get_object_size+0x22>
/home/aom1/Work/Linux/target/STM32MP1-DK2/bootloader/optee-os-custom/ta/pkcs11/src/object.c:946
    11c2:	6881      	ldr	r1, [r0, #8]
    11c4:	9800      	ldr	r0, [sp, #0]
    11c6:	f001 feb1 	bl	2f2c <check_access_attrs_against_token>
/home/aom1/Work/Linux/target/STM32MP1-DK2/bootloader/optee-os-custom/ta/pkcs11/src/object.c:947
    11ca:	4604      	mov	r4, r0
    11cc:	2800      	cmp	r0, #0
    11ce:	d1f6      	bne.n	11be <entry_get_object_size+0x72>
/home/aom1/Work/Linux/target/STM32MP1-DK2/bootloader/optee-os-custom/ta/pkcs11/src/object.c:950
    11d0:	696a      	ldr	r2, [r5, #20]
    11d2:	2a04      	cmp	r2, #4
    11d4:	d1ca      	bne.n	116c <entry_get_object_size+0x20>
/home/aom1/Work/Linux/target/STM32MP1-DK2/bootloader/optee-os-custom/ta/pkcs11/src/object.c:953
    11d6:	68b3      	ldr	r3, [r6, #8]
/home/aom1/Work/Linux/target/STM32MP1-DK2/bootloader/optee-os-custom/ta/pkcs11/src/object.c:955
    11d8:	a902      	add	r1, sp, #8
    11da:	6928      	ldr	r0, [r5, #16]
/home/aom1/Work/Linux/target/STM32MP1-DK2/bootloader/optee-os-custom/ta/pkcs11/src/object.c:953
    11dc:	681b      	ldr	r3, [r3, #0]
    11de:	3308      	adds	r3, #8
    11e0:	9302      	str	r3, [sp, #8]
/home/aom1/Work/Linux/target/STM32MP1-DK2/bootloader/optee-os-custom/ta/pkcs11/src/object.c:955
    11e2:	f009 f93b 	bl	a45c <TEE_MemMove>
/home/aom1/Work/Linux/target/STM32MP1-DK2/bootloader/optee-os-custom/ta/pkcs11/src/object.c:957
    11e6:	e7c2      	b.n	116e <entry_get_object_size+0x22>

000011e8 <entry_set_attribute_value>:
entry_set_attribute_value():
/home/aom1/Work/Linux/target/STM32MP1-DK2/bootloader/optee-os-custom/ta/pkcs11/src/object.c:969
    11e8:	efc0 0010 	vmov.i32	d16, #0	; 0x00000000
/home/aom1/Work/Linux/target/STM32MP1-DK2/bootloader/optee-os-custom/ta/pkcs11/src/object.c:962
    11ec:	b570      	push	{r4, r5, r6, lr}
    11ee:	b08c      	sub	sp, #48	; 0x30
    11f0:	4613      	mov	r3, r2
/home/aom1/Work/Linux/target/STM32MP1-DK2/bootloader/optee-os-custom/ta/pkcs11/src/object.c:970
    11f2:	2200      	movs	r2, #0
/home/aom1/Work/Linux/target/STM32MP1-DK2/bootloader/optee-os-custom/ta/pkcs11/src/object.c:969
    11f4:	edcd 0b09 	vstr	d16, [sp, #36]	; 0x24
/home/aom1/Work/Linux/target/STM32MP1-DK2/bootloader/optee-os-custom/ta/pkcs11/src/object.c:970
    11f8:	9205      	str	r2, [sp, #20]
/home/aom1/Work/Linux/target/STM32MP1-DK2/bootloader/optee-os-custom/ta/pkcs11/src/object.c:962
    11fa:	460c      	mov	r4, r1
/home/aom1/Work/Linux/target/STM32MP1-DK2/bootloader/optee-os-custom/ta/pkcs11/src/object.c:969
    11fc:	edcd 0b0a 	vstr	d16, [sp, #40]	; 0x28
/home/aom1/Work/Linux/target/STM32MP1-DK2/bootloader/optee-os-custom/ta/pkcs11/src/object.c:975
    1200:	9208      	str	r2, [sp, #32]
/home/aom1/Work/Linux/target/STM32MP1-DK2/bootloader/optee-os-custom/ta/pkcs11/src/object.c:969
    1202:	ad09      	add	r5, sp, #36	; 0x24
/home/aom1/Work/Linux/target/STM32MP1-DK2/bootloader/optee-os-custom/ta/pkcs11/src/object.c:978
    1204:	4606      	mov	r6, r0
/home/aom1/Work/Linux/target/STM32MP1-DK2/bootloader/optee-os-custom/ta/pkcs11/src/object.c:974
    1206:	e9cd 2206 	strd	r2, r2, [sp, #24]
/home/aom1/Work/Linux/target/STM32MP1-DK2/bootloader/optee-os-custom/ta/pkcs11/src/object.c:978
    120a:	2800      	cmp	r0, #0
    120c:	d074      	beq.n	12f8 <entry_set_attribute_value+0x110>
/home/aom1/Work/Linux/target/STM32MP1-DK2/bootloader/optee-os-custom/ta/pkcs11/src/object.c:978 (discriminator 1)
    120e:	2907      	cmp	r1, #7
    1210:	d172      	bne.n	12f8 <entry_set_attribute_value+0x110>
/home/aom1/Work/Linux/target/STM32MP1-DK2/bootloader/optee-os-custom/ta/pkcs11/src/object.c:981
    1212:	e9d3 1200 	ldrd	r1, r2, [r3]
    1216:	4628      	mov	r0, r5
    1218:	f007 ff46 	bl	90a8 <serialargs_init>
/home/aom1/Work/Linux/target/STM32MP1-DK2/bootloader/optee-os-custom/ta/pkcs11/src/object.c:983
    121c:	aa05      	add	r2, sp, #20
    121e:	4631      	mov	r1, r6
    1220:	4628      	mov	r0, r5
    1222:	f008 f809 	bl	9238 <serialargs_get_session_from_handle>
/home/aom1/Work/Linux/target/STM32MP1-DK2/bootloader/optee-os-custom/ta/pkcs11/src/object.c:984
    1226:	2800      	cmp	r0, #0
    1228:	d15b      	bne.n	12e2 <entry_set_attribute_value+0xfa>
/home/aom1/Work/Linux/target/STM32MP1-DK2/bootloader/optee-os-custom/ta/pkcs11/src/object.c:987
    122a:	2204      	movs	r2, #4
    122c:	a908      	add	r1, sp, #32
    122e:	4628      	mov	r0, r5
    1230:	f007 ff6a 	bl	9108 <serialargs_get>
/home/aom1/Work/Linux/target/STM32MP1-DK2/bootloader/optee-os-custom/ta/pkcs11/src/object.c:988
    1234:	2800      	cmp	r0, #0
    1236:	d154      	bne.n	12e2 <entry_set_attribute_value+0xfa>
/home/aom1/Work/Linux/target/STM32MP1-DK2/bootloader/optee-os-custom/ta/pkcs11/src/object.c:991
    1238:	a906      	add	r1, sp, #24
    123a:	4628      	mov	r0, r5
    123c:	f007 ffd3 	bl	91e6 <serialargs_alloc_get_attributes>
/home/aom1/Work/Linux/target/STM32MP1-DK2/bootloader/optee-os-custom/ta/pkcs11/src/object.c:992
    1240:	2800      	cmp	r0, #0
    1242:	d14e      	bne.n	12e2 <entry_set_attribute_value+0xfa>
/home/aom1/Work/Linux/target/STM32MP1-DK2/bootloader/optee-os-custom/ta/pkcs11/src/object.c:995
    1244:	4628      	mov	r0, r5
    1246:	f007 ffee 	bl	9226 <serialargs_remaining_bytes>
    124a:	2800      	cmp	r0, #0
    124c:	d142      	bne.n	12d4 <entry_set_attribute_value+0xec>
/home/aom1/Work/Linux/target/STM32MP1-DK2/bootloader/optee-os-custom/ta/pkcs11/src/object.c:1000
    124e:	9905      	ldr	r1, [sp, #20]
    1250:	9808      	ldr	r0, [sp, #32]
    1252:	f7ff fb3a 	bl	8ca <pkcs11_handle2object>
/home/aom1/Work/Linux/target/STM32MP1-DK2/bootloader/optee-os-custom/ta/pkcs11/src/object.c:1001
    1256:	4605      	mov	r5, r0
    1258:	2800      	cmp	r0, #0
    125a:	d044      	beq.n	12e6 <entry_set_attribute_value+0xfe>
/home/aom1/Work/Linux/target/STM32MP1-DK2/bootloader/optee-os-custom/ta/pkcs11/src/object.c:1007
    125c:	6880      	ldr	r0, [r0, #8]
    125e:	f001 fe5a 	bl	2f16 <object_is_token>
    1262:	b120      	cbz	r0, 126e <entry_set_attribute_value+0x86>
pkcs11_session_is_read_write():
/home/aom1/Work/Linux/target/STM32MP1-DK2/bootloader/optee-os-custom/ta/pkcs11/src/pkcs11_token.h:291 (discriminator 1)
    1264:	9b05      	ldr	r3, [sp, #20]
/home/aom1/Work/Linux/target/STM32MP1-DK2/bootloader/optee-os-custom/ta/pkcs11/src/pkcs11_token.h:292 (discriminator 1)
    1266:	699b      	ldr	r3, [r3, #24]
    1268:	3b02      	subs	r3, #2
entry_set_attribute_value():
/home/aom1/Work/Linux/target/STM32MP1-DK2/bootloader/optee-os-custom/ta/pkcs11/src/object.c:1007 (discriminator 1)
    126a:	2b02      	cmp	r3, #2
    126c:	d83d      	bhi.n	12ea <entry_set_attribute_value+0x102>
/home/aom1/Work/Linux/target/STM32MP1-DK2/bootloader/optee-os-custom/ta/pkcs11/src/object.c:1017
    126e:	68a9      	ldr	r1, [r5, #8]
    1270:	9805      	ldr	r0, [sp, #20]
    1272:	f001 fe5b 	bl	2f2c <check_access_attrs_against_token>
/home/aom1/Work/Linux/target/STM32MP1-DK2/bootloader/optee-os-custom/ta/pkcs11/src/object.c:1018
    1276:	4604      	mov	r4, r0
    1278:	2800      	cmp	r0, #0
    127a:	d138      	bne.n	12ee <entry_set_attribute_value+0x106>
/home/aom1/Work/Linux/target/STM32MP1-DK2/bootloader/optee-os-custom/ta/pkcs11/src/object.c:1024
    127c:	68a8      	ldr	r0, [r5, #8]
    127e:	f001 fe4d 	bl	2f1c <object_is_modifiable>
    1282:	2800      	cmp	r0, #0
    1284:	d036      	beq.n	12f4 <entry_set_attribute_value+0x10c>
/home/aom1/Work/Linux/target/STM32MP1-DK2/bootloader/optee-os-custom/ta/pkcs11/src/object.c:1029
    1286:	9906      	ldr	r1, [sp, #24]
/home/aom1/Work/Linux/target/STM32MP1-DK2/bootloader/optee-os-custom/ta/pkcs11/src/object.c:1036
    1288:	f04f 33ff 	mov.w	r3, #4294967295	; 0xffffffff
    128c:	260e      	movs	r6, #14
    128e:	a807      	add	r0, sp, #28
/home/aom1/Work/Linux/target/STM32MP1-DK2/bootloader/optee-os-custom/ta/pkcs11/src/object.c:1029
    1290:	680a      	ldr	r2, [r1, #0]
/home/aom1/Work/Linux/target/STM32MP1-DK2/bootloader/optee-os-custom/ta/pkcs11/src/object.c:1036
    1292:	9302      	str	r3, [sp, #8]
    1294:	9301      	str	r3, [sp, #4]
    1296:	3208      	adds	r2, #8
    1298:	9600      	str	r6, [sp, #0]
    129a:	4623      	mov	r3, r4
    129c:	f001 f904 	bl	24a8 <create_attributes_from_template>
/home/aom1/Work/Linux/target/STM32MP1-DK2/bootloader/optee-os-custom/ta/pkcs11/src/object.c:1040
    12a0:	4604      	mov	r4, r0
    12a2:	b9b8      	cbnz	r0, 12d4 <entry_set_attribute_value+0xec>
/home/aom1/Work/Linux/target/STM32MP1-DK2/bootloader/optee-os-custom/ta/pkcs11/src/object.c:1044
    12a4:	9907      	ldr	r1, [sp, #28]
    12a6:	4633      	mov	r3, r6
    12a8:	9805      	ldr	r0, [sp, #20]
    12aa:	462a      	mov	r2, r5
    12ac:	f002 fa07 	bl	36be <check_attrs_against_modification>
/home/aom1/Work/Linux/target/STM32MP1-DK2/bootloader/optee-os-custom/ta/pkcs11/src/object.c:1045
    12b0:	4604      	mov	r4, r0
    12b2:	b978      	cbnz	r0, 12d4 <entry_set_attribute_value+0xec>
/home/aom1/Work/Linux/target/STM32MP1-DK2/bootloader/optee-os-custom/ta/pkcs11/src/object.c:1052
    12b4:	9907      	ldr	r1, [sp, #28]
    12b6:	f105 0008 	add.w	r0, r5, #8
    12ba:	f7fe ffc3 	bl	244 <modify_attributes_list>
/home/aom1/Work/Linux/target/STM32MP1-DK2/bootloader/optee-os-custom/ta/pkcs11/src/object.c:1053
    12be:	4604      	mov	r4, r0
    12c0:	b940      	cbnz	r0, 12d4 <entry_set_attribute_value+0xec>
/home/aom1/Work/Linux/target/STM32MP1-DK2/bootloader/optee-os-custom/ta/pkcs11/src/object.c:1056
    12c2:	68a8      	ldr	r0, [r5, #8]
    12c4:	2101      	movs	r1, #1
    12c6:	f7fe ffe9 	bl	29c <get_bool>
    12ca:	b118      	cbz	r0, 12d4 <entry_set_attribute_value+0xec>
/home/aom1/Work/Linux/target/STM32MP1-DK2/bootloader/optee-os-custom/ta/pkcs11/src/object.c:1057
    12cc:	4628      	mov	r0, r5
    12ce:	f000 fd11 	bl	1cf4 <update_persistent_object_attributes>
    12d2:	4604      	mov	r4, r0
/home/aom1/Work/Linux/target/STM32MP1-DK2/bootloader/optee-os-custom/ta/pkcs11/src/object.c:1066
    12d4:	9807      	ldr	r0, [sp, #28]
    12d6:	f009 f947 	bl	a568 <TEE_Free>
/home/aom1/Work/Linux/target/STM32MP1-DK2/bootloader/optee-os-custom/ta/pkcs11/src/object.c:1067
    12da:	9806      	ldr	r0, [sp, #24]
    12dc:	f009 f944 	bl	a568 <TEE_Free>
/home/aom1/Work/Linux/target/STM32MP1-DK2/bootloader/optee-os-custom/ta/pkcs11/src/object.c:1068
    12e0:	4620      	mov	r0, r4
/home/aom1/Work/Linux/target/STM32MP1-DK2/bootloader/optee-os-custom/ta/pkcs11/src/object.c:1069
    12e2:	b00c      	add	sp, #48	; 0x30
    12e4:	bd70      	pop	{r4, r5, r6, pc}
/home/aom1/Work/Linux/target/STM32MP1-DK2/bootloader/optee-os-custom/ta/pkcs11/src/object.c:1002
    12e6:	2482      	movs	r4, #130	; 0x82
    12e8:	e7f4      	b.n	12d4 <entry_set_attribute_value+0xec>
/home/aom1/Work/Linux/target/STM32MP1-DK2/bootloader/optee-os-custom/ta/pkcs11/src/object.c:1010
    12ea:	24b5      	movs	r4, #181	; 0xb5
    12ec:	e7f2      	b.n	12d4 <entry_set_attribute_value+0xec>
/home/aom1/Work/Linux/target/STM32MP1-DK2/bootloader/optee-os-custom/ta/pkcs11/src/object.c:1019
    12ee:	f240 1401 	movw	r4, #257	; 0x101
    12f2:	e7ef      	b.n	12d4 <entry_set_attribute_value+0xec>
/home/aom1/Work/Linux/target/STM32MP1-DK2/bootloader/optee-os-custom/ta/pkcs11/src/object.c:1025
    12f4:	241b      	movs	r4, #27
    12f6:	e7ed      	b.n	12d4 <entry_set_attribute_value+0xec>
/home/aom1/Work/Linux/target/STM32MP1-DK2/bootloader/optee-os-custom/ta/pkcs11/src/object.c:979
    12f8:	2007      	movs	r0, #7
    12fa:	e7f2      	b.n	12e2 <entry_set_attribute_value+0xfa>

000012fc <entry_copy_object>:
entry_copy_object():
/home/aom1/Work/Linux/target/STM32MP1-DK2/bootloader/optee-os-custom/ta/pkcs11/src/object.c:1081
    12fc:	efc0 0010 	vmov.i32	d16, #0	; 0x00000000
/home/aom1/Work/Linux/target/STM32MP1-DK2/bootloader/optee-os-custom/ta/pkcs11/src/object.c:1073
    1300:	e92d 41f0 	stmdb	sp!, {r4, r5, r6, r7, r8, lr}
    1304:	b090      	sub	sp, #64	; 0x40
/home/aom1/Work/Linux/target/STM32MP1-DK2/bootloader/optee-os-custom/ta/pkcs11/src/object.c:1082
    1306:	2300      	movs	r3, #0
/home/aom1/Work/Linux/target/STM32MP1-DK2/bootloader/optee-os-custom/ta/pkcs11/src/object.c:1073
    1308:	4616      	mov	r6, r2
/home/aom1/Work/Linux/target/STM32MP1-DK2/bootloader/optee-os-custom/ta/pkcs11/src/object.c:1081
    130a:	edcd 0b0d 	vstr	d16, [sp, #52]	; 0x34
    130e:	ad0d      	add	r5, sp, #52	; 0x34
/home/aom1/Work/Linux/target/STM32MP1-DK2/bootloader/optee-os-custom/ta/pkcs11/src/object.c:1093
    1310:	4604      	mov	r4, r0
/home/aom1/Work/Linux/target/STM32MP1-DK2/bootloader/optee-os-custom/ta/pkcs11/src/object.c:1081
    1312:	edcd 0b0e 	vstr	d16, [sp, #56]	; 0x38
/home/aom1/Work/Linux/target/STM32MP1-DK2/bootloader/optee-os-custom/ta/pkcs11/src/object.c:1083
    1316:	e9cd 3306 	strd	r3, r3, [sp, #24]
/home/aom1/Work/Linux/target/STM32MP1-DK2/bootloader/optee-os-custom/ta/pkcs11/src/object.c:1085
    131a:	e9cd 3308 	strd	r3, r3, [sp, #32]
/home/aom1/Work/Linux/target/STM32MP1-DK2/bootloader/optee-os-custom/ta/pkcs11/src/object.c:1089
    131e:	e9cd 330a 	strd	r3, r3, [sp, #40]	; 0x28
/home/aom1/Work/Linux/target/STM32MP1-DK2/bootloader/optee-os-custom/ta/pkcs11/src/object.c:1093
    1322:	2800      	cmp	r0, #0
    1324:	f000 80c6 	beq.w	14b4 <entry_copy_object+0x1b8>
/home/aom1/Work/Linux/target/STM32MP1-DK2/bootloader/optee-os-custom/ta/pkcs11/src/object.c:1093 (discriminator 1)
    1328:	f240 6307 	movw	r3, #1543	; 0x607
    132c:	4299      	cmp	r1, r3
    132e:	f040 80c1 	bne.w	14b4 <entry_copy_object+0x1b8>
/home/aom1/Work/Linux/target/STM32MP1-DK2/bootloader/optee-os-custom/ta/pkcs11/src/object.c:1093 (discriminator 2)
    1332:	6957      	ldr	r7, [r2, #20]
    1334:	2f04      	cmp	r7, #4
    1336:	f040 80bd 	bne.w	14b4 <entry_copy_object+0x1b8>
/home/aom1/Work/Linux/target/STM32MP1-DK2/bootloader/optee-os-custom/ta/pkcs11/src/object.c:1097
    133a:	e9d2 1200 	ldrd	r1, r2, [r2]
    133e:	4628      	mov	r0, r5
    1340:	f007 feb2 	bl	90a8 <serialargs_init>
/home/aom1/Work/Linux/target/STM32MP1-DK2/bootloader/optee-os-custom/ta/pkcs11/src/object.c:1099
    1344:	4621      	mov	r1, r4
    1346:	aa06      	add	r2, sp, #24
    1348:	4628      	mov	r0, r5
    134a:	f007 ff75 	bl	9238 <serialargs_get_session_from_handle>
/home/aom1/Work/Linux/target/STM32MP1-DK2/bootloader/optee-os-custom/ta/pkcs11/src/object.c:1100
    134e:	4604      	mov	r4, r0
    1350:	2800      	cmp	r0, #0
    1352:	f040 809e 	bne.w	1492 <entry_copy_object+0x196>
/home/aom1/Work/Linux/target/STM32MP1-DK2/bootloader/optee-os-custom/ta/pkcs11/src/object.c:1103
    1356:	463a      	mov	r2, r7
    1358:	a90a      	add	r1, sp, #40	; 0x28
    135a:	4628      	mov	r0, r5
    135c:	f007 fed4 	bl	9108 <serialargs_get>
/home/aom1/Work/Linux/target/STM32MP1-DK2/bootloader/optee-os-custom/ta/pkcs11/src/object.c:1104
    1360:	4604      	mov	r4, r0
    1362:	2800      	cmp	r0, #0
    1364:	f040 8095 	bne.w	1492 <entry_copy_object+0x196>
/home/aom1/Work/Linux/target/STM32MP1-DK2/bootloader/optee-os-custom/ta/pkcs11/src/object.c:1107
    1368:	a907      	add	r1, sp, #28
    136a:	4628      	mov	r0, r5
    136c:	f007 ff3b 	bl	91e6 <serialargs_alloc_get_attributes>
/home/aom1/Work/Linux/target/STM32MP1-DK2/bootloader/optee-os-custom/ta/pkcs11/src/object.c:1108
    1370:	4604      	mov	r4, r0
    1372:	2800      	cmp	r0, #0
    1374:	f040 808d 	bne.w	1492 <entry_copy_object+0x196>
/home/aom1/Work/Linux/target/STM32MP1-DK2/bootloader/optee-os-custom/ta/pkcs11/src/object.c:1111
    1378:	4628      	mov	r0, r5
    137a:	f007 ff54 	bl	9226 <serialargs_remaining_bytes>
    137e:	2800      	cmp	r0, #0
    1380:	f040 808b 	bne.w	149a <entry_copy_object+0x19e>
/home/aom1/Work/Linux/target/STM32MP1-DK2/bootloader/optee-os-custom/ta/pkcs11/src/object.c:1116
    1384:	9906      	ldr	r1, [sp, #24]
    1386:	980a      	ldr	r0, [sp, #40]	; 0x28
    1388:	f7ff fa9f 	bl	8ca <pkcs11_handle2object>
/home/aom1/Work/Linux/target/STM32MP1-DK2/bootloader/optee-os-custom/ta/pkcs11/src/object.c:1117
    138c:	4605      	mov	r5, r0
    138e:	2800      	cmp	r0, #0
    1390:	f000 8085 	beq.w	149e <entry_copy_object+0x1a2>
/home/aom1/Work/Linux/target/STM32MP1-DK2/bootloader/optee-os-custom/ta/pkcs11/src/object.c:1123
    1394:	6880      	ldr	r0, [r0, #8]
    1396:	f001 fdbe 	bl	2f16 <object_is_token>
    139a:	b120      	cbz	r0, 13a6 <entry_copy_object+0xaa>
pkcs11_session_is_read_write():
/home/aom1/Work/Linux/target/STM32MP1-DK2/bootloader/optee-os-custom/ta/pkcs11/src/pkcs11_token.h:291 (discriminator 1)
    139c:	9b06      	ldr	r3, [sp, #24]
/home/aom1/Work/Linux/target/STM32MP1-DK2/bootloader/optee-os-custom/ta/pkcs11/src/pkcs11_token.h:292 (discriminator 1)
    139e:	699b      	ldr	r3, [r3, #24]
    13a0:	3b02      	subs	r3, #2
entry_copy_object():
/home/aom1/Work/Linux/target/STM32MP1-DK2/bootloader/optee-os-custom/ta/pkcs11/src/object.c:1123 (discriminator 1)
    13a2:	2b02      	cmp	r3, #2
    13a4:	d87d      	bhi.n	14a2 <entry_copy_object+0x1a6>
/home/aom1/Work/Linux/target/STM32MP1-DK2/bootloader/optee-os-custom/ta/pkcs11/src/object.c:1133
    13a6:	68a9      	ldr	r1, [r5, #8]
    13a8:	9806      	ldr	r0, [sp, #24]
    13aa:	f001 fdbf 	bl	2f2c <check_access_attrs_against_token>
/home/aom1/Work/Linux/target/STM32MP1-DK2/bootloader/optee-os-custom/ta/pkcs11/src/object.c:1134
    13ae:	4604      	mov	r4, r0
    13b0:	2800      	cmp	r0, #0
    13b2:	d178      	bne.n	14a6 <entry_copy_object+0x1aa>
/home/aom1/Work/Linux/target/STM32MP1-DK2/bootloader/optee-os-custom/ta/pkcs11/src/object.c:1140
    13b4:	68a8      	ldr	r0, [r5, #8]
    13b6:	f001 fdb5 	bl	2f24 <object_is_copyable>
    13ba:	2800      	cmp	r0, #0
    13bc:	d076      	beq.n	14ac <entry_copy_object+0x1b0>
/home/aom1/Work/Linux/target/STM32MP1-DK2/bootloader/optee-os-custom/ta/pkcs11/src/object.c:1145
    13be:	9907      	ldr	r1, [sp, #28]
/home/aom1/Work/Linux/target/STM32MP1-DK2/bootloader/optee-os-custom/ta/pkcs11/src/object.c:1152
    13c0:	f04f 33ff 	mov.w	r3, #4294967295	; 0xffffffff
    13c4:	af08      	add	r7, sp, #32
    13c6:	f04f 080d 	mov.w	r8, #13
/home/aom1/Work/Linux/target/STM32MP1-DK2/bootloader/optee-os-custom/ta/pkcs11/src/object.c:1145
    13ca:	680a      	ldr	r2, [r1, #0]
/home/aom1/Work/Linux/target/STM32MP1-DK2/bootloader/optee-os-custom/ta/pkcs11/src/object.c:1152
    13cc:	4638      	mov	r0, r7
    13ce:	9302      	str	r3, [sp, #8]
    13d0:	9301      	str	r3, [sp, #4]
    13d2:	3208      	adds	r2, #8
    13d4:	f8cd 8000 	str.w	r8, [sp]
    13d8:	4623      	mov	r3, r4
    13da:	f001 f865 	bl	24a8 <create_attributes_from_template>
/home/aom1/Work/Linux/target/STM32MP1-DK2/bootloader/optee-os-custom/ta/pkcs11/src/object.c:1156
    13de:	4604      	mov	r4, r0
    13e0:	2800      	cmp	r0, #0
    13e2:	d14d      	bne.n	1480 <entry_copy_object+0x184>
/home/aom1/Work/Linux/target/STM32MP1-DK2/bootloader/optee-os-custom/ta/pkcs11/src/object.c:1160
    13e4:	9908      	ldr	r1, [sp, #32]
    13e6:	4643      	mov	r3, r8
    13e8:	9806      	ldr	r0, [sp, #24]
    13ea:	462a      	mov	r2, r5
    13ec:	f002 f967 	bl	36be <check_attrs_against_modification>
/home/aom1/Work/Linux/target/STM32MP1-DK2/bootloader/optee-os-custom/ta/pkcs11/src/object.c:1161
    13f0:	4604      	mov	r4, r0
    13f2:	2800      	cmp	r0, #0
    13f4:	d144      	bne.n	1480 <entry_copy_object+0x184>
/home/aom1/Work/Linux/target/STM32MP1-DK2/bootloader/optee-os-custom/ta/pkcs11/src/object.c:1164
    13f6:	68a8      	ldr	r0, [r5, #8]
    13f8:	f7ff fa41 	bl	87e <get_class>
/home/aom1/Work/Linux/target/STM32MP1-DK2/bootloader/optee-os-custom/ta/pkcs11/src/object.c:1166
    13fc:	3803      	subs	r0, #3
    13fe:	2801      	cmp	r0, #1
    1400:	d81b      	bhi.n	143a <entry_copy_object+0x13e>
/home/aom1/Work/Linux/target/STM32MP1-DK2/bootloader/optee-os-custom/ta/pkcs11/src/object.c:1174
    1402:	f88d 4017 	strb.w	r4, [sp, #23]
/home/aom1/Work/Linux/target/STM32MP1-DK2/bootloader/optee-os-custom/ta/pkcs11/src/object.c:1177
    1406:	f10d 0417 	add.w	r4, sp, #23
    140a:	9808      	ldr	r0, [sp, #32]
/home/aom1/Work/Linux/target/STM32MP1-DK2/bootloader/optee-os-custom/ta/pkcs11/src/object.c:1175
    140c:	f04f 0801 	mov.w	r8, #1
    1410:	f8cd 8030 	str.w	r8, [sp, #48]	; 0x30
/home/aom1/Work/Linux/target/STM32MP1-DK2/bootloader/optee-os-custom/ta/pkcs11/src/object.c:1177
    1414:	ab0c      	add	r3, sp, #48	; 0x30
    1416:	4622      	mov	r2, r4
    1418:	f44f 71b1 	mov.w	r1, #354	; 0x162
    141c:	f7fe fed6 	bl	1cc <get_attribute>
/home/aom1/Work/Linux/target/STM32MP1-DK2/bootloader/optee-os-custom/ta/pkcs11/src/object.c:1178
    1420:	b958      	cbnz	r0, 143a <entry_copy_object+0x13e>
/home/aom1/Work/Linux/target/STM32MP1-DK2/bootloader/optee-os-custom/ta/pkcs11/src/object.c:1178 (discriminator 1)
    1422:	f89d 3017 	ldrb.w	r3, [sp, #23]
    1426:	b943      	cbnz	r3, 143a <entry_copy_object+0x13e>
/home/aom1/Work/Linux/target/STM32MP1-DK2/bootloader/optee-os-custom/ta/pkcs11/src/object.c:1179
    1428:	4622      	mov	r2, r4
    142a:	4643      	mov	r3, r8
    142c:	f44f 71b2 	mov.w	r1, #356	; 0x164
    1430:	4638      	mov	r0, r7
    1432:	f7fe fe3d 	bl	b0 <add_attribute>
/home/aom1/Work/Linux/target/STM32MP1-DK2/bootloader/optee-os-custom/ta/pkcs11/src/object.c:1181
    1436:	4604      	mov	r4, r0
    1438:	bb10      	cbnz	r0, 1480 <entry_copy_object+0x184>
/home/aom1/Work/Linux/target/STM32MP1-DK2/bootloader/optee-os-custom/ta/pkcs11/src/object.c:1191
    143a:	68ab      	ldr	r3, [r5, #8]
/home/aom1/Work/Linux/target/STM32MP1-DK2/bootloader/optee-os-custom/ta/pkcs11/src/object.c:1192
    143c:	2100      	movs	r1, #0
/home/aom1/Work/Linux/target/STM32MP1-DK2/bootloader/optee-os-custom/ta/pkcs11/src/object.c:1191
    143e:	681c      	ldr	r4, [r3, #0]
    1440:	3408      	adds	r4, #8
/home/aom1/Work/Linux/target/STM32MP1-DK2/bootloader/optee-os-custom/ta/pkcs11/src/object.c:1192
    1442:	4620      	mov	r0, r4
    1444:	f009 f867 	bl	a516 <TEE_Malloc>
    1448:	9009      	str	r0, [sp, #36]	; 0x24
/home/aom1/Work/Linux/target/STM32MP1-DK2/bootloader/optee-os-custom/ta/pkcs11/src/object.c:1193
    144a:	b388      	cbz	r0, 14b0 <entry_copy_object+0x1b4>
/home/aom1/Work/Linux/target/STM32MP1-DK2/bootloader/optee-os-custom/ta/pkcs11/src/object.c:1198
    144c:	68a9      	ldr	r1, [r5, #8]
    144e:	4622      	mov	r2, r4
    1450:	f009 f804 	bl	a45c <TEE_MemMove>
/home/aom1/Work/Linux/target/STM32MP1-DK2/bootloader/optee-os-custom/ta/pkcs11/src/object.c:1204
    1454:	9908      	ldr	r1, [sp, #32]
    1456:	a809      	add	r0, sp, #36	; 0x24
    1458:	f7fe fef4 	bl	244 <modify_attributes_list>
/home/aom1/Work/Linux/target/STM32MP1-DK2/bootloader/optee-os-custom/ta/pkcs11/src/object.c:1205
    145c:	4604      	mov	r4, r0
    145e:	b978      	cbnz	r0, 1480 <entry_copy_object+0x184>
/home/aom1/Work/Linux/target/STM32MP1-DK2/bootloader/optee-os-custom/ta/pkcs11/src/object.c:1213
    1460:	9909      	ldr	r1, [sp, #36]	; 0x24
    1462:	ad0b      	add	r5, sp, #44	; 0x2c
    1464:	9806      	ldr	r0, [sp, #24]
    1466:	462a      	mov	r2, r5
    1468:	f7ff fac8 	bl	9fc <create_object>
/home/aom1/Work/Linux/target/STM32MP1-DK2/bootloader/optee-os-custom/ta/pkcs11/src/object.c:1214
    146c:	4604      	mov	r4, r0
    146e:	b938      	cbnz	r0, 1480 <entry_copy_object+0x184>
/home/aom1/Work/Linux/target/STM32MP1-DK2/bootloader/optee-os-custom/ta/pkcs11/src/object.c:1224
    1470:	9009      	str	r0, [sp, #36]	; 0x24
/home/aom1/Work/Linux/target/STM32MP1-DK2/bootloader/optee-os-custom/ta/pkcs11/src/object.c:1226
    1472:	2204      	movs	r2, #4
    1474:	6930      	ldr	r0, [r6, #16]
    1476:	4629      	mov	r1, r5
    1478:	f008 fff0 	bl	a45c <TEE_MemMove>
/home/aom1/Work/Linux/target/STM32MP1-DK2/bootloader/optee-os-custom/ta/pkcs11/src/object.c:1227
    147c:	2304      	movs	r3, #4
    147e:	6173      	str	r3, [r6, #20]
/home/aom1/Work/Linux/target/STM32MP1-DK2/bootloader/optee-os-custom/ta/pkcs11/src/object.c:1233
    1480:	9809      	ldr	r0, [sp, #36]	; 0x24
    1482:	f009 f871 	bl	a568 <TEE_Free>
/home/aom1/Work/Linux/target/STM32MP1-DK2/bootloader/optee-os-custom/ta/pkcs11/src/object.c:1234
    1486:	9808      	ldr	r0, [sp, #32]
    1488:	f009 f86e 	bl	a568 <TEE_Free>
/home/aom1/Work/Linux/target/STM32MP1-DK2/bootloader/optee-os-custom/ta/pkcs11/src/object.c:1235
    148c:	9807      	ldr	r0, [sp, #28]
    148e:	f009 f86b 	bl	a568 <TEE_Free>
/home/aom1/Work/Linux/target/STM32MP1-DK2/bootloader/optee-os-custom/ta/pkcs11/src/object.c:1237
    1492:	4620      	mov	r0, r4
    1494:	b010      	add	sp, #64	; 0x40
    1496:	e8bd 81f0 	ldmia.w	sp!, {r4, r5, r6, r7, r8, pc}
/home/aom1/Work/Linux/target/STM32MP1-DK2/bootloader/optee-os-custom/ta/pkcs11/src/object.c:1112
    149a:	2407      	movs	r4, #7
    149c:	e7f0      	b.n	1480 <entry_copy_object+0x184>
/home/aom1/Work/Linux/target/STM32MP1-DK2/bootloader/optee-os-custom/ta/pkcs11/src/object.c:1118
    149e:	2482      	movs	r4, #130	; 0x82
    14a0:	e7ee      	b.n	1480 <entry_copy_object+0x184>
/home/aom1/Work/Linux/target/STM32MP1-DK2/bootloader/optee-os-custom/ta/pkcs11/src/object.c:1126
    14a2:	24b5      	movs	r4, #181	; 0xb5
    14a4:	e7ec      	b.n	1480 <entry_copy_object+0x184>
/home/aom1/Work/Linux/target/STM32MP1-DK2/bootloader/optee-os-custom/ta/pkcs11/src/object.c:1135
    14a6:	f240 1401 	movw	r4, #257	; 0x101
    14aa:	e7e9      	b.n	1480 <entry_copy_object+0x184>
/home/aom1/Work/Linux/target/STM32MP1-DK2/bootloader/optee-os-custom/ta/pkcs11/src/object.c:1141
    14ac:	241b      	movs	r4, #27
    14ae:	e7e7      	b.n	1480 <entry_copy_object+0x184>
/home/aom1/Work/Linux/target/STM32MP1-DK2/bootloader/optee-os-custom/ta/pkcs11/src/object.c:1194
    14b0:	2431      	movs	r4, #49	; 0x31
    14b2:	e7e5      	b.n	1480 <entry_copy_object+0x184>
/home/aom1/Work/Linux/target/STM32MP1-DK2/bootloader/optee-os-custom/ta/pkcs11/src/object.c:1095
    14b4:	2407      	movs	r4, #7
    14b6:	e7ec      	b.n	1492 <entry_copy_object+0x196>

000014b8 <do_hash>:
do_hash():
/home/aom1/Work/Linux/target/STM32MP1-DK2/bootloader/optee-os-custom/ta/pkcs11/src/persistent_token.c:77
    14b8:	b570      	push	{r4, r5, r6, lr}
    14ba:	b086      	sub	sp, #24
    14bc:	4615      	mov	r5, r2
/home/aom1/Work/Linux/target/STM32MP1-DK2/bootloader/optee-os-custom/ta/pkcs11/src/persistent_token.c:80
    14be:	2240      	movs	r2, #64	; 0x40
/home/aom1/Work/Linux/target/STM32MP1-DK2/bootloader/optee-os-custom/ta/pkcs11/src/persistent_token.c:77
    14c0:	9302      	str	r3, [sp, #8]
/home/aom1/Work/Linux/target/STM32MP1-DK2/bootloader/optee-os-custom/ta/pkcs11/src/persistent_token.c:80
    14c2:	2300      	movs	r3, #0
/home/aom1/Work/Linux/target/STM32MP1-DK2/bootloader/optee-os-custom/ta/pkcs11/src/persistent_token.c:77
    14c4:	9003      	str	r0, [sp, #12]
    14c6:	460c      	mov	r4, r1
/home/aom1/Work/Linux/target/STM32MP1-DK2/bootloader/optee-os-custom/ta/pkcs11/src/persistent_token.c:80
    14c8:	e9cd 3204 	strd	r3, r2, [sp, #16]
/home/aom1/Work/Linux/target/STM32MP1-DK2/bootloader/optee-os-custom/ta/pkcs11/src/persistent_token.c:82
    14cc:	4916      	ldr	r1, [pc, #88]	; (1528 <do_hash+0x70>)
    14ce:	2205      	movs	r2, #5
/home/aom1/Work/Linux/target/STM32MP1-DK2/bootloader/optee-os-custom/ta/pkcs11/src/persistent_token.c:77
    14d0:	9e0a      	ldr	r6, [sp, #40]	; 0x28
/home/aom1/Work/Linux/target/STM32MP1-DK2/bootloader/optee-os-custom/ta/pkcs11/src/persistent_token.c:82
    14d2:	a804      	add	r0, sp, #16
    14d4:	f009 fd17 	bl	af06 <TEE_AllocateOperation>
/home/aom1/Work/Linux/target/STM32MP1-DK2/bootloader/optee-os-custom/ta/pkcs11/src/persistent_token.c:83
    14d8:	b128      	cbz	r0, 14e6 <do_hash+0x2e>
/home/aom1/Work/Linux/target/STM32MP1-DK2/bootloader/optee-os-custom/ta/pkcs11/src/persistent_token.c:84
    14da:	f002 faef 	bl	3abc <tee2pkcs_error>
    14de:	4604      	mov	r4, r0
/home/aom1/Work/Linux/target/STM32MP1-DK2/bootloader/optee-os-custom/ta/pkcs11/src/persistent_token.c:96
    14e0:	4620      	mov	r0, r4
    14e2:	b006      	add	sp, #24
    14e4:	bd70      	pop	{r4, r5, r6, pc}
/home/aom1/Work/Linux/target/STM32MP1-DK2/bootloader/optee-os-custom/ta/pkcs11/src/persistent_token.c:86
    14e6:	9804      	ldr	r0, [sp, #16]
    14e8:	2204      	movs	r2, #4
    14ea:	a903      	add	r1, sp, #12
    14ec:	f00a fa90 	bl	ba10 <TEE_DigestUpdate>
/home/aom1/Work/Linux/target/STM32MP1-DK2/bootloader/optee-os-custom/ta/pkcs11/src/persistent_token.c:87
    14f0:	9804      	ldr	r0, [sp, #16]
    14f2:	2204      	movs	r2, #4
    14f4:	a902      	add	r1, sp, #8
    14f6:	f00a fa8b 	bl	ba10 <TEE_DigestUpdate>
/home/aom1/Work/Linux/target/STM32MP1-DK2/bootloader/optee-os-custom/ta/pkcs11/src/persistent_token.c:88
    14fa:	9804      	ldr	r0, [sp, #16]
    14fc:	ab05      	add	r3, sp, #20
    14fe:	9300      	str	r3, [sp, #0]
    1500:	4621      	mov	r1, r4
    1502:	4633      	mov	r3, r6
    1504:	462a      	mov	r2, r5
    1506:	f00a fa9b 	bl	ba40 <TEE_DigestDoFinal>
    150a:	4604      	mov	r4, r0
/home/aom1/Work/Linux/target/STM32MP1-DK2/bootloader/optee-os-custom/ta/pkcs11/src/persistent_token.c:89
    150c:	9804      	ldr	r0, [sp, #16]
    150e:	f009 fce7 	bl	aee0 <TEE_FreeOperation>
/home/aom1/Work/Linux/target/STM32MP1-DK2/bootloader/optee-os-custom/ta/pkcs11/src/persistent_token.c:91
    1512:	b93c      	cbnz	r4, 1524 <do_hash+0x6c>
/home/aom1/Work/Linux/target/STM32MP1-DK2/bootloader/optee-os-custom/ta/pkcs11/src/persistent_token.c:94
    1514:	9805      	ldr	r0, [sp, #20]
    1516:	4621      	mov	r1, r4
    1518:	f1c0 0240 	rsb	r2, r0, #64	; 0x40
    151c:	4430      	add	r0, r6
    151e:	f011 f8c3 	bl	126a8 <memset>
/home/aom1/Work/Linux/target/STM32MP1-DK2/bootloader/optee-os-custom/ta/pkcs11/src/persistent_token.c:95
    1522:	e7dd      	b.n	14e0 <do_hash+0x28>
/home/aom1/Work/Linux/target/STM32MP1-DK2/bootloader/optee-os-custom/ta/pkcs11/src/persistent_token.c:92
    1524:	2405      	movs	r4, #5
    1526:	e7db      	b.n	14e0 <do_hash+0x28>
    1528:	50000004 	.word	0x50000004

0000152c <get_persistent_obj_idx>:
get_persistent_obj_idx():
/home/aom1/Work/Linux/target/STM32MP1-DK2/bootloader/optee-os-custom/ta/pkcs11/src/persistent_token.c:294
    152c:	b570      	push	{r4, r5, r6, lr}
    152e:	4606      	mov	r6, r0
/home/aom1/Work/Linux/target/STM32MP1-DK2/bootloader/optee-os-custom/ta/pkcs11/src/persistent_token.c:297
    1530:	460d      	mov	r5, r1
    1532:	b991      	cbnz	r1, 155a <get_persistent_obj_idx+0x2e>
/home/aom1/Work/Linux/target/STM32MP1-DK2/bootloader/optee-os-custom/ta/pkcs11/src/persistent_token.c:298
    1534:	f04f 30ff 	mov.w	r0, #4294967295	; 0xffffffff
/home/aom1/Work/Linux/target/STM32MP1-DK2/bootloader/optee-os-custom/ta/pkcs11/src/persistent_token.c:306
    1538:	bd70      	pop	{r4, r5, r6, pc}
/home/aom1/Work/Linux/target/STM32MP1-DK2/bootloader/optee-os-custom/ta/pkcs11/src/persistent_token.c:300
    153a:	3401      	adds	r4, #1
    153c:	6973      	ldr	r3, [r6, #20]
    153e:	681a      	ldr	r2, [r3, #0]
    1540:	4294      	cmp	r4, r2
    1542:	d2f7      	bcs.n	1534 <get_persistent_obj_idx+0x8>
/home/aom1/Work/Linux/target/STM32MP1-DK2/bootloader/optee-os-custom/ta/pkcs11/src/persistent_token.c:301
    1544:	3304      	adds	r3, #4
    1546:	2210      	movs	r2, #16
    1548:	eb03 1004 	add.w	r0, r3, r4, lsl #4
    154c:	4629      	mov	r1, r5
    154e:	f008 ff87 	bl	a460 <TEE_MemCompare>
    1552:	2800      	cmp	r0, #0
    1554:	d1f1      	bne.n	153a <get_persistent_obj_idx+0xe>
/home/aom1/Work/Linux/target/STM32MP1-DK2/bootloader/optee-os-custom/ta/pkcs11/src/persistent_token.c:303
    1556:	4620      	mov	r0, r4
    1558:	e7ee      	b.n	1538 <get_persistent_obj_idx+0xc>
/home/aom1/Work/Linux/target/STM32MP1-DK2/bootloader/optee-os-custom/ta/pkcs11/src/persistent_token.c:300
    155a:	2400      	movs	r4, #0
    155c:	e7ee      	b.n	153c <get_persistent_obj_idx+0x10>

0000155e <open_db_file>:
open_db_file():
/home/aom1/Work/Linux/target/STM32MP1-DK2/bootloader/optee-os-custom/ta/pkcs11/src/persistent_token.c:40
    155e:	b530      	push	{r4, r5, lr}
    1560:	b08b      	sub	sp, #44	; 0x2c
    1562:	4604      	mov	r4, r0
    1564:	460d      	mov	r5, r1
/home/aom1/Work/Linux/target/STM32MP1-DK2/bootloader/optee-os-custom/ta/pkcs11/src/persistent_token.c:41
    1566:	221c      	movs	r2, #28
    1568:	2100      	movs	r1, #0
    156a:	9102      	str	r1, [sp, #8]
    156c:	a803      	add	r0, sp, #12
    156e:	f011 f89b 	bl	126a8 <memset>
get_db_file_name():
/home/aom1/Work/Linux/target/STM32MP1-DK2/bootloader/optee-os-custom/ta/pkcs11/src/persistent_token.c:30
    1572:	4620      	mov	r0, r4
    1574:	ac02      	add	r4, sp, #8
    1576:	f002 fed3 	bl	4320 <get_token_id>
    157a:	4a08      	ldr	r2, [pc, #32]	; (159c <open_db_file+0x3e>)
    157c:	4603      	mov	r3, r0
    157e:	2120      	movs	r1, #32
    1580:	4620      	mov	r0, r4
    1582:	447a      	add	r2, pc
    1584:	f011 f87a 	bl	1267c <snprintf>
open_db_file():
/home/aom1/Work/Linux/target/STM32MP1-DK2/bootloader/optee-os-custom/ta/pkcs11/src/persistent_token.c:48
    1588:	9500      	str	r5, [sp, #0]
    158a:	2303      	movs	r3, #3
    158c:	2220      	movs	r2, #32
    158e:	4621      	mov	r1, r4
    1590:	2001      	movs	r0, #1
    1592:	f009 fa1f 	bl	a9d4 <TEE_OpenPersistentObject>
/home/aom1/Work/Linux/target/STM32MP1-DK2/bootloader/optee-os-custom/ta/pkcs11/src/persistent_token.c:52
    1596:	b00b      	add	sp, #44	; 0x2c
    1598:	bd30      	pop	{r4, r5, pc}
    159a:	bf00      	nop
    159c:	000121ec 	.word	0x000121ec

000015a0 <update_persistent_db>:
update_persistent_db():
/home/aom1/Work/Linux/target/STM32MP1-DK2/bootloader/optee-os-custom/ta/pkcs11/src/persistent_token.c:55
    15a0:	b530      	push	{r4, r5, lr}
    15a2:	b085      	sub	sp, #20
/home/aom1/Work/Linux/target/STM32MP1-DK2/bootloader/optee-os-custom/ta/pkcs11/src/persistent_token.c:57
    15a4:	2500      	movs	r5, #0
/home/aom1/Work/Linux/target/STM32MP1-DK2/bootloader/optee-os-custom/ta/pkcs11/src/persistent_token.c:59
    15a6:	a903      	add	r1, sp, #12
/home/aom1/Work/Linux/target/STM32MP1-DK2/bootloader/optee-os-custom/ta/pkcs11/src/persistent_token.c:57
    15a8:	9503      	str	r5, [sp, #12]
/home/aom1/Work/Linux/target/STM32MP1-DK2/bootloader/optee-os-custom/ta/pkcs11/src/persistent_token.c:55
    15aa:	4604      	mov	r4, r0
/home/aom1/Work/Linux/target/STM32MP1-DK2/bootloader/optee-os-custom/ta/pkcs11/src/persistent_token.c:59
    15ac:	f7ff ffd7 	bl	155e <open_db_file>
/home/aom1/Work/Linux/target/STM32MP1-DK2/bootloader/optee-os-custom/ta/pkcs11/src/persistent_token.c:60
    15b0:	b168      	cbz	r0, 15ce <update_persistent_db+0x2e>
/home/aom1/Work/Linux/target/STM32MP1-DK2/bootloader/optee-os-custom/ta/pkcs11/src/persistent_token.c:61
    15b2:	4b13      	ldr	r3, [pc, #76]	; (1600 <update_persistent_db+0x60>)
    15b4:	213d      	movs	r1, #61	; 0x3d
    15b6:	9001      	str	r0, [sp, #4]
    15b8:	447b      	add	r3, pc
    15ba:	4812      	ldr	r0, [pc, #72]	; (1604 <update_persistent_db+0x64>)
    15bc:	9300      	str	r3, [sp, #0]
    15be:	2301      	movs	r3, #1
    15c0:	4478      	add	r0, pc
    15c2:	461a      	mov	r2, r3
    15c4:	f008 fc7e 	bl	9ec4 <trace_printf>
/home/aom1/Work/Linux/target/STM32MP1-DK2/bootloader/optee-os-custom/ta/pkcs11/src/persistent_token.c:62
    15c8:	4628      	mov	r0, r5
    15ca:	f00b f9b9 	bl	c940 <TEE_Panic>
/home/aom1/Work/Linux/target/STM32MP1-DK2/bootloader/optee-os-custom/ta/pkcs11/src/persistent_token.c:64
    15ce:	6921      	ldr	r1, [r4, #16]
    15d0:	22b8      	movs	r2, #184	; 0xb8
    15d2:	9803      	ldr	r0, [sp, #12]
    15d4:	f009 fb5e 	bl	ac94 <TEE_WriteObjectData>
/home/aom1/Work/Linux/target/STM32MP1-DK2/bootloader/optee-os-custom/ta/pkcs11/src/persistent_token.c:66
    15d8:	b168      	cbz	r0, 15f6 <update_persistent_db+0x56>
/home/aom1/Work/Linux/target/STM32MP1-DK2/bootloader/optee-os-custom/ta/pkcs11/src/persistent_token.c:67
    15da:	4b0b      	ldr	r3, [pc, #44]	; (1608 <update_persistent_db+0x68>)
    15dc:	2143      	movs	r1, #67	; 0x43
    15de:	9001      	str	r0, [sp, #4]
    15e0:	447b      	add	r3, pc
    15e2:	480a      	ldr	r0, [pc, #40]	; (160c <update_persistent_db+0x6c>)
    15e4:	9300      	str	r3, [sp, #0]
    15e6:	2301      	movs	r3, #1
    15e8:	4478      	add	r0, pc
    15ea:	461a      	mov	r2, r3
    15ec:	f008 fc6a 	bl	9ec4 <trace_printf>
/home/aom1/Work/Linux/target/STM32MP1-DK2/bootloader/optee-os-custom/ta/pkcs11/src/persistent_token.c:68
    15f0:	2000      	movs	r0, #0
    15f2:	f00b f9a5 	bl	c940 <TEE_Panic>
/home/aom1/Work/Linux/target/STM32MP1-DK2/bootloader/optee-os-custom/ta/pkcs11/src/persistent_token.c:71
    15f6:	9803      	ldr	r0, [sp, #12]
    15f8:	f009 f8be 	bl	a778 <TEE_CloseObject>
/home/aom1/Work/Linux/target/STM32MP1-DK2/bootloader/optee-os-custom/ta/pkcs11/src/persistent_token.c:72
    15fc:	b005      	add	sp, #20
    15fe:	bd30      	pop	{r4, r5, pc}
    1600:	000121c2 	.word	0x000121c2
    1604:	00012407 	.word	0x00012407
    1608:	000121c2 	.word	0x000121c2
    160c:	000123df 	.word	0x000123df

00001610 <hash_pin>:
hash_pin():
/home/aom1/Work/Linux/target/STM32MP1-DK2/bootloader/optee-os-custom/ta/pkcs11/src/persistent_token.c:101
    1610:	b5f0      	push	{r4, r5, r6, r7, lr}
    1612:	b085      	sub	sp, #20
    1614:	4605      	mov	r5, r0
    1616:	460e      	mov	r6, r1
    1618:	461c      	mov	r4, r3
/home/aom1/Work/Linux/target/STM32MP1-DK2/bootloader/optee-os-custom/ta/pkcs11/src/persistent_token.c:105
    161a:	2104      	movs	r1, #4
/home/aom1/Work/Linux/target/STM32MP1-DK2/bootloader/optee-os-custom/ta/pkcs11/src/persistent_token.c:103
    161c:	2300      	movs	r3, #0
/home/aom1/Work/Linux/target/STM32MP1-DK2/bootloader/optee-os-custom/ta/pkcs11/src/persistent_token.c:105
    161e:	a803      	add	r0, sp, #12
/home/aom1/Work/Linux/target/STM32MP1-DK2/bootloader/optee-os-custom/ta/pkcs11/src/persistent_token.c:103
    1620:	9303      	str	r3, [sp, #12]
/home/aom1/Work/Linux/target/STM32MP1-DK2/bootloader/optee-os-custom/ta/pkcs11/src/persistent_token.c:101
    1622:	4617      	mov	r7, r2
/home/aom1/Work/Linux/target/STM32MP1-DK2/bootloader/optee-os-custom/ta/pkcs11/src/persistent_token.c:105
    1624:	f00b f822 	bl	c66c <TEE_GenerateRandom>
/home/aom1/Work/Linux/target/STM32MP1-DK2/bootloader/optee-os-custom/ta/pkcs11/src/persistent_token.c:106
    1628:	9b03      	ldr	r3, [sp, #12]
    162a:	b90b      	cbnz	r3, 1630 <hash_pin+0x20>
/home/aom1/Work/Linux/target/STM32MP1-DK2/bootloader/optee-os-custom/ta/pkcs11/src/persistent_token.c:107
    162c:	2301      	movs	r3, #1
    162e:	9303      	str	r3, [sp, #12]
/home/aom1/Work/Linux/target/STM32MP1-DK2/bootloader/optee-os-custom/ta/pkcs11/src/persistent_token.c:109
    1630:	9b0a      	ldr	r3, [sp, #40]	; 0x28
    1632:	463a      	mov	r2, r7
    1634:	4631      	mov	r1, r6
    1636:	4628      	mov	r0, r5
    1638:	9300      	str	r3, [sp, #0]
    163a:	9b03      	ldr	r3, [sp, #12]
    163c:	f7ff ff3c 	bl	14b8 <do_hash>
/home/aom1/Work/Linux/target/STM32MP1-DK2/bootloader/optee-os-custom/ta/pkcs11/src/persistent_token.c:110
    1640:	b908      	cbnz	r0, 1646 <hash_pin+0x36>
