
build/ta/trusted_keys/f04a0fe7-1f5d-4b9b-abf7-619b85b4ce8c.elf:     file format elf32-littlearm
build/ta/trusted_keys/f04a0fe7-1f5d-4b9b-abf7-619b85b4ce8c.elf
architecture: armv7, flags 0x00000150:
HAS_SYMS, DYNAMIC, D_PAGED
start address 0x0000043c

Program Header:
    LOAD off    0x00001000 vaddr 0x00000000 paddr 0x00000000 align 2**12
         filesz 0x0000a878 memsz 0x0000a878 flags r-x
    LOAD off    0x0000c000 vaddr 0x0000b000 paddr 0x0000b000 align 2**12
         filesz 0x00000358 memsz 0x000073a8 flags rw-
 DYNAMIC off    0x0000c000 vaddr 0x0000b000 paddr 0x0000b000 align 2**2
         filesz 0x00000088 memsz 0x00000088 flags rw-
   STACK off    0x00000000 vaddr 0x00000000 paddr 0x00000000 align 2**4
         filesz 0x00000000 memsz 0x00000000 flags rwx

Dynamic Section:
  HASH                 0x0000a84c
  GNU_HASH             0x0000a790
  STRTAB               0x0000a81c
  SYMTAB               0x0000a7bc
  STRSZ                0x0000002e
  SYMENT               0x00000010
  DEBUG                0x00000000
  REL                  0x0000b0dc
  RELSZ                0x00000178
  RELENT               0x00000008
  FLAGS_1              0x08000000
  RELCOUNT             0x0000001d
private flags = 0x5000400: [Version5 EABI] [hard-float ABI]

Sections:
Idx Name          Size      VMA       LMA       File off  Algn
  0 .ta_head      00000020  00000000  00000000  00001000  2**3
                  CONTENTS, ALLOC, LOAD, READONLY, DATA
  1 .text         00009560  00000020  00000020  00001020  2**3
                  CONTENTS, ALLOC, LOAD, READONLY, CODE
  2 .rodata       00001210  00009580  00009580  0000a580  2**2
                  CONTENTS, ALLOC, LOAD, READONLY, DATA
  3 .gnu.hash     0000002c  0000a790  0000a790  0000b790  2**2
                  CONTENTS, ALLOC, LOAD, READONLY, DATA
  4 .dynsym       00000060  0000a7bc  0000a7bc  0000b7bc  2**2
                  CONTENTS, ALLOC, LOAD, READONLY, DATA
  5 .dynstr       0000002e  0000a81c  0000a81c  0000b81c  2**0
                  CONTENTS, ALLOC, LOAD, READONLY, DATA
  6 .hash         0000002c  0000a84c  0000a84c  0000b84c  2**2
                  CONTENTS, ALLOC, LOAD, READONLY, DATA
  7 .dynamic      00000088  0000b000  0000b000  0000c000  2**2
                  CONTENTS, ALLOC, LOAD, DATA
  8 .got          00000054  0000b088  0000b088  0000c088  2**2
                  CONTENTS, ALLOC, LOAD, DATA
  9 .rel.got      00000090  0000b1c4  0000b1c4  0000c1c4  2**2
                  CONTENTS, ALLOC, LOAD, READONLY, DATA
 10 .data         00000104  0000b254  0000b254  0000c254  2**2
                  CONTENTS, ALLOC, LOAD, DATA
 11 .bss          00007050  0000b358  0000b358  0000c358  2**2
                  ALLOC
 12 .debug_info   0001903f  00000000  00000000  0000c358  2**0
                  CONTENTS, READONLY, DEBUGGING, OCTETS
 13 .debug_abbrev 0000473c  00000000  00000000  00025397  2**0
                  CONTENTS, READONLY, DEBUGGING, OCTETS
 14 .debug_loclists 0000f22b  00000000  00000000  00029ad3  2**0
                  CONTENTS, READONLY, DEBUGGING, OCTETS
 15 .debug_aranges 00000628  00000000  00000000  00038d00  2**3
                  CONTENTS, READONLY, DEBUGGING, OCTETS
 16 .debug_rnglists 0000075b  00000000  00000000  00039328  2**0
                  CONTENTS, READONLY, DEBUGGING, OCTETS
 17 .debug_macro  0001b95a  00000000  00000000  00039a83  2**0
                  CONTENTS, READONLY, DEBUGGING, OCTETS
 18 .debug_line   00010fba  00000000  00000000  000553dd  2**0
                  CONTENTS, READONLY, DEBUGGING, OCTETS
 19 .debug_str    00019126  00000000  00000000  00066397  2**0
                  CONTENTS, READONLY, DEBUGGING, OCTETS
 20 .comment      00000033  00000000  00000000  0007f4bd  2**0
                  CONTENTS, READONLY
 21 .ARM.attributes 00000033  00000000  00000000  0007f4f0  2**0
                  CONTENTS, READONLY
 22 .debug_frame  000027cc  00000000  00000000  0007f524  2**2
                  CONTENTS, READONLY, DEBUGGING, OCTETS
 23 .rel.dyn      000000e8  0000b0dc  0000b0dc  0000c0dc  2**2
                  CONTENTS, ALLOC, LOAD, READONLY, DATA
 24 .debug_line_str 000000e0  00000000  00000000  00081cf0  2**0
                  CONTENTS, READONLY, DEBUGGING, OCTETS
SYMBOL TABLE:
00000000 l    d  .ta_head	00000000 .ta_head
00000020 l    d  .text	00000000 .text
00009580 l    d  .rodata	00000000 .rodata
0000a790 l    d  .gnu.hash	00000000 .gnu.hash
0000a7bc l    d  .dynsym	00000000 .dynsym
0000a81c l    d  .dynstr	00000000 .dynstr
0000a84c l    d  .hash	00000000 .hash
0000b000 l    d  .dynamic	00000000 .dynamic
0000b088 l    d  .got	00000000 .got
0000b1c4 l    d  .rel.got	00000000 .rel.got
0000b254 l    d  .data	00000000 .data
0000b358 l    d  .bss	00000000 .bss
00000000 l    d  .debug_info	00000000 .debug_info
00000000 l    d  .debug_abbrev	00000000 .debug_abbrev
00000000 l    d  .debug_loclists	00000000 .debug_loclists
00000000 l    d  .debug_aranges	00000000 .debug_aranges
00000000 l    d  .debug_rnglists	00000000 .debug_rnglists
00000000 l    d  .debug_macro	00000000 .debug_macro
00000000 l    d  .debug_line	00000000 .debug_line
00000000 l    d  .debug_str	00000000 .debug_str
00000000 l    d  .comment	00000000 .comment
00000000 l    d  .ARM.attributes	00000000 .ARM.attributes
00000000 l    d  .debug_frame	00000000 .debug_frame
0000b0dc l    d  .rel.dyn	00000000 .rel.dyn
00000000 l    d  .debug_line_str	00000000 .debug_line_str
00000000 l    df *ABS*	00000000 user_ta_header.c
000095e0 l     O .rodata	00000004 __compound_literal.4
000095e4 l     O .rodata	00000004 __compound_literal.3
000095e8 l     O .rodata	00000001 __compound_literal.2
000095e9 l     O .rodata	00000001 __compound_literal.1
000095ea l     O .rodata	00000001 __compound_literal.0
00000000 l    df *ABS*	00000000 entry.c
00000020 l     F .text	0000024c huk_crypt
00009590 l     O .rodata	0000000a __func__.1
0000959a l     O .rodata	00000011 __func__.2
000095ab l     O .rodata	00000013 __func__.0
000095be l     O .rodata	0000001b __func__.3
00000000 l    df *ABS*	00000000 ta_entry_a32.o
00000000 l    df *ABS*	00000000 memcpy.c
00000000 l    df *ABS*	00000000 trace.c
00009ac5 l     O .rodata	00000005 lvl_strs.0
00000000 l    df *ABS*	00000000 snprintk.c
000006f4 l     F .text	00000684 kprintf.constprop.0
00009b02 l     O .rodata	00000011 hexdigits
00009b13 l     O .rodata	00000011 HEXDIGITS
00000000 l    df *ABS*	00000000 arm32_aeabi_ldivmod_a32.o
00000000 l    df *ABS*	00000000 assert.c
00000000 l    df *ABS*	00000000 trace_ext.c
00000000 l    df *ABS*	00000000 tee_api.c
00000e94 l     F .text	00000066 update_out_param
00000f6c l     F .text	0000012c copy_param
00009b5c l     O .rodata	0000000b __func__.0
0000b358 l     O .bss	00000004 tee_api_instance_data
00000000 l    df *ABS*	00000000 tee_api_objects.c
00000000 l    df *ABS*	00000000 tee_api_operations.c
00001b24 l     F .text	00000158 tee_buffer_update
00000000 l    df *ABS*	00000000 tee_api_panic.c
000036bc l     F .text	00000020 check_access
000036e0 l     F .text	0000000a check_res.constprop.0
00000000 l    df *ABS*	00000000 tee_api_property.c
00003794 l     F .text	00000050 propset_get
000037e4 l     F .text	00000014 is_propset_pseudo_handle
000037f8 l     F .text	00000088 propget_get_ext_prop
00003880 l     F .text	000000f0 propget_get_property
000095f4 l     O .rodata	00000004 __compound_literal.3
000095f8 l     O .rodata	00000004 __compound_literal.2
000095fc l     O .rodata	00000004 __compound_literal.1
00009600 l     O .rodata	00000004 __compound_literal.0
00000000 l    df *ABS*	00000000 tee_system_pta.c
00003df0 l     F .text	00000050 invoke_system_pta
00009604 l     O .rodata	00000010 uuid.2
00009614 l     O .rodata	0000000a __func__.1
0000961e l     O .rodata	00000017 __func__.0
0000b35c l     O .bss	00000004 sess.3
00000000 l    df *ABS*	00000000 utee_syscalls_a32.o
00000000 l    df *ABS*	00000000 user_ta_entry.c
000043fc l     F .text	0000006a _get_fn_array
00004466 l     F .text	00000032 _fini_iterate_phdr_cb
00004498 l     F .text	0000001c ta_header_get_session
000044b4 l     F .text	0000005a to_utee_params
0000450e l     F .text	0000003c from_utee_params
0000454a l     F .text	00000062 _init_iterate_phdr_cb
00004674 l     F .text	0000006c ta_header_remove_session
00009c6c l     O .rodata	00000016 __func__.0
0000b360 l     O .bss	00000004 _num_mod_init
0000b364 l     O .bss	00000001 init_done
0000b2e8 l     O .data	00000008 ta_sessions
0000b2f0 l     O .data	00000008 __phdr_info_head
00000000 l    df *ABS*	00000000 abort.c
00000000 l    df *ABS*	00000000 base64.c
00009c89 l     O .rodata	00000041 base64_table
00000000 l    df *ABS*	00000000 tee_api_arith_mpi.c
00004a2c l     F .text	00000020 api_panic
00004a4c l     F .text	00000020 mpi_panic
00004a6c l     F .text	00000050 get_mpi
00004abc l     F .text	00000040 copy_mpi_to_bigint
00004afc l     F .text	000000a4 bigint_binary
00004ba0 l     F .text	00000010 mpi_is_odd
00004bb0 l     F .text	00000016 rng_read
00004bc6 l     F .text	0000045e mpi_egcd
0000b398 l     O .bss	00003000 data.17
00005258 l     F .text	0000010c bigint_binary_mod
00009d81 l     O .rodata	00000008 __func__.14
00009d89 l     O .rodata	0000000e __func__.10
00009d97 l     O .rodata	00000009 __func__.2
00009da0 l     O .rodata	00000012 __func__.16
00009db2 l     O .rodata	0000000f __func__.15
00009dc1 l     O .rodata	0000001f __func__.13
00009de0 l     O .rodata	00000019 __func__.12
00009df9 l     O .rodata	00000012 __func__.6
00009e0b l     O .rodata	00000015 __func__.11
00009e20 l     O .rodata	0000000e __func__.9
00009e2e l     O .rodata	0000000e __func__.8
00009e3c l     O .rodata	0000000e __func__.7
00009e4a l     O .rodata	00000011 __func__.5
00009e5b l     O .rodata	00000018 __func__.4
00009e73 l     O .rodata	0000001d __func__.3
00009e90 l     O .rodata	00000019 __func__.1
00009ea9 l     O .rodata	00000015 __func__.0
00000000 l    df *ABS*	00000000 tcb.c
00009f54 l     O .rodata	00000010 __func__.1
00009f64 l     O .rodata	00000010 __func__.0
0000e398 l     O .bss	00000004 _tls_size
0000e39c l     O .bss	00000004 _tcb
00000000 l    df *ABS*	00000000 bignum.c
00005e30 l     F .text	00000024 mpi_safe_cond_assign
00005e54 l     F .text	0000003a mpi_get_digit
00005e8e l     F .text	00000364 mpi_mul_hlp
000061f2 l     F .text	000000e4 mpi_montmul
000062d6 l     F .text	00000022 mpi_montred
000062f8 l     F .text	00000026 mpi_montg_init.isra.0
0000631e l     F .text	00000052 mpi_bigendian_to_host.part.0
00006370 l     F .text	00000064 mpi_fill_random_internal
000064e4 l     F .text	00000036 mbedtls_mpi_resize_clear
0000774c l     F .text	00000050 mpi_check_small_factors
00007d44 l     F .text	00000192 mpi_miller_rabin
00009638 l     O .rodata	000002a0 small_prime
000098d8 l     O .rodata	00000024 gcd_pairs
00000000 l    df *ABS*	00000000 platform_util.c
0000b2f8 l     O .data	00000004 memset_func
00000000 l    df *ABS*	00000000 bget_malloc.c
00008830 l     F .text	00000020 raw_malloc_return_hook
00008f5a l     F .text	00000082 gen_malloc_add_pool
0000a683 l     O .rodata	00000005 __func__.8
0000a688 l     O .rodata	00000006 __func__.7
0000a68e l     O .rodata	00000005 __func__.5
0000a693 l     O .rodata	00000006 __func__.6
0000a699 l     O .rodata	00000006 __func__.4
0000a69f l     O .rodata	00000007 __func__.3
0000a6a6 l     O .rodata	00000014 __func__.2
0000a6ba l     O .rodata	0000000e __func__.1
0000a6c8 l     O .rodata	00000013 __func__.0
0000b2fc l     O .data	0000005c malloc_ctx
00000000 l    df *ABS*	00000000 mempool.c
0000a764 l     O .rodata	00000013 __func__.2
0000a777 l     O .rodata	0000000b __func__.1
0000a782 l     O .rodata	0000000e __func__.0
00000000 l    df *ABS*	00000000 memset.c
00000000 l    df *ABS*	00000000 memzero_explicit.c
00000000 l    df *ABS*	00000000 memchr.c
00000000 l    df *ABS*	00000000 strlen.c
00000000 l    df *ABS*	00000000 arm32_aeabi_ldivmod.c
00009322 l     F .text	0000008a ul_div_qr
00000000 l    df *ABS*	00000000 snprintf.c
00000000 l    df *ABS*	00000000 memmove.c
00000000 l    df *ABS*	00000000 strcmp.c
00000000 l    df *ABS*	00000000 strlcpy.c
00000000 l    df *ABS*	00000000 consttime_memcmp.c
00000000 l    df *ABS*	00000000 
0000b000 l     O *ABS*	00000000 _DYNAMIC
0000b088 l     O *ABS*	00000000 _GLOBAL_OFFSET_TABLE_
00009540 l     F .text	00000010 ___utee_cache_operation_from_thumb
00009550 l     F .text	00000010 ___utee_log_from_thumb
00009560 l     F .text	00000010 ___utee_panic_from_thumb
00009570 l     F .text	00000010 ___utee_check_access_rights_from_thumb
00000e70 g     F .text	00000022 putchar
000015c8 g     F .text	00000078 TEE_PopulateTransientObject
00005aca g     F .text	00000004 TEE_BigIntConvertToFMM
000057a8 g     F .text	00000008 TEE_BigIntSquareMod
00005364 g     F .text	00000110 TEE_BigIntShiftRight
00009082 g     F .text	00000002 raw_malloc_add_pool
00003ec4 g     F .text	00000088 tee_invoke_supp_plugin
0000644c g     F .text	00000098 mbedtls_mpi_grow
000093e6 g     F .text	00000072 __l_divmod
000027ac g     F .text	00000030 TEE_DigestUpdate
0000130e g     F .text	00000020 TEE_Realloc
00002604 g     F .text	000000f4 TEE_SetOperationKey2
00003782 g     F .text	00000012 __utee_check_inout_annotation
00008ec6 g     F .text	00000008 raw_free
00000e12 g     F .text	0000003a printf
00001640 g     F .text	00000022 TEE_InitRefAttribute
00003f74 g     F .text	00000014 _utee_log
0000112c g     F .text	000000b4 TEE_InvokeTACommand
000036ea g     F .text	0000002e __utee_check_outbuf_annotation
000063e0 g     F .text	00000028 mbedtls_mpi_init_mempool
00004210 g     F .text	00000014 _utee_cryp_random_number_generate
0000696a g     F .text	0000006a mbedtls_mpi_write_binary
00002e2c g     F .text	0000011c TEE_AEEncryptFinal
000006cc g     F .text	0000000e vsnprintk
00006ef8 g     F .text	0000002e mbedtls_mpi_sub_int
00009484 g     F .text	00000034 memmove
00009458 g     F .text	0000001e snprintf
00005232 g     F .text	00000026 TEE_BigIntCmpS32
00001662 g     F .text	00000022 TEE_InitValueAttribute
0000651a g     F .text	000000b6 mbedtls_mpi_shrink
000054c0 g     F .text	0000001c TEE_BigIntAdd
00004170 g     F .text	00000014 _utee_cryp_obj_restrict_usage
000095ec g     O .rodata	00000004 ta_heap_size
00001598 g     F .text	00000030 TEE_ResetTransientObject
00004298 g     F .text	00000018 _utee_asymm_operate
00004890 g     F .text	0000000e _base64_enc_len
00007068 g     F .text	0000011c mbedtls_mpi_read_string
00002860 g     F .text	00000074 TEE_CipherInit
000054f8 g     F .text	00000074 TEE_BigIntNeg
00004334 g     F .text	00000014 _utee_storage_free_enum
00000020 g       .text	00000000 __text_start
00003d88 g     F .text	00000068 TEE_GetNextProperty
00001940 g     F .text	0000002c TEE_StartPersistentObjectEnumerator
00006a78 g     F .text	00000078 mbedtls_mpi_shift_r
0000918c g     F .text	00000054 malloc_buffer_overlaps_heap
000040d8 g     F .text	00000014 _utee_hash_init
00005770 g     F .text	0000001c TEE_BigIntSubMod
00008310 g     F .text	00000210 mbedtls_mpi_gen_prime
00003b84 g     F .text	00000068 TEE_GetPropertyAsBinaryBlock
00006794 g     F .text	00000020 mbedtls_mpi_get_bit
000068be g     F .text	00000042 mbedtls_mpi_read_binary
00002c9c g     F .text	00000070 TEE_AEInit
00000680 g     F .text	00000018 trace_printf
000077a2 g     F .text	00000004 mbedtls_mpi_montmul
000043e8 g     F .text	00000014 _utee_cache_operation
00000440 g     F .text	000000d8 memcpy
00005ace g     F .text	00000066 TEE_BigIntConvertFromFMM
000036dc g     F .text	00000004 TEE_Panic
00000da8 g     F .text	00000018 __aeabi_uldivmod
000026f8 g     F .text	000000b4 TEE_CopyOperation
00000e4c g     F .text	00000024 puts
00005b34 g     F .text	000000c0 TEE_BigIntComputeFMM
00008e54 g     F .text	0000001c malloc_get_stats
0000129c g     F .text	00000016 TEE_GetREETime
00009084 g     F .text	00000018 raw_malloc_get_stats
000018e4 g     F .text	00000034 TEE_AllocatePersistentObjectEnumerator
0000b258 g     O .data	00000054 ta_props
00003044 g     F .text	000000c0 TEE_AsymmetricEncrypt
00003718 g     F .text	00000018 __utee_check_instring_annotation
00008fdc g     F .text	00000014 malloc
000092d0 g     F .text	0000000a __ta_entry_c
00003ce4 g     F .text	00000004 TEE_FreePropertyEnumerator
0000171c g     F .text	00000054 TEE_GenerateKey
00009476 g     F .text	0000000e vsnprintf
0000b254 g     O .data	00000004 trace_level
000051fc g     F .text	00000036 TEE_BigIntCmp
000095dc g     O .rodata	00000004 ta_num_props
00008cbc g     F .text	00000084 bgetr
000042c8 g     F .text	00000018 _utee_storage_obj_open
000092c4 g     F .text	0000000c mempool_free
000028d4 g     F .text	000000ec TEE_CipherUpdate
000040ec g     F .text	00000014 _utee_hash_update
000092ee g     F .text	00000008 memzero_explicit
000050f8 g     F .text	00000058 TEE_BigIntConvertToOctetString
00002454 g     F .text	000000d8 TEE_GetOperationInfoMultiple
00006838 g     F .text	00000036 mbedtls_mpi_bitlen
00005474 g     F .text	0000002a TEE_BigIntGetBit
000095f0 g     O .rodata	00000003 trace_ext_prefix
00004370 g     F .text	00000014 _utee_storage_next_enum
00008eb4 g     F .text	00000012 raw_malloc
00008a54 g     F .text	00000060 bgetz
000011ec g     F .text	0000000c TEE_GetInstanceData
0000121a g     F .text	0000001e TEE_Wait
00006f26 g     F .text	000000e6 mbedtls_mpi_mul_mpi
00001334 g     F .text	00000006 TEE_CacheFlush
00000548 g     F .text	00000138 trace_vprintf
00000270 g     F .text	00000002 TA_DestroyEntryPoint
000063d4 g     F .text	0000000c mbedtls_mpi_init
000042f8 g     F .text	00000014 _utee_storage_obj_del
00006804 g     F .text	00000034 mbedtls_mpi_lsb
00000dc0 g     F .text	00000028 _assert_log
000040b0 g     F .text	00000014 _utee_cryp_state_copy
00005ac6 g     F .text	00000004 TEE_BigIntFMMContextSizeInU32
00003e76 g     F .text	0000004e tee_unmap
00002c18 g     F .text	00000084 TEE_MACCompareFinal
000018aa g     F .text	0000003a TEE_RenamePersistentObject
000027dc g     F .text	00000084 TEE_DigestDoFinal
00005024 g     F .text	00000044 _TEE_MathAPI_Init
00005bf4 g     F .text	0000017c __utee_tcb_init
00006e38 g     F .text	00000048 mbedtls_mpi_add_mpi
00004878 g     F .text	00000018 abort
00007ed6 g     F .text	000000e6 mbedtls_mpi_random
0000375c g     F .text	00000012 __utee_check_out_annotation
0000e3a4 g     O .bss	00004000 ta_heap
000057b0 g     F .text	000000c0 TEE_BigIntInvMod
000045ac g     F .text	000000b8 __utee_call_elf_init_fn
000002cc g     F .text	00000002 TA_CloseSessionEntryPoint
00003fe0 g     F .text	00000014 _utee_close_ta_session
00003104 g     F .text	000000c0 TEE_AsymmetricDecrypt
00001770 g     F .text	00000074 TEE_OpenPersistentObject
00006e80 g     F .text	0000004a mbedtls_mpi_sub_mpi
000094f8 g     F .text	00000048 consttime_memcmp
00003f60 g     F .text	00000014 _utee_return
00003f88 g     F .text	00000014 __utee_panic
00005d70 g     F .text	00000018 __tls_get_addr
000002ce g     F .text	0000016e TA_InvokeCommandEntryPoint
00004664 g     F .text	00000010 __utee_call_elf_fini_fn
0000905c g     F .text	00000010 free_wipe
00009264 g     F .text	0000003c mempool_alloc
00003f4c g     F .text	00000014 _utee_panic
00009070 g     F .text	00000012 raw_malloc_init_ctx
000092a0 g     F .text	00000024 mempool_calloc
000043d4 g     F .text	00000014 _utee_cryp_obj_generate_key
000043ac g     F .text	00000014 _utee_storage_obj_trunc
000016ec g     F .text	00000030 TEE_CopyObjectAttributes
0000b2ac g     O .data	0000003c tee_props
00004034 g     F .text	00000014 _utee_unmask_cancellation
00003cb4 g     F .text	00000008 TEE_ResetPropertyEnumerator
00008ff0 g     F .text	00000020 calloc
000012b2 g     F .text	00000052 TEE_Malloc
00000f62 g     F .text	0000000a TEE_CheckMemoryAccessRights
00003bec g     F .text	00000064 TEE_GetPropertyAsUUID
000093ac g     F .text	0000003a __ul_divmod
00003f9c g     F .text	00000018 _utee_get_property
0000675c g     F .text	00000038 mbedtls_mpi_lset
000019dc g     F .text	00000054 TEE_ReadObjectData
00001400 g     F .text	00000078 TEE_GetObjectBufferAttribute
00000272 g     F .text	0000005a TA_OpenSessionEntryPoint
00001c7c g     F .text	00000026 TEE_FreeOperation
00005d88 g     F .text	000000a8 dl_iterate_phdr
000123a8 g       .bss	00000000 __ftrace_buf_end
0000b394 g     O .bss	00000004 ta_param_types
000074e8 g     F .text	0000002e mbedtls_mpi_div_int
00001340 g     F .text	0000002a __utee_from_attr
000082a2 g     F .text	00000064 mbedtls_mpi_is_prime_ext
00005a88 g     F .text	00000030 TEE_BigIntIsProbablePrime
0000700c g     F .text	0000005c mbedtls_mpi_mul_int
00001870 g     F .text	00000024 TEE_CloseAndDeletePersistentObject1
000077aa g     F .text	00000466 mbedtls_mpi_exp_mod
00006664 g     F .text	00000064 mbedtls_mpi_safe_cond_assign
00003970 g     F .text	00000150 TEE_GetPropertyAsString
00006bd8 g     F .text	000000a2 mbedtls_mpi_lt_mpi_ct
00002f48 g     F .text	000000fc TEE_AEDecryptFinal
00005068 g     F .text	00000038 TEE_BigIntInit
00003730 g     F .text	0000002c __utee_check_outstring_annotation
000011f8 g     F .text	00000004 TEE_MemMove
0000881c g     F .text	00000014 mbedtls_platform_zeroize
000050a0 g     F .text	00000058 TEE_BigIntConvertFromOctetString
00004280 g     F .text	00000018 _utee_authenc_dec_final
00006af0 g     F .text	00000062 mbedtls_mpi_cmp_abs
00004384 g     F .text	00000014 _utee_storage_obj_read
00002af8 g     F .text	00000056 TEE_MACInit
000031c4 g     F .text	000000bc TEE_AsymmetricSignDigest
000092f6 g     F .text	0000001c memchr
00000f2a g     F .text	0000001c TEE_UnmaskCancellation
0000136a g     F .text	0000002a TEE_GetObjectInfo
00008520 g     F .text	000002fc mbedtls_mpi_self_test
000043c0 g     F .text	00000014 _utee_storage_obj_seek
00002d52 g     F .text	000000da TEE_AEUpdate
00001568 g     F .text	00000030 TEE_FreeTransientObject
00004020 g     F .text	00000014 _utee_check_access_rights
00006c7a g     F .text	0000002e mbedtls_mpi_cmp_int
00004968 g     F .text	000000c4 _base64_dec
00004348 g     F .text	00000014 _utee_storage_reset_enum
0000341a g     F .text	00000018 rand
0000376e g     F .text	00000014 __utee_check_attr_in_annotation
00004250 g     F .text	00000018 _utee_authenc_update_payload
00002424 g     F .text	00000030 TEE_GetOperationInfo
00005704 g     F .text	00000050 TEE_BigIntMod
0000757a g     F .text	0000006e mbedtls_mpi_mod_int
0000687a g     F .text	00000044 mbedtls_mpi_read_binary_le
00005616 g     F .text	000000ee TEE_BigIntDiv
00004198 g     F .text	00000014 _utee_cryp_obj_alloc
000123a8 g       .bss	00000000 __ftrace_buf_start
000094ce g     F .text	0000002a strlcpy
000065d0 g     F .text	00000066 mbedtls_mpi_copy
00003432 g     F .text	0000028a TEE_IsAlgorithmSupported
00008e40 g     F .text	00000014 malloc_reset_stats
00003c50 g     F .text	00000064 TEE_GetPropertyAsIdentity
00000d78 g     F .text	00000016 __vsprintf
00004084 g     F .text	00000014 _utee_set_ta_time
00003ff4 g     F .text	00000018 _utee_invoke_ta_command
000013b4 g     F .text	00000020 TEE_RestrictObjectUsage1
00009010 g     F .text	0000001c realloc
00006636 g     F .text	0000002e mbedtls_mpi_swap
000091e0 g     F .text	00000084 mempool_alloc_pool
0000556c g     F .text	000000a4 TEE_BigIntMul
0000252c g     F .text	00000040 TEE_ResetOperation
0000906c g     F .text	00000004 raw_malloc_get_ctx_size
000069d4 g     F .text	000000a4 mbedtls_mpi_shift_l
00006b52 g     F .text	00000086 mbedtls_mpi_cmp_mpi
00001200 g     F .text	00000004 TEE_MemFill
0000909c g     F .text	00000010 malloc_add_pool
00002b4e g     F .text	0000004e TEE_MACUpdate
00000534 g     F .text	00000014 trace_get_level
00006ca8 g     F .text	000000ae mbedtls_mpi_add_abs
000013d4 g     F .text	0000002c TEE_RestrictObjectUsage
00005abe g     F .text	00000008 TEE_BigIntFMMSizeInU32
00003ac0 g     F .text	00000060 TEE_GetPropertyAsBool
00008f16 g     F .text	00000044 raw_realloc
00005ab8 g     F .text	00000004 TEE_BigIntInitFMM
00001514 g     F .text	00000014 TEE_CloseObject
00004118 g     F .text	00000014 _utee_cipher_init
000046e0 g     F .text	00000198 __utee_entry
00003b20 g     F .text	00000064 TEE_GetPropertyAsU32
00009580 g       .text	00000000 __text_end
00005870 g     F .text	0000007c TEE_BigIntRelativePrime
00007516 g     F .text	00000064 mbedtls_mpi_mod_mpi
0000415c g     F .text	00000014 _utee_cryp_obj_get_info
00008d40 g     F .text	0000009c bpool
00003cbc g     F .text	00000028 TEE_AllocatePropertyEnumerator
00004098 g     F .text	00000018 _utee_cryp_state_alloc
00000f0e g     F .text	0000001c TEE_GetCancellationFlag
00007c10 g     F .text	00000100 mbedtls_mpi_gcd
00001274 g     F .text	00000028 TEE_SetTAPersistentTime
00006900 g     F .text	0000006a mbedtls_mpi_write_binary_le
000092de g     F .text	00000010 memset
00008e70 g     F .text	00000044 raw_memalign
00001238 g     F .text	0000003c TEE_GetTAPersistentTime
00000698 g     F .text	00000002 dhex_dump
000017e4 g     F .text	0000008c TEE_CreatePersistentObject
00000f46 g     F .text	0000001c TEE_MaskCancellation
00002d0c g     F .text	00000046 TEE_AEUpdateAAD
00001a70 g     F .text	00000038 TEE_TruncateObjectData
00004184 g     F .text	00000014 _utee_cryp_obj_get_attr
00001394 g     F .text	00000020 TEE_GetObjectInfo1
00004144 g     F .text	00000018 _utee_cipher_final
00000518 g     F .text	0000001c trace_set_level
00001478 g     F .text	0000009c TEE_GetObjectValueAttribute
0000256c g     F .text	00000098 TEE_SetOperationKey
000040c4 g     F .text	00000014 _utee_cryp_state_free
000094b8 g     F .text	00000016 strcmp
00003fc8 g     F .text	00000018 _utee_open_ta_session
000051a0 g     F .text	0000005c TEE_BigIntConvertToS32
000054dc g     F .text	0000001c TEE_BigIntSub
000092da g     F .text	00000004 tahead_get_trace_level
0000435c g     F .text	00000014 _utee_storage_start_enum
00001aa8 g     F .text	0000007c TEE_SeekObjectData
00003e40 g     F .text	00000036 tee_map_zi
000077a6 g     F .text	00000004 mbedtls_mpi_montred
0000902c g     F .text	00000020 memalign
000029c0 g     F .text	00000138 TEE_CipherDoFinal
00005150 g     F .text	00000050 TEE_BigIntConvertFromS32
00006eca g     F .text	0000002e mbedtls_mpi_add_int
00004268 g     F .text	00000018 _utee_authenc_enc_final
000090ac g     F .text	000000e0 malloc_buffer_is_within_alloced
000041ac g     F .text	00000014 _utee_cryp_obj_close
00005abc g     F .text	00000002 TEE_BigIntInitFMMContext
00004048 g     F .text	00000014 _utee_mask_cancellation
0000430c g     F .text	00000014 _utee_storage_obj_rename
00001a30 g     F .text	00000040 TEE_WriteObjectData
0000192c g     F .text	00000014 TEE_ResetPersistentObjectEnumerator
00005610 g     F .text	00000006 TEE_BigIntSquare
00004398 g     F .text	00000014 _utee_storage_obj_write
0000026c g     F .text	00000004 TA_CreateEntryPoint
0000043c g     F .text	00000004 __ta_entry
0000423c g     F .text	00000014 _utee_authenc_update_aad
0000779c g     F .text	00000006 mbedtls_mpi_montg_init
000006da g     F .text	0000001a snprintk
0000549e g     F .text	00000022 TEE_BigIntGetBitCount
000041e8 g     F .text	00000014 _utee_cryp_obj_copy
0000578c g     F .text	0000001c TEE_BigIntMulMod
00007fbc g     F .text	000002e6 mbedtls_mpi_inv_mod
00003328 g     F .text	000000e0 TEE_DeriveKey
0000b374 g     O .bss	00000020 ta_params
00007184 g     F .text	00000364 mbedtls_mpi_div_mpi
0000686e g     F .text	0000000c mbedtls_mpi_size
00008850 g     F .text	00000204 bget
00001528 g     F .text	00000040 TEE_AllocateTransientObject
00003ce8 g     F .text	0000000a TEE_StartPropertyEnumerator
0000405c g     F .text	00000014 _utee_wait
000067b4 g     F .text	00000050 mbedtls_mpi_set_bit
00001304 g     F .text	0000000a TEE_Free
00008306 g     F .text	0000000a mbedtls_mpi_is_prime
0000133a g     F .text	00000006 TEE_CacheInvalidate
00000de8 g     F .text	00000010 _assert_break
00005754 g     F .text	0000001c TEE_BigIntAddMod
00004070 g     F .text	00000014 _utee_get_time
00003cf2 g     F .text	00000096 TEE_GetPropertyName
00001ca2 g     F .text	00000782 TEE_AllocateOperation
000041d4 g     F .text	00000014 _utee_cryp_obj_populate
00003408 g     F .text	00000012 TEE_GenerateRandom
000011fc g     F .text	00000004 TEE_MemCompare
0000412c g     F .text	00000018 _utee_cipher_update
0000069c g     F .text	00000030 __vsnprintf
0000b368 g     O .bss	0000000c __elf_phdr_info
00001918 g     F .text	00000014 TEE_FreePersistentObjectEnumerator
00001098 g     F .text	00000094 TEE_OpenTASession
00000df8 g     F .text	00000014 trace_ext_puts
00000e0c g     F .text	00000006 trace_ext_get_thread_id
00001894 g     F .text	00000016 TEE_CloseAndDeletePersistentObject
000041fc g     F .text	00000014 _utee_cryp_derive_key
00006408 g     F .text	00000044 mbedtls_mpi_free
000041c0 g     F .text	00000014 _utee_cryp_obj_reset
0000132e g     F .text	00000006 TEE_CacheClean
00003fb4 g     F .text	00000014 _utee_get_property_name_to_index
00008ece g     F .text	00000048 raw_calloc
0000489e g     F .text	000000ca _base64_enc
000066c8 g     F .text	00000094 mbedtls_mpi_safe_cond_swap
00004224 g     F .text	00000018 _utee_authenc_init
00001684 g     F .text	00000068 TEE_CopyObjectAttributes1
00009312 g     F .text	00000010 strlen
000058ec g     F .text	0000019c TEE_BigIntComputeExtendedGcd
00004320 g     F .text	00000014 _utee_storage_alloc_enum
00001204 g     F .text	00000016 TEE_GetSystemTime
000042b0 g     F .text	00000018 _utee_asymm_verify
00000000 g     O .ta_head	00000020 ta_head
00008ab4 g     F .text	00000208 brel
00006d56 g     F .text	000000e2 mbedtls_mpi_sub_abs
00007d10 g     F .text	00000034 mbedtls_mpi_fill_random
000011e0 g     F .text	0000000c TEE_SetInstanceData
0000400c g     F .text	00000014 _utee_get_cancellation_flag
00000d90 g     F .text	00000018 __aeabi_ldivmod
000075e8 g     F .text	00000164 mbedtls_mpi_write_string
0000196c g     F .text	00000070 TEE_GetNextPersistentObject
00000efa g     F .text	00000014 TEE_CloseTASession
00003280 g     F .text	000000a8 TEE_AsymmetricVerifyDigest
000042e0 g     F .text	00000018 _utee_storage_obj_create
0000904c g     F .text	00000010 free
00008ddc g     F .text	00000064 bstats
00002b9c g     F .text	0000007c TEE_MACComputeFinal
0000e3a0 g     O .bss	00000004 mbedtls_mpi_mempool
00004100 g     F .text	00000018 _utee_hash_final



Disassembly of section .text:

00000020 <huk_crypt>:
huk_crypt():
/home/aom1/Work/Linux/target/STM32MP1-DK2/bootloader/optee-os-custom/ta/trusted_keys/entry.c:149
      20:	e92d 4ff0 	stmdb	sp!, {r4, r5, r6, r7, r8, r9, sl, fp, lr}
      24:	4606      	mov	r6, r0
      26:	ed2d 8b02 	vpush	{d8}
/home/aom1/Work/Linux/target/STM32MP1-DK2/bootloader/optee-os-custom/ta/trusted_keys/entry.c:154
      2a:	ef80 8010 	vmov.i32	d8, #0	; 0x00000000
/home/aom1/Work/Linux/target/STM32MP1-DK2/bootloader/optee-os-custom/ta/trusted_keys/entry.c:149
      2e:	b0a3      	sub	sp, #140	; 0x8c
      30:	460f      	mov	r7, r1
/home/aom1/Work/Linux/target/STM32MP1-DK2/bootloader/optee-os-custom/ta/trusted_keys/entry.c:153
      32:	a813      	add	r0, sp, #76	; 0x4c
/home/aom1/Work/Linux/target/STM32MP1-DK2/bootloader/optee-os-custom/ta/trusted_keys/entry.c:151
      34:	2100      	movs	r1, #0
/home/aom1/Work/Linux/target/STM32MP1-DK2/bootloader/optee-os-custom/ta/trusted_keys/entry.c:149
      36:	9204      	str	r2, [sp, #16]
/home/aom1/Work/Linux/target/STM32MP1-DK2/bootloader/optee-os-custom/ta/trusted_keys/entry.c:153
      38:	221c      	movs	r2, #28
/home/aom1/Work/Linux/target/STM32MP1-DK2/bootloader/optee-os-custom/ta/trusted_keys/entry.c:151
      3a:	9107      	str	r1, [sp, #28]
/home/aom1/Work/Linux/target/STM32MP1-DK2/bootloader/optee-os-custom/ta/trusted_keys/entry.c:149
      3c:	4698      	mov	r8, r3
/home/aom1/Work/Linux/target/STM32MP1-DK2/bootloader/optee-os-custom/ta/trusted_keys/entry.c:152
      3e:	9108      	str	r1, [sp, #32]
/home/aom1/Work/Linux/target/STM32MP1-DK2/bootloader/optee-os-custom/ta/trusted_keys/entry.c:153
      40:	9112      	str	r1, [sp, #72]	; 0x48
      42:	f009 f94c 	bl	92de <memset>
/home/aom1/Work/Linux/target/STM32MP1-DK2/bootloader/optee-os-custom/ta/trusted_keys/entry.c:156
      46:	497f      	ldr	r1, [pc, #508]	; (244 <huk_crypt+0x224>)
      48:	f44f 7380 	mov.w	r3, #256	; 0x100
      4c:	4632      	mov	r2, r6
      4e:	a807      	add	r0, sp, #28
/home/aom1/Work/Linux/target/STM32MP1-DK2/bootloader/optee-os-custom/ta/trusted_keys/entry.c:154
      50:	ed8d 8b0b 	vstr	d8, [sp, #44]	; 0x2c
      54:	ed8d 8b0c 	vstr	d8, [sp, #48]	; 0x30
/home/aom1/Work/Linux/target/STM32MP1-DK2/bootloader/optee-os-custom/ta/trusted_keys/entry.c:156
      58:	f001 fe23 	bl	1ca2 <TEE_AllocateOperation>
/home/aom1/Work/Linux/target/STM32MP1-DK2/bootloader/optee-os-custom/ta/trusted_keys/entry.c:158
      5c:	4604      	mov	r4, r0
      5e:	2800      	cmp	r0, #0
      60:	d146      	bne.n	f0 <huk_crypt+0xd0>
derive_unique_key():
/home/aom1/Work/Linux/target/STM32MP1-DK2/bootloader/optee-os-custom/ta/trusted_keys/entry.c:63
      62:	9009      	str	r0, [sp, #36]	; 0x24
/home/aom1/Work/Linux/target/STM32MP1-DK2/bootloader/optee-os-custom/ta/trusted_keys/entry.c:64
      64:	f10d 0968 	add.w	r9, sp, #104	; 0x68
      68:	f04f 0a20 	mov.w	sl, #32
      6c:	4601      	mov	r1, r0
      6e:	4652      	mov	r2, sl
      70:	4648      	mov	r0, r9
      72:	f009 f934 	bl	92de <memset>
/home/aom1/Work/Linux/target/STM32MP1-DK2/bootloader/optee-os-custom/ta/trusted_keys/entry.c:72
      76:	4b76      	ldr	r3, [pc, #472]	; (250 <huk_crypt+0x230>)
      78:	aa0e      	add	r2, sp, #56	; 0x38
/home/aom1/Work/Linux/target/STM32MP1-DK2/bootloader/optee-os-custom/ta/trusted_keys/entry.c:66
      7a:	940a      	str	r4, [sp, #40]	; 0x28
/home/aom1/Work/Linux/target/STM32MP1-DK2/bootloader/optee-os-custom/ta/trusted_keys/entry.c:72
      7c:	4615      	mov	r5, r2
      7e:	447b      	add	r3, pc
      80:	cb0f      	ldmia	r3, {r0, r1, r2, r3}
      82:	e885 000f 	stmia.w	r5, {r0, r1, r2, r3}
      86:	ab0a      	add	r3, sp, #40	; 0x28
      88:	9305      	str	r3, [sp, #20]
      8a:	4622      	mov	r2, r4
      8c:	9301      	str	r3, [sp, #4]
      8e:	ab09      	add	r3, sp, #36	; 0x24
      90:	9300      	str	r3, [sp, #0]
      92:	f04f 31ff 	mov.w	r1, #4294967295	; 0xffffffff
      96:	4623      	mov	r3, r4
      98:	4628      	mov	r0, r5
      9a:	f000 fffd 	bl	1098 <TEE_OpenTASession>
/home/aom1/Work/Linux/target/STM32MP1-DK2/bootloader/optee-os-custom/ta/trusted_keys/entry.c:75
      9e:	4604      	mov	r4, r0
      a0:	b998      	cbnz	r0, ca <huk_crypt+0xaa>
/home/aom1/Work/Linux/target/STM32MP1-DK2/bootloader/optee-os-custom/ta/trusted_keys/entry.c:86
      a2:	9b05      	ldr	r3, [sp, #20]
/home/aom1/Work/Linux/target/STM32MP1-DK2/bootloader/optee-os-custom/ta/trusted_keys/entry.c:83
      a4:	f10d 0b48 	add.w	fp, sp, #72	; 0x48
/home/aom1/Work/Linux/target/STM32MP1-DK2/bootloader/optee-os-custom/ta/trusted_keys/entry.c:86
      a8:	9809      	ldr	r0, [sp, #36]	; 0x24
      aa:	2201      	movs	r2, #1
      ac:	9301      	str	r3, [sp, #4]
      ae:	f04f 31ff 	mov.w	r1, #4294967295	; 0xffffffff
      b2:	f8cd 9000 	str.w	r9, [sp]
      b6:	2365      	movs	r3, #101	; 0x65
/home/aom1/Work/Linux/target/STM32MP1-DK2/bootloader/optee-os-custom/ta/trusted_keys/entry.c:84
      b8:	e9cd ba1c 	strd	fp, sl, [sp, #112]	; 0x70
/home/aom1/Work/Linux/target/STM32MP1-DK2/bootloader/optee-os-custom/ta/trusted_keys/entry.c:86
      bc:	f001 f836 	bl	112c <TEE_InvokeTACommand>
      c0:	4604      	mov	r4, r0
/home/aom1/Work/Linux/target/STM32MP1-DK2/bootloader/optee-os-custom/ta/trusted_keys/entry.c:90
      c2:	9809      	ldr	r0, [sp, #36]	; 0x24
      c4:	f000 ff19 	bl	efa <TEE_CloseTASession>
huk_crypt():
/home/aom1/Work/Linux/target/STM32MP1-DK2/bootloader/optee-os-custom/ta/trusted_keys/entry.c:162
      c8:	b1c4      	cbz	r4, fc <huk_crypt+0xdc>
/home/aom1/Work/Linux/target/STM32MP1-DK2/bootloader/optee-os-custom/ta/trusted_keys/entry.c:163
      ca:	4b62      	ldr	r3, [pc, #392]	; (254 <huk_crypt+0x234>)
      cc:	21a3      	movs	r1, #163	; 0xa3
      ce:	4862      	ldr	r0, [pc, #392]	; (258 <huk_crypt+0x238>)
      d0:	447b      	add	r3, pc
      d2:	4478      	add	r0, pc
      d4:	9300      	str	r3, [sp, #0]
      d6:	2301      	movs	r3, #1
      d8:	9401      	str	r4, [sp, #4]
      da:	461a      	mov	r2, r3
      dc:	3010      	adds	r0, #16
      de:	f000 facf 	bl	680 <trace_printf>
/home/aom1/Work/Linux/target/STM32MP1-DK2/bootloader/optee-os-custom/ta/trusted_keys/entry.c:199
      e2:	9807      	ldr	r0, [sp, #28]
      e4:	f001 fdca 	bl	1c7c <TEE_FreeOperation>
/home/aom1/Work/Linux/target/STM32MP1-DK2/bootloader/optee-os-custom/ta/trusted_keys/entry.c:200
      e8:	2120      	movs	r1, #32
      ea:	a812      	add	r0, sp, #72	; 0x48
      ec:	f009 f8ff 	bl	92ee <memzero_explicit>
/home/aom1/Work/Linux/target/STM32MP1-DK2/bootloader/optee-os-custom/ta/trusted_keys/entry.c:202
      f0:	4620      	mov	r0, r4
      f2:	b023      	add	sp, #140	; 0x8c
      f4:	ecbd 8b02 	vpop	{d8}
      f8:	e8bd 8ff0 	ldmia.w	sp!, {r4, r5, r6, r7, r8, r9, sl, fp, pc}
/home/aom1/Work/Linux/target/STM32MP1-DK2/bootloader/optee-os-custom/ta/trusted_keys/entry.c:167
      fc:	4852      	ldr	r0, [pc, #328]	; (248 <huk_crypt+0x228>)
      fe:	aa08      	add	r2, sp, #32
     100:	f44f 7180 	mov.w	r1, #256	; 0x100
     104:	f001 fa10 	bl	1528 <TEE_AllocateTransientObject>
/home/aom1/Work/Linux/target/STM32MP1-DK2/bootloader/optee-os-custom/ta/trusted_keys/entry.c:169
     108:	4604      	mov	r4, r0
     10a:	2800      	cmp	r0, #0
     10c:	d1e9      	bne.n	e2 <huk_crypt+0xc2>
/home/aom1/Work/Linux/target/STM32MP1-DK2/bootloader/optee-os-custom/ta/trusted_keys/entry.c:176
     10e:	9808      	ldr	r0, [sp, #32]
/home/aom1/Work/Linux/target/STM32MP1-DK2/bootloader/optee-os-custom/ta/trusted_keys/entry.c:172
     110:	f04f 4340 	mov.w	r3, #3221225472	; 0xc0000000
     114:	930b      	str	r3, [sp, #44]	; 0x2c
/home/aom1/Work/Linux/target/STM32MP1-DK2/bootloader/optee-os-custom/ta/trusted_keys/entry.c:176
     116:	2201      	movs	r2, #1
/home/aom1/Work/Linux/target/STM32MP1-DK2/bootloader/optee-os-custom/ta/trusted_keys/entry.c:173
     118:	f8cd b030 	str.w	fp, [sp, #48]	; 0x30
/home/aom1/Work/Linux/target/STM32MP1-DK2/bootloader/optee-os-custom/ta/trusted_keys/entry.c:176
     11c:	a90b      	add	r1, sp, #44	; 0x2c
/home/aom1/Work/Linux/target/STM32MP1-DK2/bootloader/optee-os-custom/ta/trusted_keys/entry.c:174
     11e:	f8cd a034 	str.w	sl, [sp, #52]	; 0x34
/home/aom1/Work/Linux/target/STM32MP1-DK2/bootloader/optee-os-custom/ta/trusted_keys/entry.c:176
     122:	f001 fa51 	bl	15c8 <TEE_PopulateTransientObject>
/home/aom1/Work/Linux/target/STM32MP1-DK2/bootloader/optee-os-custom/ta/trusted_keys/entry.c:177
     126:	4604      	mov	r4, r0
     128:	2800      	cmp	r0, #0
     12a:	d153      	bne.n	1d4 <huk_crypt+0x1b4>
/home/aom1/Work/Linux/target/STM32MP1-DK2/bootloader/optee-os-custom/ta/trusted_keys/entry.c:180
     12c:	9908      	ldr	r1, [sp, #32]
     12e:	9807      	ldr	r0, [sp, #28]
     130:	f002 fa1c 	bl	256c <TEE_SetOperationKey>
/home/aom1/Work/Linux/target/STM32MP1-DK2/bootloader/optee-os-custom/ta/trusted_keys/entry.c:181
     134:	4604      	mov	r4, r0
     136:	2800      	cmp	r0, #0
     138:	d14c      	bne.n	1d4 <huk_crypt+0x1b4>
/home/aom1/Work/Linux/target/STM32MP1-DK2/bootloader/optee-os-custom/ta/trusted_keys/entry.c:185
     13a:	f8dd a01c 	ldr.w	sl, [sp, #28]
     13e:	ab1b      	add	r3, sp, #108	; 0x6c
/home/aom1/Work/Linux/target/STM32MP1-DK2/bootloader/optee-os-custom/ta/trusted_keys/entry.c:184
     140:	2e00      	cmp	r6, #0
     142:	d14b      	bne.n	1dc <huk_crypt+0x1bc>
huk_ae_encrypt():
/home/aom1/Work/Linux/target/STM32MP1-DK2/bootloader/optee-os-custom/ta/trusted_keys/entry.c:100
     144:	961a      	str	r6, [sp, #104]	; 0x68
/home/aom1/Work/Linux/target/STM32MP1-DK2/bootloader/optee-os-custom/ta/trusted_keys/entry.c:104
     146:	4644      	mov	r4, r8
/home/aom1/Work/Linux/target/STM32MP1-DK2/bootloader/optee-os-custom/ta/trusted_keys/entry.c:102
     148:	f04f 0b10 	mov.w	fp, #16
/home/aom1/Work/Linux/target/STM32MP1-DK2/bootloader/optee-os-custom/ta/trusted_keys/entry.c:105
     14c:	4648      	mov	r0, r9
/home/aom1/Work/Linux/target/STM32MP1-DK2/bootloader/optee-os-custom/ta/trusted_keys/entry.c:100
     14e:	ed8d 8b1b 	vstr	d8, [sp, #108]	; 0x6c
     152:	ed83 8b01 	vstr	d8, [r3, #4]
/home/aom1/Work/Linux/target/STM32MP1-DK2/bootloader/optee-os-custom/ta/trusted_keys/entry.c:101
     156:	9b04      	ldr	r3, [sp, #16]
/home/aom1/Work/Linux/target/STM32MP1-DK2/bootloader/optee-os-custom/ta/trusted_keys/entry.c:105
     158:	4659      	mov	r1, fp
/home/aom1/Work/Linux/target/STM32MP1-DK2/bootloader/optee-os-custom/ta/trusted_keys/entry.c:104
     15a:	f804 6b01 	strb.w	r6, [r4], #1
/home/aom1/Work/Linux/target/STM32MP1-DK2/bootloader/optee-os-custom/ta/trusted_keys/entry.c:101
     15e:	930a      	str	r3, [sp, #40]	; 0x28
/home/aom1/Work/Linux/target/STM32MP1-DK2/bootloader/optee-os-custom/ta/trusted_keys/entry.c:102
     160:	f8cd b038 	str.w	fp, [sp, #56]	; 0x38
/home/aom1/Work/Linux/target/STM32MP1-DK2/bootloader/optee-os-custom/ta/trusted_keys/entry.c:105
     164:	f003 f950 	bl	3408 <TEE_GenerateRandom>
/home/aom1/Work/Linux/target/STM32MP1-DK2/bootloader/optee-os-custom/ta/trusted_keys/entry.c:106
     168:	465a      	mov	r2, fp
     16a:	4649      	mov	r1, r9
     16c:	4620      	mov	r0, r4
     16e:	f000 f967 	bl	440 <memcpy>
/home/aom1/Work/Linux/target/STM32MP1-DK2/bootloader/optee-os-custom/ta/trusted_keys/entry.c:108
     172:	9601      	str	r6, [sp, #4]
     174:	4621      	mov	r1, r4
     176:	9600      	str	r6, [sp, #0]
     178:	2380      	movs	r3, #128	; 0x80
     17a:	465a      	mov	r2, fp
     17c:	4650      	mov	r0, sl
     17e:	f002 fd8d 	bl	2c9c <TEE_AEInit>
/home/aom1/Work/Linux/target/STM32MP1-DK2/bootloader/optee-os-custom/ta/trusted_keys/entry.c:109
     182:	4604      	mov	r4, r0
     184:	b970      	cbnz	r0, 1a4 <huk_crypt+0x184>
/home/aom1/Work/Linux/target/STM32MP1-DK2/bootloader/optee-os-custom/ta/trusted_keys/entry.c:112
     186:	9a04      	ldr	r2, [sp, #16]
/home/aom1/Work/Linux/target/STM32MP1-DK2/bootloader/optee-os-custom/ta/trusted_keys/entry.c:113
     188:	f108 0311 	add.w	r3, r8, #17
/home/aom1/Work/Linux/target/STM32MP1-DK2/bootloader/optee-os-custom/ta/trusted_keys/entry.c:112
     18c:	9301      	str	r3, [sp, #4]
     18e:	4639      	mov	r1, r7
     190:	9b05      	ldr	r3, [sp, #20]
     192:	4650      	mov	r0, sl
     194:	9502      	str	r5, [sp, #8]
     196:	9300      	str	r3, [sp, #0]
     198:	f108 0321 	add.w	r3, r8, #33	; 0x21
     19c:	f002 fe46 	bl	2e2c <TEE_AEEncryptFinal>
/home/aom1/Work/Linux/target/STM32MP1-DK2/bootloader/optee-os-custom/ta/trusted_keys/entry.c:114
     1a0:	b168      	cbz	r0, 1be <huk_crypt+0x19e>
/home/aom1/Work/Linux/target/STM32MP1-DK2/bootloader/optee-os-custom/ta/trusted_keys/entry.c:115
     1a2:	4c2a      	ldr	r4, [pc, #168]	; (24c <huk_crypt+0x22c>)
huk_crypt():
/home/aom1/Work/Linux/target/STM32MP1-DK2/bootloader/optee-os-custom/ta/trusted_keys/entry.c:187
     1a4:	4b2d      	ldr	r3, [pc, #180]	; (25c <huk_crypt+0x23c>)
     1a6:	21bb      	movs	r1, #187	; 0xbb
     1a8:	482d      	ldr	r0, [pc, #180]	; (260 <huk_crypt+0x240>)
     1aa:	447b      	add	r3, pc
     1ac:	9300      	str	r3, [sp, #0]
     1ae:	2301      	movs	r3, #1
     1b0:	4478      	add	r0, pc
     1b2:	461a      	mov	r2, r3
     1b4:	9401      	str	r4, [sp, #4]
/home/aom1/Work/Linux/target/STM32MP1-DK2/bootloader/optee-os-custom/ta/trusted_keys/entry.c:191
     1b6:	3010      	adds	r0, #16
     1b8:	f000 fa62 	bl	680 <trace_printf>
     1bc:	e00a      	b.n	1d4 <huk_crypt+0x1b4>
huk_ae_encrypt():
/home/aom1/Work/Linux/target/STM32MP1-DK2/bootloader/optee-os-custom/ta/trusted_keys/entry.c:114
     1be:	9b0e      	ldr	r3, [sp, #56]	; 0x38
     1c0:	2b10      	cmp	r3, #16
     1c2:	d1ee      	bne.n	1a2 <huk_crypt+0x182>
/home/aom1/Work/Linux/target/STM32MP1-DK2/bootloader/optee-os-custom/ta/trusted_keys/entry.c:117
     1c4:	9b0a      	ldr	r3, [sp, #40]	; 0x28
     1c6:	9a2e      	ldr	r2, [sp, #184]	; 0xb8
     1c8:	3321      	adds	r3, #33	; 0x21
     1ca:	6013      	str	r3, [r2, #0]
     1cc:	bf2c      	ite	cs
     1ce:	2401      	movcs	r4, #1
     1d0:	2400      	movcc	r4, #0
     1d2:	d2e6      	bcs.n	1a2 <huk_crypt+0x182>
huk_crypt():
/home/aom1/Work/Linux/target/STM32MP1-DK2/bootloader/optee-os-custom/ta/trusted_keys/entry.c:197
     1d4:	9808      	ldr	r0, [sp, #32]
     1d6:	f001 f9c7 	bl	1568 <TEE_FreeTransientObject>
     1da:	e782      	b.n	e2 <huk_crypt+0xc2>
huk_ae_decrypt():
/home/aom1/Work/Linux/target/STM32MP1-DK2/bootloader/optee-os-custom/ta/trusted_keys/entry.c:128
     1dc:	ed8d 8b1b 	vstr	d8, [sp, #108]	; 0x6c
     1e0:	901a      	str	r0, [sp, #104]	; 0x68
     1e2:	ed83 8b01 	vstr	d8, [r3, #4]
/home/aom1/Work/Linux/target/STM32MP1-DK2/bootloader/optee-os-custom/ta/trusted_keys/entry.c:131
     1e6:	9b04      	ldr	r3, [sp, #16]
     1e8:	f1b3 0521 	subs.w	r5, r3, #33	; 0x21
     1ec:	d31f      	bcc.n	22e <huk_crypt+0x20e>
/home/aom1/Work/Linux/target/STM32MP1-DK2/bootloader/optee-os-custom/ta/trusted_keys/entry.c:134
     1ee:	9001      	str	r0, [sp, #4]
     1f0:	2380      	movs	r3, #128	; 0x80
     1f2:	9000      	str	r0, [sp, #0]
     1f4:	2210      	movs	r2, #16
     1f6:	1c79      	adds	r1, r7, #1
     1f8:	4650      	mov	r0, sl
     1fa:	f002 fd4f 	bl	2c9c <TEE_AEInit>
/home/aom1/Work/Linux/target/STM32MP1-DK2/bootloader/optee-os-custom/ta/trusted_keys/entry.c:135
     1fe:	4604      	mov	r4, r0
     200:	b9b0      	cbnz	r0, 230 <huk_crypt+0x210>
/home/aom1/Work/Linux/target/STM32MP1-DK2/bootloader/optee-os-custom/ta/trusted_keys/entry.c:138
     202:	2410      	movs	r4, #16
     204:	f107 0111 	add.w	r1, r7, #17
     208:	4622      	mov	r2, r4
     20a:	4648      	mov	r0, r9
     20c:	f000 f918 	bl	440 <memcpy>
/home/aom1/Work/Linux/target/STM32MP1-DK2/bootloader/optee-os-custom/ta/trusted_keys/entry.c:139
     210:	9b2e      	ldr	r3, [sp, #184]	; 0xb8
     212:	462a      	mov	r2, r5
     214:	9402      	str	r4, [sp, #8]
     216:	f107 0121 	add.w	r1, r7, #33	; 0x21
     21a:	9300      	str	r3, [sp, #0]
     21c:	4650      	mov	r0, sl
     21e:	f8cd 9004 	str.w	r9, [sp, #4]
     222:	4643      	mov	r3, r8
     224:	f002 fe90 	bl	2f48 <TEE_AEDecryptFinal>
/home/aom1/Work/Linux/target/STM32MP1-DK2/bootloader/optee-os-custom/ta/trusted_keys/entry.c:141
     228:	4604      	mov	r4, r0
     22a:	2800      	cmp	r0, #0
     22c:	d0d2      	beq.n	1d4 <huk_crypt+0x1b4>
/home/aom1/Work/Linux/target/STM32MP1-DK2/bootloader/optee-os-custom/ta/trusted_keys/entry.c:142
     22e:	4c07      	ldr	r4, [pc, #28]	; (24c <huk_crypt+0x22c>)
huk_crypt():
/home/aom1/Work/Linux/target/STM32MP1-DK2/bootloader/optee-os-custom/ta/trusted_keys/entry.c:191
     230:	4b0c      	ldr	r3, [pc, #48]	; (264 <huk_crypt+0x244>)
     232:	21bf      	movs	r1, #191	; 0xbf
     234:	480c      	ldr	r0, [pc, #48]	; (268 <huk_crypt+0x248>)
     236:	447b      	add	r3, pc
     238:	9300      	str	r3, [sp, #0]
     23a:	2301      	movs	r3, #1
     23c:	4478      	add	r0, pc
     23e:	461a      	mov	r2, r3
     240:	9401      	str	r4, [sp, #4]
     242:	e7b8      	b.n	1b6 <huk_crypt+0x196>
     244:	40000810 	.word	0x40000810
     248:	a0000010 	.word	0xa0000010
     24c:	ffff000f 	.word	0xffff000f
     250:	000094fe 	.word	0x000094fe
     254:	00009828 	.word	0x00009828
     258:	000094aa 	.word	0x000094aa
     25c:	00009775 	.word	0x00009775
     260:	000093cc 	.word	0x000093cc
     264:	0000970d 	.word	0x0000970d
     268:	00009340 	.word	0x00009340

0000026c <TA_CreateEntryPoint>:
TA_CreateEntryPoint():
/home/aom1/Work/Linux/target/STM32MP1-DK2/bootloader/optee-os-custom/ta/trusted_keys/entry.c:292
     26c:	2000      	movs	r0, #0
     26e:	4770      	bx	lr

00000270 <TA_DestroyEntryPoint>:
TA_DestroyEntryPoint():
/home/aom1/Work/Linux/target/STM32MP1-DK2/bootloader/optee-os-custom/ta/trusted_keys/entry.c:296
     270:	4770      	bx	lr

00000272 <TA_OpenSessionEntryPoint>:
TA_OpenSessionEntryPoint():
/home/aom1/Work/Linux/target/STM32MP1-DK2/bootloader/optee-os-custom/ta/trusted_keys/entry.c:304
     272:	efc0 0010 	vmov.i32	d16, #0	; 0x00000000
/home/aom1/Work/Linux/target/STM32MP1-DK2/bootloader/optee-os-custom/ta/trusted_keys/entry.c:301
     276:	b510      	push	{r4, lr}
     278:	b086      	sub	sp, #24
/home/aom1/Work/Linux/target/STM32MP1-DK2/bootloader/optee-os-custom/ta/trusted_keys/entry.c:303
     27a:	2300      	movs	r3, #0
/home/aom1/Work/Linux/target/STM32MP1-DK2/bootloader/optee-os-custom/ta/trusted_keys/entry.c:306
     27c:	4668      	mov	r0, sp
/home/aom1/Work/Linux/target/STM32MP1-DK2/bootloader/optee-os-custom/ta/trusted_keys/entry.c:304
     27e:	edcd 0b03 	vstr	d16, [sp, #12]
     282:	edcd 0b01 	vstr	d16, [sp, #4]
     286:	edcd 0b04 	vstr	d16, [sp, #16]
/home/aom1/Work/Linux/target/STM32MP1-DK2/bootloader/optee-os-custom/ta/trusted_keys/entry.c:303
     28a:	9300      	str	r3, [sp, #0]
/home/aom1/Work/Linux/target/STM32MP1-DK2/bootloader/optee-os-custom/ta/trusted_keys/entry.c:306
     28c:	f003 fd16 	bl	3cbc <TEE_AllocatePropertyEnumerator>
/home/aom1/Work/Linux/target/STM32MP1-DK2/bootloader/optee-os-custom/ta/trusted_keys/entry.c:307
     290:	4604      	mov	r4, r0
     292:	b988      	cbnz	r0, 2b8 <TA_OpenSessionEntryPoint+0x46>
/home/aom1/Work/Linux/target/STM32MP1-DK2/bootloader/optee-os-custom/ta/trusted_keys/entry.c:310
     294:	f06f 0101 	mvn.w	r1, #1
     298:	9800      	ldr	r0, [sp, #0]
     29a:	f003 fd25 	bl	3ce8 <TEE_StartPropertyEnumerator>
/home/aom1/Work/Linux/target/STM32MP1-DK2/bootloader/optee-os-custom/ta/trusted_keys/entry.c:312
     29e:	9800      	ldr	r0, [sp, #0]
     2a0:	4621      	mov	r1, r4
     2a2:	aa01      	add	r2, sp, #4
     2a4:	f003 fcd4 	bl	3c50 <TEE_GetPropertyAsIdentity>
/home/aom1/Work/Linux/target/STM32MP1-DK2/bootloader/optee-os-custom/ta/trusted_keys/entry.c:313
     2a8:	4604      	mov	r4, r0
     2aa:	b928      	cbnz	r0, 2b8 <TA_OpenSessionEntryPoint+0x46>
/home/aom1/Work/Linux/target/STM32MP1-DK2/bootloader/optee-os-custom/ta/trusted_keys/entry.c:317
     2ac:	9a01      	ldr	r2, [sp, #4]
     2ae:	4b06      	ldr	r3, [pc, #24]	; (2c8 <TA_OpenSessionEntryPoint+0x56>)
     2b0:	f1b2 4f00 	cmp.w	r2, #2147483648	; 0x80000000
     2b4:	bf18      	it	ne
     2b6:	461c      	movne	r4, r3
/home/aom1/Work/Linux/target/STM32MP1-DK2/bootloader/optee-os-custom/ta/trusted_keys/entry.c:320
     2b8:	9800      	ldr	r0, [sp, #0]
     2ba:	b108      	cbz	r0, 2c0 <TA_OpenSessionEntryPoint+0x4e>
/home/aom1/Work/Linux/target/STM32MP1-DK2/bootloader/optee-os-custom/ta/trusted_keys/entry.c:321
     2bc:	f003 fd12 	bl	3ce4 <TEE_FreePropertyEnumerator>
/home/aom1/Work/Linux/target/STM32MP1-DK2/bootloader/optee-os-custom/ta/trusted_keys/entry.c:323
     2c0:	4620      	mov	r0, r4
     2c2:	b006      	add	sp, #24
     2c4:	bd10      	pop	{r4, pc}
     2c6:	bf00      	nop
     2c8:	ffff0001 	.word	0xffff0001

000002cc <TA_CloseSessionEntryPoint>:
TA_CloseSessionEntryPoint():
/home/aom1/Work/Linux/target/STM32MP1-DK2/bootloader/optee-os-custom/ta/trusted_keys/entry.c:327
     2cc:	4770      	bx	lr

000002ce <TA_InvokeCommandEntryPoint>:
TA_InvokeCommandEntryPoint():
/home/aom1/Work/Linux/target/STM32MP1-DK2/bootloader/optee-os-custom/ta/trusted_keys/entry.c:333
     2ce:	2901      	cmp	r1, #1
/home/aom1/Work/Linux/target/STM32MP1-DK2/bootloader/optee-os-custom/ta/trusted_keys/entry.c:332
     2d0:	b57f      	push	{r0, r1, r2, r3, r4, r5, r6, lr}
     2d2:	460c      	mov	r4, r1
     2d4:	461d      	mov	r5, r3
/home/aom1/Work/Linux/target/STM32MP1-DK2/bootloader/optee-os-custom/ta/trusted_keys/entry.c:333
     2d6:	d022      	beq.n	31e <TA_InvokeCommandEntryPoint+0x50>
     2d8:	2902      	cmp	r1, #2
     2da:	d054      	beq.n	386 <TA_InvokeCommandEntryPoint+0xb8>
     2dc:	2900      	cmp	r1, #0
     2de:	f040 8084 	bne.w	3ea <TA_InvokeCommandEntryPoint+0x11c>
get_random():
/home/aom1/Work/Linux/target/STM32MP1-DK2/bootloader/optee-os-custom/ta/trusted_keys/entry.c:38
     2e2:	2a06      	cmp	r2, #6
     2e4:	d11d      	bne.n	322 <TA_InvokeCommandEntryPoint+0x54>
/home/aom1/Work/Linux/target/STM32MP1-DK2/bootloader/optee-os-custom/ta/trusted_keys/entry.c:44
     2e6:	681b      	ldr	r3, [r3, #0]
     2e8:	b1db      	cbz	r3, 322 <TA_InvokeCommandEntryPoint+0x54>
     2ea:	6868      	ldr	r0, [r5, #4]
     2ec:	b1c8      	cbz	r0, 322 <TA_InvokeCommandEntryPoint+0x54>
/home/aom1/Work/Linux/target/STM32MP1-DK2/bootloader/optee-os-custom/ta/trusted_keys/entry.c:47
     2ee:	f000 ffe0 	bl	12b2 <TEE_Malloc>
/home/aom1/Work/Linux/target/STM32MP1-DK2/bootloader/optee-os-custom/ta/trusted_keys/entry.c:48
     2f2:	4606      	mov	r6, r0
     2f4:	2800      	cmp	r0, #0
     2f6:	f000 8087 	beq.w	408 <TA_InvokeCommandEntryPoint+0x13a>
/home/aom1/Work/Linux/target/STM32MP1-DK2/bootloader/optee-os-custom/ta/trusted_keys/entry.c:51
     2fa:	6869      	ldr	r1, [r5, #4]
     2fc:	f003 f884 	bl	3408 <TEE_GenerateRandom>
/home/aom1/Work/Linux/target/STM32MP1-DK2/bootloader/optee-os-custom/ta/trusted_keys/entry.c:52
     300:	686a      	ldr	r2, [r5, #4]
     302:	4631      	mov	r1, r6
     304:	6828      	ldr	r0, [r5, #0]
     306:	f000 f89b 	bl	440 <memcpy>
/home/aom1/Work/Linux/target/STM32MP1-DK2/bootloader/optee-os-custom/ta/trusted_keys/entry.c:53
     30a:	6869      	ldr	r1, [r5, #4]
     30c:	4630      	mov	r0, r6
     30e:	f008 ffee 	bl	92ee <memzero_explicit>
/home/aom1/Work/Linux/target/STM32MP1-DK2/bootloader/optee-os-custom/ta/trusted_keys/entry.c:55
     312:	4630      	mov	r0, r6
     314:	f000 fff6 	bl	1304 <TEE_Free>
TA_InvokeCommandEntryPoint():
/home/aom1/Work/Linux/target/STM32MP1-DK2/bootloader/optee-os-custom/ta/trusted_keys/entry.c:344
     318:	4620      	mov	r0, r4
     31a:	b004      	add	sp, #16
     31c:	bd70      	pop	{r4, r5, r6, pc}
seal_trusted_key():
/home/aom1/Work/Linux/target/STM32MP1-DK2/bootloader/optee-os-custom/ta/trusted_keys/entry.c:215
     31e:	2a65      	cmp	r2, #101	; 0x65
     320:	d001      	beq.n	326 <TA_InvokeCommandEntryPoint+0x58>
get_random():
/home/aom1/Work/Linux/target/STM32MP1-DK2/bootloader/optee-os-custom/ta/trusted_keys/entry.c:42
     322:	4c3a      	ldr	r4, [pc, #232]	; (40c <TA_InvokeCommandEntryPoint+0x13e>)
     324:	e7f8      	b.n	318 <TA_InvokeCommandEntryPoint+0x4a>
seal_trusted_key():
/home/aom1/Work/Linux/target/STM32MP1-DK2/bootloader/optee-os-custom/ta/trusted_keys/entry.c:223
     326:	cb0e      	ldmia	r3, {r1, r2, r3}
/home/aom1/Work/Linux/target/STM32MP1-DK2/bootloader/optee-os-custom/ta/trusted_keys/entry.c:224
     328:	68e8      	ldr	r0, [r5, #12]
     32a:	9003      	str	r0, [sp, #12]
/home/aom1/Work/Linux/target/STM32MP1-DK2/bootloader/optee-os-custom/ta/trusted_keys/entry.c:226
     32c:	2900      	cmp	r1, #0
     32e:	d0f8      	beq.n	322 <TA_InvokeCommandEntryPoint+0x54>
     330:	1e54      	subs	r4, r2, #1
     332:	f5b4 7f00 	cmp.w	r4, #512	; 0x200
     336:	d2f4      	bcs.n	322 <TA_InvokeCommandEntryPoint+0x54>
/home/aom1/Work/Linux/target/STM32MP1-DK2/bootloader/optee-os-custom/ta/trusted_keys/entry.c:228
     338:	b943      	cbnz	r3, 34c <TA_InvokeCommandEntryPoint+0x7e>
     33a:	2800      	cmp	r0, #0
     33c:	d1f1      	bne.n	322 <TA_InvokeCommandEntryPoint+0x54>
/home/aom1/Work/Linux/target/STM32MP1-DK2/bootloader/optee-os-custom/ta/trusted_keys/entry.c:233
     33e:	f102 0621 	add.w	r6, r2, #33	; 0x21
     342:	42b0      	cmp	r0, r6
     344:	d206      	bcs.n	354 <TA_InvokeCommandEntryPoint+0x86>
unseal_trusted_key():
/home/aom1/Work/Linux/target/STM32MP1-DK2/bootloader/optee-os-custom/ta/trusted_keys/entry.c:277
     346:	4c32      	ldr	r4, [pc, #200]	; (410 <TA_InvokeCommandEntryPoint+0x142>)
/home/aom1/Work/Linux/target/STM32MP1-DK2/bootloader/optee-os-custom/ta/trusted_keys/entry.c:276
     348:	60ee      	str	r6, [r5, #12]
/home/aom1/Work/Linux/target/STM32MP1-DK2/bootloader/optee-os-custom/ta/trusted_keys/entry.c:277
     34a:	e7e5      	b.n	318 <TA_InvokeCommandEntryPoint+0x4a>
seal_trusted_key():
/home/aom1/Work/Linux/target/STM32MP1-DK2/bootloader/optee-os-custom/ta/trusted_keys/entry.c:229
     34c:	f5b0 7f00 	cmp.w	r0, #512	; 0x200
     350:	d9f5      	bls.n	33e <TA_InvokeCommandEntryPoint+0x70>
     352:	e7e6      	b.n	322 <TA_InvokeCommandEntryPoint+0x54>
/home/aom1/Work/Linux/target/STM32MP1-DK2/bootloader/optee-os-custom/ta/trusted_keys/entry.c:238
     354:	a803      	add	r0, sp, #12
     356:	9000      	str	r0, [sp, #0]
     358:	2000      	movs	r0, #0
     35a:	f7ff fe61 	bl	20 <huk_crypt>
/home/aom1/Work/Linux/target/STM32MP1-DK2/bootloader/optee-os-custom/ta/trusted_keys/entry.c:239
     35e:	4604      	mov	r4, r0
     360:	2800      	cmp	r0, #0
     362:	d1d9      	bne.n	318 <TA_InvokeCommandEntryPoint+0x4a>
/home/aom1/Work/Linux/target/STM32MP1-DK2/bootloader/optee-os-custom/ta/trusted_keys/entry.c:240
     364:	9b03      	ldr	r3, [sp, #12]
     366:	429e      	cmp	r6, r3
     368:	d00b      	beq.n	382 <TA_InvokeCommandEntryPoint+0xb4>
     36a:	4b2c      	ldr	r3, [pc, #176]	; (41c <TA_InvokeCommandEntryPoint+0x14e>)
     36c:	22f0      	movs	r2, #240	; 0xf0
     36e:	492c      	ldr	r1, [pc, #176]	; (420 <TA_InvokeCommandEntryPoint+0x152>)
     370:	482c      	ldr	r0, [pc, #176]	; (424 <TA_InvokeCommandEntryPoint+0x156>)
     372:	447b      	add	r3, pc
     374:	4479      	add	r1, pc
     376:	331a      	adds	r3, #26
     378:	4478      	add	r0, pc
unseal_trusted_key():
/home/aom1/Work/Linux/target/STM32MP1-DK2/bootloader/optee-os-custom/ta/trusted_keys/entry.c:282
     37a:	f000 fd21 	bl	dc0 <_assert_log>
     37e:	f000 fd33 	bl	de8 <_assert_break>
seal_trusted_key():
/home/aom1/Work/Linux/target/STM32MP1-DK2/bootloader/optee-os-custom/ta/trusted_keys/entry.c:241
     382:	60ee      	str	r6, [r5, #12]
TA_InvokeCommandEntryPoint():
/home/aom1/Work/Linux/target/STM32MP1-DK2/bootloader/optee-os-custom/ta/trusted_keys/entry.c:337
     384:	e7c8      	b.n	318 <TA_InvokeCommandEntryPoint+0x4a>
unseal_trusted_key():
/home/aom1/Work/Linux/target/STM32MP1-DK2/bootloader/optee-os-custom/ta/trusted_keys/entry.c:258
     386:	2a65      	cmp	r2, #101	; 0x65
     388:	d1cb      	bne.n	322 <TA_InvokeCommandEntryPoint+0x54>
/home/aom1/Work/Linux/target/STM32MP1-DK2/bootloader/optee-os-custom/ta/trusted_keys/entry.c:265
     38a:	e9d3 1600 	ldrd	r1, r6, [r3]
/home/aom1/Work/Linux/target/STM32MP1-DK2/bootloader/optee-os-custom/ta/trusted_keys/entry.c:267
     38e:	68ea      	ldr	r2, [r5, #12]
/home/aom1/Work/Linux/target/STM32MP1-DK2/bootloader/optee-os-custom/ta/trusted_keys/entry.c:266
     390:	689b      	ldr	r3, [r3, #8]
/home/aom1/Work/Linux/target/STM32MP1-DK2/bootloader/optee-os-custom/ta/trusted_keys/entry.c:267
     392:	9203      	str	r2, [sp, #12]
/home/aom1/Work/Linux/target/STM32MP1-DK2/bootloader/optee-os-custom/ta/trusted_keys/entry.c:269
     394:	2900      	cmp	r1, #0
     396:	d0c4      	beq.n	322 <TA_InvokeCommandEntryPoint+0x54>
     398:	f1a6 0022 	sub.w	r0, r6, #34	; 0x22
     39c:	f5b0 7fef 	cmp.w	r0, #478	; 0x1de
     3a0:	d8bf      	bhi.n	322 <TA_InvokeCommandEntryPoint+0x54>
/home/aom1/Work/Linux/target/STM32MP1-DK2/bootloader/optee-os-custom/ta/trusted_keys/entry.c:272
     3a2:	b91b      	cbnz	r3, 3ac <TA_InvokeCommandEntryPoint+0xde>
     3a4:	2a00      	cmp	r2, #0
     3a6:	d1bc      	bne.n	322 <TA_InvokeCommandEntryPoint+0x54>
/home/aom1/Work/Linux/target/STM32MP1-DK2/bootloader/optee-os-custom/ta/trusted_keys/entry.c:276
     3a8:	3e21      	subs	r6, #33	; 0x21
     3aa:	e7cc      	b.n	346 <TA_InvokeCommandEntryPoint+0x78>
/home/aom1/Work/Linux/target/STM32MP1-DK2/bootloader/optee-os-custom/ta/trusted_keys/entry.c:272
     3ac:	f5b2 7f00 	cmp.w	r2, #512	; 0x200
     3b0:	d8b7      	bhi.n	322 <TA_InvokeCommandEntryPoint+0x54>
/home/aom1/Work/Linux/target/STM32MP1-DK2/bootloader/optee-os-custom/ta/trusted_keys/entry.c:275
     3b2:	3221      	adds	r2, #33	; 0x21
     3b4:	4296      	cmp	r6, r2
     3b6:	d8f7      	bhi.n	3a8 <TA_InvokeCommandEntryPoint+0xda>
/home/aom1/Work/Linux/target/STM32MP1-DK2/bootloader/optee-os-custom/ta/trusted_keys/entry.c:280
     3b8:	aa03      	add	r2, sp, #12
     3ba:	2001      	movs	r0, #1
     3bc:	9200      	str	r2, [sp, #0]
     3be:	4632      	mov	r2, r6
     3c0:	f7ff fe2e 	bl	20 <huk_crypt>
/home/aom1/Work/Linux/target/STM32MP1-DK2/bootloader/optee-os-custom/ta/trusted_keys/entry.c:281
     3c4:	4604      	mov	r4, r0
     3c6:	2800      	cmp	r0, #0
     3c8:	d1a6      	bne.n	318 <TA_InvokeCommandEntryPoint+0x4a>
/home/aom1/Work/Linux/target/STM32MP1-DK2/bootloader/optee-os-custom/ta/trusted_keys/entry.c:282
     3ca:	9b03      	ldr	r3, [sp, #12]
     3cc:	3e21      	subs	r6, #33	; 0x21
     3ce:	429e      	cmp	r6, r3
     3d0:	d009      	beq.n	3e6 <TA_InvokeCommandEntryPoint+0x118>
     3d2:	4b15      	ldr	r3, [pc, #84]	; (428 <TA_InvokeCommandEntryPoint+0x15a>)
     3d4:	f44f 728d 	mov.w	r2, #282	; 0x11a
     3d8:	4914      	ldr	r1, [pc, #80]	; (42c <TA_InvokeCommandEntryPoint+0x15e>)
     3da:	4815      	ldr	r0, [pc, #84]	; (430 <TA_InvokeCommandEntryPoint+0x162>)
     3dc:	447b      	add	r3, pc
     3de:	4479      	add	r1, pc
     3e0:	332b      	adds	r3, #43	; 0x2b
     3e2:	4478      	add	r0, pc
     3e4:	e7c9      	b.n	37a <TA_InvokeCommandEntryPoint+0xac>
/home/aom1/Work/Linux/target/STM32MP1-DK2/bootloader/optee-os-custom/ta/trusted_keys/entry.c:283
     3e6:	60eb      	str	r3, [r5, #12]
TA_InvokeCommandEntryPoint():
/home/aom1/Work/Linux/target/STM32MP1-DK2/bootloader/optee-os-custom/ta/trusted_keys/entry.c:339
     3e8:	e796      	b.n	318 <TA_InvokeCommandEntryPoint+0x4a>
/home/aom1/Work/Linux/target/STM32MP1-DK2/bootloader/optee-os-custom/ta/trusted_keys/entry.c:341
     3ea:	4b12      	ldr	r3, [pc, #72]	; (434 <TA_InvokeCommandEntryPoint+0x166>)
     3ec:	4812      	ldr	r0, [pc, #72]	; (438 <TA_InvokeCommandEntryPoint+0x16a>)
     3ee:	447b      	add	r3, pc
     3f0:	9300      	str	r3, [sp, #0]
     3f2:	2301      	movs	r3, #1
     3f4:	4478      	add	r0, pc
     3f6:	461a      	mov	r2, r3
     3f8:	9101      	str	r1, [sp, #4]
     3fa:	303e      	adds	r0, #62	; 0x3e
/home/aom1/Work/Linux/target/STM32MP1-DK2/bootloader/optee-os-custom/ta/trusted_keys/entry.c:342
     3fc:	4c05      	ldr	r4, [pc, #20]	; (414 <TA_InvokeCommandEntryPoint+0x146>)
/home/aom1/Work/Linux/target/STM32MP1-DK2/bootloader/optee-os-custom/ta/trusted_keys/entry.c:341
     3fe:	f240 1155 	movw	r1, #341	; 0x155
     402:	f000 f93d 	bl	680 <trace_printf>
/home/aom1/Work/Linux/target/STM32MP1-DK2/bootloader/optee-os-custom/ta/trusted_keys/entry.c:342
     406:	e787      	b.n	318 <TA_InvokeCommandEntryPoint+0x4a>
get_random():
/home/aom1/Work/Linux/target/STM32MP1-DK2/bootloader/optee-os-custom/ta/trusted_keys/entry.c:49
     408:	4c03      	ldr	r4, [pc, #12]	; (418 <TA_InvokeCommandEntryPoint+0x14a>)
     40a:	e785      	b.n	318 <TA_InvokeCommandEntryPoint+0x4a>
     40c:	ffff0006 	.word	0xffff0006
     410:	ffff0010 	.word	0xffff0010
     414:	ffff000a 	.word	0xffff000a
     418:	ffff000c 	.word	0xffff000c
     41c:	0000920a 	.word	0x0000920a
     420:	000095f3 	.word	0x000095f3
     424:	00009607 	.word	0x00009607
     428:	000091a0 	.word	0x000091a0
     42c:	00009589 	.word	0x00009589
     430:	000095ca 	.word	0x000095ca
     434:	000095eb 	.word	0x000095eb
     438:	00009188 	.word	0x00009188

0000043c <__ta_entry>:
__ta_entry():
/home/aom1/Work/Linux/target/STM32MP1-DK2/bootloader/optee-os-custom/build/export-ta_arm32/src/ta_entry_a32.S:20
     43c:	fa0023a3 	blx	92d0 <__ta_entry_c>

00000440 <memcpy>:
memcpy():
/home/aom1/Work/Linux/target/STM32MP1-DK2/bootloader/optee-os-custom/lib/libutils/isoc/newlib/memcpy.c:106
     440:	2a0f      	cmp	r2, #15
     442:	d956      	bls.n	4f2 <memcpy+0xb2>
/home/aom1/Work/Linux/target/STM32MP1-DK2/bootloader/optee-os-custom/lib/libutils/isoc/newlib/memcpy.c:106 (discriminator 1)
     444:	ea40 0301 	orr.w	r3, r0, r1
     448:	079b      	lsls	r3, r3, #30
     44a:	d161      	bne.n	510 <memcpy+0xd0>
     44c:	f1a2 0310 	sub.w	r3, r2, #16
     450:	f101 0c20 	add.w	ip, r1, #32
/home/aom1/Work/Linux/target/STM32MP1-DK2/bootloader/optee-os-custom/lib/libutils/isoc/newlib/memcpy.c:87
     454:	b570      	push	{r4, r5, r6, lr}
     456:	f101 0410 	add.w	r4, r1, #16
     45a:	f023 060f 	bic.w	r6, r3, #15
     45e:	f100 0510 	add.w	r5, r0, #16
     462:	44b4      	add	ip, r6
     464:	ea4f 1e13 	mov.w	lr, r3, lsr #4
/home/aom1/Work/Linux/target/STM32MP1-DK2/bootloader/optee-os-custom/lib/libutils/isoc/newlib/memcpy.c:112
     468:	f854 3c10 	ldr.w	r3, [r4, #-16]
/home/aom1/Work/Linux/target/STM32MP1-DK2/bootloader/optee-os-custom/lib/libutils/isoc/newlib/memcpy.c:111
     46c:	3410      	adds	r4, #16
     46e:	4564      	cmp	r4, ip
     470:	f105 0510 	add.w	r5, r5, #16
/home/aom1/Work/Linux/target/STM32MP1-DK2/bootloader/optee-os-custom/lib/libutils/isoc/newlib/memcpy.c:112
     474:	f845 3c20 	str.w	r3, [r5, #-32]
/home/aom1/Work/Linux/target/STM32MP1-DK2/bootloader/optee-os-custom/lib/libutils/isoc/newlib/memcpy.c:113
     478:	f854 3c1c 	ldr.w	r3, [r4, #-28]
     47c:	f845 3c1c 	str.w	r3, [r5, #-28]
/home/aom1/Work/Linux/target/STM32MP1-DK2/bootloader/optee-os-custom/lib/libutils/isoc/newlib/memcpy.c:114
     480:	f854 3c18 	ldr.w	r3, [r4, #-24]
     484:	f845 3c18 	str.w	r3, [r5, #-24]
/home/aom1/Work/Linux/target/STM32MP1-DK2/bootloader/optee-os-custom/lib/libutils/isoc/newlib/memcpy.c:115
     488:	f854 3c14 	ldr.w	r3, [r4, #-20]
     48c:	f845 3c14 	str.w	r3, [r5, #-20]
/home/aom1/Work/Linux/target/STM32MP1-DK2/bootloader/optee-os-custom/lib/libutils/isoc/newlib/memcpy.c:111
     490:	d1ea      	bne.n	468 <memcpy+0x28>
     492:	f10e 0301 	add.w	r3, lr, #1
/home/aom1/Work/Linux/target/STM32MP1-DK2/bootloader/optee-os-custom/lib/libutils/isoc/newlib/memcpy.c:120
     496:	f012 0f0c 	tst.w	r2, #12
/home/aom1/Work/Linux/target/STM32MP1-DK2/bootloader/optee-os-custom/lib/libutils/isoc/newlib/memcpy.c:116
     49a:	f002 040f 	and.w	r4, r2, #15
     49e:	ea4f 1303 	mov.w	r3, r3, lsl #4
/home/aom1/Work/Linux/target/STM32MP1-DK2/bootloader/optee-os-custom/lib/libutils/isoc/newlib/memcpy.c:120
     4a2:	bf08      	it	eq
     4a4:	4622      	moveq	r2, r4
/home/aom1/Work/Linux/target/STM32MP1-DK2/bootloader/optee-os-custom/lib/libutils/isoc/newlib/memcpy.c:115
     4a6:	4419      	add	r1, r3
     4a8:	4403      	add	r3, r0
/home/aom1/Work/Linux/target/STM32MP1-DK2/bootloader/optee-os-custom/lib/libutils/isoc/newlib/memcpy.c:120
     4aa:	d014      	beq.n	4d6 <memcpy+0x96>
     4ac:	f1a3 0e04 	sub.w	lr, r3, #4
/home/aom1/Work/Linux/target/STM32MP1-DK2/bootloader/optee-os-custom/lib/libutils/isoc/newlib/memcpy.c:115
     4b0:	460d      	mov	r5, r1
/home/aom1/Work/Linux/target/STM32MP1-DK2/bootloader/optee-os-custom/lib/libutils/isoc/newlib/memcpy.c:121
     4b2:	f855 6b04 	ldr.w	r6, [r5], #4
     4b6:	eba4 0c05 	sub.w	ip, r4, r5
/home/aom1/Work/Linux/target/STM32MP1-DK2/bootloader/optee-os-custom/lib/libutils/isoc/newlib/memcpy.c:120
     4ba:	448c      	add	ip, r1
/home/aom1/Work/Linux/target/STM32MP1-DK2/bootloader/optee-os-custom/lib/libutils/isoc/newlib/memcpy.c:121
     4bc:	f84e 6f04 	str.w	r6, [lr, #4]!
/home/aom1/Work/Linux/target/STM32MP1-DK2/bootloader/optee-os-custom/lib/libutils/isoc/newlib/memcpy.c:120
     4c0:	f1bc 0f03 	cmp.w	ip, #3
     4c4:	d8f5      	bhi.n	4b2 <memcpy+0x72>
     4c6:	3c04      	subs	r4, #4
/home/aom1/Work/Linux/target/STM32MP1-DK2/bootloader/optee-os-custom/lib/libutils/isoc/newlib/memcpy.c:122
     4c8:	f002 0203 	and.w	r2, r2, #3
     4cc:	f024 0403 	bic.w	r4, r4, #3
     4d0:	3404      	adds	r4, #4
/home/aom1/Work/Linux/target/STM32MP1-DK2/bootloader/optee-os-custom/lib/libutils/isoc/newlib/memcpy.c:121
     4d2:	4423      	add	r3, r4
     4d4:	4421      	add	r1, r4
/home/aom1/Work/Linux/target/STM32MP1-DK2/bootloader/optee-os-custom/lib/libutils/isoc/newlib/memcpy.c:130
     4d6:	f102 3cff 	add.w	ip, r2, #4294967295	; 0xffffffff
     4da:	3b01      	subs	r3, #1
     4dc:	f10c 0c01 	add.w	ip, ip, #1
     4e0:	448c      	add	ip, r1
     4e2:	b12a      	cbz	r2, 4f0 <memcpy+0xb0>
/home/aom1/Work/Linux/target/STM32MP1-DK2/bootloader/optee-os-custom/lib/libutils/isoc/newlib/memcpy.c:131
     4e4:	f811 2b01 	ldrb.w	r2, [r1], #1
/home/aom1/Work/Linux/target/STM32MP1-DK2/bootloader/optee-os-custom/lib/libutils/isoc/newlib/memcpy.c:130
     4e8:	4561      	cmp	r1, ip
/home/aom1/Work/Linux/target/STM32MP1-DK2/bootloader/optee-os-custom/lib/libutils/isoc/newlib/memcpy.c:131
     4ea:	f803 2f01 	strb.w	r2, [r3, #1]!
/home/aom1/Work/Linux/target/STM32MP1-DK2/bootloader/optee-os-custom/lib/libutils/isoc/newlib/memcpy.c:130
     4ee:	d1f9      	bne.n	4e4 <memcpy+0xa4>
/home/aom1/Work/Linux/target/STM32MP1-DK2/bootloader/optee-os-custom/lib/libutils/isoc/newlib/memcpy.c:135
     4f0:	bd70      	pop	{r4, r5, r6, pc}
/home/aom1/Work/Linux/target/STM32MP1-DK2/bootloader/optee-os-custom/lib/libutils/isoc/newlib/memcpy.c:99
     4f2:	4603      	mov	r3, r0
/home/aom1/Work/Linux/target/STM32MP1-DK2/bootloader/optee-os-custom/lib/libutils/isoc/newlib/memcpy.c:130
     4f4:	f102 3cff 	add.w	ip, r2, #4294967295	; 0xffffffff
     4f8:	b14a      	cbz	r2, 50e <memcpy+0xce>
     4fa:	f10c 0c01 	add.w	ip, ip, #1
     4fe:	3b01      	subs	r3, #1
     500:	448c      	add	ip, r1
/home/aom1/Work/Linux/target/STM32MP1-DK2/bootloader/optee-os-custom/lib/libutils/isoc/newlib/memcpy.c:131
     502:	f811 2b01 	ldrb.w	r2, [r1], #1
/home/aom1/Work/Linux/target/STM32MP1-DK2/bootloader/optee-os-custom/lib/libutils/isoc/newlib/memcpy.c:130
     506:	4561      	cmp	r1, ip
/home/aom1/Work/Linux/target/STM32MP1-DK2/bootloader/optee-os-custom/lib/libutils/isoc/newlib/memcpy.c:131
     508:	f803 2f01 	strb.w	r2, [r3, #1]!
/home/aom1/Work/Linux/target/STM32MP1-DK2/bootloader/optee-os-custom/lib/libutils/isoc/newlib/memcpy.c:130
     50c:	d1f9      	bne.n	502 <memcpy+0xc2>
/home/aom1/Work/Linux/target/STM32MP1-DK2/bootloader/optee-os-custom/lib/libutils/isoc/newlib/memcpy.c:135
     50e:	4770      	bx	lr
/home/aom1/Work/Linux/target/STM32MP1-DK2/bootloader/optee-os-custom/lib/libutils/isoc/newlib/memcpy.c:130
     510:	f102 3cff 	add.w	ip, r2, #4294967295	; 0xffffffff
/home/aom1/Work/Linux/target/STM32MP1-DK2/bootloader/optee-os-custom/lib/libutils/isoc/newlib/memcpy.c:99
     514:	4603      	mov	r3, r0
     516:	e7f0      	b.n	4fa <memcpy+0xba>

00000518 <trace_set_level>:
trace_set_level():
/home/aom1/Work/Linux/target/STM32MP1-DK2/bootloader/optee-os-custom/lib/libutils/ext/trace.c:24
     518:	4b04      	ldr	r3, [pc, #16]	; (52c <trace_set_level+0x14>)
/home/aom1/Work/Linux/target/STM32MP1-DK2/bootloader/optee-os-custom/lib/libutils/ext/trace.c:28
     51a:	2805      	cmp	r0, #5
     51c:	4a04      	ldr	r2, [pc, #16]	; (530 <trace_set_level+0x18>)
     51e:	bf28      	it	cs
     520:	2004      	movcs	r0, #4
/home/aom1/Work/Linux/target/STM32MP1-DK2/bootloader/optee-os-custom/lib/libutils/ext/trace.c:24
     522:	447b      	add	r3, pc
     524:	589b      	ldr	r3, [r3, r2]
     526:	6018      	str	r0, [r3, #0]
/home/aom1/Work/Linux/target/STM32MP1-DK2/bootloader/optee-os-custom/lib/libutils/ext/trace.c:29
     528:	4770      	bx	lr
     52a:	bf00      	nop
     52c:	0000ab62 	.word	0x0000ab62
     530:	00000014 	.word	0x00000014

00000534 <trace_get_level>:
trace_get_level():
/home/aom1/Work/Linux/target/STM32MP1-DK2/bootloader/optee-os-custom/lib/libutils/ext/trace.c:32
     534:	4b02      	ldr	r3, [pc, #8]	; (540 <trace_get_level+0xc>)
/home/aom1/Work/Linux/target/STM32MP1-DK2/bootloader/optee-os-custom/lib/libutils/ext/trace.c:33
     536:	4a03      	ldr	r2, [pc, #12]	; (544 <trace_get_level+0x10>)
/home/aom1/Work/Linux/target/STM32MP1-DK2/bootloader/optee-os-custom/lib/libutils/ext/trace.c:32
     538:	447b      	add	r3, pc
/home/aom1/Work/Linux/target/STM32MP1-DK2/bootloader/optee-os-custom/lib/libutils/ext/trace.c:33
     53a:	589b      	ldr	r3, [r3, r2]
/home/aom1/Work/Linux/target/STM32MP1-DK2/bootloader/optee-os-custom/lib/libutils/ext/trace.c:34
     53c:	6818      	ldr	r0, [r3, #0]
     53e:	4770      	bx	lr
     540:	0000ab4c 	.word	0x0000ab4c
     544:	00000014 	.word	0x00000014

00000548 <trace_vprintf>:
trace_vprintf():
/home/aom1/Work/Linux/target/STM32MP1-DK2/bootloader/optee-os-custom/lib/libutils/ext/trace.c:113
     548:	e92d 47f0 	stmdb	sp!, {r4, r5, r6, r7, r8, r9, sl, lr}
     54c:	4607      	mov	r7, r0
     54e:	4e42      	ldr	r6, [pc, #264]	; (658 <trace_vprintf+0x110>)
     550:	b0c2      	sub	sp, #264	; 0x108
     552:	4688      	mov	r8, r1
     554:	4614      	mov	r4, r2
     556:	447e      	add	r6, pc
/home/aom1/Work/Linux/target/STM32MP1-DK2/bootloader/optee-os-custom/lib/libutils/ext/trace.c:118
     558:	469a      	mov	sl, r3
     55a:	2b00      	cmp	r3, #0
     55c:	d068      	beq.n	630 <trace_vprintf+0xe8>
/home/aom1/Work/Linux/target/STM32MP1-DK2/bootloader/optee-os-custom/lib/libutils/ext/trace.c:118 (discriminator 1)
     55e:	4b3f      	ldr	r3, [pc, #252]	; (65c <trace_vprintf+0x114>)
     560:	58f3      	ldr	r3, [r6, r3]
     562:	681b      	ldr	r3, [r3, #0]
     564:	4293      	cmp	r3, r2
     566:	db60      	blt.n	62a <trace_vprintf+0xe2>
trace_level_to_string():
/home/aom1/Work/Linux/target/STM32MP1-DK2/bootloader/optee-os-custom/lib/libutils/ext/trace.c:51
     568:	2a04      	cmp	r2, #4
     56a:	bf94      	ite	ls
     56c:	4613      	movls	r3, r2
     56e:	2300      	movhi	r3, #0
/home/aom1/Work/Linux/target/STM32MP1-DK2/bootloader/optee-os-custom/lib/libutils/ext/trace.c:54
     570:	4a3b      	ldr	r2, [pc, #236]	; (660 <trace_vprintf+0x118>)
     572:	447a      	add	r2, pc
     574:	5cd3      	ldrb	r3, [r2, r3]
trace_vprintf():
/home/aom1/Work/Linux/target/STM32MP1-DK2/bootloader/optee-os-custom/lib/libutils/ext/trace.c:122
     576:	4a3b      	ldr	r2, [pc, #236]	; (664 <trace_vprintf+0x11c>)
     578:	ad02      	add	r5, sp, #8
     57a:	f44f 7180 	mov.w	r1, #256	; 0x100
     57e:	4628      	mov	r0, r5
     580:	447a      	add	r2, pc
     582:	f000 f8aa 	bl	6da <snprintk>
/home/aom1/Work/Linux/target/STM32MP1-DK2/bootloader/optee-os-custom/lib/libutils/ext/trace.c:124
     586:	f1b0 0900 	subs.w	r9, r0, #0
     58a:	db4e      	blt.n	62a <trace_vprintf+0xe2>
/home/aom1/Work/Linux/target/STM32MP1-DK2/bootloader/optee-os-custom/lib/libutils/ext/trace.c:129
     58c:	4b36      	ldr	r3, [pc, #216]	; (668 <trace_vprintf+0x120>)
     58e:	f5c9 7180 	rsb	r1, r9, #256	; 0x100
     592:	4a36      	ldr	r2, [pc, #216]	; (66c <trace_vprintf+0x124>)
     594:	58f3      	ldr	r3, [r6, r3]
     596:	447a      	add	r2, pc
     598:	eb05 0009 	add.w	r0, r5, r9
     59c:	f000 f89d 	bl	6da <snprintk>
/home/aom1/Work/Linux/target/STM32MP1-DK2/bootloader/optee-os-custom/lib/libutils/ext/trace.c:131
     5a0:	2800      	cmp	r0, #0
     5a2:	db42      	blt.n	62a <trace_vprintf+0xe2>
/home/aom1/Work/Linux/target/STM32MP1-DK2/bootloader/optee-os-custom/lib/libutils/ext/trace.c:133
     5a4:	eb00 0609 	add.w	r6, r0, r9
/home/aom1/Work/Linux/target/STM32MP1-DK2/bootloader/optee-os-custom/lib/libutils/ext/trace.c:135
     5a8:	f1ba 0f00 	cmp.w	sl, #0
     5ac:	d049      	beq.n	642 <trace_vprintf+0xfa>
/home/aom1/Work/Linux/target/STM32MP1-DK2/bootloader/optee-os-custom/lib/libutils/ext/trace.c:135 (discriminator 1)
     5ae:	231a      	movs	r3, #26
     5b0:	40e3      	lsrs	r3, r4
     5b2:	07db      	lsls	r3, r3, #31
     5b4:	d545      	bpl.n	642 <trace_vprintf+0xfa>
/home/aom1/Work/Linux/target/STM32MP1-DK2/bootloader/optee-os-custom/lib/libutils/ext/trace.c:137
     5b6:	19ac      	adds	r4, r5, r6
print_thread_id():
/home/aom1/Work/Linux/target/STM32MP1-DK2/bootloader/optee-os-custom/lib/libutils/ext/trace.c:66
     5b8:	f000 fc28 	bl	e0c <trace_ext_get_thread_id>
/home/aom1/Work/Linux/target/STM32MP1-DK2/bootloader/optee-os-custom/lib/libutils/ext/trace.c:68
     5bc:	2800      	cmp	r0, #0
trace_vprintf():
/home/aom1/Work/Linux/target/STM32MP1-DK2/bootloader/optee-os-custom/lib/libutils/ext/trace.c:137
     5be:	f5c6 7980 	rsb	r9, r6, #256	; 0x100
print_thread_id():
/home/aom1/Work/Linux/target/STM32MP1-DK2/bootloader/optee-os-custom/lib/libutils/ext/trace.c:68
     5c2:	db37      	blt.n	634 <trace_vprintf+0xec>
/home/aom1/Work/Linux/target/STM32MP1-DK2/bootloader/optee-os-custom/lib/libutils/ext/trace.c:69
     5c4:	4a2a      	ldr	r2, [pc, #168]	; (670 <trace_vprintf+0x128>)
     5c6:	2301      	movs	r3, #1
     5c8:	9000      	str	r0, [sp, #0]
     5ca:	447a      	add	r2, pc
/home/aom1/Work/Linux/target/STM32MP1-DK2/bootloader/optee-os-custom/lib/libutils/ext/trace.c:71
     5cc:	4649      	mov	r1, r9
     5ce:	4620      	mov	r0, r4
     5d0:	f000 f883 	bl	6da <snprintk>
trace_vprintf():
/home/aom1/Work/Linux/target/STM32MP1-DK2/bootloader/optee-os-custom/lib/libutils/ext/trace.c:144
     5d4:	2800      	cmp	r0, #0
     5d6:	db28      	blt.n	62a <trace_vprintf+0xe2>
/home/aom1/Work/Linux/target/STM32MP1-DK2/bootloader/optee-os-custom/lib/libutils/ext/trace.c:146
     5d8:	1984      	adds	r4, r0, r6
/home/aom1/Work/Linux/target/STM32MP1-DK2/bootloader/optee-os-custom/lib/libutils/ext/trace.c:148
     5da:	b167      	cbz	r7, 5f6 <trace_vprintf+0xae>
/home/aom1/Work/Linux/target/STM32MP1-DK2/bootloader/optee-os-custom/lib/libutils/ext/trace.c:149
     5dc:	4a25      	ldr	r2, [pc, #148]	; (674 <trace_vprintf+0x12c>)
     5de:	463b      	mov	r3, r7
     5e0:	1928      	adds	r0, r5, r4
     5e2:	f5c4 7180 	rsb	r1, r4, #256	; 0x100
     5e6:	447a      	add	r2, pc
     5e8:	f8cd 8000 	str.w	r8, [sp]
     5ec:	f000 f875 	bl	6da <snprintk>
/home/aom1/Work/Linux/target/STM32MP1-DK2/bootloader/optee-os-custom/lib/libutils/ext/trace.c:151
     5f0:	2800      	cmp	r0, #0
     5f2:	db1a      	blt.n	62a <trace_vprintf+0xe2>
/home/aom1/Work/Linux/target/STM32MP1-DK2/bootloader/optee-os-custom/lib/libutils/ext/trace.c:153
     5f4:	4404      	add	r4, r0
/home/aom1/Work/Linux/target/STM32MP1-DK2/bootloader/optee-os-custom/lib/libutils/ext/trace.c:163
     5f6:	1928      	adds	r0, r5, r4
     5f8:	f5c4 7180 	rsb	r1, r4, #256	; 0x100
     5fc:	e9dd 234a 	ldrd	r2, r3, [sp, #296]	; 0x128
     600:	f000 f864 	bl	6cc <vsnprintk>
/home/aom1/Work/Linux/target/STM32MP1-DK2/bootloader/optee-os-custom/lib/libutils/ext/trace.c:164
     604:	2800      	cmp	r0, #0
/home/aom1/Work/Linux/target/STM32MP1-DK2/bootloader/optee-os-custom/lib/libutils/ext/trace.c:170
     606:	f04f 030a 	mov.w	r3, #10
/home/aom1/Work/Linux/target/STM32MP1-DK2/bootloader/optee-os-custom/lib/libutils/ext/trace.c:165
     60a:	bfc8      	it	gt
     60c:	1824      	addgt	r4, r4, r0
/home/aom1/Work/Linux/target/STM32MP1-DK2/bootloader/optee-os-custom/lib/libutils/ext/trace.c:167
     60e:	2cfe      	cmp	r4, #254	; 0xfe
     610:	bf28      	it	cs
     612:	24fe      	movcs	r4, #254	; 0xfe
/home/aom1/Work/Linux/target/STM32MP1-DK2/bootloader/optee-os-custom/lib/libutils/ext/trace.c:170
     614:	552b      	strb	r3, [r5, r4]
/home/aom1/Work/Linux/target/STM32MP1-DK2/bootloader/optee-os-custom/lib/libutils/ext/trace.c:171
     616:	b114      	cbz	r4, 61e <trace_vprintf+0xd6>
/home/aom1/Work/Linux/target/STM32MP1-DK2/bootloader/optee-os-custom/lib/libutils/ext/trace.c:171 (discriminator 1)
     618:	5d2b      	ldrb	r3, [r5, r4]
     61a:	2b0a      	cmp	r3, #10
     61c:	d019      	beq.n	652 <trace_vprintf+0x10a>
/home/aom1/Work/Linux/target/STM32MP1-DK2/bootloader/optee-os-custom/lib/libutils/ext/trace.c:174
     61e:	442c      	add	r4, r5
     620:	2300      	movs	r3, #0
/home/aom1/Work/Linux/target/STM32MP1-DK2/bootloader/optee-os-custom/lib/libutils/ext/trace.c:176
     622:	4628      	mov	r0, r5
/home/aom1/Work/Linux/target/STM32MP1-DK2/bootloader/optee-os-custom/lib/libutils/ext/trace.c:174
     624:	70a3      	strb	r3, [r4, #2]
/home/aom1/Work/Linux/target/STM32MP1-DK2/bootloader/optee-os-custom/lib/libutils/ext/trace.c:176
     626:	f000 fbe7 	bl	df8 <trace_ext_puts>
/home/aom1/Work/Linux/target/STM32MP1-DK2/bootloader/optee-os-custom/lib/libutils/ext/trace.c:177
     62a:	b042      	add	sp, #264	; 0x108
     62c:	e8bd 87f0 	ldmia.w	sp!, {r4, r5, r6, r7, r8, r9, sl, pc}
trace_level_to_string():
/home/aom1/Work/Linux/target/STM32MP1-DK2/bootloader/optee-os-custom/lib/libutils/ext/trace.c:49
     630:	234d      	movs	r3, #77	; 0x4d
     632:	e7a0      	b.n	576 <trace_vprintf+0x2e>
print_thread_id():
/home/aom1/Work/Linux/target/STM32MP1-DK2/bootloader/optee-os-custom/lib/libutils/ext/trace.c:71
     634:	4b10      	ldr	r3, [pc, #64]	; (678 <trace_vprintf+0x130>)
     636:	4a11      	ldr	r2, [pc, #68]	; (67c <trace_vprintf+0x134>)
     638:	447b      	add	r3, pc
     63a:	9300      	str	r3, [sp, #0]
     63c:	2301      	movs	r3, #1
     63e:	447a      	add	r2, pc
     640:	e7c4      	b.n	5cc <trace_vprintf+0x84>
trace_vprintf():
/home/aom1/Work/Linux/target/STM32MP1-DK2/bootloader/optee-os-custom/lib/libutils/ext/trace.c:157
     642:	2efe      	cmp	r6, #254	; 0xfe
     644:	d8f1      	bhi.n	62a <trace_vprintf+0xe2>
/home/aom1/Work/Linux/target/STM32MP1-DK2/bootloader/optee-os-custom/lib/libutils/ext/trace.c:159
     646:	2320      	movs	r3, #32
     648:	1c74      	adds	r4, r6, #1
     64a:	55ab      	strb	r3, [r5, r6]
/home/aom1/Work/Linux/target/STM32MP1-DK2/bootloader/optee-os-custom/lib/libutils/ext/trace.c:160
     64c:	2300      	movs	r3, #0
     64e:	552b      	strb	r3, [r5, r4]
     650:	e7d1      	b.n	5f6 <trace_vprintf+0xae>
/home/aom1/Work/Linux/target/STM32MP1-DK2/bootloader/optee-os-custom/lib/libutils/ext/trace.c:172
     652:	3c01      	subs	r4, #1
     654:	e7df      	b.n	616 <trace_vprintf+0xce>
     656:	bf00      	nop
     658:	0000ab2e 	.word	0x0000ab2e
     65c:	00000014 	.word	0x00000014
     660:	0000954f 	.word	0x0000954f
     664:	00009527 	.word	0x00009527
     668:	0000001c 	.word	0x0000001c
     66c:	00009515 	.word	0x00009515
     670:	000094e5 	.word	0x000094e5
     674:	000094d4 	.word	0x000094d4
     678:	00009d8d 	.word	0x00009d8d
     67c:	00009477 	.word	0x00009477

00000680 <trace_printf>:
trace_printf():
/home/aom1/Work/Linux/target/STM32MP1-DK2/bootloader/optee-os-custom/lib/libutils/ext/trace.c:104
     680:	b530      	push	{r4, r5, lr}
     682:	b085      	sub	sp, #20
     684:	ac08      	add	r4, sp, #32
     686:	f854 5b04 	ldr.w	r5, [r4], #4
/home/aom1/Work/Linux/target/STM32MP1-DK2/bootloader/optee-os-custom/lib/libutils/ext/trace.c:108
     68a:	9401      	str	r4, [sp, #4]
     68c:	9500      	str	r5, [sp, #0]
/home/aom1/Work/Linux/target/STM32MP1-DK2/bootloader/optee-os-custom/lib/libutils/ext/trace.c:107
     68e:	9403      	str	r4, [sp, #12]
/home/aom1/Work/Linux/target/STM32MP1-DK2/bootloader/optee-os-custom/lib/libutils/ext/trace.c:108
     690:	f7ff ff5a 	bl	548 <trace_vprintf>
/home/aom1/Work/Linux/target/STM32MP1-DK2/bootloader/optee-os-custom/lib/libutils/ext/trace.c:110
     694:	b005      	add	sp, #20
     696:	bd30      	pop	{r4, r5, pc}

00000698 <dhex_dump>:
dhex_dump():
/home/aom1/Work/Linux/target/STM32MP1-DK2/bootloader/optee-os-custom/lib/libutils/ext/trace.c:287
     698:	4770      	bx	lr
     69a:	bf00      	nop

0000069c <__vsnprintf>:
__vsnprintf():
/home/aom1/Work/Linux/target/STM32MP1-DK2/bootloader/optee-os-custom/lib/libutils/ext/snprintk.c:138
     69c:	b57f      	push	{r0, r1, r2, r3, r4, r5, r6, lr}
     69e:	4604      	mov	r4, r0
/home/aom1/Work/Linux/target/STM32MP1-DK2/bootloader/optee-os-custom/lib/libutils/ext/snprintk.c:142
     6a0:	1866      	adds	r6, r4, r1
/home/aom1/Work/Linux/target/STM32MP1-DK2/bootloader/optee-os-custom/lib/libutils/ext/snprintk.c:138
     6a2:	4610      	mov	r0, r2
/home/aom1/Work/Linux/target/STM32MP1-DK2/bootloader/optee-os-custom/lib/libutils/ext/snprintk.c:143
     6a4:	f89d 2020 	ldrb.w	r2, [sp, #32]
/home/aom1/Work/Linux/target/STM32MP1-DK2/bootloader/optee-os-custom/lib/libutils/ext/snprintk.c:138
     6a8:	460d      	mov	r5, r1
/home/aom1/Work/Linux/target/STM32MP1-DK2/bootloader/optee-os-custom/lib/libutils/ext/snprintk.c:142
     6aa:	9603      	str	r6, [sp, #12]
/home/aom1/Work/Linux/target/STM32MP1-DK2/bootloader/optee-os-custom/lib/libutils/ext/snprintk.c:143
     6ac:	a903      	add	r1, sp, #12
     6ae:	9200      	str	r2, [sp, #0]
     6b0:	4622      	mov	r2, r4
     6b2:	f000 f81f 	bl	6f4 <kprintf.constprop.0>
/home/aom1/Work/Linux/target/STM32MP1-DK2/bootloader/optee-os-custom/lib/libutils/ext/snprintk.c:144
     6b6:	b13c      	cbz	r4, 6c8 <__vsnprintf+0x2c>
/home/aom1/Work/Linux/target/STM32MP1-DK2/bootloader/optee-os-custom/lib/libutils/ext/snprintk.c:144 (discriminator 1)
     6b8:	b135      	cbz	r5, 6c8 <__vsnprintf+0x2c>
/home/aom1/Work/Linux/target/STM32MP1-DK2/bootloader/optee-os-custom/lib/libutils/ext/snprintk.c:146
     6ba:	42a8      	cmp	r0, r5
     6bc:	f04f 0300 	mov.w	r3, #0
/home/aom1/Work/Linux/target/STM32MP1-DK2/bootloader/optee-os-custom/lib/libutils/ext/snprintk.c:147
     6c0:	bf2c      	ite	cs
     6c2:	f806 3c01 	strbcs.w	r3, [r6, #-1]
/home/aom1/Work/Linux/target/STM32MP1-DK2/bootloader/optee-os-custom/lib/libutils/ext/snprintk.c:149
     6c6:	5423      	strbcc	r3, [r4, r0]
/home/aom1/Work/Linux/target/STM32MP1-DK2/bootloader/optee-os-custom/lib/libutils/ext/snprintk.c:152
     6c8:	b004      	add	sp, #16
     6ca:	bd70      	pop	{r4, r5, r6, pc}

000006cc <vsnprintk>:
vsnprintk():
/home/aom1/Work/Linux/target/STM32MP1-DK2/bootloader/optee-os-custom/lib/libutils/ext/snprintk.c:130
     6cc:	b513      	push	{r0, r1, r4, lr}
/home/aom1/Work/Linux/target/STM32MP1-DK2/bootloader/optee-os-custom/lib/libutils/ext/snprintk.c:131
     6ce:	2401      	movs	r4, #1
     6d0:	9400      	str	r4, [sp, #0]
     6d2:	f7ff ffe3 	bl	69c <__vsnprintf>
/home/aom1/Work/Linux/target/STM32MP1-DK2/bootloader/optee-os-custom/lib/libutils/ext/snprintk.c:132
     6d6:	b002      	add	sp, #8
     6d8:	bd10      	pop	{r4, pc}

000006da <snprintk>:
snprintk():
/home/aom1/Work/Linux/target/STM32MP1-DK2/bootloader/optee-os-custom/lib/libutils/ext/snprintk.c:113
     6da:	b40c      	push	{r2, r3}
     6dc:	b507      	push	{r0, r1, r2, lr}
     6de:	ab04      	add	r3, sp, #16
     6e0:	f853 2b04 	ldr.w	r2, [r3], #4
/home/aom1/Work/Linux/target/STM32MP1-DK2/bootloader/optee-os-custom/lib/libutils/ext/snprintk.c:117
     6e4:	9301      	str	r3, [sp, #4]
/home/aom1/Work/Linux/target/STM32MP1-DK2/bootloader/optee-os-custom/lib/libutils/ext/snprintk.c:118
     6e6:	f7ff fff1 	bl	6cc <vsnprintk>
/home/aom1/Work/Linux/target/STM32MP1-DK2/bootloader/optee-os-custom/lib/libutils/ext/snprintk.c:122
     6ea:	b003      	add	sp, #12
     6ec:	f85d eb04 	ldr.w	lr, [sp], #4
     6f0:	b002      	add	sp, #8
     6f2:	4770      	bx	lr

000006f4 <kprintf.constprop.0>:
kprintf():
/home/aom1/Work/Linux/target/STM32MP1-DK2/bootloader/optee-os-custom/lib/libutils/ext/snprintk.c:242
     6f4:	e92d 4ff0 	stmdb	sp!, {r4, r5, r6, r7, r8, r9, sl, fp, lr}
     6f8:	b09d      	sub	sp, #116	; 0x74
     6fa:	4616      	mov	r6, r2
     6fc:	4607      	mov	r7, r0
     6fe:	f89d 2098 	ldrb.w	r2, [sp, #152]	; 0x98
     702:	461d      	mov	r5, r3
/home/aom1/Work/Linux/target/STM32MP1-DK2/bootloader/optee-os-custom/lib/libutils/ext/snprintk.c:264
     704:	910c      	str	r1, [sp, #48]	; 0x30
/home/aom1/Work/Linux/target/STM32MP1-DK2/bootloader/optee-os-custom/lib/libutils/ext/snprintk.c:242
     706:	9211      	str	r2, [sp, #68]	; 0x44
/home/aom1/Work/Linux/target/STM32MP1-DK2/bootloader/optee-os-custom/lib/libutils/ext/snprintk.c:264
     708:	b179      	cbz	r1, 72a <kprintf.constprop.0+0x36>
/home/aom1/Work/Linux/target/STM32MP1-DK2/bootloader/optee-os-custom/lib/libutils/ext/snprintk.c:265
     70a:	680b      	ldr	r3, [r1, #0]
/home/aom1/Work/Linux/target/STM32MP1-DK2/bootloader/optee-os-custom/lib/libutils/ext/snprintk.c:267
     70c:	930e      	str	r3, [sp, #56]	; 0x38
/home/aom1/Work/Linux/target/STM32MP1-DK2/bootloader/optee-os-custom/lib/libutils/ext/snprintk.c:275
     70e:	2300      	movs	r3, #0
     710:	930f      	str	r3, [sp, #60]	; 0x3c
/home/aom1/Work/Linux/target/STM32MP1-DK2/bootloader/optee-os-custom/lib/libutils/ext/snprintk.c:273
     712:	930b      	str	r3, [sp, #44]	; 0x2c
/home/aom1/Work/Linux/target/STM32MP1-DK2/bootloader/optee-os-custom/lib/libutils/ext/snprintk.c:281
     714:	783b      	ldrb	r3, [r7, #0]
     716:	2b25      	cmp	r3, #37	; 0x25
     718:	d016      	beq.n	748 <kprintf.constprop.0+0x54>
     71a:	b943      	cbnz	r3, 72e <kprintf.constprop.0+0x3a>
/home/aom1/Work/Linux/target/STM32MP1-DK2/bootloader/optee-os-custom/lib/libutils/ext/snprintk.c:619
     71c:	9b0c      	ldr	r3, [sp, #48]	; 0x30
     71e:	b103      	cbz	r3, 722 <kprintf.constprop.0+0x2e>
/home/aom1/Work/Linux/target/STM32MP1-DK2/bootloader/optee-os-custom/lib/libutils/ext/snprintk.c:620
     720:	601e      	str	r6, [r3, #0]
/home/aom1/Work/Linux/target/STM32MP1-DK2/bootloader/optee-os-custom/lib/libutils/ext/snprintk.c:622
     722:	980b      	ldr	r0, [sp, #44]	; 0x2c
     724:	b01d      	add	sp, #116	; 0x74
     726:	e8bd 8ff0 	ldmia.w	sp!, {r4, r5, r6, r7, r8, r9, sl, fp, pc}
/home/aom1/Work/Linux/target/STM32MP1-DK2/bootloader/optee-os-custom/lib/libutils/ext/snprintk.c:267
     72a:	9b0c      	ldr	r3, [sp, #48]	; 0x30
     72c:	e7ee      	b.n	70c <kprintf.constprop.0+0x18>
/home/aom1/Work/Linux/target/STM32MP1-DK2/bootloader/optee-os-custom/lib/libutils/ext/snprintk.c:282
     72e:	9a0b      	ldr	r2, [sp, #44]	; 0x2c
     730:	3201      	adds	r2, #1
     732:	920b      	str	r2, [sp, #44]	; 0x2c
/home/aom1/Work/Linux/target/STM32MP1-DK2/bootloader/optee-os-custom/lib/libutils/ext/snprintk.c:283
     734:	b136      	cbz	r6, 744 <kprintf.constprop.0+0x50>
     736:	9a0c      	ldr	r2, [sp, #48]	; 0x30
     738:	b112      	cbz	r2, 740 <kprintf.constprop.0+0x4c>
     73a:	9a0e      	ldr	r2, [sp, #56]	; 0x38
     73c:	4296      	cmp	r6, r2
     73e:	d201      	bcs.n	744 <kprintf.constprop.0+0x50>
     740:	f806 3b01 	strb.w	r3, [r6], #1
/home/aom1/Work/Linux/target/STM32MP1-DK2/bootloader/optee-os-custom/lib/libutils/ext/snprintk.c:281
     744:	3701      	adds	r7, #1
     746:	e7e5      	b.n	714 <kprintf.constprop.0+0x20>
/home/aom1/Work/Linux/target/STM32MP1-DK2/bootloader/optee-os-custom/lib/libutils/ext/snprintk.c:294
     748:	f04f 0800 	mov.w	r8, #0
/home/aom1/Work/Linux/target/STM32MP1-DK2/bootloader/optee-os-custom/lib/libutils/ext/snprintk.c:288
     74c:	3701      	adds	r7, #1
/home/aom1/Work/Linux/target/STM32MP1-DK2/bootloader/optee-os-custom/lib/libutils/ext/snprintk.c:292
     74e:	f8cd 8034 	str.w	r8, [sp, #52]	; 0x34
/home/aom1/Work/Linux/target/STM32MP1-DK2/bootloader/optee-os-custom/lib/libutils/ext/snprintk.c:288
     752:	462b      	mov	r3, r5
/home/aom1/Work/Linux/target/STM32MP1-DK2/bootloader/optee-os-custom/lib/libutils/ext/snprintk.c:293
     754:	f04f 39ff 	mov.w	r9, #4294967295	; 0xffffffff
/home/aom1/Work/Linux/target/STM32MP1-DK2/bootloader/optee-os-custom/lib/libutils/ext/snprintk.c:290
     758:	4644      	mov	r4, r8
/home/aom1/Work/Linux/target/STM32MP1-DK2/bootloader/optee-os-custom/lib/libutils/ext/snprintk.c:296
     75a:	f817 bb01 	ldrb.w	fp, [r7], #1
/home/aom1/Work/Linux/target/STM32MP1-DK2/bootloader/optee-os-custom/lib/libutils/ext/snprintk.c:297
     75e:	f1bb 0f39 	cmp.w	fp, #57	; 0x39
     762:	dc54      	bgt.n	80e <kprintf.constprop.0+0x11a>
     764:	f1bb 0f1f 	cmp.w	fp, #31
     768:	f340 82ad 	ble.w	cc6 <kprintf.constprop.0+0x5d2>
     76c:	f1ab 0220 	sub.w	r2, fp, #32
     770:	2a19      	cmp	r2, #25
     772:	d850      	bhi.n	816 <kprintf.constprop.0+0x122>
     774:	e8df f002 	tbb	[pc, r2]
     778:	594f4f53 	.word	0x594f4f53
     77c:	4f4f4f4f 	.word	0x4f4f4f4f
     780:	0d5c4f4f 	.word	0x0d5c4f4f
     784:	4f66634f 	.word	0x4f66634f
     788:	8080807d 	.word	0x8080807d
     78c:	80808080 	.word	0x80808080
     790:	8080      	.short	0x8080
     792:	f04f 082b 	mov.w	r8, #43	; 0x2b
     796:	e7e0      	b.n	75a <kprintf.constprop.0+0x66>
     798:	2a36      	cmp	r2, #54	; 0x36
     79a:	d83c      	bhi.n	816 <kprintf.constprop.0+0x122>
     79c:	e8df f012 	tbh	[pc, r2, lsl #1]
     7a0:	003b009e 	.word	0x003b009e
     7a4:	003b003b 	.word	0x003b003b
     7a8:	003b003b 	.word	0x003b003b
     7ac:	003b003b 	.word	0x003b003b
     7b0:	003b003b 	.word	0x003b003b
     7b4:	0160003b 	.word	0x0160003b
     7b8:	003b003b 	.word	0x003b003b
     7bc:	003b003b 	.word	0x003b003b
     7c0:	0204003b 	.word	0x0204003b
     7c4:	003b003b 	.word	0x003b003b
     7c8:	003b023f 	.word	0x003b023f
     7cc:	003b003b 	.word	0x003b003b
     7d0:	003b003b 	.word	0x003b003b
     7d4:	003b003b 	.word	0x003b003b
     7d8:	003b003b 	.word	0x003b003b
     7dc:	0092003b 	.word	0x0092003b
     7e0:	003b00a0 	.word	0x003b00a0
     7e4:	003b003b 	.word	0x003b003b
     7e8:	00a0007c 	.word	0x00a0007c
     7ec:	003b007f 	.word	0x003b007f
     7f0:	003b0082 	.word	0x003b0082
     7f4:	01620143 	.word	0x01620143
     7f8:	0086019d 	.word	0x0086019d
     7fc:	01e6003b 	.word	0x01e6003b
     800:	0206008c 	.word	0x0206008c
     804:	003b003b 	.word	0x003b003b
     808:	003b024e 	.word	0x003b024e
     80c:	008f      	.short	0x008f
     80e:	f1ab 0244 	sub.w	r2, fp, #68	; 0x44
     812:	2a36      	cmp	r2, #54	; 0x36
     814:	d9c0      	bls.n	798 <kprintf.constprop.0+0xa4>
/home/aom1/Work/Linux/target/STM32MP1-DK2/bootloader/optee-os-custom/lib/libutils/ext/snprintk.c:551
     816:	f88d b048 	strb.w	fp, [sp, #72]	; 0x48
/home/aom1/Work/Linux/target/STM32MP1-DK2/bootloader/optee-os-custom/lib/libutils/ext/snprintk.c:554
     81a:	461d      	mov	r5, r3
     81c:	e057      	b.n	8ce <kprintf.constprop.0+0x1da>
/home/aom1/Work/Linux/target/STM32MP1-DK2/bootloader/optee-os-custom/lib/libutils/ext/snprintk.c:305
     81e:	f1b8 0f00 	cmp.w	r8, #0
     822:	bf08      	it	eq
     824:	f04f 0820 	moveq.w	r8, #32
     828:	e797      	b.n	75a <kprintf.constprop.0+0x66>
/home/aom1/Work/Linux/target/STM32MP1-DK2/bootloader/optee-os-custom/lib/libutils/ext/snprintk.c:308
     82a:	f044 0401 	orr.w	r4, r4, #1
/home/aom1/Work/Linux/target/STM32MP1-DK2/bootloader/optee-os-custom/lib/libutils/ext/snprintk.c:309
     82e:	e794      	b.n	75a <kprintf.constprop.0+0x66>
/home/aom1/Work/Linux/target/STM32MP1-DK2/bootloader/optee-os-custom/lib/libutils/ext/snprintk.c:317
     830:	f853 2b04 	ldr.w	r2, [r3], #4
     834:	920d      	str	r2, [sp, #52]	; 0x34
     836:	2a00      	cmp	r2, #0
     838:	da8f      	bge.n	75a <kprintf.constprop.0+0x66>
/home/aom1/Work/Linux/target/STM32MP1-DK2/bootloader/optee-os-custom/lib/libutils/ext/snprintk.c:319
     83a:	4252      	negs	r2, r2
     83c:	920d      	str	r2, [sp, #52]	; 0x34
/home/aom1/Work/Linux/target/STM32MP1-DK2/bootloader/optee-os-custom/lib/libutils/ext/snprintk.c:322
     83e:	f044 0404 	orr.w	r4, r4, #4
/home/aom1/Work/Linux/target/STM32MP1-DK2/bootloader/optee-os-custom/lib/libutils/ext/snprintk.c:323
     842:	e78a      	b.n	75a <kprintf.constprop.0+0x66>
/home/aom1/Work/Linux/target/STM32MP1-DK2/bootloader/optee-os-custom/lib/libutils/ext/snprintk.c:328
     844:	f817 bb01 	ldrb.w	fp, [r7], #1
     848:	f1bb 0f2a 	cmp.w	fp, #42	; 0x2a
     84c:	d10e      	bne.n	86c <kprintf.constprop.0+0x178>
/home/aom1/Work/Linux/target/STM32MP1-DK2/bootloader/optee-os-custom/lib/libutils/ext/snprintk.c:330
     84e:	f853 2b04 	ldr.w	r2, [r3], #4
     852:	ea42 79e2 	orr.w	r9, r2, r2, asr #31
/home/aom1/Work/Linux/target/STM32MP1-DK2/bootloader/optee-os-custom/lib/libutils/ext/snprintk.c:331
     856:	e780      	b.n	75a <kprintf.constprop.0+0x66>
/home/aom1/Work/Linux/target/STM32MP1-DK2/bootloader/optee-os-custom/lib/libutils/ext/snprintk.c:336
     858:	f817 bb01 	ldrb.w	fp, [r7], #1
/home/aom1/Work/Linux/target/STM32MP1-DK2/bootloader/optee-os-custom/lib/libutils/ext/snprintk.c:335
     85c:	210a      	movs	r1, #10
     85e:	fb01 2909 	mla	r9, r1, r9, r2
/home/aom1/Work/Linux/target/STM32MP1-DK2/bootloader/optee-os-custom/lib/libutils/ext/snprintk.c:334
     862:	f1ab 0230 	sub.w	r2, fp, #48	; 0x30
     866:	2a09      	cmp	r2, #9
     868:	d9f6      	bls.n	858 <kprintf.constprop.0+0x164>
     86a:	e778      	b.n	75e <kprintf.constprop.0+0x6a>
/home/aom1/Work/Linux/target/STM32MP1-DK2/bootloader/optee-os-custom/lib/libutils/ext/snprintk.c:333
     86c:	f04f 0900 	mov.w	r9, #0
     870:	e7f7      	b.n	862 <kprintf.constprop.0+0x16e>
/home/aom1/Work/Linux/target/STM32MP1-DK2/bootloader/optee-os-custom/lib/libutils/ext/snprintk.c:346
     872:	f444 6480 	orr.w	r4, r4, #1024	; 0x400
/home/aom1/Work/Linux/target/STM32MP1-DK2/bootloader/optee-os-custom/lib/libutils/ext/snprintk.c:347
     876:	e770      	b.n	75a <kprintf.constprop.0+0x66>
/home/aom1/Work/Linux/target/STM32MP1-DK2/bootloader/optee-os-custom/lib/libutils/ext/snprintk.c:297
     878:	2200      	movs	r2, #0
     87a:	920d      	str	r2, [sp, #52]	; 0x34
/home/aom1/Work/Linux/target/STM32MP1-DK2/bootloader/optee-os-custom/lib/libutils/ext/snprintk.c:352
     87c:	990d      	ldr	r1, [sp, #52]	; 0x34
     87e:	f1ab 0230 	sub.w	r2, fp, #48	; 0x30
/home/aom1/Work/Linux/target/STM32MP1-DK2/bootloader/optee-os-custom/lib/libutils/ext/snprintk.c:353
     882:	f817 bb01 	ldrb.w	fp, [r7], #1
/home/aom1/Work/Linux/target/STM32MP1-DK2/bootloader/optee-os-custom/lib/libutils/ext/snprintk.c:352
     886:	200a      	movs	r0, #10
     888:	fb00 2201 	mla	r2, r0, r1, r2
     88c:	920d      	str	r2, [sp, #52]	; 0x34
/home/aom1/Work/Linux/target/STM32MP1-DK2/bootloader/optee-os-custom/lib/libutils/ext/snprintk.c:354
     88e:	f1ab 0230 	sub.w	r2, fp, #48	; 0x30
     892:	2a09      	cmp	r2, #9
     894:	d9f2      	bls.n	87c <kprintf.constprop.0+0x188>
     896:	e762      	b.n	75e <kprintf.constprop.0+0x6a>
/home/aom1/Work/Linux/target/STM32MP1-DK2/bootloader/optee-os-custom/lib/libutils/ext/snprintk.c:358
     898:	f044 0440 	orr.w	r4, r4, #64	; 0x40
/home/aom1/Work/Linux/target/STM32MP1-DK2/bootloader/optee-os-custom/lib/libutils/ext/snprintk.c:359
     89c:	e75d      	b.n	75a <kprintf.constprop.0+0x66>
/home/aom1/Work/Linux/target/STM32MP1-DK2/bootloader/optee-os-custom/lib/libutils/ext/snprintk.c:361
     89e:	f044 0480 	orr.w	r4, r4, #128	; 0x80
/home/aom1/Work/Linux/target/STM32MP1-DK2/bootloader/optee-os-custom/lib/libutils/ext/snprintk.c:362
     8a2:	e75a      	b.n	75a <kprintf.constprop.0+0x66>
/home/aom1/Work/Linux/target/STM32MP1-DK2/bootloader/optee-os-custom/lib/libutils/ext/snprintk.c:364
     8a4:	783a      	ldrb	r2, [r7, #0]
     8a6:	2a6c      	cmp	r2, #108	; 0x6c
     8a8:	d103      	bne.n	8b2 <kprintf.constprop.0+0x1be>
/home/aom1/Work/Linux/target/STM32MP1-DK2/bootloader/optee-os-custom/lib/libutils/ext/snprintk.c:328
     8aa:	3701      	adds	r7, #1
/home/aom1/Work/Linux/target/STM32MP1-DK2/bootloader/optee-os-custom/lib/libutils/ext/snprintk.c:372
     8ac:	f044 0420 	orr.w	r4, r4, #32
/home/aom1/Work/Linux/target/STM32MP1-DK2/bootloader/optee-os-custom/lib/libutils/ext/snprintk.c:373
     8b0:	e753      	b.n	75a <kprintf.constprop.0+0x66>
/home/aom1/Work/Linux/target/STM32MP1-DK2/bootloader/optee-os-custom/lib/libutils/ext/snprintk.c:368
     8b2:	f044 0410 	orr.w	r4, r4, #16
     8b6:	e750      	b.n	75a <kprintf.constprop.0+0x66>
/home/aom1/Work/Linux/target/STM32MP1-DK2/bootloader/optee-os-custom/lib/libutils/ext/snprintk.c:375
     8b8:	f444 7480 	orr.w	r4, r4, #256	; 0x100
/home/aom1/Work/Linux/target/STM32MP1-DK2/bootloader/optee-os-custom/lib/libutils/ext/snprintk.c:376
     8bc:	e74d      	b.n	75a <kprintf.constprop.0+0x66>
/home/aom1/Work/Linux/target/STM32MP1-DK2/bootloader/optee-os-custom/lib/libutils/ext/snprintk.c:378
     8be:	f444 7400 	orr.w	r4, r4, #512	; 0x200
/home/aom1/Work/Linux/target/STM32MP1-DK2/bootloader/optee-os-custom/lib/libutils/ext/snprintk.c:379
     8c2:	e74a      	b.n	75a <kprintf.constprop.0+0x66>
/home/aom1/Work/Linux/target/STM32MP1-DK2/bootloader/optee-os-custom/lib/libutils/ext/snprintk.c:381
     8c4:	461d      	mov	r5, r3
     8c6:	f855 3b04 	ldr.w	r3, [r5], #4
     8ca:	f88d 3048 	strb.w	r3, [sp, #72]	; 0x48
/home/aom1/Work/Linux/target/STM32MP1-DK2/bootloader/optee-os-custom/lib/libutils/ext/snprintk.c:291
     8ce:	2000      	movs	r0, #0
/home/aom1/Work/Linux/target/STM32MP1-DK2/bootloader/optee-os-custom/lib/libutils/ext/snprintk.c:552
     8d0:	f04f 0901 	mov.w	r9, #1
/home/aom1/Work/Linux/target/STM32MP1-DK2/bootloader/optee-os-custom/lib/libutils/ext/snprintk.c:553
     8d4:	4680      	mov	r8, r0
/home/aom1/Work/Linux/target/STM32MP1-DK2/bootloader/optee-os-custom/lib/libutils/ext/snprintk.c:550
     8d6:	f10d 0a48 	add.w	sl, sp, #72	; 0x48
/home/aom1/Work/Linux/target/STM32MP1-DK2/bootloader/optee-os-custom/lib/libutils/ext/snprintk.c:554
     8da:	e03c      	b.n	956 <kprintf.constprop.0+0x262>
/home/aom1/Work/Linux/target/STM32MP1-DK2/bootloader/optee-os-custom/lib/libutils/ext/snprintk.c:386
     8dc:	f044 0410 	orr.w	r4, r4, #16
/home/aom1/Work/Linux/target/STM32MP1-DK2/bootloader/optee-os-custom/lib/libutils/ext/snprintk.c:390
     8e0:	0625      	lsls	r5, r4, #24
     8e2:	f140 8087 	bpl.w	9f4 <kprintf.constprop.0+0x300>
     8e6:	3307      	adds	r3, #7
     8e8:	f023 0307 	bic.w	r3, r3, #7
     8ec:	461d      	mov	r5, r3
     8ee:	6859      	ldr	r1, [r3, #4]
     8f0:	f855 0b08 	ldr.w	r0, [r5], #8
/home/aom1/Work/Linux/target/STM32MP1-DK2/bootloader/optee-os-custom/lib/libutils/ext/snprintk.c:391
     8f4:	2900      	cmp	r1, #0
     8f6:	f280 8165 	bge.w	bc4 <kprintf.constprop.0+0x4d0>
/home/aom1/Work/Linux/target/STM32MP1-DK2/bootloader/optee-os-custom/lib/libutils/ext/snprintk.c:392
     8fa:	4240      	negs	r0, r0
/home/aom1/Work/Linux/target/STM32MP1-DK2/bootloader/optee-os-custom/lib/libutils/ext/snprintk.c:395
     8fc:	f04f 0301 	mov.w	r3, #1
/home/aom1/Work/Linux/target/STM32MP1-DK2/bootloader/optee-os-custom/lib/libutils/ext/snprintk.c:392
     900:	eb61 0141 	sbc.w	r1, r1, r1, lsl #1
/home/aom1/Work/Linux/target/STM32MP1-DK2/bootloader/optee-os-custom/lib/libutils/ext/snprintk.c:393
     904:	f04f 082d 	mov.w	r8, #45	; 0x2d
/home/aom1/Work/Linux/target/STM32MP1-DK2/bootloader/optee-os-custom/lib/libutils/ext/snprintk.c:494
     908:	f1b9 3fff 	cmp.w	r9, #4294967295	; 0xffffffff
     90c:	f040 80c3 	bne.w	a96 <kprintf.constprop.0+0x3a2>
/home/aom1/Work/Linux/target/STM32MP1-DK2/bootloader/optee-os-custom/lib/libutils/ext/snprintk.c:509
     910:	2b01      	cmp	r3, #1
     912:	f000 815a 	beq.w	bca <kprintf.constprop.0+0x4d6>
     916:	2b02      	cmp	r3, #2
     918:	f000 8118 	beq.w	b4c <kprintf.constprop.0+0x458>
/home/aom1/Work/Linux/target/STM32MP1-DK2/bootloader/optee-os-custom/lib/libutils/ext/snprintk.c:494
     91c:	f10d 0a6d 	add.w	sl, sp, #109	; 0x6d
/home/aom1/Work/Linux/target/STM32MP1-DK2/bootloader/optee-os-custom/lib/libutils/ext/snprintk.c:512
     920:	f000 0307 	and.w	r3, r0, #7
     924:	4652      	mov	r2, sl
/home/aom1/Work/Linux/target/STM32MP1-DK2/bootloader/optee-os-custom/lib/libutils/ext/snprintk.c:513
     926:	08c0      	lsrs	r0, r0, #3
/home/aom1/Work/Linux/target/STM32MP1-DK2/bootloader/optee-os-custom/lib/libutils/ext/snprintk.c:512
     928:	3330      	adds	r3, #48	; 0x30
/home/aom1/Work/Linux/target/STM32MP1-DK2/bootloader/optee-os-custom/lib/libutils/ext/snprintk.c:513
     92a:	ea40 7041 	orr.w	r0, r0, r1, lsl #29
     92e:	08c9      	lsrs	r1, r1, #3
/home/aom1/Work/Linux/target/STM32MP1-DK2/bootloader/optee-os-custom/lib/libutils/ext/snprintk.c:514
     930:	ea50 0c01 	orrs.w	ip, r0, r1
/home/aom1/Work/Linux/target/STM32MP1-DK2/bootloader/optee-os-custom/lib/libutils/ext/snprintk.c:512
     934:	f80a 3d01 	strb.w	r3, [sl, #-1]!
/home/aom1/Work/Linux/target/STM32MP1-DK2/bootloader/optee-os-custom/lib/libutils/ext/snprintk.c:514
     938:	d1f2      	bne.n	920 <kprintf.constprop.0+0x22c>
/home/aom1/Work/Linux/target/STM32MP1-DK2/bootloader/optee-os-custom/lib/libutils/ext/snprintk.c:516
     93a:	07e1      	lsls	r1, r4, #31
     93c:	d506      	bpl.n	94c <kprintf.constprop.0+0x258>
     93e:	2b30      	cmp	r3, #48	; 0x30
     940:	d004      	beq.n	94c <kprintf.constprop.0+0x258>
/home/aom1/Work/Linux/target/STM32MP1-DK2/bootloader/optee-os-custom/lib/libutils/ext/snprintk.c:517
     942:	2330      	movs	r3, #48	; 0x30
     944:	f80a 3c01 	strb.w	r3, [sl, #-1]
     948:	f1a2 0a02 	sub.w	sl, r2, #2
/home/aom1/Work/Linux/target/STM32MP1-DK2/bootloader/optee-os-custom/lib/libutils/ext/snprintk.c:543
     94c:	4648      	mov	r0, r9
     94e:	f10d 096d 	add.w	r9, sp, #109	; 0x6d
     952:	eba9 090a 	sub.w	r9, r9, sl
/home/aom1/Work/Linux/target/STM32MP1-DK2/bootloader/optee-os-custom/lib/libutils/ext/snprintk.c:571
     956:	4548      	cmp	r0, r9
     958:	4603      	mov	r3, r0
     95a:	bfb8      	it	lt
     95c:	464b      	movlt	r3, r9
/home/aom1/Work/Linux/target/STM32MP1-DK2/bootloader/optee-os-custom/lib/libutils/ext/snprintk.c:572
     95e:	f1b8 0f00 	cmp.w	r8, #0
     962:	f000 81b5 	beq.w	cd0 <kprintf.constprop.0+0x5dc>
/home/aom1/Work/Linux/target/STM32MP1-DK2/bootloader/optee-os-custom/lib/libutils/ext/snprintk.c:573
     966:	3301      	adds	r3, #1
/home/aom1/Work/Linux/target/STM32MP1-DK2/bootloader/optee-os-custom/lib/libutils/ext/snprintk.c:578
     968:	9a0b      	ldr	r2, [sp, #44]	; 0x2c
     96a:	990d      	ldr	r1, [sp, #52]	; 0x34
     96c:	428b      	cmp	r3, r1
     96e:	bfac      	ite	ge
     970:	18d2      	addge	r2, r2, r3
     972:	1852      	addlt	r2, r2, r1
/home/aom1/Work/Linux/target/STM32MP1-DK2/bootloader/optee-os-custom/lib/libutils/ext/snprintk.c:581
     974:	f240 4104 	movw	r1, #1028	; 0x404
     978:	ea14 0e01 	ands.w	lr, r4, r1
/home/aom1/Work/Linux/target/STM32MP1-DK2/bootloader/optee-os-custom/lib/libutils/ext/snprintk.c:578
     97c:	920b      	str	r2, [sp, #44]	; 0x2c
/home/aom1/Work/Linux/target/STM32MP1-DK2/bootloader/optee-os-custom/lib/libutils/ext/snprintk.c:581
     97e:	d106      	bne.n	98e <kprintf.constprop.0+0x29a>
/home/aom1/Work/Linux/target/STM32MP1-DK2/bootloader/optee-os-custom/lib/libutils/ext/snprintk.c:582
     980:	9a0d      	ldr	r2, [sp, #52]	; 0x34
/home/aom1/Work/Linux/target/STM32MP1-DK2/bootloader/optee-os-custom/lib/libutils/ext/snprintk.c:584
     982:	f04f 0c20 	mov.w	ip, #32
/home/aom1/Work/Linux/target/STM32MP1-DK2/bootloader/optee-os-custom/lib/libutils/ext/snprintk.c:582
     986:	1ad2      	subs	r2, r2, r3
/home/aom1/Work/Linux/target/STM32MP1-DK2/bootloader/optee-os-custom/lib/libutils/ext/snprintk.c:583
     988:	2a00      	cmp	r2, #0
     98a:	f300 81a5 	bgt.w	cd8 <kprintf.constprop.0+0x5e4>
/home/aom1/Work/Linux/target/STM32MP1-DK2/bootloader/optee-os-custom/lib/libutils/ext/snprintk.c:588
     98e:	f1b8 0f00 	cmp.w	r8, #0
     992:	f000 81ab 	beq.w	cec <kprintf.constprop.0+0x5f8>
/home/aom1/Work/Linux/target/STM32MP1-DK2/bootloader/optee-os-custom/lib/libutils/ext/snprintk.c:589
     996:	b136      	cbz	r6, 9a6 <kprintf.constprop.0+0x2b2>
     998:	9a0c      	ldr	r2, [sp, #48]	; 0x30
     99a:	b112      	cbz	r2, 9a2 <kprintf.constprop.0+0x2ae>
     99c:	9a0e      	ldr	r2, [sp, #56]	; 0x38
     99e:	42b2      	cmp	r2, r6
     9a0:	d901      	bls.n	9a6 <kprintf.constprop.0+0x2b2>
     9a2:	f806 8b01 	strb.w	r8, [r6], #1
/home/aom1/Work/Linux/target/STM32MP1-DK2/bootloader/optee-os-custom/lib/libutils/ext/snprintk.c:596
     9a6:	f5be 6f80 	cmp.w	lr, #1024	; 0x400
     9aa:	d106      	bne.n	9ba <kprintf.constprop.0+0x2c6>
/home/aom1/Work/Linux/target/STM32MP1-DK2/bootloader/optee-os-custom/lib/libutils/ext/snprintk.c:597
     9ac:	9a0d      	ldr	r2, [sp, #52]	; 0x34
/home/aom1/Work/Linux/target/STM32MP1-DK2/bootloader/optee-os-custom/lib/libutils/ext/snprintk.c:599
     9ae:	f04f 0c30 	mov.w	ip, #48	; 0x30
/home/aom1/Work/Linux/target/STM32MP1-DK2/bootloader/optee-os-custom/lib/libutils/ext/snprintk.c:597
     9b2:	1ad2      	subs	r2, r2, r3
/home/aom1/Work/Linux/target/STM32MP1-DK2/bootloader/optee-os-custom/lib/libutils/ext/snprintk.c:598
     9b4:	2a00      	cmp	r2, #0
     9b6:	f300 81b3 	bgt.w	d20 <kprintf.constprop.0+0x62c>
/home/aom1/Work/Linux/target/STM32MP1-DK2/bootloader/optee-os-custom/lib/libutils/ext/snprintk.c:603
     9ba:	eba0 0009 	sub.w	r0, r0, r9
/home/aom1/Work/Linux/target/STM32MP1-DK2/bootloader/optee-os-custom/lib/libutils/ext/snprintk.c:605
     9be:	2230      	movs	r2, #48	; 0x30
/home/aom1/Work/Linux/target/STM32MP1-DK2/bootloader/optee-os-custom/lib/libutils/ext/snprintk.c:604
     9c0:	2800      	cmp	r0, #0
     9c2:	f300 81b7 	bgt.w	d34 <kprintf.constprop.0+0x640>
     9c6:	44d1      	add	r9, sl
/home/aom1/Work/Linux/target/STM32MP1-DK2/bootloader/optee-os-custom/lib/libutils/ext/snprintk.c:608
     9c8:	45ca      	cmp	sl, r9
     9ca:	f040 81bd 	bne.w	d48 <kprintf.constprop.0+0x654>
/home/aom1/Work/Linux/target/STM32MP1-DK2/bootloader/optee-os-custom/lib/libutils/ext/snprintk.c:611
     9ce:	0762      	lsls	r2, r4, #29
     9d0:	f57f aea0 	bpl.w	714 <kprintf.constprop.0+0x20>
/home/aom1/Work/Linux/target/STM32MP1-DK2/bootloader/optee-os-custom/lib/libutils/ext/snprintk.c:612
     9d4:	9a0d      	ldr	r2, [sp, #52]	; 0x34
     9d6:	1ad3      	subs	r3, r2, r3
/home/aom1/Work/Linux/target/STM32MP1-DK2/bootloader/optee-os-custom/lib/libutils/ext/snprintk.c:614
     9d8:	2220      	movs	r2, #32
/home/aom1/Work/Linux/target/STM32MP1-DK2/bootloader/optee-os-custom/lib/libutils/ext/snprintk.c:613
     9da:	2b00      	cmp	r3, #0
     9dc:	f77f ae9a 	ble.w	714 <kprintf.constprop.0+0x20>
/home/aom1/Work/Linux/target/STM32MP1-DK2/bootloader/optee-os-custom/lib/libutils/ext/snprintk.c:614
     9e0:	b136      	cbz	r6, 9f0 <kprintf.constprop.0+0x2fc>
     9e2:	990c      	ldr	r1, [sp, #48]	; 0x30
     9e4:	b111      	cbz	r1, 9ec <kprintf.constprop.0+0x2f8>
     9e6:	990e      	ldr	r1, [sp, #56]	; 0x38
     9e8:	42b1      	cmp	r1, r6
     9ea:	d901      	bls.n	9f0 <kprintf.constprop.0+0x2fc>
     9ec:	f806 2b01 	strb.w	r2, [r6], #1
     9f0:	3b01      	subs	r3, #1
     9f2:	e7f2      	b.n	9da <kprintf.constprop.0+0x2e6>
/home/aom1/Work/Linux/target/STM32MP1-DK2/bootloader/optee-os-custom/lib/libutils/ext/snprintk.c:390
     9f4:	05e0      	lsls	r0, r4, #23
     9f6:	d504      	bpl.n	a02 <kprintf.constprop.0+0x30e>
     9f8:	461d      	mov	r5, r3
     9fa:	f855 0b04 	ldr.w	r0, [r5], #4
     9fe:	17c1      	asrs	r1, r0, #31
     a00:	e778      	b.n	8f4 <kprintf.constprop.0+0x200>
     a02:	05a1      	lsls	r1, r4, #22
     a04:	d4f8      	bmi.n	9f8 <kprintf.constprop.0+0x304>
     a06:	06a2      	lsls	r2, r4, #26
     a08:	f53f af6d 	bmi.w	8e6 <kprintf.constprop.0+0x1f2>
/home/aom1/Work/Linux/target/STM32MP1-DK2/bootloader/optee-os-custom/lib/libutils/ext/snprintk.c:317
     a0c:	461d      	mov	r5, r3
/home/aom1/Work/Linux/target/STM32MP1-DK2/bootloader/optee-os-custom/lib/libutils/ext/snprintk.c:390
     a0e:	06e3      	lsls	r3, r4, #27
/home/aom1/Work/Linux/target/STM32MP1-DK2/bootloader/optee-os-custom/lib/libutils/ext/snprintk.c:317
     a10:	f855 1b04 	ldr.w	r1, [r5], #4
/home/aom1/Work/Linux/target/STM32MP1-DK2/bootloader/optee-os-custom/lib/libutils/ext/snprintk.c:390
     a14:	d501      	bpl.n	a1a <kprintf.constprop.0+0x326>
     a16:	4608      	mov	r0, r1
     a18:	e7f1      	b.n	9fe <kprintf.constprop.0+0x30a>
     a1a:	0660      	lsls	r0, r4, #25
     a1c:	d5fb      	bpl.n	a16 <kprintf.constprop.0+0x322>
     a1e:	b208      	sxth	r0, r1
     a20:	f341 31c0 	sbfx	r1, r1, #15, #1
     a24:	e766      	b.n	8f4 <kprintf.constprop.0+0x200>
/home/aom1/Work/Linux/target/STM32MP1-DK2/bootloader/optee-os-custom/lib/libutils/ext/snprintk.c:398
     a26:	0621      	lsls	r1, r4, #24
/home/aom1/Work/Linux/target/STM32MP1-DK2/bootloader/optee-os-custom/lib/libutils/ext/snprintk.c:317
     a28:	f103 0504 	add.w	r5, r3, #4
/home/aom1/Work/Linux/target/STM32MP1-DK2/bootloader/optee-os-custom/lib/libutils/ext/snprintk.c:398
     a2c:	d506      	bpl.n	a3c <kprintf.constprop.0+0x348>
/home/aom1/Work/Linux/target/STM32MP1-DK2/bootloader/optee-os-custom/lib/libutils/ext/snprintk.c:405
     a2e:	9a0b      	ldr	r2, [sp, #44]	; 0x2c
     a30:	681b      	ldr	r3, [r3, #0]
     a32:	990b      	ldr	r1, [sp, #44]	; 0x2c
     a34:	17d2      	asrs	r2, r2, #31
     a36:	e9c3 1200 	strd	r1, r2, [r3]
     a3a:	e66b      	b.n	714 <kprintf.constprop.0+0x20>
/home/aom1/Work/Linux/target/STM32MP1-DK2/bootloader/optee-os-custom/lib/libutils/ext/snprintk.c:400
     a3c:	05e2      	lsls	r2, r4, #23
     a3e:	d503      	bpl.n	a48 <kprintf.constprop.0+0x354>
/home/aom1/Work/Linux/target/STM32MP1-DK2/bootloader/optee-os-custom/lib/libutils/ext/snprintk.c:411
     a40:	681b      	ldr	r3, [r3, #0]
     a42:	9a0b      	ldr	r2, [sp, #44]	; 0x2c
     a44:	601a      	str	r2, [r3, #0]
     a46:	e665      	b.n	714 <kprintf.constprop.0+0x20>
/home/aom1/Work/Linux/target/STM32MP1-DK2/bootloader/optee-os-custom/lib/libutils/ext/snprintk.c:402
     a48:	05a0      	lsls	r0, r4, #22
     a4a:	d4f9      	bmi.n	a40 <kprintf.constprop.0+0x34c>
/home/aom1/Work/Linux/target/STM32MP1-DK2/bootloader/optee-os-custom/lib/libutils/ext/snprintk.c:404
     a4c:	06a1      	lsls	r1, r4, #26
     a4e:	d4ee      	bmi.n	a2e <kprintf.constprop.0+0x33a>
/home/aom1/Work/Linux/target/STM32MP1-DK2/bootloader/optee-os-custom/lib/libutils/ext/snprintk.c:406
     a50:	06e2      	lsls	r2, r4, #27
     a52:	d4f5      	bmi.n	a40 <kprintf.constprop.0+0x34c>
/home/aom1/Work/Linux/target/STM32MP1-DK2/bootloader/optee-os-custom/lib/libutils/ext/snprintk.c:408
     a54:	0664      	lsls	r4, r4, #25
     a56:	d5f3      	bpl.n	a40 <kprintf.constprop.0+0x34c>
/home/aom1/Work/Linux/target/STM32MP1-DK2/bootloader/optee-os-custom/lib/libutils/ext/snprintk.c:409
     a58:	681b      	ldr	r3, [r3, #0]
     a5a:	9a0b      	ldr	r2, [sp, #44]	; 0x2c
     a5c:	801a      	strh	r2, [r3, #0]
     a5e:	e659      	b.n	714 <kprintf.constprop.0+0x20>
/home/aom1/Work/Linux/target/STM32MP1-DK2/bootloader/optee-os-custom/lib/libutils/ext/snprintk.c:414
     a60:	f044 0410 	orr.w	r4, r4, #16
/home/aom1/Work/Linux/target/STM32MP1-DK2/bootloader/optee-os-custom/lib/libutils/ext/snprintk.c:417
     a64:	f014 0280 	ands.w	r2, r4, #128	; 0x80
     a68:	d007      	beq.n	a7a <kprintf.constprop.0+0x386>
     a6a:	3307      	adds	r3, #7
     a6c:	f023 0307 	bic.w	r3, r3, #7
     a70:	461d      	mov	r5, r3
     a72:	6859      	ldr	r1, [r3, #4]
     a74:	f855 0b08 	ldr.w	r0, [r5], #8
     a78:	e006      	b.n	a88 <kprintf.constprop.0+0x394>
     a7a:	f414 7180 	ands.w	r1, r4, #256	; 0x100
     a7e:	d017      	beq.n	ab0 <kprintf.constprop.0+0x3bc>
     a80:	461d      	mov	r5, r3
     a82:	4611      	mov	r1, r2
     a84:	f855 0b04 	ldr.w	r0, [r5], #4
/home/aom1/Work/Linux/target/STM32MP1-DK2/bootloader/optee-os-custom/lib/libutils/ext/snprintk.c:494
     a88:	f1b9 3fff 	cmp.w	r9, #4294967295	; 0xffffffff
     a8c:	f04f 0800 	mov.w	r8, #0
     a90:	f43f af44 	beq.w	91c <kprintf.constprop.0+0x228>
     a94:	4643      	mov	r3, r8
/home/aom1/Work/Linux/target/STM32MP1-DK2/bootloader/optee-os-custom/lib/libutils/ext/snprintk.c:503
     a96:	ea50 0201 	orrs.w	r2, r0, r1
/home/aom1/Work/Linux/target/STM32MP1-DK2/bootloader/optee-os-custom/lib/libutils/ext/snprintk.c:495
     a9a:	f424 6480 	bic.w	r4, r4, #1024	; 0x400
/home/aom1/Work/Linux/target/STM32MP1-DK2/bootloader/optee-os-custom/lib/libutils/ext/snprintk.c:503
     a9e:	f47f af37 	bne.w	910 <kprintf.constprop.0+0x21c>
     aa2:	f1b9 0f00 	cmp.w	r9, #0
     aa6:	f47f af33 	bne.w	910 <kprintf.constprop.0+0x21c>
/home/aom1/Work/Linux/target/STM32MP1-DK2/bootloader/optee-os-custom/lib/libutils/ext/snprintk.c:502
     aaa:	f10d 0a6d 	add.w	sl, sp, #109	; 0x6d
     aae:	e74d      	b.n	94c <kprintf.constprop.0+0x258>
/home/aom1/Work/Linux/target/STM32MP1-DK2/bootloader/optee-os-custom/lib/libutils/ext/snprintk.c:417
     ab0:	05a0      	lsls	r0, r4, #22
     ab2:	d503      	bpl.n	abc <kprintf.constprop.0+0x3c8>
     ab4:	461d      	mov	r5, r3
     ab6:	f855 0b04 	ldr.w	r0, [r5], #4
     aba:	e7e5      	b.n	a88 <kprintf.constprop.0+0x394>
     abc:	f014 0120 	ands.w	r1, r4, #32
     ac0:	d1d3      	bne.n	a6a <kprintf.constprop.0+0x376>
/home/aom1/Work/Linux/target/STM32MP1-DK2/bootloader/optee-os-custom/lib/libutils/ext/snprintk.c:317
     ac2:	461d      	mov	r5, r3
/home/aom1/Work/Linux/target/STM32MP1-DK2/bootloader/optee-os-custom/lib/libutils/ext/snprintk.c:417
     ac4:	f014 0310 	ands.w	r3, r4, #16
/home/aom1/Work/Linux/target/STM32MP1-DK2/bootloader/optee-os-custom/lib/libutils/ext/snprintk.c:317
     ac8:	f855 0b04 	ldr.w	r0, [r5], #4
/home/aom1/Work/Linux/target/STM32MP1-DK2/bootloader/optee-os-custom/lib/libutils/ext/snprintk.c:417
     acc:	d1dc      	bne.n	a88 <kprintf.constprop.0+0x394>
     ace:	f014 0140 	ands.w	r1, r4, #64	; 0x40
     ad2:	d0d9      	beq.n	a88 <kprintf.constprop.0+0x394>
     ad4:	b280      	uxth	r0, r0
     ad6:	4619      	mov	r1, r3
     ad8:	e7d6      	b.n	a88 <kprintf.constprop.0+0x394>
/home/aom1/Work/Linux/target/STM32MP1-DK2/bootloader/optee-os-custom/lib/libutils/ext/snprintk.c:317
     ada:	461d      	mov	r5, r3
/home/aom1/Work/Linux/target/STM32MP1-DK2/bootloader/optee-os-custom/lib/libutils/ext/snprintk.c:421
     adc:	9b11      	ldr	r3, [sp, #68]	; 0x44
     ade:	f855 0b04 	ldr.w	r0, [r5], #4
     ae2:	b32b      	cbz	r3, b30 <kprintf.constprop.0+0x43c>
     ae4:	783b      	ldrb	r3, [r7, #0]
     ae6:	2b55      	cmp	r3, #85	; 0x55
     ae8:	d122      	bne.n	b30 <kprintf.constprop.0+0x43c>
     aea:	787b      	ldrb	r3, [r7, #1]
     aec:	2b6c      	cmp	r3, #108	; 0x6c
     aee:	d11f      	bne.n	b30 <kprintf.constprop.0+0x43c>
uuid2str():
/home/aom1/Work/Linux/target/STM32MP1-DK2/bootloader/optee-os-custom/lib/libutils/ext/snprintk.c:229
     af0:	7bc3      	ldrb	r3, [r0, #15]
     af2:	f10d 0a48 	add.w	sl, sp, #72	; 0x48
     af6:	4a9b      	ldr	r2, [pc, #620]	; (d64 <kprintf.constprop.0+0x670>)
     af8:	2125      	movs	r1, #37	; 0x25
     afa:	9309      	str	r3, [sp, #36]	; 0x24
kprintf():
/home/aom1/Work/Linux/target/STM32MP1-DK2/bootloader/optee-os-custom/lib/libutils/ext/snprintk.c:426
     afc:	3702      	adds	r7, #2
uuid2str():
/home/aom1/Work/Linux/target/STM32MP1-DK2/bootloader/optee-os-custom/lib/libutils/ext/snprintk.c:229
     afe:	7b83      	ldrb	r3, [r0, #14]
     b00:	447a      	add	r2, pc
     b02:	9308      	str	r3, [sp, #32]
     b04:	7b43      	ldrb	r3, [r0, #13]
     b06:	9307      	str	r3, [sp, #28]
     b08:	7b03      	ldrb	r3, [r0, #12]
     b0a:	9306      	str	r3, [sp, #24]
     b0c:	7ac3      	ldrb	r3, [r0, #11]
     b0e:	9305      	str	r3, [sp, #20]
     b10:	7a83      	ldrb	r3, [r0, #10]
     b12:	9304      	str	r3, [sp, #16]
     b14:	7a43      	ldrb	r3, [r0, #9]
     b16:	9303      	str	r3, [sp, #12]
     b18:	7a03      	ldrb	r3, [r0, #8]
     b1a:	9302      	str	r3, [sp, #8]
     b1c:	88c3      	ldrh	r3, [r0, #6]
     b1e:	9301      	str	r3, [sp, #4]
     b20:	8883      	ldrh	r3, [r0, #4]
     b22:	9300      	str	r3, [sp, #0]
     b24:	6803      	ldr	r3, [r0, #0]
     b26:	4650      	mov	r0, sl
     b28:	f7ff fdd7 	bl	6da <snprintk>
kprintf():
/home/aom1/Work/Linux/target/STM32MP1-DK2/bootloader/optee-os-custom/lib/libutils/ext/snprintk.c:466
     b2c:	4681      	mov	r9, r0
     b2e:	e034      	b.n	b9a <kprintf.constprop.0+0x4a6>
/home/aom1/Work/Linux/target/STM32MP1-DK2/bootloader/optee-os-custom/lib/libutils/ext/snprintk.c:443
     b30:	4b8d      	ldr	r3, [pc, #564]	; (d68 <kprintf.constprop.0+0x674>)
/home/aom1/Work/Linux/target/STM32MP1-DK2/bootloader/optee-os-custom/lib/libutils/ext/snprintk.c:441
     b32:	2100      	movs	r1, #0
/home/aom1/Work/Linux/target/STM32MP1-DK2/bootloader/optee-os-custom/lib/libutils/ext/snprintk.c:444
     b34:	f044 0402 	orr.w	r4, r4, #2
/home/aom1/Work/Linux/target/STM32MP1-DK2/bootloader/optee-os-custom/lib/libutils/ext/snprintk.c:445
     b38:	f04f 0b78 	mov.w	fp, #120	; 0x78
/home/aom1/Work/Linux/target/STM32MP1-DK2/bootloader/optee-os-custom/lib/libutils/ext/snprintk.c:443
     b3c:	447b      	add	r3, pc
     b3e:	930f      	str	r3, [sp, #60]	; 0x3c
/home/aom1/Work/Linux/target/STM32MP1-DK2/bootloader/optee-os-custom/lib/libutils/ext/snprintk.c:494
     b40:	f1b9 3fff 	cmp.w	r9, #4294967295	; 0xffffffff
     b44:	f04f 0800 	mov.w	r8, #0
     b48:	f040 80a3 	bne.w	c92 <kprintf.constprop.0+0x59e>
     b4c:	f10d 0a6d 	add.w	sl, sp, #109	; 0x6d
/home/aom1/Work/Linux/target/STM32MP1-DK2/bootloader/optee-os-custom/lib/libutils/ext/snprintk.c:531
     b50:	9a0f      	ldr	r2, [sp, #60]	; 0x3c
     b52:	f000 030f 	and.w	r3, r0, #15
/home/aom1/Work/Linux/target/STM32MP1-DK2/bootloader/optee-os-custom/lib/libutils/ext/snprintk.c:532
     b56:	0900      	lsrs	r0, r0, #4
/home/aom1/Work/Linux/target/STM32MP1-DK2/bootloader/optee-os-custom/lib/libutils/ext/snprintk.c:531
     b58:	5cd3      	ldrb	r3, [r2, r3]
/home/aom1/Work/Linux/target/STM32MP1-DK2/bootloader/optee-os-custom/lib/libutils/ext/snprintk.c:532
     b5a:	ea40 7001 	orr.w	r0, r0, r1, lsl #28
     b5e:	0909      	lsrs	r1, r1, #4
/home/aom1/Work/Linux/target/STM32MP1-DK2/bootloader/optee-os-custom/lib/libutils/ext/snprintk.c:531
     b60:	f80a 3d01 	strb.w	r3, [sl, #-1]!
/home/aom1/Work/Linux/target/STM32MP1-DK2/bootloader/optee-os-custom/lib/libutils/ext/snprintk.c:533
     b64:	ea50 0301 	orrs.w	r3, r0, r1
     b68:	d1f2      	bne.n	b50 <kprintf.constprop.0+0x45c>
     b6a:	e6ef      	b.n	94c <kprintf.constprop.0+0x258>
/home/aom1/Work/Linux/target/STM32MP1-DK2/bootloader/optee-os-custom/lib/libutils/ext/snprintk.c:448
     b6c:	461d      	mov	r5, r3
     b6e:	f855 ab04 	ldr.w	sl, [r5], #4
     b72:	f1ba 0f00 	cmp.w	sl, #0
     b76:	d102      	bne.n	b7e <kprintf.constprop.0+0x48a>
/home/aom1/Work/Linux/target/STM32MP1-DK2/bootloader/optee-os-custom/lib/libutils/ext/snprintk.c:450
     b78:	f8df a1f0 	ldr.w	sl, [pc, #496]	; d6c <kprintf.constprop.0+0x678>
     b7c:	44fa      	add	sl, pc
/home/aom1/Work/Linux/target/STM32MP1-DK2/bootloader/optee-os-custom/lib/libutils/ext/snprintk.c:451
     b7e:	f1b9 3fff 	cmp.w	r9, #4294967295	; 0xffffffff
     b82:	d00d      	beq.n	ba0 <kprintf.constprop.0+0x4ac>
/home/aom1/Work/Linux/target/STM32MP1-DK2/bootloader/optee-os-custom/lib/libutils/ext/snprintk.c:457
     b84:	464a      	mov	r2, r9
     b86:	2100      	movs	r1, #0
     b88:	4650      	mov	r0, sl
     b8a:	f008 fbb4 	bl	92f6 <memchr>
/home/aom1/Work/Linux/target/STM32MP1-DK2/bootloader/optee-os-custom/lib/libutils/ext/snprintk.c:459
     b8e:	b128      	cbz	r0, b9c <kprintf.constprop.0+0x4a8>
/home/aom1/Work/Linux/target/STM32MP1-DK2/bootloader/optee-os-custom/lib/libutils/ext/snprintk.c:460
     b90:	eba0 000a 	sub.w	r0, r0, sl
     b94:	4581      	cmp	r9, r0
     b96:	bfa8      	it	ge
     b98:	4681      	movge	r9, r0
/home/aom1/Work/Linux/target/STM32MP1-DK2/bootloader/optee-os-custom/lib/libutils/ext/snprintk.c:291
     b9a:	2000      	movs	r0, #0
/home/aom1/Work/Linux/target/STM32MP1-DK2/bootloader/optee-os-custom/lib/libutils/ext/snprintk.c:467
     b9c:	4680      	mov	r8, r0
     b9e:	e6da      	b.n	956 <kprintf.constprop.0+0x262>
/home/aom1/Work/Linux/target/STM32MP1-DK2/bootloader/optee-os-custom/lib/libutils/ext/snprintk.c:466
     ba0:	4650      	mov	r0, sl
     ba2:	f008 fbb6 	bl	9312 <strlen>
     ba6:	e7c1      	b.n	b2c <kprintf.constprop.0+0x438>
/home/aom1/Work/Linux/target/STM32MP1-DK2/bootloader/optee-os-custom/lib/libutils/ext/snprintk.c:470
     ba8:	f044 0410 	orr.w	r4, r4, #16
/home/aom1/Work/Linux/target/STM32MP1-DK2/bootloader/optee-os-custom/lib/libutils/ext/snprintk.c:473
     bac:	f014 0280 	ands.w	r2, r4, #128	; 0x80
     bb0:	d00f      	beq.n	bd2 <kprintf.constprop.0+0x4de>
     bb2:	3307      	adds	r3, #7
     bb4:	f023 0307 	bic.w	r3, r3, #7
     bb8:	461d      	mov	r5, r3
     bba:	6859      	ldr	r1, [r3, #4]
     bbc:	f855 0b08 	ldr.w	r0, [r5], #8
/home/aom1/Work/Linux/target/STM32MP1-DK2/bootloader/optee-os-custom/lib/libutils/ext/snprintk.c:488
     bc0:	f04f 0800 	mov.w	r8, #0
/home/aom1/Work/Linux/target/STM32MP1-DK2/bootloader/optee-os-custom/lib/libutils/ext/snprintk.c:494
     bc4:	f1b9 3fff 	cmp.w	r9, #4294967295	; 0xffffffff
     bc8:	d165      	bne.n	c96 <kprintf.constprop.0+0x5a2>
     bca:	f10d 036d 	add.w	r3, sp, #109	; 0x6d
     bce:	9310      	str	r3, [sp, #64]	; 0x40
     bd0:	e06d      	b.n	cae <kprintf.constprop.0+0x5ba>
/home/aom1/Work/Linux/target/STM32MP1-DK2/bootloader/optee-os-custom/lib/libutils/ext/snprintk.c:473
     bd2:	f414 7180 	ands.w	r1, r4, #256	; 0x100
     bd6:	d004      	beq.n	be2 <kprintf.constprop.0+0x4ee>
     bd8:	461d      	mov	r5, r3
     bda:	4611      	mov	r1, r2
     bdc:	f855 0b04 	ldr.w	r0, [r5], #4
     be0:	e7ee      	b.n	bc0 <kprintf.constprop.0+0x4cc>
     be2:	f414 7800 	ands.w	r8, r4, #512	; 0x200
     be6:	d003      	beq.n	bf0 <kprintf.constprop.0+0x4fc>
     be8:	461d      	mov	r5, r3
     bea:	f855 0b04 	ldr.w	r0, [r5], #4
     bee:	e7e7      	b.n	bc0 <kprintf.constprop.0+0x4cc>
     bf0:	f014 0120 	ands.w	r1, r4, #32
     bf4:	d007      	beq.n	c06 <kprintf.constprop.0+0x512>
     bf6:	3307      	adds	r3, #7
     bf8:	f023 0307 	bic.w	r3, r3, #7
     bfc:	461d      	mov	r5, r3
     bfe:	6859      	ldr	r1, [r3, #4]
     c00:	f855 0b08 	ldr.w	r0, [r5], #8
     c04:	e7de      	b.n	bc4 <kprintf.constprop.0+0x4d0>
/home/aom1/Work/Linux/target/STM32MP1-DK2/bootloader/optee-os-custom/lib/libutils/ext/snprintk.c:317
     c06:	461d      	mov	r5, r3
/home/aom1/Work/Linux/target/STM32MP1-DK2/bootloader/optee-os-custom/lib/libutils/ext/snprintk.c:473
     c08:	f014 0310 	ands.w	r3, r4, #16
/home/aom1/Work/Linux/target/STM32MP1-DK2/bootloader/optee-os-custom/lib/libutils/ext/snprintk.c:317
     c0c:	f855 0b04 	ldr.w	r0, [r5], #4
/home/aom1/Work/Linux/target/STM32MP1-DK2/bootloader/optee-os-custom/lib/libutils/ext/snprintk.c:473
     c10:	d1d6      	bne.n	bc0 <kprintf.constprop.0+0x4cc>
     c12:	f014 0140 	ands.w	r1, r4, #64	; 0x40
     c16:	d0d3      	beq.n	bc0 <kprintf.constprop.0+0x4cc>
     c18:	b280      	uxth	r0, r0
     c1a:	4619      	mov	r1, r3
     c1c:	e7d0      	b.n	bc0 <kprintf.constprop.0+0x4cc>
/home/aom1/Work/Linux/target/STM32MP1-DK2/bootloader/optee-os-custom/lib/libutils/ext/snprintk.c:297
     c1e:	4a54      	ldr	r2, [pc, #336]	; (d70 <kprintf.constprop.0+0x67c>)
     c20:	447a      	add	r2, pc
     c22:	3211      	adds	r2, #17
/home/aom1/Work/Linux/target/STM32MP1-DK2/bootloader/optee-os-custom/lib/libutils/ext/snprintk.c:480
     c24:	920f      	str	r2, [sp, #60]	; 0x3c
/home/aom1/Work/Linux/target/STM32MP1-DK2/bootloader/optee-os-custom/lib/libutils/ext/snprintk.c:481
     c26:	f014 0280 	ands.w	r2, r4, #128	; 0x80
     c2a:	d00a      	beq.n	c42 <kprintf.constprop.0+0x54e>
     c2c:	3307      	adds	r3, #7
     c2e:	f023 0307 	bic.w	r3, r3, #7
     c32:	461d      	mov	r5, r3
     c34:	6859      	ldr	r1, [r3, #4]
     c36:	f855 0b08 	ldr.w	r0, [r5], #8
     c3a:	e009      	b.n	c50 <kprintf.constprop.0+0x55c>
/home/aom1/Work/Linux/target/STM32MP1-DK2/bootloader/optee-os-custom/lib/libutils/ext/snprintk.c:480
     c3c:	4a4d      	ldr	r2, [pc, #308]	; (d74 <kprintf.constprop.0+0x680>)
     c3e:	447a      	add	r2, pc
     c40:	e7f0      	b.n	c24 <kprintf.constprop.0+0x530>
/home/aom1/Work/Linux/target/STM32MP1-DK2/bootloader/optee-os-custom/lib/libutils/ext/snprintk.c:481
     c42:	f414 7180 	ands.w	r1, r4, #256	; 0x100
     c46:	d00f      	beq.n	c68 <kprintf.constprop.0+0x574>
     c48:	461d      	mov	r5, r3
     c4a:	4611      	mov	r1, r2
     c4c:	f855 0b04 	ldr.w	r0, [r5], #4
/home/aom1/Work/Linux/target/STM32MP1-DK2/bootloader/optee-os-custom/lib/libutils/ext/snprintk.c:484
     c50:	07e3      	lsls	r3, r4, #31
     c52:	f57f af75 	bpl.w	b40 <kprintf.constprop.0+0x44c>
     c56:	ea50 0301 	orrs.w	r3, r0, r1
/home/aom1/Work/Linux/target/STM32MP1-DK2/bootloader/optee-os-custom/lib/libutils/ext/snprintk.c:488
     c5a:	f04f 0800 	mov.w	r8, #0
/home/aom1/Work/Linux/target/STM32MP1-DK2/bootloader/optee-os-custom/lib/libutils/ext/snprintk.c:485
     c5e:	bf18      	it	ne
     c60:	f044 0402 	orrne.w	r4, r4, #2
/home/aom1/Work/Linux/target/STM32MP1-DK2/bootloader/optee-os-custom/lib/libutils/ext/snprintk.c:482
     c64:	2302      	movs	r3, #2
     c66:	e64f      	b.n	908 <kprintf.constprop.0+0x214>
/home/aom1/Work/Linux/target/STM32MP1-DK2/bootloader/optee-os-custom/lib/libutils/ext/snprintk.c:481
     c68:	05a2      	lsls	r2, r4, #22
     c6a:	d503      	bpl.n	c74 <kprintf.constprop.0+0x580>
     c6c:	461d      	mov	r5, r3
     c6e:	f855 0b04 	ldr.w	r0, [r5], #4
     c72:	e7ed      	b.n	c50 <kprintf.constprop.0+0x55c>
     c74:	f014 0120 	ands.w	r1, r4, #32
     c78:	d1d8      	bne.n	c2c <kprintf.constprop.0+0x538>
/home/aom1/Work/Linux/target/STM32MP1-DK2/bootloader/optee-os-custom/lib/libutils/ext/snprintk.c:317
     c7a:	461d      	mov	r5, r3
/home/aom1/Work/Linux/target/STM32MP1-DK2/bootloader/optee-os-custom/lib/libutils/ext/snprintk.c:481
     c7c:	f014 0310 	ands.w	r3, r4, #16
/home/aom1/Work/Linux/target/STM32MP1-DK2/bootloader/optee-os-custom/lib/libutils/ext/snprintk.c:317
     c80:	f855 0b04 	ldr.w	r0, [r5], #4
/home/aom1/Work/Linux/target/STM32MP1-DK2/bootloader/optee-os-custom/lib/libutils/ext/snprintk.c:481
     c84:	d1e4      	bne.n	c50 <kprintf.constprop.0+0x55c>
     c86:	f014 0140 	ands.w	r1, r4, #64	; 0x40
     c8a:	bf1c      	itt	ne
     c8c:	b280      	uxthne	r0, r0
     c8e:	4619      	movne	r1, r3
     c90:	e7de      	b.n	c50 <kprintf.constprop.0+0x55c>
/home/aom1/Work/Linux/target/STM32MP1-DK2/bootloader/optee-os-custom/lib/libutils/ext/snprintk.c:494
     c92:	2302      	movs	r3, #2
     c94:	e6ff      	b.n	a96 <kprintf.constprop.0+0x3a2>
     c96:	2301      	movs	r3, #1
     c98:	e6fd      	b.n	a96 <kprintf.constprop.0+0x3a2>
/home/aom1/Work/Linux/target/STM32MP1-DK2/bootloader/optee-os-custom/lib/libutils/ext/snprintk.c:523
     c9a:	220a      	movs	r2, #10
     c9c:	2300      	movs	r3, #0
     c9e:	f000 e884 	blx	da8 <__aeabi_uldivmod>
     ca2:	9b10      	ldr	r3, [sp, #64]	; 0x40
     ca4:	3230      	adds	r2, #48	; 0x30
/home/aom1/Work/Linux/target/STM32MP1-DK2/bootloader/optee-os-custom/lib/libutils/ext/snprintk.c:524
     ca6:	f8cd a040 	str.w	sl, [sp, #64]	; 0x40
/home/aom1/Work/Linux/target/STM32MP1-DK2/bootloader/optee-os-custom/lib/libutils/ext/snprintk.c:523
     caa:	f803 2c01 	strb.w	r2, [r3, #-1]
     cae:	9b10      	ldr	r3, [sp, #64]	; 0x40
/home/aom1/Work/Linux/target/STM32MP1-DK2/bootloader/optee-os-custom/lib/libutils/ext/snprintk.c:522
     cb0:	280a      	cmp	r0, #10
/home/aom1/Work/Linux/target/STM32MP1-DK2/bootloader/optee-os-custom/lib/libutils/ext/snprintk.c:523
     cb2:	f103 3aff 	add.w	sl, r3, #4294967295	; 0xffffffff
/home/aom1/Work/Linux/target/STM32MP1-DK2/bootloader/optee-os-custom/lib/libutils/ext/snprintk.c:522
     cb6:	f171 0300 	sbcs.w	r3, r1, #0
     cba:	d2ee      	bcs.n	c9a <kprintf.constprop.0+0x5a6>
/home/aom1/Work/Linux/target/STM32MP1-DK2/bootloader/optee-os-custom/lib/libutils/ext/snprintk.c:526
     cbc:	9b10      	ldr	r3, [sp, #64]	; 0x40
     cbe:	3030      	adds	r0, #48	; 0x30
     cc0:	f803 0c01 	strb.w	r0, [r3, #-1]
/home/aom1/Work/Linux/target/STM32MP1-DK2/bootloader/optee-os-custom/lib/libutils/ext/snprintk.c:527
     cc4:	e642      	b.n	94c <kprintf.constprop.0+0x258>
/home/aom1/Work/Linux/target/STM32MP1-DK2/bootloader/optee-os-custom/lib/libutils/ext/snprintk.c:547
     cc6:	f1bb 0f00 	cmp.w	fp, #0
     cca:	f43f ad27 	beq.w	71c <kprintf.constprop.0+0x28>
     cce:	e5a2      	b.n	816 <kprintf.constprop.0+0x122>
/home/aom1/Work/Linux/target/STM32MP1-DK2/bootloader/optee-os-custom/lib/libutils/ext/snprintk.c:574
     cd0:	07a2      	lsls	r2, r4, #30
/home/aom1/Work/Linux/target/STM32MP1-DK2/bootloader/optee-os-custom/lib/libutils/ext/snprintk.c:575
     cd2:	bf48      	it	mi
     cd4:	3302      	addmi	r3, #2
     cd6:	e647      	b.n	968 <kprintf.constprop.0+0x274>
/home/aom1/Work/Linux/target/STM32MP1-DK2/bootloader/optee-os-custom/lib/libutils/ext/snprintk.c:584
     cd8:	b136      	cbz	r6, ce8 <kprintf.constprop.0+0x5f4>
     cda:	990c      	ldr	r1, [sp, #48]	; 0x30
     cdc:	b111      	cbz	r1, ce4 <kprintf.constprop.0+0x5f0>
     cde:	990e      	ldr	r1, [sp, #56]	; 0x38
     ce0:	42b1      	cmp	r1, r6
     ce2:	d901      	bls.n	ce8 <kprintf.constprop.0+0x5f4>
     ce4:	f806 cb01 	strb.w	ip, [r6], #1
     ce8:	3a01      	subs	r2, #1
     cea:	e64d      	b.n	988 <kprintf.constprop.0+0x294>
/home/aom1/Work/Linux/target/STM32MP1-DK2/bootloader/optee-os-custom/lib/libutils/ext/snprintk.c:590
     cec:	07a1      	lsls	r1, r4, #30
     cee:	f57f ae5a 	bpl.w	9a6 <kprintf.constprop.0+0x2b2>
/home/aom1/Work/Linux/target/STM32MP1-DK2/bootloader/optee-os-custom/lib/libutils/ext/snprintk.c:591
     cf2:	2e00      	cmp	r6, #0
     cf4:	f43f ae57 	beq.w	9a6 <kprintf.constprop.0+0x2b2>
     cf8:	9a0c      	ldr	r2, [sp, #48]	; 0x30
     cfa:	b11a      	cbz	r2, d04 <kprintf.constprop.0+0x610>
     cfc:	9a0e      	ldr	r2, [sp, #56]	; 0x38
     cfe:	42b2      	cmp	r2, r6
     d00:	f67f ae51 	bls.w	9a6 <kprintf.constprop.0+0x2b2>
     d04:	2230      	movs	r2, #48	; 0x30
     d06:	7032      	strb	r2, [r6, #0]
/home/aom1/Work/Linux/target/STM32MP1-DK2/bootloader/optee-os-custom/lib/libutils/ext/snprintk.c:592
     d08:	9a0c      	ldr	r2, [sp, #48]	; 0x30
     d0a:	b11a      	cbz	r2, d14 <kprintf.constprop.0+0x620>
     d0c:	990e      	ldr	r1, [sp, #56]	; 0x38
/home/aom1/Work/Linux/target/STM32MP1-DK2/bootloader/optee-os-custom/lib/libutils/ext/snprintk.c:591
     d0e:	1c72      	adds	r2, r6, #1
/home/aom1/Work/Linux/target/STM32MP1-DK2/bootloader/optee-os-custom/lib/libutils/ext/snprintk.c:592
     d10:	4291      	cmp	r1, r2
     d12:	d903      	bls.n	d1c <kprintf.constprop.0+0x628>
     d14:	f886 b001 	strb.w	fp, [r6, #1]
     d18:	3602      	adds	r6, #2
     d1a:	e644      	b.n	9a6 <kprintf.constprop.0+0x2b2>
     d1c:	4616      	mov	r6, r2
     d1e:	e642      	b.n	9a6 <kprintf.constprop.0+0x2b2>
/home/aom1/Work/Linux/target/STM32MP1-DK2/bootloader/optee-os-custom/lib/libutils/ext/snprintk.c:599
     d20:	b136      	cbz	r6, d30 <kprintf.constprop.0+0x63c>
     d22:	990c      	ldr	r1, [sp, #48]	; 0x30
     d24:	b111      	cbz	r1, d2c <kprintf.constprop.0+0x638>
     d26:	990e      	ldr	r1, [sp, #56]	; 0x38
     d28:	42b1      	cmp	r1, r6
     d2a:	d901      	bls.n	d30 <kprintf.constprop.0+0x63c>
     d2c:	f806 cb01 	strb.w	ip, [r6], #1
     d30:	3a01      	subs	r2, #1
     d32:	e63f      	b.n	9b4 <kprintf.constprop.0+0x2c0>
/home/aom1/Work/Linux/target/STM32MP1-DK2/bootloader/optee-os-custom/lib/libutils/ext/snprintk.c:605
     d34:	b136      	cbz	r6, d44 <kprintf.constprop.0+0x650>
     d36:	990c      	ldr	r1, [sp, #48]	; 0x30
     d38:	b111      	cbz	r1, d40 <kprintf.constprop.0+0x64c>
     d3a:	990e      	ldr	r1, [sp, #56]	; 0x38
     d3c:	42b1      	cmp	r1, r6
     d3e:	d901      	bls.n	d44 <kprintf.constprop.0+0x650>
     d40:	f806 2b01 	strb.w	r2, [r6], #1
     d44:	3801      	subs	r0, #1
     d46:	e63b      	b.n	9c0 <kprintf.constprop.0+0x2cc>
/home/aom1/Work/Linux/target/STM32MP1-DK2/bootloader/optee-os-custom/lib/libutils/ext/snprintk.c:609
     d48:	b146      	cbz	r6, d5c <kprintf.constprop.0+0x668>
     d4a:	9a0c      	ldr	r2, [sp, #48]	; 0x30
     d4c:	b112      	cbz	r2, d54 <kprintf.constprop.0+0x660>
     d4e:	9a0e      	ldr	r2, [sp, #56]	; 0x38
     d50:	42b2      	cmp	r2, r6
     d52:	d903      	bls.n	d5c <kprintf.constprop.0+0x668>
     d54:	f89a 2000 	ldrb.w	r2, [sl]
     d58:	f806 2b01 	strb.w	r2, [r6], #1
/home/aom1/Work/Linux/target/STM32MP1-DK2/bootloader/optee-os-custom/lib/libutils/ext/snprintk.c:608
     d5c:	f10a 0a01 	add.w	sl, sl, #1
     d60:	e632      	b.n	9c8 <kprintf.constprop.0+0x2d4>
     d62:	bf00      	nop
     d64:	00008fcd 	.word	0x00008fcd
     d68:	00008fc2 	.word	0x00008fc2
     d6c:	00008f4a 	.word	0x00008f4a
     d70:	00008ede 	.word	0x00008ede
     d74:	00008ec0 	.word	0x00008ec0

00000d78 <__vsprintf>:
__vsprintf():
/home/aom1/Work/Linux/target/STM32MP1-DK2/bootloader/optee-os-custom/lib/libutils/ext/snprintk.c:155
     d78:	b513      	push	{r0, r1, r4, lr}
     d7a:	4604      	mov	r4, r0
     d7c:	4608      	mov	r0, r1
/home/aom1/Work/Linux/target/STM32MP1-DK2/bootloader/optee-os-custom/lib/libutils/ext/snprintk.c:156
     d7e:	2100      	movs	r1, #0
     d80:	9100      	str	r1, [sp, #0]
/home/aom1/Work/Linux/target/STM32MP1-DK2/bootloader/optee-os-custom/lib/libutils/ext/snprintk.c:155
     d82:	4613      	mov	r3, r2
/home/aom1/Work/Linux/target/STM32MP1-DK2/bootloader/optee-os-custom/lib/libutils/ext/snprintk.c:156
     d84:	4622      	mov	r2, r4
     d86:	f7ff fcb5 	bl	6f4 <kprintf.constprop.0>
/home/aom1/Work/Linux/target/STM32MP1-DK2/bootloader/optee-os-custom/lib/libutils/ext/snprintk.c:157
     d8a:	b002      	add	sp, #8
     d8c:	bd10      	pop	{r4, pc}
     d8e:	bf00      	nop

00000d90 <__aeabi_ldivmod>:
__aeabi_ldivmod():
/home/aom1/Work/Linux/target/STM32MP1-DK2/bootloader/optee-os-custom/lib/libutils/isoc/arch/arm/arm32_aeabi_ldivmod_a32.S:12
     d90:	e92d5000 	push	{ip, lr}
/home/aom1/Work/Linux/target/STM32MP1-DK2/bootloader/optee-os-custom/lib/libutils/isoc/arch/arm/arm32_aeabi_ldivmod_a32.S:14
     d94:	e92d000f 	push	{r0, r1, r2, r3}
/home/aom1/Work/Linux/target/STM32MP1-DK2/bootloader/optee-os-custom/lib/libutils/isoc/arch/arm/arm32_aeabi_ldivmod_a32.S:16
     d98:	e1a0000d 	mov	r0, sp
/home/aom1/Work/Linux/target/STM32MP1-DK2/bootloader/optee-os-custom/lib/libutils/isoc/arch/arm/arm32_aeabi_ldivmod_a32.S:17
     d9c:	fb002190 	blx	93e6 <__l_divmod>
/home/aom1/Work/Linux/target/STM32MP1-DK2/bootloader/optee-os-custom/lib/libutils/isoc/arch/arm/arm32_aeabi_ldivmod_a32.S:18
     da0:	e8bd000f 	pop	{r0, r1, r2, r3}
/home/aom1/Work/Linux/target/STM32MP1-DK2/bootloader/optee-os-custom/lib/libutils/isoc/arch/arm/arm32_aeabi_ldivmod_a32.S:19
     da4:	e8bd9000 	pop	{ip, pc}

00000da8 <__aeabi_uldivmod>:
__aeabi_uldivmod():
/home/aom1/Work/Linux/target/STM32MP1-DK2/bootloader/optee-os-custom/lib/libutils/isoc/arch/arm/arm32_aeabi_ldivmod_a32.S:27
     da8:	e92d5000 	push	{ip, lr}
/home/aom1/Work/Linux/target/STM32MP1-DK2/bootloader/optee-os-custom/lib/libutils/isoc/arch/arm/arm32_aeabi_ldivmod_a32.S:29
     dac:	e92d000f 	push	{r0, r1, r2, r3}
/home/aom1/Work/Linux/target/STM32MP1-DK2/bootloader/optee-os-custom/lib/libutils/isoc/arch/arm/arm32_aeabi_ldivmod_a32.S:31
     db0:	e1a0000d 	mov	r0, sp
/home/aom1/Work/Linux/target/STM32MP1-DK2/bootloader/optee-os-custom/lib/libutils/isoc/arch/arm/arm32_aeabi_ldivmod_a32.S:32
     db4:	fa00217c 	blx	93ac <__ul_divmod>
/home/aom1/Work/Linux/target/STM32MP1-DK2/bootloader/optee-os-custom/lib/libutils/isoc/arch/arm/arm32_aeabi_ldivmod_a32.S:33
     db8:	e8bd000f 	pop	{r0, r1, r2, r3}
/home/aom1/Work/Linux/target/STM32MP1-DK2/bootloader/optee-os-custom/lib/libutils/isoc/arch/arm/arm32_aeabi_ldivmod_a32.S:34
     dbc:	e8bd9000 	pop	{ip, pc}

00000dc0 <_assert_log>:
_assert_log():
/home/aom1/Work/Linux/target/STM32MP1-DK2/bootloader/optee-os-custom/lib/libutee/assert.c:17
     dc0:	b57f      	push	{r0, r1, r2, r3, r4, r5, r6, lr}
/home/aom1/Work/Linux/target/STM32MP1-DK2/bootloader/optee-os-custom/lib/libutee/assert.c:18
     dc2:	9304      	str	r3, [sp, #16]
     dc4:	4b07      	ldr	r3, [pc, #28]	; (de4 <_assert_log+0x24>)
     dc6:	9102      	str	r1, [sp, #8]
     dc8:	2100      	movs	r1, #0
     dca:	447b      	add	r3, pc
     dcc:	9300      	str	r3, [sp, #0]
     dce:	2301      	movs	r3, #1
     dd0:	9203      	str	r2, [sp, #12]
     dd2:	461a      	mov	r2, r3
     dd4:	9001      	str	r0, [sp, #4]
     dd6:	4608      	mov	r0, r1
     dd8:	f7ff fc52 	bl	680 <trace_printf>
/home/aom1/Work/Linux/target/STM32MP1-DK2/bootloader/optee-os-custom/lib/libutee/assert.c:20
     ddc:	b007      	add	sp, #28
     dde:	f85d fb04 	ldr.w	pc, [sp], #4
     de2:	bf00      	nop
     de4:	00008d56 	.word	0x00008d56

00000de8 <_assert_break>:
_assert_break():
/home/aom1/Work/Linux/target/STM32MP1-DK2/bootloader/optee-os-custom/lib/libutee/assert.c:24
     de8:	4802      	ldr	r0, [pc, #8]	; (df4 <_assert_break+0xc>)
/home/aom1/Work/Linux/target/STM32MP1-DK2/bootloader/optee-os-custom/lib/libutee/assert.c:23
     dea:	b508      	push	{r3, lr}
/home/aom1/Work/Linux/target/STM32MP1-DK2/bootloader/optee-os-custom/lib/libutee/assert.c:24
     dec:	f003 e8ae 	blx	3f4c <_utee_panic>
/home/aom1/Work/Linux/target/STM32MP1-DK2/bootloader/optee-os-custom/lib/libutee/assert.c:26 (discriminator 1)
     df0:	e7fe      	b.n	df0 <_assert_break+0x8>
     df2:	bf00      	nop
     df4:	ffff0000 	.word	0xffff0000

00000df8 <trace_ext_puts>:
trace_ext_puts():
/home/aom1/Work/Linux/target/STM32MP1-DK2/bootloader/optee-os-custom/lib/libutee/trace_ext.c:22
     df8:	b510      	push	{r4, lr}
     dfa:	4604      	mov	r4, r0
/home/aom1/Work/Linux/target/STM32MP1-DK2/bootloader/optee-os-custom/lib/libutee/trace_ext.c:26
     dfc:	f008 fa89 	bl	9312 <strlen>
     e00:	4601      	mov	r1, r0
     e02:	4620      	mov	r0, r4
/home/aom1/Work/Linux/target/STM32MP1-DK2/bootloader/optee-os-custom/lib/libutee/trace_ext.c:28
     e04:	e8bd 4010 	ldmia.w	sp!, {r4, lr}
/home/aom1/Work/Linux/target/STM32MP1-DK2/bootloader/optee-os-custom/lib/libutee/trace_ext.c:26
     e08:	f008 bba2 	b.w	9550 <___utee_log_from_thumb>

00000e0c <trace_ext_get_thread_id>:
trace_ext_get_thread_id():
/home/aom1/Work/Linux/target/STM32MP1-DK2/bootloader/optee-os-custom/lib/libutee/trace_ext.c:33
     e0c:	f04f 30ff 	mov.w	r0, #4294967295	; 0xffffffff
     e10:	4770      	bx	lr

00000e12 <printf>:
printf():
/home/aom1/Work/Linux/target/STM32MP1-DK2/bootloader/optee-os-custom/lib/libutee/trace_ext.c:41
     e12:	b40f      	push	{r0, r1, r2, r3}
     e14:	b530      	push	{r4, r5, lr}
     e16:	b0c3      	sub	sp, #268	; 0x10c
/home/aom1/Work/Linux/target/STM32MP1-DK2/bootloader/optee-os-custom/lib/libutee/trace_ext.c:46
     e18:	f7ff fb8c 	bl	534 <trace_get_level>
     e1c:	2800      	cmp	r0, #0
     e1e:	dd13      	ble.n	e48 <printf+0x36>
/home/aom1/Work/Linux/target/STM32MP1-DK2/bootloader/optee-os-custom/lib/libutee/trace_ext.c:50
     e20:	9a46      	ldr	r2, [sp, #280]	; 0x118
     e22:	ad02      	add	r5, sp, #8
/home/aom1/Work/Linux/target/STM32MP1-DK2/bootloader/optee-os-custom/lib/libutee/trace_ext.c:49
     e24:	ab47      	add	r3, sp, #284	; 0x11c
/home/aom1/Work/Linux/target/STM32MP1-DK2/bootloader/optee-os-custom/lib/libutee/trace_ext.c:50
     e26:	f44f 7180 	mov.w	r1, #256	; 0x100
/home/aom1/Work/Linux/target/STM32MP1-DK2/bootloader/optee-os-custom/lib/libutee/trace_ext.c:49
     e2a:	9301      	str	r3, [sp, #4]
/home/aom1/Work/Linux/target/STM32MP1-DK2/bootloader/optee-os-custom/lib/libutee/trace_ext.c:50
     e2c:	4628      	mov	r0, r5
     e2e:	f008 fb22 	bl	9476 <vsnprintf>
/home/aom1/Work/Linux/target/STM32MP1-DK2/bootloader/optee-os-custom/lib/libutee/trace_ext.c:53
     e32:	1e04      	subs	r4, r0, #0
     e34:	db02      	blt.n	e3c <printf+0x2a>
/home/aom1/Work/Linux/target/STM32MP1-DK2/bootloader/optee-os-custom/lib/libutee/trace_ext.c:56
     e36:	4628      	mov	r0, r5
     e38:	f7ff ffde 	bl	df8 <trace_ext_puts>
/home/aom1/Work/Linux/target/STM32MP1-DK2/bootloader/optee-os-custom/lib/libutee/trace_ext.c:59
     e3c:	4620      	mov	r0, r4
     e3e:	b043      	add	sp, #268	; 0x10c
     e40:	e8bd 4030 	ldmia.w	sp!, {r4, r5, lr}
     e44:	b004      	add	sp, #16
     e46:	4770      	bx	lr
/home/aom1/Work/Linux/target/STM32MP1-DK2/bootloader/optee-os-custom/lib/libutee/trace_ext.c:47
     e48:	2400      	movs	r4, #0
     e4a:	e7f7      	b.n	e3c <printf+0x2a>

00000e4c <puts>:
puts():
/home/aom1/Work/Linux/target/STM32MP1-DK2/bootloader/optee-os-custom/lib/libutee/trace_ext.c:62
     e4c:	b510      	push	{r4, lr}
     e4e:	4604      	mov	r4, r0
/home/aom1/Work/Linux/target/STM32MP1-DK2/bootloader/optee-os-custom/lib/libutee/trace_ext.c:63
     e50:	f7ff fb70 	bl	534 <trace_get_level>
     e54:	2800      	cmp	r0, #0
     e56:	dd06      	ble.n	e66 <puts+0x1a>
/home/aom1/Work/Linux/target/STM32MP1-DK2/bootloader/optee-os-custom/lib/libutee/trace_ext.c:64
     e58:	4620      	mov	r0, r4
     e5a:	f7ff ffcd 	bl	df8 <trace_ext_puts>
/home/aom1/Work/Linux/target/STM32MP1-DK2/bootloader/optee-os-custom/lib/libutee/trace_ext.c:65
     e5e:	4803      	ldr	r0, [pc, #12]	; (e6c <puts+0x20>)
     e60:	4478      	add	r0, pc
     e62:	f7ff ffc9 	bl	df8 <trace_ext_puts>
/home/aom1/Work/Linux/target/STM32MP1-DK2/bootloader/optee-os-custom/lib/libutee/trace_ext.c:68
     e66:	2001      	movs	r0, #1
     e68:	bd10      	pop	{r4, pc}
     e6a:	bf00      	nop
     e6c:	00009564 	.word	0x00009564

00000e70 <putchar>:
putchar():
/home/aom1/Work/Linux/target/STM32MP1-DK2/bootloader/optee-os-custom/lib/libutee/trace_ext.c:71
     e70:	b513      	push	{r0, r1, r4, lr}
/home/aom1/Work/Linux/target/STM32MP1-DK2/bootloader/optee-os-custom/lib/libutee/trace_ext.c:72
     e72:	2300      	movs	r3, #0
     e74:	f88d 0004 	strb.w	r0, [sp, #4]
/home/aom1/Work/Linux/target/STM32MP1-DK2/bootloader/optee-os-custom/lib/libutee/trace_ext.c:71
     e78:	4604      	mov	r4, r0
/home/aom1/Work/Linux/target/STM32MP1-DK2/bootloader/optee-os-custom/lib/libutee/trace_ext.c:72
     e7a:	f88d 3005 	strb.w	r3, [sp, #5]
/home/aom1/Work/Linux/target/STM32MP1-DK2/bootloader/optee-os-custom/lib/libutee/trace_ext.c:74
     e7e:	f7ff fb59 	bl	534 <trace_get_level>
     e82:	2800      	cmp	r0, #0
     e84:	dd02      	ble.n	e8c <putchar+0x1c>
/home/aom1/Work/Linux/target/STM32MP1-DK2/bootloader/optee-os-custom/lib/libutee/trace_ext.c:75
     e86:	a801      	add	r0, sp, #4
     e88:	f7ff ffb6 	bl	df8 <trace_ext_puts>
/home/aom1/Work/Linux/target/STM32MP1-DK2/bootloader/optee-os-custom/lib/libutee/trace_ext.c:82
     e8c:	b2e0      	uxtb	r0, r4
     e8e:	b002      	add	sp, #8
     e90:	bd10      	pop	{r4, pc}
     e92:	bf00      	nop

00000e94 <update_out_param>:
update_out_param():
/home/aom1/Work/Linux/target/STM32MP1-DK2/bootloader/optee-os-custom/lib/libutee/tee_api.c:121
     e94:	e92d 47f0 	stmdb	sp!, {r4, r5, r6, r7, r8, r9, sl, lr}
     e98:	4607      	mov	r7, r0
/home/aom1/Work/Linux/target/STM32MP1-DK2/bootloader/optee-os-custom/lib/libutee/tee_api.c:123
     e9a:	f8d2 a000 	ldr.w	sl, [r2]
/home/aom1/Work/Linux/target/STM32MP1-DK2/bootloader/optee-os-custom/lib/libutee/tee_api.c:121
     e9e:	4688      	mov	r8, r1
     ea0:	4614      	mov	r4, r2
     ea2:	4606      	mov	r6, r0
/home/aom1/Work/Linux/target/STM32MP1-DK2/bootloader/optee-os-custom/lib/libutee/tee_api.c:123
     ea4:	2500      	movs	r5, #0
/home/aom1/Work/Linux/target/STM32MP1-DK2/bootloader/optee-os-custom/lib/libutee/tee_api.c:129
     ea6:	fa2a f205 	lsr.w	r2, sl, r5
/home/aom1/Work/Linux/target/STM32MP1-DK2/bootloader/optee-os-custom/lib/libutee/tee_api.c:126
     eaa:	68a1      	ldr	r1, [r4, #8]
/home/aom1/Work/Linux/target/STM32MP1-DK2/bootloader/optee-os-custom/lib/libutee/tee_api.c:129
     eac:	f012 0f0c 	tst.w	r2, #12
/home/aom1/Work/Linux/target/STM32MP1-DK2/bootloader/optee-os-custom/lib/libutee/tee_api.c:127
     eb0:	f8d4 9010 	ldr.w	r9, [r4, #16]
/home/aom1/Work/Linux/target/STM32MP1-DK2/bootloader/optee-os-custom/lib/libutee/tee_api.c:129
     eb4:	f002 030f 	and.w	r3, r2, #15
     eb8:	d107      	bne.n	eca <update_out_param+0x36>
     eba:	f012 0f0e 	tst.w	r2, #14
     ebe:	d007      	beq.n	ed0 <update_out_param+0x3c>
/home/aom1/Work/Linux/target/STM32MP1-DK2/bootloader/optee-os-custom/lib/libutee/tee_api.c:126
     ec0:	f847 1015 	str.w	r1, [r7, r5, lsl #1]
/home/aom1/Work/Linux/target/STM32MP1-DK2/bootloader/optee-os-custom/lib/libutee/tee_api.c:140
     ec4:	f8c6 9004 	str.w	r9, [r6, #4]
/home/aom1/Work/Linux/target/STM32MP1-DK2/bootloader/optee-os-custom/lib/libutee/tee_api.c:141
     ec8:	e002      	b.n	ed0 <update_out_param+0x3c>
/home/aom1/Work/Linux/target/STM32MP1-DK2/bootloader/optee-os-custom/lib/libutee/tee_api.c:129
     eca:	3b06      	subs	r3, #6
     ecc:	2b01      	cmp	r3, #1
     ece:	d907      	bls.n	ee0 <update_out_param+0x4c>
/home/aom1/Work/Linux/target/STM32MP1-DK2/bootloader/optee-os-custom/lib/libutee/tee_api.c:125 (discriminator 2)
     ed0:	3504      	adds	r5, #4
     ed2:	3410      	adds	r4, #16
     ed4:	2d10      	cmp	r5, #16
     ed6:	f106 0608 	add.w	r6, r6, #8
     eda:	d1e4      	bne.n	ea6 <update_out_param+0x12>
/home/aom1/Work/Linux/target/STM32MP1-DK2/bootloader/optee-os-custom/lib/libutee/tee_api.c:146
     edc:	e8bd 87f0 	ldmia.w	sp!, {r4, r5, r6, r7, r8, r9, sl, pc}
/home/aom1/Work/Linux/target/STM32MP1-DK2/bootloader/optee-os-custom/lib/libutee/tee_api.c:137
     ee0:	f858 1005 	ldr.w	r1, [r8, r5]
     ee4:	2900      	cmp	r1, #0
     ee6:	d0ed      	beq.n	ec4 <update_out_param+0x30>
/home/aom1/Work/Linux/target/STM32MP1-DK2/bootloader/optee-os-custom/lib/libutee/tee_api.c:139
     ee8:	6872      	ldr	r2, [r6, #4]
/home/aom1/Work/Linux/target/STM32MP1-DK2/bootloader/optee-os-custom/lib/libutee/tee_api.c:138
     eea:	f857 0015 	ldr.w	r0, [r7, r5, lsl #1]
     eee:	454a      	cmp	r2, r9
     ef0:	bf28      	it	cs
     ef2:	464a      	movcs	r2, r9
     ef4:	f7ff faa4 	bl	440 <memcpy>
     ef8:	e7e4      	b.n	ec4 <update_out_param+0x30>

00000efa <TEE_CloseTASession>:
TEE_CloseTASession():
/home/aom1/Work/Linux/target/STM32MP1-DK2/bootloader/optee-os-custom/lib/libutee/tee_api.c:195
     efa:	b508      	push	{r3, lr}
/home/aom1/Work/Linux/target/STM32MP1-DK2/bootloader/optee-os-custom/lib/libutee/tee_api.c:196
     efc:	b130      	cbz	r0, f0c <TEE_CloseTASession+0x12>
/home/aom1/Work/Linux/target/STM32MP1-DK2/bootloader/optee-os-custom/lib/libutee/tee_api.c:197
     efe:	f003 e870 	blx	3fe0 <_utee_close_ta_session>
/home/aom1/Work/Linux/target/STM32MP1-DK2/bootloader/optee-os-custom/lib/libutee/tee_api.c:199
     f02:	b118      	cbz	r0, f0c <TEE_CloseTASession+0x12>
/home/aom1/Work/Linux/target/STM32MP1-DK2/bootloader/optee-os-custom/lib/libutee/tee_api.c:202
     f04:	e8bd 4008 	ldmia.w	sp!, {r3, lr}
/home/aom1/Work/Linux/target/STM32MP1-DK2/bootloader/optee-os-custom/lib/libutee/tee_api.c:200
     f08:	f002 bbe8 	b.w	36dc <TEE_Panic>
/home/aom1/Work/Linux/target/STM32MP1-DK2/bootloader/optee-os-custom/lib/libutee/tee_api.c:202
     f0c:	bd08      	pop	{r3, pc}

00000f0e <TEE_GetCancellationFlag>:
TEE_GetCancellationFlag():
/home/aom1/Work/Linux/target/STM32MP1-DK2/bootloader/optee-os-custom/lib/libutee/tee_api.c:257
     f0e:	b507      	push	{r0, r1, r2, lr}
/home/aom1/Work/Linux/target/STM32MP1-DK2/bootloader/optee-os-custom/lib/libutee/tee_api.c:259
     f10:	a801      	add	r0, sp, #4
     f12:	f003 e87c 	blx	400c <_utee_get_cancellation_flag>
/home/aom1/Work/Linux/target/STM32MP1-DK2/bootloader/optee-os-custom/lib/libutee/tee_api.c:261
     f16:	b108      	cbz	r0, f1c <TEE_GetCancellationFlag+0xe>
/home/aom1/Work/Linux/target/STM32MP1-DK2/bootloader/optee-os-custom/lib/libutee/tee_api.c:262
     f18:	2300      	movs	r3, #0
     f1a:	9301      	str	r3, [sp, #4]
/home/aom1/Work/Linux/target/STM32MP1-DK2/bootloader/optee-os-custom/lib/libutee/tee_api.c:264
     f1c:	9801      	ldr	r0, [sp, #4]
     f1e:	3800      	subs	r0, #0
     f20:	bf18      	it	ne
     f22:	2001      	movne	r0, #1
     f24:	b003      	add	sp, #12
     f26:	f85d fb04 	ldr.w	pc, [sp], #4

00000f2a <TEE_UnmaskCancellation>:
TEE_UnmaskCancellation():
/home/aom1/Work/Linux/target/STM32MP1-DK2/bootloader/optee-os-custom/lib/libutee/tee_api.c:267
     f2a:	b507      	push	{r0, r1, r2, lr}
/home/aom1/Work/Linux/target/STM32MP1-DK2/bootloader/optee-os-custom/lib/libutee/tee_api.c:269
     f2c:	a801      	add	r0, sp, #4
     f2e:	f003 e882 	blx	4034 <_utee_unmask_cancellation>
/home/aom1/Work/Linux/target/STM32MP1-DK2/bootloader/optee-os-custom/lib/libutee/tee_api.c:271
     f32:	b108      	cbz	r0, f38 <TEE_UnmaskCancellation+0xe>
/home/aom1/Work/Linux/target/STM32MP1-DK2/bootloader/optee-os-custom/lib/libutee/tee_api.c:272
     f34:	f002 fbd2 	bl	36dc <TEE_Panic>
/home/aom1/Work/Linux/target/STM32MP1-DK2/bootloader/optee-os-custom/lib/libutee/tee_api.c:274
     f38:	9801      	ldr	r0, [sp, #4]
     f3a:	3800      	subs	r0, #0
     f3c:	bf18      	it	ne
     f3e:	2001      	movne	r0, #1
     f40:	b003      	add	sp, #12
     f42:	f85d fb04 	ldr.w	pc, [sp], #4

00000f46 <TEE_MaskCancellation>:
TEE_MaskCancellation():
/home/aom1/Work/Linux/target/STM32MP1-DK2/bootloader/optee-os-custom/lib/libutee/tee_api.c:277
     f46:	b507      	push	{r0, r1, r2, lr}
/home/aom1/Work/Linux/target/STM32MP1-DK2/bootloader/optee-os-custom/lib/libutee/tee_api.c:279
     f48:	a801      	add	r0, sp, #4
     f4a:	f003 e87e 	blx	4048 <_utee_mask_cancellation>
/home/aom1/Work/Linux/target/STM32MP1-DK2/bootloader/optee-os-custom/lib/libutee/tee_api.c:281
     f4e:	b108      	cbz	r0, f54 <TEE_MaskCancellation+0xe>
/home/aom1/Work/Linux/target/STM32MP1-DK2/bootloader/optee-os-custom/lib/libutee/tee_api.c:282
     f50:	f002 fbc4 	bl	36dc <TEE_Panic>
/home/aom1/Work/Linux/target/STM32MP1-DK2/bootloader/optee-os-custom/lib/libutee/tee_api.c:284
     f54:	9801      	ldr	r0, [sp, #4]
     f56:	3800      	subs	r0, #0
     f58:	bf18      	it	ne
     f5a:	2001      	movne	r0, #1
     f5c:	b003      	add	sp, #12
     f5e:	f85d fb04 	ldr.w	pc, [sp], #4

00000f62 <TEE_CheckMemoryAccessRights>:
TEE_CheckMemoryAccessRights():
/home/aom1/Work/Linux/target/STM32MP1-DK2/bootloader/optee-os-custom/lib/libutee/tee_api.c:293
     f62:	b10a      	cbz	r2, f68 <TEE_CheckMemoryAccessRights+0x6>
/home/aom1/Work/Linux/target/STM32MP1-DK2/bootloader/optee-os-custom/lib/libutee/tee_api.c:297
     f64:	f008 bb04 	b.w	9570 <___utee_check_access_rights_from_thumb>
/home/aom1/Work/Linux/target/STM32MP1-DK2/bootloader/optee-os-custom/lib/libutee/tee_api.c:309
     f68:	4610      	mov	r0, r2
     f6a:	4770      	bx	lr

00000f6c <copy_param>:
copy_param():
/home/aom1/Work/Linux/target/STM32MP1-DK2/bootloader/optee-os-custom/lib/libutee/tee_api.c:29
     f6c:	e92d 4ff0 	stmdb	sp!, {r4, r5, r6, r7, r8, r9, sl, fp, lr}
/home/aom1/Work/Linux/target/STM32MP1-DK2/bootloader/optee-os-custom/lib/libutee/tee_api.c:34
     f70:	2500      	movs	r5, #0
/home/aom1/Work/Linux/target/STM32MP1-DK2/bootloader/optee-os-custom/lib/libutee/tee_api.c:29
     f72:	ed2d 8b02 	vpush	{d8}
/home/aom1/Work/Linux/target/STM32MP1-DK2/bootloader/optee-os-custom/lib/libutee/tee_api.c:45
     f76:	601d      	str	r5, [r3, #0]
/home/aom1/Work/Linux/target/STM32MP1-DK2/bootloader/optee-os-custom/lib/libutee/tee_api.c:29
     f78:	b085      	sub	sp, #20
     f7a:	4699      	mov	r9, r3
     f7c:	4604      	mov	r4, r0
/home/aom1/Work/Linux/target/STM32MP1-DK2/bootloader/optee-os-custom/lib/libutee/tee_api.c:46
     f7e:	9b10      	ldr	r3, [sp, #64]	; 0x40
/home/aom1/Work/Linux/target/STM32MP1-DK2/bootloader/optee-os-custom/lib/libutee/tee_api.c:29
     f80:	4688      	mov	r8, r1
/home/aom1/Work/Linux/target/STM32MP1-DK2/bootloader/optee-os-custom/lib/libutee/tee_api.c:34
     f82:	9503      	str	r5, [sp, #12]
/home/aom1/Work/Linux/target/STM32MP1-DK2/bootloader/optee-os-custom/lib/libutee/tee_api.c:29
     f84:	4617      	mov	r7, r2
/home/aom1/Work/Linux/target/STM32MP1-DK2/bootloader/optee-os-custom/lib/libutee/tee_api.c:46
     f86:	601d      	str	r5, [r3, #0]
/home/aom1/Work/Linux/target/STM32MP1-DK2/bootloader/optee-os-custom/lib/libutee/tee_api.c:47
     f88:	462e      	mov	r6, r5
/home/aom1/Work/Linux/target/STM32MP1-DK2/bootloader/optee-os-custom/lib/libutee/tee_api.c:48
     f8a:	462b      	mov	r3, r5
/home/aom1/Work/Linux/target/STM32MP1-DK2/bootloader/optee-os-custom/lib/libutee/tee_api.c:54
     f8c:	f102 0b04 	add.w	fp, r2, #4
/home/aom1/Work/Linux/target/STM32MP1-DK2/bootloader/optee-os-custom/lib/libutee/tee_api.c:65
     f90:	f04f 0a01 	mov.w	sl, #1
/home/aom1/Work/Linux/target/STM32MP1-DK2/bootloader/optee-os-custom/lib/libutee/tee_api.c:48
     f94:	9a11      	ldr	r2, [sp, #68]	; 0x44
     f96:	f842 3026 	str.w	r3, [r2, r6, lsl #2]
/home/aom1/Work/Linux/target/STM32MP1-DK2/bootloader/optee-os-custom/lib/libutee/tee_api.c:49
     f9a:	00b2      	lsls	r2, r6, #2
     f9c:	fa28 f202 	lsr.w	r2, r8, r2
     fa0:	f002 020f 	and.w	r2, r2, #15
     fa4:	3a05      	subs	r2, #5
     fa6:	2a02      	cmp	r2, #2
     fa8:	d813      	bhi.n	fd2 <copy_param+0x66>
/home/aom1/Work/Linux/target/STM32MP1-DK2/bootloader/optee-os-custom/lib/libutee/tee_api.c:53
     faa:	f857 1036 	ldr.w	r1, [r7, r6, lsl #3]
/home/aom1/Work/Linux/target/STM32MP1-DK2/bootloader/optee-os-custom/lib/libutee/tee_api.c:64
     fae:	b181      	cbz	r1, fd2 <copy_param+0x66>
/home/aom1/Work/Linux/target/STM32MP1-DK2/bootloader/optee-os-custom/lib/libutee/tee_api.c:54 (discriminator 1)
     fb0:	f85b 2036 	ldr.w	r2, [fp, r6, lsl #3]
/home/aom1/Work/Linux/target/STM32MP1-DK2/bootloader/optee-os-custom/lib/libutee/tee_api.c:64 (discriminator 1)
     fb4:	b16a      	cbz	r2, fd2 <copy_param+0x66>
/home/aom1/Work/Linux/target/STM32MP1-DK2/bootloader/optee-os-custom/lib/libutee/tee_api.c:65 (discriminator 2)
     fb6:	9201      	str	r2, [sp, #4]
     fb8:	2001      	movs	r0, #1
     fba:	f7ff ffd2 	bl	f62 <TEE_CheckMemoryAccessRights>
/home/aom1/Work/Linux/target/STM32MP1-DK2/bootloader/optee-os-custom/lib/libutee/tee_api.c:64 (discriminator 2)
     fbe:	2300      	movs	r3, #0
     fc0:	b938      	cbnz	r0, fd2 <copy_param+0x66>
/home/aom1/Work/Linux/target/STM32MP1-DK2/bootloader/optee-os-custom/lib/libutee/tee_api.c:67
     fc2:	9a01      	ldr	r2, [sp, #4]
/home/aom1/Work/Linux/target/STM32MP1-DK2/bootloader/optee-os-custom/lib/libutee/tee_api.c:66
     fc4:	a903      	add	r1, sp, #12
     fc6:	f806 a001 	strb.w	sl, [r6, r1]
/home/aom1/Work/Linux/target/STM32MP1-DK2/bootloader/optee-os-custom/lib/libutee/tee_api.c:67
     fca:	3207      	adds	r2, #7
     fcc:	f022 0207 	bic.w	r2, r2, #7
     fd0:	4415      	add	r5, r2
/home/aom1/Work/Linux/target/STM32MP1-DK2/bootloader/optee-os-custom/lib/libutee/tee_api.c:47 (discriminator 2)
     fd2:	3601      	adds	r6, #1
     fd4:	2e04      	cmp	r6, #4
     fd6:	d1dd      	bne.n	f94 <copy_param+0x28>
/home/aom1/Work/Linux/target/STM32MP1-DK2/bootloader/optee-os-custom/lib/libutee/tee_api.c:75
     fd8:	b315      	cbz	r5, 1020 <copy_param+0xb4>
/home/aom1/Work/Linux/target/STM32MP1-DK2/bootloader/optee-os-custom/lib/libutee/tee_api.c:76
     fda:	4631      	mov	r1, r6
     fdc:	4628      	mov	r0, r5
     fde:	f002 ff2f 	bl	3e40 <tee_map_zi>
/home/aom1/Work/Linux/target/STM32MP1-DK2/bootloader/optee-os-custom/lib/libutee/tee_api.c:77
     fe2:	4603      	mov	r3, r0
     fe4:	2800      	cmp	r0, #0
     fe6:	d053      	beq.n	1090 <copy_param+0x124>
/home/aom1/Work/Linux/target/STM32MP1-DK2/bootloader/optee-os-custom/lib/libutee/tee_api.c:80
     fe8:	9a10      	ldr	r2, [sp, #64]	; 0x40
/home/aom1/Work/Linux/target/STM32MP1-DK2/bootloader/optee-os-custom/lib/libutee/tee_api.c:79
     fea:	f8c9 0000 	str.w	r0, [r9]
/home/aom1/Work/Linux/target/STM32MP1-DK2/bootloader/optee-os-custom/lib/libutee/tee_api.c:80
     fee:	6015      	str	r5, [r2, #0]
/home/aom1/Work/Linux/target/STM32MP1-DK2/bootloader/optee-os-custom/lib/libutee/tee_api.c:109
     ff0:	ef80 8010 	vmov.i32	d8, #0	; 0x00000000
/home/aom1/Work/Linux/target/STM32MP1-DK2/bootloader/optee-os-custom/lib/libutee/tee_api.c:83
     ff4:	2500      	movs	r5, #0
     ff6:	46b9      	mov	r9, r7
/home/aom1/Work/Linux/target/STM32MP1-DK2/bootloader/optee-os-custom/lib/libutee/tee_api.c:88
     ff8:	46aa      	mov	sl, r5
/home/aom1/Work/Linux/target/STM32MP1-DK2/bootloader/optee-os-custom/lib/libutee/tee_api.c:89
     ffa:	46ab      	mov	fp, r5
/home/aom1/Work/Linux/target/STM32MP1-DK2/bootloader/optee-os-custom/lib/libutee/tee_api.c:83
     ffc:	e9c4 8500 	strd	r8, r5, [r4]
/home/aom1/Work/Linux/target/STM32MP1-DK2/bootloader/optee-os-custom/lib/libutee/tee_api.c:85
    1000:	00aa      	lsls	r2, r5, #2
    1002:	fa28 f202 	lsr.w	r2, r8, r2
    1006:	f002 010f 	and.w	r1, r2, #15
    100a:	2903      	cmp	r1, #3
    100c:	d027      	beq.n	105e <copy_param+0xf2>
    100e:	f012 0f0c 	tst.w	r2, #12
    1012:	d107      	bne.n	1024 <copy_param+0xb8>
    1014:	2901      	cmp	r1, #1
    1016:	d022      	beq.n	105e <copy_param+0xf2>
/home/aom1/Work/Linux/target/STM32MP1-DK2/bootloader/optee-os-custom/lib/libutee/tee_api.c:111
    1018:	2200      	movs	r2, #0
/home/aom1/Work/Linux/target/STM32MP1-DK2/bootloader/optee-os-custom/lib/libutee/tee_api.c:109
    101a:	ed84 8b02 	vstr	d8, [r4, #8]
/home/aom1/Work/Linux/target/STM32MP1-DK2/bootloader/optee-os-custom/lib/libutee/tee_api.c:111
    101e:	e024      	b.n	106a <copy_param+0xfe>
/home/aom1/Work/Linux/target/STM32MP1-DK2/bootloader/optee-os-custom/lib/libutee/tee_api.c:31
    1020:	462b      	mov	r3, r5
    1022:	e7e5      	b.n	ff0 <copy_param+0x84>
/home/aom1/Work/Linux/target/STM32MP1-DK2/bootloader/optee-os-custom/lib/libutee/tee_api.c:85
    1024:	1f4a      	subs	r2, r1, #5
    1026:	2a02      	cmp	r2, #2
    1028:	d8f6      	bhi.n	1018 <copy_param+0xac>
/home/aom1/Work/Linux/target/STM32MP1-DK2/bootloader/optee-os-custom/lib/libutee/tee_api.c:94
    102a:	f8d9 2004 	ldr.w	r2, [r9, #4]
/home/aom1/Work/Linux/target/STM32MP1-DK2/bootloader/optee-os-custom/lib/libutee/tee_api.c:95
    102e:	a803      	add	r0, sp, #12
    1030:	5c28      	ldrb	r0, [r5, r0]
    1032:	b348      	cbz	r0, 1088 <copy_param+0x11c>
/home/aom1/Work/Linux/target/STM32MP1-DK2/bootloader/optee-os-custom/lib/libutee/tee_api.c:97
    1034:	9811      	ldr	r0, [sp, #68]	; 0x44
/home/aom1/Work/Linux/target/STM32MP1-DK2/bootloader/optee-os-custom/lib/libutee/tee_api.c:98
    1036:	1dd6      	adds	r6, r2, #7
    1038:	f026 0607 	bic.w	r6, r6, #7
/home/aom1/Work/Linux/target/STM32MP1-DK2/bootloader/optee-os-custom/lib/libutee/tee_api.c:99
    103c:	2906      	cmp	r1, #6
/home/aom1/Work/Linux/target/STM32MP1-DK2/bootloader/optee-os-custom/lib/libutee/tee_api.c:98
    103e:	441e      	add	r6, r3
/home/aom1/Work/Linux/target/STM32MP1-DK2/bootloader/optee-os-custom/lib/libutee/tee_api.c:97
    1040:	f840 3025 	str.w	r3, [r0, r5, lsl #2]
/home/aom1/Work/Linux/target/STM32MP1-DK2/bootloader/optee-os-custom/lib/libutee/tee_api.c:99
    1044:	d007      	beq.n	1056 <copy_param+0xea>
/home/aom1/Work/Linux/target/STM32MP1-DK2/bootloader/optee-os-custom/lib/libutee/tee_api.c:101
    1046:	f857 1035 	ldr.w	r1, [r7, r5, lsl #3]
    104a:	4618      	mov	r0, r3
    104c:	9201      	str	r2, [sp, #4]
    104e:	f7ff f9f7 	bl	440 <memcpy>
    1052:	9a01      	ldr	r2, [sp, #4]
    1054:	4603      	mov	r3, r0
/home/aom1/Work/Linux/target/STM32MP1-DK2/bootloader/optee-os-custom/lib/libutee/tee_api.c:105
    1056:	e9c4 3a02 	strd	r3, sl, [r4, #8]
/home/aom1/Work/Linux/target/STM32MP1-DK2/bootloader/optee-os-custom/lib/libutee/tee_api.c:107
    105a:	4633      	mov	r3, r6
    105c:	e005      	b.n	106a <copy_param+0xfe>
/home/aom1/Work/Linux/target/STM32MP1-DK2/bootloader/optee-os-custom/lib/libutee/tee_api.c:88
    105e:	f857 2035 	ldr.w	r2, [r7, r5, lsl #3]
    1062:	e9c4 2a02 	strd	r2, sl, [r4, #8]
/home/aom1/Work/Linux/target/STM32MP1-DK2/bootloader/optee-os-custom/lib/libutee/tee_api.c:89
    1066:	f8d9 2004 	ldr.w	r2, [r9, #4]
/home/aom1/Work/Linux/target/STM32MP1-DK2/bootloader/optee-os-custom/lib/libutee/tee_api.c:84 (discriminator 2)
    106a:	3501      	adds	r5, #1
    106c:	f109 0908 	add.w	r9, r9, #8
    1070:	2d04      	cmp	r5, #4
/home/aom1/Work/Linux/target/STM32MP1-DK2/bootloader/optee-os-custom/lib/libutee/tee_api.c:89 (discriminator 2)
    1072:	e9c4 2b04 	strd	r2, fp, [r4, #16]
/home/aom1/Work/Linux/target/STM32MP1-DK2/bootloader/optee-os-custom/lib/libutee/tee_api.c:84 (discriminator 2)
    1076:	f104 0410 	add.w	r4, r4, #16
    107a:	d1c1      	bne.n	1000 <copy_param+0x94>
/home/aom1/Work/Linux/target/STM32MP1-DK2/bootloader/optee-os-custom/lib/libutee/tee_api.c:115
    107c:	2000      	movs	r0, #0
/home/aom1/Work/Linux/target/STM32MP1-DK2/bootloader/optee-os-custom/lib/libutee/tee_api.c:116
    107e:	b005      	add	sp, #20
    1080:	ecbd 8b02 	vpop	{d8}
    1084:	e8bd 8ff0 	ldmia.w	sp!, {r4, r5, r6, r7, r8, r9, sl, fp, pc}
/home/aom1/Work/Linux/target/STM32MP1-DK2/bootloader/optee-os-custom/lib/libutee/tee_api.c:103
    1088:	461e      	mov	r6, r3
    108a:	f857 3035 	ldr.w	r3, [r7, r5, lsl #3]
    108e:	e7e2      	b.n	1056 <copy_param+0xea>
/home/aom1/Work/Linux/target/STM32MP1-DK2/bootloader/optee-os-custom/lib/libutee/tee_api.c:78
    1090:	4800      	ldr	r0, [pc, #0]	; (1094 <copy_param+0x128>)
    1092:	e7f4      	b.n	107e <copy_param+0x112>
    1094:	ffff000c 	.word	0xffff000c

00001098 <TEE_OpenTASession>:
TEE_OpenTASession():
/home/aom1/Work/Linux/target/STM32MP1-DK2/bootloader/optee-os-custom/lib/libutee/tee_api.c:160
    1098:	efc0 0010 	vmov.i32	d16, #0	; 0x00000000
/home/aom1/Work/Linux/target/STM32MP1-DK2/bootloader/optee-os-custom/lib/libutee/tee_api.c:154
    109c:	e92d 47f0 	stmdb	sp!, {r4, r5, r6, r7, r8, r9, sl, lr}
    10a0:	b09c      	sub	sp, #112	; 0x70
    10a2:	461d      	mov	r5, r3
/home/aom1/Work/Linux/target/STM32MP1-DK2/bootloader/optee-os-custom/lib/libutee/tee_api.c:157
    10a4:	2300      	movs	r3, #0
/home/aom1/Work/Linux/target/STM32MP1-DK2/bootloader/optee-os-custom/lib/libutee/tee_api.c:154
    10a6:	f8dd 9090 	ldr.w	r9, [sp, #144]	; 0x90
/home/aom1/Work/Linux/target/STM32MP1-DK2/bootloader/optee-os-custom/lib/libutee/tee_api.c:160
    10aa:	ae06      	add	r6, sp, #24
    10ac:	edcd 0b06 	vstr	d16, [sp, #24]
/home/aom1/Work/Linux/target/STM32MP1-DK2/bootloader/optee-os-custom/lib/libutee/tee_api.c:157
    10b0:	9303      	str	r3, [sp, #12]
/home/aom1/Work/Linux/target/STM32MP1-DK2/bootloader/optee-os-custom/lib/libutee/tee_api.c:154
    10b2:	4607      	mov	r7, r0
    10b4:	4688      	mov	r8, r1
/home/aom1/Work/Linux/target/STM32MP1-DK2/bootloader/optee-os-custom/lib/libutee/tee_api.c:162
    10b6:	4614      	mov	r4, r2
/home/aom1/Work/Linux/target/STM32MP1-DK2/bootloader/optee-os-custom/lib/libutee/tee_api.c:159
    10b8:	e9cd 3304 	strd	r3, r3, [sp, #16]
/home/aom1/Work/Linux/target/STM32MP1-DK2/bootloader/optee-os-custom/lib/libutee/tee_api.c:160
    10bc:	edc6 0b02 	vstr	d16, [r6, #8]
/home/aom1/Work/Linux/target/STM32MP1-DK2/bootloader/optee-os-custom/lib/libutee/tee_api.c:162
    10c0:	b11a      	cbz	r2, 10ca <TEE_OpenTASession+0x32>
/home/aom1/Work/Linux/target/STM32MP1-DK2/bootloader/optee-os-custom/lib/libutee/tee_api.c:163
    10c2:	2120      	movs	r1, #32
    10c4:	4628      	mov	r0, r5
    10c6:	f002 fb5c 	bl	3782 <__utee_check_inout_annotation>
/home/aom1/Work/Linux/target/STM32MP1-DK2/bootloader/optee-os-custom/lib/libutee/tee_api.c:166
    10ca:	2104      	movs	r1, #4
    10cc:	4648      	mov	r0, r9
/home/aom1/Work/Linux/target/STM32MP1-DK2/bootloader/optee-os-custom/lib/libutee/tee_api.c:168
    10ce:	f10d 0a28 	add.w	sl, sp, #40	; 0x28
/home/aom1/Work/Linux/target/STM32MP1-DK2/bootloader/optee-os-custom/lib/libutee/tee_api.c:166
    10d2:	f002 fb43 	bl	375c <__utee_check_out_annotation>
/home/aom1/Work/Linux/target/STM32MP1-DK2/bootloader/optee-os-custom/lib/libutee/tee_api.c:168
    10d6:	9601      	str	r6, [sp, #4]
    10d8:	ab05      	add	r3, sp, #20
    10da:	9300      	str	r3, [sp, #0]
    10dc:	4621      	mov	r1, r4
    10de:	ab04      	add	r3, sp, #16
    10e0:	462a      	mov	r2, r5
    10e2:	4650      	mov	r0, sl
    10e4:	f7ff ff42 	bl	f6c <copy_param>
/home/aom1/Work/Linux/target/STM32MP1-DK2/bootloader/optee-os-custom/lib/libutee/tee_api.c:169
    10e8:	4604      	mov	r4, r0
    10ea:	b9b0      	cbnz	r0, 111a <TEE_OpenTASession+0x82>
/home/aom1/Work/Linux/target/STM32MP1-DK2/bootloader/optee-os-custom/lib/libutee/tee_api.c:171
    10ec:	9b25      	ldr	r3, [sp, #148]	; 0x94
    10ee:	4652      	mov	r2, sl
    10f0:	4641      	mov	r1, r8
    10f2:	4638      	mov	r0, r7
    10f4:	9300      	str	r3, [sp, #0]
    10f6:	ab03      	add	r3, sp, #12
    10f8:	f002 ef66 	blx	3fc8 <_utee_open_ta_session>
    10fc:	4604      	mov	r4, r0
/home/aom1/Work/Linux/target/STM32MP1-DK2/bootloader/optee-os-custom/lib/libutee/tee_api.c:173
    10fe:	4652      	mov	r2, sl
    1100:	4628      	mov	r0, r5
    1102:	4631      	mov	r1, r6
    1104:	f7ff fec6 	bl	e94 <update_out_param>
/home/aom1/Work/Linux/target/STM32MP1-DK2/bootloader/optee-os-custom/lib/libutee/tee_api.c:174
    1108:	9804      	ldr	r0, [sp, #16]
    110a:	b128      	cbz	r0, 1118 <TEE_OpenTASession+0x80>
/home/aom1/Work/Linux/target/STM32MP1-DK2/bootloader/optee-os-custom/lib/libutee/tee_api.c:175
    110c:	9905      	ldr	r1, [sp, #20]
    110e:	f002 feb2 	bl	3e76 <tee_unmap>
/home/aom1/Work/Linux/target/STM32MP1-DK2/bootloader/optee-os-custom/lib/libutee/tee_api.c:177
    1112:	b108      	cbz	r0, 1118 <TEE_OpenTASession+0x80>
/home/aom1/Work/Linux/target/STM32MP1-DK2/bootloader/optee-os-custom/lib/libutee/tee_api.c:178
    1114:	f002 fae2 	bl	36dc <TEE_Panic>
/home/aom1/Work/Linux/target/STM32MP1-DK2/bootloader/optee-os-custom/lib/libutee/tee_api.c:187
    1118:	b10c      	cbz	r4, 111e <TEE_OpenTASession+0x86>
/home/aom1/Work/Linux/target/STM32MP1-DK2/bootloader/optee-os-custom/lib/libutee/tee_api.c:188
    111a:	2300      	movs	r3, #0
    111c:	9303      	str	r3, [sp, #12]
/home/aom1/Work/Linux/target/STM32MP1-DK2/bootloader/optee-os-custom/lib/libutee/tee_api.c:190
    111e:	9b03      	ldr	r3, [sp, #12]
/home/aom1/Work/Linux/target/STM32MP1-DK2/bootloader/optee-os-custom/lib/libutee/tee_api.c:192
    1120:	4620      	mov	r0, r4
/home/aom1/Work/Linux/target/STM32MP1-DK2/bootloader/optee-os-custom/lib/libutee/tee_api.c:190
    1122:	f8c9 3000 	str.w	r3, [r9]
/home/aom1/Work/Linux/target/STM32MP1-DK2/bootloader/optee-os-custom/lib/libutee/tee_api.c:192
    1126:	b01c      	add	sp, #112	; 0x70
    1128:	e8bd 87f0 	ldmia.w	sp!, {r4, r5, r6, r7, r8, r9, sl, pc}

0000112c <TEE_InvokeTACommand>:
TEE_InvokeTACommand():
/home/aom1/Work/Linux/target/STM32MP1-DK2/bootloader/optee-os-custom/lib/libutee/tee_api.c:215
    112c:	efc0 0010 	vmov.i32	d16, #0	; 0x00000000
/home/aom1/Work/Linux/target/STM32MP1-DK2/bootloader/optee-os-custom/lib/libutee/tee_api.c:209
    1130:	e92d 4ff0 	stmdb	sp!, {r4, r5, r6, r7, r8, r9, sl, fp, lr}
    1134:	b09d      	sub	sp, #116	; 0x74
    1136:	4693      	mov	fp, r2
/home/aom1/Work/Linux/target/STM32MP1-DK2/bootloader/optee-os-custom/lib/libutee/tee_api.c:211
    1138:	2203      	movs	r2, #3
    113a:	9203      	str	r2, [sp, #12]
/home/aom1/Work/Linux/target/STM32MP1-DK2/bootloader/optee-os-custom/lib/libutee/tee_api.c:213
    113c:	2200      	movs	r2, #0
/home/aom1/Work/Linux/target/STM32MP1-DK2/bootloader/optee-os-custom/lib/libutee/tee_api.c:215
    113e:	af06      	add	r7, sp, #24
/home/aom1/Work/Linux/target/STM32MP1-DK2/bootloader/optee-os-custom/lib/libutee/tee_api.c:209
    1140:	4681      	mov	r9, r0
/home/aom1/Work/Linux/target/STM32MP1-DK2/bootloader/optee-os-custom/lib/libutee/tee_api.c:215
    1142:	edcd 0b06 	vstr	d16, [sp, #24]
/home/aom1/Work/Linux/target/STM32MP1-DK2/bootloader/optee-os-custom/lib/libutee/tee_api.c:209
    1146:	468a      	mov	sl, r1
/home/aom1/Work/Linux/target/STM32MP1-DK2/bootloader/optee-os-custom/lib/libutee/tee_api.c:217
    1148:	461c      	mov	r4, r3
/home/aom1/Work/Linux/target/STM32MP1-DK2/bootloader/optee-os-custom/lib/libutee/tee_api.c:209
    114a:	e9dd 6526 	ldrd	r6, r5, [sp, #152]	; 0x98
/home/aom1/Work/Linux/target/STM32MP1-DK2/bootloader/optee-os-custom/lib/libutee/tee_api.c:214
    114e:	e9cd 2204 	strd	r2, r2, [sp, #16]
/home/aom1/Work/Linux/target/STM32MP1-DK2/bootloader/optee-os-custom/lib/libutee/tee_api.c:215
    1152:	edc7 0b02 	vstr	d16, [r7, #8]
/home/aom1/Work/Linux/target/STM32MP1-DK2/bootloader/optee-os-custom/lib/libutee/tee_api.c:217
    1156:	b11b      	cbz	r3, 1160 <TEE_InvokeTACommand+0x34>
/home/aom1/Work/Linux/target/STM32MP1-DK2/bootloader/optee-os-custom/lib/libutee/tee_api.c:218
    1158:	2120      	movs	r1, #32
    115a:	4630      	mov	r0, r6
    115c:	f002 fb11 	bl	3782 <__utee_check_inout_annotation>
/home/aom1/Work/Linux/target/STM32MP1-DK2/bootloader/optee-os-custom/lib/libutee/tee_api.c:221
    1160:	b11d      	cbz	r5, 116a <TEE_InvokeTACommand+0x3e>
/home/aom1/Work/Linux/target/STM32MP1-DK2/bootloader/optee-os-custom/lib/libutee/tee_api.c:222
    1162:	2104      	movs	r1, #4
    1164:	4628      	mov	r0, r5
    1166:	f002 faf9 	bl	375c <__utee_check_out_annotation>
/home/aom1/Work/Linux/target/STM32MP1-DK2/bootloader/optee-os-custom/lib/libutee/tee_api.c:225
    116a:	9701      	str	r7, [sp, #4]
    116c:	ab05      	add	r3, sp, #20
    116e:	9300      	str	r3, [sp, #0]
    1170:	f10d 0828 	add.w	r8, sp, #40	; 0x28
    1174:	4621      	mov	r1, r4
    1176:	ab04      	add	r3, sp, #16
    1178:	4632      	mov	r2, r6
    117a:	4640      	mov	r0, r8
    117c:	f7ff fef6 	bl	f6c <copy_param>
/home/aom1/Work/Linux/target/STM32MP1-DK2/bootloader/optee-os-custom/lib/libutee/tee_api.c:226
    1180:	4604      	mov	r4, r0
    1182:	b9a8      	cbnz	r0, 11b0 <TEE_InvokeTACommand+0x84>
/home/aom1/Work/Linux/target/STM32MP1-DK2/bootloader/optee-os-custom/lib/libutee/tee_api.c:228
    1184:	ab03      	add	r3, sp, #12
    1186:	465a      	mov	r2, fp
    1188:	9300      	str	r3, [sp, #0]
    118a:	4651      	mov	r1, sl
    118c:	4643      	mov	r3, r8
    118e:	4648      	mov	r0, r9
    1190:	f002 ef30 	blx	3ff4 <_utee_invoke_ta_command>
    1194:	4604      	mov	r4, r0
/home/aom1/Work/Linux/target/STM32MP1-DK2/bootloader/optee-os-custom/lib/libutee/tee_api.c:231
    1196:	4642      	mov	r2, r8
    1198:	4630      	mov	r0, r6
    119a:	4639      	mov	r1, r7
    119c:	f7ff fe7a 	bl	e94 <update_out_param>
/home/aom1/Work/Linux/target/STM32MP1-DK2/bootloader/optee-os-custom/lib/libutee/tee_api.c:232
    11a0:	9804      	ldr	r0, [sp, #16]
    11a2:	b128      	cbz	r0, 11b0 <TEE_InvokeTACommand+0x84>
/home/aom1/Work/Linux/target/STM32MP1-DK2/bootloader/optee-os-custom/lib/libutee/tee_api.c:233
    11a4:	9905      	ldr	r1, [sp, #20]
    11a6:	f002 fe66 	bl	3e76 <tee_unmap>
/home/aom1/Work/Linux/target/STM32MP1-DK2/bootloader/optee-os-custom/lib/libutee/tee_api.c:235
    11aa:	b108      	cbz	r0, 11b0 <TEE_InvokeTACommand+0x84>
/home/aom1/Work/Linux/target/STM32MP1-DK2/bootloader/optee-os-custom/lib/libutee/tee_api.c:236
    11ac:	f002 fa96 	bl	36dc <TEE_Panic>
/home/aom1/Work/Linux/target/STM32MP1-DK2/bootloader/optee-os-custom/lib/libutee/tee_api.c:241
    11b0:	9b03      	ldr	r3, [sp, #12]
/home/aom1/Work/Linux/target/STM32MP1-DK2/bootloader/optee-os-custom/lib/libutee/tee_api.c:240
    11b2:	b105      	cbz	r5, 11b6 <TEE_InvokeTACommand+0x8a>
/home/aom1/Work/Linux/target/STM32MP1-DK2/bootloader/optee-os-custom/lib/libutee/tee_api.c:241
    11b4:	602b      	str	r3, [r5, #0]
/home/aom1/Work/Linux/target/STM32MP1-DK2/bootloader/optee-os-custom/lib/libutee/tee_api.c:243
    11b6:	2b04      	cmp	r3, #4
    11b8:	d009      	beq.n	11ce <TEE_InvokeTACommand+0xa2>
/home/aom1/Work/Linux/target/STM32MP1-DK2/bootloader/optee-os-custom/lib/libutee/tee_api.c:246
    11ba:	b144      	cbz	r4, 11ce <TEE_InvokeTACommand+0xa2>
/home/aom1/Work/Linux/target/STM32MP1-DK2/bootloader/optee-os-custom/lib/libutee/tee_api.c:246 (discriminator 1)
    11bc:	4b06      	ldr	r3, [pc, #24]	; (11d8 <TEE_InvokeTACommand+0xac>)
    11be:	429c      	cmp	r4, r3
    11c0:	d005      	beq.n	11ce <TEE_InvokeTACommand+0xa2>
/home/aom1/Work/Linux/target/STM32MP1-DK2/bootloader/optee-os-custom/lib/libutee/tee_api.c:247
    11c2:	4b06      	ldr	r3, [pc, #24]	; (11dc <TEE_InvokeTACommand+0xb0>)
    11c4:	429c      	cmp	r4, r3
    11c6:	d002      	beq.n	11ce <TEE_InvokeTACommand+0xa2>
/home/aom1/Work/Linux/target/STM32MP1-DK2/bootloader/optee-os-custom/lib/libutee/tee_api.c:249
    11c8:	4620      	mov	r0, r4
    11ca:	f002 fa87 	bl	36dc <TEE_Panic>
/home/aom1/Work/Linux/target/STM32MP1-DK2/bootloader/optee-os-custom/lib/libutee/tee_api.c:252
    11ce:	4620      	mov	r0, r4
    11d0:	b01d      	add	sp, #116	; 0x74
    11d2:	e8bd 8ff0 	ldmia.w	sp!, {r4, r5, r6, r7, r8, r9, sl, fp, pc}
    11d6:	bf00      	nop
    11d8:	ffff000c 	.word	0xffff000c
    11dc:	ffff3024 	.word	0xffff3024

000011e0 <TEE_SetInstanceData>:
TEE_SetInstanceData():
/home/aom1/Work/Linux/target/STM32MP1-DK2/bootloader/optee-os-custom/lib/libutee/tee_api.c:313
    11e0:	4b01      	ldr	r3, [pc, #4]	; (11e8 <TEE_SetInstanceData+0x8>)
    11e2:	447b      	add	r3, pc
    11e4:	6018      	str	r0, [r3, #0]
/home/aom1/Work/Linux/target/STM32MP1-DK2/bootloader/optee-os-custom/lib/libutee/tee_api.c:314
    11e6:	4770      	bx	lr
    11e8:	0000a172 	.word	0x0000a172

000011ec <TEE_GetInstanceData>:
TEE_GetInstanceData():
/home/aom1/Work/Linux/target/STM32MP1-DK2/bootloader/optee-os-custom/lib/libutee/tee_api.c:319
    11ec:	4b01      	ldr	r3, [pc, #4]	; (11f4 <TEE_GetInstanceData+0x8>)
    11ee:	447b      	add	r3, pc
    11f0:	6818      	ldr	r0, [r3, #0]
    11f2:	4770      	bx	lr
    11f4:	0000a166 	.word	0x0000a166

000011f8 <TEE_MemMove>:
TEE_MemMove():
/home/aom1/Work/Linux/target/STM32MP1-DK2/bootloader/optee-os-custom/lib/libutee/tee_api.c:323
    11f8:	f008 b944 	b.w	9484 <memmove>

000011fc <TEE_MemCompare>:
TEE_MemCompare():
/home/aom1/Work/Linux/target/STM32MP1-DK2/bootloader/optee-os-custom/lib/libutee/tee_api.c:328
    11fc:	f008 b97c 	b.w	94f8 <consttime_memcmp>

00001200 <TEE_MemFill>:
TEE_MemFill():
/home/aom1/Work/Linux/target/STM32MP1-DK2/bootloader/optee-os-custom/lib/libutee/tee_api.c:333
    1200:	f008 b86d 	b.w	92de <memset>

00001204 <TEE_GetSystemTime>:
TEE_GetSystemTime():
/home/aom1/Work/Linux/target/STM32MP1-DK2/bootloader/optee-os-custom/lib/libutee/tee_api.c:339
    1204:	4601      	mov	r1, r0
/home/aom1/Work/Linux/target/STM32MP1-DK2/bootloader/optee-os-custom/lib/libutee/tee_api.c:340
    1206:	2000      	movs	r0, #0
/home/aom1/Work/Linux/target/STM32MP1-DK2/bootloader/optee-os-custom/lib/libutee/tee_api.c:339
    1208:	b508      	push	{r3, lr}
/home/aom1/Work/Linux/target/STM32MP1-DK2/bootloader/optee-os-custom/lib/libutee/tee_api.c:340
    120a:	f002 ef32 	blx	4070 <_utee_get_time>
/home/aom1/Work/Linux/target/STM32MP1-DK2/bootloader/optee-os-custom/lib/libutee/tee_api.c:342
    120e:	b118      	cbz	r0, 1218 <TEE_GetSystemTime+0x14>
/home/aom1/Work/Linux/target/STM32MP1-DK2/bootloader/optee-os-custom/lib/libutee/tee_api.c:344
    1210:	e8bd 4008 	ldmia.w	sp!, {r3, lr}
/home/aom1/Work/Linux/target/STM32MP1-DK2/bootloader/optee-os-custom/lib/libutee/tee_api.c:343
    1214:	f002 ba62 	b.w	36dc <TEE_Panic>
/home/aom1/Work/Linux/target/STM32MP1-DK2/bootloader/optee-os-custom/lib/libutee/tee_api.c:344
    1218:	bd08      	pop	{r3, pc}

0000121a <TEE_Wait>:
TEE_Wait():
/home/aom1/Work/Linux/target/STM32MP1-DK2/bootloader/optee-os-custom/lib/libutee/tee_api.c:347
    121a:	b510      	push	{r4, lr}
/home/aom1/Work/Linux/target/STM32MP1-DK2/bootloader/optee-os-custom/lib/libutee/tee_api.c:348
    121c:	f002 ef1e 	blx	405c <_utee_wait>
/home/aom1/Work/Linux/target/STM32MP1-DK2/bootloader/optee-os-custom/lib/libutee/tee_api.c:350
    1220:	4604      	mov	r4, r0
    1222:	b120      	cbz	r0, 122e <TEE_Wait+0x14>
/home/aom1/Work/Linux/target/STM32MP1-DK2/bootloader/optee-os-custom/lib/libutee/tee_api.c:350 (discriminator 1)
    1224:	4b03      	ldr	r3, [pc, #12]	; (1234 <TEE_Wait+0x1a>)
    1226:	4298      	cmp	r0, r3
    1228:	d001      	beq.n	122e <TEE_Wait+0x14>
/home/aom1/Work/Linux/target/STM32MP1-DK2/bootloader/optee-os-custom/lib/libutee/tee_api.c:351
    122a:	f002 fa57 	bl	36dc <TEE_Panic>
/home/aom1/Work/Linux/target/STM32MP1-DK2/bootloader/optee-os-custom/lib/libutee/tee_api.c:354
    122e:	4620      	mov	r0, r4
    1230:	bd10      	pop	{r4, pc}
    1232:	bf00      	nop
    1234:	ffff0002 	.word	0xffff0002

00001238 <TEE_GetTAPersistentTime>:
TEE_GetTAPersistentTime():
/home/aom1/Work/Linux/target/STM32MP1-DK2/bootloader/optee-os-custom/lib/libutee/tee_api.c:357
    1238:	b538      	push	{r3, r4, r5, lr}
/home/aom1/Work/Linux/target/STM32MP1-DK2/bootloader/optee-os-custom/lib/libutee/tee_api.c:360
    123a:	4601      	mov	r1, r0
/home/aom1/Work/Linux/target/STM32MP1-DK2/bootloader/optee-os-custom/lib/libutee/tee_api.c:357
    123c:	4605      	mov	r5, r0
/home/aom1/Work/Linux/target/STM32MP1-DK2/bootloader/optee-os-custom/lib/libutee/tee_api.c:360
    123e:	2001      	movs	r0, #1
    1240:	f002 ef16 	blx	4070 <_utee_get_time>
    1244:	4604      	mov	r4, r0
/home/aom1/Work/Linux/target/STM32MP1-DK2/bootloader/optee-os-custom/lib/libutee/tee_api.c:362
    1246:	b170      	cbz	r0, 1266 <TEE_GetTAPersistentTime+0x2e>
/home/aom1/Work/Linux/target/STM32MP1-DK2/bootloader/optee-os-custom/lib/libutee/tee_api.c:362 (discriminator 1)
    1248:	4b08      	ldr	r3, [pc, #32]	; (126c <TEE_GetTAPersistentTime+0x34>)
    124a:	4298      	cmp	r0, r3
    124c:	d00b      	beq.n	1266 <TEE_GetTAPersistentTime+0x2e>
/home/aom1/Work/Linux/target/STM32MP1-DK2/bootloader/optee-os-custom/lib/libutee/tee_api.c:363
    124e:	2300      	movs	r3, #0
    1250:	602b      	str	r3, [r5, #0]
/home/aom1/Work/Linux/target/STM32MP1-DK2/bootloader/optee-os-custom/lib/libutee/tee_api.c:364
    1252:	606b      	str	r3, [r5, #4]
/home/aom1/Work/Linux/target/STM32MP1-DK2/bootloader/optee-os-custom/lib/libutee/tee_api.c:367
    1254:	f500 4330 	add.w	r3, r0, #45056	; 0xb000
    1258:	2b01      	cmp	r3, #1
    125a:	d904      	bls.n	1266 <TEE_GetTAPersistentTime+0x2e>
/home/aom1/Work/Linux/target/STM32MP1-DK2/bootloader/optee-os-custom/lib/libutee/tee_api.c:370
    125c:	4b04      	ldr	r3, [pc, #16]	; (1270 <TEE_GetTAPersistentTime+0x38>)
    125e:	4298      	cmp	r0, r3
    1260:	d001      	beq.n	1266 <TEE_GetTAPersistentTime+0x2e>
/home/aom1/Work/Linux/target/STM32MP1-DK2/bootloader/optee-os-custom/lib/libutee/tee_api.c:372
    1262:	f002 fa3b 	bl	36dc <TEE_Panic>
/home/aom1/Work/Linux/target/STM32MP1-DK2/bootloader/optee-os-custom/lib/libutee/tee_api.c:375
    1266:	4620      	mov	r0, r4
    1268:	bd38      	pop	{r3, r4, r5, pc}
    126a:	bf00      	nop
    126c:	ffff300f 	.word	0xffff300f
    1270:	ffff000c 	.word	0xffff000c

00001274 <TEE_SetTAPersistentTime>:
TEE_SetTAPersistentTime():
/home/aom1/Work/Linux/target/STM32MP1-DK2/bootloader/optee-os-custom/lib/libutee/tee_api.c:378
    1274:	b510      	push	{r4, lr}
/home/aom1/Work/Linux/target/STM32MP1-DK2/bootloader/optee-os-custom/lib/libutee/tee_api.c:381
    1276:	f002 ef06 	blx	4084 <_utee_set_ta_time>
/home/aom1/Work/Linux/target/STM32MP1-DK2/bootloader/optee-os-custom/lib/libutee/tee_api.c:383
    127a:	4604      	mov	r4, r0
    127c:	b138      	cbz	r0, 128e <TEE_SetTAPersistentTime+0x1a>
/home/aom1/Work/Linux/target/STM32MP1-DK2/bootloader/optee-os-custom/lib/libutee/tee_api.c:383 (discriminator 1)
    127e:	4b05      	ldr	r3, [pc, #20]	; (1294 <TEE_SetTAPersistentTime+0x20>)
    1280:	4298      	cmp	r0, r3
    1282:	d004      	beq.n	128e <TEE_SetTAPersistentTime+0x1a>
/home/aom1/Work/Linux/target/STM32MP1-DK2/bootloader/optee-os-custom/lib/libutee/tee_api.c:384
    1284:	4b04      	ldr	r3, [pc, #16]	; (1298 <TEE_SetTAPersistentTime+0x24>)
    1286:	4298      	cmp	r0, r3
    1288:	d001      	beq.n	128e <TEE_SetTAPersistentTime+0x1a>
/home/aom1/Work/Linux/target/STM32MP1-DK2/bootloader/optee-os-custom/lib/libutee/tee_api.c:386
    128a:	f002 fa27 	bl	36dc <TEE_Panic>
/home/aom1/Work/Linux/target/STM32MP1-DK2/bootloader/optee-os-custom/lib/libutee/tee_api.c:389
    128e:	4620      	mov	r0, r4
    1290:	bd10      	pop	{r4, pc}
    1292:	bf00      	nop
    1294:	ffff000c 	.word	0xffff000c
    1298:	ffff3041 	.word	0xffff3041

0000129c <TEE_GetREETime>:
TEE_GetREETime():
/home/aom1/Work/Linux/target/STM32MP1-DK2/bootloader/optee-os-custom/lib/libutee/tee_api.c:392
    129c:	4601      	mov	r1, r0
/home/aom1/Work/Linux/target/STM32MP1-DK2/bootloader/optee-os-custom/lib/libutee/tee_api.c:393
    129e:	2002      	movs	r0, #2
/home/aom1/Work/Linux/target/STM32MP1-DK2/bootloader/optee-os-custom/lib/libutee/tee_api.c:392
    12a0:	b508      	push	{r3, lr}
/home/aom1/Work/Linux/target/STM32MP1-DK2/bootloader/optee-os-custom/lib/libutee/tee_api.c:393
    12a2:	f002 eee6 	blx	4070 <_utee_get_time>
/home/aom1/Work/Linux/target/STM32MP1-DK2/bootloader/optee-os-custom/lib/libutee/tee_api.c:395
    12a6:	b118      	cbz	r0, 12b0 <TEE_GetREETime+0x14>
/home/aom1/Work/Linux/target/STM32MP1-DK2/bootloader/optee-os-custom/lib/libutee/tee_api.c:397
    12a8:	e8bd 4008 	ldmia.w	sp!, {r3, lr}
/home/aom1/Work/Linux/target/STM32MP1-DK2/bootloader/optee-os-custom/lib/libutee/tee_api.c:396
    12ac:	f002 ba16 	b.w	36dc <TEE_Panic>
/home/aom1/Work/Linux/target/STM32MP1-DK2/bootloader/optee-os-custom/lib/libutee/tee_api.c:397
    12b0:	bd08      	pop	{r3, pc}

000012b2 <TEE_Malloc>:
TEE_Malloc():
/home/aom1/Work/Linux/target/STM32MP1-DK2/bootloader/optee-os-custom/lib/libutee/tee_api.c:400
    12b2:	460b      	mov	r3, r1
    12b4:	b507      	push	{r0, r1, r2, lr}
/home/aom1/Work/Linux/target/STM32MP1-DK2/bootloader/optee-os-custom/lib/libutee/tee_api.c:401
    12b6:	4601      	mov	r1, r0
    12b8:	b1f0      	cbz	r0, 12f8 <TEE_Malloc+0x46>
/home/aom1/Work/Linux/target/STM32MP1-DK2/bootloader/optee-os-custom/lib/libutee/tee_api.c:404
    12ba:	b92b      	cbnz	r3, 12c8 <TEE_Malloc+0x16>
/home/aom1/Work/Linux/target/STM32MP1-DK2/bootloader/optee-os-custom/lib/libutee/tee_api.c:405
    12bc:	2001      	movs	r0, #1
/home/aom1/Work/Linux/target/STM32MP1-DK2/bootloader/optee-os-custom/lib/libutee/tee_api.c:412
    12be:	b003      	add	sp, #12
    12c0:	f85d eb04 	ldr.w	lr, [sp], #4
/home/aom1/Work/Linux/target/STM32MP1-DK2/bootloader/optee-os-custom/lib/libutee/tee_api.c:405
    12c4:	f007 be94 	b.w	8ff0 <calloc>
/home/aom1/Work/Linux/target/STM32MP1-DK2/bootloader/optee-os-custom/lib/libutee/tee_api.c:406
    12c8:	f1b3 4f00 	cmp.w	r3, #2147483648	; 0x80000000
    12cc:	d104      	bne.n	12d8 <TEE_Malloc+0x26>
/home/aom1/Work/Linux/target/STM32MP1-DK2/bootloader/optee-os-custom/lib/libutee/tee_api.c:412
    12ce:	b003      	add	sp, #12
    12d0:	f85d eb04 	ldr.w	lr, [sp], #4
/home/aom1/Work/Linux/target/STM32MP1-DK2/bootloader/optee-os-custom/lib/libutee/tee_api.c:407
    12d4:	f007 be82 	b.w	8fdc <malloc>
/home/aom1/Work/Linux/target/STM32MP1-DK2/bootloader/optee-os-custom/lib/libutee/tee_api.c:409
    12d8:	9301      	str	r3, [sp, #4]
    12da:	f240 1199 	movw	r1, #409	; 0x199
    12de:	4b07      	ldr	r3, [pc, #28]	; (12fc <TEE_Malloc+0x4a>)
    12e0:	4807      	ldr	r0, [pc, #28]	; (1300 <TEE_Malloc+0x4e>)
    12e2:	447b      	add	r3, pc
    12e4:	9300      	str	r3, [sp, #0]
    12e6:	2301      	movs	r3, #1
    12e8:	4478      	add	r0, pc
    12ea:	461a      	mov	r2, r3
    12ec:	f7ff f9c8 	bl	680 <trace_printf>
/home/aom1/Work/Linux/target/STM32MP1-DK2/bootloader/optee-os-custom/lib/libutee/tee_api.c:411
    12f0:	2000      	movs	r0, #0
/home/aom1/Work/Linux/target/STM32MP1-DK2/bootloader/optee-os-custom/lib/libutee/tee_api.c:412
    12f2:	b003      	add	sp, #12
    12f4:	f85d fb04 	ldr.w	pc, [sp], #4
/home/aom1/Work/Linux/target/STM32MP1-DK2/bootloader/optee-os-custom/lib/libutee/tee_api.c:402
    12f8:	2001      	movs	r0, #1
    12fa:	e7fa      	b.n	12f2 <TEE_Malloc+0x40>
    12fc:	00008865 	.word	0x00008865
    1300:	00008870 	.word	0x00008870

00001304 <TEE_Free>:
TEE_Free():
/home/aom1/Work/Linux/target/STM32MP1-DK2/bootloader/optee-os-custom/lib/libutee/tee_api.c:429
    1304:	2801      	cmp	r0, #1
    1306:	d001      	beq.n	130c <TEE_Free+0x8>
/home/aom1/Work/Linux/target/STM32MP1-DK2/bootloader/optee-os-custom/lib/libutee/tee_api.c:430
    1308:	f007 bea0 	b.w	904c <free>
/home/aom1/Work/Linux/target/STM32MP1-DK2/bootloader/optee-os-custom/lib/libutee/tee_api.c:431
    130c:	4770      	bx	lr

0000130e <TEE_Realloc>:
TEE_Realloc():
/home/aom1/Work/Linux/target/STM32MP1-DK2/bootloader/optee-os-custom/lib/libutee/tee_api.c:415
    130e:	b508      	push	{r3, lr}
/home/aom1/Work/Linux/target/STM32MP1-DK2/bootloader/optee-os-custom/lib/libutee/tee_api.c:416
    1310:	b149      	cbz	r1, 1326 <TEE_Realloc+0x18>
/home/aom1/Work/Linux/target/STM32MP1-DK2/bootloader/optee-os-custom/lib/libutee/tee_api.c:421
    1312:	2801      	cmp	r0, #1
    1314:	d103      	bne.n	131e <TEE_Realloc+0x10>
/home/aom1/Work/Linux/target/STM32MP1-DK2/bootloader/optee-os-custom/lib/libutee/tee_api.c:425
    1316:	e8bd 4008 	ldmia.w	sp!, {r3, lr}
/home/aom1/Work/Linux/target/STM32MP1-DK2/bootloader/optee-os-custom/lib/libutee/tee_api.c:422
    131a:	f007 be69 	b.w	8ff0 <calloc>
/home/aom1/Work/Linux/target/STM32MP1-DK2/bootloader/optee-os-custom/lib/libutee/tee_api.c:425
    131e:	e8bd 4008 	ldmia.w	sp!, {r3, lr}
/home/aom1/Work/Linux/target/STM32MP1-DK2/bootloader/optee-os-custom/lib/libutee/tee_api.c:424
    1322:	f007 be75 	b.w	9010 <realloc>
/home/aom1/Work/Linux/target/STM32MP1-DK2/bootloader/optee-os-custom/lib/libutee/tee_api.c:417
    1326:	f7ff ffed 	bl	1304 <TEE_Free>
/home/aom1/Work/Linux/target/STM32MP1-DK2/bootloader/optee-os-custom/lib/libutee/tee_api.c:425
    132a:	2001      	movs	r0, #1
    132c:	bd08      	pop	{r3, pc}

0000132e <TEE_CacheClean>:
TEE_CacheClean():
/home/aom1/Work/Linux/target/STM32MP1-DK2/bootloader/optee-os-custom/lib/libutee/tee_api.c:436
    132e:	2200      	movs	r2, #0
    1330:	f008 b906 	b.w	9540 <___utee_cache_operation_from_thumb>

00001334 <TEE_CacheFlush>:
TEE_CacheFlush():
/home/aom1/Work/Linux/target/STM32MP1-DK2/bootloader/optee-os-custom/lib/libutee/tee_api.c:440
    1334:	2201      	movs	r2, #1
    1336:	f008 b903 	b.w	9540 <___utee_cache_operation_from_thumb>

0000133a <TEE_CacheInvalidate>:
TEE_CacheInvalidate():
/home/aom1/Work/Linux/target/STM32MP1-DK2/bootloader/optee-os-custom/lib/libutee/tee_api.c:445
    133a:	2202      	movs	r2, #2
    133c:	f008 b900 	b.w	9540 <___utee_cache_operation_from_thumb>

00001340 <__utee_from_attr>:
__utee_from_attr():
/home/aom1/Work/Linux/target/STM32MP1-DK2/bootloader/optee-os-custom/lib/libutee/tee_api_objects.c:19
    1340:	2318      	movs	r3, #24
    1342:	fb03 0202 	mla	r2, r3, r2, r0
/home/aom1/Work/Linux/target/STM32MP1-DK2/bootloader/optee-os-custom/lib/libutee/tee_api_objects.c:23
    1346:	2300      	movs	r3, #0
/home/aom1/Work/Linux/target/STM32MP1-DK2/bootloader/optee-os-custom/lib/libutee/tee_api_objects.c:16
    1348:	b530      	push	{r4, r5, lr}
/home/aom1/Work/Linux/target/STM32MP1-DK2/bootloader/optee-os-custom/lib/libutee/tee_api_objects.c:19 (discriminator 1)
    134a:	4290      	cmp	r0, r2
    134c:	d100      	bne.n	1350 <__utee_from_attr+0x10>
/home/aom1/Work/Linux/target/STM32MP1-DK2/bootloader/optee-os-custom/lib/libutee/tee_api_objects.c:29
    134e:	bd30      	pop	{r4, r5, pc}
/home/aom1/Work/Linux/target/STM32MP1-DK2/bootloader/optee-os-custom/lib/libutee/tee_api_objects.c:20
    1350:	680c      	ldr	r4, [r1, #0]
    1352:	310c      	adds	r1, #12
    1354:	6104      	str	r4, [r0, #16]
/home/aom1/Work/Linux/target/STM32MP1-DK2/bootloader/optee-os-custom/lib/libutee/tee_api_objects.c:23
    1356:	f851 4c04 	ldr.w	r4, [r1, #-4]
/home/aom1/Work/Linux/target/STM32MP1-DK2/bootloader/optee-os-custom/lib/libutee/tee_api_objects.c:22
    135a:	f851 5c08 	ldr.w	r5, [r1, #-8]
/home/aom1/Work/Linux/target/STM32MP1-DK2/bootloader/optee-os-custom/lib/libutee/tee_api_objects.c:23
    135e:	e9c0 4302 	strd	r4, r3, [r0, #8]
/home/aom1/Work/Linux/target/STM32MP1-DK2/bootloader/optee-os-custom/lib/libutee/tee_api_objects.c:22
    1362:	e9c0 5300 	strd	r5, r3, [r0]
    1366:	3018      	adds	r0, #24
    1368:	e7ef      	b.n	134a <__utee_from_attr+0xa>

0000136a <TEE_GetObjectInfo>:
TEE_GetObjectInfo():
/home/aom1/Work/Linux/target/STM32MP1-DK2/bootloader/optee-os-custom/lib/libutee/tee_api_objects.c:39
    136a:	b510      	push	{r4, lr}
    136c:	460c      	mov	r4, r1
/home/aom1/Work/Linux/target/STM32MP1-DK2/bootloader/optee-os-custom/lib/libutee/tee_api_objects.c:42
    136e:	f002 eef6 	blx	415c <_utee_cryp_obj_get_info>
/home/aom1/Work/Linux/target/STM32MP1-DK2/bootloader/optee-os-custom/lib/libutee/tee_api_objects.c:44
    1372:	b108      	cbz	r0, 1378 <TEE_GetObjectInfo+0xe>
/home/aom1/Work/Linux/target/STM32MP1-DK2/bootloader/optee-os-custom/lib/libutee/tee_api_objects.c:45
    1374:	f002 f9b2 	bl	36dc <TEE_Panic>
/home/aom1/Work/Linux/target/STM32MP1-DK2/bootloader/optee-os-custom/lib/libutee/tee_api_objects.c:47
    1378:	6822      	ldr	r2, [r4, #0]
    137a:	4b05      	ldr	r3, [pc, #20]	; (1390 <TEE_GetObjectInfo+0x26>)
    137c:	429a      	cmp	r2, r3
    137e:	d106      	bne.n	138e <TEE_GetObjectInfo+0x24>
/home/aom1/Work/Linux/target/STM32MP1-DK2/bootloader/optee-os-custom/lib/libutee/tee_api_objects.c:48
    1380:	2300      	movs	r3, #0
    1382:	6063      	str	r3, [r4, #4]
/home/aom1/Work/Linux/target/STM32MP1-DK2/bootloader/optee-os-custom/lib/libutee/tee_api_objects.c:49
    1384:	60a3      	str	r3, [r4, #8]
/home/aom1/Work/Linux/target/STM32MP1-DK2/bootloader/optee-os-custom/lib/libutee/tee_api_objects.c:50
    1386:	60e3      	str	r3, [r4, #12]
/home/aom1/Work/Linux/target/STM32MP1-DK2/bootloader/optee-os-custom/lib/libutee/tee_api_objects.c:51
    1388:	6123      	str	r3, [r4, #16]
/home/aom1/Work/Linux/target/STM32MP1-DK2/bootloader/optee-os-custom/lib/libutee/tee_api_objects.c:52
    138a:	6163      	str	r3, [r4, #20]
/home/aom1/Work/Linux/target/STM32MP1-DK2/bootloader/optee-os-custom/lib/libutee/tee_api_objects.c:53
    138c:	61a3      	str	r3, [r4, #24]
/home/aom1/Work/Linux/target/STM32MP1-DK2/bootloader/optee-os-custom/lib/libutee/tee_api_objects.c:55
    138e:	bd10      	pop	{r4, pc}
    1390:	a00000be 	.word	0xa00000be

00001394 <TEE_GetObjectInfo1>:
TEE_GetObjectInfo1():
/home/aom1/Work/Linux/target/STM32MP1-DK2/bootloader/optee-os-custom/lib/libutee/tee_api_objects.c:58
    1394:	b510      	push	{r4, lr}
/home/aom1/Work/Linux/target/STM32MP1-DK2/bootloader/optee-os-custom/lib/libutee/tee_api_objects.c:61
    1396:	f002 eee2 	blx	415c <_utee_cryp_obj_get_info>
/home/aom1/Work/Linux/target/STM32MP1-DK2/bootloader/optee-os-custom/lib/libutee/tee_api_objects.c:63
    139a:	4604      	mov	r4, r0
    139c:	b130      	cbz	r0, 13ac <TEE_GetObjectInfo1+0x18>
/home/aom1/Work/Linux/target/STM32MP1-DK2/bootloader/optee-os-custom/lib/libutee/tee_api_objects.c:63 (discriminator 1)
    139e:	4b04      	ldr	r3, [pc, #16]	; (13b0 <TEE_GetObjectInfo1+0x1c>)
    13a0:	f020 0202 	bic.w	r2, r0, #2
    13a4:	429a      	cmp	r2, r3
    13a6:	d001      	beq.n	13ac <TEE_GetObjectInfo1+0x18>
/home/aom1/Work/Linux/target/STM32MP1-DK2/bootloader/optee-os-custom/lib/libutee/tee_api_objects.c:66
    13a8:	f002 f998 	bl	36dc <TEE_Panic>
/home/aom1/Work/Linux/target/STM32MP1-DK2/bootloader/optee-os-custom/lib/libutee/tee_api_objects.c:69
    13ac:	4620      	mov	r0, r4
    13ae:	bd10      	pop	{r4, pc}
    13b0:	f0100001 	.word	0xf0100001

000013b4 <TEE_RestrictObjectUsage1>:
TEE_RestrictObjectUsage1():
/home/aom1/Work/Linux/target/STM32MP1-DK2/bootloader/optee-os-custom/lib/libutee/tee_api_objects.c:93
    13b4:	b510      	push	{r4, lr}
/home/aom1/Work/Linux/target/STM32MP1-DK2/bootloader/optee-os-custom/lib/libutee/tee_api_objects.c:96
    13b6:	f002 eedc 	blx	4170 <_utee_cryp_obj_restrict_usage>
/home/aom1/Work/Linux/target/STM32MP1-DK2/bootloader/optee-os-custom/lib/libutee/tee_api_objects.c:99
    13ba:	4604      	mov	r4, r0
    13bc:	b130      	cbz	r0, 13cc <TEE_RestrictObjectUsage1+0x18>
/home/aom1/Work/Linux/target/STM32MP1-DK2/bootloader/optee-os-custom/lib/libutee/tee_api_objects.c:99 (discriminator 1)
    13be:	4b04      	ldr	r3, [pc, #16]	; (13d0 <TEE_RestrictObjectUsage1+0x1c>)
    13c0:	f020 0202 	bic.w	r2, r0, #2
    13c4:	429a      	cmp	r2, r3
    13c6:	d001      	beq.n	13cc <TEE_RestrictObjectUsage1+0x18>
/home/aom1/Work/Linux/target/STM32MP1-DK2/bootloader/optee-os-custom/lib/libutee/tee_api_objects.c:102
    13c8:	f002 f988 	bl	36dc <TEE_Panic>
/home/aom1/Work/Linux/target/STM32MP1-DK2/bootloader/optee-os-custom/lib/libutee/tee_api_objects.c:105
    13cc:	4620      	mov	r0, r4
    13ce:	bd10      	pop	{r4, pc}
    13d0:	f0100001 	.word	0xf0100001

000013d4 <TEE_RestrictObjectUsage>:
TEE_RestrictObjectUsage():
/home/aom1/Work/Linux/target/STM32MP1-DK2/bootloader/optee-os-custom/lib/libutee/tee_api_objects.c:78
    13d4:	b530      	push	{r4, r5, lr}
    13d6:	b089      	sub	sp, #36	; 0x24
    13d8:	460d      	mov	r5, r1
/home/aom1/Work/Linux/target/STM32MP1-DK2/bootloader/optee-os-custom/lib/libutee/tee_api_objects.c:82
    13da:	a901      	add	r1, sp, #4
/home/aom1/Work/Linux/target/STM32MP1-DK2/bootloader/optee-os-custom/lib/libutee/tee_api_objects.c:78
    13dc:	4604      	mov	r4, r0
/home/aom1/Work/Linux/target/STM32MP1-DK2/bootloader/optee-os-custom/lib/libutee/tee_api_objects.c:82
    13de:	f002 eebe 	blx	415c <_utee_cryp_obj_get_info>
/home/aom1/Work/Linux/target/STM32MP1-DK2/bootloader/optee-os-custom/lib/libutee/tee_api_objects.c:83
    13e2:	4b06      	ldr	r3, [pc, #24]	; (13fc <TEE_RestrictObjectUsage+0x28>)
    13e4:	9a01      	ldr	r2, [sp, #4]
    13e6:	429a      	cmp	r2, r3
    13e8:	d006      	beq.n	13f8 <TEE_RestrictObjectUsage+0x24>
/home/aom1/Work/Linux/target/STM32MP1-DK2/bootloader/optee-os-custom/lib/libutee/tee_api_objects.c:86
    13ea:	4629      	mov	r1, r5
    13ec:	4620      	mov	r0, r4
    13ee:	f7ff ffe1 	bl	13b4 <TEE_RestrictObjectUsage1>
/home/aom1/Work/Linux/target/STM32MP1-DK2/bootloader/optee-os-custom/lib/libutee/tee_api_objects.c:88
    13f2:	b108      	cbz	r0, 13f8 <TEE_RestrictObjectUsage+0x24>
/home/aom1/Work/Linux/target/STM32MP1-DK2/bootloader/optee-os-custom/lib/libutee/tee_api_objects.c:89
    13f4:	f002 f972 	bl	36dc <TEE_Panic>
/home/aom1/Work/Linux/target/STM32MP1-DK2/bootloader/optee-os-custom/lib/libutee/tee_api_objects.c:90
    13f8:	b009      	add	sp, #36	; 0x24
    13fa:	bd30      	pop	{r4, r5, pc}
    13fc:	a00000be 	.word	0xa00000be

00001400 <TEE_GetObjectBufferAttribute>:
TEE_GetObjectBufferAttribute():
/home/aom1/Work/Linux/target/STM32MP1-DK2/bootloader/optee-os-custom/lib/libutee/tee_api_objects.c:110
    1400:	e92d 41f0 	stmdb	sp!, {r4, r5, r6, r7, r8, lr}
    1404:	4606      	mov	r6, r0
    1406:	b08a      	sub	sp, #40	; 0x28
/home/aom1/Work/Linux/target/STM32MP1-DK2/bootloader/optee-os-custom/lib/libutee/tee_api_objects.c:115
    1408:	4618      	mov	r0, r3
/home/aom1/Work/Linux/target/STM32MP1-DK2/bootloader/optee-os-custom/lib/libutee/tee_api_objects.c:110
    140a:	460f      	mov	r7, r1
/home/aom1/Work/Linux/target/STM32MP1-DK2/bootloader/optee-os-custom/lib/libutee/tee_api_objects.c:115
    140c:	2104      	movs	r1, #4
/home/aom1/Work/Linux/target/STM32MP1-DK2/bootloader/optee-os-custom/lib/libutee/tee_api_objects.c:110
    140e:	4690      	mov	r8, r2
    1410:	461d      	mov	r5, r3
/home/aom1/Work/Linux/target/STM32MP1-DK2/bootloader/optee-os-custom/lib/libutee/tee_api_objects.c:115
    1412:	f002 f9b6 	bl	3782 <__utee_check_inout_annotation>
/home/aom1/Work/Linux/target/STM32MP1-DK2/bootloader/optee-os-custom/lib/libutee/tee_api_objects.c:117
    1416:	a903      	add	r1, sp, #12
    1418:	4630      	mov	r0, r6
    141a:	f002 eea0 	blx	415c <_utee_cryp_obj_get_info>
/home/aom1/Work/Linux/target/STM32MP1-DK2/bootloader/optee-os-custom/lib/libutee/tee_api_objects.c:118
    141e:	4604      	mov	r4, r0
    1420:	b970      	cbnz	r0, 1440 <TEE_GetObjectBufferAttribute+0x40>
/home/aom1/Work/Linux/target/STM32MP1-DK2/bootloader/optee-os-custom/lib/libutee/tee_api_objects.c:122
    1422:	00bb      	lsls	r3, r7, #2
    1424:	d422      	bmi.n	146c <TEE_GetObjectBufferAttribute+0x6c>
/home/aom1/Work/Linux/target/STM32MP1-DK2/bootloader/optee-os-custom/lib/libutee/tee_api_objects.c:127
    1426:	682b      	ldr	r3, [r5, #0]
/home/aom1/Work/Linux/target/STM32MP1-DK2/bootloader/optee-os-custom/lib/libutee/tee_api_objects.c:128
    1428:	4642      	mov	r2, r8
    142a:	4639      	mov	r1, r7
/home/aom1/Work/Linux/target/STM32MP1-DK2/bootloader/optee-os-custom/lib/libutee/tee_api_objects.c:127
    142c:	e9cd 3000 	strd	r3, r0, [sp]
/home/aom1/Work/Linux/target/STM32MP1-DK2/bootloader/optee-os-custom/lib/libutee/tee_api_objects.c:128
    1430:	466b      	mov	r3, sp
    1432:	4630      	mov	r0, r6
    1434:	f002 eea6 	blx	4184 <_utee_cryp_obj_get_attr>
/home/aom1/Work/Linux/target/STM32MP1-DK2/bootloader/optee-os-custom/lib/libutee/tee_api_objects.c:130
    1438:	9b00      	ldr	r3, [sp, #0]
/home/aom1/Work/Linux/target/STM32MP1-DK2/bootloader/optee-os-custom/lib/libutee/tee_api_objects.c:133
    143a:	4604      	mov	r4, r0
/home/aom1/Work/Linux/target/STM32MP1-DK2/bootloader/optee-os-custom/lib/libutee/tee_api_objects.c:130
    143c:	602b      	str	r3, [r5, #0]
/home/aom1/Work/Linux/target/STM32MP1-DK2/bootloader/optee-os-custom/lib/libutee/tee_api_objects.c:133
    143e:	b188      	cbz	r0, 1464 <TEE_GetObjectBufferAttribute+0x64>
    1440:	4b0b      	ldr	r3, [pc, #44]	; (1470 <TEE_GetObjectBufferAttribute+0x70>)
    1442:	429c      	cmp	r4, r3
    1444:	d00e      	beq.n	1464 <TEE_GetObjectBufferAttribute+0x64>
/home/aom1/Work/Linux/target/STM32MP1-DK2/bootloader/optee-os-custom/lib/libutee/tee_api_objects.c:134
    1446:	3308      	adds	r3, #8
    1448:	429c      	cmp	r4, r3
    144a:	d00b      	beq.n	1464 <TEE_GetObjectBufferAttribute+0x64>
/home/aom1/Work/Linux/target/STM32MP1-DK2/bootloader/optee-os-custom/lib/libutee/tee_api_objects.c:135
    144c:	f1a3 637e 	sub.w	r3, r3, #266338304	; 0xfe00000
    1450:	f1a3 130f 	sub.w	r3, r3, #983055	; 0xf000f
    1454:	429c      	cmp	r4, r3
    1456:	d005      	beq.n	1464 <TEE_GetObjectBufferAttribute+0x64>
/home/aom1/Work/Linux/target/STM32MP1-DK2/bootloader/optee-os-custom/lib/libutee/tee_api_objects.c:136
    1458:	3302      	adds	r3, #2
    145a:	429c      	cmp	r4, r3
    145c:	d002      	beq.n	1464 <TEE_GetObjectBufferAttribute+0x64>
/home/aom1/Work/Linux/target/STM32MP1-DK2/bootloader/optee-os-custom/lib/libutee/tee_api_objects.c:138
    145e:	4620      	mov	r0, r4
    1460:	f002 f93c 	bl	36dc <TEE_Panic>
/home/aom1/Work/Linux/target/STM32MP1-DK2/bootloader/optee-os-custom/lib/libutee/tee_api_objects.c:141
    1464:	4620      	mov	r0, r4
    1466:	b00a      	add	sp, #40	; 0x28
    1468:	e8bd 81f0 	ldmia.w	sp!, {r4, r5, r6, r7, r8, pc}
/home/aom1/Work/Linux/target/STM32MP1-DK2/bootloader/optee-os-custom/lib/libutee/tee_api_objects.c:123
    146c:	4c01      	ldr	r4, [pc, #4]	; (1474 <TEE_GetObjectBufferAttribute+0x74>)
    146e:	e7f6      	b.n	145e <TEE_GetObjectBufferAttribute+0x5e>
    1470:	ffff0008 	.word	0xffff0008
    1474:	ffff0006 	.word	0xffff0006

00001478 <TEE_GetObjectValueAttribute>:
TEE_GetObjectValueAttribute():
/home/aom1/Work/Linux/target/STM32MP1-DK2/bootloader/optee-os-custom/lib/libutee/tee_api_objects.c:146
    1478:	e92d 41f0 	stmdb	sp!, {r4, r5, r6, r7, r8, lr}
    147c:	b08c      	sub	sp, #48	; 0x30
    147e:	4607      	mov	r7, r0
    1480:	4688      	mov	r8, r1
/home/aom1/Work/Linux/target/STM32MP1-DK2/bootloader/optee-os-custom/lib/libutee/tee_api_objects.c:150
    1482:	2008      	movs	r0, #8
    1484:	2100      	movs	r1, #0
/home/aom1/Work/Linux/target/STM32MP1-DK2/bootloader/optee-os-custom/lib/libutee/tee_api_objects.c:146
    1486:	461d      	mov	r5, r3
/home/aom1/Work/Linux/target/STM32MP1-DK2/bootloader/optee-os-custom/lib/libutee/tee_api_objects.c:152
    1488:	4616      	mov	r6, r2
/home/aom1/Work/Linux/target/STM32MP1-DK2/bootloader/optee-os-custom/lib/libutee/tee_api_objects.c:150
    148a:	e9cd 0100 	strd	r0, r1, [sp]
/home/aom1/Work/Linux/target/STM32MP1-DK2/bootloader/optee-os-custom/lib/libutee/tee_api_objects.c:152
    148e:	b11a      	cbz	r2, 1498 <TEE_GetObjectValueAttribute+0x20>
/home/aom1/Work/Linux/target/STM32MP1-DK2/bootloader/optee-os-custom/lib/libutee/tee_api_objects.c:153
    1490:	2104      	movs	r1, #4
    1492:	4610      	mov	r0, r2
    1494:	f002 f962 	bl	375c <__utee_check_out_annotation>
/home/aom1/Work/Linux/target/STM32MP1-DK2/bootloader/optee-os-custom/lib/libutee/tee_api_objects.c:154
    1498:	b11d      	cbz	r5, 14a2 <TEE_GetObjectValueAttribute+0x2a>
/home/aom1/Work/Linux/target/STM32MP1-DK2/bootloader/optee-os-custom/lib/libutee/tee_api_objects.c:155
    149a:	2104      	movs	r1, #4
    149c:	4628      	mov	r0, r5
    149e:	f002 f95d 	bl	375c <__utee_check_out_annotation>
/home/aom1/Work/Linux/target/STM32MP1-DK2/bootloader/optee-os-custom/lib/libutee/tee_api_objects.c:157
    14a2:	a905      	add	r1, sp, #20
    14a4:	4638      	mov	r0, r7
    14a6:	f002 ee5a 	blx	415c <_utee_cryp_obj_get_info>
/home/aom1/Work/Linux/target/STM32MP1-DK2/bootloader/optee-os-custom/lib/libutee/tee_api_objects.c:158
    14aa:	4604      	mov	r4, r0
    14ac:	b950      	cbnz	r0, 14c4 <TEE_GetObjectValueAttribute+0x4c>
/home/aom1/Work/Linux/target/STM32MP1-DK2/bootloader/optee-os-custom/lib/libutee/tee_api_objects.c:162
    14ae:	f018 5f00 	tst.w	r8, #536870912	; 0x20000000
    14b2:	d026      	beq.n	1502 <TEE_GetObjectValueAttribute+0x8a>
/home/aom1/Work/Linux/target/STM32MP1-DK2/bootloader/optee-os-custom/lib/libutee/tee_api_objects.c:167
    14b4:	466b      	mov	r3, sp
    14b6:	aa03      	add	r2, sp, #12
    14b8:	4641      	mov	r1, r8
    14ba:	4638      	mov	r0, r7
    14bc:	f002 ee62 	blx	4184 <_utee_cryp_obj_get_attr>
/home/aom1/Work/Linux/target/STM32MP1-DK2/bootloader/optee-os-custom/lib/libutee/tee_api_objects.c:171
    14c0:	4604      	mov	r4, r0
    14c2:	b158      	cbz	r0, 14dc <TEE_GetObjectValueAttribute+0x64>
    14c4:	4b10      	ldr	r3, [pc, #64]	; (1508 <TEE_GetObjectValueAttribute+0x90>)
    14c6:	429c      	cmp	r4, r3
    14c8:	d008      	beq.n	14dc <TEE_GetObjectValueAttribute+0x64>
/home/aom1/Work/Linux/target/STM32MP1-DK2/bootloader/optee-os-custom/lib/libutee/tee_api_objects.c:172
    14ca:	4b10      	ldr	r3, [pc, #64]	; (150c <TEE_GetObjectValueAttribute+0x94>)
    14cc:	429c      	cmp	r4, r3
    14ce:	d005      	beq.n	14dc <TEE_GetObjectValueAttribute+0x64>
/home/aom1/Work/Linux/target/STM32MP1-DK2/bootloader/optee-os-custom/lib/libutee/tee_api_objects.c:173
    14d0:	3302      	adds	r3, #2
    14d2:	429c      	cmp	r4, r3
    14d4:	d002      	beq.n	14dc <TEE_GetObjectValueAttribute+0x64>
/home/aom1/Work/Linux/target/STM32MP1-DK2/bootloader/optee-os-custom/lib/libutee/tee_api_objects.c:175
    14d6:	4620      	mov	r0, r4
    14d8:	f002 f900 	bl	36dc <TEE_Panic>
/home/aom1/Work/Linux/target/STM32MP1-DK2/bootloader/optee-os-custom/lib/libutee/tee_api_objects.c:177
    14dc:	9b00      	ldr	r3, [sp, #0]
    14de:	9a01      	ldr	r2, [sp, #4]
    14e0:	3b08      	subs	r3, #8
    14e2:	4313      	orrs	r3, r2
    14e4:	d002      	beq.n	14ec <TEE_GetObjectValueAttribute+0x74>
/home/aom1/Work/Linux/target/STM32MP1-DK2/bootloader/optee-os-custom/lib/libutee/tee_api_objects.c:178
    14e6:	2000      	movs	r0, #0
    14e8:	f002 f8f8 	bl	36dc <TEE_Panic>
/home/aom1/Work/Linux/target/STM32MP1-DK2/bootloader/optee-os-custom/lib/libutee/tee_api_objects.c:180
    14ec:	b92c      	cbnz	r4, 14fa <TEE_GetObjectValueAttribute+0x82>
/home/aom1/Work/Linux/target/STM32MP1-DK2/bootloader/optee-os-custom/lib/libutee/tee_api_objects.c:181
    14ee:	b10e      	cbz	r6, 14f4 <TEE_GetObjectValueAttribute+0x7c>
/home/aom1/Work/Linux/target/STM32MP1-DK2/bootloader/optee-os-custom/lib/libutee/tee_api_objects.c:182
    14f0:	9b03      	ldr	r3, [sp, #12]
    14f2:	6033      	str	r3, [r6, #0]
/home/aom1/Work/Linux/target/STM32MP1-DK2/bootloader/optee-os-custom/lib/libutee/tee_api_objects.c:183
    14f4:	b10d      	cbz	r5, 14fa <TEE_GetObjectValueAttribute+0x82>
/home/aom1/Work/Linux/target/STM32MP1-DK2/bootloader/optee-os-custom/lib/libutee/tee_api_objects.c:184
    14f6:	9b04      	ldr	r3, [sp, #16]
    14f8:	602b      	str	r3, [r5, #0]
/home/aom1/Work/Linux/target/STM32MP1-DK2/bootloader/optee-os-custom/lib/libutee/tee_api_objects.c:188
    14fa:	4620      	mov	r0, r4
    14fc:	b00c      	add	sp, #48	; 0x30
    14fe:	e8bd 81f0 	ldmia.w	sp!, {r4, r5, r6, r7, r8, pc}
/home/aom1/Work/Linux/target/STM32MP1-DK2/bootloader/optee-os-custom/lib/libutee/tee_api_objects.c:163
    1502:	4c03      	ldr	r4, [pc, #12]	; (1510 <TEE_GetObjectValueAttribute+0x98>)
    1504:	e7e7      	b.n	14d6 <TEE_GetObjectValueAttribute+0x5e>
    1506:	bf00      	nop
    1508:	ffff0008 	.word	0xffff0008
    150c:	f0100001 	.word	0xf0100001
    1510:	ffff0006 	.word	0xffff0006

00001514 <TEE_CloseObject>:
TEE_CloseObject():
/home/aom1/Work/Linux/target/STM32MP1-DK2/bootloader/optee-os-custom/lib/libutee/tee_api_objects.c:191
    1514:	b508      	push	{r3, lr}
/home/aom1/Work/Linux/target/STM32MP1-DK2/bootloader/optee-os-custom/lib/libutee/tee_api_objects.c:194
    1516:	b130      	cbz	r0, 1526 <TEE_CloseObject+0x12>
/home/aom1/Work/Linux/target/STM32MP1-DK2/bootloader/optee-os-custom/lib/libutee/tee_api_objects.c:197
    1518:	f002 ee48 	blx	41ac <_utee_cryp_obj_close>
/home/aom1/Work/Linux/target/STM32MP1-DK2/bootloader/optee-os-custom/lib/libutee/tee_api_objects.c:198
    151c:	b118      	cbz	r0, 1526 <TEE_CloseObject+0x12>
/home/aom1/Work/Linux/target/STM32MP1-DK2/bootloader/optee-os-custom/lib/libutee/tee_api_objects.c:200
    151e:	e8bd 4008 	ldmia.w	sp!, {r3, lr}
/home/aom1/Work/Linux/target/STM32MP1-DK2/bootloader/optee-os-custom/lib/libutee/tee_api_objects.c:199
    1522:	f002 b8db 	b.w	36dc <TEE_Panic>
/home/aom1/Work/Linux/target/STM32MP1-DK2/bootloader/optee-os-custom/lib/libutee/tee_api_objects.c:200
    1526:	bd08      	pop	{r3, pc}

00001528 <TEE_AllocateTransientObject>:
TEE_AllocateTransientObject():
/home/aom1/Work/Linux/target/STM32MP1-DK2/bootloader/optee-os-custom/lib/libutee/tee_api_objects.c:207
    1528:	b573      	push	{r0, r1, r4, r5, r6, lr}
    152a:	4604      	mov	r4, r0
    152c:	460e      	mov	r6, r1
/home/aom1/Work/Linux/target/STM32MP1-DK2/bootloader/optee-os-custom/lib/libutee/tee_api_objects.c:211
    152e:	4610      	mov	r0, r2
    1530:	2104      	movs	r1, #4
/home/aom1/Work/Linux/target/STM32MP1-DK2/bootloader/optee-os-custom/lib/libutee/tee_api_objects.c:207
    1532:	4615      	mov	r5, r2
/home/aom1/Work/Linux/target/STM32MP1-DK2/bootloader/optee-os-custom/lib/libutee/tee_api_objects.c:211
    1534:	f002 f912 	bl	375c <__utee_check_out_annotation>
/home/aom1/Work/Linux/target/STM32MP1-DK2/bootloader/optee-os-custom/lib/libutee/tee_api_objects.c:213
    1538:	4620      	mov	r0, r4
    153a:	aa01      	add	r2, sp, #4
    153c:	4631      	mov	r1, r6
    153e:	f002 ee2c 	blx	4198 <_utee_cryp_obj_alloc>
/home/aom1/Work/Linux/target/STM32MP1-DK2/bootloader/optee-os-custom/lib/libutee/tee_api_objects.c:215
    1542:	4604      	mov	r4, r0
    1544:	b150      	cbz	r0, 155c <TEE_AllocateTransientObject+0x34>
/home/aom1/Work/Linux/target/STM32MP1-DK2/bootloader/optee-os-custom/lib/libutee/tee_api_objects.c:215 (discriminator 1)
    1546:	4b07      	ldr	r3, [pc, #28]	; (1564 <TEE_AllocateTransientObject+0x3c>)
    1548:	4298      	cmp	r0, r3
    154a:	d004      	beq.n	1556 <TEE_AllocateTransientObject+0x2e>
/home/aom1/Work/Linux/target/STM32MP1-DK2/bootloader/optee-os-custom/lib/libutee/tee_api_objects.c:216
    154c:	3b02      	subs	r3, #2
    154e:	4298      	cmp	r0, r3
    1550:	d001      	beq.n	1556 <TEE_AllocateTransientObject+0x2e>
/home/aom1/Work/Linux/target/STM32MP1-DK2/bootloader/optee-os-custom/lib/libutee/tee_api_objects.c:218
    1552:	f002 f8c3 	bl	36dc <TEE_Panic>
/home/aom1/Work/Linux/target/STM32MP1-DK2/bootloader/optee-os-custom/lib/libutee/tee_api_objects.c:224
    1556:	4620      	mov	r0, r4
    1558:	b002      	add	sp, #8
    155a:	bd70      	pop	{r4, r5, r6, pc}
/home/aom1/Work/Linux/target/STM32MP1-DK2/bootloader/optee-os-custom/lib/libutee/tee_api_objects.c:221
    155c:	9b01      	ldr	r3, [sp, #4]
    155e:	602b      	str	r3, [r5, #0]
    1560:	e7f9      	b.n	1556 <TEE_AllocateTransientObject+0x2e>
    1562:	bf00      	nop
    1564:	ffff000c 	.word	0xffff000c

00001568 <TEE_FreeTransientObject>:
TEE_FreeTransientObject():
/home/aom1/Work/Linux/target/STM32MP1-DK2/bootloader/optee-os-custom/lib/libutee/tee_api_objects.c:227
    1568:	b510      	push	{r4, lr}
/home/aom1/Work/Linux/target/STM32MP1-DK2/bootloader/optee-os-custom/lib/libutee/tee_api_objects.c:231
    156a:	4604      	mov	r4, r0
/home/aom1/Work/Linux/target/STM32MP1-DK2/bootloader/optee-os-custom/lib/libutee/tee_api_objects.c:227
    156c:	b088      	sub	sp, #32
/home/aom1/Work/Linux/target/STM32MP1-DK2/bootloader/optee-os-custom/lib/libutee/tee_api_objects.c:231
    156e:	b188      	cbz	r0, 1594 <TEE_FreeTransientObject+0x2c>
/home/aom1/Work/Linux/target/STM32MP1-DK2/bootloader/optee-os-custom/lib/libutee/tee_api_objects.c:234
    1570:	a901      	add	r1, sp, #4
    1572:	f002 edf4 	blx	415c <_utee_cryp_obj_get_info>
/home/aom1/Work/Linux/target/STM32MP1-DK2/bootloader/optee-os-custom/lib/libutee/tee_api_objects.c:235
    1576:	b108      	cbz	r0, 157c <TEE_FreeTransientObject+0x14>
/home/aom1/Work/Linux/target/STM32MP1-DK2/bootloader/optee-os-custom/lib/libutee/tee_api_objects.c:236
    1578:	f002 f8b0 	bl	36dc <TEE_Panic>
/home/aom1/Work/Linux/target/STM32MP1-DK2/bootloader/optee-os-custom/lib/libutee/tee_api_objects.c:238
    157c:	9b07      	ldr	r3, [sp, #28]
    157e:	03db      	lsls	r3, r3, #15
    1580:	d502      	bpl.n	1588 <TEE_FreeTransientObject+0x20>
/home/aom1/Work/Linux/target/STM32MP1-DK2/bootloader/optee-os-custom/lib/libutee/tee_api_objects.c:239
    1582:	2000      	movs	r0, #0
    1584:	f002 f8aa 	bl	36dc <TEE_Panic>
/home/aom1/Work/Linux/target/STM32MP1-DK2/bootloader/optee-os-custom/lib/libutee/tee_api_objects.c:241
    1588:	4620      	mov	r0, r4
    158a:	f002 ee10 	blx	41ac <_utee_cryp_obj_close>
/home/aom1/Work/Linux/target/STM32MP1-DK2/bootloader/optee-os-custom/lib/libutee/tee_api_objects.c:242
    158e:	b108      	cbz	r0, 1594 <TEE_FreeTransientObject+0x2c>
/home/aom1/Work/Linux/target/STM32MP1-DK2/bootloader/optee-os-custom/lib/libutee/tee_api_objects.c:243
    1590:	f002 f8a4 	bl	36dc <TEE_Panic>
/home/aom1/Work/Linux/target/STM32MP1-DK2/bootloader/optee-os-custom/lib/libutee/tee_api_objects.c:244
    1594:	b008      	add	sp, #32
    1596:	bd10      	pop	{r4, pc}

00001598 <TEE_ResetTransientObject>:
TEE_ResetTransientObject():
/home/aom1/Work/Linux/target/STM32MP1-DK2/bootloader/optee-os-custom/lib/libutee/tee_api_objects.c:247
    1598:	b510      	push	{r4, lr}
/home/aom1/Work/Linux/target/STM32MP1-DK2/bootloader/optee-os-custom/lib/libutee/tee_api_objects.c:251
    159a:	4604      	mov	r4, r0
/home/aom1/Work/Linux/target/STM32MP1-DK2/bootloader/optee-os-custom/lib/libutee/tee_api_objects.c:247
    159c:	b088      	sub	sp, #32
/home/aom1/Work/Linux/target/STM32MP1-DK2/bootloader/optee-os-custom/lib/libutee/tee_api_objects.c:251
    159e:	b188      	cbz	r0, 15c4 <TEE_ResetTransientObject+0x2c>
/home/aom1/Work/Linux/target/STM32MP1-DK2/bootloader/optee-os-custom/lib/libutee/tee_api_objects.c:254
    15a0:	a901      	add	r1, sp, #4
    15a2:	f002 eddc 	blx	415c <_utee_cryp_obj_get_info>
/home/aom1/Work/Linux/target/STM32MP1-DK2/bootloader/optee-os-custom/lib/libutee/tee_api_objects.c:255
    15a6:	b108      	cbz	r0, 15ac <TEE_ResetTransientObject+0x14>
/home/aom1/Work/Linux/target/STM32MP1-DK2/bootloader/optee-os-custom/lib/libutee/tee_api_objects.c:256
    15a8:	f002 f898 	bl	36dc <TEE_Panic>
/home/aom1/Work/Linux/target/STM32MP1-DK2/bootloader/optee-os-custom/lib/libutee/tee_api_objects.c:258
    15ac:	9b07      	ldr	r3, [sp, #28]
    15ae:	03db      	lsls	r3, r3, #15
    15b0:	d502      	bpl.n	15b8 <TEE_ResetTransientObject+0x20>
/home/aom1/Work/Linux/target/STM32MP1-DK2/bootloader/optee-os-custom/lib/libutee/tee_api_objects.c:259
    15b2:	2000      	movs	r0, #0
    15b4:	f002 f892 	bl	36dc <TEE_Panic>
/home/aom1/Work/Linux/target/STM32MP1-DK2/bootloader/optee-os-custom/lib/libutee/tee_api_objects.c:261
    15b8:	4620      	mov	r0, r4
    15ba:	f002 ee02 	blx	41c0 <_utee_cryp_obj_reset>
/home/aom1/Work/Linux/target/STM32MP1-DK2/bootloader/optee-os-custom/lib/libutee/tee_api_objects.c:262
    15be:	b108      	cbz	r0, 15c4 <TEE_ResetTransientObject+0x2c>
/home/aom1/Work/Linux/target/STM32MP1-DK2/bootloader/optee-os-custom/lib/libutee/tee_api_objects.c:263
    15c0:	f002 f88c 	bl	36dc <TEE_Panic>
/home/aom1/Work/Linux/target/STM32MP1-DK2/bootloader/optee-os-custom/lib/libutee/tee_api_objects.c:264
    15c4:	b008      	add	sp, #32
    15c6:	bd10      	pop	{r4, pc}

000015c8 <TEE_PopulateTransientObject>:
TEE_PopulateTransientObject():
/home/aom1/Work/Linux/target/STM32MP1-DK2/bootloader/optee-os-custom/lib/libutee/tee_api_objects.c:269
    15c8:	e92d 41f0 	stmdb	sp!, {r4, r5, r6, r7, r8, lr}
    15cc:	b088      	sub	sp, #32
    15ce:	4614      	mov	r4, r2
/home/aom1/Work/Linux/target/STM32MP1-DK2/bootloader/optee-os-custom/lib/libutee/tee_api_objects.c:272
    15d0:	2318      	movs	r3, #24
    15d2:	466a      	mov	r2, sp
/home/aom1/Work/Linux/target/STM32MP1-DK2/bootloader/optee-os-custom/lib/libutee/tee_api_objects.c:269
    15d4:	460e      	mov	r6, r1
/home/aom1/Work/Linux/target/STM32MP1-DK2/bootloader/optee-os-custom/lib/libutee/tee_api_objects.c:272
    15d6:	fb03 2314 	mls	r3, r3, r4, r2
/home/aom1/Work/Linux/target/STM32MP1-DK2/bootloader/optee-os-custom/lib/libutee/tee_api_objects.c:269
    15da:	af00      	add	r7, sp, #0
    15dc:	4605      	mov	r5, r0
/home/aom1/Work/Linux/target/STM32MP1-DK2/bootloader/optee-os-custom/lib/libutee/tee_api_objects.c:272
    15de:	469d      	mov	sp, r3
/home/aom1/Work/Linux/target/STM32MP1-DK2/bootloader/optee-os-custom/lib/libutee/tee_api_objects.c:274
    15e0:	4621      	mov	r1, r4
    15e2:	4630      	mov	r0, r6
/home/aom1/Work/Linux/target/STM32MP1-DK2/bootloader/optee-os-custom/lib/libutee/tee_api_objects.c:272
    15e4:	46e8      	mov	r8, sp
/home/aom1/Work/Linux/target/STM32MP1-DK2/bootloader/optee-os-custom/lib/libutee/tee_api_objects.c:274
    15e6:	f002 f8c2 	bl	376e <__utee_check_attr_in_annotation>
/home/aom1/Work/Linux/target/STM32MP1-DK2/bootloader/optee-os-custom/lib/libutee/tee_api_objects.c:276
    15ea:	1d39      	adds	r1, r7, #4
    15ec:	4628      	mov	r0, r5
    15ee:	f002 edb6 	blx	415c <_utee_cryp_obj_get_info>
/home/aom1/Work/Linux/target/STM32MP1-DK2/bootloader/optee-os-custom/lib/libutee/tee_api_objects.c:277
    15f2:	b108      	cbz	r0, 15f8 <TEE_PopulateTransientObject+0x30>
/home/aom1/Work/Linux/target/STM32MP1-DK2/bootloader/optee-os-custom/lib/libutee/tee_api_objects.c:278
    15f4:	f002 f872 	bl	36dc <TEE_Panic>
/home/aom1/Work/Linux/target/STM32MP1-DK2/bootloader/optee-os-custom/lib/libutee/tee_api_objects.c:281
    15f8:	69fb      	ldr	r3, [r7, #28]
    15fa:	03da      	lsls	r2, r3, #15
    15fc:	d502      	bpl.n	1604 <TEE_PopulateTransientObject+0x3c>
/home/aom1/Work/Linux/target/STM32MP1-DK2/bootloader/optee-os-custom/lib/libutee/tee_api_objects.c:282
    15fe:	2000      	movs	r0, #0
    1600:	f002 f86c 	bl	36dc <TEE_Panic>
/home/aom1/Work/Linux/target/STM32MP1-DK2/bootloader/optee-os-custom/lib/libutee/tee_api_objects.c:285
    1604:	69fb      	ldr	r3, [r7, #28]
    1606:	039b      	lsls	r3, r3, #14
    1608:	d502      	bpl.n	1610 <TEE_PopulateTransientObject+0x48>
/home/aom1/Work/Linux/target/STM32MP1-DK2/bootloader/optee-os-custom/lib/libutee/tee_api_objects.c:286
    160a:	2000      	movs	r0, #0
    160c:	f002 f866 	bl	36dc <TEE_Panic>
/home/aom1/Work/Linux/target/STM32MP1-DK2/bootloader/optee-os-custom/lib/libutee/tee_api_objects.c:288
    1610:	4622      	mov	r2, r4
    1612:	4631      	mov	r1, r6
    1614:	4640      	mov	r0, r8
    1616:	f7ff fe93 	bl	1340 <__utee_from_attr>
/home/aom1/Work/Linux/target/STM32MP1-DK2/bootloader/optee-os-custom/lib/libutee/tee_api_objects.c:289
    161a:	4622      	mov	r2, r4
    161c:	4641      	mov	r1, r8
    161e:	4628      	mov	r0, r5
    1620:	f002 edd8 	blx	41d4 <_utee_cryp_obj_populate>
/home/aom1/Work/Linux/target/STM32MP1-DK2/bootloader/optee-os-custom/lib/libutee/tee_api_objects.c:290
    1624:	4604      	mov	r4, r0
    1626:	b120      	cbz	r0, 1632 <TEE_PopulateTransientObject+0x6a>
/home/aom1/Work/Linux/target/STM32MP1-DK2/bootloader/optee-os-custom/lib/libutee/tee_api_objects.c:290 (discriminator 1)
    1628:	4b04      	ldr	r3, [pc, #16]	; (163c <TEE_PopulateTransientObject+0x74>)
    162a:	4298      	cmp	r0, r3
    162c:	d001      	beq.n	1632 <TEE_PopulateTransientObject+0x6a>
/home/aom1/Work/Linux/target/STM32MP1-DK2/bootloader/optee-os-custom/lib/libutee/tee_api_objects.c:291
    162e:	f002 f855 	bl	36dc <TEE_Panic>
/home/aom1/Work/Linux/target/STM32MP1-DK2/bootloader/optee-os-custom/lib/libutee/tee_api_objects.c:293
    1632:	4620      	mov	r0, r4
    1634:	3720      	adds	r7, #32
    1636:	46bd      	mov	sp, r7
    1638:	e8bd 81f0 	ldmia.w	sp!, {r4, r5, r6, r7, r8, pc}
    163c:	ffff0006 	.word	0xffff0006

00001640 <TEE_InitRefAttribute>:
TEE_InitRefAttribute():
/home/aom1/Work/Linux/target/STM32MP1-DK2/bootloader/optee-os-custom/lib/libutee/tee_api_objects.c:297
    1640:	b5f8      	push	{r3, r4, r5, r6, r7, lr}
    1642:	460d      	mov	r5, r1
/home/aom1/Work/Linux/target/STM32MP1-DK2/bootloader/optee-os-custom/lib/libutee/tee_api_objects.c:298
    1644:	210c      	movs	r1, #12
/home/aom1/Work/Linux/target/STM32MP1-DK2/bootloader/optee-os-custom/lib/libutee/tee_api_objects.c:297
    1646:	461e      	mov	r6, r3
    1648:	4604      	mov	r4, r0
    164a:	4617      	mov	r7, r2
/home/aom1/Work/Linux/target/STM32MP1-DK2/bootloader/optee-os-custom/lib/libutee/tee_api_objects.c:298
    164c:	f002 f886 	bl	375c <__utee_check_out_annotation>
/home/aom1/Work/Linux/target/STM32MP1-DK2/bootloader/optee-os-custom/lib/libutee/tee_api_objects.c:300
    1650:	00ab      	lsls	r3, r5, #2
    1652:	d502      	bpl.n	165a <TEE_InitRefAttribute+0x1a>
/home/aom1/Work/Linux/target/STM32MP1-DK2/bootloader/optee-os-custom/lib/libutee/tee_api_objects.c:301
    1654:	2000      	movs	r0, #0
    1656:	f002 f841 	bl	36dc <TEE_Panic>
/home/aom1/Work/Linux/target/STM32MP1-DK2/bootloader/optee-os-custom/lib/libutee/tee_api_objects.c:303
    165a:	e9c4 5700 	strd	r5, r7, [r4]
/home/aom1/Work/Linux/target/STM32MP1-DK2/bootloader/optee-os-custom/lib/libutee/tee_api_objects.c:304
    165e:	60a6      	str	r6, [r4, #8]
/home/aom1/Work/Linux/target/STM32MP1-DK2/bootloader/optee-os-custom/lib/libutee/tee_api_objects.c:305
    1660:	bdf8      	pop	{r3, r4, r5, r6, r7, pc}

00001662 <TEE_InitValueAttribute>:
TEE_InitValueAttribute():
/home/aom1/Work/Linux/target/STM32MP1-DK2/bootloader/optee-os-custom/lib/libutee/tee_api_objects.c:309
    1662:	b5f8      	push	{r3, r4, r5, r6, r7, lr}
    1664:	460d      	mov	r5, r1
/home/aom1/Work/Linux/target/STM32MP1-DK2/bootloader/optee-os-custom/lib/libutee/tee_api_objects.c:310
    1666:	210c      	movs	r1, #12
/home/aom1/Work/Linux/target/STM32MP1-DK2/bootloader/optee-os-custom/lib/libutee/tee_api_objects.c:309
    1668:	4604      	mov	r4, r0
    166a:	4617      	mov	r7, r2
    166c:	461e      	mov	r6, r3
/home/aom1/Work/Linux/target/STM32MP1-DK2/bootloader/optee-os-custom/lib/libutee/tee_api_objects.c:310
    166e:	f002 f875 	bl	375c <__utee_check_out_annotation>
/home/aom1/Work/Linux/target/STM32MP1-DK2/bootloader/optee-os-custom/lib/libutee/tee_api_objects.c:312
    1672:	f015 5000 	ands.w	r0, r5, #536870912	; 0x20000000
    1676:	d101      	bne.n	167c <TEE_InitValueAttribute+0x1a>
/home/aom1/Work/Linux/target/STM32MP1-DK2/bootloader/optee-os-custom/lib/libutee/tee_api_objects.c:313
    1678:	f002 f830 	bl	36dc <TEE_Panic>
/home/aom1/Work/Linux/target/STM32MP1-DK2/bootloader/optee-os-custom/lib/libutee/tee_api_objects.c:315
    167c:	e9c4 5700 	strd	r5, r7, [r4]
/home/aom1/Work/Linux/target/STM32MP1-DK2/bootloader/optee-os-custom/lib/libutee/tee_api_objects.c:316
    1680:	60a6      	str	r6, [r4, #8]
/home/aom1/Work/Linux/target/STM32MP1-DK2/bootloader/optee-os-custom/lib/libutee/tee_api_objects.c:317
    1682:	bdf8      	pop	{r3, r4, r5, r6, r7, pc}

00001684 <TEE_CopyObjectAttributes1>:
TEE_CopyObjectAttributes1():
/home/aom1/Work/Linux/target/STM32MP1-DK2/bootloader/optee-os-custom/lib/libutee/tee_api_objects.c:342
    1684:	b570      	push	{r4, r5, r6, lr}
    1686:	b08e      	sub	sp, #56	; 0x38
    1688:	460d      	mov	r5, r1
/home/aom1/Work/Linux/target/STM32MP1-DK2/bootloader/optee-os-custom/lib/libutee/tee_api_objects.c:347
    168a:	4669      	mov	r1, sp
/home/aom1/Work/Linux/target/STM32MP1-DK2/bootloader/optee-os-custom/lib/libutee/tee_api_objects.c:342
    168c:	4606      	mov	r6, r0
/home/aom1/Work/Linux/target/STM32MP1-DK2/bootloader/optee-os-custom/lib/libutee/tee_api_objects.c:347
    168e:	f002 ed66 	blx	415c <_utee_cryp_obj_get_info>
/home/aom1/Work/Linux/target/STM32MP1-DK2/bootloader/optee-os-custom/lib/libutee/tee_api_objects.c:348
    1692:	4604      	mov	r4, r0
    1694:	b9e0      	cbnz	r0, 16d0 <TEE_CopyObjectAttributes1+0x4c>
/home/aom1/Work/Linux/target/STM32MP1-DK2/bootloader/optee-os-custom/lib/libutee/tee_api_objects.c:351
    1696:	a907      	add	r1, sp, #28
    1698:	4628      	mov	r0, r5
    169a:	f002 ed60 	blx	415c <_utee_cryp_obj_get_info>
/home/aom1/Work/Linux/target/STM32MP1-DK2/bootloader/optee-os-custom/lib/libutee/tee_api_objects.c:352
    169e:	4604      	mov	r4, r0
    16a0:	b9b0      	cbnz	r0, 16d0 <TEE_CopyObjectAttributes1+0x4c>
/home/aom1/Work/Linux/target/STM32MP1-DK2/bootloader/optee-os-custom/lib/libutee/tee_api_objects.c:355
    16a2:	9b0d      	ldr	r3, [sp, #52]	; 0x34
    16a4:	0399      	lsls	r1, r3, #14
    16a6:	d401      	bmi.n	16ac <TEE_CopyObjectAttributes1+0x28>
/home/aom1/Work/Linux/target/STM32MP1-DK2/bootloader/optee-os-custom/lib/libutee/tee_api_objects.c:356
    16a8:	f002 f818 	bl	36dc <TEE_Panic>
/home/aom1/Work/Linux/target/STM32MP1-DK2/bootloader/optee-os-custom/lib/libutee/tee_api_objects.c:358
    16ac:	9b06      	ldr	r3, [sp, #24]
    16ae:	03da      	lsls	r2, r3, #15
    16b0:	d502      	bpl.n	16b8 <TEE_CopyObjectAttributes1+0x34>
/home/aom1/Work/Linux/target/STM32MP1-DK2/bootloader/optee-os-custom/lib/libutee/tee_api_objects.c:359
    16b2:	2000      	movs	r0, #0
    16b4:	f002 f812 	bl	36dc <TEE_Panic>
/home/aom1/Work/Linux/target/STM32MP1-DK2/bootloader/optee-os-custom/lib/libutee/tee_api_objects.c:361
    16b8:	9b06      	ldr	r3, [sp, #24]
    16ba:	039b      	lsls	r3, r3, #14
    16bc:	d502      	bpl.n	16c4 <TEE_CopyObjectAttributes1+0x40>
/home/aom1/Work/Linux/target/STM32MP1-DK2/bootloader/optee-os-custom/lib/libutee/tee_api_objects.c:362
    16be:	2000      	movs	r0, #0
    16c0:	f002 f80c 	bl	36dc <TEE_Panic>
/home/aom1/Work/Linux/target/STM32MP1-DK2/bootloader/optee-os-custom/lib/libutee/tee_api_objects.c:364
    16c4:	4629      	mov	r1, r5
    16c6:	4630      	mov	r0, r6
    16c8:	f002 ed8e 	blx	41e8 <_utee_cryp_obj_copy>
/home/aom1/Work/Linux/target/STM32MP1-DK2/bootloader/optee-os-custom/lib/libutee/tee_api_objects.c:368
    16cc:	4604      	mov	r4, r0
    16ce:	b140      	cbz	r0, 16e2 <TEE_CopyObjectAttributes1+0x5e>
/home/aom1/Work/Linux/target/STM32MP1-DK2/bootloader/optee-os-custom/lib/libutee/tee_api_objects.c:368 (discriminator 1)
    16d0:	4b05      	ldr	r3, [pc, #20]	; (16e8 <TEE_CopyObjectAttributes1+0x64>)
    16d2:	429c      	cmp	r4, r3
    16d4:	d005      	beq.n	16e2 <TEE_CopyObjectAttributes1+0x5e>
/home/aom1/Work/Linux/target/STM32MP1-DK2/bootloader/optee-os-custom/lib/libutee/tee_api_objects.c:369
    16d6:	3302      	adds	r3, #2
    16d8:	429c      	cmp	r4, r3
    16da:	d002      	beq.n	16e2 <TEE_CopyObjectAttributes1+0x5e>
/home/aom1/Work/Linux/target/STM32MP1-DK2/bootloader/optee-os-custom/lib/libutee/tee_api_objects.c:371
    16dc:	4620      	mov	r0, r4
    16de:	f001 fffd 	bl	36dc <TEE_Panic>
/home/aom1/Work/Linux/target/STM32MP1-DK2/bootloader/optee-os-custom/lib/libutee/tee_api_objects.c:374
    16e2:	4620      	mov	r0, r4
    16e4:	b00e      	add	sp, #56	; 0x38
    16e6:	bd70      	pop	{r4, r5, r6, pc}
    16e8:	f0100001 	.word	0xf0100001

000016ec <TEE_CopyObjectAttributes>:
TEE_CopyObjectAttributes():
/home/aom1/Work/Linux/target/STM32MP1-DK2/bootloader/optee-os-custom/lib/libutee/tee_api_objects.c:327
    16ec:	b530      	push	{r4, r5, lr}
    16ee:	460c      	mov	r4, r1
    16f0:	b089      	sub	sp, #36	; 0x24
    16f2:	4605      	mov	r5, r0
/home/aom1/Work/Linux/target/STM32MP1-DK2/bootloader/optee-os-custom/lib/libutee/tee_api_objects.c:331
    16f4:	a901      	add	r1, sp, #4
    16f6:	4620      	mov	r0, r4
    16f8:	f002 ed30 	blx	415c <_utee_cryp_obj_get_info>
/home/aom1/Work/Linux/target/STM32MP1-DK2/bootloader/optee-os-custom/lib/libutee/tee_api_objects.c:332
    16fc:	4b06      	ldr	r3, [pc, #24]	; (1718 <TEE_CopyObjectAttributes+0x2c>)
    16fe:	9a01      	ldr	r2, [sp, #4]
    1700:	429a      	cmp	r2, r3
    1702:	d006      	beq.n	1712 <TEE_CopyObjectAttributes+0x26>
/home/aom1/Work/Linux/target/STM32MP1-DK2/bootloader/optee-os-custom/lib/libutee/tee_api_objects.c:335
    1704:	4621      	mov	r1, r4
    1706:	4628      	mov	r0, r5
    1708:	f7ff ffbc 	bl	1684 <TEE_CopyObjectAttributes1>
/home/aom1/Work/Linux/target/STM32MP1-DK2/bootloader/optee-os-custom/lib/libutee/tee_api_objects.c:336
    170c:	b108      	cbz	r0, 1712 <TEE_CopyObjectAttributes+0x26>
/home/aom1/Work/Linux/target/STM32MP1-DK2/bootloader/optee-os-custom/lib/libutee/tee_api_objects.c:337
    170e:	f001 ffe5 	bl	36dc <TEE_Panic>
/home/aom1/Work/Linux/target/STM32MP1-DK2/bootloader/optee-os-custom/lib/libutee/tee_api_objects.c:338
    1712:	b009      	add	sp, #36	; 0x24
    1714:	bd30      	pop	{r4, r5, pc}
    1716:	bf00      	nop
    1718:	a00000be 	.word	0xa00000be

0000171c <TEE_GenerateKey>:
TEE_GenerateKey():
/home/aom1/Work/Linux/target/STM32MP1-DK2/bootloader/optee-os-custom/lib/libutee/tee_api_objects.c:378
    171c:	e92d 43f8 	stmdb	sp!, {r3, r4, r5, r6, r7, r8, r9, lr}
    1720:	461c      	mov	r4, r3
    1722:	4615      	mov	r5, r2
/home/aom1/Work/Linux/target/STM32MP1-DK2/bootloader/optee-os-custom/lib/libutee/tee_api_objects.c:380
    1724:	2318      	movs	r3, #24
    1726:	466a      	mov	r2, sp
/home/aom1/Work/Linux/target/STM32MP1-DK2/bootloader/optee-os-custom/lib/libutee/tee_api_objects.c:378
    1728:	af00      	add	r7, sp, #0
/home/aom1/Work/Linux/target/STM32MP1-DK2/bootloader/optee-os-custom/lib/libutee/tee_api_objects.c:380
    172a:	fb03 2314 	mls	r3, r3, r4, r2
/home/aom1/Work/Linux/target/STM32MP1-DK2/bootloader/optee-os-custom/lib/libutee/tee_api_objects.c:378
    172e:	4606      	mov	r6, r0
    1730:	4688      	mov	r8, r1
/home/aom1/Work/Linux/target/STM32MP1-DK2/bootloader/optee-os-custom/lib/libutee/tee_api_objects.c:380
    1732:	469d      	mov	sp, r3
/home/aom1/Work/Linux/target/STM32MP1-DK2/bootloader/optee-os-custom/lib/libutee/tee_api_objects.c:382
    1734:	4621      	mov	r1, r4
/home/aom1/Work/Linux/target/STM32MP1-DK2/bootloader/optee-os-custom/lib/libutee/tee_api_objects.c:380
    1736:	46e9      	mov	r9, sp
/home/aom1/Work/Linux/target/STM32MP1-DK2/bootloader/optee-os-custom/lib/libutee/tee_api_objects.c:382
    1738:	4628      	mov	r0, r5
    173a:	f002 f818 	bl	376e <__utee_check_attr_in_annotation>
/home/aom1/Work/Linux/target/STM32MP1-DK2/bootloader/optee-os-custom/lib/libutee/tee_api_objects.c:384
    173e:	4622      	mov	r2, r4
    1740:	4629      	mov	r1, r5
    1742:	4648      	mov	r0, r9
    1744:	f7ff fdfc 	bl	1340 <__utee_from_attr>
/home/aom1/Work/Linux/target/STM32MP1-DK2/bootloader/optee-os-custom/lib/libutee/tee_api_objects.c:385
    1748:	4623      	mov	r3, r4
    174a:	464a      	mov	r2, r9
    174c:	4641      	mov	r1, r8
    174e:	4630      	mov	r0, r6
    1750:	f002 ee40 	blx	43d4 <_utee_cryp_obj_generate_key>
/home/aom1/Work/Linux/target/STM32MP1-DK2/bootloader/optee-os-custom/lib/libutee/tee_api_objects.c:388
    1754:	4604      	mov	r4, r0
    1756:	b120      	cbz	r0, 1762 <TEE_GenerateKey+0x46>
/home/aom1/Work/Linux/target/STM32MP1-DK2/bootloader/optee-os-custom/lib/libutee/tee_api_objects.c:388 (discriminator 1)
    1758:	4b04      	ldr	r3, [pc, #16]	; (176c <TEE_GenerateKey+0x50>)
    175a:	4298      	cmp	r0, r3
    175c:	d001      	beq.n	1762 <TEE_GenerateKey+0x46>
/home/aom1/Work/Linux/target/STM32MP1-DK2/bootloader/optee-os-custom/lib/libutee/tee_api_objects.c:389
    175e:	f001 ffbd 	bl	36dc <TEE_Panic>
/home/aom1/Work/Linux/target/STM32MP1-DK2/bootloader/optee-os-custom/lib/libutee/tee_api_objects.c:392
    1762:	4620      	mov	r0, r4
    1764:	46bd      	mov	sp, r7
    1766:	e8bd 83f8 	ldmia.w	sp!, {r3, r4, r5, r6, r7, r8, r9, pc}
    176a:	bf00      	nop
    176c:	ffff0006 	.word	0xffff0006

00001770 <TEE_OpenPersistentObject>:
TEE_OpenPersistentObject():
/home/aom1/Work/Linux/target/STM32MP1-DK2/bootloader/optee-os-custom/lib/libutee/tee_api_objects.c:399
    1770:	e92d 41ff 	stmdb	sp!, {r0, r1, r2, r3, r4, r5, r6, r7, r8, lr}
    1774:	4605      	mov	r5, r0
    1776:	f8dd 8028 	ldr.w	r8, [sp, #40]	; 0x28
    177a:	4616      	mov	r6, r2
    177c:	461f      	mov	r7, r3
/home/aom1/Work/Linux/target/STM32MP1-DK2/bootloader/optee-os-custom/lib/libutee/tee_api_objects.c:403
    177e:	460c      	mov	r4, r1
    1780:	b911      	cbnz	r1, 1788 <TEE_OpenPersistentObject+0x18>
/home/aom1/Work/Linux/target/STM32MP1-DK2/bootloader/optee-os-custom/lib/libutee/tee_api_objects.c:399
    1782:	4c15      	ldr	r4, [pc, #84]	; (17d8 <TEE_OpenPersistentObject+0x68>)
    1784:	2300      	movs	r3, #0
    1786:	e00e      	b.n	17a6 <TEE_OpenPersistentObject+0x36>
/home/aom1/Work/Linux/target/STM32MP1-DK2/bootloader/optee-os-custom/lib/libutee/tee_api_objects.c:408
    1788:	2104      	movs	r1, #4
    178a:	4640      	mov	r0, r8
    178c:	f001 ffe6 	bl	375c <__utee_check_out_annotation>
/home/aom1/Work/Linux/target/STM32MP1-DK2/bootloader/optee-os-custom/lib/libutee/tee_api_objects.c:410
    1790:	ab03      	add	r3, sp, #12
    1792:	4621      	mov	r1, r4
    1794:	9300      	str	r3, [sp, #0]
    1796:	4632      	mov	r2, r6
    1798:	463b      	mov	r3, r7
    179a:	4628      	mov	r0, r5
    179c:	f002 ed94 	blx	42c8 <_utee_storage_obj_open>
/home/aom1/Work/Linux/target/STM32MP1-DK2/bootloader/optee-os-custom/lib/libutee/tee_api_objects.c:412
    17a0:	4604      	mov	r4, r0
    17a2:	b930      	cbnz	r0, 17b2 <TEE_OpenPersistentObject+0x42>
/home/aom1/Work/Linux/target/STM32MP1-DK2/bootloader/optee-os-custom/lib/libutee/tee_api_objects.c:413
    17a4:	9b03      	ldr	r3, [sp, #12]
    17a6:	f8c8 3000 	str.w	r3, [r8]
/home/aom1/Work/Linux/target/STM32MP1-DK2/bootloader/optee-os-custom/lib/libutee/tee_api_objects.c:428
    17aa:	4620      	mov	r0, r4
    17ac:	b004      	add	sp, #16
    17ae:	e8bd 81f0 	ldmia.w	sp!, {r4, r5, r6, r7, r8, pc}
/home/aom1/Work/Linux/target/STM32MP1-DK2/bootloader/optee-os-custom/lib/libutee/tee_api_objects.c:416
    17b2:	4b09      	ldr	r3, [pc, #36]	; (17d8 <TEE_OpenPersistentObject+0x68>)
    17b4:	4298      	cmp	r0, r3
    17b6:	d0e4      	beq.n	1782 <TEE_OpenPersistentObject+0x12>
/home/aom1/Work/Linux/target/STM32MP1-DK2/bootloader/optee-os-custom/lib/libutee/tee_api_objects.c:417
    17b8:	4b08      	ldr	r3, [pc, #32]	; (17dc <TEE_OpenPersistentObject+0x6c>)
    17ba:	429c      	cmp	r4, r3
    17bc:	d0e2      	beq.n	1784 <TEE_OpenPersistentObject+0x14>
/home/aom1/Work/Linux/target/STM32MP1-DK2/bootloader/optee-os-custom/lib/libutee/tee_api_objects.c:418
    17be:	3309      	adds	r3, #9
    17c0:	429c      	cmp	r4, r3
    17c2:	d0df      	beq.n	1784 <TEE_OpenPersistentObject+0x14>
/home/aom1/Work/Linux/target/STM32MP1-DK2/bootloader/optee-os-custom/lib/libutee/tee_api_objects.c:419
    17c4:	4b06      	ldr	r3, [pc, #24]	; (17e0 <TEE_OpenPersistentObject+0x70>)
    17c6:	429c      	cmp	r4, r3
    17c8:	d0dc      	beq.n	1784 <TEE_OpenPersistentObject+0x14>
/home/aom1/Work/Linux/target/STM32MP1-DK2/bootloader/optee-os-custom/lib/libutee/tee_api_objects.c:420
    17ca:	3302      	adds	r3, #2
    17cc:	429c      	cmp	r4, r3
    17ce:	d0d9      	beq.n	1784 <TEE_OpenPersistentObject+0x14>
/home/aom1/Work/Linux/target/STM32MP1-DK2/bootloader/optee-os-custom/lib/libutee/tee_api_objects.c:422
    17d0:	f001 ff84 	bl	36dc <TEE_Panic>
    17d4:	e7d6      	b.n	1784 <TEE_OpenPersistentObject+0x14>
    17d6:	bf00      	nop
    17d8:	ffff0008 	.word	0xffff0008
    17dc:	ffff0003 	.word	0xffff0003
    17e0:	f0100001 	.word	0xf0100001

000017e4 <TEE_CreatePersistentObject>:
TEE_CreatePersistentObject():
/home/aom1/Work/Linux/target/STM32MP1-DK2/bootloader/optee-os-custom/lib/libutee/tee_api_objects.c:436
    17e4:	e92d 41f0 	stmdb	sp!, {r4, r5, r6, r7, r8, lr}
    17e8:	b086      	sub	sp, #24
    17ea:	4605      	mov	r5, r0
    17ec:	4616      	mov	r6, r2
    17ee:	f8dd 803c 	ldr.w	r8, [sp, #60]	; 0x3c
    17f2:	461f      	mov	r7, r3
/home/aom1/Work/Linux/target/STM32MP1-DK2/bootloader/optee-os-custom/lib/libutee/tee_api_objects.c:440
    17f4:	460c      	mov	r4, r1
    17f6:	b911      	cbnz	r1, 17fe <TEE_CreatePersistentObject+0x1a>
/home/aom1/Work/Linux/target/STM32MP1-DK2/bootloader/optee-os-custom/lib/libutee/tee_api_objects.c:436
    17f8:	4c19      	ldr	r4, [pc, #100]	; (1860 <TEE_CreatePersistentObject+0x7c>)
    17fa:	2300      	movs	r3, #0
    17fc:	e014      	b.n	1828 <TEE_CreatePersistentObject+0x44>
/home/aom1/Work/Linux/target/STM32MP1-DK2/bootloader/optee-os-custom/lib/libutee/tee_api_objects.c:445
    17fe:	2104      	movs	r1, #4
    1800:	4640      	mov	r0, r8
    1802:	f001 ffab 	bl	375c <__utee_check_out_annotation>
/home/aom1/Work/Linux/target/STM32MP1-DK2/bootloader/optee-os-custom/lib/libutee/tee_api_objects.c:447
    1806:	ab05      	add	r3, sp, #20
    1808:	4621      	mov	r1, r4
    180a:	9303      	str	r3, [sp, #12]
    180c:	4632      	mov	r2, r6
    180e:	9b0e      	ldr	r3, [sp, #56]	; 0x38
    1810:	4628      	mov	r0, r5
    1812:	9302      	str	r3, [sp, #8]
    1814:	9b0d      	ldr	r3, [sp, #52]	; 0x34
    1816:	9301      	str	r3, [sp, #4]
    1818:	9b0c      	ldr	r3, [sp, #48]	; 0x30
    181a:	9300      	str	r3, [sp, #0]
    181c:	463b      	mov	r3, r7
    181e:	f002 ed60 	blx	42e0 <_utee_storage_obj_create>
/home/aom1/Work/Linux/target/STM32MP1-DK2/bootloader/optee-os-custom/lib/libutee/tee_api_objects.c:451
    1822:	4604      	mov	r4, r0
    1824:	b930      	cbnz	r0, 1834 <TEE_CreatePersistentObject+0x50>
/home/aom1/Work/Linux/target/STM32MP1-DK2/bootloader/optee-os-custom/lib/libutee/tee_api_objects.c:452
    1826:	9b05      	ldr	r3, [sp, #20]
    1828:	f8c8 3000 	str.w	r3, [r8]
/home/aom1/Work/Linux/target/STM32MP1-DK2/bootloader/optee-os-custom/lib/libutee/tee_api_objects.c:468
    182c:	4620      	mov	r0, r4
    182e:	b006      	add	sp, #24
    1830:	e8bd 81f0 	ldmia.w	sp!, {r4, r5, r6, r7, r8, pc}
/home/aom1/Work/Linux/target/STM32MP1-DK2/bootloader/optee-os-custom/lib/libutee/tee_api_objects.c:455
    1834:	4b0a      	ldr	r3, [pc, #40]	; (1860 <TEE_CreatePersistentObject+0x7c>)
    1836:	4298      	cmp	r0, r3
    1838:	d0de      	beq.n	17f8 <TEE_CreatePersistentObject+0x14>
/home/aom1/Work/Linux/target/STM32MP1-DK2/bootloader/optee-os-custom/lib/libutee/tee_api_objects.c:456
    183a:	4b0a      	ldr	r3, [pc, #40]	; (1864 <TEE_CreatePersistentObject+0x80>)
    183c:	429c      	cmp	r4, r3
    183e:	d0dc      	beq.n	17fa <TEE_CreatePersistentObject+0x16>
/home/aom1/Work/Linux/target/STM32MP1-DK2/bootloader/optee-os-custom/lib/libutee/tee_api_objects.c:457
    1840:	3309      	adds	r3, #9
    1842:	429c      	cmp	r4, r3
    1844:	d0d9      	beq.n	17fa <TEE_CreatePersistentObject+0x16>
/home/aom1/Work/Linux/target/STM32MP1-DK2/bootloader/optee-os-custom/lib/libutee/tee_api_objects.c:458
    1846:	4b08      	ldr	r3, [pc, #32]	; (1868 <TEE_CreatePersistentObject+0x84>)
    1848:	429c      	cmp	r4, r3
    184a:	d0d6      	beq.n	17fa <TEE_CreatePersistentObject+0x16>
/home/aom1/Work/Linux/target/STM32MP1-DK2/bootloader/optee-os-custom/lib/libutee/tee_api_objects.c:459
    184c:	4b07      	ldr	r3, [pc, #28]	; (186c <TEE_CreatePersistentObject+0x88>)
    184e:	429c      	cmp	r4, r3
    1850:	d0d3      	beq.n	17fa <TEE_CreatePersistentObject+0x16>
/home/aom1/Work/Linux/target/STM32MP1-DK2/bootloader/optee-os-custom/lib/libutee/tee_api_objects.c:460
    1852:	3302      	adds	r3, #2
    1854:	429c      	cmp	r4, r3
    1856:	d0d0      	beq.n	17fa <TEE_CreatePersistentObject+0x16>
/home/aom1/Work/Linux/target/STM32MP1-DK2/bootloader/optee-os-custom/lib/libutee/tee_api_objects.c:462
    1858:	f001 ff40 	bl	36dc <TEE_Panic>
    185c:	e7cd      	b.n	17fa <TEE_CreatePersistentObject+0x16>
    185e:	bf00      	nop
    1860:	ffff0008 	.word	0xffff0008
    1864:	ffff0003 	.word	0xffff0003
    1868:	ffff3041 	.word	0xffff3041
    186c:	f0100001 	.word	0xf0100001

00001870 <TEE_CloseAndDeletePersistentObject1>:
TEE_CloseAndDeletePersistentObject1():
/home/aom1/Work/Linux/target/STM32MP1-DK2/bootloader/optee-os-custom/lib/libutee/tee_api_objects.c:490
    1870:	b510      	push	{r4, lr}
/home/aom1/Work/Linux/target/STM32MP1-DK2/bootloader/optee-os-custom/lib/libutee/tee_api_objects.c:493
    1872:	b910      	cbnz	r0, 187a <TEE_CloseAndDeletePersistentObject1+0xa>
/home/aom1/Work/Linux/target/STM32MP1-DK2/bootloader/optee-os-custom/lib/libutee/tee_api_objects.c:494
    1874:	2400      	movs	r4, #0
/home/aom1/Work/Linux/target/STM32MP1-DK2/bootloader/optee-os-custom/lib/libutee/tee_api_objects.c:502
    1876:	4620      	mov	r0, r4
    1878:	bd10      	pop	{r4, pc}
/home/aom1/Work/Linux/target/STM32MP1-DK2/bootloader/optee-os-custom/lib/libutee/tee_api_objects.c:496
    187a:	f002 ed3e 	blx	42f8 <_utee_storage_obj_del>
/home/aom1/Work/Linux/target/STM32MP1-DK2/bootloader/optee-os-custom/lib/libutee/tee_api_objects.c:498
    187e:	4604      	mov	r4, r0
    1880:	2800      	cmp	r0, #0
    1882:	d0f7      	beq.n	1874 <TEE_CloseAndDeletePersistentObject1+0x4>
    1884:	4b02      	ldr	r3, [pc, #8]	; (1890 <TEE_CloseAndDeletePersistentObject1+0x20>)
    1886:	4298      	cmp	r0, r3
    1888:	d0f5      	beq.n	1876 <TEE_CloseAndDeletePersistentObject1+0x6>
/home/aom1/Work/Linux/target/STM32MP1-DK2/bootloader/optee-os-custom/lib/libutee/tee_api_objects.c:499
    188a:	f001 ff27 	bl	36dc <TEE_Panic>
    188e:	e7f2      	b.n	1876 <TEE_CloseAndDeletePersistentObject1+0x6>
    1890:	f0100003 	.word	0xf0100003

00001894 <TEE_CloseAndDeletePersistentObject>:
TEE_CloseAndDeletePersistentObject():
/home/aom1/Work/Linux/target/STM32MP1-DK2/bootloader/optee-os-custom/lib/libutee/tee_api_objects.c:477
    1894:	b508      	push	{r3, lr}
/home/aom1/Work/Linux/target/STM32MP1-DK2/bootloader/optee-os-custom/lib/libutee/tee_api_objects.c:480
    1896:	b138      	cbz	r0, 18a8 <TEE_CloseAndDeletePersistentObject+0x14>
/home/aom1/Work/Linux/target/STM32MP1-DK2/bootloader/optee-os-custom/lib/libutee/tee_api_objects.c:483
    1898:	f7ff ffea 	bl	1870 <TEE_CloseAndDeletePersistentObject1>
/home/aom1/Work/Linux/target/STM32MP1-DK2/bootloader/optee-os-custom/lib/libutee/tee_api_objects.c:485
    189c:	b120      	cbz	r0, 18a8 <TEE_CloseAndDeletePersistentObject+0x14>
/home/aom1/Work/Linux/target/STM32MP1-DK2/bootloader/optee-os-custom/lib/libutee/tee_api_objects.c:487
    189e:	e8bd 4008 	ldmia.w	sp!, {r3, lr}
/home/aom1/Work/Linux/target/STM32MP1-DK2/bootloader/optee-os-custom/lib/libutee/tee_api_objects.c:486
    18a2:	2000      	movs	r0, #0
    18a4:	f001 bf1a 	b.w	36dc <TEE_Panic>
/home/aom1/Work/Linux/target/STM32MP1-DK2/bootloader/optee-os-custom/lib/libutee/tee_api_objects.c:487
    18a8:	bd08      	pop	{r3, pc}

000018aa <TEE_RenamePersistentObject>:
TEE_RenamePersistentObject():
/home/aom1/Work/Linux/target/STM32MP1-DK2/bootloader/optee-os-custom/lib/libutee/tee_api_objects.c:508
    18aa:	b510      	push	{r4, lr}
/home/aom1/Work/Linux/target/STM32MP1-DK2/bootloader/optee-os-custom/lib/libutee/tee_api_objects.c:511
    18ac:	b188      	cbz	r0, 18d2 <TEE_RenamePersistentObject+0x28>
/home/aom1/Work/Linux/target/STM32MP1-DK2/bootloader/optee-os-custom/lib/libutee/tee_api_objects.c:516
    18ae:	f002 ed2e 	blx	430c <_utee_storage_obj_rename>
/home/aom1/Work/Linux/target/STM32MP1-DK2/bootloader/optee-os-custom/lib/libutee/tee_api_objects.c:520
    18b2:	4604      	mov	r4, r0
    18b4:	b158      	cbz	r0, 18ce <TEE_RenamePersistentObject+0x24>
/home/aom1/Work/Linux/target/STM32MP1-DK2/bootloader/optee-os-custom/lib/libutee/tee_api_objects.c:520 (discriminator 1)
    18b6:	4b08      	ldr	r3, [pc, #32]	; (18d8 <TEE_RenamePersistentObject+0x2e>)
    18b8:	4298      	cmp	r0, r3
    18ba:	d008      	beq.n	18ce <TEE_RenamePersistentObject+0x24>
/home/aom1/Work/Linux/target/STM32MP1-DK2/bootloader/optee-os-custom/lib/libutee/tee_api_objects.c:521
    18bc:	4b07      	ldr	r3, [pc, #28]	; (18dc <TEE_RenamePersistentObject+0x32>)
    18be:	4298      	cmp	r0, r3
    18c0:	d005      	beq.n	18ce <TEE_RenamePersistentObject+0x24>
/home/aom1/Work/Linux/target/STM32MP1-DK2/bootloader/optee-os-custom/lib/libutee/tee_api_objects.c:522
    18c2:	3302      	adds	r3, #2
    18c4:	4298      	cmp	r0, r3
    18c6:	d002      	beq.n	18ce <TEE_RenamePersistentObject+0x24>
/home/aom1/Work/Linux/target/STM32MP1-DK2/bootloader/optee-os-custom/lib/libutee/tee_api_objects.c:524
    18c8:	4620      	mov	r0, r4
    18ca:	f001 ff07 	bl	36dc <TEE_Panic>
/home/aom1/Work/Linux/target/STM32MP1-DK2/bootloader/optee-os-custom/lib/libutee/tee_api_objects.c:527
    18ce:	4620      	mov	r0, r4
    18d0:	bd10      	pop	{r4, pc}
/home/aom1/Work/Linux/target/STM32MP1-DK2/bootloader/optee-os-custom/lib/libutee/tee_api_objects.c:512
    18d2:	4c03      	ldr	r4, [pc, #12]	; (18e0 <TEE_RenamePersistentObject+0x36>)
    18d4:	e7f8      	b.n	18c8 <TEE_RenamePersistentObject+0x1e>
    18d6:	bf00      	nop
    18d8:	ffff0003 	.word	0xffff0003
    18dc:	f0100001 	.word	0xf0100001
    18e0:	ffff0008 	.word	0xffff0008

000018e4 <TEE_AllocatePersistentObjectEnumerator>:
TEE_AllocatePersistentObjectEnumerator():
/home/aom1/Work/Linux/target/STM32MP1-DK2/bootloader/optee-os-custom/lib/libutee/tee_api_objects.c:531
    18e4:	b537      	push	{r0, r1, r2, r4, r5, lr}
/home/aom1/Work/Linux/target/STM32MP1-DK2/bootloader/optee-os-custom/lib/libutee/tee_api_objects.c:535
    18e6:	2104      	movs	r1, #4
/home/aom1/Work/Linux/target/STM32MP1-DK2/bootloader/optee-os-custom/lib/libutee/tee_api_objects.c:531
    18e8:	4605      	mov	r5, r0
/home/aom1/Work/Linux/target/STM32MP1-DK2/bootloader/optee-os-custom/lib/libutee/tee_api_objects.c:535
    18ea:	f001 ff37 	bl	375c <__utee_check_out_annotation>
/home/aom1/Work/Linux/target/STM32MP1-DK2/bootloader/optee-os-custom/lib/libutee/tee_api_objects.c:538
    18ee:	a801      	add	r0, sp, #4
    18f0:	f002 ed16 	blx	4320 <_utee_storage_alloc_enum>
/home/aom1/Work/Linux/target/STM32MP1-DK2/bootloader/optee-os-custom/lib/libutee/tee_api_objects.c:540
    18f4:	4604      	mov	r4, r0
    18f6:	b108      	cbz	r0, 18fc <TEE_AllocatePersistentObjectEnumerator+0x18>
/home/aom1/Work/Linux/target/STM32MP1-DK2/bootloader/optee-os-custom/lib/libutee/tee_api_objects.c:541
    18f8:	2300      	movs	r3, #0
    18fa:	9301      	str	r3, [sp, #4]
/home/aom1/Work/Linux/target/STM32MP1-DK2/bootloader/optee-os-custom/lib/libutee/tee_api_objects.c:543
    18fc:	9b01      	ldr	r3, [sp, #4]
    18fe:	602b      	str	r3, [r5, #0]
/home/aom1/Work/Linux/target/STM32MP1-DK2/bootloader/optee-os-custom/lib/libutee/tee_api_objects.c:545
    1900:	b12c      	cbz	r4, 190e <TEE_AllocatePersistentObjectEnumerator+0x2a>
/home/aom1/Work/Linux/target/STM32MP1-DK2/bootloader/optee-os-custom/lib/libutee/tee_api_objects.c:545 (discriminator 1)
    1902:	4b04      	ldr	r3, [pc, #16]	; (1914 <TEE_AllocatePersistentObjectEnumerator+0x30>)
    1904:	429c      	cmp	r4, r3
    1906:	d002      	beq.n	190e <TEE_AllocatePersistentObjectEnumerator+0x2a>
/home/aom1/Work/Linux/target/STM32MP1-DK2/bootloader/optee-os-custom/lib/libutee/tee_api_objects.c:547
    1908:	4620      	mov	r0, r4
    190a:	f001 fee7 	bl	36dc <TEE_Panic>
/home/aom1/Work/Linux/target/STM32MP1-DK2/bootloader/optee-os-custom/lib/libutee/tee_api_objects.c:550
    190e:	4620      	mov	r0, r4
    1910:	b003      	add	sp, #12
    1912:	bd30      	pop	{r4, r5, pc}
    1914:	ffff0003 	.word	0xffff0003

00001918 <TEE_FreePersistentObjectEnumerator>:
TEE_FreePersistentObjectEnumerator():
/home/aom1/Work/Linux/target/STM32MP1-DK2/bootloader/optee-os-custom/lib/libutee/tee_api_objects.c:553
    1918:	b508      	push	{r3, lr}
/home/aom1/Work/Linux/target/STM32MP1-DK2/bootloader/optee-os-custom/lib/libutee/tee_api_objects.c:556
    191a:	b130      	cbz	r0, 192a <TEE_FreePersistentObjectEnumerator+0x12>
/home/aom1/Work/Linux/target/STM32MP1-DK2/bootloader/optee-os-custom/lib/libutee/tee_api_objects.c:559
    191c:	f002 ed0a 	blx	4334 <_utee_storage_free_enum>
/home/aom1/Work/Linux/target/STM32MP1-DK2/bootloader/optee-os-custom/lib/libutee/tee_api_objects.c:561
    1920:	b118      	cbz	r0, 192a <TEE_FreePersistentObjectEnumerator+0x12>
/home/aom1/Work/Linux/target/STM32MP1-DK2/bootloader/optee-os-custom/lib/libutee/tee_api_objects.c:563
    1922:	e8bd 4008 	ldmia.w	sp!, {r3, lr}
/home/aom1/Work/Linux/target/STM32MP1-DK2/bootloader/optee-os-custom/lib/libutee/tee_api_objects.c:562
    1926:	f001 bed9 	b.w	36dc <TEE_Panic>
/home/aom1/Work/Linux/target/STM32MP1-DK2/bootloader/optee-os-custom/lib/libutee/tee_api_objects.c:563
    192a:	bd08      	pop	{r3, pc}

0000192c <TEE_ResetPersistentObjectEnumerator>:
TEE_ResetPersistentObjectEnumerator():
/home/aom1/Work/Linux/target/STM32MP1-DK2/bootloader/optee-os-custom/lib/libutee/tee_api_objects.c:566
    192c:	b508      	push	{r3, lr}
/home/aom1/Work/Linux/target/STM32MP1-DK2/bootloader/optee-os-custom/lib/libutee/tee_api_objects.c:569
    192e:	b130      	cbz	r0, 193e <TEE_ResetPersistentObjectEnumerator+0x12>
/home/aom1/Work/Linux/target/STM32MP1-DK2/bootloader/optee-os-custom/lib/libutee/tee_api_objects.c:572
    1930:	f002 ed0a 	blx	4348 <_utee_storage_reset_enum>
/home/aom1/Work/Linux/target/STM32MP1-DK2/bootloader/optee-os-custom/lib/libutee/tee_api_objects.c:574
    1934:	b118      	cbz	r0, 193e <TEE_ResetPersistentObjectEnumerator+0x12>
/home/aom1/Work/Linux/target/STM32MP1-DK2/bootloader/optee-os-custom/lib/libutee/tee_api_objects.c:576
    1936:	e8bd 4008 	ldmia.w	sp!, {r3, lr}
/home/aom1/Work/Linux/target/STM32MP1-DK2/bootloader/optee-os-custom/lib/libutee/tee_api_objects.c:575
    193a:	f001 becf 	b.w	36dc <TEE_Panic>
/home/aom1/Work/Linux/target/STM32MP1-DK2/bootloader/optee-os-custom/lib/libutee/tee_api_objects.c:576
    193e:	bd08      	pop	{r3, pc}

00001940 <TEE_StartPersistentObjectEnumerator>:
TEE_StartPersistentObjectEnumerator():
/home/aom1/Work/Linux/target/STM32MP1-DK2/bootloader/optee-os-custom/lib/libutee/tee_api_objects.c:581
    1940:	b510      	push	{r4, lr}
/home/aom1/Work/Linux/target/STM32MP1-DK2/bootloader/optee-os-custom/lib/libutee/tee_api_objects.c:584
    1942:	f002 ed0c 	blx	435c <_utee_storage_start_enum>
/home/aom1/Work/Linux/target/STM32MP1-DK2/bootloader/optee-os-custom/lib/libutee/tee_api_objects.c:587
    1946:	4604      	mov	r4, r0
    1948:	b148      	cbz	r0, 195e <TEE_StartPersistentObjectEnumerator+0x1e>
/home/aom1/Work/Linux/target/STM32MP1-DK2/bootloader/optee-os-custom/lib/libutee/tee_api_objects.c:587 (discriminator 1)
    194a:	4b06      	ldr	r3, [pc, #24]	; (1964 <TEE_StartPersistentObjectEnumerator+0x24>)
    194c:	4298      	cmp	r0, r3
    194e:	d006      	beq.n	195e <TEE_StartPersistentObjectEnumerator+0x1e>
/home/aom1/Work/Linux/target/STM32MP1-DK2/bootloader/optee-os-custom/lib/libutee/tee_api_objects.c:588
    1950:	4b05      	ldr	r3, [pc, #20]	; (1968 <TEE_StartPersistentObjectEnumerator+0x28>)
    1952:	f020 0202 	bic.w	r2, r0, #2
    1956:	429a      	cmp	r2, r3
    1958:	d001      	beq.n	195e <TEE_StartPersistentObjectEnumerator+0x1e>
