
out/arm-plat-stm32mp1/ta/remoteproc/80a4c275-0a47-4905-8285-1486a9771a08.elf:     file format elf32-littlearm
out/arm-plat-stm32mp1/ta/remoteproc/80a4c275-0a47-4905-8285-1486a9771a08.elf
architecture: armv7, flags 0x00000150:
HAS_SYMS, DYNAMIC, D_PAGED
start address 0x000013f0

Program Header:
    LOAD off    0x00001000 vaddr 0x00000000 paddr 0x00000000 align 2**12
         filesz 0x00013910 memsz 0x00013910 flags r-x
    LOAD off    0x00015000 vaddr 0x00014000 paddr 0x00014000 align 2**12
         filesz 0x000002b8 memsz 0x00004310 flags rw-
 DYNAMIC off    0x00015000 vaddr 0x00014000 paddr 0x00014000 align 2**2
         filesz 0x00000088 memsz 0x00000088 flags rw-
   STACK off    0x00000000 vaddr 0x00000000 paddr 0x00000000 align 2**4
         filesz 0x00000000 memsz 0x00000000 flags rwx

Dynamic Section:
  HASH                 0x000138e4
  GNU_HASH             0x00013828
  STRTAB               0x000138b4
  SYMTAB               0x00013854
  STRSZ                0x0000002e
  SYMENT               0x00000010
  DEBUG                0x00000000
  REL                  0x000140d0
  RELSZ                0x00000118
  RELENT               0x00000008
  FLAGS_1              0x08000000
  RELCOUNT             0x00000014
private flags = 0x5000400: [Version5 EABI] [hard-float ABI]

Sections:
Idx Name          Size      VMA       LMA       File off  Algn
  0 .ta_head      00000020  00000000  00000000  00001000  2**3
                  CONTENTS, ALLOC, LOAD, READONLY, DATA
  1 .text         000123ca  00000020  00000020  00001020  2**2
                  CONTENTS, ALLOC, LOAD, READONLY, CODE
  2 .rodata       0000143a  000123ec  000123ec  000133ec  2**2
                  CONTENTS, ALLOC, LOAD, READONLY, DATA
  3 .gnu.hash     0000002c  00013828  00013828  00014828  2**2
                  CONTENTS, ALLOC, LOAD, READONLY, DATA
  4 .dynsym       00000060  00013854  00013854  00014854  2**2
                  CONTENTS, ALLOC, LOAD, READONLY, DATA
  5 .dynstr       0000002e  000138b4  000138b4  000148b4  2**0
                  CONTENTS, ALLOC, LOAD, READONLY, DATA
  6 .hash         0000002c  000138e4  000138e4  000148e4  2**2
                  CONTENTS, ALLOC, LOAD, READONLY, DATA
  7 .dynamic      00000088  00014000  00014000  00015000  2**2
                  CONTENTS, ALLOC, LOAD, DATA
  8 .got          00000048  00014088  00014088  00015088  2**2
                  CONTENTS, ALLOC, LOAD, DATA
  9 .rel.got      00000078  00014170  00014170  00015170  2**2
                  CONTENTS, ALLOC, LOAD, READONLY, DATA
 10 .data         000000d0  000141e8  000141e8  000151e8  2**2
                  CONTENTS, ALLOC, LOAD, DATA
 11 .bss          00004058  000142b8  000142b8  000152b8  2**2
                  ALLOC
 12 .debug_info   0000e91c  00000000  00000000  000152b8  2**0
                  CONTENTS, READONLY, DEBUGGING, OCTETS
 13 .debug_abbrev 00003104  00000000  00000000  00023bd4  2**0
                  CONTENTS, READONLY, DEBUGGING, OCTETS
 14 .debug_aranges 000005c8  00000000  00000000  00026cd8  2**3
                  CONTENTS, READONLY, DEBUGGING, OCTETS
 15 .debug_macro  0001abdf  00000000  00000000  000272a0  2**0
                  CONTENTS, READONLY, DEBUGGING, OCTETS
 16 .debug_line   0000b154  00000000  00000000  00041e7f  2**0
                  CONTENTS, READONLY, DEBUGGING, OCTETS
 17 .debug_str    00019230  00000000  00000000  0004cfd3  2**0
                  CONTENTS, READONLY, DEBUGGING, OCTETS
 18 .comment      00000033  00000000  00000000  00066203  2**0
                  CONTENTS, READONLY
 19 .ARM.attributes 00000033  00000000  00000000  00066236  2**0
                  CONTENTS, READONLY
 20 .debug_frame  00003918  00000000  00000000  0006626c  2**2
                  CONTENTS, READONLY, DEBUGGING, OCTETS
 21 .rel.dyn      000000a0  000140d0  000140d0  000150d0  2**2
                  CONTENTS, ALLOC, LOAD, READONLY, DATA
 22 .debug_line_str 000000fa  00000000  00000000  00069b84  2**0
                  CONTENTS, READONLY, DEBUGGING, OCTETS
 23 .debug_rnglists 00000193  00000000  00000000  00069c7e  2**0
                  CONTENTS, READONLY, DEBUGGING, OCTETS
SYMBOL TABLE:
00000000 l    d  .ta_head	00000000 .ta_head
00000020 l    d  .text	00000000 .text
000123ec l    d  .rodata	00000000 .rodata
00013828 l    d  .gnu.hash	00000000 .gnu.hash
00013854 l    d  .dynsym	00000000 .dynsym
000138b4 l    d  .dynstr	00000000 .dynstr
000138e4 l    d  .hash	00000000 .hash
00014000 l    d  .dynamic	00000000 .dynamic
00014088 l    d  .got	00000000 .got
00014170 l    d  .rel.got	00000000 .rel.got
000141e8 l    d  .data	00000000 .data
000142b8 l    d  .bss	00000000 .bss
00000000 l    d  .debug_info	00000000 .debug_info
00000000 l    d  .debug_abbrev	00000000 .debug_abbrev
00000000 l    d  .debug_aranges	00000000 .debug_aranges
00000000 l    d  .debug_macro	00000000 .debug_macro
00000000 l    d  .debug_line	00000000 .debug_line
00000000 l    d  .debug_str	00000000 .debug_str
00000000 l    d  .comment	00000000 .comment
00000000 l    d  .ARM.attributes	00000000 .ARM.attributes
00000000 l    d  .debug_frame	00000000 .debug_frame
000140d0 l    d  .rel.dyn	00000000 .rel.dyn
00000000 l    d  .debug_line_str	00000000 .debug_line_str
00000000 l    d  .debug_rnglists	00000000 .debug_rnglists
00000000 l    df *ABS*	00000000 user_ta_header.c
00012704 l     O .rodata	00000001 __compound_literal.0
00012705 l     O .rodata	00000001 __compound_literal.1
00012706 l     O .rodata	00000001 __compound_literal.2
00012708 l     O .rodata	00000004 __compound_literal.3
0001270c l     O .rodata	00000004 __compound_literal.4
00000000 l    df *ABS*	00000000 remoteproc_core.c
00000020 l     F .text	00000042 reg_pair_to_64
00000062 l     F .text	00000034 reg_pair_from_64
00000096 l     F .text	00000040 rproc_pta_get_keyinfo_size
000141e8 l     O .data	00000008 firmware_head
000123ec l     O .rodata	00000018 rproc_ta_sign_algo
000142b8 l     O .bss	00000004 session_refcount
000142bc l     O .bss	00000004 pta_session
000000d6 l     F .text	00000014 remoteproc_header_dump
000000ea l     F .text	00000042 remoteproc_find_firmware
0000012c l     F .text	00000064 remoteproc_add_firmware
00000190 l     F .text	0000005c remoteproc_get_algo
000001ec l     F .text	00000108 remoteproc_pta_verify
0001250c l     O .rodata	00000016 __func__.6
000002f4 l     F .text	0000006a remoteproc_save_fw_header
0000035e l     F .text	000000ea remoteproc_verify_signature
00012524 l     O .rodata	0000001c __func__.5
00000448 l     F .text	0000017e remoteproc_verify_header
000005c6 l     F .text	00000076 get_rproc_pta_capabilities
0000063c l     F .text	0000009c remoteproc_verify_firmware
000006d8 l     F .text	000000ac remoteproc_da_to_pa
00012540 l     O .rodata	00000014 __func__.4
00000784 l     F .text	00000086 remoteproc_parse_rsc_table
0000080a l     F .text	000000b8 get_segment_hash
000008c2 l     F .text	0000013e remoteproc_load_segment
00012554 l     O .rodata	00000018 __func__.3
00000a00 l     F .text	00000070 remoteproc_load_elf
0001256c l     O .rodata	00000014 __func__.2
00000a70 l     F .text	00000100 remoteproc_load_fw
00012580 l     O .rodata	00000013 __func__.1
00000b70 l     F .text	000000b0 remoteproc_start_fw
00000c20 l     F .text	000000ac remoteproc_stop_fw
00000ccc l     F .text	00000094 remoteproc_get_rsc_table
00012594 l     O .rodata	00000010 uuid.0
00000000 l    df *ABS*	00000000 elf_parser.c
00000eb0 l     F .text	00000060 va_in_fwm_image_range
000126b8 l     O .rodata	00000016 __func__.2
000126d0 l     O .rodata	0000000f __func__.1
000126e0 l     O .rodata	0000001a __func__.0
00000000 l    df *ABS*	00000000 ta_entry_a32.o
00000000 l    df *ABS*	00000000 trace.c
00001454 l     F .text	0000004c trace_level_to_string
000127f4 l     O .rodata	00000005 lvl_strs.0
000014a0 l     F .text	0000005c print_thread_id
000014fc l     F .text	00000018 print_core_id
00000000 l    df *ABS*	00000000 snprintk.c
000127fc l     O .rodata	00000011 hexdigits
00012810 l     O .rodata	00000011 HEXDIGITS
000019b0 l     F .text	00000e7c kprintf
00001928 l     F .text	00000088 uuid2str
00000000 l    df *ABS*	00000000 arm32_aeabi_ldivmod_a32.o
00000000 l    df *ABS*	00000000 assert.c
00000000 l    df *ABS*	00000000 trace_ext.c
00000000 l    df *ABS*	00000000 tee_api.c
000152c0 l     O .bss	00000004 tee_api_instance_data
000029a8 l     F .text	0000025e copy_param
00002c06 l     F .text	000000e8 update_out_param
000128bc l     O .rodata	0000000b __func__.0
00000000 l    df *ABS*	00000000 tee_api_operations.c
000032bc l     F .text	0000005c __tee_alg_get_class
00003318 l     F .text	0000003a __tee_alg_get_main_alg
00003352 l     F .text	00000032 __tee_alg_get_key_type
00003384 l     F .text	00000212 __tee_alg_get_digest_size
00004a08 l     F .text	00000042 init_hash_operation
00004c12 l     F .text	000002d0 tee_buffer_update
00000000 l    df *ABS*	00000000 tee_api_panic.c
00006846 l     F .text	0000001e check_res
00006864 l     F .text	00000038 check_access
00000000 l    df *ABS*	00000000 tee_system_pta.c
00006a0c l     F .text	00000042 reg_pair_to_64
00006a4e l     F .text	00000034 reg_pair_from_64
00006a82 l     F .text	00000072 invoke_system_pta
000152c4 l     O .bss	00000004 sess.3
00012988 l     O .rodata	00000010 uuid.2
00012998 l     O .rodata	0000000a __func__.1
000129a4 l     O .rodata	00000017 __func__.0
00000000 l    df *ABS*	00000000 utee_syscalls_a32.o
00000000 l    df *ABS*	00000000 user_ta_entry.c
0000717c l     F .text	0000000e __utee_gprof_init
0000718a l     F .text	0000000e __utee_gprof_fini
00014248 l     O .data	00000008 ta_sessions
000152f8 l     O .bss	00000001 init_done
00014250 l     O .data	00000008 __phdr_info_head
000152fc l     O .bss	00000004 _num_mod_init
00007198 l     F .text	000000a4 _init_iterate_phdr_cb
000129d8 l     O .rodata	00000016 __func__.0
0000723c l     F .text	000000de _get_fn_array
00007440 l     F .text	0000005c _fini_iterate_phdr_cb
000074b4 l     F .text	0000004c init_instance
00007500 l     F .text	00000014 uninit_instance
00007514 l     F .text	00000050 ta_header_save_params
00007564 l     F .text	00000040 ta_header_get_session
000075a4 l     F .text	000000ac ta_header_add_session
00007650 l     F .text	000000c0 ta_header_remove_session
00007710 l     F .text	0000011e to_utee_params
0000782e l     F .text	000000c0 from_utee_params
000078ee l     F .text	00000086 entry_open_session
00007974 l     F .text	00000038 entry_close_session
000079ac l     F .text	0000006a entry_invoke_command
00000000 l    df *ABS*	00000000 abort.c
00000000 l    df *ABS*	00000000 tee_api_arith_mpi.c
00007aa0 l     F .text	0000002c api_panic
00007acc l     F .text	0000002c mpi_panic
00015300 l     O .bss	00003000 data.17
00012abc l     O .rodata	00000012 __func__.16
00007b4c l     F .text	00000082 copy_mpi_to_bigint
00007bce l     F .text	00000092 get_mpi
00012ad0 l     O .rodata	00000008 __func__.15
00012ad8 l     O .rodata	0000000f __func__.14
00012ae8 l     O .rodata	0000001f __func__.13
00012b08 l     O .rodata	00000019 __func__.12
00012b24 l     O .rodata	00000015 __func__.11
0000818a l     F .text	000000fa bigint_binary
00012b3c l     O .rodata	0000000e __func__.10
00008284 l     F .text	0000017c bigint_binary_mod
00012b4c l     O .rodata	00000012 __func__.9
00012b60 l     O .rodata	0000000e __func__.8
00012b70 l     O .rodata	0000000e __func__.7
00012b80 l     O .rodata	0000000e __func__.6
00012b90 l     O .rodata	00000011 __func__.5
00012ba4 l     O .rodata	00000018 __func__.4
00008a24 l     F .text	00000024 mpi_is_odd
00008a48 l     F .text	0000002e mpi_is_even
00008a76 l     F .text	0000075e mpi_egcd
00012bbc l     O .rodata	00000009 __func__.3
00012bc8 l     O .rodata	0000001d __func__.2
0000944c l     F .text	0000002a rng_read
00012be8 l     O .rodata	00000019 __func__.1
00012c04 l     O .rodata	00000015 __func__.0
00000000 l    df *ABS*	00000000 tcb.c
00018300 l     O .bss	00000004 _tcb
00018304 l     O .bss	00000004 _tls_size
00012cb8 l     O .rodata	00000010 __func__.1
00012cc8 l     O .rodata	00000010 __func__.0
00000000 l    df *ABS*	00000000 bignum.c
00009a9c l     F .text	0000001e mbedtls_mpi_zeroize
00009aba l     F .text	00000030 mpi_init
00009dcc l     F .text	00000056 mbedtls_mpi_resize_clear
00009f2e l     F .text	00000042 mpi_safe_cond_select_sign
00009f70 l     F .text	00000062 mpi_safe_cond_assign
0000a356 l     F .text	00000042 mbedtls_clz
0000a41c l     F .text	00000074 mpi_get_digit
0000a644 l     F .text	000000be mpi_write_hlp
0000a8bc l     F .text	00000048 mpi_uint_bigendian_to_host_c
0000a904 l     F .text	00000018 mpi_uint_bigendian_to_host
0000a91c l     F .text	00000066 mpi_bigendian_to_host
0000b0d8 l     F .text	00000040 ct_lt_mpi_uint
0000b3ce l     F .text	00000092 mpi_sub_hlp
0000b762 l     F .text	000018fe mpi_mul_hlp
0000d280 l     F .text	000000b0 mbedtls_int_div_int
0000da32 l     F .text	00000060 mpi_montg_init
0000daac l     F .text	00000114 mpi_montmul
0000dbe6 l     F .text	0000003e mpi_montred
0000dc46 l     F .text	00000034 mbedtls_mpi_cf_bool_eq
0000dc7a l     F .text	0000005e mpi_select
0000e4b2 l     F .text	0000009e mpi_fill_random_internal
00012cec l     O .rodata	000002a0 small_prime
0000eb24 l     F .text	00000098 mpi_check_small_factors
0000ebbc l     F .text	00000286 mpi_miller_rabin
00012f8c l     O .rodata	00000024 gcd_pairs
00000000 l    df *ABS*	00000000 platform_util.c
00014258 l     O .data	00000004 memset_func
00000000 l    df *ABS*	00000000 bget_malloc.c
0000f678 l     F .text	00000016 tag_asan_free
0000f68e l     F .text	00000016 tag_asan_alloced
0000f6a4 l     F .text	00000020 memset_unchecked
0000f6c4 l     F .text	00000020 memcpy_unchecked
0000f6e4 l     F .text	0000007a buf_get_pos
00013704 l     O .rodata	00000005 __func__.8
0001370c l     O .rodata	00000006 __func__.7
00013714 l     O .rodata	00000006 __func__.6
0001371c l     O .rodata	00000005 __func__.5
00013724 l     O .rodata	00000006 __func__.4
0001372c l     O .rodata	00000007 __func__.3
000100a0 l     F .text	00000016 malloc_lock
000100b6 l     F .text	00000016 malloc_unlock
0001425c l     O .data	0000005c malloc_ctx
000100cc l     F .text	00000016 print_oom
000100e2 l     F .text	0000005e raw_malloc_return_hook
00010140 l     F .text	00000038 gen_malloc_reset_stats
00010190 l     F .text	0000003a gen_malloc_get_stats
000101ec l     F .text	00000014 raw_malloc_validate_pools
00010200 l     F .text	00000026 bpool_foreach_iterator_init
00010226 l     F .text	000000ca bpool_foreach_pool
00013734 l     O .rodata	00000013 __func__.2
000102f0 l     F .text	00000068 bpool_foreach
0001057a l     F .text	00000052 bget_buf_size
00013748 l     O .rodata	0000000e __func__.1
00010614 l     F .text	00000048 free_helper
000106a8 l     F .text	00000026 realloc_unlocked
00010764 l     F .text	00000022 get_payload_start_size
000107b6 l     F .text	00000122 gen_malloc_add_pool
00013758 l     O .rodata	00000014 __func__.0
000108d8 l     F .text	000000a0 gen_malloc_buffer_is_within_alloced
00010978 l     F .text	000000a8 gen_malloc_buffer_overlaps_heap
00000000 l    df *ABS*	00000000 mempool.c
00010b04 l     F .text	00000080 init_mpool
000137f8 l     O .rodata	0000000b __func__.2
00010b84 l     F .text	00000014 get_pool
00010b98 l     F .text	00000014 put_pool
00013804 l     O .rodata	00000013 __func__.1
00013818 l     O .rodata	0000000e __func__.0
00000000 l    df *ABS*	00000000 memcpy.c
00000000 l    df *ABS*	00000000 strcmp.c
00000000 l    df *ABS*	00000000 memchr.c
00000000 l    df *ABS*	00000000 strlen.c
00000000 l    df *ABS*	00000000 arm32_aeabi_ldivmod.c
00010ffa l     F .text	00000102 division_lqr
000110fc l     F .text	00000064 ul_div_qr
00000000 l    df *ABS*	00000000 tee_api_objects.c
00000000 l    df *ABS*	00000000 snprintf.c
00000000 l    df *ABS*	00000000 memmove.c
00000000 l    df *ABS*	00000000 memset.c
00000000 l    df *ABS*	00000000 consttime_memcmp.c
00000000 l    df *ABS*	00000000 
00014000 l     O *ABS*	00000000 _DYNAMIC
00014088 l     O *ABS*	00000000 _GLOBAL_OFFSET_TABLE_
00002974 g     F .text	00000032 putchar
00011778 g     F .text	0000011a TEE_PopulateTransientObject
00009524 g     F .text	00000020 TEE_BigIntConvertToFMM
00008840 g     F .text	00000020 TEE_BigIntSquareMod
00007f6e g     F .text	000001a6 TEE_BigIntShiftRight
00010a56 g     F .text	0000001e raw_malloc_add_pool
00006c10 g     F .text	000000bc tee_invoke_supp_plugin
00009bb0 g     F .text	000000ec mbedtls_mpi_grow
000111be g     F .text	000000c4 __l_divmod
00004a4a g     F .text	00000052 TEE_DigestUpdate
00003208 g     F .text	0000003e TEE_Realloc
000046d6 g     F .text	00000202 TEE_SetOperationKey2
000069dc g     F .text	00000030 __utee_check_inout_annotation
0001040a g     F .text	0000002e raw_free
000028da g     F .text	0000006a printf
00011892 g     F .text	00000040 TEE_InitRefAttribute
00006cf4 g     F .text	00000014 _utee_log
00002df6 g     F .text	00000114 TEE_InvokeTACommand
0000689c g     F .text	00000050 __utee_check_outbuf_annotation
00009b02 g     F .text	00000036 mbedtls_mpi_init_mempool
00006f90 g     F .text	00000014 _utee_cryp_random_number_generate
0000ab46 g     F .text	000000c8 mbedtls_mpi_write_binary
00005810 g     F .text	000001e0 TEE_AEEncryptFinal
0000113e g     F .text	000002b2 e32_parser_find_rsc_table
00001014 g     F .text	0000012a e32_parser_load_elf_image
00001870 g     F .text	00000028 vsnprintk
0000b71a g     F .text	00000048 mbedtls_mpi_sub_int
00012154 g     F .text	00000114 memmove
000120f8 g     F .text	00000034 snprintf
00007f36 g     F .text	00000038 TEE_BigIntCmpS32
000118d2 g     F .text	00000040 TEE_InitValueAttribute
00009c9c g     F .text	00000130 mbedtls_mpi_shrink
00008400 g     F .text	00000030 TEE_BigIntAdd
00006ef0 g     F .text	00000014 _utee_cryp_obj_restrict_usage
00012700 g     O .rodata	00000004 ta_heap_size
0001171e g     F .text	0000005a TEE_ResetTransientObject
00007018 g     F .text	00000018 _utee_asymm_operate
0000a490 g     F .text	000001b4 mbedtls_mpi_read_string
00004b3e g     F .text	000000d4 TEE_CipherInit
00000f10 g     F .text	00000104 e32_parse_ehdr
00008460 g     F .text	000000ac TEE_BigIntNeg
000070b4 g     F .text	00000014 _utee_storage_free_enum
00000020 g       .text	00000000 __text_start
00011dca g     F .text	00000050 TEE_StartPersistentObjectEnumerator
0000ad58 g     F .text	00000136 mbedtls_mpi_shift_r
00010adc g     F .text	00000028 malloc_buffer_overlaps_heap
00006e58 g     F .text	00000014 _utee_hash_init
000087d8 g     F .text	00000034 TEE_BigIntSubMod
0000ef00 g     F .text	000002b8 mbedtls_mpi_gen_prime
0000a204 g     F .text	00000042 mbedtls_mpi_get_bit
0000aa0e g     F .text	0000007a mbedtls_mpi_read_binary
0000555c g     F .text	000000da TEE_AEInit
00001514 g     F .text	00000032 trace_printf
0000dbc0 g     F .text	00000026 mbedtls_mpi_montmul
00007168 g     F .text	00000014 _utee_cache_operation
00010d32 g     F .text	000000ce memcpy
00009544 g     F .text	00000098 TEE_BigIntConvertFromFMM
00006830 g     F .text	00000016 TEE_Panic
00002844 g     F .text	00000018 __aeabi_uldivmod
000048d8 g     F .text	00000130 TEE_CopyOperation
00002944 g     F .text	00000030 puts
000095dc g     F .text	0000010c TEE_BigIntComputeFMM
000101ca g     F .text	00000022 malloc_get_stats
0000317e g     F .text	00000026 TEE_GetREETime
00010a74 g     F .text	0000001a raw_malloc_get_stats
00011d1e g     F .text	00000050 TEE_AllocatePersistentObjectEnumerator
000141f4 g     O .data	00000054 ta_props
00005b9c g     F .text	0000016c TEE_AsymmetricEncrypt
000068ec g     F .text	00000038 __utee_check_instring_annotation
000105cc g     F .text	00000048 malloc
00010d00 g     F .text	00000022 __ta_entry_c
00011a02 g     F .text	000000e0 TEE_GenerateKey
0001212c g     F .text	00000028 vsnprintf
000141f0 g     O .data	00000004 trace_level
00007ee4 g     F .text	00000052 TEE_BigIntCmp
000127cc g     O .rodata	00000004 ta_num_props
0000fb48 g     F .text	000000b4 bgetr
00007048 g     F .text	00000018 _utee_storage_obj_open
00010cd8 g     F .text	00000026 mempool_free
00004ee2 g     F .text	00000182 TEE_CipherUpdate
00006e6c g     F .text	00000014 _utee_hash_update
00007d2e g     F .text	0000007e TEE_BigIntConvertToOctetString
00004388 g     F .text	000001ac TEE_GetOperationInfoMultiple
0000a398 g     F .text	00000068 mbedtls_mpi_bitlen
00008114 g     F .text	00000042 TEE_BigIntGetBit
000126fc g     O .rodata	00000003 trace_ext_prefix
000070f0 g     F .text	00000014 _utee_storage_next_enum
000103e2 g     F .text	00000028 raw_malloc
0000fab0 g     F .text	00000098 bgetz
00002ff4 g     F .text	00000018 TEE_GetInstanceData
00003094 g     F .text	00000032 TEE_Wait
0000d060 g     F .text	0000018c mbedtls_mpi_mul_mpi
00003280 g     F .text	0000001e TEE_CacheFlush
00001546 g     F .text	000002de trace_vprintf
00000d70 g     F .text	0000000e TA_DestroyEntryPoint
00009aea g     F .text	00000018 mbedtls_mpi_init
00007078 g     F .text	00000014 _utee_storage_obj_del
0000a2f0 g     F .text	00000066 mbedtls_mpi_lsb
0000285c g     F .text	0000003c _assert_log
00006e30 g     F .text	00000014 _utee_cryp_state_copy
0000950e g     F .text	00000016 TEE_BigIntFMMContextSizeInU32
00006b7c g     F .text	00000094 tee_unmap
0000547e g     F .text	000000de TEE_MACCompareFinal
00011cba g     F .text	00000064 TEE_RenamePersistentObject
00004a9c g     F .text	000000a2 TEE_DigestDoFinal
00007af8 g     F .text	00000054 _TEE_MathAPI_Init
000096e8 g     F .text	000002b0 __utee_tcb_init
0000b59e g     F .text	0000009a mbedtls_mpi_add_mpi
00007a84 g     F .text	0000001c abort
0000e5ae g     F .text	00000134 mbedtls_mpi_random
00006974 g     F .text	00000030 __utee_check_out_annotation
000142c0 g     O .bss	00001000 ta_heap
00008860 g     F .text	00000104 TEE_BigIntInvMod
0000731a g     F .text	00000126 __utee_call_elf_init_fn
00000df0 g     F .text	00000044 TA_CloseSessionEntryPoint
00006d60 g     F .text	00000014 _utee_close_ta_session
00005d08 g     F .text	0000016c TEE_AsymmetricDecrypt
00011ae2 g     F .text	000000aa TEE_OpenPersistentObject
0000b638 g     F .text	0000009a mbedtls_mpi_sub_mpi
0001235c g     F .text	0000008e consttime_memcmp
00006ce0 g     F .text	00000014 _utee_return
00006d08 g     F .text	00000014 __utee_panic
00009998 g     F .text	00000030 __tls_get_addr
00000e34 g     F .text	0000007a TA_InvokeCommandEntryPoint
0000749c g     F .text	00000018 __utee_call_elf_fini_fn
0001079e g     F .text	00000018 free_wipe
00010c14 g     F .text	00000060 mempool_alloc
00006ccc g     F .text	00000014 _utee_panic
00010a30 g     F .text	00000026 raw_malloc_init_ctx
00010c74 g     F .text	00000064 mempool_calloc
00007154 g     F .text	00000014 _utee_cryp_obj_generate_key
00011912 g     F .text	00000046 TEE_CopyObjectAttributes
0000712c g     F .text	00000014 _utee_storage_obj_trunc
00006db4 g     F .text	00000014 _utee_unmask_cancellation
0001065c g     F .text	0000004c calloc
000031a4 g     F .text	00000064 TEE_Malloc
00002f98 g     F .text	0000003a TEE_CheckMemoryAccessRights
00011160 g     F .text	0000005e __ul_divmod
00006d1c g     F .text	00000018 _utee_get_property
0000a1a6 g     F .text	0000005e mbedtls_mpi_lset
00011ec0 g     F .text	0000007a TEE_ReadObjectData
000114a6 g     F .text	000000b0 TEE_GetObjectBufferAttribute
00000d7e g     F .text	00000072 TA_OpenSessionEntryPoint
000042f2 g     F .text	00000044 TEE_FreeOperation
000099c8 g     F .text	000000d4 dl_iterate_phdr
00018310 g       .bss	00000000 __ftrace_buf_end
000152c8 g     O .bss	00000004 ta_param_types
0000d86c g     F .text	0000004a mbedtls_mpi_div_int
00011282 g     F .text	000000fa __utee_from_attr
0000ee42 g     F .text	0000009c mbedtls_mpi_is_prime_ext
00009476 g     F .text	0000004a TEE_BigIntIsProbablePrime
0000d1ec g     F .text	00000094 mbedtls_mpi_mul_int
00011c7c g     F .text	0000003e TEE_CloseAndDeletePersistentObject1
0000dcd8 g     F .text	00000628 mbedtls_mpi_exp_mod
00009fd2 g     F .text	000000b0 mbedtls_mpi_safe_cond_assign
0000b118 g     F .text	0000010e mbedtls_mpi_lt_mpi_ct
000059f0 g     F .text	000001ac TEE_AEDecryptFinal
00007c60 g     F .text	0000005c TEE_BigIntInit
00006924 g     F .text	00000050 __utee_check_outstring_annotation
0000300c g     F .text	00000020 TEE_MemMove
0000f64c g     F .text	0000002c mbedtls_platform_zeroize
00007cbc g     F .text	00000072 TEE_BigIntConvertFromOctetString
00007000 g     F .text	00000018 _utee_authenc_dec_final
0000ae8e g     F .text	00000104 mbedtls_mpi_cmp_abs
00007104 g     F .text	00000014 _utee_storage_obj_read
000052cc g     F .text	00000066 TEE_MACInit
00005e74 g     F .text	00000160 TEE_AsymmetricSignDigest
00010e98 g     F .text	000000ea memchr
00002f38 g     F .text	00000030 TEE_UnmaskCancellation
0001137c g     F .text	0000005c TEE_GetObjectInfo
0000f1b8 g     F .text	00000494 mbedtls_mpi_self_test
00007140 g     F .text	00000014 _utee_storage_obj_seek
000056a4 g     F .text	0000016c TEE_AEUpdate
000116c4 g     F .text	0000005a TEE_FreeTransientObject
00006da0 g     F .text	00000014 _utee_check_access_rights
0000b226 g     F .text	00000044 mbedtls_mpi_cmp_int
000070c8 g     F .text	00000014 _utee_storage_reset_enum
000062ac g     F .text	0000001e rand
000069a4 g     F .text	00000038 __utee_check_attr_in_annotation
00006fd0 g     F .text	00000018 _utee_authenc_update_payload
00004336 g     F .text	00000052 TEE_GetOperationInfo
0000874c g     F .text	00000058 TEE_BigIntMod
0000d940 g     F .text	000000f2 mbedtls_mpi_mod_int
0000a982 g     F .text	0000008c mbedtls_mpi_read_binary_le
000085e4 g     F .text	00000168 TEE_BigIntDiv
00006f18 g     F .text	00000014 _utee_cryp_obj_alloc
00018310 g       .bss	00000000 __ftrace_buf_start
00009e22 g     F .text	000000d4 mbedtls_mpi_copy
000062ca g     F .text	00000566 TEE_IsAlgorithmSupported
00010178 g     F .text	00000018 malloc_reset_stats
000018fe g     F .text	0000002a __vsprintf
00006e04 g     F .text	00000014 _utee_set_ta_time
00006d74 g     F .text	00000018 _utee_invoke_ta_command
00011462 g     F .text	00000044 TEE_RestrictObjectUsage1
000106ce g     F .text	0000004a realloc
00009ef6 g     F .text	00000038 mbedtls_mpi_swap
00010bac g     F .text	00000068 mempool_alloc_pool
0000850c g     F .text	000000bc TEE_BigIntMul
00004534 g     F .text	00000072 TEE_ResetOperation
00010a20 g     F .text	00000010 raw_malloc_get_ctx_size
0000ac0e g     F .text	0000014a mbedtls_mpi_shift_l
0000af92 g     F .text	00000146 mbedtls_mpi_cmp_mpi
0000304c g     F .text	00000022 TEE_MemFill
00010a8e g     F .text	00000026 malloc_add_pool
00005332 g     F .text	00000076 TEE_MACUpdate
00001434 g     F .text	00000020 trace_get_level
0000b26a g     F .text	00000164 mbedtls_mpi_add_abs
0001141c g     F .text	00000046 TEE_RestrictObjectUsage
000094f2 g     F .text	0000001c TEE_BigIntFMMSizeInU32
000104e2 g     F .text	00000098 raw_realloc
000094c0 g     F .text	0000001a TEE_BigIntInitFMM
00011636 g     F .text	0000002e TEE_CloseObject
00006e98 g     F .text	00000014 _utee_cipher_init
00007a16 g     F .text	0000006c __utee_entry
000123ea g       .text	00000000 __text_end
00008964 g     F .text	000000c0 TEE_BigIntRelativePrime
0000d8b6 g     F .text	0000008a mbedtls_mpi_mod_mpi
00006edc g     F .text	00000014 _utee_cryp_obj_get_info
0000ff0c g     F .text	000000f0 bpool
00006e18 g     F .text	00000018 _utee_cryp_state_alloc
00002f0a g     F .text	0000002e TEE_GetCancellationFlag
0000e300 g     F .text	000001b2 mbedtls_mpi_gcd
0000313e g     F .text	00000040 TEE_SetTAPersistentTime
0000aa88 g     F .text	000000be mbedtls_mpi_write_binary_le
00012268 g     F .text	000000f4 memset
00010358 g     F .text	0000008a raw_memalign
000030c6 g     F .text	00000078 TEE_GetTAPersistentTime
00001824 g     F .text	0000001a dhex_dump
00011b8c g     F .text	000000c4 TEE_CreatePersistentObject
00002f68 g     F .text	00000030 TEE_MaskCancellation
00005636 g     F .text	0000006e TEE_AEUpdateAAD
00011fae g     F .text	00000062 TEE_TruncateObjectData
00006f04 g     F .text	00000014 _utee_cryp_obj_get_attr
000113d8 g     F .text	00000044 TEE_GetObjectInfo1
00006ec4 g     F .text	00000018 _utee_cipher_final
000013f4 g     F .text	00000040 trace_set_level
00011556 g     F .text	000000e0 TEE_GetObjectValueAttribute
000045a6 g     F .text	00000130 TEE_SetOperationKey
00006e44 g     F .text	00000014 _utee_cryp_state_free
00010e00 g     F .text	00000098 strcmp
00006d48 g     F .text	00000018 _utee_open_ta_session
00007e24 g     F .text	000000c0 TEE_BigIntConvertToS32
00008430 g     F .text	00000030 TEE_BigIntSub
00010d22 g     F .text	00000010 tahead_get_trace_level
000070dc g     F .text	00000014 _utee_storage_start_enum
00012010 g     F .text	000000e8 TEE_SeekObjectData
00006af4 g     F .text	00000088 tee_map_zi
0000dc24 g     F .text	00000022 mbedtls_mpi_montred
00010718 g     F .text	0000004c memalign
00005064 g     F .text	00000268 TEE_CipherDoFinal
00007dac g     F .text	00000078 TEE_BigIntConvertFromS32
0000b6d2 g     F .text	00000048 mbedtls_mpi_add_int
00006fe8 g     F .text	00000018 _utee_authenc_enc_final
00010ab4 g     F .text	00000028 malloc_buffer_is_within_alloced
00006f2c g     F .text	00000014 _utee_cryp_obj_close
000094da g     F .text	00000018 TEE_BigIntInitFMMContext
00006dc8 g     F .text	00000014 _utee_mask_cancellation
0000708c g     F .text	00000014 _utee_storage_obj_rename
00011f3a g     F .text	00000074 TEE_WriteObjectData
00011d9c g     F .text	0000002e TEE_ResetPersistentObjectEnumerator
000085c8 g     F .text	0000001c TEE_BigIntSquare
00007118 g     F .text	00000014 _utee_storage_obj_write
00000d60 g     F .text	00000010 TA_CreateEntryPoint
000013f0 g     F .text	00000004 __ta_entry
00006fbc g     F .text	00000014 _utee_authenc_update_aad
0000da92 g     F .text	0000001a mbedtls_mpi_montg_init
00001840 g     F .text	00000030 snprintk
00008156 g     F .text	00000034 TEE_BigIntGetBitCount
00006f68 g     F .text	00000014 _utee_cryp_obj_copy
0000880c g     F .text	00000034 TEE_BigIntMulMod
0000e6e2 g     F .text	00000442 mbedtls_mpi_inv_mod
00006112 g     F .text	00000172 TEE_DeriveKey
000152cc g     O .bss	00000020 ta_params
0000d330 g     F .text	0000053c mbedtls_mpi_div_mpi
0000a400 g     F .text	0000001c mbedtls_mpi_size
0000f75e g     F .text	00000352 bget
00011664 g     F .text	00000060 TEE_AllocateTransientObject
00006ddc g     F .text	00000014 _utee_wait
0000a246 g     F .text	000000aa mbedtls_mpi_set_bit
00003246 g     F .text	0000001c TEE_Free
0000eede g     F .text	00000022 mbedtls_mpi_is_prime
0000329e g     F .text	0000001e TEE_CacheInvalidate
00002898 g     F .text	00000010 _assert_break
000087a4 g     F .text	00000034 TEE_BigIntAddMod
00006df0 g     F .text	00000014 _utee_get_time
00003596 g     F .text	00000d5c TEE_AllocateOperation
00006f54 g     F .text	00000014 _utee_cryp_obj_populate
00006284 g     F .text	00000028 TEE_GenerateRandom
0000302c g     F .text	00000020 TEE_MemCompare
00006eac g     F .text	00000018 _utee_cipher_update
00001898 g     F .text	00000066 __vsnprintf
000152ec g     O .bss	0000000c __elf_phdr_info
00011d6e g     F .text	0000002e TEE_FreePersistentObjectEnumerator
00002cee g     F .text	000000dc TEE_OpenTASession
000028a8 g     F .text	00000020 trace_ext_puts
000028c8 g     F .text	00000012 trace_ext_get_thread_id
00011c50 g     F .text	0000002c TEE_CloseAndDeletePersistentObject
00006f7c g     F .text	00000014 _utee_cryp_derive_key
00009b38 g     F .text	00000078 mbedtls_mpi_free
00006f40 g     F .text	00000014 _utee_cryp_obj_reset
00003262 g     F .text	0000001e TEE_CacheClean
00006d34 g     F .text	00000014 _utee_get_property_name_to_index
00010438 g     F .text	000000aa raw_calloc
0000a082 g     F .text	00000124 mbedtls_mpi_safe_cond_swap
00006fa4 g     F .text	00000018 _utee_authenc_init
00011958 g     F .text	000000aa TEE_CopyObjectAttributes1
00010f82 g     F .text	00000078 strlen
000091d4 g     F .text	00000278 TEE_BigIntComputeExtendedGcd
000070a0 g     F .text	00000014 _utee_storage_alloc_enum
0000306e g     F .text	00000026 TEE_GetSystemTime
00007030 g     F .text	00000018 _utee_asymm_verify
00000000 g     O .ta_head	00000020 ta_head
0000fbfc g     F .text	00000310 brel
0000b460 g     F .text	0000013e mbedtls_mpi_sub_abs
0000e550 g     F .text	0000005e mbedtls_mpi_fill_random
00002fd2 g     F .text	00000022 TEE_SetInstanceData
00006d8c g     F .text	00000014 _utee_get_cancellation_flag
0000282c g     F .text	00000018 __aeabi_ldivmod
0000a702 g     F .text	000001ba mbedtls_mpi_write_string
00011e1a g     F .text	000000a6 TEE_GetNextPersistentObject
00002dca g     F .text	0000002c TEE_CloseTASession
00005fd4 g     F .text	0000013e TEE_AsymmetricVerifyDigest
00007060 g     F .text	00000018 _utee_storage_obj_create
00010786 g     F .text	00000018 free
0000fffc g     F .text	000000a4 bstats
000053a8 g     F .text	000000d6 TEE_MACComputeFinal
00018308 g     O .bss	00000004 mbedtls_mpi_mempool
00006e80 g     F .text	00000018 _utee_hash_final



Disassembly of section .text:

00000020 <reg_pair_to_64>:
reg_pair_to_64():
/home/aom1/Work/Linux/target/STM32MP1-DK2/bootloader/buildroot/optee-os-custom/out/arm-plat-stm32mp1/export-ta_arm32/include/util.h:165
      20:	e92d 0fb0 	stmdb	sp!, {r4, r5, r7, r8, r9, sl, fp}
      24:	b083      	sub	sp, #12
      26:	af00      	add	r7, sp, #0
      28:	6078      	str	r0, [r7, #4]
      2a:	6039      	str	r1, [r7, #0]
/home/aom1/Work/Linux/target/STM32MP1-DK2/bootloader/buildroot/optee-os-custom/out/arm-plat-stm32mp1/export-ta_arm32/include/util.h:166
      2c:	687b      	ldr	r3, [r7, #4]
      2e:	2200      	movs	r2, #0
      30:	469a      	mov	sl, r3
      32:	4693      	mov	fp, r2
      34:	f04f 0200 	mov.w	r2, #0
      38:	f04f 0300 	mov.w	r3, #0
      3c:	4653      	mov	r3, sl
      3e:	2200      	movs	r2, #0
      40:	6839      	ldr	r1, [r7, #0]
      42:	2000      	movs	r0, #0
      44:	460c      	mov	r4, r1
      46:	4605      	mov	r5, r0
      48:	ea42 0804 	orr.w	r8, r2, r4
      4c:	ea43 0905 	orr.w	r9, r3, r5
      50:	4642      	mov	r2, r8
      52:	464b      	mov	r3, r9
/home/aom1/Work/Linux/target/STM32MP1-DK2/bootloader/buildroot/optee-os-custom/out/arm-plat-stm32mp1/export-ta_arm32/include/util.h:167
      54:	4610      	mov	r0, r2
      56:	4619      	mov	r1, r3
      58:	370c      	adds	r7, #12
      5a:	46bd      	mov	sp, r7
      5c:	e8bd 0fb0 	ldmia.w	sp!, {r4, r5, r7, r8, r9, sl, fp}
      60:	4770      	bx	lr

00000062 <reg_pair_from_64>:
reg_pair_from_64():
/home/aom1/Work/Linux/target/STM32MP1-DK2/bootloader/buildroot/optee-os-custom/out/arm-plat-stm32mp1/export-ta_arm32/include/util.h:171
      62:	b480      	push	{r7}
      64:	b085      	sub	sp, #20
      66:	af00      	add	r7, sp, #0
      68:	e9c7 0102 	strd	r0, r1, [r7, #8]
      6c:	607a      	str	r2, [r7, #4]
      6e:	603b      	str	r3, [r7, #0]
/home/aom1/Work/Linux/target/STM32MP1-DK2/bootloader/buildroot/optee-os-custom/out/arm-plat-stm32mp1/export-ta_arm32/include/util.h:172
      70:	e9d7 0102 	ldrd	r0, r1, [r7, #8]
      74:	f04f 0200 	mov.w	r2, #0
      78:	f04f 0300 	mov.w	r3, #0
      7c:	000a      	movs	r2, r1
      7e:	2300      	movs	r3, #0
      80:	687b      	ldr	r3, [r7, #4]
      82:	601a      	str	r2, [r3, #0]
/home/aom1/Work/Linux/target/STM32MP1-DK2/bootloader/buildroot/optee-os-custom/out/arm-plat-stm32mp1/export-ta_arm32/include/util.h:173
      84:	68ba      	ldr	r2, [r7, #8]
      86:	683b      	ldr	r3, [r7, #0]
      88:	601a      	str	r2, [r3, #0]
/home/aom1/Work/Linux/target/STM32MP1-DK2/bootloader/buildroot/optee-os-custom/out/arm-plat-stm32mp1/export-ta_arm32/include/util.h:174
      8a:	bf00      	nop
      8c:	3714      	adds	r7, #20
      8e:	46bd      	mov	sp, r7
      90:	f85d 7b04 	ldr.w	r7, [sp], #4
      94:	4770      	bx	lr

00000096 <rproc_pta_get_keyinfo_size>:
rproc_pta_get_keyinfo_size():
/home/aom1/Work/Linux/target/STM32MP1-DK2/bootloader/buildroot/optee-os-custom/out/arm-plat-stm32mp1/export-ta_arm32/include/remoteproc_pta.h:46
      96:	b480      	push	{r7}
      98:	b085      	sub	sp, #20
      9a:	af00      	add	r7, sp, #0
      9c:	6078      	str	r0, [r7, #4]
/home/aom1/Work/Linux/target/STM32MP1-DK2/bootloader/buildroot/optee-os-custom/out/arm-plat-stm32mp1/export-ta_arm32/include/remoteproc_pta.h:47
      9e:	2300      	movs	r3, #0
      a0:	60fb      	str	r3, [r7, #12]
/home/aom1/Work/Linux/target/STM32MP1-DK2/bootloader/buildroot/optee-os-custom/out/arm-plat-stm32mp1/export-ta_arm32/include/remoteproc_pta.h:49
      a2:	687b      	ldr	r3, [r7, #4]
      a4:	2b00      	cmp	r3, #0
      a6:	d00d      	beq.n	c4 <rproc_pta_get_keyinfo_size+0x2e>
/home/aom1/Work/Linux/target/STM32MP1-DK2/bootloader/buildroot/optee-os-custom/out/arm-plat-stm32mp1/export-ta_arm32/include/remoteproc_pta.h:49 (discriminator 1)
      a8:	687b      	ldr	r3, [r7, #4]
      aa:	685a      	ldr	r2, [r3, #4]
      ac:	2100      	movs	r1, #0
      ae:	2308      	movs	r3, #8
      b0:	189b      	adds	r3, r3, r2
      b2:	d300      	bcc.n	b6 <rproc_pta_get_keyinfo_size+0x20>
      b4:	2101      	movs	r1, #1
      b6:	60fb      	str	r3, [r7, #12]
      b8:	460b      	mov	r3, r1
      ba:	f003 0301 	and.w	r3, r3, #1
      be:	b2db      	uxtb	r3, r3
      c0:	2b00      	cmp	r3, #0
      c2:	d001      	beq.n	c8 <rproc_pta_get_keyinfo_size+0x32>
/home/aom1/Work/Linux/target/STM32MP1-DK2/bootloader/buildroot/optee-os-custom/out/arm-plat-stm32mp1/export-ta_arm32/include/remoteproc_pta.h:50
      c4:	2300      	movs	r3, #0
      c6:	e000      	b.n	ca <rproc_pta_get_keyinfo_size+0x34>
/home/aom1/Work/Linux/target/STM32MP1-DK2/bootloader/buildroot/optee-os-custom/out/arm-plat-stm32mp1/export-ta_arm32/include/remoteproc_pta.h:52
      c8:	68fb      	ldr	r3, [r7, #12]
/home/aom1/Work/Linux/target/STM32MP1-DK2/bootloader/buildroot/optee-os-custom/out/arm-plat-stm32mp1/export-ta_arm32/include/remoteproc_pta.h:53 (discriminator 1)
      ca:	4618      	mov	r0, r3
      cc:	3714      	adds	r7, #20
      ce:	46bd      	mov	sp, r7
      d0:	f85d 7b04 	ldr.w	r7, [sp], #4
      d4:	4770      	bx	lr

000000d6 <remoteproc_header_dump>:
remoteproc_header_dump():
/home/aom1/Work/Linux/target/STM32MP1-DK2/bootloader/buildroot/optee-os-custom/ta/remoteproc/remoteproc_core.c:136
      d6:	b480      	push	{r7}
      d8:	b083      	sub	sp, #12
      da:	af00      	add	r7, sp, #0
      dc:	6078      	str	r0, [r7, #4]
/home/aom1/Work/Linux/target/STM32MP1-DK2/bootloader/buildroot/optee-os-custom/ta/remoteproc/remoteproc_core.c:151
      de:	bf00      	nop
      e0:	370c      	adds	r7, #12
      e2:	46bd      	mov	sp, r7
      e4:	f85d 7b04 	ldr.w	r7, [sp], #4
      e8:	4770      	bx	lr

000000ea <remoteproc_find_firmware>:
remoteproc_find_firmware():
/home/aom1/Work/Linux/target/STM32MP1-DK2/bootloader/buildroot/optee-os-custom/ta/remoteproc/remoteproc_core.c:154
      ea:	b480      	push	{r7}
      ec:	b085      	sub	sp, #20
      ee:	af00      	add	r7, sp, #0
      f0:	6078      	str	r0, [r7, #4]
/home/aom1/Work/Linux/target/STM32MP1-DK2/bootloader/buildroot/optee-os-custom/ta/remoteproc/remoteproc_core.c:155
      f2:	2300      	movs	r3, #0
      f4:	60fb      	str	r3, [r7, #12]
/home/aom1/Work/Linux/target/STM32MP1-DK2/bootloader/buildroot/optee-os-custom/ta/remoteproc/remoteproc_core.c:157
      f6:	4b0c      	ldr	r3, [pc, #48]	; (128 <remoteproc_find_firmware+0x3e>)
      f8:	447b      	add	r3, pc
      fa:	681b      	ldr	r3, [r3, #0]
      fc:	60fb      	str	r3, [r7, #12]
      fe:	e009      	b.n	114 <remoteproc_find_firmware+0x2a>
/home/aom1/Work/Linux/target/STM32MP1-DK2/bootloader/buildroot/optee-os-custom/ta/remoteproc/remoteproc_core.c:158
     100:	68fb      	ldr	r3, [r7, #12]
     102:	681b      	ldr	r3, [r3, #0]
     104:	687a      	ldr	r2, [r7, #4]
     106:	429a      	cmp	r2, r3
     108:	d101      	bne.n	10e <remoteproc_find_firmware+0x24>
/home/aom1/Work/Linux/target/STM32MP1-DK2/bootloader/buildroot/optee-os-custom/ta/remoteproc/remoteproc_core.c:159
     10a:	68fb      	ldr	r3, [r7, #12]
     10c:	e006      	b.n	11c <remoteproc_find_firmware+0x32>
/home/aom1/Work/Linux/target/STM32MP1-DK2/bootloader/buildroot/optee-os-custom/ta/remoteproc/remoteproc_core.c:157 (discriminator 2)
     10e:	68fb      	ldr	r3, [r7, #12]
     110:	6a5b      	ldr	r3, [r3, #36]	; 0x24
     112:	60fb      	str	r3, [r7, #12]
/home/aom1/Work/Linux/target/STM32MP1-DK2/bootloader/buildroot/optee-os-custom/ta/remoteproc/remoteproc_core.c:157 (discriminator 1)
     114:	68fb      	ldr	r3, [r7, #12]
     116:	2b00      	cmp	r3, #0
     118:	d1f2      	bne.n	100 <remoteproc_find_firmware+0x16>
/home/aom1/Work/Linux/target/STM32MP1-DK2/bootloader/buildroot/optee-os-custom/ta/remoteproc/remoteproc_core.c:162
     11a:	2300      	movs	r3, #0
/home/aom1/Work/Linux/target/STM32MP1-DK2/bootloader/buildroot/optee-os-custom/ta/remoteproc/remoteproc_core.c:163
     11c:	4618      	mov	r0, r3
     11e:	3714      	adds	r7, #20
     120:	46bd      	mov	sp, r7
     122:	f85d 7b04 	ldr.w	r7, [sp], #4
     126:	4770      	bx	lr
     128:	000140ec 	.word	0x000140ec

0000012c <remoteproc_add_firmware>:
remoteproc_add_firmware():
/home/aom1/Work/Linux/target/STM32MP1-DK2/bootloader/buildroot/optee-os-custom/ta/remoteproc/remoteproc_core.c:166
     12c:	b580      	push	{r7, lr}
     12e:	b084      	sub	sp, #16
     130:	af00      	add	r7, sp, #0
     132:	6078      	str	r0, [r7, #4]
/home/aom1/Work/Linux/target/STM32MP1-DK2/bootloader/buildroot/optee-os-custom/ta/remoteproc/remoteproc_core.c:167
     134:	2300      	movs	r3, #0
     136:	60fb      	str	r3, [r7, #12]
/home/aom1/Work/Linux/target/STM32MP1-DK2/bootloader/buildroot/optee-os-custom/ta/remoteproc/remoteproc_core.c:169
     138:	2100      	movs	r1, #0
     13a:	202c      	movs	r0, #44	; 0x2c
     13c:	f003 f832 	bl	31a4 <TEE_Malloc>
     140:	60f8      	str	r0, [r7, #12]
/home/aom1/Work/Linux/target/STM32MP1-DK2/bootloader/buildroot/optee-os-custom/ta/remoteproc/remoteproc_core.c:170
     142:	68fb      	ldr	r3, [r7, #12]
     144:	2b00      	cmp	r3, #0
     146:	d101      	bne.n	14c <remoteproc_add_firmware+0x20>
/home/aom1/Work/Linux/target/STM32MP1-DK2/bootloader/buildroot/optee-os-custom/ta/remoteproc/remoteproc_core.c:171
     148:	2300      	movs	r3, #0
     14a:	e016      	b.n	17a <remoteproc_add_firmware+0x4e>
/home/aom1/Work/Linux/target/STM32MP1-DK2/bootloader/buildroot/optee-os-custom/ta/remoteproc/remoteproc_core.c:173
     14c:	68fb      	ldr	r3, [r7, #12]
     14e:	687a      	ldr	r2, [r7, #4]
     150:	601a      	str	r2, [r3, #0]
/home/aom1/Work/Linux/target/STM32MP1-DK2/bootloader/buildroot/optee-os-custom/ta/remoteproc/remoteproc_core.c:175
     152:	68fb      	ldr	r3, [r7, #12]
     154:	2200      	movs	r2, #0
     156:	625a      	str	r2, [r3, #36]	; 0x24
     158:	4b0a      	ldr	r3, [pc, #40]	; (184 <remoteproc_add_firmware+0x58>)
     15a:	447b      	add	r3, pc
     15c:	685a      	ldr	r2, [r3, #4]
     15e:	68fb      	ldr	r3, [r7, #12]
     160:	629a      	str	r2, [r3, #40]	; 0x28
     162:	4b09      	ldr	r3, [pc, #36]	; (188 <remoteproc_add_firmware+0x5c>)
     164:	447b      	add	r3, pc
     166:	685b      	ldr	r3, [r3, #4]
     168:	68fa      	ldr	r2, [r7, #12]
     16a:	601a      	str	r2, [r3, #0]
     16c:	68fb      	ldr	r3, [r7, #12]
     16e:	f103 0224 	add.w	r2, r3, #36	; 0x24
     172:	4b06      	ldr	r3, [pc, #24]	; (18c <remoteproc_add_firmware+0x60>)
     174:	447b      	add	r3, pc
     176:	605a      	str	r2, [r3, #4]
/home/aom1/Work/Linux/target/STM32MP1-DK2/bootloader/buildroot/optee-os-custom/ta/remoteproc/remoteproc_core.c:177
     178:	68fb      	ldr	r3, [r7, #12]
/home/aom1/Work/Linux/target/STM32MP1-DK2/bootloader/buildroot/optee-os-custom/ta/remoteproc/remoteproc_core.c:178
     17a:	4618      	mov	r0, r3
     17c:	3710      	adds	r7, #16
     17e:	46bd      	mov	sp, r7
     180:	bd80      	pop	{r7, pc}
     182:	bf00      	nop
     184:	0001408a 	.word	0x0001408a
     188:	00014080 	.word	0x00014080
     18c:	00014070 	.word	0x00014070

00000190 <remoteproc_get_algo>:
remoteproc_get_algo():
/home/aom1/Work/Linux/target/STM32MP1-DK2/bootloader/buildroot/optee-os-custom/ta/remoteproc/remoteproc_core.c:181
     190:	b480      	push	{r7}
     192:	b085      	sub	sp, #20
     194:	af00      	add	r7, sp, #0
     196:	6078      	str	r0, [r7, #4]
/home/aom1/Work/Linux/target/STM32MP1-DK2/bootloader/buildroot/optee-os-custom/ta/remoteproc/remoteproc_core.c:182
     198:	2300      	movs	r3, #0
     19a:	60fb      	str	r3, [r7, #12]
/home/aom1/Work/Linux/target/STM32MP1-DK2/bootloader/buildroot/optee-os-custom/ta/remoteproc/remoteproc_core.c:184
     19c:	2300      	movs	r3, #0
     19e:	60fb      	str	r3, [r7, #12]
     1a0:	e015      	b.n	1ce <remoteproc_get_algo+0x3e>
/home/aom1/Work/Linux/target/STM32MP1-DK2/bootloader/buildroot/optee-os-custom/ta/remoteproc/remoteproc_core.c:185
     1a2:	4a10      	ldr	r2, [pc, #64]	; (1e4 <remoteproc_get_algo+0x54>)
     1a4:	447a      	add	r2, pc
     1a6:	68fb      	ldr	r3, [r7, #12]
     1a8:	210c      	movs	r1, #12
     1aa:	fb01 f303 	mul.w	r3, r1, r3
     1ae:	4413      	add	r3, r2
     1b0:	681b      	ldr	r3, [r3, #0]
     1b2:	687a      	ldr	r2, [r7, #4]
     1b4:	429a      	cmp	r2, r3
     1b6:	d107      	bne.n	1c8 <remoteproc_get_algo+0x38>
/home/aom1/Work/Linux/target/STM32MP1-DK2/bootloader/buildroot/optee-os-custom/ta/remoteproc/remoteproc_core.c:186
     1b8:	68fb      	ldr	r3, [r7, #12]
     1ba:	220c      	movs	r2, #12
     1bc:	fb02 f303 	mul.w	r3, r2, r3
     1c0:	4a09      	ldr	r2, [pc, #36]	; (1e8 <remoteproc_get_algo+0x58>)
     1c2:	447a      	add	r2, pc
     1c4:	4413      	add	r3, r2
     1c6:	e006      	b.n	1d6 <remoteproc_get_algo+0x46>
/home/aom1/Work/Linux/target/STM32MP1-DK2/bootloader/buildroot/optee-os-custom/ta/remoteproc/remoteproc_core.c:184 (discriminator 2)
     1c8:	68fb      	ldr	r3, [r7, #12]
     1ca:	3301      	adds	r3, #1
     1cc:	60fb      	str	r3, [r7, #12]
/home/aom1/Work/Linux/target/STM32MP1-DK2/bootloader/buildroot/optee-os-custom/ta/remoteproc/remoteproc_core.c:184 (discriminator 1)
     1ce:	68fb      	ldr	r3, [r7, #12]
     1d0:	2b01      	cmp	r3, #1
     1d2:	d9e6      	bls.n	1a2 <remoteproc_get_algo+0x12>
/home/aom1/Work/Linux/target/STM32MP1-DK2/bootloader/buildroot/optee-os-custom/ta/remoteproc/remoteproc_core.c:188
     1d4:	2300      	movs	r3, #0
/home/aom1/Work/Linux/target/STM32MP1-DK2/bootloader/buildroot/optee-os-custom/ta/remoteproc/remoteproc_core.c:189
     1d6:	4618      	mov	r0, r3
     1d8:	3714      	adds	r7, #20
     1da:	46bd      	mov	sp, r7
     1dc:	f85d 7b04 	ldr.w	r7, [sp], #4
     1e0:	4770      	bx	lr
     1e2:	bf00      	nop
     1e4:	00012244 	.word	0x00012244
     1e8:	00012226 	.word	0x00012226

000001ec <remoteproc_pta_verify>:
remoteproc_pta_verify():
/home/aom1/Work/Linux/target/STM32MP1-DK2/bootloader/buildroot/optee-os-custom/ta/remoteproc/remoteproc_core.c:194
     1ec:	b580      	push	{r7, lr}
     1ee:	b092      	sub	sp, #72	; 0x48
     1f0:	af02      	add	r7, sp, #8
     1f2:	60f8      	str	r0, [r7, #12]
     1f4:	60b9      	str	r1, [r7, #8]
     1f6:	607a      	str	r2, [r7, #4]
     1f8:	603b      	str	r3, [r7, #0]
/home/aom1/Work/Linux/target/STM32MP1-DK2/bootloader/buildroot/optee-os-custom/ta/remoteproc/remoteproc_core.c:195
     1fa:	2300      	movs	r3, #0
     1fc:	f6cf 73ff 	movt	r3, #65535	; 0xffff
     200:	63fb      	str	r3, [r7, #60]	; 0x3c
/home/aom1/Work/Linux/target/STM32MP1-DK2/bootloader/buildroot/optee-os-custom/ta/remoteproc/remoteproc_core.c:196
     202:	68fb      	ldr	r3, [r7, #12]
     204:	685b      	ldr	r3, [r3, #4]
     206:	63bb      	str	r3, [r7, #56]	; 0x38
/home/aom1/Work/Linux/target/STM32MP1-DK2/bootloader/buildroot/optee-os-custom/ta/remoteproc/remoteproc_core.c:197
     208:	2300      	movs	r3, #0
     20a:	637b      	str	r3, [r7, #52]	; 0x34
/home/aom1/Work/Linux/target/STM32MP1-DK2/bootloader/buildroot/optee-os-custom/ta/remoteproc/remoteproc_core.c:198
     20c:	f245 5351 	movw	r3, #21841	; 0x5551
     210:	633b      	str	r3, [r7, #48]	; 0x30
/home/aom1/Work/Linux/target/STM32MP1-DK2/bootloader/buildroot/optee-os-custom/ta/remoteproc/remoteproc_core.c:202
     212:	f107 0310 	add.w	r3, r7, #16
     216:	efc0 0010 	vmov.i32	d16, #0	; 0x00000000
     21a:	edc3 0b00 	vstr	d16, [r3]
     21e:	edc3 0b02 	vstr	d16, [r3, #8]
     222:	edc3 0b04 	vstr	d16, [r3, #16]
     226:	edc3 0b06 	vstr	d16, [r3, #24]
/home/aom1/Work/Linux/target/STM32MP1-DK2/bootloader/buildroot/optee-os-custom/ta/remoteproc/remoteproc_core.c:204
     22a:	6bbb      	ldr	r3, [r7, #56]	; 0x38
     22c:	6a5b      	ldr	r3, [r3, #36]	; 0x24
     22e:	3308      	adds	r3, #8
     230:	2100      	movs	r1, #0
     232:	4618      	mov	r0, r3
     234:	f002 ffb6 	bl	31a4 <TEE_Malloc>
     238:	6378      	str	r0, [r7, #52]	; 0x34
/home/aom1/Work/Linux/target/STM32MP1-DK2/bootloader/buildroot/optee-os-custom/ta/remoteproc/remoteproc_core.c:205
     23a:	6b7b      	ldr	r3, [r7, #52]	; 0x34
     23c:	2b00      	cmp	r3, #0
     23e:	d103      	bne.n	248 <remoteproc_pta_verify+0x5c>
/home/aom1/Work/Linux/target/STM32MP1-DK2/bootloader/buildroot/optee-os-custom/ta/remoteproc/remoteproc_core.c:206
     240:	230c      	movs	r3, #12
     242:	f6cf 73ff 	movt	r3, #65535	; 0xffff
     246:	e04b      	b.n	2e0 <remoteproc_pta_verify+0xf4>
/home/aom1/Work/Linux/target/STM32MP1-DK2/bootloader/buildroot/optee-os-custom/ta/remoteproc/remoteproc_core.c:208
     248:	68bb      	ldr	r3, [r7, #8]
     24a:	685a      	ldr	r2, [r3, #4]
     24c:	6b7b      	ldr	r3, [r7, #52]	; 0x34
     24e:	601a      	str	r2, [r3, #0]
/home/aom1/Work/Linux/target/STM32MP1-DK2/bootloader/buildroot/optee-os-custom/ta/remoteproc/remoteproc_core.c:209
     250:	6bbb      	ldr	r3, [r7, #56]	; 0x38
     252:	6a5a      	ldr	r2, [r3, #36]	; 0x24
     254:	6b7b      	ldr	r3, [r7, #52]	; 0x34
     256:	605a      	str	r2, [r3, #4]
/home/aom1/Work/Linux/target/STM32MP1-DK2/bootloader/buildroot/optee-os-custom/ta/remoteproc/remoteproc_core.c:210
     258:	6b7b      	ldr	r3, [r7, #52]	; 0x34
     25a:	f103 0008 	add.w	r0, r3, #8
     25e:	6bbb      	ldr	r3, [r7, #56]	; 0x38
     260:	6a9b      	ldr	r3, [r3, #40]	; 0x28
     262:	6bba      	ldr	r2, [r7, #56]	; 0x38
     264:	18d1      	adds	r1, r2, r3
     266:	6bbb      	ldr	r3, [r7, #56]	; 0x38
     268:	6a5b      	ldr	r3, [r3, #36]	; 0x24
     26a:	461a      	mov	r2, r3
     26c:	f010 fd61 	bl	10d32 <memcpy>
/home/aom1/Work/Linux/target/STM32MP1-DK2/bootloader/buildroot/optee-os-custom/ta/remoteproc/remoteproc_core.c:213
     270:	68fb      	ldr	r3, [r7, #12]
     272:	681b      	ldr	r3, [r3, #0]
     274:	613b      	str	r3, [r7, #16]
/home/aom1/Work/Linux/target/STM32MP1-DK2/bootloader/buildroot/optee-os-custom/ta/remoteproc/remoteproc_core.c:214
     276:	6b7b      	ldr	r3, [r7, #52]	; 0x34
     278:	61bb      	str	r3, [r7, #24]
/home/aom1/Work/Linux/target/STM32MP1-DK2/bootloader/buildroot/optee-os-custom/ta/remoteproc/remoteproc_core.c:215
     27a:	6b78      	ldr	r0, [r7, #52]	; 0x34
     27c:	f7ff ff0b 	bl	96 <rproc_pta_get_keyinfo_size>
     280:	4603      	mov	r3, r0
     282:	61fb      	str	r3, [r7, #28]
/home/aom1/Work/Linux/target/STM32MP1-DK2/bootloader/buildroot/optee-os-custom/ta/remoteproc/remoteproc_core.c:216
     284:	687b      	ldr	r3, [r7, #4]
     286:	623b      	str	r3, [r7, #32]
/home/aom1/Work/Linux/target/STM32MP1-DK2/bootloader/buildroot/optee-os-custom/ta/remoteproc/remoteproc_core.c:217
     288:	683b      	ldr	r3, [r7, #0]
     28a:	627b      	str	r3, [r7, #36]	; 0x24
/home/aom1/Work/Linux/target/STM32MP1-DK2/bootloader/buildroot/optee-os-custom/ta/remoteproc/remoteproc_core.c:218
     28c:	6bbb      	ldr	r3, [r7, #56]	; 0x38
     28e:	691b      	ldr	r3, [r3, #16]
     290:	6bba      	ldr	r2, [r7, #56]	; 0x38
     292:	4413      	add	r3, r2
     294:	62bb      	str	r3, [r7, #40]	; 0x28
/home/aom1/Work/Linux/target/STM32MP1-DK2/bootloader/buildroot/optee-os-custom/ta/remoteproc/remoteproc_core.c:219
     296:	6bbb      	ldr	r3, [r7, #56]	; 0x38
     298:	68db      	ldr	r3, [r3, #12]
     29a:	62fb      	str	r3, [r7, #44]	; 0x2c
/home/aom1/Work/Linux/target/STM32MP1-DK2/bootloader/buildroot/optee-os-custom/ta/remoteproc/remoteproc_core.c:221
     29c:	4b12      	ldr	r3, [pc, #72]	; (2e8 <remoteproc_pta_verify+0xfc>)
     29e:	447b      	add	r3, pc
     2a0:	6818      	ldr	r0, [r3, #0]
     2a2:	2300      	movs	r3, #0
     2a4:	9301      	str	r3, [sp, #4]
     2a6:	f107 0310 	add.w	r3, r7, #16
     2aa:	9300      	str	r3, [sp, #0]
     2ac:	6b3b      	ldr	r3, [r7, #48]	; 0x30
     2ae:	2208      	movs	r2, #8
     2b0:	f04f 31ff 	mov.w	r1, #4294967295	; 0xffffffff
     2b4:	f002 fd9f 	bl	2df6 <TEE_InvokeTACommand>
     2b8:	63f8      	str	r0, [r7, #60]	; 0x3c
/home/aom1/Work/Linux/target/STM32MP1-DK2/bootloader/buildroot/optee-os-custom/ta/remoteproc/remoteproc_core.c:224
     2ba:	6bfb      	ldr	r3, [r7, #60]	; 0x3c
     2bc:	2b00      	cmp	r3, #0
     2be:	d00b      	beq.n	2d8 <remoteproc_pta_verify+0xec>
/home/aom1/Work/Linux/target/STM32MP1-DK2/bootloader/buildroot/optee-os-custom/ta/remoteproc/remoteproc_core.c:225
     2c0:	6bfb      	ldr	r3, [r7, #60]	; 0x3c
     2c2:	9301      	str	r3, [sp, #4]
     2c4:	4b09      	ldr	r3, [pc, #36]	; (2ec <remoteproc_pta_verify+0x100>)
     2c6:	447b      	add	r3, pc
     2c8:	9300      	str	r3, [sp, #0]
     2ca:	2301      	movs	r3, #1
     2cc:	2201      	movs	r2, #1
     2ce:	21e1      	movs	r1, #225	; 0xe1
     2d0:	4807      	ldr	r0, [pc, #28]	; (2f0 <remoteproc_pta_verify+0x104>)
     2d2:	4478      	add	r0, pc
     2d4:	f001 f91e 	bl	1514 <trace_printf>
/home/aom1/Work/Linux/target/STM32MP1-DK2/bootloader/buildroot/optee-os-custom/ta/remoteproc/remoteproc_core.c:227
     2d8:	6b78      	ldr	r0, [r7, #52]	; 0x34
     2da:	f002 ffb4 	bl	3246 <TEE_Free>
/home/aom1/Work/Linux/target/STM32MP1-DK2/bootloader/buildroot/optee-os-custom/ta/remoteproc/remoteproc_core.c:229
     2de:	6bfb      	ldr	r3, [r7, #60]	; 0x3c
/home/aom1/Work/Linux/target/STM32MP1-DK2/bootloader/buildroot/optee-os-custom/ta/remoteproc/remoteproc_core.c:230 (discriminator 1)
     2e0:	4618      	mov	r0, r3
     2e2:	3740      	adds	r7, #64	; 0x40
     2e4:	46bd      	mov	sp, r7
     2e6:	bd80      	pop	{r7, pc}
     2e8:	0001401a 	.word	0x0001401a
     2ec:	0001213a 	.word	0x0001213a
     2f0:	00012236 	.word	0x00012236

000002f4 <remoteproc_save_fw_header>:
remoteproc_save_fw_header():
/home/aom1/Work/Linux/target/STM32MP1-DK2/bootloader/buildroot/optee-os-custom/ta/remoteproc/remoteproc_core.c:235
     2f4:	b580      	push	{r7, lr}
     2f6:	b086      	sub	sp, #24
     2f8:	af00      	add	r7, sp, #0
     2fa:	60f8      	str	r0, [r7, #12]
     2fc:	60b9      	str	r1, [r7, #8]
     2fe:	607a      	str	r2, [r7, #4]
/home/aom1/Work/Linux/target/STM32MP1-DK2/bootloader/buildroot/optee-os-custom/ta/remoteproc/remoteproc_core.c:236
     300:	68bb      	ldr	r3, [r7, #8]
     302:	617b      	str	r3, [r7, #20]
/home/aom1/Work/Linux/target/STM32MP1-DK2/bootloader/buildroot/optee-os-custom/ta/remoteproc/remoteproc_core.c:238
     304:	6978      	ldr	r0, [r7, #20]
     306:	f7ff fee6 	bl	d6 <remoteproc_header_dump>
/home/aom1/Work/Linux/target/STM32MP1-DK2/bootloader/buildroot/optee-os-custom/ta/remoteproc/remoteproc_core.c:240
     30a:	687b      	ldr	r3, [r7, #4]
     30c:	2b38      	cmp	r3, #56	; 0x38
     30e:	d904      	bls.n	31a <remoteproc_save_fw_header+0x26>
/home/aom1/Work/Linux/target/STM32MP1-DK2/bootloader/buildroot/optee-os-custom/ta/remoteproc/remoteproc_core.c:240 (discriminator 1)
     310:	697b      	ldr	r3, [r7, #20]
     312:	689b      	ldr	r3, [r3, #8]
     314:	687a      	ldr	r2, [r7, #4]
     316:	429a      	cmp	r2, r3
     318:	d803      	bhi.n	322 <remoteproc_save_fw_header+0x2e>
/home/aom1/Work/Linux/target/STM32MP1-DK2/bootloader/buildroot/optee-os-custom/ta/remoteproc/remoteproc_core.c:241
     31a:	2301      	movs	r3, #1
     31c:	f2cf 0310 	movt	r3, #61456	; 0xf010
     320:	e019      	b.n	356 <remoteproc_save_fw_header+0x62>
/home/aom1/Work/Linux/target/STM32MP1-DK2/bootloader/buildroot/optee-os-custom/ta/remoteproc/remoteproc_core.c:243
     322:	697b      	ldr	r3, [r7, #20]
     324:	689b      	ldr	r3, [r3, #8]
     326:	2100      	movs	r1, #0
     328:	4618      	mov	r0, r3
     32a:	f002 ff3b 	bl	31a4 <TEE_Malloc>
     32e:	4602      	mov	r2, r0
     330:	68fb      	ldr	r3, [r7, #12]
     332:	605a      	str	r2, [r3, #4]
/home/aom1/Work/Linux/target/STM32MP1-DK2/bootloader/buildroot/optee-os-custom/ta/remoteproc/remoteproc_core.c:244
     334:	68fb      	ldr	r3, [r7, #12]
     336:	685b      	ldr	r3, [r3, #4]
     338:	2b00      	cmp	r3, #0
     33a:	d103      	bne.n	344 <remoteproc_save_fw_header+0x50>
/home/aom1/Work/Linux/target/STM32MP1-DK2/bootloader/buildroot/optee-os-custom/ta/remoteproc/remoteproc_core.c:245
     33c:	230c      	movs	r3, #12
     33e:	f6cf 73ff 	movt	r3, #65535	; 0xffff
     342:	e008      	b.n	356 <remoteproc_save_fw_header+0x62>
/home/aom1/Work/Linux/target/STM32MP1-DK2/bootloader/buildroot/optee-os-custom/ta/remoteproc/remoteproc_core.c:247
     344:	68fb      	ldr	r3, [r7, #12]
     346:	6858      	ldr	r0, [r3, #4]
     348:	697b      	ldr	r3, [r7, #20]
     34a:	689b      	ldr	r3, [r3, #8]
     34c:	461a      	mov	r2, r3
     34e:	68b9      	ldr	r1, [r7, #8]
     350:	f010 fcef 	bl	10d32 <memcpy>
/home/aom1/Work/Linux/target/STM32MP1-DK2/bootloader/buildroot/optee-os-custom/ta/remoteproc/remoteproc_core.c:249
     354:	2300      	movs	r3, #0
/home/aom1/Work/Linux/target/STM32MP1-DK2/bootloader/buildroot/optee-os-custom/ta/remoteproc/remoteproc_core.c:250
     356:	4618      	mov	r0, r3
     358:	3718      	adds	r7, #24
     35a:	46bd      	mov	sp, r7
     35c:	bd80      	pop	{r7, pc}

0000035e <remoteproc_verify_signature>:
remoteproc_verify_signature():
/home/aom1/Work/Linux/target/STM32MP1-DK2/bootloader/buildroot/optee-os-custom/ta/remoteproc/remoteproc_core.c:253
     35e:	b580      	push	{r7, lr}
     360:	b08a      	sub	sp, #40	; 0x28
     362:	af02      	add	r7, sp, #8
     364:	6078      	str	r0, [r7, #4]
/home/aom1/Work/Linux/target/STM32MP1-DK2/bootloader/buildroot/optee-os-custom/ta/remoteproc/remoteproc_core.c:254
     366:	2300      	movs	r3, #0
     368:	60fb      	str	r3, [r7, #12]
/home/aom1/Work/Linux/target/STM32MP1-DK2/bootloader/buildroot/optee-os-custom/ta/remoteproc/remoteproc_core.c:255
     36a:	687b      	ldr	r3, [r7, #4]
     36c:	685b      	ldr	r3, [r3, #4]
     36e:	61bb      	str	r3, [r7, #24]
/home/aom1/Work/Linux/target/STM32MP1-DK2/bootloader/buildroot/optee-os-custom/ta/remoteproc/remoteproc_core.c:256
     370:	2300      	movs	r3, #0
     372:	617b      	str	r3, [r7, #20]
/home/aom1/Work/Linux/target/STM32MP1-DK2/bootloader/buildroot/optee-os-custom/ta/remoteproc/remoteproc_core.c:257
     374:	2300      	movs	r3, #0
     376:	f6cf 73ff 	movt	r3, #65535	; 0xffff
     37a:	61fb      	str	r3, [r7, #28]
/home/aom1/Work/Linux/target/STM32MP1-DK2/bootloader/buildroot/optee-os-custom/ta/remoteproc/remoteproc_core.c:258
     37c:	2300      	movs	r3, #0
     37e:	613b      	str	r3, [r7, #16]
/home/aom1/Work/Linux/target/STM32MP1-DK2/bootloader/buildroot/optee-os-custom/ta/remoteproc/remoteproc_core.c:259
     380:	2300      	movs	r3, #0
     382:	60bb      	str	r3, [r7, #8]
/home/aom1/Work/Linux/target/STM32MP1-DK2/bootloader/buildroot/optee-os-custom/ta/remoteproc/remoteproc_core.c:261
     384:	69bb      	ldr	r3, [r7, #24]
     386:	695b      	ldr	r3, [r3, #20]
     388:	4618      	mov	r0, r3
     38a:	f7ff ff01 	bl	190 <remoteproc_get_algo>
     38e:	6178      	str	r0, [r7, #20]
/home/aom1/Work/Linux/target/STM32MP1-DK2/bootloader/buildroot/optee-os-custom/ta/remoteproc/remoteproc_core.c:262
     390:	697b      	ldr	r3, [r7, #20]
     392:	2b00      	cmp	r3, #0
     394:	d111      	bne.n	3ba <remoteproc_verify_signature+0x5c>
/home/aom1/Work/Linux/target/STM32MP1-DK2/bootloader/buildroot/optee-os-custom/ta/remoteproc/remoteproc_core.c:263
     396:	69bb      	ldr	r3, [r7, #24]
     398:	695b      	ldr	r3, [r3, #20]
     39a:	9301      	str	r3, [sp, #4]
     39c:	4b28      	ldr	r3, [pc, #160]	; (440 <remoteproc_verify_signature+0xe2>)
     39e:	447b      	add	r3, pc
     3a0:	9300      	str	r3, [sp, #0]
     3a2:	2301      	movs	r3, #1
     3a4:	2201      	movs	r2, #1
     3a6:	f240 1107 	movw	r1, #263	; 0x107
     3aa:	4826      	ldr	r0, [pc, #152]	; (444 <remoteproc_verify_signature+0xe6>)
     3ac:	4478      	add	r0, pc
     3ae:	f001 f8b1 	bl	1514 <trace_printf>
/home/aom1/Work/Linux/target/STM32MP1-DK2/bootloader/buildroot/optee-os-custom/ta/remoteproc/remoteproc_core.c:264
     3b2:	230a      	movs	r3, #10
     3b4:	f6cf 73ff 	movt	r3, #65535	; 0xffff
     3b8:	e03d      	b.n	436 <remoteproc_verify_signature+0xd8>
/home/aom1/Work/Linux/target/STM32MP1-DK2/bootloader/buildroot/optee-os-custom/ta/remoteproc/remoteproc_core.c:268
     3ba:	697b      	ldr	r3, [r7, #20]
     3bc:	689b      	ldr	r3, [r3, #8]
     3be:	60bb      	str	r3, [r7, #8]
/home/aom1/Work/Linux/target/STM32MP1-DK2/bootloader/buildroot/optee-os-custom/ta/remoteproc/remoteproc_core.c:269
     3c0:	68bb      	ldr	r3, [r7, #8]
     3c2:	2100      	movs	r1, #0
     3c4:	4618      	mov	r0, r3
     3c6:	f002 feed 	bl	31a4 <TEE_Malloc>
     3ca:	6138      	str	r0, [r7, #16]
/home/aom1/Work/Linux/target/STM32MP1-DK2/bootloader/buildroot/optee-os-custom/ta/remoteproc/remoteproc_core.c:270
     3cc:	693b      	ldr	r3, [r7, #16]
     3ce:	2b00      	cmp	r3, #0
     3d0:	d103      	bne.n	3da <remoteproc_verify_signature+0x7c>
/home/aom1/Work/Linux/target/STM32MP1-DK2/bootloader/buildroot/optee-os-custom/ta/remoteproc/remoteproc_core.c:271
     3d2:	230c      	movs	r3, #12
     3d4:	f6cf 73ff 	movt	r3, #65535	; 0xffff
     3d8:	e02d      	b.n	436 <remoteproc_verify_signature+0xd8>
/home/aom1/Work/Linux/target/STM32MP1-DK2/bootloader/buildroot/optee-os-custom/ta/remoteproc/remoteproc_core.c:273
     3da:	f107 000c 	add.w	r0, r7, #12
     3de:	2300      	movs	r3, #0
     3e0:	2205      	movs	r2, #5
     3e2:	2104      	movs	r1, #4
     3e4:	f2c5 0100 	movt	r1, #20480	; 0x5000
     3e8:	f003 f8d5 	bl	3596 <TEE_AllocateOperation>
     3ec:	61f8      	str	r0, [r7, #28]
/home/aom1/Work/Linux/target/STM32MP1-DK2/bootloader/buildroot/optee-os-custom/ta/remoteproc/remoteproc_core.c:274
     3ee:	69fb      	ldr	r3, [r7, #28]
     3f0:	2b00      	cmp	r3, #0
     3f2:	d11b      	bne.n	42c <remoteproc_verify_signature+0xce>
/home/aom1/Work/Linux/target/STM32MP1-DK2/bootloader/buildroot/optee-os-custom/ta/remoteproc/remoteproc_core.c:277
     3f4:	68f8      	ldr	r0, [r7, #12]
     3f6:	69bb      	ldr	r3, [r7, #24]
     3f8:	691a      	ldr	r2, [r3, #16]
     3fa:	f107 0308 	add.w	r3, r7, #8
     3fe:	9300      	str	r3, [sp, #0]
     400:	693b      	ldr	r3, [r7, #16]
     402:	69b9      	ldr	r1, [r7, #24]
     404:	f004 fb4a 	bl	4a9c <TEE_DigestDoFinal>
     408:	61f8      	str	r0, [r7, #28]
/home/aom1/Work/Linux/target/STM32MP1-DK2/bootloader/buildroot/optee-os-custom/ta/remoteproc/remoteproc_core.c:278
     40a:	69fb      	ldr	r3, [r7, #28]
     40c:	2b00      	cmp	r3, #0
     40e:	d107      	bne.n	420 <remoteproc_verify_signature+0xc2>
/home/aom1/Work/Linux/target/STM32MP1-DK2/bootloader/buildroot/optee-os-custom/ta/remoteproc/remoteproc_core.c:288
     410:	68bb      	ldr	r3, [r7, #8]
     412:	693a      	ldr	r2, [r7, #16]
     414:	6979      	ldr	r1, [r7, #20]
     416:	6878      	ldr	r0, [r7, #4]
     418:	f7ff fee8 	bl	1ec <remoteproc_pta_verify>
     41c:	61f8      	str	r0, [r7, #28]
     41e:	e000      	b.n	422 <remoteproc_verify_signature+0xc4>
/home/aom1/Work/Linux/target/STM32MP1-DK2/bootloader/buildroot/optee-os-custom/ta/remoteproc/remoteproc_core.c:279
     420:	bf00      	nop
/home/aom1/Work/Linux/target/STM32MP1-DK2/bootloader/buildroot/optee-os-custom/ta/remoteproc/remoteproc_core.c:291
     422:	68fb      	ldr	r3, [r7, #12]
     424:	4618      	mov	r0, r3
     426:	f003 ff64 	bl	42f2 <TEE_FreeOperation>
     42a:	e000      	b.n	42e <remoteproc_verify_signature+0xd0>
/home/aom1/Work/Linux/target/STM32MP1-DK2/bootloader/buildroot/optee-os-custom/ta/remoteproc/remoteproc_core.c:275
     42c:	bf00      	nop
/home/aom1/Work/Linux/target/STM32MP1-DK2/bootloader/buildroot/optee-os-custom/ta/remoteproc/remoteproc_core.c:293
     42e:	6938      	ldr	r0, [r7, #16]
     430:	f002 ff09 	bl	3246 <TEE_Free>
/home/aom1/Work/Linux/target/STM32MP1-DK2/bootloader/buildroot/optee-os-custom/ta/remoteproc/remoteproc_core.c:295
     434:	69fb      	ldr	r3, [r7, #28]
/home/aom1/Work/Linux/target/STM32MP1-DK2/bootloader/buildroot/optee-os-custom/ta/remoteproc/remoteproc_core.c:296 (discriminator 1)
     436:	4618      	mov	r0, r3
     438:	3720      	adds	r7, #32
     43a:	46bd      	mov	sp, r7
     43c:	bd80      	pop	{r7, pc}
     43e:	bf00      	nop
     440:	0001208a 	.word	0x0001208a
     444:	00012174 	.word	0x00012174

00000448 <remoteproc_verify_header>:
remoteproc_verify_header():
/home/aom1/Work/Linux/target/STM32MP1-DK2/bootloader/buildroot/optee-os-custom/ta/remoteproc/remoteproc_core.c:299
     448:	b580      	push	{r7, lr}
     44a:	b086      	sub	sp, #24
     44c:	af00      	add	r7, sp, #0
     44e:	6078      	str	r0, [r7, #4]
/home/aom1/Work/Linux/target/STM32MP1-DK2/bootloader/buildroot/optee-os-custom/ta/remoteproc/remoteproc_core.c:300
     450:	687b      	ldr	r3, [r7, #4]
     452:	685b      	ldr	r3, [r3, #4]
     454:	617b      	str	r3, [r7, #20]
/home/aom1/Work/Linux/target/STM32MP1-DK2/bootloader/buildroot/optee-os-custom/ta/remoteproc/remoteproc_core.c:301
     456:	2300      	movs	r3, #0
     458:	60fb      	str	r3, [r7, #12]
/home/aom1/Work/Linux/target/STM32MP1-DK2/bootloader/buildroot/optee-os-custom/ta/remoteproc/remoteproc_core.c:302
     45a:	2300      	movs	r3, #0
     45c:	60bb      	str	r3, [r7, #8]
/home/aom1/Work/Linux/target/STM32MP1-DK2/bootloader/buildroot/optee-os-custom/ta/remoteproc/remoteproc_core.c:303
     45e:	2300      	movs	r3, #0
     460:	613b      	str	r3, [r7, #16]
/home/aom1/Work/Linux/target/STM32MP1-DK2/bootloader/buildroot/optee-os-custom/ta/remoteproc/remoteproc_core.c:305
     462:	697b      	ldr	r3, [r7, #20]
     464:	681a      	ldr	r2, [r3, #0]
     466:	f24a 4368 	movw	r3, #42088	; 0xa468
     46a:	f2c3 5343 	movt	r3, #13635	; 0x3543
     46e:	429a      	cmp	r2, r3
     470:	d003      	beq.n	47a <remoteproc_verify_header+0x32>
/home/aom1/Work/Linux/target/STM32MP1-DK2/bootloader/buildroot/optee-os-custom/ta/remoteproc/remoteproc_core.c:306
     472:	2301      	movs	r3, #1
     474:	f2cf 0310 	movt	r3, #61456	; 0xf010
     478:	e0a1      	b.n	5be <remoteproc_verify_header+0x176>
/home/aom1/Work/Linux/target/STM32MP1-DK2/bootloader/buildroot/optee-os-custom/ta/remoteproc/remoteproc_core.c:308
     47a:	697b      	ldr	r3, [r7, #20]
     47c:	685b      	ldr	r3, [r3, #4]
     47e:	2b01      	cmp	r3, #1
     480:	d003      	beq.n	48a <remoteproc_verify_header+0x42>
/home/aom1/Work/Linux/target/STM32MP1-DK2/bootloader/buildroot/optee-os-custom/ta/remoteproc/remoteproc_core.c:309
     482:	2301      	movs	r3, #1
     484:	f2cf 0310 	movt	r3, #61456	; 0xf010
     488:	e099      	b.n	5be <remoteproc_verify_header+0x176>
/home/aom1/Work/Linux/target/STM32MP1-DK2/bootloader/buildroot/optee-os-custom/ta/remoteproc/remoteproc_core.c:316
     48a:	697b      	ldr	r3, [r7, #20]
     48c:	68db      	ldr	r3, [r3, #12]
     48e:	f003 0207 	and.w	r2, r3, #7
/home/aom1/Work/Linux/target/STM32MP1-DK2/bootloader/buildroot/optee-os-custom/ta/remoteproc/remoteproc_core.c:317
     492:	697b      	ldr	r3, [r7, #20]
     494:	699b      	ldr	r3, [r3, #24]
     496:	f003 0307 	and.w	r3, r3, #7
/home/aom1/Work/Linux/target/STM32MP1-DK2/bootloader/buildroot/optee-os-custom/ta/remoteproc/remoteproc_core.c:316
     49a:	441a      	add	r2, r3
/home/aom1/Work/Linux/target/STM32MP1-DK2/bootloader/buildroot/optee-os-custom/ta/remoteproc/remoteproc_core.c:318
     49c:	697b      	ldr	r3, [r7, #20]
     49e:	6a5b      	ldr	r3, [r3, #36]	; 0x24
     4a0:	f003 0307 	and.w	r3, r3, #7
/home/aom1/Work/Linux/target/STM32MP1-DK2/bootloader/buildroot/optee-os-custom/ta/remoteproc/remoteproc_core.c:316
     4a4:	4413      	add	r3, r2
     4a6:	613b      	str	r3, [r7, #16]
/home/aom1/Work/Linux/target/STM32MP1-DK2/bootloader/buildroot/optee-os-custom/ta/remoteproc/remoteproc_core.c:320
     4a8:	697b      	ldr	r3, [r7, #20]
     4aa:	68da      	ldr	r2, [r3, #12]
     4ac:	2100      	movs	r1, #0
     4ae:	2338      	movs	r3, #56	; 0x38
     4b0:	189b      	adds	r3, r3, r2
     4b2:	d300      	bcc.n	4b6 <remoteproc_verify_header+0x6e>
     4b4:	2101      	movs	r1, #1
     4b6:	60fb      	str	r3, [r7, #12]
     4b8:	460b      	mov	r3, r1
     4ba:	f003 0301 	and.w	r3, r3, #1
     4be:	b2db      	uxtb	r3, r3
     4c0:	2b00      	cmp	r3, #0
     4c2:	d12d      	bne.n	520 <remoteproc_verify_header+0xd8>
/home/aom1/Work/Linux/target/STM32MP1-DK2/bootloader/buildroot/optee-os-custom/ta/remoteproc/remoteproc_core.c:321 (discriminator 1)
     4c4:	68fb      	ldr	r3, [r7, #12]
     4c6:	697a      	ldr	r2, [r7, #20]
     4c8:	6992      	ldr	r2, [r2, #24]
     4ca:	2100      	movs	r1, #0
     4cc:	189b      	adds	r3, r3, r2
     4ce:	d300      	bcc.n	4d2 <remoteproc_verify_header+0x8a>
     4d0:	2101      	movs	r1, #1
     4d2:	60fb      	str	r3, [r7, #12]
     4d4:	460b      	mov	r3, r1
     4d6:	f003 0301 	and.w	r3, r3, #1
     4da:	b2db      	uxtb	r3, r3
/home/aom1/Work/Linux/target/STM32MP1-DK2/bootloader/buildroot/optee-os-custom/ta/remoteproc/remoteproc_core.c:320 (discriminator 1)
     4dc:	2b00      	cmp	r3, #0
     4de:	d11f      	bne.n	520 <remoteproc_verify_header+0xd8>
/home/aom1/Work/Linux/target/STM32MP1-DK2/bootloader/buildroot/optee-os-custom/ta/remoteproc/remoteproc_core.c:322
     4e0:	68fb      	ldr	r3, [r7, #12]
     4e2:	697a      	ldr	r2, [r7, #20]
     4e4:	6a52      	ldr	r2, [r2, #36]	; 0x24
     4e6:	2100      	movs	r1, #0
     4e8:	189b      	adds	r3, r3, r2
     4ea:	d300      	bcc.n	4ee <remoteproc_verify_header+0xa6>
     4ec:	2101      	movs	r1, #1
     4ee:	60fb      	str	r3, [r7, #12]
     4f0:	460b      	mov	r3, r1
     4f2:	f003 0301 	and.w	r3, r3, #1
     4f6:	b2db      	uxtb	r3, r3
/home/aom1/Work/Linux/target/STM32MP1-DK2/bootloader/buildroot/optee-os-custom/ta/remoteproc/remoteproc_core.c:321
     4f8:	2b00      	cmp	r3, #0
     4fa:	d111      	bne.n	520 <remoteproc_verify_header+0xd8>
/home/aom1/Work/Linux/target/STM32MP1-DK2/bootloader/buildroot/optee-os-custom/ta/remoteproc/remoteproc_core.c:323
     4fc:	68fb      	ldr	r3, [r7, #12]
     4fe:	2100      	movs	r1, #0
     500:	693a      	ldr	r2, [r7, #16]
     502:	189b      	adds	r3, r3, r2
     504:	d300      	bcc.n	508 <remoteproc_verify_header+0xc0>
     506:	2101      	movs	r1, #1
     508:	60fb      	str	r3, [r7, #12]
     50a:	460b      	mov	r3, r1
     50c:	f003 0301 	and.w	r3, r3, #1
     510:	b2db      	uxtb	r3, r3
/home/aom1/Work/Linux/target/STM32MP1-DK2/bootloader/buildroot/optee-os-custom/ta/remoteproc/remoteproc_core.c:322
     512:	2b00      	cmp	r3, #0
     514:	d104      	bne.n	520 <remoteproc_verify_header+0xd8>
/home/aom1/Work/Linux/target/STM32MP1-DK2/bootloader/buildroot/optee-os-custom/ta/remoteproc/remoteproc_core.c:324
     516:	697b      	ldr	r3, [r7, #20]
     518:	689a      	ldr	r2, [r3, #8]
     51a:	68fb      	ldr	r3, [r7, #12]
/home/aom1/Work/Linux/target/STM32MP1-DK2/bootloader/buildroot/optee-os-custom/ta/remoteproc/remoteproc_core.c:323
     51c:	429a      	cmp	r2, r3
     51e:	d003      	beq.n	528 <remoteproc_verify_header+0xe0>
/home/aom1/Work/Linux/target/STM32MP1-DK2/bootloader/buildroot/optee-os-custom/ta/remoteproc/remoteproc_core.c:325
     520:	2301      	movs	r3, #1
     522:	f2cf 0310 	movt	r3, #61456	; 0xf010
     526:	e04a      	b.n	5be <remoteproc_verify_header+0x176>
/home/aom1/Work/Linux/target/STM32MP1-DK2/bootloader/buildroot/optee-os-custom/ta/remoteproc/remoteproc_core.c:327
     528:	697b      	ldr	r3, [r7, #20]
     52a:	691b      	ldr	r3, [r3, #16]
     52c:	697a      	ldr	r2, [r7, #20]
     52e:	68d2      	ldr	r2, [r2, #12]
     530:	2100      	movs	r1, #0
     532:	189b      	adds	r3, r3, r2
     534:	d300      	bcc.n	538 <remoteproc_verify_header+0xf0>
     536:	2101      	movs	r1, #1
     538:	60bb      	str	r3, [r7, #8]
     53a:	460b      	mov	r3, r1
     53c:	f003 0301 	and.w	r3, r3, #1
     540:	b2db      	uxtb	r3, r3
     542:	2b00      	cmp	r3, #0
     544:	d129      	bne.n	59a <remoteproc_verify_header+0x152>
/home/aom1/Work/Linux/target/STM32MP1-DK2/bootloader/buildroot/optee-os-custom/ta/remoteproc/remoteproc_core.c:328 (discriminator 1)
     546:	68ba      	ldr	r2, [r7, #8]
     548:	68fb      	ldr	r3, [r7, #12]
/home/aom1/Work/Linux/target/STM32MP1-DK2/bootloader/buildroot/optee-os-custom/ta/remoteproc/remoteproc_core.c:327 (discriminator 1)
     54a:	429a      	cmp	r2, r3
     54c:	d825      	bhi.n	59a <remoteproc_verify_header+0x152>
/home/aom1/Work/Linux/target/STM32MP1-DK2/bootloader/buildroot/optee-os-custom/ta/remoteproc/remoteproc_core.c:329
     54e:	697b      	ldr	r3, [r7, #20]
     550:	6a9b      	ldr	r3, [r3, #40]	; 0x28
     552:	697a      	ldr	r2, [r7, #20]
     554:	6a52      	ldr	r2, [r2, #36]	; 0x24
     556:	2100      	movs	r1, #0
     558:	189b      	adds	r3, r3, r2
     55a:	d300      	bcc.n	55e <remoteproc_verify_header+0x116>
     55c:	2101      	movs	r1, #1
     55e:	60bb      	str	r3, [r7, #8]
     560:	460b      	mov	r3, r1
     562:	f003 0301 	and.w	r3, r3, #1
     566:	b2db      	uxtb	r3, r3
/home/aom1/Work/Linux/target/STM32MP1-DK2/bootloader/buildroot/optee-os-custom/ta/remoteproc/remoteproc_core.c:328
     568:	2b00      	cmp	r3, #0
     56a:	d116      	bne.n	59a <remoteproc_verify_header+0x152>
/home/aom1/Work/Linux/target/STM32MP1-DK2/bootloader/buildroot/optee-os-custom/ta/remoteproc/remoteproc_core.c:330
     56c:	68ba      	ldr	r2, [r7, #8]
     56e:	68fb      	ldr	r3, [r7, #12]
/home/aom1/Work/Linux/target/STM32MP1-DK2/bootloader/buildroot/optee-os-custom/ta/remoteproc/remoteproc_core.c:329
     570:	429a      	cmp	r2, r3
     572:	d812      	bhi.n	59a <remoteproc_verify_header+0x152>
/home/aom1/Work/Linux/target/STM32MP1-DK2/bootloader/buildroot/optee-os-custom/ta/remoteproc/remoteproc_core.c:331
     574:	697b      	ldr	r3, [r7, #20]
     576:	69db      	ldr	r3, [r3, #28]
     578:	697a      	ldr	r2, [r7, #20]
     57a:	6992      	ldr	r2, [r2, #24]
     57c:	2100      	movs	r1, #0
     57e:	189b      	adds	r3, r3, r2
     580:	d300      	bcc.n	584 <remoteproc_verify_header+0x13c>
     582:	2101      	movs	r1, #1
     584:	60bb      	str	r3, [r7, #8]
     586:	460b      	mov	r3, r1
     588:	f003 0301 	and.w	r3, r3, #1
     58c:	b2db      	uxtb	r3, r3
/home/aom1/Work/Linux/target/STM32MP1-DK2/bootloader/buildroot/optee-os-custom/ta/remoteproc/remoteproc_core.c:330
     58e:	2b00      	cmp	r3, #0
     590:	d103      	bne.n	59a <remoteproc_verify_header+0x152>
/home/aom1/Work/Linux/target/STM32MP1-DK2/bootloader/buildroot/optee-os-custom/ta/remoteproc/remoteproc_core.c:332
     592:	68ba      	ldr	r2, [r7, #8]
     594:	68fb      	ldr	r3, [r7, #12]
/home/aom1/Work/Linux/target/STM32MP1-DK2/bootloader/buildroot/optee-os-custom/ta/remoteproc/remoteproc_core.c:331
     596:	429a      	cmp	r2, r3
     598:	d903      	bls.n	5a2 <remoteproc_verify_header+0x15a>
/home/aom1/Work/Linux/target/STM32MP1-DK2/bootloader/buildroot/optee-os-custom/ta/remoteproc/remoteproc_core.c:333
     59a:	2301      	movs	r3, #1
     59c:	f2cf 0310 	movt	r3, #61456	; 0xf010
     5a0:	e00d      	b.n	5be <remoteproc_verify_header+0x176>
/home/aom1/Work/Linux/target/STM32MP1-DK2/bootloader/buildroot/optee-os-custom/ta/remoteproc/remoteproc_core.c:335
     5a2:	697b      	ldr	r3, [r7, #20]
     5a4:	699b      	ldr	r3, [r3, #24]
     5a6:	f003 033f 	and.w	r3, r3, #63	; 0x3f
     5aa:	2b00      	cmp	r3, #0
     5ac:	d003      	beq.n	5b6 <remoteproc_verify_header+0x16e>
/home/aom1/Work/Linux/target/STM32MP1-DK2/bootloader/buildroot/optee-os-custom/ta/remoteproc/remoteproc_core.c:336
     5ae:	2301      	movs	r3, #1
     5b0:	f2cf 0310 	movt	r3, #61456	; 0xf010
     5b4:	e003      	b.n	5be <remoteproc_verify_header+0x176>
/home/aom1/Work/Linux/target/STM32MP1-DK2/bootloader/buildroot/optee-os-custom/ta/remoteproc/remoteproc_core.c:338
     5b6:	6878      	ldr	r0, [r7, #4]
     5b8:	f7ff fed1 	bl	35e <remoteproc_verify_signature>
     5bc:	4603      	mov	r3, r0
/home/aom1/Work/Linux/target/STM32MP1-DK2/bootloader/buildroot/optee-os-custom/ta/remoteproc/remoteproc_core.c:339 (discriminator 1)
     5be:	4618      	mov	r0, r3
     5c0:	3718      	adds	r7, #24
     5c2:	46bd      	mov	sp, r7
     5c4:	bd80      	pop	{r7, pc}

000005c6 <get_rproc_pta_capabilities>:
get_rproc_pta_capabilities():
/home/aom1/Work/Linux/target/STM32MP1-DK2/bootloader/buildroot/optee-os-custom/ta/remoteproc/remoteproc_core.c:342
     5c6:	b580      	push	{r7, lr}
     5c8:	b08e      	sub	sp, #56	; 0x38
     5ca:	af02      	add	r7, sp, #8
     5cc:	6078      	str	r0, [r7, #4]
/home/aom1/Work/Linux/target/STM32MP1-DK2/bootloader/buildroot/optee-os-custom/ta/remoteproc/remoteproc_core.c:343
     5ce:	f240 2321 	movw	r3, #545	; 0x221
     5d2:	62fb      	str	r3, [r7, #44]	; 0x2c
/home/aom1/Work/Linux/target/STM32MP1-DK2/bootloader/buildroot/optee-os-custom/ta/remoteproc/remoteproc_core.c:347
     5d4:	f107 0308 	add.w	r3, r7, #8
     5d8:	efc0 0010 	vmov.i32	d16, #0	; 0x00000000
     5dc:	edc3 0b00 	vstr	d16, [r3]
     5e0:	edc3 0b02 	vstr	d16, [r3, #8]
     5e4:	edc3 0b04 	vstr	d16, [r3, #16]
     5e8:	edc3 0b06 	vstr	d16, [r3, #24]
/home/aom1/Work/Linux/target/STM32MP1-DK2/bootloader/buildroot/optee-os-custom/ta/remoteproc/remoteproc_core.c:348
     5ec:	2300      	movs	r3, #0
     5ee:	f6cf 73ff 	movt	r3, #65535	; 0xffff
     5f2:	62bb      	str	r3, [r7, #40]	; 0x28
/home/aom1/Work/Linux/target/STM32MP1-DK2/bootloader/buildroot/optee-os-custom/ta/remoteproc/remoteproc_core.c:350
     5f4:	687b      	ldr	r3, [r7, #4]
     5f6:	681b      	ldr	r3, [r3, #0]
     5f8:	60bb      	str	r3, [r7, #8]
/home/aom1/Work/Linux/target/STM32MP1-DK2/bootloader/buildroot/optee-os-custom/ta/remoteproc/remoteproc_core.c:352
     5fa:	4b0f      	ldr	r3, [pc, #60]	; (638 <get_rproc_pta_capabilities+0x72>)
     5fc:	447b      	add	r3, pc
     5fe:	6818      	ldr	r0, [r3, #0]
     600:	2300      	movs	r3, #0
     602:	9301      	str	r3, [sp, #4]
     604:	f107 0308 	add.w	r3, r7, #8
     608:	9300      	str	r3, [sp, #0]
     60a:	6afb      	ldr	r3, [r7, #44]	; 0x2c
     60c:	2201      	movs	r2, #1
     60e:	f04f 31ff 	mov.w	r1, #4294967295	; 0xffffffff
     612:	f002 fbf0 	bl	2df6 <TEE_InvokeTACommand>
     616:	62b8      	str	r0, [r7, #40]	; 0x28
/home/aom1/Work/Linux/target/STM32MP1-DK2/bootloader/buildroot/optee-os-custom/ta/remoteproc/remoteproc_core.c:355
     618:	6abb      	ldr	r3, [r7, #40]	; 0x28
     61a:	2b00      	cmp	r3, #0
     61c:	d001      	beq.n	622 <get_rproc_pta_capabilities+0x5c>
/home/aom1/Work/Linux/target/STM32MP1-DK2/bootloader/buildroot/optee-os-custom/ta/remoteproc/remoteproc_core.c:356
     61e:	6abb      	ldr	r3, [r7, #40]	; 0x28
     620:	e006      	b.n	630 <get_rproc_pta_capabilities+0x6a>
/home/aom1/Work/Linux/target/STM32MP1-DK2/bootloader/buildroot/optee-os-custom/ta/remoteproc/remoteproc_core.c:358
     622:	693a      	ldr	r2, [r7, #16]
     624:	687b      	ldr	r3, [r7, #4]
     626:	61da      	str	r2, [r3, #28]
/home/aom1/Work/Linux/target/STM32MP1-DK2/bootloader/buildroot/optee-os-custom/ta/remoteproc/remoteproc_core.c:359
     628:	69ba      	ldr	r2, [r7, #24]
     62a:	687b      	ldr	r3, [r7, #4]
     62c:	621a      	str	r2, [r3, #32]
/home/aom1/Work/Linux/target/STM32MP1-DK2/bootloader/buildroot/optee-os-custom/ta/remoteproc/remoteproc_core.c:361
     62e:	2300      	movs	r3, #0
/home/aom1/Work/Linux/target/STM32MP1-DK2/bootloader/buildroot/optee-os-custom/ta/remoteproc/remoteproc_core.c:362 (discriminator 1)
     630:	4618      	mov	r0, r3
     632:	3730      	adds	r7, #48	; 0x30
     634:	46bd      	mov	sp, r7
     636:	bd80      	pop	{r7, pc}
     638:	00013cbc 	.word	0x00013cbc

0000063c <remoteproc_verify_firmware>:
remoteproc_verify_firmware():
/home/aom1/Work/Linux/target/STM32MP1-DK2/bootloader/buildroot/optee-os-custom/ta/remoteproc/remoteproc_core.c:367
     63c:	b580      	push	{r7, lr}
     63e:	b086      	sub	sp, #24
     640:	af00      	add	r7, sp, #0
     642:	60f8      	str	r0, [r7, #12]
     644:	60b9      	str	r1, [r7, #8]
     646:	607a      	str	r2, [r7, #4]
/home/aom1/Work/Linux/target/STM32MP1-DK2/bootloader/buildroot/optee-os-custom/ta/remoteproc/remoteproc_core.c:368
     648:	2300      	movs	r3, #0
     64a:	617b      	str	r3, [r7, #20]
/home/aom1/Work/Linux/target/STM32MP1-DK2/bootloader/buildroot/optee-os-custom/ta/remoteproc/remoteproc_core.c:369
     64c:	2300      	movs	r3, #0
     64e:	f6cf 73ff 	movt	r3, #65535	; 0xffff
     652:	613b      	str	r3, [r7, #16]
/home/aom1/Work/Linux/target/STM32MP1-DK2/bootloader/buildroot/optee-os-custom/ta/remoteproc/remoteproc_core.c:371
     654:	68f8      	ldr	r0, [r7, #12]
     656:	f7ff ffb6 	bl	5c6 <get_rproc_pta_capabilities>
     65a:	6138      	str	r0, [r7, #16]
/home/aom1/Work/Linux/target/STM32MP1-DK2/bootloader/buildroot/optee-os-custom/ta/remoteproc/remoteproc_core.c:372
     65c:	693b      	ldr	r3, [r7, #16]
     65e:	2b00      	cmp	r3, #0
     660:	d001      	beq.n	666 <remoteproc_verify_firmware+0x2a>
/home/aom1/Work/Linux/target/STM32MP1-DK2/bootloader/buildroot/optee-os-custom/ta/remoteproc/remoteproc_core.c:373
     662:	693b      	ldr	r3, [r7, #16]
     664:	e034      	b.n	6d0 <remoteproc_verify_firmware+0x94>
/home/aom1/Work/Linux/target/STM32MP1-DK2/bootloader/buildroot/optee-os-custom/ta/remoteproc/remoteproc_core.c:376
     666:	68fb      	ldr	r3, [r7, #12]
     668:	6a1b      	ldr	r3, [r3, #32]
     66a:	f003 0302 	and.w	r3, r3, #2
     66e:	2b00      	cmp	r3, #0
     670:	d003      	beq.n	67a <remoteproc_verify_firmware+0x3e>
/home/aom1/Work/Linux/target/STM32MP1-DK2/bootloader/buildroot/optee-os-custom/ta/remoteproc/remoteproc_core.c:377 (discriminator 1)
     672:	68fb      	ldr	r3, [r7, #12]
     674:	69db      	ldr	r3, [r3, #28]
/home/aom1/Work/Linux/target/STM32MP1-DK2/bootloader/buildroot/optee-os-custom/ta/remoteproc/remoteproc_core.c:376 (discriminator 1)
     676:	2b02      	cmp	r3, #2
     678:	d003      	beq.n	682 <remoteproc_verify_firmware+0x46>
/home/aom1/Work/Linux/target/STM32MP1-DK2/bootloader/buildroot/optee-os-custom/ta/remoteproc/remoteproc_core.c:382
     67a:	2309      	movs	r3, #9
     67c:	f6cf 73ff 	movt	r3, #65535	; 0xffff
     680:	e026      	b.n	6d0 <remoteproc_verify_firmware+0x94>
/home/aom1/Work/Linux/target/STM32MP1-DK2/bootloader/buildroot/optee-os-custom/ta/remoteproc/remoteproc_core.c:385
     682:	687a      	ldr	r2, [r7, #4]
     684:	68b9      	ldr	r1, [r7, #8]
     686:	68f8      	ldr	r0, [r7, #12]
     688:	f7ff fe34 	bl	2f4 <remoteproc_save_fw_header>
     68c:	6138      	str	r0, [r7, #16]
/home/aom1/Work/Linux/target/STM32MP1-DK2/bootloader/buildroot/optee-os-custom/ta/remoteproc/remoteproc_core.c:386
     68e:	693b      	ldr	r3, [r7, #16]
     690:	2b00      	cmp	r3, #0
     692:	d001      	beq.n	698 <remoteproc_verify_firmware+0x5c>
/home/aom1/Work/Linux/target/STM32MP1-DK2/bootloader/buildroot/optee-os-custom/ta/remoteproc/remoteproc_core.c:387
     694:	693b      	ldr	r3, [r7, #16]
     696:	e01b      	b.n	6d0 <remoteproc_verify_firmware+0x94>
/home/aom1/Work/Linux/target/STM32MP1-DK2/bootloader/buildroot/optee-os-custom/ta/remoteproc/remoteproc_core.c:389
     698:	68f8      	ldr	r0, [r7, #12]
     69a:	f7ff fed5 	bl	448 <remoteproc_verify_header>
     69e:	6138      	str	r0, [r7, #16]
/home/aom1/Work/Linux/target/STM32MP1-DK2/bootloader/buildroot/optee-os-custom/ta/remoteproc/remoteproc_core.c:390
     6a0:	693b      	ldr	r3, [r7, #16]
     6a2:	2b00      	cmp	r3, #0
     6a4:	d10d      	bne.n	6c2 <remoteproc_verify_firmware+0x86>
/home/aom1/Work/Linux/target/STM32MP1-DK2/bootloader/buildroot/optee-os-custom/ta/remoteproc/remoteproc_core.c:394
     6a6:	68fb      	ldr	r3, [r7, #12]
     6a8:	685b      	ldr	r3, [r3, #4]
     6aa:	617b      	str	r3, [r7, #20]
/home/aom1/Work/Linux/target/STM32MP1-DK2/bootloader/buildroot/optee-os-custom/ta/remoteproc/remoteproc_core.c:395
     6ac:	697b      	ldr	r3, [r7, #20]
     6ae:	6ada      	ldr	r2, [r3, #44]	; 0x2c
     6b0:	68fb      	ldr	r3, [r7, #12]
     6b2:	60da      	str	r2, [r3, #12]
/home/aom1/Work/Linux/target/STM32MP1-DK2/bootloader/buildroot/optee-os-custom/ta/remoteproc/remoteproc_core.c:396
     6b4:	697b      	ldr	r3, [r7, #20]
     6b6:	6b1b      	ldr	r3, [r3, #48]	; 0x30
     6b8:	68ba      	ldr	r2, [r7, #8]
     6ba:	441a      	add	r2, r3
     6bc:	68fb      	ldr	r3, [r7, #12]
     6be:	609a      	str	r2, [r3, #8]
     6c0:	e000      	b.n	6c4 <remoteproc_verify_firmware+0x88>
/home/aom1/Work/Linux/target/STM32MP1-DK2/bootloader/buildroot/optee-os-custom/ta/remoteproc/remoteproc_core.c:391
     6c2:	bf00      	nop
/home/aom1/Work/Linux/target/STM32MP1-DK2/bootloader/buildroot/optee-os-custom/ta/remoteproc/remoteproc_core.c:402
     6c4:	68fb      	ldr	r3, [r7, #12]
     6c6:	685b      	ldr	r3, [r3, #4]
     6c8:	4618      	mov	r0, r3
     6ca:	f002 fdbc 	bl	3246 <TEE_Free>
/home/aom1/Work/Linux/target/STM32MP1-DK2/bootloader/buildroot/optee-os-custom/ta/remoteproc/remoteproc_core.c:404
     6ce:	693b      	ldr	r3, [r7, #16]
/home/aom1/Work/Linux/target/STM32MP1-DK2/bootloader/buildroot/optee-os-custom/ta/remoteproc/remoteproc_core.c:405
     6d0:	4618      	mov	r0, r3
     6d2:	3718      	adds	r7, #24
     6d4:	46bd      	mov	sp, r7
     6d6:	bd80      	pop	{r7, pc}

000006d8 <remoteproc_da_to_pa>:
remoteproc_da_to_pa():
/home/aom1/Work/Linux/target/STM32MP1-DK2/bootloader/buildroot/optee-os-custom/ta/remoteproc/remoteproc_core.c:408
     6d8:	b580      	push	{r7, lr}
     6da:	b092      	sub	sp, #72	; 0x48
     6dc:	af02      	add	r7, sp, #8
     6de:	60f8      	str	r0, [r7, #12]
     6e0:	60b9      	str	r1, [r7, #8]
     6e2:	607a      	str	r2, [r7, #4]
/home/aom1/Work/Linux/target/STM32MP1-DK2/bootloader/buildroot/optee-os-custom/ta/remoteproc/remoteproc_core.c:409
     6e4:	687b      	ldr	r3, [r7, #4]
     6e6:	63fb      	str	r3, [r7, #60]	; 0x3c
/home/aom1/Work/Linux/target/STM32MP1-DK2/bootloader/buildroot/optee-os-custom/ta/remoteproc/remoteproc_core.c:410
     6e8:	f242 1311 	movw	r3, #8465	; 0x2111
     6ec:	63bb      	str	r3, [r7, #56]	; 0x38
/home/aom1/Work/Linux/target/STM32MP1-DK2/bootloader/buildroot/optee-os-custom/ta/remoteproc/remoteproc_core.c:414
     6ee:	f107 0314 	add.w	r3, r7, #20
     6f2:	efc0 0010 	vmov.i32	d16, #0	; 0x00000000
     6f6:	edc3 0b00 	vstr	d16, [r3]
     6fa:	edc3 0b02 	vstr	d16, [r3, #8]
     6fe:	edc3 0b04 	vstr	d16, [r3, #16]
     702:	edc3 0b06 	vstr	d16, [r3, #24]
/home/aom1/Work/Linux/target/STM32MP1-DK2/bootloader/buildroot/optee-os-custom/ta/remoteproc/remoteproc_core.c:415
     706:	2300      	movs	r3, #0
     708:	f6cf 73ff 	movt	r3, #65535	; 0xffff
     70c:	637b      	str	r3, [r7, #52]	; 0x34
/home/aom1/Work/Linux/target/STM32MP1-DK2/bootloader/buildroot/optee-os-custom/ta/remoteproc/remoteproc_core.c:417
     70e:	6bfb      	ldr	r3, [r7, #60]	; 0x3c
     710:	681b      	ldr	r3, [r3, #0]
     712:	617b      	str	r3, [r7, #20]
/home/aom1/Work/Linux/target/STM32MP1-DK2/bootloader/buildroot/optee-os-custom/ta/remoteproc/remoteproc_core.c:418
     714:	68fb      	ldr	r3, [r7, #12]
     716:	61fb      	str	r3, [r7, #28]
/home/aom1/Work/Linux/target/STM32MP1-DK2/bootloader/buildroot/optee-os-custom/ta/remoteproc/remoteproc_core.c:419
     718:	68bb      	ldr	r3, [r7, #8]
     71a:	627b      	str	r3, [r7, #36]	; 0x24
/home/aom1/Work/Linux/target/STM32MP1-DK2/bootloader/buildroot/optee-os-custom/ta/remoteproc/remoteproc_core.c:421
     71c:	4b16      	ldr	r3, [pc, #88]	; (778 <remoteproc_da_to_pa+0xa0>)
     71e:	447b      	add	r3, pc
     720:	6818      	ldr	r0, [r3, #0]
     722:	2300      	movs	r3, #0
     724:	9301      	str	r3, [sp, #4]
     726:	f107 0314 	add.w	r3, r7, #20
     72a:	9300      	str	r3, [sp, #0]
     72c:	6bbb      	ldr	r3, [r7, #56]	; 0x38
     72e:	2207      	movs	r2, #7
     730:	f04f 31ff 	mov.w	r1, #4294967295	; 0xffffffff
     734:	f002 fb5f 	bl	2df6 <TEE_InvokeTACommand>
     738:	6378      	str	r0, [r7, #52]	; 0x34
/home/aom1/Work/Linux/target/STM32MP1-DK2/bootloader/buildroot/optee-os-custom/ta/remoteproc/remoteproc_core.c:424
     73a:	6b7b      	ldr	r3, [r7, #52]	; 0x34
     73c:	2b00      	cmp	r3, #0
     73e:	d00e      	beq.n	75e <remoteproc_da_to_pa+0x86>
/home/aom1/Work/Linux/target/STM32MP1-DK2/bootloader/buildroot/optee-os-custom/ta/remoteproc/remoteproc_core.c:425
     740:	68fb      	ldr	r3, [r7, #12]
     742:	9301      	str	r3, [sp, #4]
     744:	4b0d      	ldr	r3, [pc, #52]	; (77c <remoteproc_da_to_pa+0xa4>)
     746:	447b      	add	r3, pc
     748:	9300      	str	r3, [sp, #0]
     74a:	2301      	movs	r3, #1
     74c:	2201      	movs	r2, #1
     74e:	f240 11a9 	movw	r1, #425	; 0x1a9
     752:	480b      	ldr	r0, [pc, #44]	; (780 <remoteproc_da_to_pa+0xa8>)
     754:	4478      	add	r0, pc
     756:	f000 fedd 	bl	1514 <trace_printf>
/home/aom1/Work/Linux/target/STM32MP1-DK2/bootloader/buildroot/optee-os-custom/ta/remoteproc/remoteproc_core.c:426
     75a:	2300      	movs	r3, #0
     75c:	e008      	b.n	770 <remoteproc_da_to_pa+0x98>
/home/aom1/Work/Linux/target/STM32MP1-DK2/bootloader/buildroot/optee-os-custom/ta/remoteproc/remoteproc_core.c:429
     75e:	6b3b      	ldr	r3, [r7, #48]	; 0x30
     760:	6afa      	ldr	r2, [r7, #44]	; 0x2c
     762:	4611      	mov	r1, r2
     764:	4618      	mov	r0, r3
     766:	f7ff fc5b 	bl	20 <reg_pair_to_64>
     76a:	4602      	mov	r2, r0
     76c:	460b      	mov	r3, r1
     76e:	4613      	mov	r3, r2
/home/aom1/Work/Linux/target/STM32MP1-DK2/bootloader/buildroot/optee-os-custom/ta/remoteproc/remoteproc_core.c:430 (discriminator 1)
     770:	4618      	mov	r0, r3
     772:	3740      	adds	r7, #64	; 0x40
     774:	46bd      	mov	sp, r7
     776:	bd80      	pop	{r7, pc}
     778:	00013b9a 	.word	0x00013b9a
     77c:	00011d02 	.word	0x00011d02
     780:	00011de8 	.word	0x00011de8

00000784 <remoteproc_parse_rsc_table>:
remoteproc_parse_rsc_table():
/home/aom1/Work/Linux/target/STM32MP1-DK2/bootloader/buildroot/optee-os-custom/ta/remoteproc/remoteproc_core.c:433
     784:	b580      	push	{r7, lr}
     786:	b084      	sub	sp, #16
     788:	af00      	add	r7, sp, #0
     78a:	6078      	str	r0, [r7, #4]
/home/aom1/Work/Linux/target/STM32MP1-DK2/bootloader/buildroot/optee-os-custom/ta/remoteproc/remoteproc_core.c:434
     78c:	2300      	movs	r3, #0
     78e:	60bb      	str	r3, [r7, #8]
/home/aom1/Work/Linux/target/STM32MP1-DK2/bootloader/buildroot/optee-os-custom/ta/remoteproc/remoteproc_core.c:435
     790:	2300      	movs	r3, #0
     792:	f6cf 73ff 	movt	r3, #65535	; 0xffff
     796:	60fb      	str	r3, [r7, #12]
/home/aom1/Work/Linux/target/STM32MP1-DK2/bootloader/buildroot/optee-os-custom/ta/remoteproc/remoteproc_core.c:437
     798:	687b      	ldr	r3, [r7, #4]
     79a:	6898      	ldr	r0, [r3, #8]
     79c:	687b      	ldr	r3, [r7, #4]
     79e:	68d9      	ldr	r1, [r3, #12]
/home/aom1/Work/Linux/target/STM32MP1-DK2/bootloader/buildroot/optee-os-custom/ta/remoteproc/remoteproc_core.c:438
     7a0:	687b      	ldr	r3, [r7, #4]
     7a2:	3314      	adds	r3, #20
/home/aom1/Work/Linux/target/STM32MP1-DK2/bootloader/buildroot/optee-os-custom/ta/remoteproc/remoteproc_core.c:437
     7a4:	f107 0208 	add.w	r2, r7, #8
     7a8:	f000 fcc9 	bl	113e <e32_parser_find_rsc_table>
     7ac:	4603      	mov	r3, r0
     7ae:	60fb      	str	r3, [r7, #12]
/home/aom1/Work/Linux/target/STM32MP1-DK2/bootloader/buildroot/optee-os-custom/ta/remoteproc/remoteproc_core.c:439
     7b0:	68fa      	ldr	r2, [r7, #12]
     7b2:	230b      	movs	r3, #11
     7b4:	f6cf 73ff 	movt	r3, #65535	; 0xffff
     7b8:	429a      	cmp	r2, r3
     7ba:	d107      	bne.n	7cc <remoteproc_parse_rsc_table+0x48>
/home/aom1/Work/Linux/target/STM32MP1-DK2/bootloader/buildroot/optee-os-custom/ta/remoteproc/remoteproc_core.c:441
     7bc:	687b      	ldr	r3, [r7, #4]
     7be:	2200      	movs	r2, #0
     7c0:	615a      	str	r2, [r3, #20]
/home/aom1/Work/Linux/target/STM32MP1-DK2/bootloader/buildroot/optee-os-custom/ta/remoteproc/remoteproc_core.c:442
     7c2:	687b      	ldr	r3, [r7, #4]
     7c4:	2200      	movs	r2, #0
     7c6:	611a      	str	r2, [r3, #16]
/home/aom1/Work/Linux/target/STM32MP1-DK2/bootloader/buildroot/optee-os-custom/ta/remoteproc/remoteproc_core.c:443
     7c8:	2300      	movs	r3, #0
     7ca:	e01a      	b.n	802 <remoteproc_parse_rsc_table+0x7e>
/home/aom1/Work/Linux/target/STM32MP1-DK2/bootloader/buildroot/optee-os-custom/ta/remoteproc/remoteproc_core.c:445
     7cc:	68fb      	ldr	r3, [r7, #12]
     7ce:	2b00      	cmp	r3, #0
     7d0:	d001      	beq.n	7d6 <remoteproc_parse_rsc_table+0x52>
/home/aom1/Work/Linux/target/STM32MP1-DK2/bootloader/buildroot/optee-os-custom/ta/remoteproc/remoteproc_core.c:446
     7d2:	68fb      	ldr	r3, [r7, #12]
     7d4:	e015      	b.n	802 <remoteproc_parse_rsc_table+0x7e>
/home/aom1/Work/Linux/target/STM32MP1-DK2/bootloader/buildroot/optee-os-custom/ta/remoteproc/remoteproc_core.c:448
     7d6:	68bb      	ldr	r3, [r7, #8]
     7d8:	2b00      	cmp	r3, #0
     7da:	d011      	beq.n	800 <remoteproc_parse_rsc_table+0x7c>
/home/aom1/Work/Linux/target/STM32MP1-DK2/bootloader/buildroot/optee-os-custom/ta/remoteproc/remoteproc_core.c:452
     7dc:	68b8      	ldr	r0, [r7, #8]
     7de:	687b      	ldr	r3, [r7, #4]
     7e0:	695b      	ldr	r3, [r3, #20]
     7e2:	687a      	ldr	r2, [r7, #4]
     7e4:	4619      	mov	r1, r3
     7e6:	f7ff ff77 	bl	6d8 <remoteproc_da_to_pa>
     7ea:	4602      	mov	r2, r0
     7ec:	687b      	ldr	r3, [r7, #4]
     7ee:	611a      	str	r2, [r3, #16]
/home/aom1/Work/Linux/target/STM32MP1-DK2/bootloader/buildroot/optee-os-custom/ta/remoteproc/remoteproc_core.c:453
     7f0:	687b      	ldr	r3, [r7, #4]
     7f2:	691b      	ldr	r3, [r3, #16]
     7f4:	2b00      	cmp	r3, #0
     7f6:	d103      	bne.n	800 <remoteproc_parse_rsc_table+0x7c>
/home/aom1/Work/Linux/target/STM32MP1-DK2/bootloader/buildroot/optee-os-custom/ta/remoteproc/remoteproc_core.c:454
     7f8:	2301      	movs	r3, #1
     7fa:	f6cf 73ff 	movt	r3, #65535	; 0xffff
     7fe:	e000      	b.n	802 <remoteproc_parse_rsc_table+0x7e>
/home/aom1/Work/Linux/target/STM32MP1-DK2/bootloader/buildroot/optee-os-custom/ta/remoteproc/remoteproc_core.c:457
     800:	2300      	movs	r3, #0
/home/aom1/Work/Linux/target/STM32MP1-DK2/bootloader/buildroot/optee-os-custom/ta/remoteproc/remoteproc_core.c:458 (discriminator 1)
     802:	4618      	mov	r0, r3
     804:	3710      	adds	r7, #16
     806:	46bd      	mov	sp, r7
     808:	bd80      	pop	{r7, pc}

0000080a <get_segment_hash>:
get_segment_hash():
/home/aom1/Work/Linux/target/STM32MP1-DK2/bootloader/buildroot/optee-os-custom/ta/remoteproc/remoteproc_core.c:463
     80a:	b480      	push	{r7}
     80c:	b089      	sub	sp, #36	; 0x24
     80e:	af00      	add	r7, sp, #0
     810:	60f8      	str	r0, [r7, #12]
     812:	60b9      	str	r1, [r7, #8]
     814:	607a      	str	r2, [r7, #4]
     816:	603b      	str	r3, [r7, #0]
/home/aom1/Work/Linux/target/STM32MP1-DK2/bootloader/buildroot/optee-os-custom/ta/remoteproc/remoteproc_core.c:464
     818:	68fb      	ldr	r3, [r7, #12]
     81a:	685b      	ldr	r3, [r3, #4]
     81c:	617b      	str	r3, [r7, #20]
/home/aom1/Work/Linux/target/STM32MP1-DK2/bootloader/buildroot/optee-os-custom/ta/remoteproc/remoteproc_core.c:465
     81e:	2300      	movs	r3, #0
     820:	61fb      	str	r3, [r7, #28]
/home/aom1/Work/Linux/target/STM32MP1-DK2/bootloader/buildroot/optee-os-custom/ta/remoteproc/remoteproc_core.c:466
     822:	2300      	movs	r3, #0
     824:	61bb      	str	r3, [r7, #24]
/home/aom1/Work/Linux/target/STM32MP1-DK2/bootloader/buildroot/optee-os-custom/ta/remoteproc/remoteproc_core.c:467
     826:	697b      	ldr	r3, [r7, #20]
     828:	699b      	ldr	r3, [r3, #24]
     82a:	099b      	lsrs	r3, r3, #6
     82c:	613b      	str	r3, [r7, #16]
/home/aom1/Work/Linux/target/STM32MP1-DK2/bootloader/buildroot/optee-os-custom/ta/remoteproc/remoteproc_core.c:469
     82e:	697b      	ldr	r3, [r7, #20]
     830:	69db      	ldr	r3, [r3, #28]
     832:	697a      	ldr	r2, [r7, #20]
     834:	4413      	add	r3, r2
     836:	61fb      	str	r3, [r7, #28]
/home/aom1/Work/Linux/target/STM32MP1-DK2/bootloader/buildroot/optee-os-custom/ta/remoteproc/remoteproc_core.c:471
     838:	2300      	movs	r3, #0
     83a:	61bb      	str	r3, [r7, #24]
     83c:	e034      	b.n	8a8 <get_segment_hash+0x9e>
/home/aom1/Work/Linux/target/STM32MP1-DK2/bootloader/buildroot/optee-os-custom/ta/remoteproc/remoteproc_core.c:472
     83e:	69fb      	ldr	r3, [r7, #28]
     840:	68db      	ldr	r3, [r3, #12]
     842:	683a      	ldr	r2, [r7, #0]
     844:	429a      	cmp	r2, r3
     846:	d128      	bne.n	89a <get_segment_hash+0x90>
/home/aom1/Work/Linux/target/STM32MP1-DK2/bootloader/buildroot/optee-os-custom/ta/remoteproc/remoteproc_core.c:480
     848:	69fb      	ldr	r3, [r7, #28]
     84a:	681b      	ldr	r3, [r3, #0]
     84c:	2b01      	cmp	r3, #1
     84e:	d003      	beq.n	858 <get_segment_hash+0x4e>
/home/aom1/Work/Linux/target/STM32MP1-DK2/bootloader/buildroot/optee-os-custom/ta/remoteproc/remoteproc_core.c:481
     850:	2301      	movs	r3, #1
     852:	f2cf 0310 	movt	r3, #61456	; 0xf010
     856:	e02e      	b.n	8b6 <get_segment_hash+0xac>
/home/aom1/Work/Linux/target/STM32MP1-DK2/bootloader/buildroot/optee-os-custom/ta/remoteproc/remoteproc_core.c:483
     858:	69fb      	ldr	r3, [r7, #28]
     85a:	691b      	ldr	r3, [r3, #16]
     85c:	687a      	ldr	r2, [r7, #4]
     85e:	429a      	cmp	r2, r3
     860:	d104      	bne.n	86c <get_segment_hash+0x62>
/home/aom1/Work/Linux/target/STM32MP1-DK2/bootloader/buildroot/optee-os-custom/ta/remoteproc/remoteproc_core.c:483 (discriminator 1)
     862:	69fb      	ldr	r3, [r7, #28]
     864:	695b      	ldr	r3, [r3, #20]
     866:	6aba      	ldr	r2, [r7, #40]	; 0x28
     868:	429a      	cmp	r2, r3
     86a:	d003      	beq.n	874 <get_segment_hash+0x6a>
/home/aom1/Work/Linux/target/STM32MP1-DK2/bootloader/buildroot/optee-os-custom/ta/remoteproc/remoteproc_core.c:484
     86c:	2301      	movs	r3, #1
     86e:	f2cf 0310 	movt	r3, #61456	; 0xf010
     872:	e020      	b.n	8b6 <get_segment_hash+0xac>
/home/aom1/Work/Linux/target/STM32MP1-DK2/bootloader/buildroot/optee-os-custom/ta/remoteproc/remoteproc_core.c:486
     874:	68fb      	ldr	r3, [r7, #12]
     876:	689b      	ldr	r3, [r3, #8]
     878:	68ba      	ldr	r2, [r7, #8]
     87a:	1ad3      	subs	r3, r2, r3
     87c:	69fa      	ldr	r2, [r7, #28]
     87e:	6852      	ldr	r2, [r2, #4]
     880:	4293      	cmp	r3, r2
     882:	d003      	beq.n	88c <get_segment_hash+0x82>
/home/aom1/Work/Linux/target/STM32MP1-DK2/bootloader/buildroot/optee-os-custom/ta/remoteproc/remoteproc_core.c:487
     884:	2301      	movs	r3, #1
     886:	f2cf 0310 	movt	r3, #61456	; 0xf010
     88a:	e014      	b.n	8b6 <get_segment_hash+0xac>
/home/aom1/Work/Linux/target/STM32MP1-DK2/bootloader/buildroot/optee-os-custom/ta/remoteproc/remoteproc_core.c:489
     88c:	69fb      	ldr	r3, [r7, #28]
     88e:	f103 0220 	add.w	r2, r3, #32
     892:	6afb      	ldr	r3, [r7, #44]	; 0x2c
     894:	601a      	str	r2, [r3, #0]
/home/aom1/Work/Linux/target/STM32MP1-DK2/bootloader/buildroot/optee-os-custom/ta/remoteproc/remoteproc_core.c:491
     896:	2300      	movs	r3, #0
     898:	e00d      	b.n	8b6 <get_segment_hash+0xac>
/home/aom1/Work/Linux/target/STM32MP1-DK2/bootloader/buildroot/optee-os-custom/ta/remoteproc/remoteproc_core.c:473
     89a:	bf00      	nop
/home/aom1/Work/Linux/target/STM32MP1-DK2/bootloader/buildroot/optee-os-custom/ta/remoteproc/remoteproc_core.c:471
     89c:	69fb      	ldr	r3, [r7, #28]
     89e:	3340      	adds	r3, #64	; 0x40
     8a0:	61fb      	str	r3, [r7, #28]
     8a2:	69bb      	ldr	r3, [r7, #24]
     8a4:	3301      	adds	r3, #1
     8a6:	61bb      	str	r3, [r7, #24]
/home/aom1/Work/Linux/target/STM32MP1-DK2/bootloader/buildroot/optee-os-custom/ta/remoteproc/remoteproc_core.c:471 (discriminator 1)
     8a8:	69ba      	ldr	r2, [r7, #24]
     8aa:	693b      	ldr	r3, [r7, #16]
     8ac:	429a      	cmp	r2, r3
     8ae:	d3c6      	bcc.n	83e <get_segment_hash+0x34>
/home/aom1/Work/Linux/target/STM32MP1-DK2/bootloader/buildroot/optee-os-custom/ta/remoteproc/remoteproc_core.c:494
     8b0:	230b      	movs	r3, #11
     8b2:	f6cf 73ff 	movt	r3, #65535	; 0xffff
/home/aom1/Work/Linux/target/STM32MP1-DK2/bootloader/buildroot/optee-os-custom/ta/remoteproc/remoteproc_core.c:495
     8b6:	4618      	mov	r0, r3
     8b8:	3724      	adds	r7, #36	; 0x24
     8ba:	46bd      	mov	sp, r7
     8bc:	f85d 7b04 	ldr.w	r7, [sp], #4
     8c0:	4770      	bx	lr

000008c2 <remoteproc_load_segment>:
remoteproc_load_segment():
/home/aom1/Work/Linux/target/STM32MP1-DK2/bootloader/buildroot/optee-os-custom/ta/remoteproc/remoteproc_core.c:500
     8c2:	b580      	push	{r7, lr}
     8c4:	b092      	sub	sp, #72	; 0x48
     8c6:	af02      	add	r7, sp, #8
     8c8:	60f8      	str	r0, [r7, #12]
     8ca:	60b9      	str	r1, [r7, #8]
     8cc:	607a      	str	r2, [r7, #4]
     8ce:	603b      	str	r3, [r7, #0]
/home/aom1/Work/Linux/target/STM32MP1-DK2/bootloader/buildroot/optee-os-custom/ta/remoteproc/remoteproc_core.c:501
     8d0:	6cbb      	ldr	r3, [r7, #72]	; 0x48
     8d2:	63bb      	str	r3, [r7, #56]	; 0x38
/home/aom1/Work/Linux/target/STM32MP1-DK2/bootloader/buildroot/optee-os-custom/ta/remoteproc/remoteproc_core.c:502
     8d4:	f245 1351 	movw	r3, #20817	; 0x5151
     8d8:	637b      	str	r3, [r7, #52]	; 0x34
/home/aom1/Work/Linux/target/STM32MP1-DK2/bootloader/buildroot/optee-os-custom/ta/remoteproc/remoteproc_core.c:506
     8da:	f107 0314 	add.w	r3, r7, #20
     8de:	efc0 0010 	vmov.i32	d16, #0	; 0x00000000
     8e2:	edc3 0b00 	vstr	d16, [r3]
     8e6:	edc3 0b02 	vstr	d16, [r3, #8]
     8ea:	edc3 0b04 	vstr	d16, [r3, #16]
     8ee:	edc3 0b06 	vstr	d16, [r3, #24]
/home/aom1/Work/Linux/target/STM32MP1-DK2/bootloader/buildroot/optee-os-custom/ta/remoteproc/remoteproc_core.c:507
     8f2:	2300      	movs	r3, #0
     8f4:	f6cf 73ff 	movt	r3, #65535	; 0xffff
     8f8:	63fb      	str	r3, [r7, #60]	; 0x3c
/home/aom1/Work/Linux/target/STM32MP1-DK2/bootloader/buildroot/optee-os-custom/ta/remoteproc/remoteproc_core.c:508
     8fa:	2300      	movs	r3, #0
     8fc:	613b      	str	r3, [r7, #16]
/home/aom1/Work/Linux/target/STM32MP1-DK2/bootloader/buildroot/optee-os-custom/ta/remoteproc/remoteproc_core.c:518
     8fe:	f107 0310 	add.w	r3, r7, #16
     902:	9301      	str	r3, [sp, #4]
     904:	683b      	ldr	r3, [r7, #0]
     906:	9300      	str	r3, [sp, #0]
     908:	687b      	ldr	r3, [r7, #4]
     90a:	68ba      	ldr	r2, [r7, #8]
     90c:	68f9      	ldr	r1, [r7, #12]
     90e:	6bb8      	ldr	r0, [r7, #56]	; 0x38
     910:	f7ff ff7b 	bl	80a <get_segment_hash>
     914:	63f8      	str	r0, [r7, #60]	; 0x3c
/home/aom1/Work/Linux/target/STM32MP1-DK2/bootloader/buildroot/optee-os-custom/ta/remoteproc/remoteproc_core.c:519
     916:	6bfb      	ldr	r3, [r7, #60]	; 0x3c
     918:	2b00      	cmp	r3, #0
     91a:	d001      	beq.n	920 <remoteproc_load_segment+0x5e>
/home/aom1/Work/Linux/target/STM32MP1-DK2/bootloader/buildroot/optee-os-custom/ta/remoteproc/remoteproc_core.c:520
     91c:	6bfb      	ldr	r3, [r7, #60]	; 0x3c
     91e:	e05e      	b.n	9de <remoteproc_load_segment+0x11c>
/home/aom1/Work/Linux/target/STM32MP1-DK2/bootloader/buildroot/optee-os-custom/ta/remoteproc/remoteproc_core.c:522
     920:	6bbb      	ldr	r3, [r7, #56]	; 0x38
     922:	681b      	ldr	r3, [r3, #0]
     924:	617b      	str	r3, [r7, #20]
/home/aom1/Work/Linux/target/STM32MP1-DK2/bootloader/buildroot/optee-os-custom/ta/remoteproc/remoteproc_core.c:523
     926:	68fb      	ldr	r3, [r7, #12]
     928:	61fb      	str	r3, [r7, #28]
/home/aom1/Work/Linux/target/STM32MP1-DK2/bootloader/buildroot/optee-os-custom/ta/remoteproc/remoteproc_core.c:524
     92a:	68bb      	ldr	r3, [r7, #8]
     92c:	623b      	str	r3, [r7, #32]
/home/aom1/Work/Linux/target/STM32MP1-DK2/bootloader/buildroot/optee-os-custom/ta/remoteproc/remoteproc_core.c:525
     92e:	687b      	ldr	r3, [r7, #4]
     930:	627b      	str	r3, [r7, #36]	; 0x24
/home/aom1/Work/Linux/target/STM32MP1-DK2/bootloader/buildroot/optee-os-custom/ta/remoteproc/remoteproc_core.c:526
     932:	693b      	ldr	r3, [r7, #16]
     934:	62fb      	str	r3, [r7, #44]	; 0x2c
/home/aom1/Work/Linux/target/STM32MP1-DK2/bootloader/buildroot/optee-os-custom/ta/remoteproc/remoteproc_core.c:527
     936:	2320      	movs	r3, #32
     938:	633b      	str	r3, [r7, #48]	; 0x30
/home/aom1/Work/Linux/target/STM32MP1-DK2/bootloader/buildroot/optee-os-custom/ta/remoteproc/remoteproc_core.c:529
     93a:	4b2b      	ldr	r3, [pc, #172]	; (9e8 <remoteproc_load_segment+0x126>)
     93c:	447b      	add	r3, pc
     93e:	6818      	ldr	r0, [r3, #0]
     940:	2300      	movs	r3, #0
     942:	9301      	str	r3, [sp, #4]
     944:	f107 0314 	add.w	r3, r7, #20
     948:	9300      	str	r3, [sp, #0]
     94a:	6b7b      	ldr	r3, [r7, #52]	; 0x34
     94c:	2203      	movs	r2, #3
     94e:	f04f 31ff 	mov.w	r1, #4294967295	; 0xffffffff
     952:	f002 fa50 	bl	2df6 <TEE_InvokeTACommand>
     956:	63f8      	str	r0, [r7, #60]	; 0x3c
/home/aom1/Work/Linux/target/STM32MP1-DK2/bootloader/buildroot/optee-os-custom/ta/remoteproc/remoteproc_core.c:532
     958:	6bfb      	ldr	r3, [r7, #60]	; 0x3c
     95a:	2b00      	cmp	r3, #0
     95c:	d00e      	beq.n	97c <remoteproc_load_segment+0xba>
/home/aom1/Work/Linux/target/STM32MP1-DK2/bootloader/buildroot/optee-os-custom/ta/remoteproc/remoteproc_core.c:533
     95e:	6bfb      	ldr	r3, [r7, #60]	; 0x3c
     960:	9301      	str	r3, [sp, #4]
     962:	4b22      	ldr	r3, [pc, #136]	; (9ec <remoteproc_load_segment+0x12a>)
     964:	447b      	add	r3, pc
     966:	9300      	str	r3, [sp, #0]
     968:	2301      	movs	r3, #1
     96a:	2201      	movs	r2, #1
     96c:	f240 2115 	movw	r1, #533	; 0x215
     970:	481f      	ldr	r0, [pc, #124]	; (9f0 <remoteproc_load_segment+0x12e>)
     972:	4478      	add	r0, pc
     974:	f000 fdce 	bl	1514 <trace_printf>
/home/aom1/Work/Linux/target/STM32MP1-DK2/bootloader/buildroot/optee-os-custom/ta/remoteproc/remoteproc_core.c:534
     978:	6bfb      	ldr	r3, [r7, #60]	; 0x3c
     97a:	e030      	b.n	9de <remoteproc_load_segment+0x11c>
/home/aom1/Work/Linux/target/STM32MP1-DK2/bootloader/buildroot/optee-os-custom/ta/remoteproc/remoteproc_core.c:538
     97c:	68ba      	ldr	r2, [r7, #8]
     97e:	683b      	ldr	r3, [r7, #0]
     980:	429a      	cmp	r2, r3
     982:	d22b      	bcs.n	9dc <remoteproc_load_segment+0x11a>
/home/aom1/Work/Linux/target/STM32MP1-DK2/bootloader/buildroot/optee-os-custom/ta/remoteproc/remoteproc_core.c:539
     984:	f241 1311 	movw	r3, #4369	; 0x1111
     988:	637b      	str	r3, [r7, #52]	; 0x34
/home/aom1/Work/Linux/target/STM32MP1-DK2/bootloader/buildroot/optee-os-custom/ta/remoteproc/remoteproc_core.c:543
     98a:	687a      	ldr	r2, [r7, #4]
     98c:	68bb      	ldr	r3, [r7, #8]
     98e:	4413      	add	r3, r2
     990:	61fb      	str	r3, [r7, #28]
/home/aom1/Work/Linux/target/STM32MP1-DK2/bootloader/buildroot/optee-os-custom/ta/remoteproc/remoteproc_core.c:544
     992:	683a      	ldr	r2, [r7, #0]
     994:	68bb      	ldr	r3, [r7, #8]
     996:	1ad3      	subs	r3, r2, r3
     998:	627b      	str	r3, [r7, #36]	; 0x24
/home/aom1/Work/Linux/target/STM32MP1-DK2/bootloader/buildroot/optee-os-custom/ta/remoteproc/remoteproc_core.c:545
     99a:	2300      	movs	r3, #0
     99c:	62fb      	str	r3, [r7, #44]	; 0x2c
/home/aom1/Work/Linux/target/STM32MP1-DK2/bootloader/buildroot/optee-os-custom/ta/remoteproc/remoteproc_core.c:547
     99e:	4b15      	ldr	r3, [pc, #84]	; (9f4 <remoteproc_load_segment+0x132>)
     9a0:	447b      	add	r3, pc
     9a2:	6818      	ldr	r0, [r3, #0]
     9a4:	2300      	movs	r3, #0
     9a6:	9301      	str	r3, [sp, #4]
     9a8:	f107 0314 	add.w	r3, r7, #20
     9ac:	9300      	str	r3, [sp, #0]
     9ae:	6b7b      	ldr	r3, [r7, #52]	; 0x34
     9b0:	2204      	movs	r2, #4
     9b2:	f04f 31ff 	mov.w	r1, #4294967295	; 0xffffffff
     9b6:	f002 fa1e 	bl	2df6 <TEE_InvokeTACommand>
     9ba:	63f8      	str	r0, [r7, #60]	; 0x3c
/home/aom1/Work/Linux/target/STM32MP1-DK2/bootloader/buildroot/optee-os-custom/ta/remoteproc/remoteproc_core.c:550
     9bc:	6bfb      	ldr	r3, [r7, #60]	; 0x3c
     9be:	2b00      	cmp	r3, #0
     9c0:	d00c      	beq.n	9dc <remoteproc_load_segment+0x11a>
/home/aom1/Work/Linux/target/STM32MP1-DK2/bootloader/buildroot/optee-os-custom/ta/remoteproc/remoteproc_core.c:551
     9c2:	6bfb      	ldr	r3, [r7, #60]	; 0x3c
     9c4:	9301      	str	r3, [sp, #4]
     9c6:	4b0c      	ldr	r3, [pc, #48]	; (9f8 <remoteproc_load_segment+0x136>)
     9c8:	447b      	add	r3, pc
     9ca:	9300      	str	r3, [sp, #0]
     9cc:	2301      	movs	r3, #1
     9ce:	2201      	movs	r2, #1
     9d0:	f240 2127 	movw	r1, #551	; 0x227
     9d4:	4809      	ldr	r0, [pc, #36]	; (9fc <remoteproc_load_segment+0x13a>)
     9d6:	4478      	add	r0, pc
     9d8:	f000 fd9c 	bl	1514 <trace_printf>
/home/aom1/Work/Linux/target/STM32MP1-DK2/bootloader/buildroot/optee-os-custom/ta/remoteproc/remoteproc_core.c:554
     9dc:	6bfb      	ldr	r3, [r7, #60]	; 0x3c
/home/aom1/Work/Linux/target/STM32MP1-DK2/bootloader/buildroot/optee-os-custom/ta/remoteproc/remoteproc_core.c:555 (discriminator 1)
     9de:	4618      	mov	r0, r3
     9e0:	3740      	adds	r7, #64	; 0x40
     9e2:	46bd      	mov	sp, r7
     9e4:	bd80      	pop	{r7, pc}
     9e6:	bf00      	nop
     9e8:	0001397c 	.word	0x0001397c
     9ec:	00011b0c 	.word	0x00011b0c
     9f0:	00011bde 	.word	0x00011bde
     9f4:	00013918 	.word	0x00013918
     9f8:	00011acc 	.word	0x00011acc
     9fc:	00011b7a 	.word	0x00011b7a

00000a00 <remoteproc_load_elf>:
remoteproc_load_elf():
/home/aom1/Work/Linux/target/STM32MP1-DK2/bootloader/buildroot/optee-os-custom/ta/remoteproc/remoteproc_core.c:558
     a00:	b580      	push	{r7, lr}
     a02:	b086      	sub	sp, #24
     a04:	af02      	add	r7, sp, #8
     a06:	6078      	str	r0, [r7, #4]
/home/aom1/Work/Linux/target/STM32MP1-DK2/bootloader/buildroot/optee-os-custom/ta/remoteproc/remoteproc_core.c:559
     a08:	2300      	movs	r3, #0
     a0a:	f6cf 73ff 	movt	r3, #65535	; 0xffff
     a0e:	60fb      	str	r3, [r7, #12]
/home/aom1/Work/Linux/target/STM32MP1-DK2/bootloader/buildroot/optee-os-custom/ta/remoteproc/remoteproc_core.c:561
     a10:	687b      	ldr	r3, [r7, #4]
     a12:	689a      	ldr	r2, [r3, #8]
     a14:	687b      	ldr	r3, [r7, #4]
     a16:	68db      	ldr	r3, [r3, #12]
     a18:	4619      	mov	r1, r3
     a1a:	4610      	mov	r0, r2
     a1c:	f000 fa78 	bl	f10 <e32_parse_ehdr>
     a20:	60f8      	str	r0, [r7, #12]
/home/aom1/Work/Linux/target/STM32MP1-DK2/bootloader/buildroot/optee-os-custom/ta/remoteproc/remoteproc_core.c:562
     a22:	68fb      	ldr	r3, [r7, #12]
     a24:	2b00      	cmp	r3, #0
     a26:	d00e      	beq.n	a46 <remoteproc_load_elf+0x46>
/home/aom1/Work/Linux/target/STM32MP1-DK2/bootloader/buildroot/optee-os-custom/ta/remoteproc/remoteproc_core.c:563
     a28:	68fb      	ldr	r3, [r7, #12]
     a2a:	9301      	str	r3, [sp, #4]
     a2c:	4b0d      	ldr	r3, [pc, #52]	; (a64 <remoteproc_load_elf+0x64>)
     a2e:	447b      	add	r3, pc
     a30:	9300      	str	r3, [sp, #0]
     a32:	2301      	movs	r3, #1
     a34:	2201      	movs	r2, #1
     a36:	f240 2133 	movw	r1, #563	; 0x233
     a3a:	480b      	ldr	r0, [pc, #44]	; (a68 <remoteproc_load_elf+0x68>)
     a3c:	4478      	add	r0, pc
     a3e:	f000 fd69 	bl	1514 <trace_printf>
/home/aom1/Work/Linux/target/STM32MP1-DK2/bootloader/buildroot/optee-os-custom/ta/remoteproc/remoteproc_core.c:564
     a42:	68fb      	ldr	r3, [r7, #12]
     a44:	e009      	b.n	a5a <remoteproc_load_elf+0x5a>
/home/aom1/Work/Linux/target/STM32MP1-DK2/bootloader/buildroot/optee-os-custom/ta/remoteproc/remoteproc_core.c:567
     a46:	687b      	ldr	r3, [r7, #4]
     a48:	6898      	ldr	r0, [r3, #8]
     a4a:	687b      	ldr	r3, [r7, #4]
     a4c:	68d9      	ldr	r1, [r3, #12]
     a4e:	687b      	ldr	r3, [r7, #4]
     a50:	4a06      	ldr	r2, [pc, #24]	; (a6c <remoteproc_load_elf+0x6c>)
     a52:	447a      	add	r2, pc
     a54:	f000 fade 	bl	1014 <e32_parser_load_elf_image>
     a58:	4603      	mov	r3, r0
/home/aom1/Work/Linux/target/STM32MP1-DK2/bootloader/buildroot/optee-os-custom/ta/remoteproc/remoteproc_core.c:569
     a5a:	4618      	mov	r0, r3
     a5c:	3710      	adds	r7, #16
     a5e:	46bd      	mov	sp, r7
     a60:	bd80      	pop	{r7, pc}
     a62:	bf00      	nop
     a64:	00011a8a 	.word	0x00011a8a
     a68:	00011b2c 	.word	0x00011b2c
     a6c:	fffffe6d 	.word	0xfffffe6d

00000a70 <remoteproc_load_fw>:
remoteproc_load_fw():
/home/aom1/Work/Linux/target/STM32MP1-DK2/bootloader/buildroot/optee-os-custom/ta/remoteproc/remoteproc_core.c:573
     a70:	b580      	push	{r7, lr}
     a72:	b088      	sub	sp, #32
     a74:	af02      	add	r7, sp, #8
     a76:	6078      	str	r0, [r7, #4]
     a78:	6039      	str	r1, [r7, #0]
/home/aom1/Work/Linux/target/STM32MP1-DK2/bootloader/buildroot/optee-os-custom/ta/remoteproc/remoteproc_core.c:574
     a7a:	2351      	movs	r3, #81	; 0x51
     a7c:	60fb      	str	r3, [r7, #12]
/home/aom1/Work/Linux/target/STM32MP1-DK2/bootloader/buildroot/optee-os-custom/ta/remoteproc/remoteproc_core.c:578
     a7e:	2300      	movs	r3, #0
     a80:	617b      	str	r3, [r7, #20]
/home/aom1/Work/Linux/target/STM32MP1-DK2/bootloader/buildroot/optee-os-custom/ta/remoteproc/remoteproc_core.c:579
     a82:	683b      	ldr	r3, [r7, #0]
     a84:	681b      	ldr	r3, [r3, #0]
     a86:	60bb      	str	r3, [r7, #8]
/home/aom1/Work/Linux/target/STM32MP1-DK2/bootloader/buildroot/optee-os-custom/ta/remoteproc/remoteproc_core.c:580
     a88:	2300      	movs	r3, #0
     a8a:	f6cf 73ff 	movt	r3, #65535	; 0xffff
     a8e:	613b      	str	r3, [r7, #16]
/home/aom1/Work/Linux/target/STM32MP1-DK2/bootloader/buildroot/optee-os-custom/ta/remoteproc/remoteproc_core.c:582
     a90:	687a      	ldr	r2, [r7, #4]
     a92:	68fb      	ldr	r3, [r7, #12]
     a94:	429a      	cmp	r2, r3
     a96:	d003      	beq.n	aa0 <remoteproc_load_fw+0x30>
/home/aom1/Work/Linux/target/STM32MP1-DK2/bootloader/buildroot/optee-os-custom/ta/remoteproc/remoteproc_core.c:583
     a98:	2306      	movs	r3, #6
     a9a:	f6cf 73ff 	movt	r3, #65535	; 0xffff
     a9e:	e05f      	b.n	b60 <remoteproc_load_fw+0xf0>
/home/aom1/Work/Linux/target/STM32MP1-DK2/bootloader/buildroot/optee-os-custom/ta/remoteproc/remoteproc_core.c:585
     aa0:	68b8      	ldr	r0, [r7, #8]
     aa2:	f7ff fb22 	bl	ea <remoteproc_find_firmware>
     aa6:	6178      	str	r0, [r7, #20]
/home/aom1/Work/Linux/target/STM32MP1-DK2/bootloader/buildroot/optee-os-custom/ta/remoteproc/remoteproc_core.c:586
     aa8:	697b      	ldr	r3, [r7, #20]
     aaa:	2b00      	cmp	r3, #0
     aac:	d103      	bne.n	ab6 <remoteproc_load_fw+0x46>
/home/aom1/Work/Linux/target/STM32MP1-DK2/bootloader/buildroot/optee-os-custom/ta/remoteproc/remoteproc_core.c:587
     aae:	68b8      	ldr	r0, [r7, #8]
     ab0:	f7ff fb3c 	bl	12c <remoteproc_add_firmware>
     ab4:	6178      	str	r0, [r7, #20]
/home/aom1/Work/Linux/target/STM32MP1-DK2/bootloader/buildroot/optee-os-custom/ta/remoteproc/remoteproc_core.c:588
     ab6:	697b      	ldr	r3, [r7, #20]
     ab8:	2b00      	cmp	r3, #0
     aba:	d103      	bne.n	ac4 <remoteproc_load_fw+0x54>
/home/aom1/Work/Linux/target/STM32MP1-DK2/bootloader/buildroot/optee-os-custom/ta/remoteproc/remoteproc_core.c:589
     abc:	230c      	movs	r3, #12
     abe:	f6cf 73ff 	movt	r3, #65535	; 0xffff
     ac2:	e04d      	b.n	b60 <remoteproc_load_fw+0xf0>
/home/aom1/Work/Linux/target/STM32MP1-DK2/bootloader/buildroot/optee-os-custom/ta/remoteproc/remoteproc_core.c:591
     ac4:	697b      	ldr	r3, [r7, #20]
     ac6:	699b      	ldr	r3, [r3, #24]
     ac8:	2b00      	cmp	r3, #0
     aca:	d003      	beq.n	ad4 <remoteproc_load_fw+0x64>
/home/aom1/Work/Linux/target/STM32MP1-DK2/bootloader/buildroot/optee-os-custom/ta/remoteproc/remoteproc_core.c:592
     acc:	2307      	movs	r3, #7
     ace:	f6cf 73ff 	movt	r3, #65535	; 0xffff
     ad2:	e045      	b.n	b60 <remoteproc_load_fw+0xf0>
/home/aom1/Work/Linux/target/STM32MP1-DK2/bootloader/buildroot/optee-os-custom/ta/remoteproc/remoteproc_core.c:594
     ad4:	683b      	ldr	r3, [r7, #0]
     ad6:	3308      	adds	r3, #8
     ad8:	681b      	ldr	r3, [r3, #0]
     ada:	2b00      	cmp	r3, #0
     adc:	d004      	beq.n	ae8 <remoteproc_load_fw+0x78>
/home/aom1/Work/Linux/target/STM32MP1-DK2/bootloader/buildroot/optee-os-custom/ta/remoteproc/remoteproc_core.c:594 (discriminator 1)
     ade:	683b      	ldr	r3, [r7, #0]
     ae0:	3308      	adds	r3, #8
     ae2:	685b      	ldr	r3, [r3, #4]
     ae4:	2b00      	cmp	r3, #0
     ae6:	d103      	bne.n	af0 <remoteproc_load_fw+0x80>
/home/aom1/Work/Linux/target/STM32MP1-DK2/bootloader/buildroot/optee-os-custom/ta/remoteproc/remoteproc_core.c:595
     ae8:	2306      	movs	r3, #6
     aea:	f6cf 73ff 	movt	r3, #65535	; 0xffff
     aee:	e037      	b.n	b60 <remoteproc_load_fw+0xf0>
/home/aom1/Work/Linux/target/STM32MP1-DK2/bootloader/buildroot/optee-os-custom/ta/remoteproc/remoteproc_core.c:600
     af0:	683b      	ldr	r3, [r7, #0]
     af2:	3308      	adds	r3, #8
     af4:	6819      	ldr	r1, [r3, #0]
/home/aom1/Work/Linux/target/STM32MP1-DK2/bootloader/buildroot/optee-os-custom/ta/remoteproc/remoteproc_core.c:601
     af6:	683b      	ldr	r3, [r7, #0]
     af8:	3308      	adds	r3, #8
/home/aom1/Work/Linux/target/STM32MP1-DK2/bootloader/buildroot/optee-os-custom/ta/remoteproc/remoteproc_core.c:600
     afa:	685b      	ldr	r3, [r3, #4]
     afc:	461a      	mov	r2, r3
     afe:	6978      	ldr	r0, [r7, #20]
     b00:	f7ff fd9c 	bl	63c <remoteproc_verify_firmware>
     b04:	6138      	str	r0, [r7, #16]
/home/aom1/Work/Linux/target/STM32MP1-DK2/bootloader/buildroot/optee-os-custom/ta/remoteproc/remoteproc_core.c:602
     b06:	693b      	ldr	r3, [r7, #16]
     b08:	2b00      	cmp	r3, #0
     b0a:	d00d      	beq.n	b28 <remoteproc_load_fw+0xb8>
/home/aom1/Work/Linux/target/STM32MP1-DK2/bootloader/buildroot/optee-os-custom/ta/remoteproc/remoteproc_core.c:603
     b0c:	693b      	ldr	r3, [r7, #16]
     b0e:	9301      	str	r3, [sp, #4]
     b10:	4b15      	ldr	r3, [pc, #84]	; (b68 <remoteproc_load_fw+0xf8>)
     b12:	447b      	add	r3, pc
     b14:	9300      	str	r3, [sp, #0]
     b16:	2301      	movs	r3, #1
     b18:	2201      	movs	r2, #1
     b1a:	f240 215b 	movw	r1, #603	; 0x25b
     b1e:	4813      	ldr	r0, [pc, #76]	; (b6c <remoteproc_load_fw+0xfc>)
     b20:	4478      	add	r0, pc
     b22:	f000 fcf7 	bl	1514 <trace_printf>
/home/aom1/Work/Linux/target/STM32MP1-DK2/bootloader/buildroot/optee-os-custom/ta/remoteproc/remoteproc_core.c:604
     b26:	e014      	b.n	b52 <remoteproc_load_fw+0xe2>
/home/aom1/Work/Linux/target/STM32MP1-DK2/bootloader/buildroot/optee-os-custom/ta/remoteproc/remoteproc_core.c:607
     b28:	6978      	ldr	r0, [r7, #20]
     b2a:	f7ff ff69 	bl	a00 <remoteproc_load_elf>
     b2e:	6138      	str	r0, [r7, #16]
/home/aom1/Work/Linux/target/STM32MP1-DK2/bootloader/buildroot/optee-os-custom/ta/remoteproc/remoteproc_core.c:608
     b30:	693b      	ldr	r3, [r7, #16]
     b32:	2b00      	cmp	r3, #0
     b34:	d10a      	bne.n	b4c <remoteproc_load_fw+0xdc>
/home/aom1/Work/Linux/target/STM32MP1-DK2/bootloader/buildroot/optee-os-custom/ta/remoteproc/remoteproc_core.c:612
     b36:	6978      	ldr	r0, [r7, #20]
     b38:	f7ff fe24 	bl	784 <remoteproc_parse_rsc_table>
     b3c:	6138      	str	r0, [r7, #16]
/home/aom1/Work/Linux/target/STM32MP1-DK2/bootloader/buildroot/optee-os-custom/ta/remoteproc/remoteproc_core.c:613
     b3e:	693b      	ldr	r3, [r7, #16]
     b40:	2b00      	cmp	r3, #0
     b42:	d105      	bne.n	b50 <remoteproc_load_fw+0xe0>
/home/aom1/Work/Linux/target/STM32MP1-DK2/bootloader/buildroot/optee-os-custom/ta/remoteproc/remoteproc_core.c:614
     b44:	697b      	ldr	r3, [r7, #20]
     b46:	2201      	movs	r2, #1
     b48:	619a      	str	r2, [r3, #24]
     b4a:	e002      	b.n	b52 <remoteproc_load_fw+0xe2>
/home/aom1/Work/Linux/target/STM32MP1-DK2/bootloader/buildroot/optee-os-custom/ta/remoteproc/remoteproc_core.c:609
     b4c:	bf00      	nop
     b4e:	e000      	b.n	b52 <remoteproc_load_fw+0xe2>
/home/aom1/Work/Linux/target/STM32MP1-DK2/bootloader/buildroot/optee-os-custom/ta/remoteproc/remoteproc_core.c:616
     b50:	bf00      	nop
/home/aom1/Work/Linux/target/STM32MP1-DK2/bootloader/buildroot/optee-os-custom/ta/remoteproc/remoteproc_core.c:618
     b52:	697b      	ldr	r3, [r7, #20]
     b54:	2200      	movs	r2, #0
     b56:	609a      	str	r2, [r3, #8]
/home/aom1/Work/Linux/target/STM32MP1-DK2/bootloader/buildroot/optee-os-custom/ta/remoteproc/remoteproc_core.c:619
     b58:	697b      	ldr	r3, [r7, #20]
     b5a:	2200      	movs	r2, #0
     b5c:	60da      	str	r2, [r3, #12]
/home/aom1/Work/Linux/target/STM32MP1-DK2/bootloader/buildroot/optee-os-custom/ta/remoteproc/remoteproc_core.c:621
     b5e:	693b      	ldr	r3, [r7, #16]
/home/aom1/Work/Linux/target/STM32MP1-DK2/bootloader/buildroot/optee-os-custom/ta/remoteproc/remoteproc_core.c:622
     b60:	4618      	mov	r0, r3
     b62:	3718      	adds	r7, #24
     b64:	46bd      	mov	sp, r7
     b66:	bd80      	pop	{r7, pc}
     b68:	000119ca 	.word	0x000119ca
     b6c:	00011a5c 	.word	0x00011a5c

00000b70 <remoteproc_start_fw>:
remoteproc_start_fw():
/home/aom1/Work/Linux/target/STM32MP1-DK2/bootloader/buildroot/optee-os-custom/ta/remoteproc/remoteproc_core.c:626
     b70:	b580      	push	{r7, lr}
     b72:	b088      	sub	sp, #32
     b74:	af02      	add	r7, sp, #8
     b76:	6078      	str	r0, [r7, #4]
     b78:	6039      	str	r1, [r7, #0]
/home/aom1/Work/Linux/target/STM32MP1-DK2/bootloader/buildroot/optee-os-custom/ta/remoteproc/remoteproc_core.c:627
     b7a:	2301      	movs	r3, #1
     b7c:	613b      	str	r3, [r7, #16]
/home/aom1/Work/Linux/target/STM32MP1-DK2/bootloader/buildroot/optee-os-custom/ta/remoteproc/remoteproc_core.c:631
     b7e:	2300      	movs	r3, #0
     b80:	60fb      	str	r3, [r7, #12]
/home/aom1/Work/Linux/target/STM32MP1-DK2/bootloader/buildroot/optee-os-custom/ta/remoteproc/remoteproc_core.c:632
     b82:	2300      	movs	r3, #0
     b84:	f6cf 73ff 	movt	r3, #65535	; 0xffff
     b88:	617b      	str	r3, [r7, #20]
/home/aom1/Work/Linux/target/STM32MP1-DK2/bootloader/buildroot/optee-os-custom/ta/remoteproc/remoteproc_core.c:634
     b8a:	687a      	ldr	r2, [r7, #4]
     b8c:	693b      	ldr	r3, [r7, #16]
     b8e:	429a      	cmp	r2, r3
     b90:	d003      	beq.n	b9a <remoteproc_start_fw+0x2a>
/home/aom1/Work/Linux/target/STM32MP1-DK2/bootloader/buildroot/optee-os-custom/ta/remoteproc/remoteproc_core.c:635
     b92:	2306      	movs	r3, #6
     b94:	f6cf 73ff 	movt	r3, #65535	; 0xffff
     b98:	e03b      	b.n	c12 <remoteproc_start_fw+0xa2>
/home/aom1/Work/Linux/target/STM32MP1-DK2/bootloader/buildroot/optee-os-custom/ta/remoteproc/remoteproc_core.c:637
     b9a:	683b      	ldr	r3, [r7, #0]
     b9c:	681b      	ldr	r3, [r3, #0]
     b9e:	4618      	mov	r0, r3
     ba0:	f7ff faa3 	bl	ea <remoteproc_find_firmware>
     ba4:	60f8      	str	r0, [r7, #12]
/home/aom1/Work/Linux/target/STM32MP1-DK2/bootloader/buildroot/optee-os-custom/ta/remoteproc/remoteproc_core.c:638
     ba6:	68fb      	ldr	r3, [r7, #12]
     ba8:	2b00      	cmp	r3, #0
     baa:	d103      	bne.n	bb4 <remoteproc_start_fw+0x44>
/home/aom1/Work/Linux/target/STM32MP1-DK2/bootloader/buildroot/optee-os-custom/ta/remoteproc/remoteproc_core.c:639
     bac:	2306      	movs	r3, #6
     bae:	f6cf 73ff 	movt	r3, #65535	; 0xffff
     bb2:	e02e      	b.n	c12 <remoteproc_start_fw+0xa2>
/home/aom1/Work/Linux/target/STM32MP1-DK2/bootloader/buildroot/optee-os-custom/ta/remoteproc/remoteproc_core.c:641
     bb4:	68fb      	ldr	r3, [r7, #12]
     bb6:	699b      	ldr	r3, [r3, #24]
     bb8:	2b02      	cmp	r3, #2
     bba:	d00b      	beq.n	bd4 <remoteproc_start_fw+0x64>
     bbc:	2b02      	cmp	r3, #2
     bbe:	d821      	bhi.n	c04 <remoteproc_start_fw+0x94>
     bc0:	2b00      	cmp	r3, #0
     bc2:	d002      	beq.n	bca <remoteproc_start_fw+0x5a>
     bc4:	2b01      	cmp	r3, #1
     bc6:	d008      	beq.n	bda <remoteproc_start_fw+0x6a>
     bc8:	e01c      	b.n	c04 <remoteproc_start_fw+0x94>
/home/aom1/Work/Linux/target/STM32MP1-DK2/bootloader/buildroot/optee-os-custom/ta/remoteproc/remoteproc_core.c:643
     bca:	2307      	movs	r3, #7
     bcc:	f6cf 73ff 	movt	r3, #65535	; 0xffff
     bd0:	617b      	str	r3, [r7, #20]
/home/aom1/Work/Linux/target/STM32MP1-DK2/bootloader/buildroot/optee-os-custom/ta/remoteproc/remoteproc_core.c:644
     bd2:	e01d      	b.n	c10 <remoteproc_start_fw+0xa0>
/home/aom1/Work/Linux/target/STM32MP1-DK2/bootloader/buildroot/optee-os-custom/ta/remoteproc/remoteproc_core.c:646
     bd4:	2300      	movs	r3, #0
     bd6:	617b      	str	r3, [r7, #20]
/home/aom1/Work/Linux/target/STM32MP1-DK2/bootloader/buildroot/optee-os-custom/ta/remoteproc/remoteproc_core.c:647
     bd8:	e01a      	b.n	c10 <remoteproc_start_fw+0xa0>
/home/aom1/Work/Linux/target/STM32MP1-DK2/bootloader/buildroot/optee-os-custom/ta/remoteproc/remoteproc_core.c:649
     bda:	4b10      	ldr	r3, [pc, #64]	; (c1c <remoteproc_start_fw+0xac>)
     bdc:	447b      	add	r3, pc
     bde:	6818      	ldr	r0, [r3, #0]
     be0:	2300      	movs	r3, #0
     be2:	9301      	str	r3, [sp, #4]
     be4:	683b      	ldr	r3, [r7, #0]
     be6:	9300      	str	r3, [sp, #0]
     be8:	687b      	ldr	r3, [r7, #4]
     bea:	2205      	movs	r2, #5
     bec:	f04f 31ff 	mov.w	r1, #4294967295	; 0xffffffff
     bf0:	f002 f901 	bl	2df6 <TEE_InvokeTACommand>
     bf4:	6178      	str	r0, [r7, #20]
/home/aom1/Work/Linux/target/STM32MP1-DK2/bootloader/buildroot/optee-os-custom/ta/remoteproc/remoteproc_core.c:652
     bf6:	697b      	ldr	r3, [r7, #20]
     bf8:	2b00      	cmp	r3, #0
     bfa:	d108      	bne.n	c0e <remoteproc_start_fw+0x9e>
/home/aom1/Work/Linux/target/STM32MP1-DK2/bootloader/buildroot/optee-os-custom/ta/remoteproc/remoteproc_core.c:653
     bfc:	68fb      	ldr	r3, [r7, #12]
     bfe:	2202      	movs	r2, #2
     c00:	619a      	str	r2, [r3, #24]
/home/aom1/Work/Linux/target/STM32MP1-DK2/bootloader/buildroot/optee-os-custom/ta/remoteproc/remoteproc_core.c:654
     c02:	e004      	b.n	c0e <remoteproc_start_fw+0x9e>
/home/aom1/Work/Linux/target/STM32MP1-DK2/bootloader/buildroot/optee-os-custom/ta/remoteproc/remoteproc_core.c:656
     c04:	2307      	movs	r3, #7
     c06:	f6cf 73ff 	movt	r3, #65535	; 0xffff
     c0a:	617b      	str	r3, [r7, #20]
     c0c:	e000      	b.n	c10 <remoteproc_start_fw+0xa0>
/home/aom1/Work/Linux/target/STM32MP1-DK2/bootloader/buildroot/optee-os-custom/ta/remoteproc/remoteproc_core.c:654
     c0e:	bf00      	nop
/home/aom1/Work/Linux/target/STM32MP1-DK2/bootloader/buildroot/optee-os-custom/ta/remoteproc/remoteproc_core.c:659
     c10:	697b      	ldr	r3, [r7, #20]
/home/aom1/Work/Linux/target/STM32MP1-DK2/bootloader/buildroot/optee-os-custom/ta/remoteproc/remoteproc_core.c:660
     c12:	4618      	mov	r0, r3
     c14:	3718      	adds	r7, #24
     c16:	46bd      	mov	sp, r7
     c18:	bd80      	pop	{r7, pc}
     c1a:	bf00      	nop
     c1c:	000136dc 	.word	0x000136dc

00000c20 <remoteproc_stop_fw>:
remoteproc_stop_fw():
/home/aom1/Work/Linux/target/STM32MP1-DK2/bootloader/buildroot/optee-os-custom/ta/remoteproc/remoteproc_core.c:664
     c20:	b580      	push	{r7, lr}
     c22:	b088      	sub	sp, #32
     c24:	af02      	add	r7, sp, #8
     c26:	6078      	str	r0, [r7, #4]
     c28:	6039      	str	r1, [r7, #0]
/home/aom1/Work/Linux/target/STM32MP1-DK2/bootloader/buildroot/optee-os-custom/ta/remoteproc/remoteproc_core.c:665
     c2a:	2301      	movs	r3, #1
     c2c:	613b      	str	r3, [r7, #16]
/home/aom1/Work/Linux/target/STM32MP1-DK2/bootloader/buildroot/optee-os-custom/ta/remoteproc/remoteproc_core.c:669
     c2e:	2300      	movs	r3, #0
     c30:	60fb      	str	r3, [r7, #12]
/home/aom1/Work/Linux/target/STM32MP1-DK2/bootloader/buildroot/optee-os-custom/ta/remoteproc/remoteproc_core.c:670
     c32:	2300      	movs	r3, #0
     c34:	f6cf 73ff 	movt	r3, #65535	; 0xffff
     c38:	617b      	str	r3, [r7, #20]
/home/aom1/Work/Linux/target/STM32MP1-DK2/bootloader/buildroot/optee-os-custom/ta/remoteproc/remoteproc_core.c:672
     c3a:	687a      	ldr	r2, [r7, #4]
     c3c:	693b      	ldr	r3, [r7, #16]
     c3e:	429a      	cmp	r2, r3
     c40:	d003      	beq.n	c4a <remoteproc_stop_fw+0x2a>
/home/aom1/Work/Linux/target/STM32MP1-DK2/bootloader/buildroot/optee-os-custom/ta/remoteproc/remoteproc_core.c:673
     c42:	2306      	movs	r3, #6
     c44:	f6cf 73ff 	movt	r3, #65535	; 0xffff
     c48:	e03a      	b.n	cc0 <remoteproc_stop_fw+0xa0>
/home/aom1/Work/Linux/target/STM32MP1-DK2/bootloader/buildroot/optee-os-custom/ta/remoteproc/remoteproc_core.c:675
     c4a:	683b      	ldr	r3, [r7, #0]
     c4c:	681b      	ldr	r3, [r3, #0]
     c4e:	4618      	mov	r0, r3
     c50:	f7ff fa4b 	bl	ea <remoteproc_find_firmware>
     c54:	60f8      	str	r0, [r7, #12]
/home/aom1/Work/Linux/target/STM32MP1-DK2/bootloader/buildroot/optee-os-custom/ta/remoteproc/remoteproc_core.c:676
     c56:	68fb      	ldr	r3, [r7, #12]
     c58:	2b00      	cmp	r3, #0
     c5a:	d103      	bne.n	c64 <remoteproc_stop_fw+0x44>
/home/aom1/Work/Linux/target/STM32MP1-DK2/bootloader/buildroot/optee-os-custom/ta/remoteproc/remoteproc_core.c:677
     c5c:	2306      	movs	r3, #6
     c5e:	f6cf 73ff 	movt	r3, #65535	; 0xffff
     c62:	e02d      	b.n	cc0 <remoteproc_stop_fw+0xa0>
/home/aom1/Work/Linux/target/STM32MP1-DK2/bootloader/buildroot/optee-os-custom/ta/remoteproc/remoteproc_core.c:679
     c64:	68fb      	ldr	r3, [r7, #12]
     c66:	699b      	ldr	r3, [r3, #24]
     c68:	2b02      	cmp	r3, #2
     c6a:	d00d      	beq.n	c88 <remoteproc_stop_fw+0x68>
     c6c:	2b02      	cmp	r3, #2
     c6e:	d820      	bhi.n	cb2 <remoteproc_stop_fw+0x92>
     c70:	2b00      	cmp	r3, #0
     c72:	d006      	beq.n	c82 <remoteproc_stop_fw+0x62>
     c74:	2b01      	cmp	r3, #1
     c76:	d11c      	bne.n	cb2 <remoteproc_stop_fw+0x92>
/home/aom1/Work/Linux/target/STM32MP1-DK2/bootloader/buildroot/optee-os-custom/ta/remoteproc/remoteproc_core.c:681
     c78:	2307      	movs	r3, #7
     c7a:	f6cf 73ff 	movt	r3, #65535	; 0xffff
     c7e:	617b      	str	r3, [r7, #20]
/home/aom1/Work/Linux/target/STM32MP1-DK2/bootloader/buildroot/optee-os-custom/ta/remoteproc/remoteproc_core.c:682
     c80:	e01d      	b.n	cbe <remoteproc_stop_fw+0x9e>
/home/aom1/Work/Linux/target/STM32MP1-DK2/bootloader/buildroot/optee-os-custom/ta/remoteproc/remoteproc_core.c:684
     c82:	2300      	movs	r3, #0
     c84:	617b      	str	r3, [r7, #20]
/home/aom1/Work/Linux/target/STM32MP1-DK2/bootloader/buildroot/optee-os-custom/ta/remoteproc/remoteproc_core.c:685
     c86:	e01a      	b.n	cbe <remoteproc_stop_fw+0x9e>
/home/aom1/Work/Linux/target/STM32MP1-DK2/bootloader/buildroot/optee-os-custom/ta/remoteproc/remoteproc_core.c:687
     c88:	4b0f      	ldr	r3, [pc, #60]	; (cc8 <remoteproc_stop_fw+0xa8>)
     c8a:	447b      	add	r3, pc
     c8c:	6818      	ldr	r0, [r3, #0]
     c8e:	2300      	movs	r3, #0
     c90:	9301      	str	r3, [sp, #4]
     c92:	683b      	ldr	r3, [r7, #0]
     c94:	9300      	str	r3, [sp, #0]
     c96:	687b      	ldr	r3, [r7, #4]
     c98:	2206      	movs	r2, #6
     c9a:	f04f 31ff 	mov.w	r1, #4294967295	; 0xffffffff
     c9e:	f002 f8aa 	bl	2df6 <TEE_InvokeTACommand>
     ca2:	6178      	str	r0, [r7, #20]
/home/aom1/Work/Linux/target/STM32MP1-DK2/bootloader/buildroot/optee-os-custom/ta/remoteproc/remoteproc_core.c:690
     ca4:	697b      	ldr	r3, [r7, #20]
     ca6:	2b00      	cmp	r3, #0
     ca8:	d108      	bne.n	cbc <remoteproc_stop_fw+0x9c>
/home/aom1/Work/Linux/target/STM32MP1-DK2/bootloader/buildroot/optee-os-custom/ta/remoteproc/remoteproc_core.c:691
     caa:	68fb      	ldr	r3, [r7, #12]
     cac:	2200      	movs	r2, #0
     cae:	619a      	str	r2, [r3, #24]
/home/aom1/Work/Linux/target/STM32MP1-DK2/bootloader/buildroot/optee-os-custom/ta/remoteproc/remoteproc_core.c:692
     cb0:	e004      	b.n	cbc <remoteproc_stop_fw+0x9c>
/home/aom1/Work/Linux/target/STM32MP1-DK2/bootloader/buildroot/optee-os-custom/ta/remoteproc/remoteproc_core.c:694
     cb2:	2307      	movs	r3, #7
     cb4:	f6cf 73ff 	movt	r3, #65535	; 0xffff
     cb8:	617b      	str	r3, [r7, #20]
     cba:	e000      	b.n	cbe <remoteproc_stop_fw+0x9e>
/home/aom1/Work/Linux/target/STM32MP1-DK2/bootloader/buildroot/optee-os-custom/ta/remoteproc/remoteproc_core.c:692
     cbc:	bf00      	nop
/home/aom1/Work/Linux/target/STM32MP1-DK2/bootloader/buildroot/optee-os-custom/ta/remoteproc/remoteproc_core.c:697
     cbe:	697b      	ldr	r3, [r7, #20]
/home/aom1/Work/Linux/target/STM32MP1-DK2/bootloader/buildroot/optee-os-custom/ta/remoteproc/remoteproc_core.c:698
     cc0:	4618      	mov	r0, r3
     cc2:	3718      	adds	r7, #24
     cc4:	46bd      	mov	sp, r7
     cc6:	bd80      	pop	{r7, pc}
     cc8:	0001362e 	.word	0x0001362e

00000ccc <remoteproc_get_rsc_table>:
remoteproc_get_rsc_table():
/home/aom1/Work/Linux/target/STM32MP1-DK2/bootloader/buildroot/optee-os-custom/ta/remoteproc/remoteproc_core.c:702
     ccc:	e92d 43b0 	stmdb	sp!, {r4, r5, r7, r8, r9, lr}
     cd0:	b084      	sub	sp, #16
     cd2:	af00      	add	r7, sp, #0
     cd4:	6078      	str	r0, [r7, #4]
     cd6:	6039      	str	r1, [r7, #0]
/home/aom1/Work/Linux/target/STM32MP1-DK2/bootloader/buildroot/optee-os-custom/ta/remoteproc/remoteproc_core.c:703
     cd8:	f240 2321 	movw	r3, #545	; 0x221
     cdc:	60fb      	str	r3, [r7, #12]
/home/aom1/Work/Linux/target/STM32MP1-DK2/bootloader/buildroot/optee-os-custom/ta/remoteproc/remoteproc_core.c:707
     cde:	2300      	movs	r3, #0
     ce0:	60bb      	str	r3, [r7, #8]
/home/aom1/Work/Linux/target/STM32MP1-DK2/bootloader/buildroot/optee-os-custom/ta/remoteproc/remoteproc_core.c:709
     ce2:	687a      	ldr	r2, [r7, #4]
     ce4:	68fb      	ldr	r3, [r7, #12]
     ce6:	429a      	cmp	r2, r3
     ce8:	d003      	beq.n	cf2 <remoteproc_get_rsc_table+0x26>
/home/aom1/Work/Linux/target/STM32MP1-DK2/bootloader/buildroot/optee-os-custom/ta/remoteproc/remoteproc_core.c:710
     cea:	2306      	movs	r3, #6
     cec:	f6cf 73ff 	movt	r3, #65535	; 0xffff
     cf0:	e031      	b.n	d56 <remoteproc_get_rsc_table+0x8a>
/home/aom1/Work/Linux/target/STM32MP1-DK2/bootloader/buildroot/optee-os-custom/ta/remoteproc/remoteproc_core.c:712
     cf2:	683b      	ldr	r3, [r7, #0]
     cf4:	681b      	ldr	r3, [r3, #0]
     cf6:	4618      	mov	r0, r3
     cf8:	f7ff f9f7 	bl	ea <remoteproc_find_firmware>
     cfc:	60b8      	str	r0, [r7, #8]
/home/aom1/Work/Linux/target/STM32MP1-DK2/bootloader/buildroot/optee-os-custom/ta/remoteproc/remoteproc_core.c:713
     cfe:	68bb      	ldr	r3, [r7, #8]
     d00:	2b00      	cmp	r3, #0
     d02:	d103      	bne.n	d0c <remoteproc_get_rsc_table+0x40>
/home/aom1/Work/Linux/target/STM32MP1-DK2/bootloader/buildroot/optee-os-custom/ta/remoteproc/remoteproc_core.c:714
     d04:	2306      	movs	r3, #6
     d06:	f6cf 73ff 	movt	r3, #65535	; 0xffff
     d0a:	e024      	b.n	d56 <remoteproc_get_rsc_table+0x8a>
/home/aom1/Work/Linux/target/STM32MP1-DK2/bootloader/buildroot/optee-os-custom/ta/remoteproc/remoteproc_core.c:716
     d0c:	68bb      	ldr	r3, [r7, #8]
     d0e:	699b      	ldr	r3, [r3, #24]
     d10:	2b00      	cmp	r3, #0
     d12:	d103      	bne.n	d1c <remoteproc_get_rsc_table+0x50>
/home/aom1/Work/Linux/target/STM32MP1-DK2/bootloader/buildroot/optee-os-custom/ta/remoteproc/remoteproc_core.c:717
     d14:	2307      	movs	r3, #7
     d16:	f6cf 73ff 	movt	r3, #65535	; 0xffff
     d1a:	e01c      	b.n	d56 <remoteproc_get_rsc_table+0x8a>
/home/aom1/Work/Linux/target/STM32MP1-DK2/bootloader/buildroot/optee-os-custom/ta/remoteproc/remoteproc_core.c:719
     d1c:	68bb      	ldr	r3, [r7, #8]
     d1e:	691b      	ldr	r3, [r3, #16]
     d20:	2200      	movs	r2, #0
     d22:	4698      	mov	r8, r3
     d24:	4691      	mov	r9, r2
/home/aom1/Work/Linux/target/STM32MP1-DK2/bootloader/buildroot/optee-os-custom/ta/remoteproc/remoteproc_core.c:720
     d26:	683b      	ldr	r3, [r7, #0]
     d28:	3308      	adds	r3, #8
/home/aom1/Work/Linux/target/STM32MP1-DK2/bootloader/buildroot/optee-os-custom/ta/remoteproc/remoteproc_core.c:719
     d2a:	1d1a      	adds	r2, r3, #4
/home/aom1/Work/Linux/target/STM32MP1-DK2/bootloader/buildroot/optee-os-custom/ta/remoteproc/remoteproc_core.c:720
     d2c:	683b      	ldr	r3, [r7, #0]
     d2e:	3308      	adds	r3, #8
/home/aom1/Work/Linux/target/STM32MP1-DK2/bootloader/buildroot/optee-os-custom/ta/remoteproc/remoteproc_core.c:719
     d30:	4640      	mov	r0, r8
     d32:	4649      	mov	r1, r9
     d34:	f7ff f995 	bl	62 <reg_pair_from_64>
/home/aom1/Work/Linux/target/STM32MP1-DK2/bootloader/buildroot/optee-os-custom/ta/remoteproc/remoteproc_core.c:721
     d38:	68bb      	ldr	r3, [r7, #8]
     d3a:	695b      	ldr	r3, [r3, #20]
     d3c:	2200      	movs	r2, #0
     d3e:	461c      	mov	r4, r3
     d40:	4615      	mov	r5, r2
/home/aom1/Work/Linux/target/STM32MP1-DK2/bootloader/buildroot/optee-os-custom/ta/remoteproc/remoteproc_core.c:722
     d42:	683b      	ldr	r3, [r7, #0]
     d44:	3310      	adds	r3, #16
/home/aom1/Work/Linux/target/STM32MP1-DK2/bootloader/buildroot/optee-os-custom/ta/remoteproc/remoteproc_core.c:721
     d46:	1d1a      	adds	r2, r3, #4
/home/aom1/Work/Linux/target/STM32MP1-DK2/bootloader/buildroot/optee-os-custom/ta/remoteproc/remoteproc_core.c:722
     d48:	683b      	ldr	r3, [r7, #0]
     d4a:	3310      	adds	r3, #16
/home/aom1/Work/Linux/target/STM32MP1-DK2/bootloader/buildroot/optee-os-custom/ta/remoteproc/remoteproc_core.c:721
     d4c:	4620      	mov	r0, r4
     d4e:	4629      	mov	r1, r5
     d50:	f7ff f987 	bl	62 <reg_pair_from_64>
/home/aom1/Work/Linux/target/STM32MP1-DK2/bootloader/buildroot/optee-os-custom/ta/remoteproc/remoteproc_core.c:724
     d54:	2300      	movs	r3, #0
/home/aom1/Work/Linux/target/STM32MP1-DK2/bootloader/buildroot/optee-os-custom/ta/remoteproc/remoteproc_core.c:725
     d56:	4618      	mov	r0, r3
     d58:	3710      	adds	r7, #16
     d5a:	46bd      	mov	sp, r7
     d5c:	e8bd 83b0 	ldmia.w	sp!, {r4, r5, r7, r8, r9, pc}

00000d60 <TA_CreateEntryPoint>:
TA_CreateEntryPoint():
/home/aom1/Work/Linux/target/STM32MP1-DK2/bootloader/buildroot/optee-os-custom/ta/remoteproc/remoteproc_core.c:728
     d60:	b480      	push	{r7}
     d62:	af00      	add	r7, sp, #0
/home/aom1/Work/Linux/target/STM32MP1-DK2/bootloader/buildroot/optee-os-custom/ta/remoteproc/remoteproc_core.c:729
     d64:	2300      	movs	r3, #0
/home/aom1/Work/Linux/target/STM32MP1-DK2/bootloader/buildroot/optee-os-custom/ta/remoteproc/remoteproc_core.c:730
     d66:	4618      	mov	r0, r3
     d68:	46bd      	mov	sp, r7
     d6a:	f85d 7b04 	ldr.w	r7, [sp], #4
     d6e:	4770      	bx	lr

00000d70 <TA_DestroyEntryPoint>:
TA_DestroyEntryPoint():
/home/aom1/Work/Linux/target/STM32MP1-DK2/bootloader/buildroot/optee-os-custom/ta/remoteproc/remoteproc_core.c:733
     d70:	b480      	push	{r7}
     d72:	af00      	add	r7, sp, #0
/home/aom1/Work/Linux/target/STM32MP1-DK2/bootloader/buildroot/optee-os-custom/ta/remoteproc/remoteproc_core.c:734
     d74:	bf00      	nop
     d76:	46bd      	mov	sp, r7
     d78:	f85d 7b04 	ldr.w	r7, [sp], #4
     d7c:	4770      	bx	lr

00000d7e <TA_OpenSessionEntryPoint>:
TA_OpenSessionEntryPoint():
/home/aom1/Work/Linux/target/STM32MP1-DK2/bootloader/buildroot/optee-os-custom/ta/remoteproc/remoteproc_core.c:739
     d7e:	b580      	push	{r7, lr}
     d80:	b088      	sub	sp, #32
     d82:	af02      	add	r7, sp, #8
     d84:	60f8      	str	r0, [r7, #12]
     d86:	60b9      	str	r1, [r7, #8]
     d88:	607a      	str	r2, [r7, #4]
/home/aom1/Work/Linux/target/STM32MP1-DK2/bootloader/buildroot/optee-os-custom/ta/remoteproc/remoteproc_core.c:741
     d8a:	2300      	movs	r3, #0
     d8c:	f6cf 73ff 	movt	r3, #65535	; 0xffff
     d90:	617b      	str	r3, [r7, #20]
/home/aom1/Work/Linux/target/STM32MP1-DK2/bootloader/buildroot/optee-os-custom/ta/remoteproc/remoteproc_core.c:743
     d92:	4b12      	ldr	r3, [pc, #72]	; (ddc <TA_OpenSessionEntryPoint+0x5e>)
     d94:	447b      	add	r3, pc
     d96:	681b      	ldr	r3, [r3, #0]
     d98:	2b00      	cmp	r3, #0
     d9a:	d112      	bne.n	dc2 <TA_OpenSessionEntryPoint+0x44>
/home/aom1/Work/Linux/target/STM32MP1-DK2/bootloader/buildroot/optee-os-custom/ta/remoteproc/remoteproc_core.c:744
     d9c:	2300      	movs	r3, #0
     d9e:	9301      	str	r3, [sp, #4]
     da0:	4b0f      	ldr	r3, [pc, #60]	; (de0 <TA_OpenSessionEntryPoint+0x62>)
     da2:	447b      	add	r3, pc
     da4:	9300      	str	r3, [sp, #0]
     da6:	2300      	movs	r3, #0
     da8:	2200      	movs	r2, #0
     daa:	f04f 31ff 	mov.w	r1, #4294967295	; 0xffffffff
     dae:	480d      	ldr	r0, [pc, #52]	; (de4 <TA_OpenSessionEntryPoint+0x66>)
     db0:	4478      	add	r0, pc
     db2:	f001 ff9c 	bl	2cee <TEE_OpenTASession>
     db6:	6178      	str	r0, [r7, #20]
/home/aom1/Work/Linux/target/STM32MP1-DK2/bootloader/buildroot/optee-os-custom/ta/remoteproc/remoteproc_core.c:746
     db8:	697b      	ldr	r3, [r7, #20]
     dba:	2b00      	cmp	r3, #0
     dbc:	d001      	beq.n	dc2 <TA_OpenSessionEntryPoint+0x44>
/home/aom1/Work/Linux/target/STM32MP1-DK2/bootloader/buildroot/optee-os-custom/ta/remoteproc/remoteproc_core.c:747
     dbe:	697b      	ldr	r3, [r7, #20]
     dc0:	e007      	b.n	dd2 <TA_OpenSessionEntryPoint+0x54>
/home/aom1/Work/Linux/target/STM32MP1-DK2/bootloader/buildroot/optee-os-custom/ta/remoteproc/remoteproc_core.c:750
     dc2:	4b09      	ldr	r3, [pc, #36]	; (de8 <TA_OpenSessionEntryPoint+0x6a>)
     dc4:	447b      	add	r3, pc
     dc6:	681b      	ldr	r3, [r3, #0]
     dc8:	1c5a      	adds	r2, r3, #1
     dca:	4b08      	ldr	r3, [pc, #32]	; (dec <TA_OpenSessionEntryPoint+0x6e>)
     dcc:	447b      	add	r3, pc
     dce:	601a      	str	r2, [r3, #0]
/home/aom1/Work/Linux/target/STM32MP1-DK2/bootloader/buildroot/optee-os-custom/ta/remoteproc/remoteproc_core.c:752
     dd0:	2300      	movs	r3, #0
/home/aom1/Work/Linux/target/STM32MP1-DK2/bootloader/buildroot/optee-os-custom/ta/remoteproc/remoteproc_core.c:753
     dd2:	4618      	mov	r0, r3
     dd4:	3718      	adds	r7, #24
     dd6:	46bd      	mov	sp, r7
     dd8:	bd80      	pop	{r7, pc}
     dda:	bf00      	nop
     ddc:	00013520 	.word	0x00013520
     de0:	00013516 	.word	0x00013516
     de4:	000117e0 	.word	0x000117e0
     de8:	000134f0 	.word	0x000134f0
     dec:	000134e8 	.word	0x000134e8

00000df0 <TA_CloseSessionEntryPoint>:
TA_CloseSessionEntryPoint():
/home/aom1/Work/Linux/target/STM32MP1-DK2/bootloader/buildroot/optee-os-custom/ta/remoteproc/remoteproc_core.c:756
     df0:	b580      	push	{r7, lr}
     df2:	b082      	sub	sp, #8
     df4:	af00      	add	r7, sp, #0
     df6:	6078      	str	r0, [r7, #4]
/home/aom1/Work/Linux/target/STM32MP1-DK2/bootloader/buildroot/optee-os-custom/ta/remoteproc/remoteproc_core.c:757
     df8:	4b0a      	ldr	r3, [pc, #40]	; (e24 <TA_CloseSessionEntryPoint+0x34>)
     dfa:	447b      	add	r3, pc
     dfc:	681b      	ldr	r3, [r3, #0]
     dfe:	1e5a      	subs	r2, r3, #1
     e00:	4b09      	ldr	r3, [pc, #36]	; (e28 <TA_CloseSessionEntryPoint+0x38>)
     e02:	447b      	add	r3, pc
     e04:	601a      	str	r2, [r3, #0]
/home/aom1/Work/Linux/target/STM32MP1-DK2/bootloader/buildroot/optee-os-custom/ta/remoteproc/remoteproc_core.c:759
     e06:	4b09      	ldr	r3, [pc, #36]	; (e2c <TA_CloseSessionEntryPoint+0x3c>)
     e08:	447b      	add	r3, pc
     e0a:	681b      	ldr	r3, [r3, #0]
     e0c:	2b00      	cmp	r3, #0
     e0e:	d105      	bne.n	e1c <TA_CloseSessionEntryPoint+0x2c>
/home/aom1/Work/Linux/target/STM32MP1-DK2/bootloader/buildroot/optee-os-custom/ta/remoteproc/remoteproc_core.c:760
     e10:	4b07      	ldr	r3, [pc, #28]	; (e30 <TA_CloseSessionEntryPoint+0x40>)
     e12:	447b      	add	r3, pc
     e14:	681b      	ldr	r3, [r3, #0]
     e16:	4618      	mov	r0, r3
     e18:	f001 ffd7 	bl	2dca <TEE_CloseTASession>
/home/aom1/Work/Linux/target/STM32MP1-DK2/bootloader/buildroot/optee-os-custom/ta/remoteproc/remoteproc_core.c:761
     e1c:	bf00      	nop
     e1e:	3708      	adds	r7, #8
     e20:	46bd      	mov	sp, r7
     e22:	bd80      	pop	{r7, pc}
     e24:	000134ba 	.word	0x000134ba
     e28:	000134b2 	.word	0x000134b2
     e2c:	000134ac 	.word	0x000134ac
     e30:	000134a6 	.word	0x000134a6

00000e34 <TA_InvokeCommandEntryPoint>:
TA_InvokeCommandEntryPoint():
/home/aom1/Work/Linux/target/STM32MP1-DK2/bootloader/buildroot/optee-os-custom/ta/remoteproc/remoteproc_core.c:766
     e34:	b580      	push	{r7, lr}
     e36:	b084      	sub	sp, #16
     e38:	af00      	add	r7, sp, #0
     e3a:	60f8      	str	r0, [r7, #12]
     e3c:	60b9      	str	r1, [r7, #8]
     e3e:	607a      	str	r2, [r7, #4]
     e40:	603b      	str	r3, [r7, #0]
/home/aom1/Work/Linux/target/STM32MP1-DK2/bootloader/buildroot/optee-os-custom/ta/remoteproc/remoteproc_core.c:767
     e42:	68bb      	ldr	r3, [r7, #8]
     e44:	3b01      	subs	r3, #1
     e46:	2b04      	cmp	r3, #4
     e48:	d82a      	bhi.n	ea0 <TA_InvokeCommandEntryPoint+0x6c>
     e4a:	a202      	add	r2, pc, #8	; (adr r2, e54 <TA_InvokeCommandEntryPoint+0x20>)
     e4c:	f852 3023 	ldr.w	r3, [r2, r3, lsl #2]
     e50:	441a      	add	r2, r3
     e52:	4710      	bx	r2
     e54:	00000015 	.word	0x00000015
     e58:	00000021 	.word	0x00000021
     e5c:	0000002d 	.word	0x0000002d
     e60:	00000039 	.word	0x00000039
     e64:	00000045 	.word	0x00000045
/home/aom1/Work/Linux/target/STM32MP1-DK2/bootloader/buildroot/optee-os-custom/ta/remoteproc/remoteproc_core.c:769
     e68:	6839      	ldr	r1, [r7, #0]
     e6a:	6878      	ldr	r0, [r7, #4]
     e6c:	f7ff fe00 	bl	a70 <remoteproc_load_fw>
     e70:	4603      	mov	r3, r0
     e72:	e018      	b.n	ea6 <TA_InvokeCommandEntryPoint+0x72>
/home/aom1/Work/Linux/target/STM32MP1-DK2/bootloader/buildroot/optee-os-custom/ta/remoteproc/remoteproc_core.c:771
     e74:	6839      	ldr	r1, [r7, #0]
     e76:	6878      	ldr	r0, [r7, #4]
     e78:	f7ff fe7a 	bl	b70 <remoteproc_start_fw>
     e7c:	4603      	mov	r3, r0
     e7e:	e012      	b.n	ea6 <TA_InvokeCommandEntryPoint+0x72>
/home/aom1/Work/Linux/target/STM32MP1-DK2/bootloader/buildroot/optee-os-custom/ta/remoteproc/remoteproc_core.c:773
     e80:	6839      	ldr	r1, [r7, #0]
     e82:	6878      	ldr	r0, [r7, #4]
     e84:	f7ff fecc 	bl	c20 <remoteproc_stop_fw>
     e88:	4603      	mov	r3, r0
     e8a:	e00c      	b.n	ea6 <TA_InvokeCommandEntryPoint+0x72>
/home/aom1/Work/Linux/target/STM32MP1-DK2/bootloader/buildroot/optee-os-custom/ta/remoteproc/remoteproc_core.c:775
     e8c:	6839      	ldr	r1, [r7, #0]
     e8e:	6878      	ldr	r0, [r7, #4]
     e90:	f7ff ff1c 	bl	ccc <remoteproc_get_rsc_table>
     e94:	4603      	mov	r3, r0
     e96:	e006      	b.n	ea6 <TA_InvokeCommandEntryPoint+0x72>
/home/aom1/Work/Linux/target/STM32MP1-DK2/bootloader/buildroot/optee-os-custom/ta/remoteproc/remoteproc_core.c:777
     e98:	2309      	movs	r3, #9
     e9a:	f6cf 73ff 	movt	r3, #65535	; 0xffff
     e9e:	e002      	b.n	ea6 <TA_InvokeCommandEntryPoint+0x72>
/home/aom1/Work/Linux/target/STM32MP1-DK2/bootloader/buildroot/optee-os-custom/ta/remoteproc/remoteproc_core.c:779
     ea0:	2306      	movs	r3, #6
     ea2:	f6cf 73ff 	movt	r3, #65535	; 0xffff
/home/aom1/Work/Linux/target/STM32MP1-DK2/bootloader/buildroot/optee-os-custom/ta/remoteproc/remoteproc_core.c:781
     ea6:	4618      	mov	r0, r3
     ea8:	3710      	adds	r7, #16
     eaa:	46bd      	mov	sp, r7
     eac:	bd80      	pop	{r7, pc}
     eae:	bf00      	nop

00000eb0 <va_in_fwm_image_range>:
va_in_fwm_image_range():
/home/aom1/Work/Linux/target/STM32MP1-DK2/bootloader/buildroot/optee-os-custom/ta/remoteproc/elf_parser.c:14
     eb0:	b580      	push	{r7, lr}
     eb2:	b086      	sub	sp, #24
     eb4:	af00      	add	r7, sp, #0
     eb6:	60f8      	str	r0, [r7, #12]
     eb8:	60b9      	str	r1, [r7, #8]
     eba:	607a      	str	r2, [r7, #4]
/home/aom1/Work/Linux/target/STM32MP1-DK2/bootloader/buildroot/optee-os-custom/ta/remoteproc/elf_parser.c:15
     ebc:	68fb      	ldr	r3, [r7, #12]
     ebe:	617b      	str	r3, [r7, #20]
/home/aom1/Work/Linux/target/STM32MP1-DK2/bootloader/buildroot/optee-os-custom/ta/remoteproc/elf_parser.c:17
     ec0:	687b      	ldr	r3, [r7, #4]
     ec2:	2b00      	cmp	r3, #0
     ec4:	da0a      	bge.n	edc <va_in_fwm_image_range+0x2c>
/home/aom1/Work/Linux/target/STM32MP1-DK2/bootloader/buildroot/optee-os-custom/ta/remoteproc/elf_parser.c:17 (discriminator 1)
     ec6:	4b0f      	ldr	r3, [pc, #60]	; (f04 <va_in_fwm_image_range+0x54>)
     ec8:	447b      	add	r3, pc
     eca:	2211      	movs	r2, #17
     ecc:	490e      	ldr	r1, [pc, #56]	; (f08 <va_in_fwm_image_range+0x58>)
     ece:	4479      	add	r1, pc
     ed0:	480e      	ldr	r0, [pc, #56]	; (f0c <va_in_fwm_image_range+0x5c>)
     ed2:	4478      	add	r0, pc
     ed4:	f001 fcc2 	bl	285c <_assert_log>
     ed8:	f001 fcde 	bl	2898 <_assert_break>
/home/aom1/Work/Linux/target/STM32MP1-DK2/bootloader/buildroot/optee-os-custom/ta/remoteproc/elf_parser.c:18
     edc:	697a      	ldr	r2, [r7, #20]
     ede:	68bb      	ldr	r3, [r7, #8]
     ee0:	429a      	cmp	r2, r3
     ee2:	d307      	bcc.n	ef4 <va_in_fwm_image_range+0x44>
/home/aom1/Work/Linux/target/STM32MP1-DK2/bootloader/buildroot/optee-os-custom/ta/remoteproc/elf_parser.c:18 (discriminator 1)
     ee4:	68ba      	ldr	r2, [r7, #8]
     ee6:	687b      	ldr	r3, [r7, #4]
     ee8:	4413      	add	r3, r2
     eea:	697a      	ldr	r2, [r7, #20]
     eec:	429a      	cmp	r2, r3
     eee:	d201      	bcs.n	ef4 <va_in_fwm_image_range+0x44>
/home/aom1/Work/Linux/target/STM32MP1-DK2/bootloader/buildroot/optee-os-custom/ta/remoteproc/elf_parser.c:18 (discriminator 3)
     ef0:	2301      	movs	r3, #1
     ef2:	e000      	b.n	ef6 <va_in_fwm_image_range+0x46>
/home/aom1/Work/Linux/target/STM32MP1-DK2/bootloader/buildroot/optee-os-custom/ta/remoteproc/elf_parser.c:18 (discriminator 4)
     ef4:	2300      	movs	r3, #0
/home/aom1/Work/Linux/target/STM32MP1-DK2/bootloader/buildroot/optee-os-custom/ta/remoteproc/elf_parser.c:18 (discriminator 6)
     ef6:	f003 0301 	and.w	r3, r3, #1
     efa:	b2db      	uxtb	r3, r3
/home/aom1/Work/Linux/target/STM32MP1-DK2/bootloader/buildroot/optee-os-custom/ta/remoteproc/elf_parser.c:19 (discriminator 6)
     efc:	4618      	mov	r0, r3
     efe:	3718      	adds	r7, #24
     f00:	46bd      	mov	sp, r7
     f02:	bd80      	pop	{r7, pc}
     f04:	000117ec 	.word	0x000117ec
     f08:	000116d2 	.word	0x000116d2
     f0c:	000116ea 	.word	0x000116ea

00000f10 <e32_parse_ehdr>:
e32_parse_ehdr():
/home/aom1/Work/Linux/target/STM32MP1-DK2/bootloader/buildroot/optee-os-custom/ta/remoteproc/elf_parser.c:28
     f10:	b580      	push	{r7, lr}
     f12:	b086      	sub	sp, #24
     f14:	af02      	add	r7, sp, #8
     f16:	6078      	str	r0, [r7, #4]
     f18:	6039      	str	r1, [r7, #0]
/home/aom1/Work/Linux/target/STM32MP1-DK2/bootloader/buildroot/optee-os-custom/ta/remoteproc/elf_parser.c:29
     f1a:	687b      	ldr	r3, [r7, #4]
     f1c:	60fb      	str	r3, [r7, #12]
/home/aom1/Work/Linux/target/STM32MP1-DK2/bootloader/buildroot/optee-os-custom/ta/remoteproc/elf_parser.c:31
     f1e:	687b      	ldr	r3, [r7, #4]
     f20:	2b00      	cmp	r3, #0
     f22:	d009      	beq.n	f38 <e32_parse_ehdr+0x28>
/home/aom1/Work/Linux/target/STM32MP1-DK2/bootloader/buildroot/optee-os-custom/ta/remoteproc/elf_parser.c:31 (discriminator 1)
     f24:	687b      	ldr	r3, [r7, #4]
     f26:	f003 0303 	and.w	r3, r3, #3
     f2a:	2b00      	cmp	r3, #0
     f2c:	bf0c      	ite	eq
     f2e:	2301      	moveq	r3, #1
     f30:	2300      	movne	r3, #0
     f32:	b2db      	uxtb	r3, r3
     f34:	2b00      	cmp	r3, #0
     f36:	d10f      	bne.n	f58 <e32_parse_ehdr+0x48>
/home/aom1/Work/Linux/target/STM32MP1-DK2/bootloader/buildroot/optee-os-custom/ta/remoteproc/elf_parser.c:32
     f38:	687b      	ldr	r3, [r7, #4]
     f3a:	9301      	str	r3, [sp, #4]
     f3c:	4b2f      	ldr	r3, [pc, #188]	; (ffc <e32_parse_ehdr+0xec>)
     f3e:	447b      	add	r3, pc
     f40:	9300      	str	r3, [sp, #0]
     f42:	2301      	movs	r3, #1
     f44:	2201      	movs	r2, #1
     f46:	2120      	movs	r1, #32
     f48:	482d      	ldr	r0, [pc, #180]	; (1000 <e32_parse_ehdr+0xf0>)
     f4a:	4478      	add	r0, pc
     f4c:	f000 fae2 	bl	1514 <trace_printf>
/home/aom1/Work/Linux/target/STM32MP1-DK2/bootloader/buildroot/optee-os-custom/ta/remoteproc/elf_parser.c:33
     f50:	2306      	movs	r3, #6
     f52:	f6cf 73ff 	movt	r3, #65535	; 0xffff
     f56:	e04d      	b.n	ff4 <e32_parse_ehdr+0xe4>
/home/aom1/Work/Linux/target/STM32MP1-DK2/bootloader/buildroot/optee-os-custom/ta/remoteproc/elf_parser.c:36
     f58:	683b      	ldr	r3, [r7, #0]
     f5a:	2b33      	cmp	r3, #51	; 0x33
     f5c:	d905      	bls.n	f6a <e32_parse_ehdr+0x5a>
/home/aom1/Work/Linux/target/STM32MP1-DK2/bootloader/buildroot/optee-os-custom/ta/remoteproc/elf_parser.c:37 (discriminator 1)
     f5e:	68fb      	ldr	r3, [r7, #12]
     f60:	6a1b      	ldr	r3, [r3, #32]
     f62:	3328      	adds	r3, #40	; 0x28
/home/aom1/Work/Linux/target/STM32MP1-DK2/bootloader/buildroot/optee-os-custom/ta/remoteproc/elf_parser.c:36 (discriminator 1)
     f64:	683a      	ldr	r2, [r7, #0]
     f66:	429a      	cmp	r2, r3
     f68:	d203      	bcs.n	f72 <e32_parse_ehdr+0x62>
/home/aom1/Work/Linux/target/STM32MP1-DK2/bootloader/buildroot/optee-os-custom/ta/remoteproc/elf_parser.c:38
     f6a:	2301      	movs	r3, #1
     f6c:	f2cf 0310 	movt	r3, #61456	; 0xf010
     f70:	e040      	b.n	ff4 <e32_parse_ehdr+0xe4>
/home/aom1/Work/Linux/target/STM32MP1-DK2/bootloader/buildroot/optee-os-custom/ta/remoteproc/elf_parser.c:40
     f72:	68fb      	ldr	r3, [r7, #12]
     f74:	781b      	ldrb	r3, [r3, #0]
     f76:	2b7f      	cmp	r3, #127	; 0x7f
     f78:	d11b      	bne.n	fb2 <e32_parse_ehdr+0xa2>
/home/aom1/Work/Linux/target/STM32MP1-DK2/bootloader/buildroot/optee-os-custom/ta/remoteproc/elf_parser.c:40 (discriminator 1)
     f7a:	68fb      	ldr	r3, [r7, #12]
     f7c:	785b      	ldrb	r3, [r3, #1]
     f7e:	2b45      	cmp	r3, #69	; 0x45
     f80:	d117      	bne.n	fb2 <e32_parse_ehdr+0xa2>
/home/aom1/Work/Linux/target/STM32MP1-DK2/bootloader/buildroot/optee-os-custom/ta/remoteproc/elf_parser.c:40 (discriminator 2)
     f82:	68fb      	ldr	r3, [r7, #12]
     f84:	789b      	ldrb	r3, [r3, #2]
     f86:	2b4c      	cmp	r3, #76	; 0x4c
     f88:	d113      	bne.n	fb2 <e32_parse_ehdr+0xa2>
/home/aom1/Work/Linux/target/STM32MP1-DK2/bootloader/buildroot/optee-os-custom/ta/remoteproc/elf_parser.c:40 (discriminator 3)
     f8a:	68fb      	ldr	r3, [r7, #12]
     f8c:	78db      	ldrb	r3, [r3, #3]
     f8e:	2b46      	cmp	r3, #70	; 0x46
     f90:	d10f      	bne.n	fb2 <e32_parse_ehdr+0xa2>
/home/aom1/Work/Linux/target/STM32MP1-DK2/bootloader/buildroot/optee-os-custom/ta/remoteproc/elf_parser.c:41 (discriminator 4)
     f92:	68fb      	ldr	r3, [r7, #12]
     f94:	799b      	ldrb	r3, [r3, #6]
/home/aom1/Work/Linux/target/STM32MP1-DK2/bootloader/buildroot/optee-os-custom/ta/remoteproc/elf_parser.c:40 (discriminator 4)
     f96:	2b01      	cmp	r3, #1
     f98:	d10b      	bne.n	fb2 <e32_parse_ehdr+0xa2>
/home/aom1/Work/Linux/target/STM32MP1-DK2/bootloader/buildroot/optee-os-custom/ta/remoteproc/elf_parser.c:42
     f9a:	68fb      	ldr	r3, [r7, #12]
     f9c:	791b      	ldrb	r3, [r3, #4]
/home/aom1/Work/Linux/target/STM32MP1-DK2/bootloader/buildroot/optee-os-custom/ta/remoteproc/elf_parser.c:41
     f9e:	2b01      	cmp	r3, #1
     fa0:	d107      	bne.n	fb2 <e32_parse_ehdr+0xa2>
/home/aom1/Work/Linux/target/STM32MP1-DK2/bootloader/buildroot/optee-os-custom/ta/remoteproc/elf_parser.c:43
     fa2:	68fb      	ldr	r3, [r7, #12]
     fa4:	8d5b      	ldrh	r3, [r3, #42]	; 0x2a
/home/aom1/Work/Linux/target/STM32MP1-DK2/bootloader/buildroot/optee-os-custom/ta/remoteproc/elf_parser.c:42
     fa6:	2b20      	cmp	r3, #32
     fa8:	d103      	bne.n	fb2 <e32_parse_ehdr+0xa2>
/home/aom1/Work/Linux/target/STM32MP1-DK2/bootloader/buildroot/optee-os-custom/ta/remoteproc/elf_parser.c:44
     faa:	68fb      	ldr	r3, [r7, #12]
     fac:	8ddb      	ldrh	r3, [r3, #46]	; 0x2e
/home/aom1/Work/Linux/target/STM32MP1-DK2/bootloader/buildroot/optee-os-custom/ta/remoteproc/elf_parser.c:43
     fae:	2b28      	cmp	r3, #40	; 0x28
     fb0:	d00d      	beq.n	fce <e32_parse_ehdr+0xbe>
/home/aom1/Work/Linux/target/STM32MP1-DK2/bootloader/buildroot/optee-os-custom/ta/remoteproc/elf_parser.c:45
     fb2:	4b14      	ldr	r3, [pc, #80]	; (1004 <e32_parse_ehdr+0xf4>)
     fb4:	447b      	add	r3, pc
     fb6:	9300      	str	r3, [sp, #0]
     fb8:	2301      	movs	r3, #1
     fba:	2201      	movs	r2, #1
     fbc:	212d      	movs	r1, #45	; 0x2d
     fbe:	4812      	ldr	r0, [pc, #72]	; (1008 <e32_parse_ehdr+0xf8>)
     fc0:	4478      	add	r0, pc
     fc2:	f000 faa7 	bl	1514 <trace_printf>
/home/aom1/Work/Linux/target/STM32MP1-DK2/bootloader/buildroot/optee-os-custom/ta/remoteproc/elf_parser.c:47
     fc6:	2305      	movs	r3, #5
     fc8:	f6cf 73ff 	movt	r3, #65535	; 0xffff
     fcc:	e012      	b.n	ff4 <e32_parse_ehdr+0xe4>
/home/aom1/Work/Linux/target/STM32MP1-DK2/bootloader/buildroot/optee-os-custom/ta/remoteproc/elf_parser.c:50
     fce:	68fb      	ldr	r3, [r7, #12]
     fd0:	8d9b      	ldrh	r3, [r3, #44]	; 0x2c
     fd2:	2b00      	cmp	r3, #0
     fd4:	d10d      	bne.n	ff2 <e32_parse_ehdr+0xe2>
/home/aom1/Work/Linux/target/STM32MP1-DK2/bootloader/buildroot/optee-os-custom/ta/remoteproc/elf_parser.c:51
     fd6:	4b0d      	ldr	r3, [pc, #52]	; (100c <e32_parse_ehdr+0xfc>)
     fd8:	447b      	add	r3, pc
     fda:	9300      	str	r3, [sp, #0]
     fdc:	2301      	movs	r3, #1
     fde:	2201      	movs	r2, #1
     fe0:	2133      	movs	r1, #51	; 0x33
     fe2:	480b      	ldr	r0, [pc, #44]	; (1010 <e32_parse_ehdr+0x100>)
     fe4:	4478      	add	r0, pc
     fe6:	f000 fa95 	bl	1514 <trace_printf>
/home/aom1/Work/Linux/target/STM32MP1-DK2/bootloader/buildroot/optee-os-custom/ta/remoteproc/elf_parser.c:52
     fea:	2305      	movs	r3, #5
     fec:	f6cf 73ff 	movt	r3, #65535	; 0xffff
     ff0:	e000      	b.n	ff4 <e32_parse_ehdr+0xe4>
/home/aom1/Work/Linux/target/STM32MP1-DK2/bootloader/buildroot/optee-os-custom/ta/remoteproc/elf_parser.c:55
     ff2:	2300      	movs	r3, #0
/home/aom1/Work/Linux/target/STM32MP1-DK2/bootloader/buildroot/optee-os-custom/ta/remoteproc/elf_parser.c:56
     ff4:	4618      	mov	r0, r3
     ff6:	3710      	adds	r7, #16
     ff8:	46bd      	mov	sp, r7
     ffa:	bd80      	pop	{r7, pc}
     ffc:	00011692 	.word	0x00011692
    1000:	00011782 	.word	0x00011782
    1004:	00011634 	.word	0x00011634
    1008:	0001170c 	.word	0x0001170c
    100c:	00011620 	.word	0x00011620
    1010:	000116e8 	.word	0x000116e8

00001014 <e32_parser_load_elf_image>:
e32_parser_load_elf_image():
/home/aom1/Work/Linux/target/STM32MP1-DK2/bootloader/buildroot/optee-os-custom/ta/remoteproc/elf_parser.c:72
    1014:	b590      	push	{r4, r7, lr}
    1016:	b08d      	sub	sp, #52	; 0x34
    1018:	af02      	add	r7, sp, #8
    101a:	60f8      	str	r0, [r7, #12]
    101c:	60b9      	str	r1, [r7, #8]
    101e:	607a      	str	r2, [r7, #4]
    1020:	603b      	str	r3, [r7, #0]
/home/aom1/Work/Linux/target/STM32MP1-DK2/bootloader/buildroot/optee-os-custom/ta/remoteproc/elf_parser.c:73
    1022:	68fb      	ldr	r3, [r7, #12]
    1024:	61fb      	str	r3, [r7, #28]
/home/aom1/Work/Linux/target/STM32MP1-DK2/bootloader/buildroot/optee-os-custom/ta/remoteproc/elf_parser.c:74
    1026:	69fb      	ldr	r3, [r7, #28]
    1028:	69db      	ldr	r3, [r3, #28]
    102a:	69fa      	ldr	r2, [r7, #28]
    102c:	4413      	add	r3, r2
    102e:	627b      	str	r3, [r7, #36]	; 0x24
/home/aom1/Work/Linux/target/STM32MP1-DK2/bootloader/buildroot/optee-os-custom/ta/remoteproc/elf_parser.c:75
    1030:	2300      	movs	r3, #0
    1032:	61bb      	str	r3, [r7, #24]
/home/aom1/Work/Linux/target/STM32MP1-DK2/bootloader/buildroot/optee-os-custom/ta/remoteproc/elf_parser.c:76
    1034:	2300      	movs	r3, #0
    1036:	623b      	str	r3, [r7, #32]
/home/aom1/Work/Linux/target/STM32MP1-DK2/bootloader/buildroot/optee-os-custom/ta/remoteproc/elf_parser.c:78
    1038:	687b      	ldr	r3, [r7, #4]
    103a:	2b00      	cmp	r3, #0
    103c:	d103      	bne.n	1046 <e32_parser_load_elf_image+0x32>
/home/aom1/Work/Linux/target/STM32MP1-DK2/bootloader/buildroot/optee-os-custom/ta/remoteproc/elf_parser.c:79
    103e:	2306      	movs	r3, #6
    1040:	f6cf 73ff 	movt	r3, #65535	; 0xffff
    1044:	e077      	b.n	1136 <e32_parser_load_elf_image+0x122>
/home/aom1/Work/Linux/target/STM32MP1-DK2/bootloader/buildroot/optee-os-custom/ta/remoteproc/elf_parser.c:81
    1046:	6a7b      	ldr	r3, [r7, #36]	; 0x24
    1048:	f003 0303 	and.w	r3, r3, #3
    104c:	2b00      	cmp	r3, #0
    104e:	bf0c      	ite	eq
    1050:	2301      	moveq	r3, #1
    1052:	2300      	movne	r3, #0
    1054:	b2db      	uxtb	r3, r3
    1056:	2b00      	cmp	r3, #0
    1058:	d00a      	beq.n	1070 <e32_parser_load_elf_image+0x5c>
/home/aom1/Work/Linux/target/STM32MP1-DK2/bootloader/buildroot/optee-os-custom/ta/remoteproc/elf_parser.c:82 (discriminator 1)
    105a:	68ba      	ldr	r2, [r7, #8]
    105c:	68f9      	ldr	r1, [r7, #12]
    105e:	6a78      	ldr	r0, [r7, #36]	; 0x24
    1060:	f7ff ff26 	bl	eb0 <va_in_fwm_image_range>
    1064:	4603      	mov	r3, r0
    1066:	f083 0301 	eor.w	r3, r3, #1
    106a:	b2db      	uxtb	r3, r3
/home/aom1/Work/Linux/target/STM32MP1-DK2/bootloader/buildroot/optee-os-custom/ta/remoteproc/elf_parser.c:81 (discriminator 1)
    106c:	2b00      	cmp	r3, #0
    106e:	d003      	beq.n	1078 <e32_parser_load_elf_image+0x64>
/home/aom1/Work/Linux/target/STM32MP1-DK2/bootloader/buildroot/optee-os-custom/ta/remoteproc/elf_parser.c:83
    1070:	2301      	movs	r3, #1
    1072:	f2cf 0310 	movt	r3, #61456	; 0xf010
    1076:	e05e      	b.n	1136 <e32_parser_load_elf_image+0x122>
/home/aom1/Work/Linux/target/STM32MP1-DK2/bootloader/buildroot/optee-os-custom/ta/remoteproc/elf_parser.c:85
    1078:	2300      	movs	r3, #0
    107a:	623b      	str	r3, [r7, #32]
    107c:	e054      	b.n	1128 <e32_parser_load_elf_image+0x114>
/home/aom1/Work/Linux/target/STM32MP1-DK2/bootloader/buildroot/optee-os-custom/ta/remoteproc/elf_parser.c:86
    107e:	6a7b      	ldr	r3, [r7, #36]	; 0x24
    1080:	68db      	ldr	r3, [r3, #12]
    1082:	617b      	str	r3, [r7, #20]
/home/aom1/Work/Linux/target/STM32MP1-DK2/bootloader/buildroot/optee-os-custom/ta/remoteproc/elf_parser.c:87
    1084:	2300      	movs	r3, #0
    1086:	613b      	str	r3, [r7, #16]
/home/aom1/Work/Linux/target/STM32MP1-DK2/bootloader/buildroot/optee-os-custom/ta/remoteproc/elf_parser.c:89
    1088:	6a7b      	ldr	r3, [r7, #36]	; 0x24
    108a:	331f      	adds	r3, #31
    108c:	68ba      	ldr	r2, [r7, #8]
    108e:	68f9      	ldr	r1, [r7, #12]
    1090:	4618      	mov	r0, r3
    1092:	f7ff ff0d 	bl	eb0 <va_in_fwm_image_range>
    1096:	4603      	mov	r3, r0
    1098:	f083 0301 	eor.w	r3, r3, #1
    109c:	b2db      	uxtb	r3, r3
    109e:	2b00      	cmp	r3, #0
    10a0:	d003      	beq.n	10aa <e32_parser_load_elf_image+0x96>
/home/aom1/Work/Linux/target/STM32MP1-DK2/bootloader/buildroot/optee-os-custom/ta/remoteproc/elf_parser.c:91
    10a2:	2301      	movs	r3, #1
    10a4:	f2cf 0310 	movt	r3, #61456	; 0xf010
    10a8:	e045      	b.n	1136 <e32_parser_load_elf_image+0x122>
/home/aom1/Work/Linux/target/STM32MP1-DK2/bootloader/buildroot/optee-os-custom/ta/remoteproc/elf_parser.c:93
    10aa:	6a7b      	ldr	r3, [r7, #36]	; 0x24
    10ac:	681b      	ldr	r3, [r3, #0]
    10ae:	2b01      	cmp	r3, #1
    10b0:	d133      	bne.n	111a <e32_parser_load_elf_image+0x106>
/home/aom1/Work/Linux/target/STM32MP1-DK2/bootloader/buildroot/optee-os-custom/ta/remoteproc/elf_parser.c:96
    10b2:	6a7b      	ldr	r3, [r7, #36]	; 0x24
    10b4:	685b      	ldr	r3, [r3, #4]
    10b6:	68fa      	ldr	r2, [r7, #12]
    10b8:	4413      	add	r3, r2
    10ba:	613b      	str	r3, [r7, #16]
/home/aom1/Work/Linux/target/STM32MP1-DK2/bootloader/buildroot/optee-os-custom/ta/remoteproc/elf_parser.c:98
    10bc:	68ba      	ldr	r2, [r7, #8]
    10be:	68f9      	ldr	r1, [r7, #12]
    10c0:	6938      	ldr	r0, [r7, #16]
    10c2:	f7ff fef5 	bl	eb0 <va_in_fwm_image_range>
    10c6:	4603      	mov	r3, r0
    10c8:	f083 0301 	eor.w	r3, r3, #1
    10cc:	b2db      	uxtb	r3, r3
    10ce:	2b00      	cmp	r3, #0
    10d0:	d10e      	bne.n	10f0 <e32_parser_load_elf_image+0xdc>
/home/aom1/Work/Linux/target/STM32MP1-DK2/bootloader/buildroot/optee-os-custom/ta/remoteproc/elf_parser.c:99 (discriminator 1)
    10d2:	6a7b      	ldr	r3, [r7, #36]	; 0x24
    10d4:	691b      	ldr	r3, [r3, #16]
    10d6:	693a      	ldr	r2, [r7, #16]
    10d8:	4413      	add	r3, r2
    10da:	68ba      	ldr	r2, [r7, #8]
    10dc:	68f9      	ldr	r1, [r7, #12]
    10de:	4618      	mov	r0, r3
    10e0:	f7ff fee6 	bl	eb0 <va_in_fwm_image_range>
    10e4:	4603      	mov	r3, r0
    10e6:	f083 0301 	eor.w	r3, r3, #1
    10ea:	b2db      	uxtb	r3, r3
/home/aom1/Work/Linux/target/STM32MP1-DK2/bootloader/buildroot/optee-os-custom/ta/remoteproc/elf_parser.c:98 (discriminator 1)
    10ec:	2b00      	cmp	r3, #0
    10ee:	d003      	beq.n	10f8 <e32_parser_load_elf_image+0xe4>
/home/aom1/Work/Linux/target/STM32MP1-DK2/bootloader/buildroot/optee-os-custom/ta/remoteproc/elf_parser.c:100
    10f0:	2301      	movs	r3, #1
    10f2:	f2cf 0310 	movt	r3, #61456	; 0xf010
    10f6:	e01e      	b.n	1136 <e32_parser_load_elf_image+0x122>
/home/aom1/Work/Linux/target/STM32MP1-DK2/bootloader/buildroot/optee-os-custom/ta/remoteproc/elf_parser.c:102
    10f8:	6a7b      	ldr	r3, [r7, #36]	; 0x24
    10fa:	6919      	ldr	r1, [r3, #16]
    10fc:	6a7b      	ldr	r3, [r7, #36]	; 0x24
    10fe:	695a      	ldr	r2, [r3, #20]
    1100:	683b      	ldr	r3, [r7, #0]
    1102:	9300      	str	r3, [sp, #0]
    1104:	687c      	ldr	r4, [r7, #4]
    1106:	4613      	mov	r3, r2
    1108:	697a      	ldr	r2, [r7, #20]
    110a:	6938      	ldr	r0, [r7, #16]
    110c:	47a0      	blx	r4
    110e:	61b8      	str	r0, [r7, #24]
/home/aom1/Work/Linux/target/STM32MP1-DK2/bootloader/buildroot/optee-os-custom/ta/remoteproc/elf_parser.c:104
    1110:	69bb      	ldr	r3, [r7, #24]
    1112:	2b00      	cmp	r3, #0
    1114:	d002      	beq.n	111c <e32_parser_load_elf_image+0x108>
/home/aom1/Work/Linux/target/STM32MP1-DK2/bootloader/buildroot/optee-os-custom/ta/remoteproc/elf_parser.c:105
    1116:	69bb      	ldr	r3, [r7, #24]
    1118:	e00d      	b.n	1136 <e32_parser_load_elf_image+0x122>
/home/aom1/Work/Linux/target/STM32MP1-DK2/bootloader/buildroot/optee-os-custom/ta/remoteproc/elf_parser.c:94
    111a:	bf00      	nop
/home/aom1/Work/Linux/target/STM32MP1-DK2/bootloader/buildroot/optee-os-custom/ta/remoteproc/elf_parser.c:85 (discriminator 2)
    111c:	6a3b      	ldr	r3, [r7, #32]
    111e:	3301      	adds	r3, #1
    1120:	623b      	str	r3, [r7, #32]
    1122:	6a7b      	ldr	r3, [r7, #36]	; 0x24
    1124:	3320      	adds	r3, #32
    1126:	627b      	str	r3, [r7, #36]	; 0x24
/home/aom1/Work/Linux/target/STM32MP1-DK2/bootloader/buildroot/optee-os-custom/ta/remoteproc/elf_parser.c:85 (discriminator 1)
    1128:	69fb      	ldr	r3, [r7, #28]
    112a:	8d9b      	ldrh	r3, [r3, #44]	; 0x2c
    112c:	461a      	mov	r2, r3
    112e:	6a3b      	ldr	r3, [r7, #32]
    1130:	4293      	cmp	r3, r2
    1132:	d3a4      	bcc.n	107e <e32_parser_load_elf_image+0x6a>
/home/aom1/Work/Linux/target/STM32MP1-DK2/bootloader/buildroot/optee-os-custom/ta/remoteproc/elf_parser.c:108
    1134:	2300      	movs	r3, #0
/home/aom1/Work/Linux/target/STM32MP1-DK2/bootloader/buildroot/optee-os-custom/ta/remoteproc/elf_parser.c:109
    1136:	4618      	mov	r0, r3
    1138:	372c      	adds	r7, #44	; 0x2c
    113a:	46bd      	mov	sp, r7
    113c:	bd90      	pop	{r4, r7, pc}

0000113e <e32_parser_find_rsc_table>:
e32_parser_find_rsc_table():
/home/aom1/Work/Linux/target/STM32MP1-DK2/bootloader/buildroot/optee-os-custom/ta/remoteproc/elf_parser.c:114
    113e:	b580      	push	{r7, lr}
    1140:	b08e      	sub	sp, #56	; 0x38
    1142:	af02      	add	r7, sp, #8
    1144:	60f8      	str	r0, [r7, #12]
    1146:	60b9      	str	r1, [r7, #8]
    1148:	607a      	str	r2, [r7, #4]
    114a:	603b      	str	r3, [r7, #0]
/home/aom1/Work/Linux/target/STM32MP1-DK2/bootloader/buildroot/optee-os-custom/ta/remoteproc/elf_parser.c:115
    114c:	2300      	movs	r3, #0
    114e:	62fb      	str	r3, [r7, #44]	; 0x2c
/home/aom1/Work/Linux/target/STM32MP1-DK2/bootloader/buildroot/optee-os-custom/ta/remoteproc/elf_parser.c:116
    1150:	2300      	movs	r3, #0
    1152:	62bb      	str	r3, [r7, #40]	; 0x28
/home/aom1/Work/Linux/target/STM32MP1-DK2/bootloader/buildroot/optee-os-custom/ta/remoteproc/elf_parser.c:117
    1154:	2300      	movs	r3, #0
    1156:	627b      	str	r3, [r7, #36]	; 0x24
/home/aom1/Work/Linux/target/STM32MP1-DK2/bootloader/buildroot/optee-os-custom/ta/remoteproc/elf_parser.c:118
    1158:	2300      	movs	r3, #0
    115a:	623b      	str	r3, [r7, #32]
/home/aom1/Work/Linux/target/STM32MP1-DK2/bootloader/buildroot/optee-os-custom/ta/remoteproc/elf_parser.c:119
    115c:	68fb      	ldr	r3, [r7, #12]
    115e:	61fb      	str	r3, [r7, #28]
/home/aom1/Work/Linux/target/STM32MP1-DK2/bootloader/buildroot/optee-os-custom/ta/remoteproc/elf_parser.c:120
    1160:	68fb      	ldr	r3, [r7, #12]
    1162:	61bb      	str	r3, [r7, #24]
/home/aom1/Work/Linux/target/STM32MP1-DK2/bootloader/buildroot/optee-os-custom/ta/remoteproc/elf_parser.c:122
    1164:	69fb      	ldr	r3, [r7, #28]
    1166:	6a1b      	ldr	r3, [r3, #32]
    1168:	68fa      	ldr	r2, [r7, #12]
    116a:	4413      	add	r3, r2
    116c:	62fb      	str	r3, [r7, #44]	; 0x2c
/home/aom1/Work/Linux/target/STM32MP1-DK2/bootloader/buildroot/optee-os-custom/ta/remoteproc/elf_parser.c:123
    116e:	6afb      	ldr	r3, [r7, #44]	; 0x2c
    1170:	f003 0303 	and.w	r3, r3, #3
    1174:	2b00      	cmp	r3, #0
    1176:	bf0c      	ite	eq
    1178:	2301      	moveq	r3, #1
    117a:	2300      	movne	r3, #0
    117c:	b2db      	uxtb	r3, r3
    117e:	2b00      	cmp	r3, #0
    1180:	d00a      	beq.n	1198 <e32_parser_find_rsc_table+0x5a>
/home/aom1/Work/Linux/target/STM32MP1-DK2/bootloader/buildroot/optee-os-custom/ta/remoteproc/elf_parser.c:124 (discriminator 1)
    1182:	68ba      	ldr	r2, [r7, #8]
    1184:	68f9      	ldr	r1, [r7, #12]
    1186:	6af8      	ldr	r0, [r7, #44]	; 0x2c
    1188:	f7ff fe92 	bl	eb0 <va_in_fwm_image_range>
    118c:	4603      	mov	r3, r0
    118e:	f083 0301 	eor.w	r3, r3, #1
    1192:	b2db      	uxtb	r3, r3
/home/aom1/Work/Linux/target/STM32MP1-DK2/bootloader/buildroot/optee-os-custom/ta/remoteproc/elf_parser.c:123 (discriminator 1)
    1194:	2b00      	cmp	r3, #0
    1196:	d003      	beq.n	11a0 <e32_parser_find_rsc_table+0x62>
/home/aom1/Work/Linux/target/STM32MP1-DK2/bootloader/buildroot/optee-os-custom/ta/remoteproc/elf_parser.c:125
    1198:	2301      	movs	r3, #1
    119a:	f2cf 0310 	movt	r3, #61456	; 0xf010
    119e:	e10d      	b.n	13bc <e32_parser_find_rsc_table+0x27e>
/home/aom1/Work/Linux/target/STM32MP1-DK2/bootloader/buildroot/optee-os-custom/ta/remoteproc/elf_parser.c:127
    11a0:	69fb      	ldr	r3, [r7, #28]
    11a2:	8e5b      	ldrh	r3, [r3, #50]	; 0x32
    11a4:	461a      	mov	r2, r3
    11a6:	2328      	movs	r3, #40	; 0x28
    11a8:	fb02 f303 	mul.w	r3, r2, r3
    11ac:	6afa      	ldr	r2, [r7, #44]	; 0x2c
    11ae:	4413      	add	r3, r2
    11b0:	691b      	ldr	r3, [r3, #16]
    11b2:	69ba      	ldr	r2, [r7, #24]
    11b4:	4413      	add	r3, r2
    11b6:	627b      	str	r3, [r7, #36]	; 0x24
/home/aom1/Work/Linux/target/STM32MP1-DK2/bootloader/buildroot/optee-os-custom/ta/remoteproc/elf_parser.c:128
    11b8:	68ba      	ldr	r2, [r7, #8]
    11ba:	68f9      	ldr	r1, [r7, #12]
    11bc:	6a78      	ldr	r0, [r7, #36]	; 0x24
    11be:	f7ff fe77 	bl	eb0 <va_in_fwm_image_range>
    11c2:	4603      	mov	r3, r0
    11c4:	f083 0301 	eor.w	r3, r3, #1
    11c8:	b2db      	uxtb	r3, r3
    11ca:	2b00      	cmp	r3, #0
    11cc:	d003      	beq.n	11d6 <e32_parser_find_rsc_table+0x98>
/home/aom1/Work/Linux/target/STM32MP1-DK2/bootloader/buildroot/optee-os-custom/ta/remoteproc/elf_parser.c:129
    11ce:	2301      	movs	r3, #1
    11d0:	f2cf 0310 	movt	r3, #61456	; 0xf010
    11d4:	e0f2      	b.n	13bc <e32_parser_find_rsc_table+0x27e>
/home/aom1/Work/Linux/target/STM32MP1-DK2/bootloader/buildroot/optee-os-custom/ta/remoteproc/elf_parser.c:131
    11d6:	2300      	movs	r3, #0
    11d8:	62bb      	str	r3, [r7, #40]	; 0x28
    11da:	e0e5      	b.n	13a8 <e32_parser_find_rsc_table+0x26a>
/home/aom1/Work/Linux/target/STM32MP1-DK2/bootloader/buildroot/optee-os-custom/ta/remoteproc/elf_parser.c:132
    11dc:	6afb      	ldr	r3, [r7, #44]	; 0x2c
    11de:	695b      	ldr	r3, [r3, #20]
    11e0:	617b      	str	r3, [r7, #20]
/home/aom1/Work/Linux/target/STM32MP1-DK2/bootloader/buildroot/optee-os-custom/ta/remoteproc/elf_parser.c:133
    11e2:	6afb      	ldr	r3, [r7, #44]	; 0x2c
    11e4:	691b      	ldr	r3, [r3, #16]
    11e6:	613b      	str	r3, [r7, #16]
/home/aom1/Work/Linux/target/STM32MP1-DK2/bootloader/buildroot/optee-os-custom/ta/remoteproc/elf_parser.c:135
    11e8:	68ba      	ldr	r2, [r7, #8]
    11ea:	68f9      	ldr	r1, [r7, #12]
    11ec:	6af8      	ldr	r0, [r7, #44]	; 0x2c
    11ee:	f7ff fe5f 	bl	eb0 <va_in_fwm_image_range>
    11f2:	4603      	mov	r3, r0
    11f4:	f083 0301 	eor.w	r3, r3, #1
    11f8:	b2db      	uxtb	r3, r3
    11fa:	2b00      	cmp	r3, #0
    11fc:	d003      	beq.n	1206 <e32_parser_find_rsc_table+0xc8>
/home/aom1/Work/Linux/target/STM32MP1-DK2/bootloader/buildroot/optee-os-custom/ta/remoteproc/elf_parser.c:136
    11fe:	2301      	movs	r3, #1
    1200:	f2cf 0310 	movt	r3, #61456	; 0xf010
    1204:	e0da      	b.n	13bc <e32_parser_find_rsc_table+0x27e>
/home/aom1/Work/Linux/target/STM32MP1-DK2/bootloader/buildroot/optee-os-custom/ta/remoteproc/elf_parser.c:138
    1206:	6afb      	ldr	r3, [r7, #44]	; 0x2c
    1208:	681b      	ldr	r3, [r3, #0]
    120a:	6a7a      	ldr	r2, [r7, #36]	; 0x24
    120c:	4413      	add	r3, r2
    120e:	4a6d      	ldr	r2, [pc, #436]	; (13c4 <e32_parser_find_rsc_table+0x286>)
    1210:	447a      	add	r2, pc
    1212:	4611      	mov	r1, r2
    1214:	4618      	mov	r0, r3
    1216:	f00f fdf3 	bl	10e00 <strcmp>
    121a:	4603      	mov	r3, r0
    121c:	2b00      	cmp	r3, #0
    121e:	f040 80bc 	bne.w	139a <e32_parser_find_rsc_table+0x25c>
/home/aom1/Work/Linux/target/STM32MP1-DK2/bootloader/buildroot/optee-os-custom/ta/remoteproc/elf_parser.c:141
    1222:	6afb      	ldr	r3, [r7, #44]	; 0x2c
    1224:	695b      	ldr	r3, [r3, #20]
    1226:	2b00      	cmp	r3, #0
    1228:	d103      	bne.n	1232 <e32_parser_find_rsc_table+0xf4>
/home/aom1/Work/Linux/target/STM32MP1-DK2/bootloader/buildroot/optee-os-custom/ta/remoteproc/elf_parser.c:143
    122a:	230b      	movs	r3, #11
    122c:	f6cf 73ff 	movt	r3, #65535	; 0xffff
    1230:	e0c4      	b.n	13bc <e32_parser_find_rsc_table+0x27e>
/home/aom1/Work/Linux/target/STM32MP1-DK2/bootloader/buildroot/optee-os-custom/ta/remoteproc/elf_parser.c:146
    1232:	693a      	ldr	r2, [r7, #16]
    1234:	697b      	ldr	r3, [r7, #20]
    1236:	4413      	add	r3, r2
    1238:	68ba      	ldr	r2, [r7, #8]
    123a:	429a      	cmp	r2, r3
    123c:	d305      	bcc.n	124a <e32_parser_find_rsc_table+0x10c>
/home/aom1/Work/Linux/target/STM32MP1-DK2/bootloader/buildroot/optee-os-custom/ta/remoteproc/elf_parser.c:146 (discriminator 1)
    123e:	693a      	ldr	r2, [r7, #16]
    1240:	697b      	ldr	r3, [r7, #20]
    1242:	4413      	add	r3, r2
    1244:	697a      	ldr	r2, [r7, #20]
    1246:	429a      	cmp	r2, r3
    1248:	d90d      	bls.n	1266 <e32_parser_find_rsc_table+0x128>
/home/aom1/Work/Linux/target/STM32MP1-DK2/bootloader/buildroot/optee-os-custom/ta/remoteproc/elf_parser.c:147
    124a:	4b5f      	ldr	r3, [pc, #380]	; (13c8 <e32_parser_find_rsc_table+0x28a>)
    124c:	447b      	add	r3, pc
    124e:	9300      	str	r3, [sp, #0]
    1250:	2301      	movs	r3, #1
    1252:	2201      	movs	r2, #1
    1254:	2193      	movs	r1, #147	; 0x93
    1256:	485d      	ldr	r0, [pc, #372]	; (13cc <e32_parser_find_rsc_table+0x28e>)
    1258:	4478      	add	r0, pc
    125a:	f000 f95b 	bl	1514 <trace_printf>
/home/aom1/Work/Linux/target/STM32MP1-DK2/bootloader/buildroot/optee-os-custom/ta/remoteproc/elf_parser.c:148
    125e:	2305      	movs	r3, #5
    1260:	f6cf 73ff 	movt	r3, #65535	; 0xffff
    1264:	e0aa      	b.n	13bc <e32_parser_find_rsc_table+0x27e>
/home/aom1/Work/Linux/target/STM32MP1-DK2/bootloader/buildroot/optee-os-custom/ta/remoteproc/elf_parser.c:151
    1266:	697b      	ldr	r3, [r7, #20]
    1268:	2b0f      	cmp	r3, #15
    126a:	d80d      	bhi.n	1288 <e32_parser_find_rsc_table+0x14a>
/home/aom1/Work/Linux/target/STM32MP1-DK2/bootloader/buildroot/optee-os-custom/ta/remoteproc/elf_parser.c:152
    126c:	4b58      	ldr	r3, [pc, #352]	; (13d0 <e32_parser_find_rsc_table+0x292>)
    126e:	447b      	add	r3, pc
    1270:	9300      	str	r3, [sp, #0]
    1272:	2301      	movs	r3, #1
    1274:	2201      	movs	r2, #1
    1276:	2198      	movs	r1, #152	; 0x98
    1278:	4856      	ldr	r0, [pc, #344]	; (13d4 <e32_parser_find_rsc_table+0x296>)
    127a:	4478      	add	r0, pc
    127c:	f000 f94a 	bl	1514 <trace_printf>
/home/aom1/Work/Linux/target/STM32MP1-DK2/bootloader/buildroot/optee-os-custom/ta/remoteproc/elf_parser.c:153
    1280:	2305      	movs	r3, #5
    1282:	f6cf 73ff 	movt	r3, #65535	; 0xffff
    1286:	e099      	b.n	13bc <e32_parser_find_rsc_table+0x27e>
/home/aom1/Work/Linux/target/STM32MP1-DK2/bootloader/buildroot/optee-os-custom/ta/remoteproc/elf_parser.c:156
    1288:	69ba      	ldr	r2, [r7, #24]
    128a:	693b      	ldr	r3, [r7, #16]
    128c:	4413      	add	r3, r2
    128e:	623b      	str	r3, [r7, #32]
/home/aom1/Work/Linux/target/STM32MP1-DK2/bootloader/buildroot/optee-os-custom/ta/remoteproc/elf_parser.c:157
    1290:	6a3b      	ldr	r3, [r7, #32]
    1292:	f003 0303 	and.w	r3, r3, #3
    1296:	2b00      	cmp	r3, #0
    1298:	bf0c      	ite	eq
    129a:	2301      	moveq	r3, #1
    129c:	2300      	movne	r3, #0
    129e:	b2db      	uxtb	r3, r3
    12a0:	2b00      	cmp	r3, #0
    12a2:	d103      	bne.n	12ac <e32_parser_find_rsc_table+0x16e>
/home/aom1/Work/Linux/target/STM32MP1-DK2/bootloader/buildroot/optee-os-custom/ta/remoteproc/elf_parser.c:158
    12a4:	2301      	movs	r3, #1
    12a6:	f2cf 0310 	movt	r3, #61456	; 0xf010
    12aa:	e087      	b.n	13bc <e32_parser_find_rsc_table+0x27e>
/home/aom1/Work/Linux/target/STM32MP1-DK2/bootloader/buildroot/optee-os-custom/ta/remoteproc/elf_parser.c:160
    12ac:	6a3b      	ldr	r3, [r7, #32]
    12ae:	781a      	ldrb	r2, [r3, #0]
    12b0:	7859      	ldrb	r1, [r3, #1]
    12b2:	0209      	lsls	r1, r1, #8
    12b4:	430a      	orrs	r2, r1
    12b6:	7899      	ldrb	r1, [r3, #2]
    12b8:	0409      	lsls	r1, r1, #16
    12ba:	430a      	orrs	r2, r1
    12bc:	78db      	ldrb	r3, [r3, #3]
    12be:	061b      	lsls	r3, r3, #24
    12c0:	4313      	orrs	r3, r2
    12c2:	2b01      	cmp	r3, #1
    12c4:	d019      	beq.n	12fa <e32_parser_find_rsc_table+0x1bc>
/home/aom1/Work/Linux/target/STM32MP1-DK2/bootloader/buildroot/optee-os-custom/ta/remoteproc/elf_parser.c:161
    12c6:	6a3b      	ldr	r3, [r7, #32]
    12c8:	781a      	ldrb	r2, [r3, #0]
    12ca:	7859      	ldrb	r1, [r3, #1]
    12cc:	0209      	lsls	r1, r1, #8
    12ce:	430a      	orrs	r2, r1
    12d0:	7899      	ldrb	r1, [r3, #2]
    12d2:	0409      	lsls	r1, r1, #16
    12d4:	430a      	orrs	r2, r1
    12d6:	78db      	ldrb	r3, [r3, #3]
    12d8:	061b      	lsls	r3, r3, #24
    12da:	4313      	orrs	r3, r2
    12dc:	9301      	str	r3, [sp, #4]
    12de:	4b3e      	ldr	r3, [pc, #248]	; (13d8 <e32_parser_find_rsc_table+0x29a>)
    12e0:	447b      	add	r3, pc
    12e2:	9300      	str	r3, [sp, #0]
    12e4:	2301      	movs	r3, #1
    12e6:	2201      	movs	r2, #1
    12e8:	21a1      	movs	r1, #161	; 0xa1
    12ea:	483c      	ldr	r0, [pc, #240]	; (13dc <e32_parser_find_rsc_table+0x29e>)
    12ec:	4478      	add	r0, pc
    12ee:	f000 f911 	bl	1514 <trace_printf>
/home/aom1/Work/Linux/target/STM32MP1-DK2/bootloader/buildroot/optee-os-custom/ta/remoteproc/elf_parser.c:162
    12f2:	2305      	movs	r3, #5
    12f4:	f6cf 73ff 	movt	r3, #65535	; 0xffff
    12f8:	e060      	b.n	13bc <e32_parser_find_rsc_table+0x27e>
/home/aom1/Work/Linux/target/STM32MP1-DK2/bootloader/buildroot/optee-os-custom/ta/remoteproc/elf_parser.c:165
    12fa:	6a3b      	ldr	r3, [r7, #32]
    12fc:	7a1a      	ldrb	r2, [r3, #8]
    12fe:	7a59      	ldrb	r1, [r3, #9]
    1300:	0209      	lsls	r1, r1, #8
    1302:	430a      	orrs	r2, r1
    1304:	7a99      	ldrb	r1, [r3, #10]
    1306:	0409      	lsls	r1, r1, #16
    1308:	430a      	orrs	r2, r1
    130a:	7adb      	ldrb	r3, [r3, #11]
    130c:	061b      	lsls	r3, r3, #24
    130e:	4313      	orrs	r3, r2
    1310:	2b00      	cmp	r3, #0
    1312:	d10c      	bne.n	132e <e32_parser_find_rsc_table+0x1f0>
/home/aom1/Work/Linux/target/STM32MP1-DK2/bootloader/buildroot/optee-os-custom/ta/remoteproc/elf_parser.c:165 (discriminator 1)
    1314:	6a3b      	ldr	r3, [r7, #32]
    1316:	7b1a      	ldrb	r2, [r3, #12]
    1318:	7b59      	ldrb	r1, [r3, #13]
    131a:	0209      	lsls	r1, r1, #8
    131c:	430a      	orrs	r2, r1
    131e:	7b99      	ldrb	r1, [r3, #14]
    1320:	0409      	lsls	r1, r1, #16
    1322:	430a      	orrs	r2, r1
    1324:	7bdb      	ldrb	r3, [r3, #15]
    1326:	061b      	lsls	r3, r3, #24
    1328:	4313      	orrs	r3, r2
    132a:	2b00      	cmp	r3, #0
    132c:	d00d      	beq.n	134a <e32_parser_find_rsc_table+0x20c>
/home/aom1/Work/Linux/target/STM32MP1-DK2/bootloader/buildroot/optee-os-custom/ta/remoteproc/elf_parser.c:166
    132e:	4b2c      	ldr	r3, [pc, #176]	; (13e0 <e32_parser_find_rsc_table+0x2a2>)
    1330:	447b      	add	r3, pc
    1332:	9300      	str	r3, [sp, #0]
    1334:	2301      	movs	r3, #1
    1336:	2201      	movs	r2, #1
    1338:	21a6      	movs	r1, #166	; 0xa6
    133a:	482a      	ldr	r0, [pc, #168]	; (13e4 <e32_parser_find_rsc_table+0x2a6>)
    133c:	4478      	add	r0, pc
    133e:	f000 f8e9 	bl	1514 <trace_printf>
/home/aom1/Work/Linux/target/STM32MP1-DK2/bootloader/buildroot/optee-os-custom/ta/remoteproc/elf_parser.c:167
    1342:	2305      	movs	r3, #5
    1344:	f6cf 73ff 	movt	r3, #65535	; 0xffff
    1348:	e038      	b.n	13bc <e32_parser_find_rsc_table+0x27e>
/home/aom1/Work/Linux/target/STM32MP1-DK2/bootloader/buildroot/optee-os-custom/ta/remoteproc/elf_parser.c:170
    134a:	6a3b      	ldr	r3, [r7, #32]
    134c:	791a      	ldrb	r2, [r3, #4]
    134e:	7959      	ldrb	r1, [r3, #5]
    1350:	0209      	lsls	r1, r1, #8
    1352:	430a      	orrs	r2, r1
    1354:	7999      	ldrb	r1, [r3, #6]
    1356:	0409      	lsls	r1, r1, #16
    1358:	430a      	orrs	r2, r1
    135a:	79db      	ldrb	r3, [r3, #7]
    135c:	061b      	lsls	r3, r3, #24
    135e:	4313      	orrs	r3, r2
    1360:	3304      	adds	r3, #4
    1362:	009b      	lsls	r3, r3, #2
    1364:	697a      	ldr	r2, [r7, #20]
    1366:	429a      	cmp	r2, r3
    1368:	d20d      	bcs.n	1386 <e32_parser_find_rsc_table+0x248>
/home/aom1/Work/Linux/target/STM32MP1-DK2/bootloader/buildroot/optee-os-custom/ta/remoteproc/elf_parser.c:172
    136a:	4b1f      	ldr	r3, [pc, #124]	; (13e8 <e32_parser_find_rsc_table+0x2aa>)
    136c:	447b      	add	r3, pc
    136e:	9300      	str	r3, [sp, #0]
    1370:	2301      	movs	r3, #1
    1372:	2201      	movs	r2, #1
    1374:	21ac      	movs	r1, #172	; 0xac
    1376:	481d      	ldr	r0, [pc, #116]	; (13ec <e32_parser_find_rsc_table+0x2ae>)
    1378:	4478      	add	r0, pc
    137a:	f000 f8cb 	bl	1514 <trace_printf>
/home/aom1/Work/Linux/target/STM32MP1-DK2/bootloader/buildroot/optee-os-custom/ta/remoteproc/elf_parser.c:173
    137e:	2305      	movs	r3, #5
    1380:	f6cf 73ff 	movt	r3, #65535	; 0xffff
    1384:	e01a      	b.n	13bc <e32_parser_find_rsc_table+0x27e>
/home/aom1/Work/Linux/target/STM32MP1-DK2/bootloader/buildroot/optee-os-custom/ta/remoteproc/elf_parser.c:179
    1386:	6afb      	ldr	r3, [r7, #44]	; 0x2c
    1388:	68da      	ldr	r2, [r3, #12]
    138a:	687b      	ldr	r3, [r7, #4]
    138c:	601a      	str	r2, [r3, #0]
/home/aom1/Work/Linux/target/STM32MP1-DK2/bootloader/buildroot/optee-os-custom/ta/remoteproc/elf_parser.c:180
    138e:	6afb      	ldr	r3, [r7, #44]	; 0x2c
    1390:	695a      	ldr	r2, [r3, #20]
    1392:	683b      	ldr	r3, [r7, #0]
    1394:	601a      	str	r2, [r3, #0]
/home/aom1/Work/Linux/target/STM32MP1-DK2/bootloader/buildroot/optee-os-custom/ta/remoteproc/elf_parser.c:182
    1396:	2300      	movs	r3, #0
    1398:	e010      	b.n	13bc <e32_parser_find_rsc_table+0x27e>
/home/aom1/Work/Linux/target/STM32MP1-DK2/bootloader/buildroot/optee-os-custom/ta/remoteproc/elf_parser.c:139
    139a:	bf00      	nop
/home/aom1/Work/Linux/target/STM32MP1-DK2/bootloader/buildroot/optee-os-custom/ta/remoteproc/elf_parser.c:131
    139c:	6abb      	ldr	r3, [r7, #40]	; 0x28
    139e:	3301      	adds	r3, #1
    13a0:	62bb      	str	r3, [r7, #40]	; 0x28
    13a2:	6afb      	ldr	r3, [r7, #44]	; 0x2c
    13a4:	3328      	adds	r3, #40	; 0x28
    13a6:	62fb      	str	r3, [r7, #44]	; 0x2c
/home/aom1/Work/Linux/target/STM32MP1-DK2/bootloader/buildroot/optee-os-custom/ta/remoteproc/elf_parser.c:131 (discriminator 1)
    13a8:	69fb      	ldr	r3, [r7, #28]
    13aa:	8e1b      	ldrh	r3, [r3, #48]	; 0x30
    13ac:	461a      	mov	r2, r3
    13ae:	6abb      	ldr	r3, [r7, #40]	; 0x28
    13b0:	4293      	cmp	r3, r2
    13b2:	f6ff af13 	blt.w	11dc <e32_parser_find_rsc_table+0x9e>
/home/aom1/Work/Linux/target/STM32MP1-DK2/bootloader/buildroot/optee-os-custom/ta/remoteproc/elf_parser.c:185
    13b6:	230b      	movs	r3, #11
    13b8:	f6cf 73ff 	movt	r3, #65535	; 0xffff
/home/aom1/Work/Linux/target/STM32MP1-DK2/bootloader/buildroot/optee-os-custom/ta/remoteproc/elf_parser.c:186
    13bc:	4618      	mov	r0, r3
    13be:	3730      	adds	r7, #48	; 0x30
    13c0:	46bd      	mov	sp, r7
    13c2:	bd80      	pop	{r7, pc}
    13c4:	00011404 	.word	0x00011404
    13c8:	000113d8 	.word	0x000113d8
    13cc:	00011484 	.word	0x00011484
    13d0:	000113d2 	.word	0x000113d2
    13d4:	00011462 	.word	0x00011462
    13d8:	00011384 	.word	0x00011384
    13dc:	000113f0 	.word	0x000113f0
    13e0:	00011350 	.word	0x00011350
    13e4:	000113a0 	.word	0x000113a0
    13e8:	0001132c 	.word	0x0001132c
    13ec:	00011364 	.word	0x00011364

000013f0 <__ta_entry>:
__ta_entry():
/home/aom1/Work/Linux/target/STM32MP1-DK2/bootloader/buildroot/optee-os-custom/out/arm-plat-stm32mp1/export-ta_arm32/src/ta_entry_a32.S:20
    13f0:	fa003e42 	blx	10d00 <__ta_entry_c>

000013f4 <trace_set_level>:
trace_set_level():
/home/aom1/Work/Linux/target/STM32MP1-DK2/bootloader/buildroot/optee-os-custom/lib/libutils/ext/trace.c:24
    13f4:	b480      	push	{r7}
    13f6:	b083      	sub	sp, #12
    13f8:	af00      	add	r7, sp, #0
    13fa:	6078      	str	r0, [r7, #4]
    13fc:	4b0b      	ldr	r3, [pc, #44]	; (142c <trace_set_level+0x38>)
    13fe:	447b      	add	r3, pc
/home/aom1/Work/Linux/target/STM32MP1-DK2/bootloader/buildroot/optee-os-custom/lib/libutils/ext/trace.c:25
    1400:	687a      	ldr	r2, [r7, #4]
    1402:	2a00      	cmp	r2, #0
    1404:	db07      	blt.n	1416 <trace_set_level+0x22>
/home/aom1/Work/Linux/target/STM32MP1-DK2/bootloader/buildroot/optee-os-custom/lib/libutils/ext/trace.c:25 (discriminator 1)
    1406:	687a      	ldr	r2, [r7, #4]
    1408:	2a04      	cmp	r2, #4
    140a:	dc04      	bgt.n	1416 <trace_set_level+0x22>
/home/aom1/Work/Linux/target/STM32MP1-DK2/bootloader/buildroot/optee-os-custom/lib/libutils/ext/trace.c:26
    140c:	4a08      	ldr	r2, [pc, #32]	; (1430 <trace_set_level+0x3c>)
    140e:	589b      	ldr	r3, [r3, r2]
    1410:	687a      	ldr	r2, [r7, #4]
    1412:	601a      	str	r2, [r3, #0]
    1414:	e004      	b.n	1420 <trace_set_level+0x2c>
/home/aom1/Work/Linux/target/STM32MP1-DK2/bootloader/buildroot/optee-os-custom/lib/libutils/ext/trace.c:28
    1416:	4a06      	ldr	r2, [pc, #24]	; (1430 <trace_set_level+0x3c>)
    1418:	589b      	ldr	r3, [r3, r2]
    141a:	2204      	movs	r2, #4
    141c:	601a      	str	r2, [r3, #0]
/home/aom1/Work/Linux/target/STM32MP1-DK2/bootloader/buildroot/optee-os-custom/lib/libutils/ext/trace.c:29
    141e:	bf00      	nop
    1420:	bf00      	nop
    1422:	370c      	adds	r7, #12
    1424:	46bd      	mov	sp, r7
    1426:	f85d 7b04 	ldr.w	r7, [sp], #4
    142a:	4770      	bx	lr
    142c:	00012c86 	.word	0x00012c86
    1430:	00000010 	.word	0x00000010

00001434 <trace_get_level>:
trace_get_level():
/home/aom1/Work/Linux/target/STM32MP1-DK2/bootloader/buildroot/optee-os-custom/lib/libutils/ext/trace.c:32
    1434:	b480      	push	{r7}
    1436:	af00      	add	r7, sp, #0
    1438:	4a04      	ldr	r2, [pc, #16]	; (144c <trace_get_level+0x18>)
    143a:	447a      	add	r2, pc
/home/aom1/Work/Linux/target/STM32MP1-DK2/bootloader/buildroot/optee-os-custom/lib/libutils/ext/trace.c:33
    143c:	4b04      	ldr	r3, [pc, #16]	; (1450 <trace_get_level+0x1c>)
    143e:	58d3      	ldr	r3, [r2, r3]
    1440:	681b      	ldr	r3, [r3, #0]
/home/aom1/Work/Linux/target/STM32MP1-DK2/bootloader/buildroot/optee-os-custom/lib/libutils/ext/trace.c:34
    1442:	4618      	mov	r0, r3
    1444:	46bd      	mov	sp, r7
    1446:	f85d 7b04 	ldr.w	r7, [sp], #4
    144a:	4770      	bx	lr
    144c:	00012c4a 	.word	0x00012c4a
    1450:	00000010 	.word	0x00000010

00001454 <trace_level_to_string>:
trace_level_to_string():
/home/aom1/Work/Linux/target/STM32MP1-DK2/bootloader/buildroot/optee-os-custom/lib/libutils/ext/trace.c:37
    1454:	b480      	push	{r7}
    1456:	b085      	sub	sp, #20
    1458:	af00      	add	r7, sp, #0
    145a:	6078      	str	r0, [r7, #4]
    145c:	460b      	mov	r3, r1
    145e:	70fb      	strb	r3, [r7, #3]
/home/aom1/Work/Linux/target/STM32MP1-DK2/bootloader/buildroot/optee-os-custom/lib/libutils/ext/trace.c:46
    1460:	2300      	movs	r3, #0
    1462:	60fb      	str	r3, [r7, #12]
/home/aom1/Work/Linux/target/STM32MP1-DK2/bootloader/buildroot/optee-os-custom/lib/libutils/ext/trace.c:48
    1464:	78fb      	ldrb	r3, [r7, #3]
    1466:	f083 0301 	eor.w	r3, r3, #1
    146a:	b2db      	uxtb	r3, r3
    146c:	2b00      	cmp	r3, #0
    146e:	d001      	beq.n	1474 <trace_level_to_string+0x20>
/home/aom1/Work/Linux/target/STM32MP1-DK2/bootloader/buildroot/optee-os-custom/lib/libutils/ext/trace.c:49
    1470:	234d      	movs	r3, #77	; 0x4d
    1472:	e00c      	b.n	148e <trace_level_to_string+0x3a>
/home/aom1/Work/Linux/target/STM32MP1-DK2/bootloader/buildroot/optee-os-custom/lib/libutils/ext/trace.c:51
    1474:	687b      	ldr	r3, [r7, #4]
    1476:	2b00      	cmp	r3, #0
    1478:	db04      	blt.n	1484 <trace_level_to_string+0x30>
/home/aom1/Work/Linux/target/STM32MP1-DK2/bootloader/buildroot/optee-os-custom/lib/libutils/ext/trace.c:51 (discriminator 1)
    147a:	687b      	ldr	r3, [r7, #4]
    147c:	2b04      	cmp	r3, #4
    147e:	dc01      	bgt.n	1484 <trace_level_to_string+0x30>
/home/aom1/Work/Linux/target/STM32MP1-DK2/bootloader/buildroot/optee-os-custom/lib/libutils/ext/trace.c:52
    1480:	687b      	ldr	r3, [r7, #4]
    1482:	60fb      	str	r3, [r7, #12]
/home/aom1/Work/Linux/target/STM32MP1-DK2/bootloader/buildroot/optee-os-custom/lib/libutils/ext/trace.c:54
    1484:	4a05      	ldr	r2, [pc, #20]	; (149c <trace_level_to_string+0x48>)
    1486:	447a      	add	r2, pc
    1488:	68fb      	ldr	r3, [r7, #12]
    148a:	4413      	add	r3, r2
    148c:	781b      	ldrb	r3, [r3, #0]
/home/aom1/Work/Linux/target/STM32MP1-DK2/bootloader/buildroot/optee-os-custom/lib/libutils/ext/trace.c:55
    148e:	4618      	mov	r0, r3
    1490:	3714      	adds	r7, #20
    1492:	46bd      	mov	sp, r7
    1494:	f85d 7b04 	ldr.w	r7, [sp], #4
    1498:	4770      	bx	lr
    149a:	bf00      	nop
    149c:	0001136a 	.word	0x0001136a

000014a0 <print_thread_id>:
print_thread_id():
/home/aom1/Work/Linux/target/STM32MP1-DK2/bootloader/buildroot/optee-os-custom/lib/libutils/ext/trace.c:58
    14a0:	b580      	push	{r7, lr}
    14a2:	b086      	sub	sp, #24
    14a4:	af02      	add	r7, sp, #8
    14a6:	6078      	str	r0, [r7, #4]
    14a8:	6039      	str	r1, [r7, #0]
/home/aom1/Work/Linux/target/STM32MP1-DK2/bootloader/buildroot/optee-os-custom/lib/libutils/ext/trace.c:64
    14aa:	2301      	movs	r3, #1
    14ac:	60fb      	str	r3, [r7, #12]
/home/aom1/Work/Linux/target/STM32MP1-DK2/bootloader/buildroot/optee-os-custom/lib/libutils/ext/trace.c:66
    14ae:	f001 fa0b 	bl	28c8 <trace_ext_get_thread_id>
    14b2:	60b8      	str	r0, [r7, #8]
/home/aom1/Work/Linux/target/STM32MP1-DK2/bootloader/buildroot/optee-os-custom/lib/libutils/ext/trace.c:68
    14b4:	68bb      	ldr	r3, [r7, #8]
    14b6:	2b00      	cmp	r3, #0
    14b8:	db0a      	blt.n	14d0 <print_thread_id+0x30>
/home/aom1/Work/Linux/target/STM32MP1-DK2/bootloader/buildroot/optee-os-custom/lib/libutils/ext/trace.c:69
    14ba:	68bb      	ldr	r3, [r7, #8]
    14bc:	9300      	str	r3, [sp, #0]
    14be:	68fb      	ldr	r3, [r7, #12]
    14c0:	4a0b      	ldr	r2, [pc, #44]	; (14f0 <print_thread_id+0x50>)
    14c2:	447a      	add	r2, pc
    14c4:	6839      	ldr	r1, [r7, #0]
    14c6:	6878      	ldr	r0, [r7, #4]
    14c8:	f000 f9ba 	bl	1840 <snprintk>
    14cc:	4603      	mov	r3, r0
    14ce:	e00a      	b.n	14e6 <print_thread_id+0x46>
/home/aom1/Work/Linux/target/STM32MP1-DK2/bootloader/buildroot/optee-os-custom/lib/libutils/ext/trace.c:71
    14d0:	4b08      	ldr	r3, [pc, #32]	; (14f4 <print_thread_id+0x54>)
    14d2:	447b      	add	r3, pc
    14d4:	9300      	str	r3, [sp, #0]
    14d6:	68fb      	ldr	r3, [r7, #12]
    14d8:	4a07      	ldr	r2, [pc, #28]	; (14f8 <print_thread_id+0x58>)
    14da:	447a      	add	r2, pc
    14dc:	6839      	ldr	r1, [r7, #0]
    14de:	6878      	ldr	r0, [r7, #4]
    14e0:	f000 f9ae 	bl	1840 <snprintk>
    14e4:	4603      	mov	r3, r0
/home/aom1/Work/Linux/target/STM32MP1-DK2/bootloader/buildroot/optee-os-custom/lib/libutils/ext/trace.c:72
    14e6:	4618      	mov	r0, r3
    14e8:	3710      	adds	r7, #16
    14ea:	46bd      	mov	sp, r7
    14ec:	bd80      	pop	{r7, pc}
    14ee:	bf00      	nop
    14f0:	0001130a 	.word	0x0001130a
    14f4:	0001130a 	.word	0x0001130a
    14f8:	000112fa 	.word	0x000112fa

000014fc <print_core_id>:
print_core_id():
/home/aom1/Work/Linux/target/STM32MP1-DK2/bootloader/buildroot/optee-os-custom/lib/libutils/ext/trace.c:96
    14fc:	b480      	push	{r7}
    14fe:	b083      	sub	sp, #12
    1500:	af00      	add	r7, sp, #0
    1502:	6078      	str	r0, [r7, #4]
    1504:	6039      	str	r1, [r7, #0]
/home/aom1/Work/Linux/target/STM32MP1-DK2/bootloader/buildroot/optee-os-custom/lib/libutils/ext/trace.c:97
    1506:	2300      	movs	r3, #0
/home/aom1/Work/Linux/target/STM32MP1-DK2/bootloader/buildroot/optee-os-custom/lib/libutils/ext/trace.c:98
    1508:	4618      	mov	r0, r3
    150a:	370c      	adds	r7, #12
    150c:	46bd      	mov	sp, r7
    150e:	f85d 7b04 	ldr.w	r7, [sp], #4
    1512:	4770      	bx	lr

00001514 <trace_printf>:
trace_printf():
/home/aom1/Work/Linux/target/STM32MP1-DK2/bootloader/buildroot/optee-os-custom/lib/libutils/ext/trace.c:104
    1514:	b580      	push	{r7, lr}
    1516:	b088      	sub	sp, #32
    1518:	af02      	add	r7, sp, #8
    151a:	60f8      	str	r0, [r7, #12]
    151c:	60b9      	str	r1, [r7, #8]
    151e:	607a      	str	r2, [r7, #4]
    1520:	70fb      	strb	r3, [r7, #3]
/home/aom1/Work/Linux/target/STM32MP1-DK2/bootloader/buildroot/optee-os-custom/lib/libutils/ext/trace.c:107
    1522:	f107 0324 	add.w	r3, r7, #36	; 0x24
    1526:	617b      	str	r3, [r7, #20]
/home/aom1/Work/Linux/target/STM32MP1-DK2/bootloader/buildroot/optee-os-custom/lib/libutils/ext/trace.c:108
    1528:	78fa      	ldrb	r2, [r7, #3]
    152a:	697b      	ldr	r3, [r7, #20]
    152c:	9301      	str	r3, [sp, #4]
    152e:	6a3b      	ldr	r3, [r7, #32]
    1530:	9300      	str	r3, [sp, #0]
    1532:	4613      	mov	r3, r2
    1534:	687a      	ldr	r2, [r7, #4]
    1536:	68b9      	ldr	r1, [r7, #8]
    1538:	68f8      	ldr	r0, [r7, #12]
    153a:	f000 f804 	bl	1546 <trace_vprintf>
/home/aom1/Work/Linux/target/STM32MP1-DK2/bootloader/buildroot/optee-os-custom/lib/libutils/ext/trace.c:110
    153e:	bf00      	nop
    1540:	3718      	adds	r7, #24
    1542:	46bd      	mov	sp, r7
    1544:	bd80      	pop	{r7, pc}

00001546 <trace_vprintf>:
trace_vprintf():
/home/aom1/Work/Linux/target/STM32MP1-DK2/bootloader/buildroot/optee-os-custom/lib/libutils/ext/trace.c:113
    1546:	b590      	push	{r4, r7, lr}
    1548:	b0c9      	sub	sp, #292	; 0x124
    154a:	af02      	add	r7, sp, #8
    154c:	f507 748c 	add.w	r4, r7, #280	; 0x118
    1550:	f5a4 7486 	sub.w	r4, r4, #268	; 0x10c
    1554:	6020      	str	r0, [r4, #0]
    1556:	f507 708c 	add.w	r0, r7, #280	; 0x118
    155a:	f5a0 7088 	sub.w	r0, r0, #272	; 0x110
    155e:	6001      	str	r1, [r0, #0]
    1560:	f507 718c 	add.w	r1, r7, #280	; 0x118
    1564:	f5a1 718a 	sub.w	r1, r1, #276	; 0x114
    1568:	600a      	str	r2, [r1, #0]
    156a:	461a      	mov	r2, r3
    156c:	f507 738c 	add.w	r3, r7, #280	; 0x118
    1570:	f2a3 1315 	subw	r3, r3, #277	; 0x115
    1574:	701a      	strb	r2, [r3, #0]
    1576:	4ca5      	ldr	r4, [pc, #660]	; (180c <trace_vprintf+0x2c6>)
    1578:	447c      	add	r4, pc
/home/aom1/Work/Linux/target/STM32MP1-DK2/bootloader/buildroot/optee-os-custom/lib/libutils/ext/trace.c:115
    157a:	2300      	movs	r3, #0
    157c:	f8c7 3114 	str.w	r3, [r7, #276]	; 0x114
/home/aom1/Work/Linux/target/STM32MP1-DK2/bootloader/buildroot/optee-os-custom/lib/libutils/ext/trace.c:118
    1580:	f507 738c 	add.w	r3, r7, #280	; 0x118
    1584:	f2a3 1315 	subw	r3, r3, #277	; 0x115
    1588:	781b      	ldrb	r3, [r3, #0]
    158a:	2b00      	cmp	r3, #0
    158c:	d00a      	beq.n	15a4 <trace_vprintf+0x5e>
/home/aom1/Work/Linux/target/STM32MP1-DK2/bootloader/buildroot/optee-os-custom/lib/libutils/ext/trace.c:118 (discriminator 1)
    158e:	4ba0      	ldr	r3, [pc, #640]	; (1810 <trace_vprintf+0x2ca>)
    1590:	58e3      	ldr	r3, [r4, r3]
    1592:	681b      	ldr	r3, [r3, #0]
    1594:	f507 728c 	add.w	r2, r7, #280	; 0x118
    1598:	f5a2 728a 	sub.w	r2, r2, #276	; 0x114
    159c:	6812      	ldr	r2, [r2, #0]
    159e:	429a      	cmp	r2, r3
    15a0:	f300 8123 	bgt.w	17ea <trace_vprintf+0x2a4>
/home/aom1/Work/Linux/target/STM32MP1-DK2/bootloader/buildroot/optee-os-custom/lib/libutils/ext/trace.c:123
    15a4:	f507 738c 	add.w	r3, r7, #280	; 0x118
    15a8:	f2a3 1315 	subw	r3, r3, #277	; 0x115
    15ac:	781a      	ldrb	r2, [r3, #0]
    15ae:	f507 738c 	add.w	r3, r7, #280	; 0x118
    15b2:	f5a3 738a 	sub.w	r3, r3, #276	; 0x114
    15b6:	4611      	mov	r1, r2
    15b8:	6818      	ldr	r0, [r3, #0]
    15ba:	f7ff ff4b 	bl	1454 <trace_level_to_string>
    15be:	4603      	mov	r3, r0
/home/aom1/Work/Linux/target/STM32MP1-DK2/bootloader/buildroot/optee-os-custom/lib/libutils/ext/trace.c:122
    15c0:	f107 0010 	add.w	r0, r7, #16
    15c4:	4a93      	ldr	r2, [pc, #588]	; (1814 <trace_vprintf+0x2ce>)
    15c6:	447a      	add	r2, pc
    15c8:	f44f 7180 	mov.w	r1, #256	; 0x100
    15cc:	f000 f938 	bl	1840 <snprintk>
    15d0:	f8c7 0110 	str.w	r0, [r7, #272]	; 0x110
/home/aom1/Work/Linux/target/STM32MP1-DK2/bootloader/buildroot/optee-os-custom/lib/libutils/ext/trace.c:124
    15d4:	f8d7 3110 	ldr.w	r3, [r7, #272]	; 0x110
    15d8:	2b00      	cmp	r3, #0
    15da:	f2c0 8108 	blt.w	17ee <trace_vprintf+0x2a8>
/home/aom1/Work/Linux/target/STM32MP1-DK2/bootloader/buildroot/optee-os-custom/lib/libutils/ext/trace.c:126
    15de:	f8d7 3110 	ldr.w	r3, [r7, #272]	; 0x110
    15e2:	f8d7 2114 	ldr.w	r2, [r7, #276]	; 0x114
    15e6:	4413      	add	r3, r2
    15e8:	f8c7 3114 	str.w	r3, [r7, #276]	; 0x114
/home/aom1/Work/Linux/target/STM32MP1-DK2/bootloader/buildroot/optee-os-custom/lib/libutils/ext/trace.c:129
    15ec:	f107 0210 	add.w	r2, r7, #16
    15f0:	f8d7 3114 	ldr.w	r3, [r7, #276]	; 0x114
    15f4:	18d0      	adds	r0, r2, r3
    15f6:	f8d7 3114 	ldr.w	r3, [r7, #276]	; 0x114
    15fa:	f5c3 7180 	rsb	r1, r3, #256	; 0x100
    15fe:	4b86      	ldr	r3, [pc, #536]	; (1818 <trace_vprintf+0x2d2>)
    1600:	58e3      	ldr	r3, [r4, r3]
    1602:	4a86      	ldr	r2, [pc, #536]	; (181c <trace_vprintf+0x2d6>)
    1604:	447a      	add	r2, pc
    1606:	f000 f91b 	bl	1840 <snprintk>
    160a:	f8c7 0110 	str.w	r0, [r7, #272]	; 0x110
/home/aom1/Work/Linux/target/STM32MP1-DK2/bootloader/buildroot/optee-os-custom/lib/libutils/ext/trace.c:131
    160e:	f8d7 3110 	ldr.w	r3, [r7, #272]	; 0x110
    1612:	2b00      	cmp	r3, #0
    1614:	f2c0 80ed 	blt.w	17f2 <trace_vprintf+0x2ac>
/home/aom1/Work/Linux/target/STM32MP1-DK2/bootloader/buildroot/optee-os-custom/lib/libutils/ext/trace.c:133
    1618:	f8d7 3110 	ldr.w	r3, [r7, #272]	; 0x110
    161c:	f8d7 2114 	ldr.w	r2, [r7, #276]	; 0x114
    1620:	4413      	add	r3, r2
    1622:	f8c7 3114 	str.w	r3, [r7, #276]	; 0x114
/home/aom1/Work/Linux/target/STM32MP1-DK2/bootloader/buildroot/optee-os-custom/lib/libutils/ext/trace.c:135
    1626:	f507 738c 	add.w	r3, r7, #280	; 0x118
    162a:	f2a3 1315 	subw	r3, r3, #277	; 0x115
    162e:	781b      	ldrb	r3, [r3, #0]
    1630:	2b00      	cmp	r3, #0
    1632:	d06e      	beq.n	1712 <trace_vprintf+0x1cc>
/home/aom1/Work/Linux/target/STM32MP1-DK2/bootloader/buildroot/optee-os-custom/lib/libutils/ext/trace.c:135 (discriminator 1)
    1634:	f507 738c 	add.w	r3, r7, #280	; 0x118
    1638:	f5a3 738a 	sub.w	r3, r3, #276	; 0x114
    163c:	221a      	movs	r2, #26
    163e:	681b      	ldr	r3, [r3, #0]
    1640:	fa22 f303 	lsr.w	r3, r2, r3
    1644:	f003 0301 	and.w	r3, r3, #1
    1648:	2b00      	cmp	r3, #0
    164a:	d062      	beq.n	1712 <trace_vprintf+0x1cc>
/home/aom1/Work/Linux/target/STM32MP1-DK2/bootloader/buildroot/optee-os-custom/lib/libutils/ext/trace.c:137
    164c:	f107 0210 	add.w	r2, r7, #16
    1650:	f8d7 3114 	ldr.w	r3, [r7, #276]	; 0x114
    1654:	441a      	add	r2, r3
    1656:	f8d7 3114 	ldr.w	r3, [r7, #276]	; 0x114
    165a:	f5c3 7380 	rsb	r3, r3, #256	; 0x100
    165e:	4619      	mov	r1, r3
    1660:	4610      	mov	r0, r2
    1662:	f7ff ff4b 	bl	14fc <print_core_id>
    1666:	f8c7 0110 	str.w	r0, [r7, #272]	; 0x110
/home/aom1/Work/Linux/target/STM32MP1-DK2/bootloader/buildroot/optee-os-custom/lib/libutils/ext/trace.c:138
    166a:	f8d7 3110 	ldr.w	r3, [r7, #272]	; 0x110
    166e:	2b00      	cmp	r3, #0
    1670:	f2c0 80c1 	blt.w	17f6 <trace_vprintf+0x2b0>
/home/aom1/Work/Linux/target/STM32MP1-DK2/bootloader/buildroot/optee-os-custom/lib/libutils/ext/trace.c:140
    1674:	f8d7 3110 	ldr.w	r3, [r7, #272]	; 0x110
    1678:	f8d7 2114 	ldr.w	r2, [r7, #276]	; 0x114
    167c:	4413      	add	r3, r2
    167e:	f8c7 3114 	str.w	r3, [r7, #276]	; 0x114
/home/aom1/Work/Linux/target/STM32MP1-DK2/bootloader/buildroot/optee-os-custom/lib/libutils/ext/trace.c:143
    1682:	f107 0210 	add.w	r2, r7, #16
    1686:	f8d7 3114 	ldr.w	r3, [r7, #276]	; 0x114
    168a:	441a      	add	r2, r3
    168c:	f8d7 3114 	ldr.w	r3, [r7, #276]	; 0x114
    1690:	f5c3 7380 	rsb	r3, r3, #256	; 0x100
    1694:	4619      	mov	r1, r3
    1696:	4610      	mov	r0, r2
    1698:	f7ff ff02 	bl	14a0 <print_thread_id>
    169c:	f8c7 0110 	str.w	r0, [r7, #272]	; 0x110
/home/aom1/Work/Linux/target/STM32MP1-DK2/bootloader/buildroot/optee-os-custom/lib/libutils/ext/trace.c:144
    16a0:	f8d7 3110 	ldr.w	r3, [r7, #272]	; 0x110
    16a4:	2b00      	cmp	r3, #0
    16a6:	f2c0 80a8 	blt.w	17fa <trace_vprintf+0x2b4>
/home/aom1/Work/Linux/target/STM32MP1-DK2/bootloader/buildroot/optee-os-custom/lib/libutils/ext/trace.c:146
    16aa:	f8d7 3110 	ldr.w	r3, [r7, #272]	; 0x110
    16ae:	f8d7 2114 	ldr.w	r2, [r7, #276]	; 0x114
    16b2:	4413      	add	r3, r2
    16b4:	f8c7 3114 	str.w	r3, [r7, #276]	; 0x114
/home/aom1/Work/Linux/target/STM32MP1-DK2/bootloader/buildroot/optee-os-custom/lib/libutils/ext/trace.c:148
    16b8:	f507 738c 	add.w	r3, r7, #280	; 0x118
    16bc:	f5a3 7386 	sub.w	r3, r3, #268	; 0x10c
    16c0:	681b      	ldr	r3, [r3, #0]
    16c2:	2b00      	cmp	r3, #0
    16c4:	d03d      	beq.n	1742 <trace_vprintf+0x1fc>
/home/aom1/Work/Linux/target/STM32MP1-DK2/bootloader/buildroot/optee-os-custom/lib/libutils/ext/trace.c:149
    16c6:	f107 0210 	add.w	r2, r7, #16
    16ca:	f8d7 3114 	ldr.w	r3, [r7, #276]	; 0x114
    16ce:	18d0      	adds	r0, r2, r3
    16d0:	f8d7 3114 	ldr.w	r3, [r7, #276]	; 0x114
    16d4:	f5c3 7180 	rsb	r1, r3, #256	; 0x100
    16d8:	f507 738c 	add.w	r3, r7, #280	; 0x118
    16dc:	f5a3 7386 	sub.w	r3, r3, #268	; 0x10c
    16e0:	f507 728c 	add.w	r2, r7, #280	; 0x118
    16e4:	f5a2 7288 	sub.w	r2, r2, #272	; 0x110
    16e8:	6812      	ldr	r2, [r2, #0]
    16ea:	9200      	str	r2, [sp, #0]
    16ec:	681b      	ldr	r3, [r3, #0]
    16ee:	4a4c      	ldr	r2, [pc, #304]	; (1820 <trace_vprintf+0x2da>)
    16f0:	447a      	add	r2, pc
    16f2:	f000 f8a5 	bl	1840 <snprintk>
    16f6:	f8c7 0110 	str.w	r0, [r7, #272]	; 0x110
/home/aom1/Work/Linux/target/STM32MP1-DK2/bootloader/buildroot/optee-os-custom/lib/libutils/ext/trace.c:151
    16fa:	f8d7 3110 	ldr.w	r3, [r7, #272]	; 0x110
    16fe:	2b00      	cmp	r3, #0
    1700:	db7d      	blt.n	17fe <trace_vprintf+0x2b8>
/home/aom1/Work/Linux/target/STM32MP1-DK2/bootloader/buildroot/optee-os-custom/lib/libutils/ext/trace.c:153
    1702:	f8d7 3110 	ldr.w	r3, [r7, #272]	; 0x110
    1706:	f8d7 2114 	ldr.w	r2, [r7, #276]	; 0x114
    170a:	4413      	add	r3, r2
    170c:	f8c7 3114 	str.w	r3, [r7, #276]	; 0x114
/home/aom1/Work/Linux/target/STM32MP1-DK2/bootloader/buildroot/optee-os-custom/lib/libutils/ext/trace.c:148
    1710:	e017      	b.n	1742 <trace_vprintf+0x1fc>
/home/aom1/Work/Linux/target/STM32MP1-DK2/bootloader/buildroot/optee-os-custom/lib/libutils/ext/trace.c:157
    1712:	f8d7 3114 	ldr.w	r3, [r7, #276]	; 0x114
    1716:	2bfe      	cmp	r3, #254	; 0xfe
    1718:	d873      	bhi.n	1802 <trace_vprintf+0x2bc>
/home/aom1/Work/Linux/target/STM32MP1-DK2/bootloader/buildroot/optee-os-custom/lib/libutils/ext/trace.c:159
    171a:	f8d7 3114 	ldr.w	r3, [r7, #276]	; 0x114
    171e:	1c5a      	adds	r2, r3, #1
    1720:	f8c7 2114 	str.w	r2, [r7, #276]	; 0x114
    1724:	f507 728c 	add.w	r2, r7, #280	; 0x118
    1728:	f5a2 7284 	sub.w	r2, r2, #264	; 0x108
    172c:	2120      	movs	r1, #32
    172e:	54d1      	strb	r1, [r2, r3]
/home/aom1/Work/Linux/target/STM32MP1-DK2/bootloader/buildroot/optee-os-custom/lib/libutils/ext/trace.c:160
    1730:	f507 738c 	add.w	r3, r7, #280	; 0x118
    1734:	f5a3 7284 	sub.w	r2, r3, #264	; 0x108
    1738:	f8d7 3114 	ldr.w	r3, [r7, #276]	; 0x114
    173c:	4413      	add	r3, r2
    173e:	2200      	movs	r2, #0
    1740:	701a      	strb	r2, [r3, #0]
/home/aom1/Work/Linux/target/STM32MP1-DK2/bootloader/buildroot/optee-os-custom/lib/libutils/ext/trace.c:163
    1742:	f107 0210 	add.w	r2, r7, #16
    1746:	f8d7 3114 	ldr.w	r3, [r7, #276]	; 0x114
    174a:	18d0      	adds	r0, r2, r3
    174c:	f8d7 3114 	ldr.w	r3, [r7, #276]	; 0x114
    1750:	f5c3 7180 	rsb	r1, r3, #256	; 0x100
    1754:	f8d7 312c 	ldr.w	r3, [r7, #300]	; 0x12c
    1758:	f8d7 2128 	ldr.w	r2, [r7, #296]	; 0x128
    175c:	f000 f888 	bl	1870 <vsnprintk>
    1760:	f8c7 0110 	str.w	r0, [r7, #272]	; 0x110
/home/aom1/Work/Linux/target/STM32MP1-DK2/bootloader/buildroot/optee-os-custom/lib/libutils/ext/trace.c:164
    1764:	f8d7 3110 	ldr.w	r3, [r7, #272]	; 0x110
    1768:	2b00      	cmp	r3, #0
    176a:	dd06      	ble.n	177a <trace_vprintf+0x234>
/home/aom1/Work/Linux/target/STM32MP1-DK2/bootloader/buildroot/optee-os-custom/lib/libutils/ext/trace.c:165
    176c:	f8d7 3110 	ldr.w	r3, [r7, #272]	; 0x110
    1770:	f8d7 2114 	ldr.w	r2, [r7, #276]	; 0x114
    1774:	4413      	add	r3, r2
    1776:	f8c7 3114 	str.w	r3, [r7, #276]	; 0x114
/home/aom1/Work/Linux/target/STM32MP1-DK2/bootloader/buildroot/optee-os-custom/lib/libutils/ext/trace.c:167
    177a:	f8d7 3114 	ldr.w	r3, [r7, #276]	; 0x114
    177e:	2bfe      	cmp	r3, #254	; 0xfe
    1780:	d902      	bls.n	1788 <trace_vprintf+0x242>
/home/aom1/Work/Linux/target/STM32MP1-DK2/bootloader/buildroot/optee-os-custom/lib/libutils/ext/trace.c:168
    1782:	23fe      	movs	r3, #254	; 0xfe
    1784:	f8c7 3114 	str.w	r3, [r7, #276]	; 0x114
/home/aom1/Work/Linux/target/STM32MP1-DK2/bootloader/buildroot/optee-os-custom/lib/libutils/ext/trace.c:170
    1788:	f507 738c 	add.w	r3, r7, #280	; 0x118
    178c:	f5a3 7284 	sub.w	r2, r3, #264	; 0x108
    1790:	f8d7 3114 	ldr.w	r3, [r7, #276]	; 0x114
    1794:	4413      	add	r3, r2
    1796:	220a      	movs	r2, #10
    1798:	701a      	strb	r2, [r3, #0]
/home/aom1/Work/Linux/target/STM32MP1-DK2/bootloader/buildroot/optee-os-custom/lib/libutils/ext/trace.c:171
    179a:	e004      	b.n	17a6 <trace_vprintf+0x260>
/home/aom1/Work/Linux/target/STM32MP1-DK2/bootloader/buildroot/optee-os-custom/lib/libutils/ext/trace.c:172
    179c:	f8d7 3114 	ldr.w	r3, [r7, #276]	; 0x114
    17a0:	3b01      	subs	r3, #1
    17a2:	f8c7 3114 	str.w	r3, [r7, #276]	; 0x114
/home/aom1/Work/Linux/target/STM32MP1-DK2/bootloader/buildroot/optee-os-custom/lib/libutils/ext/trace.c:171
    17a6:	f8d7 3114 	ldr.w	r3, [r7, #276]	; 0x114
    17aa:	2b00      	cmp	r3, #0
    17ac:	d009      	beq.n	17c2 <trace_vprintf+0x27c>
/home/aom1/Work/Linux/target/STM32MP1-DK2/bootloader/buildroot/optee-os-custom/lib/libutils/ext/trace.c:171 (discriminator 1)
    17ae:	f507 738c 	add.w	r3, r7, #280	; 0x118
    17b2:	f5a3 7284 	sub.w	r2, r3, #264	; 0x108
    17b6:	f8d7 3114 	ldr.w	r3, [r7, #276]	; 0x114
    17ba:	4413      	add	r3, r2
    17bc:	781b      	ldrb	r3, [r3, #0]
    17be:	2b0a      	cmp	r3, #10
    17c0:	d0ec      	beq.n	179c <trace_vprintf+0x256>
/home/aom1/Work/Linux/target/STM32MP1-DK2/bootloader/buildroot/optee-os-custom/lib/libutils/ext/trace.c:173
    17c2:	f8d7 3114 	ldr.w	r3, [r7, #276]	; 0x114
    17c6:	3301      	adds	r3, #1
    17c8:	f8c7 3114 	str.w	r3, [r7, #276]	; 0x114
/home/aom1/Work/Linux/target/STM32MP1-DK2/bootloader/buildroot/optee-os-custom/lib/libutils/ext/trace.c:174
    17cc:	f8d7 3114 	ldr.w	r3, [r7, #276]	; 0x114
    17d0:	3301      	adds	r3, #1
    17d2:	f507 728c 	add.w	r2, r7, #280	; 0x118
    17d6:	f5a2 7284 	sub.w	r2, r2, #264	; 0x108
    17da:	2100      	movs	r1, #0
    17dc:	54d1      	strb	r1, [r2, r3]
/home/aom1/Work/Linux/target/STM32MP1-DK2/bootloader/buildroot/optee-os-custom/lib/libutils/ext/trace.c:176
    17de:	f107 0310 	add.w	r3, r7, #16
    17e2:	4618      	mov	r0, r3
    17e4:	f001 f860 	bl	28a8 <trace_ext_puts>
    17e8:	e00c      	b.n	1804 <trace_vprintf+0x2be>
/home/aom1/Work/Linux/target/STM32MP1-DK2/bootloader/buildroot/optee-os-custom/lib/libutils/ext/trace.c:119
    17ea:	bf00      	nop
    17ec:	e00a      	b.n	1804 <trace_vprintf+0x2be>
/home/aom1/Work/Linux/target/STM32MP1-DK2/bootloader/buildroot/optee-os-custom/lib/libutils/ext/trace.c:125
    17ee:	bf00      	nop
    17f0:	e008      	b.n	1804 <trace_vprintf+0x2be>
/home/aom1/Work/Linux/target/STM32MP1-DK2/bootloader/buildroot/optee-os-custom/lib/libutils/ext/trace.c:132
    17f2:	bf00      	nop
    17f4:	e006      	b.n	1804 <trace_vprintf+0x2be>
/home/aom1/Work/Linux/target/STM32MP1-DK2/bootloader/buildroot/optee-os-custom/lib/libutils/ext/trace.c:139
    17f6:	bf00      	nop
    17f8:	e004      	b.n	1804 <trace_vprintf+0x2be>
/home/aom1/Work/Linux/target/STM32MP1-DK2/bootloader/buildroot/optee-os-custom/lib/libutils/ext/trace.c:145
    17fa:	bf00      	nop
    17fc:	e002      	b.n	1804 <trace_vprintf+0x2be>
/home/aom1/Work/Linux/target/STM32MP1-DK2/bootloader/buildroot/optee-os-custom/lib/libutils/ext/trace.c:152
    17fe:	bf00      	nop
    1800:	e000      	b.n	1804 <trace_vprintf+0x2be>
/home/aom1/Work/Linux/target/STM32MP1-DK2/bootloader/buildroot/optee-os-custom/lib/libutils/ext/trace.c:158
    1802:	bf00      	nop
/home/aom1/Work/Linux/target/STM32MP1-DK2/bootloader/buildroot/optee-os-custom/lib/libutils/ext/trace.c:177
    1804:	f507 778e 	add.w	r7, r7, #284	; 0x11c
    1808:	46bd      	mov	sp, r7
    180a:	bd90      	pop	{r4, r7, pc}
    180c:	00012b0c 	.word	0x00012b0c
    1810:	00000010 	.word	0x00000010
    1814:	0001121a 	.word	0x0001121a
    1818:	00000014 	.word	0x00000014
    181c:	000111e0 	.word	0x000111e0
    1820:	000110f8 	.word	0x000110f8

00001824 <dhex_dump>:
dhex_dump():
/home/aom1/Work/Linux/target/STM32MP1-DK2/bootloader/buildroot/optee-os-custom/lib/libutils/ext/trace.c:286
    1824:	b480      	push	{r7}
    1826:	b085      	sub	sp, #20
    1828:	af00      	add	r7, sp, #0
    182a:	60f8      	str	r0, [r7, #12]
    182c:	60b9      	str	r1, [r7, #8]
    182e:	607a      	str	r2, [r7, #4]
    1830:	603b      	str	r3, [r7, #0]
/home/aom1/Work/Linux/target/STM32MP1-DK2/bootloader/buildroot/optee-os-custom/lib/libutils/ext/trace.c:287
    1832:	bf00      	nop
    1834:	3714      	adds	r7, #20
    1836:	46bd      	mov	sp, r7
    1838:	f85d 7b04 	ldr.w	r7, [sp], #4
    183c:	4770      	bx	lr
    183e:	bf00      	nop

00001840 <snprintk>:
snprintk():
/home/aom1/Work/Linux/target/STM32MP1-DK2/bootloader/buildroot/optee-os-custom/lib/libutils/ext/snprintk.c:113
    1840:	b40c      	push	{r2, r3}
    1842:	b580      	push	{r7, lr}
    1844:	b084      	sub	sp, #16
    1846:	af00      	add	r7, sp, #0
    1848:	6078      	str	r0, [r7, #4]
    184a:	6039      	str	r1, [r7, #0]
/home/aom1/Work/Linux/target/STM32MP1-DK2/bootloader/buildroot/optee-os-custom/lib/libutils/ext/snprintk.c:117
    184c:	f107 031c 	add.w	r3, r7, #28
    1850:	60bb      	str	r3, [r7, #8]
/home/aom1/Work/Linux/target/STM32MP1-DK2/bootloader/buildroot/optee-os-custom/lib/libutils/ext/snprintk.c:118
    1852:	68bb      	ldr	r3, [r7, #8]
    1854:	69ba      	ldr	r2, [r7, #24]
    1856:	6839      	ldr	r1, [r7, #0]
    1858:	6878      	ldr	r0, [r7, #4]
    185a:	f000 f809 	bl	1870 <vsnprintk>
    185e:	60f8      	str	r0, [r7, #12]
/home/aom1/Work/Linux/target/STM32MP1-DK2/bootloader/buildroot/optee-os-custom/lib/libutils/ext/snprintk.c:121
    1860:	68fb      	ldr	r3, [r7, #12]
/home/aom1/Work/Linux/target/STM32MP1-DK2/bootloader/buildroot/optee-os-custom/lib/libutils/ext/snprintk.c:122
    1862:	4618      	mov	r0, r3
    1864:	3710      	adds	r7, #16
    1866:	46bd      	mov	sp, r7
    1868:	e8bd 4080 	ldmia.w	sp!, {r7, lr}
    186c:	b002      	add	sp, #8
    186e:	4770      	bx	lr

00001870 <vsnprintk>:
vsnprintk():
/home/aom1/Work/Linux/target/STM32MP1-DK2/bootloader/buildroot/optee-os-custom/lib/libutils/ext/snprintk.c:130
    1870:	b580      	push	{r7, lr}
    1872:	b086      	sub	sp, #24
    1874:	af02      	add	r7, sp, #8
    1876:	60f8      	str	r0, [r7, #12]
    1878:	60b9      	str	r1, [r7, #8]
    187a:	607a      	str	r2, [r7, #4]
    187c:	603b      	str	r3, [r7, #0]
/home/aom1/Work/Linux/target/STM32MP1-DK2/bootloader/buildroot/optee-os-custom/lib/libutils/ext/snprintk.c:131
    187e:	2301      	movs	r3, #1
    1880:	9300      	str	r3, [sp, #0]
    1882:	683b      	ldr	r3, [r7, #0]
    1884:	687a      	ldr	r2, [r7, #4]
    1886:	68b9      	ldr	r1, [r7, #8]
    1888:	68f8      	ldr	r0, [r7, #12]
    188a:	f000 f805 	bl	1898 <__vsnprintf>
    188e:	4603      	mov	r3, r0
/home/aom1/Work/Linux/target/STM32MP1-DK2/bootloader/buildroot/optee-os-custom/lib/libutils/ext/snprintk.c:132
    1890:	4618      	mov	r0, r3
    1892:	3710      	adds	r7, #16
    1894:	46bd      	mov	sp, r7
    1896:	bd80      	pop	{r7, pc}

00001898 <__vsnprintf>:
__vsnprintf():
/home/aom1/Work/Linux/target/STM32MP1-DK2/bootloader/buildroot/optee-os-custom/lib/libutils/ext/snprintk.c:138
    1898:	b580      	push	{r7, lr}
    189a:	b088      	sub	sp, #32
    189c:	af02      	add	r7, sp, #8
    189e:	60f8      	str	r0, [r7, #12]
    18a0:	60b9      	str	r1, [r7, #8]
    18a2:	607a      	str	r2, [r7, #4]
    18a4:	603b      	str	r3, [r7, #0]
/home/aom1/Work/Linux/target/STM32MP1-DK2/bootloader/buildroot/optee-os-custom/lib/libutils/ext/snprintk.c:142
    18a6:	68fa      	ldr	r2, [r7, #12]
    18a8:	68bb      	ldr	r3, [r7, #8]
    18aa:	4413      	add	r3, r2
    18ac:	613b      	str	r3, [r7, #16]
/home/aom1/Work/Linux/target/STM32MP1-DK2/bootloader/buildroot/optee-os-custom/lib/libutils/ext/snprintk.c:143
    18ae:	f107 0210 	add.w	r2, r7, #16
    18b2:	f897 3020 	ldrb.w	r3, [r7, #32]
    18b6:	9301      	str	r3, [sp, #4]
    18b8:	683b      	ldr	r3, [r7, #0]
    18ba:	9300      	str	r3, [sp, #0]
    18bc:	68fb      	ldr	r3, [r7, #12]
    18be:	2108      	movs	r1, #8
    18c0:	6878      	ldr	r0, [r7, #4]
    18c2:	f000 f875 	bl	19b0 <kprintf>
    18c6:	6178      	str	r0, [r7, #20]
/home/aom1/Work/Linux/target/STM32MP1-DK2/bootloader/buildroot/optee-os-custom/lib/libutils/ext/snprintk.c:144
    18c8:	68fb      	ldr	r3, [r7, #12]
    18ca:	2b00      	cmp	r3, #0
    18cc:	d012      	beq.n	18f4 <__vsnprintf+0x5c>
/home/aom1/Work/Linux/target/STM32MP1-DK2/bootloader/buildroot/optee-os-custom/lib/libutils/ext/snprintk.c:144 (discriminator 1)
    18ce:	68bb      	ldr	r3, [r7, #8]
    18d0:	2b00      	cmp	r3, #0
    18d2:	d00f      	beq.n	18f4 <__vsnprintf+0x5c>
/home/aom1/Work/Linux/target/STM32MP1-DK2/bootloader/buildroot/optee-os-custom/lib/libutils/ext/snprintk.c:146
    18d4:	697b      	ldr	r3, [r7, #20]
    18d6:	68ba      	ldr	r2, [r7, #8]
    18d8:	429a      	cmp	r2, r3
    18da:	d806      	bhi.n	18ea <__vsnprintf+0x52>
/home/aom1/Work/Linux/target/STM32MP1-DK2/bootloader/buildroot/optee-os-custom/lib/libutils/ext/snprintk.c:147
    18dc:	68bb      	ldr	r3, [r7, #8]
    18de:	3b01      	subs	r3, #1
    18e0:	68fa      	ldr	r2, [r7, #12]
    18e2:	4413      	add	r3, r2
    18e4:	2200      	movs	r2, #0
    18e6:	701a      	strb	r2, [r3, #0]
    18e8:	e004      	b.n	18f4 <__vsnprintf+0x5c>
/home/aom1/Work/Linux/target/STM32MP1-DK2/bootloader/buildroot/optee-os-custom/lib/libutils/ext/snprintk.c:149
    18ea:	697b      	ldr	r3, [r7, #20]
    18ec:	68fa      	ldr	r2, [r7, #12]
    18ee:	4413      	add	r3, r2
    18f0:	2200      	movs	r2, #0
    18f2:	701a      	strb	r2, [r3, #0]
/home/aom1/Work/Linux/target/STM32MP1-DK2/bootloader/buildroot/optee-os-custom/lib/libutils/ext/snprintk.c:151
    18f4:	697b      	ldr	r3, [r7, #20]
/home/aom1/Work/Linux/target/STM32MP1-DK2/bootloader/buildroot/optee-os-custom/lib/libutils/ext/snprintk.c:152
    18f6:	4618      	mov	r0, r3
    18f8:	3718      	adds	r7, #24
    18fa:	46bd      	mov	sp, r7
    18fc:	bd80      	pop	{r7, pc}

000018fe <__vsprintf>:
__vsprintf():
/home/aom1/Work/Linux/target/STM32MP1-DK2/bootloader/buildroot/optee-os-custom/lib/libutils/ext/snprintk.c:155
    18fe:	b580      	push	{r7, lr}
    1900:	b086      	sub	sp, #24
    1902:	af02      	add	r7, sp, #8
    1904:	60f8      	str	r0, [r7, #12]
    1906:	60b9      	str	r1, [r7, #8]
    1908:	607a      	str	r2, [r7, #4]
/home/aom1/Work/Linux/target/STM32MP1-DK2/bootloader/buildroot/optee-os-custom/lib/libutils/ext/snprintk.c:156
    190a:	2300      	movs	r3, #0
    190c:	9301      	str	r3, [sp, #4]
    190e:	687b      	ldr	r3, [r7, #4]
    1910:	9300      	str	r3, [sp, #0]
    1912:	68fb      	ldr	r3, [r7, #12]
    1914:	2200      	movs	r2, #0
    1916:	2108      	movs	r1, #8
    1918:	68b8      	ldr	r0, [r7, #8]
    191a:	f000 f849 	bl	19b0 <kprintf>
    191e:	4603      	mov	r3, r0
/home/aom1/Work/Linux/target/STM32MP1-DK2/bootloader/buildroot/optee-os-custom/lib/libutils/ext/snprintk.c:157
    1920:	4618      	mov	r0, r3
    1922:	3710      	adds	r7, #16
    1924:	46bd      	mov	sp, r7
    1926:	bd80      	pop	{r7, pc}

00001928 <uuid2str>:
uuid2str():
/home/aom1/Work/Linux/target/STM32MP1-DK2/bootloader/buildroot/optee-os-custom/lib/libutils/ext/snprintk.c:221
    1928:	b5f0      	push	{r4, r5, r6, r7, lr}
    192a:	b095      	sub	sp, #84	; 0x54
    192c:	af0a      	add	r7, sp, #40	; 0x28
    192e:	61f8      	str	r0, [r7, #28]
    1930:	61b9      	str	r1, [r7, #24]
    1932:	617a      	str	r2, [r7, #20]
/home/aom1/Work/Linux/target/STM32MP1-DK2/bootloader/buildroot/optee-os-custom/lib/libutils/ext/snprintk.c:227
    1934:	697b      	ldr	r3, [r7, #20]
    1936:	627b      	str	r3, [r7, #36]	; 0x24
/home/aom1/Work/Linux/target/STM32MP1-DK2/bootloader/buildroot/optee-os-custom/lib/libutils/ext/snprintk.c:229
    1938:	6a7b      	ldr	r3, [r7, #36]	; 0x24
    193a:	681a      	ldr	r2, [r3, #0]
/home/aom1/Work/Linux/target/STM32MP1-DK2/bootloader/buildroot/optee-os-custom/lib/libutils/ext/snprintk.c:231
    193c:	6a7b      	ldr	r3, [r7, #36]	; 0x24
    193e:	889b      	ldrh	r3, [r3, #4]
/home/aom1/Work/Linux/target/STM32MP1-DK2/bootloader/buildroot/optee-os-custom/lib/libutils/ext/snprintk.c:229
    1940:	4619      	mov	r1, r3
/home/aom1/Work/Linux/target/STM32MP1-DK2/bootloader/buildroot/optee-os-custom/lib/libutils/ext/snprintk.c:231
    1942:	6a7b      	ldr	r3, [r7, #36]	; 0x24
    1944:	88db      	ldrh	r3, [r3, #6]
/home/aom1/Work/Linux/target/STM32MP1-DK2/bootloader/buildroot/optee-os-custom/lib/libutils/ext/snprintk.c:229
    1946:	4618      	mov	r0, r3
/home/aom1/Work/Linux/target/STM32MP1-DK2/bootloader/buildroot/optee-os-custom/lib/libutils/ext/snprintk.c:232
    1948:	6a7b      	ldr	r3, [r7, #36]	; 0x24
    194a:	7a1b      	ldrb	r3, [r3, #8]
/home/aom1/Work/Linux/target/STM32MP1-DK2/bootloader/buildroot/optee-os-custom/lib/libutils/ext/snprintk.c:229
    194c:	461c      	mov	r4, r3
/home/aom1/Work/Linux/target/STM32MP1-DK2/bootloader/buildroot/optee-os-custom/lib/libutils/ext/snprintk.c:232
    194e:	6a7b      	ldr	r3, [r7, #36]	; 0x24
    1950:	7a5b      	ldrb	r3, [r3, #9]
/home/aom1/Work/Linux/target/STM32MP1-DK2/bootloader/buildroot/optee-os-custom/lib/libutils/ext/snprintk.c:229
    1952:	461d      	mov	r5, r3
/home/aom1/Work/Linux/target/STM32MP1-DK2/bootloader/buildroot/optee-os-custom/lib/libutils/ext/snprintk.c:233
    1954:	6a7b      	ldr	r3, [r7, #36]	; 0x24
    1956:	7a9b      	ldrb	r3, [r3, #10]
/home/aom1/Work/Linux/target/STM32MP1-DK2/bootloader/buildroot/optee-os-custom/lib/libutils/ext/snprintk.c:229
    1958:	461e      	mov	r6, r3
/home/aom1/Work/Linux/target/STM32MP1-DK2/bootloader/buildroot/optee-os-custom/lib/libutils/ext/snprintk.c:233
    195a:	6a7b      	ldr	r3, [r7, #36]	; 0x24
    195c:	7adb      	ldrb	r3, [r3, #11]
/home/aom1/Work/Linux/target/STM32MP1-DK2/bootloader/buildroot/optee-os-custom/lib/libutils/ext/snprintk.c:229
    195e:	613b      	str	r3, [r7, #16]
/home/aom1/Work/Linux/target/STM32MP1-DK2/bootloader/buildroot/optee-os-custom/lib/libutils/ext/snprintk.c:234
    1960:	6a7b      	ldr	r3, [r7, #36]	; 0x24
    1962:	7b1b      	ldrb	r3, [r3, #12]
/home/aom1/Work/Linux/target/STM32MP1-DK2/bootloader/buildroot/optee-os-custom/lib/libutils/ext/snprintk.c:229
    1964:	60fb      	str	r3, [r7, #12]
/home/aom1/Work/Linux/target/STM32MP1-DK2/bootloader/buildroot/optee-os-custom/lib/libutils/ext/snprintk.c:234
    1966:	6a7b      	ldr	r3, [r7, #36]	; 0x24
    1968:	7b5b      	ldrb	r3, [r3, #13]
/home/aom1/Work/Linux/target/STM32MP1-DK2/bootloader/buildroot/optee-os-custom/lib/libutils/ext/snprintk.c:229
    196a:	60bb      	str	r3, [r7, #8]
/home/aom1/Work/Linux/target/STM32MP1-DK2/bootloader/buildroot/optee-os-custom/lib/libutils/ext/snprintk.c:235
    196c:	6a7b      	ldr	r3, [r7, #36]	; 0x24
    196e:	7b9b      	ldrb	r3, [r3, #14]
/home/aom1/Work/Linux/target/STM32MP1-DK2/bootloader/buildroot/optee-os-custom/lib/libutils/ext/snprintk.c:229
    1970:	607b      	str	r3, [r7, #4]
/home/aom1/Work/Linux/target/STM32MP1-DK2/bootloader/buildroot/optee-os-custom/lib/libutils/ext/snprintk.c:235
    1972:	6a7b      	ldr	r3, [r7, #36]	; 0x24
    1974:	7bdb      	ldrb	r3, [r3, #15]
/home/aom1/Work/Linux/target/STM32MP1-DK2/bootloader/buildroot/optee-os-custom/lib/libutils/ext/snprintk.c:229
    1976:	9309      	str	r3, [sp, #36]	; 0x24
    1978:	687b      	ldr	r3, [r7, #4]
    197a:	9308      	str	r3, [sp, #32]
    197c:	68bb      	ldr	r3, [r7, #8]
    197e:	9307      	str	r3, [sp, #28]
    1980:	68fb      	ldr	r3, [r7, #12]
    1982:	9306      	str	r3, [sp, #24]
    1984:	693b      	ldr	r3, [r7, #16]
    1986:	9305      	str	r3, [sp, #20]
    1988:	9604      	str	r6, [sp, #16]
    198a:	9503      	str	r5, [sp, #12]
    198c:	9402      	str	r4, [sp, #8]
    198e:	9001      	str	r0, [sp, #4]
    1990:	9100      	str	r1, [sp, #0]
    1992:	4613      	mov	r3, r2
    1994:	4a05      	ldr	r2, [pc, #20]	; (19ac <uuid2str+0x84>)
    1996:	447a      	add	r2, pc
    1998:	69b9      	ldr	r1, [r7, #24]
    199a:	69f8      	ldr	r0, [r7, #28]
    199c:	f7ff ff50 	bl	1840 <snprintk>
    19a0:	4603      	mov	r3, r0
/home/aom1/Work/Linux/target/STM32MP1-DK2/bootloader/buildroot/optee-os-custom/lib/libutils/ext/snprintk.c:236
    19a2:	4618      	mov	r0, r3
    19a4:	372c      	adds	r7, #44	; 0x2c
    19a6:	46bd      	mov	sp, r7
    19a8:	bdf0      	pop	{r4, r5, r6, r7, pc}
    19aa:	bf00      	nop
    19ac:	00010e8a 	.word	0x00010e8a

000019b0 <kprintf>:
kprintf():
/home/aom1/Work/Linux/target/STM32MP1-DK2/bootloader/buildroot/optee-os-custom/lib/libutils/ext/snprintk.c:244
    19b0:	e92d 4fb0 	stmdb	sp!, {r4, r5, r7, r8, r9, sl, fp, lr}
    19b4:	b0ac      	sub	sp, #176	; 0xb0
    19b6:	af00      	add	r7, sp, #0
    19b8:	6378      	str	r0, [r7, #52]	; 0x34
    19ba:	6339      	str	r1, [r7, #48]	; 0x30
    19bc:	62fa      	str	r2, [r7, #44]	; 0x2c
    19be:	62bb      	str	r3, [r7, #40]	; 0x28
/home/aom1/Work/Linux/target/STM32MP1-DK2/bootloader/buildroot/optee-os-custom/lib/libutils/ext/snprintk.c:264
    19c0:	6b3b      	ldr	r3, [r7, #48]	; 0x30
    19c2:	2b08      	cmp	r3, #8
    19c4:	d106      	bne.n	19d4 <kprintf+0x24>
/home/aom1/Work/Linux/target/STM32MP1-DK2/bootloader/buildroot/optee-os-custom/lib/libutils/ext/snprintk.c:264 (discriminator 1)
    19c6:	6afb      	ldr	r3, [r7, #44]	; 0x2c
    19c8:	2b00      	cmp	r3, #0
    19ca:	d003      	beq.n	19d4 <kprintf+0x24>
/home/aom1/Work/Linux/target/STM32MP1-DK2/bootloader/buildroot/optee-os-custom/lib/libutils/ext/snprintk.c:265
    19cc:	6afb      	ldr	r3, [r7, #44]	; 0x2c
    19ce:	681b      	ldr	r3, [r3, #0]
    19d0:	66bb      	str	r3, [r7, #104]	; 0x68
    19d2:	e001      	b.n	19d8 <kprintf+0x28>
/home/aom1/Work/Linux/target/STM32MP1-DK2/bootloader/buildroot/optee-os-custom/lib/libutils/ext/snprintk.c:267
    19d4:	2300      	movs	r3, #0
    19d6:	66bb      	str	r3, [r7, #104]	; 0x68
/home/aom1/Work/Linux/target/STM32MP1-DK2/bootloader/buildroot/optee-os-custom/lib/libutils/ext/snprintk.c:269
    19d8:	2300      	movs	r3, #0
    19da:	f8c7 30a0 	str.w	r3, [r7, #160]	; 0xa0
/home/aom1/Work/Linux/target/STM32MP1-DK2/bootloader/buildroot/optee-os-custom/lib/libutils/ext/snprintk.c:270
    19de:	2300      	movs	r3, #0
    19e0:	673b      	str	r3, [r7, #112]	; 0x70
/home/aom1/Work/Linux/target/STM32MP1-DK2/bootloader/buildroot/optee-os-custom/lib/libutils/ext/snprintk.c:272
    19e2:	6b7b      	ldr	r3, [r7, #52]	; 0x34
    19e4:	f8c7 30ac 	str.w	r3, [r7, #172]	; 0xac
/home/aom1/Work/Linux/target/STM32MP1-DK2/bootloader/buildroot/optee-os-custom/lib/libutils/ext/snprintk.c:273
    19e8:	2300      	movs	r3, #0
    19ea:	f8c7 3098 	str.w	r3, [r7, #152]	; 0x98
/home/aom1/Work/Linux/target/STM32MP1-DK2/bootloader/buildroot/optee-os-custom/lib/libutils/ext/snprintk.c:275
    19ee:	2300      	movs	r3, #0
    19f0:	66fb      	str	r3, [r7, #108]	; 0x6c
/home/aom1/Work/Linux/target/STM32MP1-DK2/bootloader/buildroot/optee-os-custom/lib/libutils/ext/snprintk.c:281
    19f2:	e01d      	b.n	1a30 <kprintf+0x80>
/home/aom1/Work/Linux/target/STM32MP1-DK2/bootloader/buildroot/optee-os-custom/lib/libutils/ext/snprintk.c:282
    19f4:	f8d7 3098 	ldr.w	r3, [r7, #152]	; 0x98
    19f8:	3301      	adds	r3, #1
    19fa:	f8c7 3098 	str.w	r3, [r7, #152]	; 0x98
/home/aom1/Work/Linux/target/STM32MP1-DK2/bootloader/buildroot/optee-os-custom/lib/libutils/ext/snprintk.c:283
    19fe:	6b3b      	ldr	r3, [r7, #48]	; 0x30
    1a00:	2b08      	cmp	r3, #8
    1a02:	d110      	bne.n	1a26 <kprintf+0x76>
/home/aom1/Work/Linux/target/STM32MP1-DK2/bootloader/buildroot/optee-os-custom/lib/libutils/ext/snprintk.c:283 (discriminator 1)
    1a04:	6abb      	ldr	r3, [r7, #40]	; 0x28
    1a06:	2b00      	cmp	r3, #0
    1a08:	d00d      	beq.n	1a26 <kprintf+0x76>
/home/aom1/Work/Linux/target/STM32MP1-DK2/bootloader/buildroot/optee-os-custom/lib/libutils/ext/snprintk.c:283 (discriminator 2)
    1a0a:	6afb      	ldr	r3, [r7, #44]	; 0x2c
    1a0c:	2b00      	cmp	r3, #0
    1a0e:	d003      	beq.n	1a18 <kprintf+0x68>
/home/aom1/Work/Linux/target/STM32MP1-DK2/bootloader/buildroot/optee-os-custom/lib/libutils/ext/snprintk.c:283 (discriminator 4)
    1a10:	6aba      	ldr	r2, [r7, #40]	; 0x28
    1a12:	6ebb      	ldr	r3, [r7, #104]	; 0x68
    1a14:	429a      	cmp	r2, r3
    1a16:	d206      	bcs.n	1a26 <kprintf+0x76>
/home/aom1/Work/Linux/target/STM32MP1-DK2/bootloader/buildroot/optee-os-custom/lib/libutils/ext/snprintk.c:283 (discriminator 5)
    1a18:	6aba      	ldr	r2, [r7, #40]	; 0x28
    1a1a:	1c53      	adds	r3, r2, #1
    1a1c:	62bb      	str	r3, [r7, #40]	; 0x28
    1a1e:	f8d7 30ac 	ldr.w	r3, [r7, #172]	; 0xac
    1a22:	781b      	ldrb	r3, [r3, #0]
    1a24:	7013      	strb	r3, [r2, #0]
/home/aom1/Work/Linux/target/STM32MP1-DK2/bootloader/buildroot/optee-os-custom/lib/libutils/ext/snprintk.c:281
    1a26:	f8d7 30ac 	ldr.w	r3, [r7, #172]	; 0xac
    1a2a:	3301      	adds	r3, #1
    1a2c:	f8c7 30ac 	str.w	r3, [r7, #172]	; 0xac
/home/aom1/Work/Linux/target/STM32MP1-DK2/bootloader/buildroot/optee-os-custom/lib/libutils/ext/snprintk.c:281 (discriminator 1)
    1a30:	f8d7 30ac 	ldr.w	r3, [r7, #172]	; 0xac
    1a34:	781b      	ldrb	r3, [r3, #0]
    1a36:	2b25      	cmp	r3, #37	; 0x25
    1a38:	d004      	beq.n	1a44 <kprintf+0x94>
/home/aom1/Work/Linux/target/STM32MP1-DK2/bootloader/buildroot/optee-os-custom/lib/libutils/ext/snprintk.c:281 (discriminator 2)
    1a3a:	f8d7 30ac 	ldr.w	r3, [r7, #172]	; 0xac
    1a3e:	781b      	ldrb	r3, [r3, #0]
    1a40:	2b00      	cmp	r3, #0
    1a42:	d1d7      	bne.n	19f4 <kprintf+0x44>
/home/aom1/Work/Linux/target/STM32MP1-DK2/bootloader/buildroot/optee-os-custom/lib/libutils/ext/snprintk.c:285
    1a44:	f8d7 30ac 	ldr.w	r3, [r7, #172]	; 0xac
    1a48:	781b      	ldrb	r3, [r3, #0]
    1a4a:	2b00      	cmp	r3, #0
    1a4c:	f000 86d1 	beq.w	27f2 <kprintf+0xe42>
/home/aom1/Work/Linux/target/STM32MP1-DK2/bootloader/buildroot/optee-os-custom/lib/libutils/ext/snprintk.c:288
    1a50:	f8d7 30ac 	ldr.w	r3, [r7, #172]	; 0xac
    1a54:	3301      	adds	r3, #1
    1a56:	f8c7 30ac 	str.w	r3, [r7, #172]	; 0xac
/home/aom1/Work/Linux/target/STM32MP1-DK2/bootloader/buildroot/optee-os-custom/lib/libutils/ext/snprintk.c:290
    1a5a:	2300      	movs	r3, #0
    1a5c:	f8c7 309c 	str.w	r3, [r7, #156]	; 0x9c
/home/aom1/Work/Linux/target/STM32MP1-DK2/bootloader/buildroot/optee-os-custom/lib/libutils/ext/snprintk.c:291
    1a60:	2300      	movs	r3, #0
    1a62:	67bb      	str	r3, [r7, #120]	; 0x78
/home/aom1/Work/Linux/target/STM32MP1-DK2/bootloader/buildroot/optee-os-custom/lib/libutils/ext/snprintk.c:292
    1a64:	2300      	movs	r3, #0
    1a66:	f8c7 3094 	str.w	r3, [r7, #148]	; 0x94
/home/aom1/Work/Linux/target/STM32MP1-DK2/bootloader/buildroot/optee-os-custom/lib/libutils/ext/snprintk.c:293
    1a6a:	f04f 33ff 	mov.w	r3, #4294967295	; 0xffffffff
    1a6e:	f8c7 3090 	str.w	r3, [r7, #144]	; 0x90
/home/aom1/Work/Linux/target/STM32MP1-DK2/bootloader/buildroot/optee-os-custom/lib/libutils/ext/snprintk.c:294
    1a72:	2300      	movs	r3, #0
    1a74:	f887 308f 	strb.w	r3, [r7, #143]	; 0x8f
/home/aom1/Work/Linux/target/STM32MP1-DK2/bootloader/buildroot/optee-os-custom/lib/libutils/ext/snprintk.c:296
    1a78:	f8d7 20ac 	ldr.w	r2, [r7, #172]	; 0xac
    1a7c:	1c53      	adds	r3, r2, #1
    1a7e:	f8c7 30ac 	str.w	r3, [r7, #172]	; 0xac
    1a82:	7813      	ldrb	r3, [r2, #0]
    1a84:	f8c7 30a8 	str.w	r3, [r7, #168]	; 0xa8
/home/aom1/Work/Linux/target/STM32MP1-DK2/bootloader/buildroot/optee-os-custom/lib/libutils/ext/snprintk.c:297
    1a88:	f8d7 30a8 	ldr.w	r3, [r7, #168]	; 0xa8
    1a8c:	3b20      	subs	r3, #32
    1a8e:	2b5a      	cmp	r3, #90	; 0x5a
    1a90:	f200 857e 	bhi.w	2590 <kprintf+0xbe0>
    1a94:	a202      	add	r2, pc, #8	; (adr r2, 1aa0 <kprintf+0xf0>)
    1a96:	f852 3023 	ldr.w	r3, [r2, r3, lsl #2]
    1a9a:	441a      	add	r2, r3
    1a9c:	4710      	bx	r2
    1a9e:	bf00      	nop
    1aa0:	0000016d 	.word	0x0000016d
    1aa4:	00000af1 	.word	0x00000af1
    1aa8:	00000af1 	.word	0x00000af1
    1aac:	0000017f 	.word	0x0000017f
    1ab0:	00000af1 	.word	0x00000af1
    1ab4:	00000af1 	.word	0x00000af1
    1ab8:	00000af1 	.word	0x00000af1
    1abc:	00000af1 	.word	0x00000af1
    1ac0:	00000af1 	.word	0x00000af1
    1ac4:	00000af1 	.word	0x00000af1
    1ac8:	0000018d 	.word	0x0000018d
    1acc:	000001bf 	.word	0x000001bf
    1ad0:	00000af1 	.word	0x00000af1
    1ad4:	000001b1 	.word	0x000001b1
    1ad8:	000001c7 	.word	0x000001c7
    1adc:	00000af1 	.word	0x00000af1
    1ae0:	00000243 	.word	0x00000243
    1ae4:	00000251 	.word	0x00000251
    1ae8:	00000251 	.word	0x00000251
    1aec:	00000251 	.word	0x00000251
    1af0:	00000251 	.word	0x00000251
    1af4:	00000251 	.word	0x00000251
    1af8:	00000251 	.word	0x00000251
    1afc:	00000251 	.word	0x00000251
    1b00:	00000251 	.word	0x00000251
    1b04:	00000251 	.word	0x00000251
    1b08:	00000af1 	.word	0x00000af1
    1b0c:	00000af1 	.word	0x00000af1
    1b10:	00000af1 	.word	0x00000af1
    1b14:	00000af1 	.word	0x00000af1
    1b18:	00000af1 	.word	0x00000af1
    1b1c:	00000af1 	.word	0x00000af1
    1b20:	00000af1 	.word	0x00000af1
    1b24:	00000af1 	.word	0x00000af1
    1b28:	00000af1 	.word	0x00000af1
    1b2c:	00000af1 	.word	0x00000af1
    1b30:	0000032f 	.word	0x0000032f
    1b34:	00000af1 	.word	0x00000af1
    1b38:	00000af1 	.word	0x00000af1
    1b3c:	00000af1 	.word	0x00000af1
    1b40:	00000af1 	.word	0x00000af1
    1b44:	00000af1 	.word	0x00000af1
    1b48:	00000af1 	.word	0x00000af1
    1b4c:	00000af1 	.word	0x00000af1
    1b50:	00000af1 	.word	0x00000af1
    1b54:	00000af1 	.word	0x00000af1
    1b58:	00000af1 	.word	0x00000af1
    1b5c:	0000054f 	.word	0x0000054f
    1b60:	00000af1 	.word	0x00000af1
    1b64:	00000af1 	.word	0x00000af1
    1b68:	00000af1 	.word	0x00000af1
    1b6c:	00000af1 	.word	0x00000af1
    1b70:	00000af1 	.word	0x00000af1
    1b74:	0000074b 	.word	0x0000074b
    1b78:	00000af1 	.word	0x00000af1
    1b7c:	00000af1 	.word	0x00000af1
    1b80:	0000083f 	.word	0x0000083f
    1b84:	00000af1 	.word	0x00000af1
    1b88:	00000af1 	.word	0x00000af1
    1b8c:	00000af1 	.word	0x00000af1
    1b90:	00000af1 	.word	0x00000af1
    1b94:	00000af1 	.word	0x00000af1
    1b98:	00000af1 	.word	0x00000af1
    1b9c:	00000af1 	.word	0x00000af1
    1ba0:	00000af1 	.word	0x00000af1
    1ba4:	00000af1 	.word	0x00000af1
    1ba8:	00000af1 	.word	0x00000af1
    1bac:	00000307 	.word	0x00000307
    1bb0:	0000033b 	.word	0x0000033b
    1bb4:	00000af1 	.word	0x00000af1
    1bb8:	00000af1 	.word	0x00000af1
    1bbc:	00000af1 	.word	0x00000af1
    1bc0:	00000291 	.word	0x00000291
    1bc4:	0000033b 	.word	0x0000033b
    1bc8:	0000029f 	.word	0x0000029f
    1bcc:	00000af1 	.word	0x00000af1
    1bd0:	000002ad 	.word	0x000002ad
    1bd4:	00000af1 	.word	0x00000af1
    1bd8:	00000455 	.word	0x00000455
    1bdc:	0000055b 	.word	0x0000055b
    1be0:	00000643 	.word	0x00000643
    1be4:	000002dd 	.word	0x000002dd
    1be8:	00000af1 	.word	0x00000af1
    1bec:	000006d1 	.word	0x000006d1
    1bf0:	000002eb 	.word	0x000002eb
    1bf4:	00000757 	.word	0x00000757
    1bf8:	00000af1 	.word	0x00000af1
    1bfc:	00000af1 	.word	0x00000af1
    1c00:	00000849 	.word	0x00000849
    1c04:	00000af1 	.word	0x00000af1
    1c08:	000002f9 	.word	0x000002f9
/home/aom1/Work/Linux/target/STM32MP1-DK2/bootloader/buildroot/optee-os-custom/lib/libutils/ext/snprintk.c:304
    1c0c:	f897 308f 	ldrb.w	r3, [r7, #143]	; 0x8f
    1c10:	2b00      	cmp	r3, #0
    1c12:	f47f af31 	bne.w	1a78 <kprintf+0xc8>
/home/aom1/Work/Linux/target/STM32MP1-DK2/bootloader/buildroot/optee-os-custom/lib/libutils/ext/snprintk.c:305
    1c16:	2320      	movs	r3, #32
    1c18:	f887 308f 	strb.w	r3, [r7, #143]	; 0x8f
/home/aom1/Work/Linux/target/STM32MP1-DK2/bootloader/buildroot/optee-os-custom/lib/libutils/ext/snprintk.c:306
    1c1c:	e72c      	b.n	1a78 <kprintf+0xc8>
/home/aom1/Work/Linux/target/STM32MP1-DK2/bootloader/buildroot/optee-os-custom/lib/libutils/ext/snprintk.c:308
    1c1e:	f8d7 309c 	ldr.w	r3, [r7, #156]	; 0x9c
    1c22:	f043 0301 	orr.w	r3, r3, #1
    1c26:	f8c7 309c 	str.w	r3, [r7, #156]	; 0x9c
/home/aom1/Work/Linux/target/STM32MP1-DK2/bootloader/buildroot/optee-os-custom/lib/libutils/ext/snprintk.c:309
    1c2a:	e725      	b.n	1a78 <kprintf+0xc8>
/home/aom1/Work/Linux/target/STM32MP1-DK2/bootloader/buildroot/optee-os-custom/lib/libutils/ext/snprintk.c:317
    1c2c:	f8d7 20d0 	ldr.w	r2, [r7, #208]	; 0xd0
    1c30:	1d13      	adds	r3, r2, #4
    1c32:	f8c7 30d0 	str.w	r3, [r7, #208]	; 0xd0
    1c36:	6813      	ldr	r3, [r2, #0]
    1c38:	f8c7 3094 	str.w	r3, [r7, #148]	; 0x94
    1c3c:	f8d7 3094 	ldr.w	r3, [r7, #148]	; 0x94
    1c40:	2b00      	cmp	r3, #0
    1c42:	db00      	blt.n	1c46 <kprintf+0x296>
/home/aom1/Work/Linux/target/STM32MP1-DK2/bootloader/buildroot/optee-os-custom/lib/libutils/ext/snprintk.c:318
    1c44:	e718      	b.n	1a78 <kprintf+0xc8>
/home/aom1/Work/Linux/target/STM32MP1-DK2/bootloader/buildroot/optee-os-custom/lib/libutils/ext/snprintk.c:319
    1c46:	f8d7 3094 	ldr.w	r3, [r7, #148]	; 0x94
    1c4a:	425b      	negs	r3, r3
    1c4c:	f8c7 3094 	str.w	r3, [r7, #148]	; 0x94
/home/aom1/Work/Linux/target/STM32MP1-DK2/bootloader/buildroot/optee-os-custom/lib/libutils/ext/snprintk.c:322
    1c50:	f8d7 309c 	ldr.w	r3, [r7, #156]	; 0x9c
    1c54:	f043 0304 	orr.w	r3, r3, #4
    1c58:	f8c7 309c 	str.w	r3, [r7, #156]	; 0x9c
/home/aom1/Work/Linux/target/STM32MP1-DK2/bootloader/buildroot/optee-os-custom/lib/libutils/ext/snprintk.c:323
    1c5c:	e70c      	b.n	1a78 <kprintf+0xc8>
/home/aom1/Work/Linux/target/STM32MP1-DK2/bootloader/buildroot/optee-os-custom/lib/libutils/ext/snprintk.c:325
    1c5e:	232b      	movs	r3, #43	; 0x2b
    1c60:	f887 308f 	strb.w	r3, [r7, #143]	; 0x8f
/home/aom1/Work/Linux/target/STM32MP1-DK2/bootloader/buildroot/optee-os-custom/lib/libutils/ext/snprintk.c:326
    1c64:	e708      	b.n	1a78 <kprintf+0xc8>
/home/aom1/Work/Linux/target/STM32MP1-DK2/bootloader/buildroot/optee-os-custom/lib/libutils/ext/snprintk.c:328
    1c66:	f8d7 20ac 	ldr.w	r2, [r7, #172]	; 0xac
    1c6a:	1c53      	adds	r3, r2, #1
    1c6c:	f8c7 30ac 	str.w	r3, [r7, #172]	; 0xac
    1c70:	7813      	ldrb	r3, [r2, #0]
    1c72:	f8c7 30a8 	str.w	r3, [r7, #168]	; 0xa8
    1c76:	f8d7 30a8 	ldr.w	r3, [r7, #168]	; 0xa8
    1c7a:	2b2a      	cmp	r3, #42	; 0x2a
    1c7c:	d10e      	bne.n	1c9c <kprintf+0x2ec>
/home/aom1/Work/Linux/target/STM32MP1-DK2/bootloader/buildroot/optee-os-custom/lib/libutils/ext/snprintk.c:329
    1c7e:	f8d7 20d0 	ldr.w	r2, [r7, #208]	; 0xd0
    1c82:	1d13      	adds	r3, r2, #4
    1c84:	f8c7 30d0 	str.w	r3, [r7, #208]	; 0xd0
    1c88:	6813      	ldr	r3, [r2, #0]
    1c8a:	f8c7 30a4 	str.w	r3, [r7, #164]	; 0xa4
/home/aom1/Work/Linux/target/STM32MP1-DK2/bootloader/buildroot/optee-os-custom/lib/libutils/ext/snprintk.c:330
    1c8e:	f8d7 30a4 	ldr.w	r3, [r7, #164]	; 0xa4
    1c92:	ea43 73e3 	orr.w	r3, r3, r3, asr #31
    1c96:	f8c7 3090 	str.w	r3, [r7, #144]	; 0x90
/home/aom1/Work/Linux/target/STM32MP1-DK2/bootloader/buildroot/optee-os-custom/lib/libutils/ext/snprintk.c:331
    1c9a:	e6ed      	b.n	1a78 <kprintf+0xc8>
/home/aom1/Work/Linux/target/STM32MP1-DK2/bootloader/buildroot/optee-os-custom/lib/libutils/ext/snprintk.c:333
    1c9c:	2300      	movs	r3, #0
    1c9e:	f8c7 30a4 	str.w	r3, [r7, #164]	; 0xa4
/home/aom1/Work/Linux/target/STM32MP1-DK2/bootloader/buildroot/optee-os-custom/lib/libutils/ext/snprintk.c:334
    1ca2:	e012      	b.n	1cca <kprintf+0x31a>
/home/aom1/Work/Linux/target/STM32MP1-DK2/bootloader/buildroot/optee-os-custom/lib/libutils/ext/snprintk.c:335
    1ca4:	f8d7 20a4 	ldr.w	r2, [r7, #164]	; 0xa4
    1ca8:	230a      	movs	r3, #10
    1caa:	fb03 f202 	mul.w	r2, r3, r2
    1cae:	f8d7 30a8 	ldr.w	r3, [r7, #168]	; 0xa8
    1cb2:	3b30      	subs	r3, #48	; 0x30
    1cb4:	4413      	add	r3, r2
    1cb6:	f8c7 30a4 	str.w	r3, [r7, #164]	; 0xa4
/home/aom1/Work/Linux/target/STM32MP1-DK2/bootloader/buildroot/optee-os-custom/lib/libutils/ext/snprintk.c:336
    1cba:	f8d7 20ac 	ldr.w	r2, [r7, #172]	; 0xac
    1cbe:	1c53      	adds	r3, r2, #1
    1cc0:	f8c7 30ac 	str.w	r3, [r7, #172]	; 0xac
    1cc4:	7813      	ldrb	r3, [r2, #0]
    1cc6:	f8c7 30a8 	str.w	r3, [r7, #168]	; 0xa8
/home/aom1/Work/Linux/target/STM32MP1-DK2/bootloader/buildroot/optee-os-custom/lib/libutils/ext/snprintk.c:334
    1cca:	f8d7 30a8 	ldr.w	r3, [r7, #168]	; 0xa8
    1cce:	3b30      	subs	r3, #48	; 0x30
    1cd0:	2b09      	cmp	r3, #9
    1cd2:	d9e7      	bls.n	1ca4 <kprintf+0x2f4>
/home/aom1/Work/Linux/target/STM32MP1-DK2/bootloader/buildroot/optee-os-custom/lib/libutils/ext/snprintk.c:338
    1cd4:	f8d7 30a4 	ldr.w	r3, [r7, #164]	; 0xa4
    1cd8:	ea43 73e3 	orr.w	r3, r3, r3, asr #31
    1cdc:	f8c7 3090 	str.w	r3, [r7, #144]	; 0x90
/home/aom1/Work/Linux/target/STM32MP1-DK2/bootloader/buildroot/optee-os-custom/lib/libutils/ext/snprintk.c:339
    1ce0:	e6d2      	b.n	1a88 <kprintf+0xd8>
/home/aom1/Work/Linux/target/STM32MP1-DK2/bootloader/buildroot/optee-os-custom/lib/libutils/ext/snprintk.c:346
    1ce2:	f8d7 309c 	ldr.w	r3, [r7, #156]	; 0x9c
    1ce6:	f443 6380 	orr.w	r3, r3, #1024	; 0x400
    1cea:	f8c7 309c 	str.w	r3, [r7, #156]	; 0x9c
/home/aom1/Work/Linux/target/STM32MP1-DK2/bootloader/buildroot/optee-os-custom/lib/libutils/ext/snprintk.c:347
    1cee:	e6c3      	b.n	1a78 <kprintf+0xc8>
/home/aom1/Work/Linux/target/STM32MP1-DK2/bootloader/buildroot/optee-os-custom/lib/libutils/ext/snprintk.c:350
    1cf0:	2300      	movs	r3, #0
    1cf2:	f8c7 30a4 	str.w	r3, [r7, #164]	; 0xa4
/home/aom1/Work/Linux/target/STM32MP1-DK2/bootloader/buildroot/optee-os-custom/lib/libutils/ext/snprintk.c:352 (discriminator 1)
    1cf6:	f8d7 20a4 	ldr.w	r2, [r7, #164]	; 0xa4
    1cfa:	230a      	movs	r3, #10
    1cfc:	fb03 f202 	mul.w	r2, r3, r2
    1d00:	f8d7 30a8 	ldr.w	r3, [r7, #168]	; 0xa8
    1d04:	3b30      	subs	r3, #48	; 0x30
    1d06:	4413      	add	r3, r2
    1d08:	f8c7 30a4 	str.w	r3, [r7, #164]	; 0xa4
/home/aom1/Work/Linux/target/STM32MP1-DK2/bootloader/buildroot/optee-os-custom/lib/libutils/ext/snprintk.c:353 (discriminator 1)
    1d0c:	f8d7 20ac 	ldr.w	r2, [r7, #172]	; 0xac
    1d10:	1c53      	adds	r3, r2, #1
    1d12:	f8c7 30ac 	str.w	r3, [r7, #172]	; 0xac
    1d16:	7813      	ldrb	r3, [r2, #0]
    1d18:	f8c7 30a8 	str.w	r3, [r7, #168]	; 0xa8
/home/aom1/Work/Linux/target/STM32MP1-DK2/bootloader/buildroot/optee-os-custom/lib/libutils/ext/snprintk.c:354 (discriminator 1)
    1d1c:	f8d7 30a8 	ldr.w	r3, [r7, #168]	; 0xa8
    1d20:	3b30      	subs	r3, #48	; 0x30
    1d22:	2b09      	cmp	r3, #9
    1d24:	d9e7      	bls.n	1cf6 <kprintf+0x346>
/home/aom1/Work/Linux/target/STM32MP1-DK2/bootloader/buildroot/optee-os-custom/lib/libutils/ext/snprintk.c:355
    1d26:	f8d7 30a4 	ldr.w	r3, [r7, #164]	; 0xa4
    1d2a:	f8c7 3094 	str.w	r3, [r7, #148]	; 0x94
/home/aom1/Work/Linux/target/STM32MP1-DK2/bootloader/buildroot/optee-os-custom/lib/libutils/ext/snprintk.c:356
    1d2e:	e6ab      	b.n	1a88 <kprintf+0xd8>
/home/aom1/Work/Linux/target/STM32MP1-DK2/bootloader/buildroot/optee-os-custom/lib/libutils/ext/snprintk.c:358
    1d30:	f8d7 309c 	ldr.w	r3, [r7, #156]	; 0x9c
    1d34:	f043 0340 	orr.w	r3, r3, #64	; 0x40
    1d38:	f8c7 309c 	str.w	r3, [r7, #156]	; 0x9c
/home/aom1/Work/Linux/target/STM32MP1-DK2/bootloader/buildroot/optee-os-custom/lib/libutils/ext/snprintk.c:359
    1d3c:	e69c      	b.n	1a78 <kprintf+0xc8>
/home/aom1/Work/Linux/target/STM32MP1-DK2/bootloader/buildroot/optee-os-custom/lib/libutils/ext/snprintk.c:361
    1d3e:	f8d7 309c 	ldr.w	r3, [r7, #156]	; 0x9c
    1d42:	f043 0380 	orr.w	r3, r3, #128	; 0x80
    1d46:	f8c7 309c 	str.w	r3, [r7, #156]	; 0x9c
/home/aom1/Work/Linux/target/STM32MP1-DK2/bootloader/buildroot/optee-os-custom/lib/libutils/ext/snprintk.c:362
    1d4a:	e695      	b.n	1a78 <kprintf+0xc8>
/home/aom1/Work/Linux/target/STM32MP1-DK2/bootloader/buildroot/optee-os-custom/lib/libutils/ext/snprintk.c:364
    1d4c:	f8d7 30ac 	ldr.w	r3, [r7, #172]	; 0xac
    1d50:	781b      	ldrb	r3, [r3, #0]
    1d52:	2b6c      	cmp	r3, #108	; 0x6c
    1d54:	d10b      	bne.n	1d6e <kprintf+0x3be>
/home/aom1/Work/Linux/target/STM32MP1-DK2/bootloader/buildroot/optee-os-custom/lib/libutils/ext/snprintk.c:365
    1d56:	f8d7 30ac 	ldr.w	r3, [r7, #172]	; 0xac
    1d5a:	3301      	adds	r3, #1
    1d5c:	f8c7 30ac 	str.w	r3, [r7, #172]	; 0xac
/home/aom1/Work/Linux/target/STM32MP1-DK2/bootloader/buildroot/optee-os-custom/lib/libutils/ext/snprintk.c:366
    1d60:	f8d7 309c 	ldr.w	r3, [r7, #156]	; 0x9c
    1d64:	f043 0320 	orr.w	r3, r3, #32
    1d68:	f8c7 309c 	str.w	r3, [r7, #156]	; 0x9c
    1d6c:	e684      	b.n	1a78 <kprintf+0xc8>
/home/aom1/Work/Linux/target/STM32MP1-DK2/bootloader/buildroot/optee-os-custom/lib/libutils/ext/snprintk.c:368
    1d6e:	f8d7 309c 	ldr.w	r3, [r7, #156]	; 0x9c
    1d72:	f043 0310 	orr.w	r3, r3, #16
    1d76:	f8c7 309c 	str.w	r3, [r7, #156]	; 0x9c
/home/aom1/Work/Linux/target/STM32MP1-DK2/bootloader/buildroot/optee-os-custom/lib/libutils/ext/snprintk.c:370
    1d7a:	e67d      	b.n	1a78 <kprintf+0xc8>
/home/aom1/Work/Linux/target/STM32MP1-DK2/bootloader/buildroot/optee-os-custom/lib/libutils/ext/snprintk.c:372
    1d7c:	f8d7 309c 	ldr.w	r3, [r7, #156]	; 0x9c
    1d80:	f043 0320 	orr.w	r3, r3, #32
    1d84:	f8c7 309c 	str.w	r3, [r7, #156]	; 0x9c
/home/aom1/Work/Linux/target/STM32MP1-DK2/bootloader/buildroot/optee-os-custom/lib/libutils/ext/snprintk.c:373
    1d88:	e676      	b.n	1a78 <kprintf+0xc8>
/home/aom1/Work/Linux/target/STM32MP1-DK2/bootloader/buildroot/optee-os-custom/lib/libutils/ext/snprintk.c:375
    1d8a:	f8d7 309c 	ldr.w	r3, [r7, #156]	; 0x9c
    1d8e:	f443 7380 	orr.w	r3, r3, #256	; 0x100
    1d92:	f8c7 309c 	str.w	r3, [r7, #156]	; 0x9c
/home/aom1/Work/Linux/target/STM32MP1-DK2/bootloader/buildroot/optee-os-custom/lib/libutils/ext/snprintk.c:376
    1d96:	e66f      	b.n	1a78 <kprintf+0xc8>
/home/aom1/Work/Linux/target/STM32MP1-DK2/bootloader/buildroot/optee-os-custom/lib/libutils/ext/snprintk.c:378
    1d98:	f8d7 309c 	ldr.w	r3, [r7, #156]	; 0x9c
    1d9c:	f443 7300 	orr.w	r3, r3, #512	; 0x200
    1da0:	f8c7 309c 	str.w	r3, [r7, #156]	; 0x9c
/home/aom1/Work/Linux/target/STM32MP1-DK2/bootloader/buildroot/optee-os-custom/lib/libutils/ext/snprintk.c:379
    1da4:	e668      	b.n	1a78 <kprintf+0xc8>
/home/aom1/Work/Linux/target/STM32MP1-DK2/bootloader/buildroot/optee-os-custom/lib/libutils/ext/snprintk.c:381
    1da6:	f8d7 20d0 	ldr.w	r2, [r7, #208]	; 0xd0
    1daa:	1d13      	adds	r3, r2, #4
    1dac:	f8c7 30d0 	str.w	r3, [r7, #208]	; 0xd0
    1db0:	6812      	ldr	r2, [r2, #0]
    1db2:	f107 033c 	add.w	r3, r7, #60	; 0x3c
    1db6:	f8c7 30a0 	str.w	r3, [r7, #160]	; 0xa0
    1dba:	b2d3      	uxtb	r3, r2
    1dbc:	f8d7 20a0 	ldr.w	r2, [r7, #160]	; 0xa0
    1dc0:	7013      	strb	r3, [r2, #0]
/home/aom1/Work/Linux/target/STM32MP1-DK2/bootloader/buildroot/optee-os-custom/lib/libutils/ext/snprintk.c:382
    1dc2:	2301      	movs	r3, #1
    1dc4:	673b      	str	r3, [r7, #112]	; 0x70
/home/aom1/Work/Linux/target/STM32MP1-DK2/bootloader/buildroot/optee-os-custom/lib/libutils/ext/snprintk.c:383
    1dc6:	2300      	movs	r3, #0
    1dc8:	f887 308f 	strb.w	r3, [r7, #143]	; 0x8f
/home/aom1/Work/Linux/target/STM32MP1-DK2/bootloader/buildroot/optee-os-custom/lib/libutils/ext/snprintk.c:384
    1dcc:	e3f5      	b.n	25ba <kprintf+0xc0a>
/home/aom1/Work/Linux/target/STM32MP1-DK2/bootloader/buildroot/optee-os-custom/lib/libutils/ext/snprintk.c:386
    1dce:	f8d7 309c 	ldr.w	r3, [r7, #156]	; 0x9c
    1dd2:	f043 0310 	orr.w	r3, r3, #16
    1dd6:	f8c7 309c 	str.w	r3, [r7, #156]	; 0x9c
/home/aom1/Work/Linux/target/STM32MP1-DK2/bootloader/buildroot/optee-os-custom/lib/libutils/ext/snprintk.c:390
    1dda:	f8d7 309c 	ldr.w	r3, [r7, #156]	; 0x9c
    1dde:	f003 0380 	and.w	r3, r3, #128	; 0x80
    1de2:	2b00      	cmp	r3, #0
    1de4:	d00d      	beq.n	1e02 <kprintf+0x452>
    1de6:	f8d7 30d0 	ldr.w	r3, [r7, #208]	; 0xd0
    1dea:	3307      	adds	r3, #7
    1dec:	f023 0207 	bic.w	r2, r3, #7
    1df0:	f102 0308 	add.w	r3, r2, #8
    1df4:	f8c7 30d0 	str.w	r3, [r7, #208]	; 0xd0
    1df8:	e9d2 2300 	ldrd	r2, r3, [r2]
    1dfc:	e9c7 2308 	strd	r2, r3, [r7, #32]
    1e00:	e05e      	b.n	1ec0 <kprintf+0x510>
/home/aom1/Work/Linux/target/STM32MP1-DK2/bootloader/buildroot/optee-os-custom/lib/libutils/ext/snprintk.c:390 (discriminator 2)
    1e02:	f8d7 309c 	ldr.w	r3, [r7, #156]	; 0x9c
    1e06:	f403 7380 	and.w	r3, r3, #256	; 0x100
    1e0a:	2b00      	cmp	r3, #0
    1e0c:	d009      	beq.n	1e22 <kprintf+0x472>
/home/aom1/Work/Linux/target/STM32MP1-DK2/bootloader/buildroot/optee-os-custom/lib/libutils/ext/snprintk.c:390
    1e0e:	f8d7 20d0 	ldr.w	r2, [r7, #208]	; 0xd0
    1e12:	1d13      	adds	r3, r2, #4
    1e14:	f8c7 30d0 	str.w	r3, [r7, #208]	; 0xd0
    1e18:	6813      	ldr	r3, [r2, #0]
    1e1a:	17da      	asrs	r2, r3, #31
    1e1c:	623b      	str	r3, [r7, #32]
    1e1e:	627a      	str	r2, [r7, #36]	; 0x24
    1e20:	e04e      	b.n	1ec0 <kprintf+0x510>
/home/aom1/Work/Linux/target/STM32MP1-DK2/bootloader/buildroot/optee-os-custom/lib/libutils/ext/snprintk.c:390 (discriminator 5)
    1e22:	f8d7 309c 	ldr.w	r3, [r7, #156]	; 0x9c
    1e26:	f403 7300 	and.w	r3, r3, #512	; 0x200
    1e2a:	2b00      	cmp	r3, #0
    1e2c:	d009      	beq.n	1e42 <kprintf+0x492>
/home/aom1/Work/Linux/target/STM32MP1-DK2/bootloader/buildroot/optee-os-custom/lib/libutils/ext/snprintk.c:390
    1e2e:	f8d7 20d0 	ldr.w	r2, [r7, #208]	; 0xd0
    1e32:	1d13      	adds	r3, r2, #4
    1e34:	f8c7 30d0 	str.w	r3, [r7, #208]	; 0xd0
    1e38:	6813      	ldr	r3, [r2, #0]
    1e3a:	17da      	asrs	r2, r3, #31
    1e3c:	623b      	str	r3, [r7, #32]
    1e3e:	627a      	str	r2, [r7, #36]	; 0x24
    1e40:	e03e      	b.n	1ec0 <kprintf+0x510>
/home/aom1/Work/Linux/target/STM32MP1-DK2/bootloader/buildroot/optee-os-custom/lib/libutils/ext/snprintk.c:390 (discriminator 8)
    1e42:	f8d7 309c 	ldr.w	r3, [r7, #156]	; 0x9c
    1e46:	f003 0320 	and.w	r3, r3, #32
    1e4a:	2b00      	cmp	r3, #0
    1e4c:	d00d      	beq.n	1e6a <kprintf+0x4ba>
/home/aom1/Work/Linux/target/STM32MP1-DK2/bootloader/buildroot/optee-os-custom/lib/libutils/ext/snprintk.c:390
    1e4e:	f8d7 30d0 	ldr.w	r3, [r7, #208]	; 0xd0
    1e52:	3307      	adds	r3, #7
    1e54:	f023 0207 	bic.w	r2, r3, #7
    1e58:	f102 0308 	add.w	r3, r2, #8
    1e5c:	f8c7 30d0 	str.w	r3, [r7, #208]	; 0xd0
    1e60:	e9d2 2300 	ldrd	r2, r3, [r2]
    1e64:	e9c7 2308 	strd	r2, r3, [r7, #32]
    1e68:	e02a      	b.n	1ec0 <kprintf+0x510>
/home/aom1/Work/Linux/target/STM32MP1-DK2/bootloader/buildroot/optee-os-custom/lib/libutils/ext/snprintk.c:390 (discriminator 11)
    1e6a:	f8d7 309c 	ldr.w	r3, [r7, #156]	; 0x9c
    1e6e:	f003 0310 	and.w	r3, r3, #16
    1e72:	2b00      	cmp	r3, #0
    1e74:	d009      	beq.n	1e8a <kprintf+0x4da>
